ARM GAS  T:\msys\tmp\cct7nJJy.s 			page 1


   1              		.cpu cortex-m4
   2              		.eabi_attribute 27, 1
   3              		.eabi_attribute 28, 1
   4              		.eabi_attribute 20, 1
   5              		.eabi_attribute 21, 1
   6              		.eabi_attribute 23, 3
   7              		.eabi_attribute 24, 1
   8              		.eabi_attribute 25, 1
   9              		.eabi_attribute 26, 1
  10              		.eabi_attribute 30, 2
  11              		.eabi_attribute 34, 1
  12              		.eabi_attribute 18, 4
  13              		.file	"lis2mdl_reg.c"
  14              		.text
  15              	.Ltext0:
  16              		.cfi_sections	.debug_frame
  17              		.section	.text.lis2mdl_read_reg,"ax",%progbits
  18              		.align	1
  19              		.p2align 2,,3
  20              		.global	lis2mdl_read_reg
  21              		.arch armv7e-m
  22              		.syntax unified
  23              		.thumb
  24              		.thumb_func
  25              		.fpu fpv4-sp-d16
  27              	lis2mdl_read_reg:
  28              	.LVL0:
  29              	.LFB0:
  30              		.file 1 "D:/fchai/work/i-cube/I-CUBE-HUAWEI/Drivers/BSP/Components/lis2mdl/lis2mdl_reg.c"
   1:D:/fchai/work/i-cube/I-CUBE-HUAWEI/Drivers/BSP/Components/lis2mdl\lis2mdl_reg.c **** /*
   2:D:/fchai/work/i-cube/I-CUBE-HUAWEI/Drivers/BSP/Components/lis2mdl\lis2mdl_reg.c ****  ******************************************************************************
   3:D:/fchai/work/i-cube/I-CUBE-HUAWEI/Drivers/BSP/Components/lis2mdl\lis2mdl_reg.c ****  * @file    lis2mdl_reg.c
   4:D:/fchai/work/i-cube/I-CUBE-HUAWEI/Drivers/BSP/Components/lis2mdl\lis2mdl_reg.c ****  * @author  Sensors Software Solution Team
   5:D:/fchai/work/i-cube/I-CUBE-HUAWEI/Drivers/BSP/Components/lis2mdl\lis2mdl_reg.c ****  * @brief   LIS2MDL driver file
   6:D:/fchai/work/i-cube/I-CUBE-HUAWEI/Drivers/BSP/Components/lis2mdl\lis2mdl_reg.c ****  ******************************************************************************
   7:D:/fchai/work/i-cube/I-CUBE-HUAWEI/Drivers/BSP/Components/lis2mdl\lis2mdl_reg.c ****  * @attention
   8:D:/fchai/work/i-cube/I-CUBE-HUAWEI/Drivers/BSP/Components/lis2mdl\lis2mdl_reg.c ****  *
   9:D:/fchai/work/i-cube/I-CUBE-HUAWEI/Drivers/BSP/Components/lis2mdl\lis2mdl_reg.c ****  * <h2><center>&copy; Copyright (c) 2019 STMicroelectronics.
  10:D:/fchai/work/i-cube/I-CUBE-HUAWEI/Drivers/BSP/Components/lis2mdl\lis2mdl_reg.c ****  * All rights reserved.</center></h2>
  11:D:/fchai/work/i-cube/I-CUBE-HUAWEI/Drivers/BSP/Components/lis2mdl\lis2mdl_reg.c ****  *
  12:D:/fchai/work/i-cube/I-CUBE-HUAWEI/Drivers/BSP/Components/lis2mdl\lis2mdl_reg.c ****  * This software component is licensed by ST under BSD 3-Clause license,
  13:D:/fchai/work/i-cube/I-CUBE-HUAWEI/Drivers/BSP/Components/lis2mdl\lis2mdl_reg.c ****  * the "License"; You may not use this file except in compliance with the
  14:D:/fchai/work/i-cube/I-CUBE-HUAWEI/Drivers/BSP/Components/lis2mdl\lis2mdl_reg.c ****  * License. You may obtain a copy of the License at:
  15:D:/fchai/work/i-cube/I-CUBE-HUAWEI/Drivers/BSP/Components/lis2mdl\lis2mdl_reg.c ****  *                        opensource.org/licenses/BSD-3-Clause
  16:D:/fchai/work/i-cube/I-CUBE-HUAWEI/Drivers/BSP/Components/lis2mdl\lis2mdl_reg.c ****  *
  17:D:/fchai/work/i-cube/I-CUBE-HUAWEI/Drivers/BSP/Components/lis2mdl\lis2mdl_reg.c ****  ******************************************************************************
  18:D:/fchai/work/i-cube/I-CUBE-HUAWEI/Drivers/BSP/Components/lis2mdl\lis2mdl_reg.c ****  */
  19:D:/fchai/work/i-cube/I-CUBE-HUAWEI/Drivers/BSP/Components/lis2mdl\lis2mdl_reg.c **** 
  20:D:/fchai/work/i-cube/I-CUBE-HUAWEI/Drivers/BSP/Components/lis2mdl\lis2mdl_reg.c **** #include "lis2mdl_reg.h"
  21:D:/fchai/work/i-cube/I-CUBE-HUAWEI/Drivers/BSP/Components/lis2mdl\lis2mdl_reg.c **** 
  22:D:/fchai/work/i-cube/I-CUBE-HUAWEI/Drivers/BSP/Components/lis2mdl\lis2mdl_reg.c **** /**
  23:D:/fchai/work/i-cube/I-CUBE-HUAWEI/Drivers/BSP/Components/lis2mdl\lis2mdl_reg.c ****   * @defgroup    LIS2MDL
  24:D:/fchai/work/i-cube/I-CUBE-HUAWEI/Drivers/BSP/Components/lis2mdl\lis2mdl_reg.c ****   * @brief       This file provides a set of functions needed to drive the
  25:D:/fchai/work/i-cube/I-CUBE-HUAWEI/Drivers/BSP/Components/lis2mdl\lis2mdl_reg.c ****   *              lis2mdl enhanced inertial module.
  26:D:/fchai/work/i-cube/I-CUBE-HUAWEI/Drivers/BSP/Components/lis2mdl\lis2mdl_reg.c ****   * @{
  27:D:/fchai/work/i-cube/I-CUBE-HUAWEI/Drivers/BSP/Components/lis2mdl\lis2mdl_reg.c ****   *
  28:D:/fchai/work/i-cube/I-CUBE-HUAWEI/Drivers/BSP/Components/lis2mdl\lis2mdl_reg.c ****   */
ARM GAS  T:\msys\tmp\cct7nJJy.s 			page 2


  29:D:/fchai/work/i-cube/I-CUBE-HUAWEI/Drivers/BSP/Components/lis2mdl\lis2mdl_reg.c **** 
  30:D:/fchai/work/i-cube/I-CUBE-HUAWEI/Drivers/BSP/Components/lis2mdl\lis2mdl_reg.c **** /**
  31:D:/fchai/work/i-cube/I-CUBE-HUAWEI/Drivers/BSP/Components/lis2mdl\lis2mdl_reg.c ****   * @defgroup    LIS2MDL_Interfaces_Functions
  32:D:/fchai/work/i-cube/I-CUBE-HUAWEI/Drivers/BSP/Components/lis2mdl\lis2mdl_reg.c ****   * @brief       This section provide a set of functions used to read and
  33:D:/fchai/work/i-cube/I-CUBE-HUAWEI/Drivers/BSP/Components/lis2mdl\lis2mdl_reg.c ****   *              write a generic register of the device.
  34:D:/fchai/work/i-cube/I-CUBE-HUAWEI/Drivers/BSP/Components/lis2mdl\lis2mdl_reg.c ****   *              MANDATORY: return 0 -> no Error.
  35:D:/fchai/work/i-cube/I-CUBE-HUAWEI/Drivers/BSP/Components/lis2mdl\lis2mdl_reg.c ****   * @{
  36:D:/fchai/work/i-cube/I-CUBE-HUAWEI/Drivers/BSP/Components/lis2mdl\lis2mdl_reg.c ****   *
  37:D:/fchai/work/i-cube/I-CUBE-HUAWEI/Drivers/BSP/Components/lis2mdl\lis2mdl_reg.c ****   */
  38:D:/fchai/work/i-cube/I-CUBE-HUAWEI/Drivers/BSP/Components/lis2mdl\lis2mdl_reg.c **** 
  39:D:/fchai/work/i-cube/I-CUBE-HUAWEI/Drivers/BSP/Components/lis2mdl\lis2mdl_reg.c **** /**
  40:D:/fchai/work/i-cube/I-CUBE-HUAWEI/Drivers/BSP/Components/lis2mdl\lis2mdl_reg.c ****   * @brief  Read generic device register
  41:D:/fchai/work/i-cube/I-CUBE-HUAWEI/Drivers/BSP/Components/lis2mdl\lis2mdl_reg.c ****   *
  42:D:/fchai/work/i-cube/I-CUBE-HUAWEI/Drivers/BSP/Components/lis2mdl\lis2mdl_reg.c ****   * @param  ctx   read / write interface definitions(ptr)
  43:D:/fchai/work/i-cube/I-CUBE-HUAWEI/Drivers/BSP/Components/lis2mdl\lis2mdl_reg.c ****   * @param  reg   register to read
  44:D:/fchai/work/i-cube/I-CUBE-HUAWEI/Drivers/BSP/Components/lis2mdl\lis2mdl_reg.c ****   * @param  data  pointer to buffer that store the data read(ptr)
  45:D:/fchai/work/i-cube/I-CUBE-HUAWEI/Drivers/BSP/Components/lis2mdl\lis2mdl_reg.c ****   * @param  len   number of consecutive register to read
  46:D:/fchai/work/i-cube/I-CUBE-HUAWEI/Drivers/BSP/Components/lis2mdl\lis2mdl_reg.c ****   * @retval       interface status (MANDATORY: return 0 -> no Error)
  47:D:/fchai/work/i-cube/I-CUBE-HUAWEI/Drivers/BSP/Components/lis2mdl\lis2mdl_reg.c ****   *
  48:D:/fchai/work/i-cube/I-CUBE-HUAWEI/Drivers/BSP/Components/lis2mdl\lis2mdl_reg.c ****   */
  49:D:/fchai/work/i-cube/I-CUBE-HUAWEI/Drivers/BSP/Components/lis2mdl\lis2mdl_reg.c **** int32_t lis2mdl_read_reg(stmdev_ctx_t* ctx, uint8_t reg, uint8_t* data,
  50:D:/fchai/work/i-cube/I-CUBE-HUAWEI/Drivers/BSP/Components/lis2mdl\lis2mdl_reg.c ****                          uint16_t len)
  51:D:/fchai/work/i-cube/I-CUBE-HUAWEI/Drivers/BSP/Components/lis2mdl\lis2mdl_reg.c **** {
  31              		.loc 1 51 1 view -0
  32              		.cfi_startproc
  33              		@ args = 0, pretend = 0, frame = 0
  34              		@ frame_needed = 0, uses_anonymous_args = 0
  35              		@ link register save eliminated.
  52:D:/fchai/work/i-cube/I-CUBE-HUAWEI/Drivers/BSP/Components/lis2mdl\lis2mdl_reg.c ****   int32_t ret;
  36              		.loc 1 52 3 view .LVU1
  53:D:/fchai/work/i-cube/I-CUBE-HUAWEI/Drivers/BSP/Components/lis2mdl\lis2mdl_reg.c ****   ret = ctx->read_reg(ctx->handle, reg, data, len);
  37              		.loc 1 53 3 view .LVU2
  51:D:/fchai/work/i-cube/I-CUBE-HUAWEI/Drivers/BSP/Components/lis2mdl\lis2mdl_reg.c ****   int32_t ret;
  38              		.loc 1 51 1 is_stmt 0 view .LVU3
  39 0000 10B4     		push	{r4}
  40              	.LCFI0:
  41              		.cfi_def_cfa_offset 4
  42              		.cfi_offset 4, -4
  43              		.loc 1 53 9 view .LVU4
  44 0002 D0E90140 		ldrd	r4, r0, [r0, #4]
  45              	.LVL1:
  46              		.loc 1 53 9 view .LVU5
  47 0006 A446     		mov	ip, r4
  54:D:/fchai/work/i-cube/I-CUBE-HUAWEI/Drivers/BSP/Components/lis2mdl\lis2mdl_reg.c ****   return ret;
  55:D:/fchai/work/i-cube/I-CUBE-HUAWEI/Drivers/BSP/Components/lis2mdl\lis2mdl_reg.c **** }
  48              		.loc 1 55 1 view .LVU6
  49 0008 5DF8044B 		ldr	r4, [sp], #4
  50              	.LCFI1:
  51              		.cfi_restore 4
  52              		.cfi_def_cfa_offset 0
  53:D:/fchai/work/i-cube/I-CUBE-HUAWEI/Drivers/BSP/Components/lis2mdl\lis2mdl_reg.c ****   return ret;
  53              		.loc 1 53 9 view .LVU7
  54 000c 6047     		bx	ip
  55              	.LVL2:
  53:D:/fchai/work/i-cube/I-CUBE-HUAWEI/Drivers/BSP/Components/lis2mdl\lis2mdl_reg.c ****   return ret;
  56              		.loc 1 53 9 view .LVU8
  57              		.cfi_endproc
ARM GAS  T:\msys\tmp\cct7nJJy.s 			page 3


  58              	.LFE0:
  60 000e 00BF     		.section	.text.lis2mdl_write_reg,"ax",%progbits
  61              		.align	1
  62              		.p2align 2,,3
  63              		.global	lis2mdl_write_reg
  64              		.syntax unified
  65              		.thumb
  66              		.thumb_func
  67              		.fpu fpv4-sp-d16
  69              	lis2mdl_write_reg:
  70              	.LVL3:
  71              	.LFB1:
  56:D:/fchai/work/i-cube/I-CUBE-HUAWEI/Drivers/BSP/Components/lis2mdl\lis2mdl_reg.c **** 
  57:D:/fchai/work/i-cube/I-CUBE-HUAWEI/Drivers/BSP/Components/lis2mdl\lis2mdl_reg.c **** /**
  58:D:/fchai/work/i-cube/I-CUBE-HUAWEI/Drivers/BSP/Components/lis2mdl\lis2mdl_reg.c ****   * @brief  Write generic device register
  59:D:/fchai/work/i-cube/I-CUBE-HUAWEI/Drivers/BSP/Components/lis2mdl\lis2mdl_reg.c ****   *
  60:D:/fchai/work/i-cube/I-CUBE-HUAWEI/Drivers/BSP/Components/lis2mdl\lis2mdl_reg.c ****   * @param  ctx   read / write interface definitions(ptr)
  61:D:/fchai/work/i-cube/I-CUBE-HUAWEI/Drivers/BSP/Components/lis2mdl\lis2mdl_reg.c ****   * @param  reg   register to write
  62:D:/fchai/work/i-cube/I-CUBE-HUAWEI/Drivers/BSP/Components/lis2mdl\lis2mdl_reg.c ****   * @param  data  pointer to data to write in register reg(ptr)
  63:D:/fchai/work/i-cube/I-CUBE-HUAWEI/Drivers/BSP/Components/lis2mdl\lis2mdl_reg.c ****   * @param  len   number of consecutive register to write
  64:D:/fchai/work/i-cube/I-CUBE-HUAWEI/Drivers/BSP/Components/lis2mdl\lis2mdl_reg.c ****   * @retval       interface status (MANDATORY: return 0 -> no Error)
  65:D:/fchai/work/i-cube/I-CUBE-HUAWEI/Drivers/BSP/Components/lis2mdl\lis2mdl_reg.c ****   *
  66:D:/fchai/work/i-cube/I-CUBE-HUAWEI/Drivers/BSP/Components/lis2mdl\lis2mdl_reg.c ****   */
  67:D:/fchai/work/i-cube/I-CUBE-HUAWEI/Drivers/BSP/Components/lis2mdl\lis2mdl_reg.c **** int32_t lis2mdl_write_reg(stmdev_ctx_t* ctx, uint8_t reg, uint8_t* data,
  68:D:/fchai/work/i-cube/I-CUBE-HUAWEI/Drivers/BSP/Components/lis2mdl\lis2mdl_reg.c ****                           uint16_t len)
  69:D:/fchai/work/i-cube/I-CUBE-HUAWEI/Drivers/BSP/Components/lis2mdl\lis2mdl_reg.c **** {
  72              		.loc 1 69 1 is_stmt 1 view -0
  73              		.cfi_startproc
  74              		@ args = 0, pretend = 0, frame = 0
  75              		@ frame_needed = 0, uses_anonymous_args = 0
  76              		@ link register save eliminated.
  70:D:/fchai/work/i-cube/I-CUBE-HUAWEI/Drivers/BSP/Components/lis2mdl\lis2mdl_reg.c ****   int32_t ret;
  77              		.loc 1 70 3 view .LVU10
  71:D:/fchai/work/i-cube/I-CUBE-HUAWEI/Drivers/BSP/Components/lis2mdl\lis2mdl_reg.c ****   ret = ctx->write_reg(ctx->handle, reg, data, len);
  78              		.loc 1 71 3 view .LVU11
  69:D:/fchai/work/i-cube/I-CUBE-HUAWEI/Drivers/BSP/Components/lis2mdl\lis2mdl_reg.c ****   int32_t ret;
  79              		.loc 1 69 1 is_stmt 0 view .LVU12
  80 0000 10B4     		push	{r4}
  81              	.LCFI2:
  82              		.cfi_def_cfa_offset 4
  83              		.cfi_offset 4, -4
  84              		.loc 1 71 9 view .LVU13
  85 0002 0468     		ldr	r4, [r0]
  86 0004 8068     		ldr	r0, [r0, #8]
  87              	.LVL4:
  88              		.loc 1 71 9 view .LVU14
  89 0006 A446     		mov	ip, r4
  72:D:/fchai/work/i-cube/I-CUBE-HUAWEI/Drivers/BSP/Components/lis2mdl\lis2mdl_reg.c ****   return ret;
  73:D:/fchai/work/i-cube/I-CUBE-HUAWEI/Drivers/BSP/Components/lis2mdl\lis2mdl_reg.c **** }
  90              		.loc 1 73 1 view .LVU15
  91 0008 5DF8044B 		ldr	r4, [sp], #4
  92              	.LCFI3:
  93              		.cfi_restore 4
  94              		.cfi_def_cfa_offset 0
  71:D:/fchai/work/i-cube/I-CUBE-HUAWEI/Drivers/BSP/Components/lis2mdl\lis2mdl_reg.c ****   return ret;
  95              		.loc 1 71 9 view .LVU16
  96 000c 6047     		bx	ip
ARM GAS  T:\msys\tmp\cct7nJJy.s 			page 4


  97              	.LVL5:
  71:D:/fchai/work/i-cube/I-CUBE-HUAWEI/Drivers/BSP/Components/lis2mdl\lis2mdl_reg.c ****   return ret;
  98              		.loc 1 71 9 view .LVU17
  99              		.cfi_endproc
 100              	.LFE1:
 102 000e 00BF     		.section	.text.lis2mdl_from_lsb_to_mgauss,"ax",%progbits
 103              		.align	1
 104              		.p2align 2,,3
 105              		.global	lis2mdl_from_lsb_to_mgauss
 106              		.syntax unified
 107              		.thumb
 108              		.thumb_func
 109              		.fpu fpv4-sp-d16
 111              	lis2mdl_from_lsb_to_mgauss:
 112              	.LVL6:
 113              	.LFB2:
  74:D:/fchai/work/i-cube/I-CUBE-HUAWEI/Drivers/BSP/Components/lis2mdl\lis2mdl_reg.c **** 
  75:D:/fchai/work/i-cube/I-CUBE-HUAWEI/Drivers/BSP/Components/lis2mdl\lis2mdl_reg.c **** /**
  76:D:/fchai/work/i-cube/I-CUBE-HUAWEI/Drivers/BSP/Components/lis2mdl\lis2mdl_reg.c ****   * @}
  77:D:/fchai/work/i-cube/I-CUBE-HUAWEI/Drivers/BSP/Components/lis2mdl\lis2mdl_reg.c ****   *
  78:D:/fchai/work/i-cube/I-CUBE-HUAWEI/Drivers/BSP/Components/lis2mdl\lis2mdl_reg.c ****   */
  79:D:/fchai/work/i-cube/I-CUBE-HUAWEI/Drivers/BSP/Components/lis2mdl\lis2mdl_reg.c **** 
  80:D:/fchai/work/i-cube/I-CUBE-HUAWEI/Drivers/BSP/Components/lis2mdl\lis2mdl_reg.c ****   /**
  81:D:/fchai/work/i-cube/I-CUBE-HUAWEI/Drivers/BSP/Components/lis2mdl\lis2mdl_reg.c ****   * @defgroup    LIS2MDL_Sensitivity
  82:D:/fchai/work/i-cube/I-CUBE-HUAWEI/Drivers/BSP/Components/lis2mdl\lis2mdl_reg.c ****   * @brief       These functions convert raw-data into engineering units.
  83:D:/fchai/work/i-cube/I-CUBE-HUAWEI/Drivers/BSP/Components/lis2mdl\lis2mdl_reg.c ****   * @{
  84:D:/fchai/work/i-cube/I-CUBE-HUAWEI/Drivers/BSP/Components/lis2mdl\lis2mdl_reg.c ****   *
  85:D:/fchai/work/i-cube/I-CUBE-HUAWEI/Drivers/BSP/Components/lis2mdl\lis2mdl_reg.c ****   */
  86:D:/fchai/work/i-cube/I-CUBE-HUAWEI/Drivers/BSP/Components/lis2mdl\lis2mdl_reg.c **** float_t lis2mdl_from_lsb_to_mgauss(int16_t lsb)
  87:D:/fchai/work/i-cube/I-CUBE-HUAWEI/Drivers/BSP/Components/lis2mdl\lis2mdl_reg.c **** {
 114              		.loc 1 87 1 is_stmt 1 view -0
 115              		.cfi_startproc
 116              		@ args = 0, pretend = 0, frame = 0
 117              		@ frame_needed = 0, uses_anonymous_args = 0
 118              		@ link register save eliminated.
  88:D:/fchai/work/i-cube/I-CUBE-HUAWEI/Drivers/BSP/Components/lis2mdl\lis2mdl_reg.c ****   return ((float_t)lsb * 1.5f);
 119              		.loc 1 88 3 view .LVU19
 120              		.loc 1 88 11 is_stmt 0 view .LVU20
 121 0000 07EE900A 		vmov	s15, r0	@ int
 122 0004 B8EEE70A 		vcvt.f32.s32	s0, s15
 123              		.loc 1 88 24 view .LVU21
 124 0008 F7EE087A 		vmov.f32	s15, #1.5e+0
  89:D:/fchai/work/i-cube/I-CUBE-HUAWEI/Drivers/BSP/Components/lis2mdl\lis2mdl_reg.c **** }
 125              		.loc 1 89 1 view .LVU22
 126 000c 20EE270A 		vmul.f32	s0, s0, s15
 127 0010 7047     		bx	lr
 128              		.cfi_endproc
 129              	.LFE2:
 131 0012 00BF     		.section	.text.lis2mdl_from_lsb_to_celsius,"ax",%progbits
 132              		.align	1
 133              		.p2align 2,,3
 134              		.global	lis2mdl_from_lsb_to_celsius
 135              		.syntax unified
 136              		.thumb
 137              		.thumb_func
 138              		.fpu fpv4-sp-d16
 140              	lis2mdl_from_lsb_to_celsius:
ARM GAS  T:\msys\tmp\cct7nJJy.s 			page 5


 141              	.LVL7:
 142              	.LFB3:
  90:D:/fchai/work/i-cube/I-CUBE-HUAWEI/Drivers/BSP/Components/lis2mdl\lis2mdl_reg.c **** 
  91:D:/fchai/work/i-cube/I-CUBE-HUAWEI/Drivers/BSP/Components/lis2mdl\lis2mdl_reg.c **** float_t lis2mdl_from_lsb_to_celsius(int16_t lsb)
  92:D:/fchai/work/i-cube/I-CUBE-HUAWEI/Drivers/BSP/Components/lis2mdl\lis2mdl_reg.c **** {
 143              		.loc 1 92 1 is_stmt 1 view -0
 144              		.cfi_startproc
 145              		@ args = 0, pretend = 0, frame = 0
 146              		@ frame_needed = 0, uses_anonymous_args = 0
 147              		@ link register save eliminated.
  93:D:/fchai/work/i-cube/I-CUBE-HUAWEI/Drivers/BSP/Components/lis2mdl\lis2mdl_reg.c ****   return (((float_t)lsb / 8.0f) + 25.0f);
 148              		.loc 1 93 3 view .LVU24
 149              		.loc 1 93 12 is_stmt 0 view .LVU25
 150 0000 07EE900A 		vmov	s15, r0	@ int
 151 0004 F8EEE77A 		vcvt.f32.s32	s15, s15
 152              		.loc 1 93 33 view .LVU26
 153 0008 B4EE007A 		vmov.f32	s14, #1.25e-1
 154 000c B3EE090A 		vmov.f32	s0, #2.5e+1
  94:D:/fchai/work/i-cube/I-CUBE-HUAWEI/Drivers/BSP/Components/lis2mdl\lis2mdl_reg.c **** }
 155              		.loc 1 94 1 view .LVU27
 156 0010 A7EE870A 		vfma.f32	s0, s15, s14
 157 0014 7047     		bx	lr
 158              		.cfi_endproc
 159              	.LFE3:
 161 0016 00BF     		.section	.text.lis2mdl_mag_user_offset_set,"ax",%progbits
 162              		.align	1
 163              		.p2align 2,,3
 164              		.global	lis2mdl_mag_user_offset_set
 165              		.syntax unified
 166              		.thumb
 167              		.thumb_func
 168              		.fpu fpv4-sp-d16
 170              	lis2mdl_mag_user_offset_set:
 171              	.LVL8:
 172              	.LFB4:
  95:D:/fchai/work/i-cube/I-CUBE-HUAWEI/Drivers/BSP/Components/lis2mdl\lis2mdl_reg.c **** 
  96:D:/fchai/work/i-cube/I-CUBE-HUAWEI/Drivers/BSP/Components/lis2mdl\lis2mdl_reg.c **** /**
  97:D:/fchai/work/i-cube/I-CUBE-HUAWEI/Drivers/BSP/Components/lis2mdl\lis2mdl_reg.c ****   * @}
  98:D:/fchai/work/i-cube/I-CUBE-HUAWEI/Drivers/BSP/Components/lis2mdl\lis2mdl_reg.c ****   *
  99:D:/fchai/work/i-cube/I-CUBE-HUAWEI/Drivers/BSP/Components/lis2mdl\lis2mdl_reg.c ****   */
 100:D:/fchai/work/i-cube/I-CUBE-HUAWEI/Drivers/BSP/Components/lis2mdl\lis2mdl_reg.c **** 
 101:D:/fchai/work/i-cube/I-CUBE-HUAWEI/Drivers/BSP/Components/lis2mdl\lis2mdl_reg.c **** /**
 102:D:/fchai/work/i-cube/I-CUBE-HUAWEI/Drivers/BSP/Components/lis2mdl\lis2mdl_reg.c ****   * @defgroup    LIS2MDL_data_generation
 103:D:/fchai/work/i-cube/I-CUBE-HUAWEI/Drivers/BSP/Components/lis2mdl\lis2mdl_reg.c ****   * @brief       This section group all the functions concerning
 104:D:/fchai/work/i-cube/I-CUBE-HUAWEI/Drivers/BSP/Components/lis2mdl\lis2mdl_reg.c ****   *              data generation
 105:D:/fchai/work/i-cube/I-CUBE-HUAWEI/Drivers/BSP/Components/lis2mdl\lis2mdl_reg.c ****   * @{
 106:D:/fchai/work/i-cube/I-CUBE-HUAWEI/Drivers/BSP/Components/lis2mdl\lis2mdl_reg.c ****   *
 107:D:/fchai/work/i-cube/I-CUBE-HUAWEI/Drivers/BSP/Components/lis2mdl\lis2mdl_reg.c ****   */
 108:D:/fchai/work/i-cube/I-CUBE-HUAWEI/Drivers/BSP/Components/lis2mdl\lis2mdl_reg.c **** 
 109:D:/fchai/work/i-cube/I-CUBE-HUAWEI/Drivers/BSP/Components/lis2mdl\lis2mdl_reg.c **** /**
 110:D:/fchai/work/i-cube/I-CUBE-HUAWEI/Drivers/BSP/Components/lis2mdl\lis2mdl_reg.c ****   * @brief  These registers comprise a 3 group of 16-bit number and represent
 111:D:/fchai/work/i-cube/I-CUBE-HUAWEI/Drivers/BSP/Components/lis2mdl\lis2mdl_reg.c ****   *         hard-iron offset in order to compensate environmental effects.
 112:D:/fchai/work/i-cube/I-CUBE-HUAWEI/Drivers/BSP/Components/lis2mdl\lis2mdl_reg.c ****   *         Data format is the same of output data raw: two’s complement
 113:D:/fchai/work/i-cube/I-CUBE-HUAWEI/Drivers/BSP/Components/lis2mdl\lis2mdl_reg.c ****   *         with 1LSb = 1.5mG. These values act on the magnetic output data
 114:D:/fchai/work/i-cube/I-CUBE-HUAWEI/Drivers/BSP/Components/lis2mdl\lis2mdl_reg.c ****   *         value in order to delete the environmental offset.[set]
 115:D:/fchai/work/i-cube/I-CUBE-HUAWEI/Drivers/BSP/Components/lis2mdl\lis2mdl_reg.c ****   *
 116:D:/fchai/work/i-cube/I-CUBE-HUAWEI/Drivers/BSP/Components/lis2mdl\lis2mdl_reg.c ****   * @param  ctx   read / write interface definitions.(ptr)
ARM GAS  T:\msys\tmp\cct7nJJy.s 			page 6


 117:D:/fchai/work/i-cube/I-CUBE-HUAWEI/Drivers/BSP/Components/lis2mdl\lis2mdl_reg.c ****   * @param  buff  buffer that contains data to write
 118:D:/fchai/work/i-cube/I-CUBE-HUAWEI/Drivers/BSP/Components/lis2mdl\lis2mdl_reg.c ****   * @retval       interface status.(MANDATORY: return 0 -> no Error)
 119:D:/fchai/work/i-cube/I-CUBE-HUAWEI/Drivers/BSP/Components/lis2mdl\lis2mdl_reg.c ****   *
 120:D:/fchai/work/i-cube/I-CUBE-HUAWEI/Drivers/BSP/Components/lis2mdl\lis2mdl_reg.c ****   */
 121:D:/fchai/work/i-cube/I-CUBE-HUAWEI/Drivers/BSP/Components/lis2mdl\lis2mdl_reg.c **** int32_t lis2mdl_mag_user_offset_set(stmdev_ctx_t *ctx, uint8_t *buff)
 122:D:/fchai/work/i-cube/I-CUBE-HUAWEI/Drivers/BSP/Components/lis2mdl\lis2mdl_reg.c **** {
 173              		.loc 1 122 1 is_stmt 1 view -0
 174              		.cfi_startproc
 175              		@ args = 0, pretend = 0, frame = 0
 176              		@ frame_needed = 0, uses_anonymous_args = 0
 177              		@ link register save eliminated.
 123:D:/fchai/work/i-cube/I-CUBE-HUAWEI/Drivers/BSP/Components/lis2mdl\lis2mdl_reg.c ****   int32_t ret;
 178              		.loc 1 123 3 view .LVU29
 124:D:/fchai/work/i-cube/I-CUBE-HUAWEI/Drivers/BSP/Components/lis2mdl\lis2mdl_reg.c ****   ret = lis2mdl_write_reg(ctx, LIS2MDL_OFFSET_X_REG_L, buff, 6);
 179              		.loc 1 124 3 view .LVU30
 122:D:/fchai/work/i-cube/I-CUBE-HUAWEI/Drivers/BSP/Components/lis2mdl\lis2mdl_reg.c ****   int32_t ret;
 180              		.loc 1 122 1 is_stmt 0 view .LVU31
 181 0000 10B4     		push	{r4}
 182              	.LCFI4:
 183              		.cfi_def_cfa_offset 4
 184              		.cfi_offset 4, -4
 185              	.LBB130:
 186              	.LBB131:
  71:D:/fchai/work/i-cube/I-CUBE-HUAWEI/Drivers/BSP/Components/lis2mdl\lis2mdl_reg.c ****   return ret;
 187              		.loc 1 71 9 view .LVU32
 188 0002 0468     		ldr	r4, [r0]
 189 0004 8068     		ldr	r0, [r0, #8]
 190              	.LVL9:
  71:D:/fchai/work/i-cube/I-CUBE-HUAWEI/Drivers/BSP/Components/lis2mdl\lis2mdl_reg.c ****   return ret;
 191              		.loc 1 71 9 view .LVU33
 192              	.LBE131:
 193              	.LBE130:
 122:D:/fchai/work/i-cube/I-CUBE-HUAWEI/Drivers/BSP/Components/lis2mdl\lis2mdl_reg.c ****   int32_t ret;
 194              		.loc 1 122 1 view .LVU34
 195 0006 0A46     		mov	r2, r1
 196              	.LVL10:
 197              	.LBB134:
 198              	.LBI130:
  67:D:/fchai/work/i-cube/I-CUBE-HUAWEI/Drivers/BSP/Components/lis2mdl\lis2mdl_reg.c ****                           uint16_t len)
 199              		.loc 1 67 9 is_stmt 1 view .LVU35
 200              	.LBB132:
  70:D:/fchai/work/i-cube/I-CUBE-HUAWEI/Drivers/BSP/Components/lis2mdl\lis2mdl_reg.c ****   ret = ctx->write_reg(ctx->handle, reg, data, len);
 201              		.loc 1 70 3 view .LVU36
  71:D:/fchai/work/i-cube/I-CUBE-HUAWEI/Drivers/BSP/Components/lis2mdl\lis2mdl_reg.c ****   return ret;
 202              		.loc 1 71 3 view .LVU37
  71:D:/fchai/work/i-cube/I-CUBE-HUAWEI/Drivers/BSP/Components/lis2mdl\lis2mdl_reg.c ****   return ret;
 203              		.loc 1 71 9 is_stmt 0 view .LVU38
 204 0008 A446     		mov	ip, r4
 205 000a 0623     		movs	r3, #6
 206              	.LBE132:
 207              	.LBE134:
 125:D:/fchai/work/i-cube/I-CUBE-HUAWEI/Drivers/BSP/Components/lis2mdl\lis2mdl_reg.c ****   return ret;
 126:D:/fchai/work/i-cube/I-CUBE-HUAWEI/Drivers/BSP/Components/lis2mdl\lis2mdl_reg.c **** }
 208              		.loc 1 126 1 view .LVU39
 209 000c 5DF8044B 		ldr	r4, [sp], #4
 210              	.LCFI5:
 211              		.cfi_restore 4
ARM GAS  T:\msys\tmp\cct7nJJy.s 			page 7


 212              		.cfi_def_cfa_offset 0
 213              	.LBB135:
 214              	.LBB133:
  71:D:/fchai/work/i-cube/I-CUBE-HUAWEI/Drivers/BSP/Components/lis2mdl\lis2mdl_reg.c ****   return ret;
 215              		.loc 1 71 9 view .LVU40
 216 0010 4521     		movs	r1, #69
 217              	.LVL11:
  71:D:/fchai/work/i-cube/I-CUBE-HUAWEI/Drivers/BSP/Components/lis2mdl\lis2mdl_reg.c ****   return ret;
 218              		.loc 1 71 9 view .LVU41
 219 0012 6047     		bx	ip
 220              	.LVL12:
  71:D:/fchai/work/i-cube/I-CUBE-HUAWEI/Drivers/BSP/Components/lis2mdl\lis2mdl_reg.c ****   return ret;
 221              		.loc 1 71 9 view .LVU42
 222              	.LBE133:
 223              	.LBE135:
 224              		.cfi_endproc
 225              	.LFE4:
 227              		.section	.text.lis2mdl_mag_user_offset_get,"ax",%progbits
 228              		.align	1
 229              		.p2align 2,,3
 230              		.global	lis2mdl_mag_user_offset_get
 231              		.syntax unified
 232              		.thumb
 233              		.thumb_func
 234              		.fpu fpv4-sp-d16
 236              	lis2mdl_mag_user_offset_get:
 237              	.LVL13:
 238              	.LFB5:
 127:D:/fchai/work/i-cube/I-CUBE-HUAWEI/Drivers/BSP/Components/lis2mdl\lis2mdl_reg.c **** 
 128:D:/fchai/work/i-cube/I-CUBE-HUAWEI/Drivers/BSP/Components/lis2mdl\lis2mdl_reg.c **** /**
 129:D:/fchai/work/i-cube/I-CUBE-HUAWEI/Drivers/BSP/Components/lis2mdl\lis2mdl_reg.c ****   * @brief  These registers comprise a 3 group of 16-bit number and represent
 130:D:/fchai/work/i-cube/I-CUBE-HUAWEI/Drivers/BSP/Components/lis2mdl\lis2mdl_reg.c ****   *         hard-iron offset in order to compensate environmental effects.
 131:D:/fchai/work/i-cube/I-CUBE-HUAWEI/Drivers/BSP/Components/lis2mdl\lis2mdl_reg.c ****   *         Data format is the same of output data raw: two’s complement
 132:D:/fchai/work/i-cube/I-CUBE-HUAWEI/Drivers/BSP/Components/lis2mdl\lis2mdl_reg.c ****   *         with 1LSb = 1.5mG. These values act on the magnetic output data
 133:D:/fchai/work/i-cube/I-CUBE-HUAWEI/Drivers/BSP/Components/lis2mdl\lis2mdl_reg.c ****   *         value in order to delete the environmental offset.[get]
 134:D:/fchai/work/i-cube/I-CUBE-HUAWEI/Drivers/BSP/Components/lis2mdl\lis2mdl_reg.c ****   *
 135:D:/fchai/work/i-cube/I-CUBE-HUAWEI/Drivers/BSP/Components/lis2mdl\lis2mdl_reg.c ****   * @param  ctx   read / write interface definitions.(ptr)
 136:D:/fchai/work/i-cube/I-CUBE-HUAWEI/Drivers/BSP/Components/lis2mdl\lis2mdl_reg.c ****   * @param  buff  that stores data read
 137:D:/fchai/work/i-cube/I-CUBE-HUAWEI/Drivers/BSP/Components/lis2mdl\lis2mdl_reg.c ****   * @retval       interface status.(MANDATORY: return 0 -> no Error)
 138:D:/fchai/work/i-cube/I-CUBE-HUAWEI/Drivers/BSP/Components/lis2mdl\lis2mdl_reg.c ****   *
 139:D:/fchai/work/i-cube/I-CUBE-HUAWEI/Drivers/BSP/Components/lis2mdl\lis2mdl_reg.c ****   */
 140:D:/fchai/work/i-cube/I-CUBE-HUAWEI/Drivers/BSP/Components/lis2mdl\lis2mdl_reg.c **** int32_t lis2mdl_mag_user_offset_get(stmdev_ctx_t *ctx, uint8_t *buff)
 141:D:/fchai/work/i-cube/I-CUBE-HUAWEI/Drivers/BSP/Components/lis2mdl\lis2mdl_reg.c **** {
 239              		.loc 1 141 1 is_stmt 1 view -0
 240              		.cfi_startproc
 241              		@ args = 0, pretend = 0, frame = 0
 242              		@ frame_needed = 0, uses_anonymous_args = 0
 243              		@ link register save eliminated.
 142:D:/fchai/work/i-cube/I-CUBE-HUAWEI/Drivers/BSP/Components/lis2mdl\lis2mdl_reg.c ****   int32_t ret;
 244              		.loc 1 142 3 view .LVU44
 143:D:/fchai/work/i-cube/I-CUBE-HUAWEI/Drivers/BSP/Components/lis2mdl\lis2mdl_reg.c ****   ret = lis2mdl_read_reg(ctx, LIS2MDL_OFFSET_X_REG_L, buff, 6);
 245              		.loc 1 143 3 view .LVU45
 141:D:/fchai/work/i-cube/I-CUBE-HUAWEI/Drivers/BSP/Components/lis2mdl\lis2mdl_reg.c ****   int32_t ret;
 246              		.loc 1 141 1 is_stmt 0 view .LVU46
 247 0000 10B4     		push	{r4}
 248              	.LCFI6:
 249              		.cfi_def_cfa_offset 4
ARM GAS  T:\msys\tmp\cct7nJJy.s 			page 8


 250              		.cfi_offset 4, -4
 251              	.LBB136:
 252              	.LBB137:
  53:D:/fchai/work/i-cube/I-CUBE-HUAWEI/Drivers/BSP/Components/lis2mdl\lis2mdl_reg.c ****   return ret;
 253              		.loc 1 53 9 view .LVU47
 254 0002 D0E90140 		ldrd	r4, r0, [r0, #4]
 255              	.LVL14:
  53:D:/fchai/work/i-cube/I-CUBE-HUAWEI/Drivers/BSP/Components/lis2mdl\lis2mdl_reg.c ****   return ret;
 256              		.loc 1 53 9 view .LVU48
 257              	.LBE137:
 258              	.LBE136:
 141:D:/fchai/work/i-cube/I-CUBE-HUAWEI/Drivers/BSP/Components/lis2mdl\lis2mdl_reg.c ****   int32_t ret;
 259              		.loc 1 141 1 view .LVU49
 260 0006 0A46     		mov	r2, r1
 261              	.LVL15:
 262              	.LBB140:
 263              	.LBI136:
  49:D:/fchai/work/i-cube/I-CUBE-HUAWEI/Drivers/BSP/Components/lis2mdl\lis2mdl_reg.c ****                          uint16_t len)
 264              		.loc 1 49 9 is_stmt 1 view .LVU50
 265              	.LBB138:
  52:D:/fchai/work/i-cube/I-CUBE-HUAWEI/Drivers/BSP/Components/lis2mdl\lis2mdl_reg.c ****   ret = ctx->read_reg(ctx->handle, reg, data, len);
 266              		.loc 1 52 3 view .LVU51
  53:D:/fchai/work/i-cube/I-CUBE-HUAWEI/Drivers/BSP/Components/lis2mdl\lis2mdl_reg.c ****   return ret;
 267              		.loc 1 53 3 view .LVU52
  53:D:/fchai/work/i-cube/I-CUBE-HUAWEI/Drivers/BSP/Components/lis2mdl\lis2mdl_reg.c ****   return ret;
 268              		.loc 1 53 9 is_stmt 0 view .LVU53
 269 0008 A446     		mov	ip, r4
 270 000a 0623     		movs	r3, #6
 271              	.LBE138:
 272              	.LBE140:
 144:D:/fchai/work/i-cube/I-CUBE-HUAWEI/Drivers/BSP/Components/lis2mdl\lis2mdl_reg.c ****   return ret;
 145:D:/fchai/work/i-cube/I-CUBE-HUAWEI/Drivers/BSP/Components/lis2mdl\lis2mdl_reg.c **** }
 273              		.loc 1 145 1 view .LVU54
 274 000c 5DF8044B 		ldr	r4, [sp], #4
 275              	.LCFI7:
 276              		.cfi_restore 4
 277              		.cfi_def_cfa_offset 0
 278              	.LBB141:
 279              	.LBB139:
  53:D:/fchai/work/i-cube/I-CUBE-HUAWEI/Drivers/BSP/Components/lis2mdl\lis2mdl_reg.c ****   return ret;
 280              		.loc 1 53 9 view .LVU55
 281 0010 4521     		movs	r1, #69
 282              	.LVL16:
  53:D:/fchai/work/i-cube/I-CUBE-HUAWEI/Drivers/BSP/Components/lis2mdl\lis2mdl_reg.c ****   return ret;
 283              		.loc 1 53 9 view .LVU56
 284 0012 6047     		bx	ip
 285              	.LVL17:
  53:D:/fchai/work/i-cube/I-CUBE-HUAWEI/Drivers/BSP/Components/lis2mdl\lis2mdl_reg.c ****   return ret;
 286              		.loc 1 53 9 view .LVU57
 287              	.LBE139:
 288              	.LBE141:
 289              		.cfi_endproc
 290              	.LFE5:
 292              		.section	.text.lis2mdl_operating_mode_set,"ax",%progbits
 293              		.align	1
 294              		.p2align 2,,3
 295              		.global	lis2mdl_operating_mode_set
ARM GAS  T:\msys\tmp\cct7nJJy.s 			page 9


 296              		.syntax unified
 297              		.thumb
 298              		.thumb_func
 299              		.fpu fpv4-sp-d16
 301              	lis2mdl_operating_mode_set:
 302              	.LVL18:
 303              	.LFB6:
 146:D:/fchai/work/i-cube/I-CUBE-HUAWEI/Drivers/BSP/Components/lis2mdl\lis2mdl_reg.c **** 
 147:D:/fchai/work/i-cube/I-CUBE-HUAWEI/Drivers/BSP/Components/lis2mdl\lis2mdl_reg.c **** /**
 148:D:/fchai/work/i-cube/I-CUBE-HUAWEI/Drivers/BSP/Components/lis2mdl\lis2mdl_reg.c ****   * @brief  Operating mode selection.[set]
 149:D:/fchai/work/i-cube/I-CUBE-HUAWEI/Drivers/BSP/Components/lis2mdl\lis2mdl_reg.c ****   *
 150:D:/fchai/work/i-cube/I-CUBE-HUAWEI/Drivers/BSP/Components/lis2mdl\lis2mdl_reg.c ****   * @param  ctx    read / write interface definitions.(ptr)
 151:D:/fchai/work/i-cube/I-CUBE-HUAWEI/Drivers/BSP/Components/lis2mdl\lis2mdl_reg.c ****   * @param  val    change the values of md in reg CFG_REG_A
 152:D:/fchai/work/i-cube/I-CUBE-HUAWEI/Drivers/BSP/Components/lis2mdl\lis2mdl_reg.c ****   * @retval        interface status.(MANDATORY: return 0 -> no Error)
 153:D:/fchai/work/i-cube/I-CUBE-HUAWEI/Drivers/BSP/Components/lis2mdl\lis2mdl_reg.c ****   *
 154:D:/fchai/work/i-cube/I-CUBE-HUAWEI/Drivers/BSP/Components/lis2mdl\lis2mdl_reg.c ****   */
 155:D:/fchai/work/i-cube/I-CUBE-HUAWEI/Drivers/BSP/Components/lis2mdl\lis2mdl_reg.c **** int32_t lis2mdl_operating_mode_set(stmdev_ctx_t *ctx, lis2mdl_md_t val)
 156:D:/fchai/work/i-cube/I-CUBE-HUAWEI/Drivers/BSP/Components/lis2mdl\lis2mdl_reg.c **** {
 304              		.loc 1 156 1 is_stmt 1 view -0
 305              		.cfi_startproc
 306              		@ args = 0, pretend = 0, frame = 8
 307              		@ frame_needed = 0, uses_anonymous_args = 0
 157:D:/fchai/work/i-cube/I-CUBE-HUAWEI/Drivers/BSP/Components/lis2mdl\lis2mdl_reg.c ****   lis2mdl_cfg_reg_a_t reg;
 308              		.loc 1 157 3 view .LVU59
 158:D:/fchai/work/i-cube/I-CUBE-HUAWEI/Drivers/BSP/Components/lis2mdl\lis2mdl_reg.c ****   int32_t ret;
 309              		.loc 1 158 3 view .LVU60
 159:D:/fchai/work/i-cube/I-CUBE-HUAWEI/Drivers/BSP/Components/lis2mdl\lis2mdl_reg.c **** 
 160:D:/fchai/work/i-cube/I-CUBE-HUAWEI/Drivers/BSP/Components/lis2mdl\lis2mdl_reg.c ****   ret = lis2mdl_read_reg(ctx, LIS2MDL_CFG_REG_A, (uint8_t*)&reg, 1);
 310              		.loc 1 160 3 view .LVU61
 156:D:/fchai/work/i-cube/I-CUBE-HUAWEI/Drivers/BSP/Components/lis2mdl\lis2mdl_reg.c ****   lis2mdl_cfg_reg_a_t reg;
 311              		.loc 1 156 1 is_stmt 0 view .LVU62
 312 0000 70B5     		push	{r4, r5, r6, lr}
 313              	.LCFI8:
 314              		.cfi_def_cfa_offset 16
 315              		.cfi_offset 4, -16
 316              		.cfi_offset 5, -12
 317              		.cfi_offset 6, -8
 318              		.cfi_offset 14, -4
 319 0002 82B0     		sub	sp, sp, #8
 320              	.LCFI9:
 321              		.cfi_def_cfa_offset 24
 156:D:/fchai/work/i-cube/I-CUBE-HUAWEI/Drivers/BSP/Components/lis2mdl\lis2mdl_reg.c ****   lis2mdl_cfg_reg_a_t reg;
 322              		.loc 1 156 1 view .LVU63
 323 0004 0446     		mov	r4, r0
 324              	.LVL19:
 325              	.LBB142:
 326              	.LBI142:
  49:D:/fchai/work/i-cube/I-CUBE-HUAWEI/Drivers/BSP/Components/lis2mdl\lis2mdl_reg.c ****                          uint16_t len)
 327              		.loc 1 49 9 is_stmt 1 view .LVU64
 328              	.LBB143:
  52:D:/fchai/work/i-cube/I-CUBE-HUAWEI/Drivers/BSP/Components/lis2mdl\lis2mdl_reg.c ****   ret = ctx->read_reg(ctx->handle, reg, data, len);
 329              		.loc 1 52 3 view .LVU65
  53:D:/fchai/work/i-cube/I-CUBE-HUAWEI/Drivers/BSP/Components/lis2mdl\lis2mdl_reg.c ****   return ret;
 330              		.loc 1 53 3 view .LVU66
 331              	.LBE143:
 332              	.LBE142:
 156:D:/fchai/work/i-cube/I-CUBE-HUAWEI/Drivers/BSP/Components/lis2mdl\lis2mdl_reg.c ****   lis2mdl_cfg_reg_a_t reg;
ARM GAS  T:\msys\tmp\cct7nJJy.s 			page 10


 333              		.loc 1 156 1 is_stmt 0 view .LVU67
 334 0006 0D46     		mov	r5, r1
 335              	.LBB145:
 336              	.LBB144:
  53:D:/fchai/work/i-cube/I-CUBE-HUAWEI/Drivers/BSP/Components/lis2mdl\lis2mdl_reg.c ****   return ret;
 337              		.loc 1 53 9 view .LVU68
 338 0008 D0E90160 		ldrd	r6, r0, [r0, #4]
 339              	.LVL20:
  53:D:/fchai/work/i-cube/I-CUBE-HUAWEI/Drivers/BSP/Components/lis2mdl\lis2mdl_reg.c ****   return ret;
 340              		.loc 1 53 9 view .LVU69
 341 000c 01AA     		add	r2, sp, #4
 342              	.LVL21:
  53:D:/fchai/work/i-cube/I-CUBE-HUAWEI/Drivers/BSP/Components/lis2mdl\lis2mdl_reg.c ****   return ret;
 343              		.loc 1 53 9 view .LVU70
 344 000e 0123     		movs	r3, #1
 345 0010 6021     		movs	r1, #96
 346              	.LVL22:
  53:D:/fchai/work/i-cube/I-CUBE-HUAWEI/Drivers/BSP/Components/lis2mdl\lis2mdl_reg.c ****   return ret;
 347              		.loc 1 53 9 view .LVU71
 348 0012 B047     		blx	r6
 349              	.LVL23:
  54:D:/fchai/work/i-cube/I-CUBE-HUAWEI/Drivers/BSP/Components/lis2mdl\lis2mdl_reg.c **** }
 350              		.loc 1 54 3 is_stmt 1 view .LVU72
  54:D:/fchai/work/i-cube/I-CUBE-HUAWEI/Drivers/BSP/Components/lis2mdl\lis2mdl_reg.c **** }
 351              		.loc 1 54 3 is_stmt 0 view .LVU73
 352              	.LBE144:
 353              	.LBE145:
 161:D:/fchai/work/i-cube/I-CUBE-HUAWEI/Drivers/BSP/Components/lis2mdl\lis2mdl_reg.c **** 
 162:D:/fchai/work/i-cube/I-CUBE-HUAWEI/Drivers/BSP/Components/lis2mdl\lis2mdl_reg.c ****   if(ret == 0){
 354              		.loc 1 162 3 is_stmt 1 view .LVU74
 355              		.loc 1 162 5 is_stmt 0 view .LVU75
 356 0014 58B9     		cbnz	r0, .L12
 163:D:/fchai/work/i-cube/I-CUBE-HUAWEI/Drivers/BSP/Components/lis2mdl\lis2mdl_reg.c ****     reg.md = (uint8_t)val;
 357              		.loc 1 163 5 is_stmt 1 view .LVU76
 358              		.loc 1 163 12 is_stmt 0 view .LVU77
 359 0016 9DF80430 		ldrb	r3, [sp, #4]	@ zero_extendqisi2
 360              	.LBB146:
 361              	.LBB147:
  71:D:/fchai/work/i-cube/I-CUBE-HUAWEI/Drivers/BSP/Components/lis2mdl\lis2mdl_reg.c ****   return ret;
 362              		.loc 1 71 9 view .LVU78
 363 001a 2668     		ldr	r6, [r4]
 364 001c A068     		ldr	r0, [r4, #8]
 365              	.LVL24:
  71:D:/fchai/work/i-cube/I-CUBE-HUAWEI/Drivers/BSP/Components/lis2mdl\lis2mdl_reg.c ****   return ret;
 366              		.loc 1 71 9 view .LVU79
 367              	.LBE147:
 368              	.LBE146:
 369              		.loc 1 163 12 view .LVU80
 370 001e 65F30103 		bfi	r3, r5, #0, #2
 371 0022 8DF80430 		strb	r3, [sp, #4]
 164:D:/fchai/work/i-cube/I-CUBE-HUAWEI/Drivers/BSP/Components/lis2mdl\lis2mdl_reg.c ****     ret = lis2mdl_write_reg(ctx, LIS2MDL_CFG_REG_A, (uint8_t*)&reg, 1);
 372              		.loc 1 164 5 is_stmt 1 view .LVU81
 373              	.LVL25:
 374              	.LBB149:
 375              	.LBI146:
  67:D:/fchai/work/i-cube/I-CUBE-HUAWEI/Drivers/BSP/Components/lis2mdl\lis2mdl_reg.c ****                           uint16_t len)
 376              		.loc 1 67 9 view .LVU82
ARM GAS  T:\msys\tmp\cct7nJJy.s 			page 11


 377              	.LBB148:
  70:D:/fchai/work/i-cube/I-CUBE-HUAWEI/Drivers/BSP/Components/lis2mdl\lis2mdl_reg.c ****   ret = ctx->write_reg(ctx->handle, reg, data, len);
 378              		.loc 1 70 3 view .LVU83
  71:D:/fchai/work/i-cube/I-CUBE-HUAWEI/Drivers/BSP/Components/lis2mdl\lis2mdl_reg.c ****   return ret;
 379              		.loc 1 71 3 view .LVU84
  71:D:/fchai/work/i-cube/I-CUBE-HUAWEI/Drivers/BSP/Components/lis2mdl\lis2mdl_reg.c ****   return ret;
 380              		.loc 1 71 9 is_stmt 0 view .LVU85
 381 0026 01AA     		add	r2, sp, #4
 382              	.LVL26:
  71:D:/fchai/work/i-cube/I-CUBE-HUAWEI/Drivers/BSP/Components/lis2mdl\lis2mdl_reg.c ****   return ret;
 383              		.loc 1 71 9 view .LVU86
 384 0028 0123     		movs	r3, #1
 385 002a 6021     		movs	r1, #96
 386 002c B047     		blx	r6
 387              	.LVL27:
  72:D:/fchai/work/i-cube/I-CUBE-HUAWEI/Drivers/BSP/Components/lis2mdl\lis2mdl_reg.c **** }
 388              		.loc 1 72 3 is_stmt 1 view .LVU87
  72:D:/fchai/work/i-cube/I-CUBE-HUAWEI/Drivers/BSP/Components/lis2mdl\lis2mdl_reg.c **** }
 389              		.loc 1 72 3 is_stmt 0 view .LVU88
 390              	.LBE148:
 391              	.LBE149:
 165:D:/fchai/work/i-cube/I-CUBE-HUAWEI/Drivers/BSP/Components/lis2mdl\lis2mdl_reg.c ****   }
 166:D:/fchai/work/i-cube/I-CUBE-HUAWEI/Drivers/BSP/Components/lis2mdl\lis2mdl_reg.c **** 
 167:D:/fchai/work/i-cube/I-CUBE-HUAWEI/Drivers/BSP/Components/lis2mdl\lis2mdl_reg.c ****   return ret;
 392              		.loc 1 167 3 is_stmt 1 view .LVU89
 393              	.L12:
 168:D:/fchai/work/i-cube/I-CUBE-HUAWEI/Drivers/BSP/Components/lis2mdl\lis2mdl_reg.c **** }
 394              		.loc 1 168 1 is_stmt 0 view .LVU90
 395 002e 02B0     		add	sp, sp, #8
 396              	.LCFI10:
 397              		.cfi_def_cfa_offset 16
 398              		@ sp needed
 399 0030 70BD     		pop	{r4, r5, r6, pc}
 400              		.loc 1 168 1 view .LVU91
 401              		.cfi_endproc
 402              	.LFE6:
 404 0032 00BF     		.section	.text.lis2mdl_operating_mode_get,"ax",%progbits
 405              		.align	1
 406              		.p2align 2,,3
 407              		.global	lis2mdl_operating_mode_get
 408              		.syntax unified
 409              		.thumb
 410              		.thumb_func
 411              		.fpu fpv4-sp-d16
 413              	lis2mdl_operating_mode_get:
 414              	.LVL28:
 415              	.LFB7:
 169:D:/fchai/work/i-cube/I-CUBE-HUAWEI/Drivers/BSP/Components/lis2mdl\lis2mdl_reg.c **** 
 170:D:/fchai/work/i-cube/I-CUBE-HUAWEI/Drivers/BSP/Components/lis2mdl\lis2mdl_reg.c **** /**
 171:D:/fchai/work/i-cube/I-CUBE-HUAWEI/Drivers/BSP/Components/lis2mdl\lis2mdl_reg.c ****   * @brief  Operating mode selection.[get]
 172:D:/fchai/work/i-cube/I-CUBE-HUAWEI/Drivers/BSP/Components/lis2mdl\lis2mdl_reg.c ****   *
 173:D:/fchai/work/i-cube/I-CUBE-HUAWEI/Drivers/BSP/Components/lis2mdl\lis2mdl_reg.c ****   * @param  ctx   read / write interface definitions.(ptr)
 174:D:/fchai/work/i-cube/I-CUBE-HUAWEI/Drivers/BSP/Components/lis2mdl\lis2mdl_reg.c ****   * @param  val   Get the values of md in reg CFG_REG_A.(ptr)
 175:D:/fchai/work/i-cube/I-CUBE-HUAWEI/Drivers/BSP/Components/lis2mdl\lis2mdl_reg.c ****   * @retval       interface status.(MANDATORY: return 0 -> no Error)
 176:D:/fchai/work/i-cube/I-CUBE-HUAWEI/Drivers/BSP/Components/lis2mdl\lis2mdl_reg.c ****   *
 177:D:/fchai/work/i-cube/I-CUBE-HUAWEI/Drivers/BSP/Components/lis2mdl\lis2mdl_reg.c ****   */
 178:D:/fchai/work/i-cube/I-CUBE-HUAWEI/Drivers/BSP/Components/lis2mdl\lis2mdl_reg.c **** int32_t lis2mdl_operating_mode_get(stmdev_ctx_t *ctx, lis2mdl_md_t *val)
ARM GAS  T:\msys\tmp\cct7nJJy.s 			page 12


 179:D:/fchai/work/i-cube/I-CUBE-HUAWEI/Drivers/BSP/Components/lis2mdl\lis2mdl_reg.c **** {
 416              		.loc 1 179 1 is_stmt 1 view -0
 417              		.cfi_startproc
 418              		@ args = 0, pretend = 0, frame = 8
 419              		@ frame_needed = 0, uses_anonymous_args = 0
 180:D:/fchai/work/i-cube/I-CUBE-HUAWEI/Drivers/BSP/Components/lis2mdl\lis2mdl_reg.c ****   lis2mdl_cfg_reg_a_t reg;
 420              		.loc 1 180 3 view .LVU93
 181:D:/fchai/work/i-cube/I-CUBE-HUAWEI/Drivers/BSP/Components/lis2mdl\lis2mdl_reg.c ****   int32_t ret;
 421              		.loc 1 181 3 view .LVU94
 182:D:/fchai/work/i-cube/I-CUBE-HUAWEI/Drivers/BSP/Components/lis2mdl\lis2mdl_reg.c **** 
 183:D:/fchai/work/i-cube/I-CUBE-HUAWEI/Drivers/BSP/Components/lis2mdl\lis2mdl_reg.c ****   ret = lis2mdl_read_reg(ctx, LIS2MDL_CFG_REG_A, (uint8_t*)&reg, 1);
 422              		.loc 1 183 3 view .LVU95
 179:D:/fchai/work/i-cube/I-CUBE-HUAWEI/Drivers/BSP/Components/lis2mdl\lis2mdl_reg.c ****   lis2mdl_cfg_reg_a_t reg;
 423              		.loc 1 179 1 is_stmt 0 view .LVU96
 424 0000 30B5     		push	{r4, r5, lr}
 425              	.LCFI11:
 426              		.cfi_def_cfa_offset 12
 427              		.cfi_offset 4, -12
 428              		.cfi_offset 5, -8
 429              		.cfi_offset 14, -4
 430 0002 83B0     		sub	sp, sp, #12
 431              	.LCFI12:
 432              		.cfi_def_cfa_offset 24
 433              	.LVL29:
 434              	.LBB150:
 435              	.LBI150:
  49:D:/fchai/work/i-cube/I-CUBE-HUAWEI/Drivers/BSP/Components/lis2mdl\lis2mdl_reg.c ****                          uint16_t len)
 436              		.loc 1 49 9 is_stmt 1 view .LVU97
 437              	.LBB151:
  52:D:/fchai/work/i-cube/I-CUBE-HUAWEI/Drivers/BSP/Components/lis2mdl\lis2mdl_reg.c ****   ret = ctx->read_reg(ctx->handle, reg, data, len);
 438              		.loc 1 52 3 view .LVU98
  53:D:/fchai/work/i-cube/I-CUBE-HUAWEI/Drivers/BSP/Components/lis2mdl\lis2mdl_reg.c ****   return ret;
 439              		.loc 1 53 3 view .LVU99
  53:D:/fchai/work/i-cube/I-CUBE-HUAWEI/Drivers/BSP/Components/lis2mdl\lis2mdl_reg.c ****   return ret;
 440              		.loc 1 53 9 is_stmt 0 view .LVU100
 441 0004 0123     		movs	r3, #1
 442 0006 01AA     		add	r2, sp, #4
 443              	.LVL30:
  53:D:/fchai/work/i-cube/I-CUBE-HUAWEI/Drivers/BSP/Components/lis2mdl\lis2mdl_reg.c ****   return ret;
 444              		.loc 1 53 9 view .LVU101
 445 0008 D0E90150 		ldrd	r5, r0, [r0, #4]
 446              	.LVL31:
  53:D:/fchai/work/i-cube/I-CUBE-HUAWEI/Drivers/BSP/Components/lis2mdl\lis2mdl_reg.c ****   return ret;
 447              		.loc 1 53 9 view .LVU102
 448              	.LBE151:
 449              	.LBE150:
 179:D:/fchai/work/i-cube/I-CUBE-HUAWEI/Drivers/BSP/Components/lis2mdl\lis2mdl_reg.c ****   lis2mdl_cfg_reg_a_t reg;
 450              		.loc 1 179 1 view .LVU103
 451 000c 0C46     		mov	r4, r1
 452              	.LBB154:
 453              	.LBB152:
  53:D:/fchai/work/i-cube/I-CUBE-HUAWEI/Drivers/BSP/Components/lis2mdl\lis2mdl_reg.c ****   return ret;
 454              		.loc 1 53 9 view .LVU104
 455 000e 6021     		movs	r1, #96
 456              	.LVL32:
  53:D:/fchai/work/i-cube/I-CUBE-HUAWEI/Drivers/BSP/Components/lis2mdl\lis2mdl_reg.c ****   return ret;
 457              		.loc 1 53 9 view .LVU105
ARM GAS  T:\msys\tmp\cct7nJJy.s 			page 13


 458 0010 A847     		blx	r5
 459              	.LVL33:
  53:D:/fchai/work/i-cube/I-CUBE-HUAWEI/Drivers/BSP/Components/lis2mdl\lis2mdl_reg.c ****   return ret;
 460              		.loc 1 53 9 view .LVU106
 461              	.LBE152:
 462              	.LBE154:
 184:D:/fchai/work/i-cube/I-CUBE-HUAWEI/Drivers/BSP/Components/lis2mdl\lis2mdl_reg.c ****   switch (reg.md){
 463              		.loc 1 184 14 view .LVU107
 464 0012 9DF80430 		ldrb	r3, [sp, #4]	@ zero_extendqisi2
 465              	.LVL34:
 466              	.LBB155:
 467              	.LBB153:
  54:D:/fchai/work/i-cube/I-CUBE-HUAWEI/Drivers/BSP/Components/lis2mdl\lis2mdl_reg.c **** }
 468              		.loc 1 54 3 is_stmt 1 view .LVU108
  54:D:/fchai/work/i-cube/I-CUBE-HUAWEI/Drivers/BSP/Components/lis2mdl\lis2mdl_reg.c **** }
 469              		.loc 1 54 3 is_stmt 0 view .LVU109
 470              	.LBE153:
 471              	.LBE155:
 472              		.loc 1 184 3 is_stmt 1 view .LVU110
 473              		.loc 1 184 14 is_stmt 0 view .LVU111
 474 0016 C3F30102 		ubfx	r2, r3, #0, #2
 475              		.loc 1 184 3 view .LVU112
 476 001a 13F00303 		ands	r3, r3, #3
 477 001e 05D0     		beq	.L17
 478 0020 012B     		cmp	r3, #1
 479 0022 03D0     		beq	.L17
 185:D:/fchai/work/i-cube/I-CUBE-HUAWEI/Drivers/BSP/Components/lis2mdl\lis2mdl_reg.c ****     case LIS2MDL_POWER_DOWN:
 186:D:/fchai/work/i-cube/I-CUBE-HUAWEI/Drivers/BSP/Components/lis2mdl\lis2mdl_reg.c ****       *val = LIS2MDL_POWER_DOWN;
 480              		.loc 1 186 7 is_stmt 1 view .LVU113
 481              		.loc 1 186 12 is_stmt 0 view .LVU114
 482 0024 0223     		movs	r3, #2
 483 0026 2370     		strb	r3, [r4]
 187:D:/fchai/work/i-cube/I-CUBE-HUAWEI/Drivers/BSP/Components/lis2mdl\lis2mdl_reg.c ****       break;
 484              		.loc 1 187 7 is_stmt 1 view .LVU115
 188:D:/fchai/work/i-cube/I-CUBE-HUAWEI/Drivers/BSP/Components/lis2mdl\lis2mdl_reg.c ****     case LIS2MDL_CONTINUOUS_MODE:
 189:D:/fchai/work/i-cube/I-CUBE-HUAWEI/Drivers/BSP/Components/lis2mdl\lis2mdl_reg.c ****       *val = LIS2MDL_CONTINUOUS_MODE;
 190:D:/fchai/work/i-cube/I-CUBE-HUAWEI/Drivers/BSP/Components/lis2mdl\lis2mdl_reg.c ****       break;
 191:D:/fchai/work/i-cube/I-CUBE-HUAWEI/Drivers/BSP/Components/lis2mdl\lis2mdl_reg.c ****     case LIS2MDL_SINGLE_TRIGGER:
 192:D:/fchai/work/i-cube/I-CUBE-HUAWEI/Drivers/BSP/Components/lis2mdl\lis2mdl_reg.c ****       *val = LIS2MDL_SINGLE_TRIGGER;
 193:D:/fchai/work/i-cube/I-CUBE-HUAWEI/Drivers/BSP/Components/lis2mdl\lis2mdl_reg.c ****       break;
 194:D:/fchai/work/i-cube/I-CUBE-HUAWEI/Drivers/BSP/Components/lis2mdl\lis2mdl_reg.c ****     default:
 195:D:/fchai/work/i-cube/I-CUBE-HUAWEI/Drivers/BSP/Components/lis2mdl\lis2mdl_reg.c ****       *val = LIS2MDL_POWER_DOWN;
 196:D:/fchai/work/i-cube/I-CUBE-HUAWEI/Drivers/BSP/Components/lis2mdl\lis2mdl_reg.c ****       break;
 197:D:/fchai/work/i-cube/I-CUBE-HUAWEI/Drivers/BSP/Components/lis2mdl\lis2mdl_reg.c ****   }
 198:D:/fchai/work/i-cube/I-CUBE-HUAWEI/Drivers/BSP/Components/lis2mdl\lis2mdl_reg.c **** 
 199:D:/fchai/work/i-cube/I-CUBE-HUAWEI/Drivers/BSP/Components/lis2mdl\lis2mdl_reg.c ****   return ret;
 200:D:/fchai/work/i-cube/I-CUBE-HUAWEI/Drivers/BSP/Components/lis2mdl\lis2mdl_reg.c **** }
 485              		.loc 1 200 1 is_stmt 0 view .LVU116
 486 0028 03B0     		add	sp, sp, #12
 487              	.LCFI13:
 488              		.cfi_remember_state
 489              		.cfi_def_cfa_offset 12
 490              		@ sp needed
 491 002a 30BD     		pop	{r4, r5, pc}
 492              	.LVL35:
 493              	.L17:
 494              	.LCFI14:
ARM GAS  T:\msys\tmp\cct7nJJy.s 			page 14


 495              		.cfi_restore_state
 192:D:/fchai/work/i-cube/I-CUBE-HUAWEI/Drivers/BSP/Components/lis2mdl\lis2mdl_reg.c ****       break;
 496              		.loc 1 192 7 is_stmt 1 view .LVU117
 192:D:/fchai/work/i-cube/I-CUBE-HUAWEI/Drivers/BSP/Components/lis2mdl\lis2mdl_reg.c ****       break;
 497              		.loc 1 192 12 is_stmt 0 view .LVU118
 498 002c 2270     		strb	r2, [r4]
 193:D:/fchai/work/i-cube/I-CUBE-HUAWEI/Drivers/BSP/Components/lis2mdl\lis2mdl_reg.c ****     default:
 499              		.loc 1 193 7 is_stmt 1 view .LVU119
 199:D:/fchai/work/i-cube/I-CUBE-HUAWEI/Drivers/BSP/Components/lis2mdl\lis2mdl_reg.c **** }
 500              		.loc 1 199 3 view .LVU120
 501              		.loc 1 200 1 is_stmt 0 view .LVU121
 502 002e 03B0     		add	sp, sp, #12
 503              	.LCFI15:
 504              		.cfi_def_cfa_offset 12
 505              		@ sp needed
 506 0030 30BD     		pop	{r4, r5, pc}
 507              		.loc 1 200 1 view .LVU122
 508              		.cfi_endproc
 509              	.LFE7:
 511 0032 00BF     		.section	.text.lis2mdl_data_rate_set,"ax",%progbits
 512              		.align	1
 513              		.p2align 2,,3
 514              		.global	lis2mdl_data_rate_set
 515              		.syntax unified
 516              		.thumb
 517              		.thumb_func
 518              		.fpu fpv4-sp-d16
 520              	lis2mdl_data_rate_set:
 521              	.LVL36:
 522              	.LFB8:
 201:D:/fchai/work/i-cube/I-CUBE-HUAWEI/Drivers/BSP/Components/lis2mdl\lis2mdl_reg.c **** 
 202:D:/fchai/work/i-cube/I-CUBE-HUAWEI/Drivers/BSP/Components/lis2mdl\lis2mdl_reg.c **** /**
 203:D:/fchai/work/i-cube/I-CUBE-HUAWEI/Drivers/BSP/Components/lis2mdl\lis2mdl_reg.c ****   * @brief  Output data rate selection.[set]
 204:D:/fchai/work/i-cube/I-CUBE-HUAWEI/Drivers/BSP/Components/lis2mdl\lis2mdl_reg.c ****   *
 205:D:/fchai/work/i-cube/I-CUBE-HUAWEI/Drivers/BSP/Components/lis2mdl\lis2mdl_reg.c ****   * @param  ctx   read / write interface definitions.(ptr)
 206:D:/fchai/work/i-cube/I-CUBE-HUAWEI/Drivers/BSP/Components/lis2mdl\lis2mdl_reg.c ****   * @param  val   change the values of odr in reg CFG_REG_A
 207:D:/fchai/work/i-cube/I-CUBE-HUAWEI/Drivers/BSP/Components/lis2mdl\lis2mdl_reg.c ****   * @retval       interface status.(MANDATORY: return 0 -> no Error)
 208:D:/fchai/work/i-cube/I-CUBE-HUAWEI/Drivers/BSP/Components/lis2mdl\lis2mdl_reg.c ****   *
 209:D:/fchai/work/i-cube/I-CUBE-HUAWEI/Drivers/BSP/Components/lis2mdl\lis2mdl_reg.c ****   */
 210:D:/fchai/work/i-cube/I-CUBE-HUAWEI/Drivers/BSP/Components/lis2mdl\lis2mdl_reg.c **** int32_t lis2mdl_data_rate_set(stmdev_ctx_t *ctx, lis2mdl_odr_t val)
 211:D:/fchai/work/i-cube/I-CUBE-HUAWEI/Drivers/BSP/Components/lis2mdl\lis2mdl_reg.c **** {
 523              		.loc 1 211 1 is_stmt 1 view -0
 524              		.cfi_startproc
 525              		@ args = 0, pretend = 0, frame = 8
 526              		@ frame_needed = 0, uses_anonymous_args = 0
 212:D:/fchai/work/i-cube/I-CUBE-HUAWEI/Drivers/BSP/Components/lis2mdl\lis2mdl_reg.c ****   lis2mdl_cfg_reg_a_t reg;
 527              		.loc 1 212 3 view .LVU124
 213:D:/fchai/work/i-cube/I-CUBE-HUAWEI/Drivers/BSP/Components/lis2mdl\lis2mdl_reg.c ****   int32_t ret;
 528              		.loc 1 213 3 view .LVU125
 214:D:/fchai/work/i-cube/I-CUBE-HUAWEI/Drivers/BSP/Components/lis2mdl\lis2mdl_reg.c **** 
 215:D:/fchai/work/i-cube/I-CUBE-HUAWEI/Drivers/BSP/Components/lis2mdl\lis2mdl_reg.c ****   ret = lis2mdl_read_reg(ctx, LIS2MDL_CFG_REG_A, (uint8_t*)&reg, 1);
 529              		.loc 1 215 3 view .LVU126
 211:D:/fchai/work/i-cube/I-CUBE-HUAWEI/Drivers/BSP/Components/lis2mdl\lis2mdl_reg.c ****   lis2mdl_cfg_reg_a_t reg;
 530              		.loc 1 211 1 is_stmt 0 view .LVU127
 531 0000 70B5     		push	{r4, r5, r6, lr}
 532              	.LCFI16:
 533              		.cfi_def_cfa_offset 16
ARM GAS  T:\msys\tmp\cct7nJJy.s 			page 15


 534              		.cfi_offset 4, -16
 535              		.cfi_offset 5, -12
 536              		.cfi_offset 6, -8
 537              		.cfi_offset 14, -4
 538 0002 82B0     		sub	sp, sp, #8
 539              	.LCFI17:
 540              		.cfi_def_cfa_offset 24
 211:D:/fchai/work/i-cube/I-CUBE-HUAWEI/Drivers/BSP/Components/lis2mdl\lis2mdl_reg.c ****   lis2mdl_cfg_reg_a_t reg;
 541              		.loc 1 211 1 view .LVU128
 542 0004 0446     		mov	r4, r0
 543              	.LVL37:
 544              	.LBB156:
 545              	.LBI156:
  49:D:/fchai/work/i-cube/I-CUBE-HUAWEI/Drivers/BSP/Components/lis2mdl\lis2mdl_reg.c ****                          uint16_t len)
 546              		.loc 1 49 9 is_stmt 1 view .LVU129
 547              	.LBB157:
  52:D:/fchai/work/i-cube/I-CUBE-HUAWEI/Drivers/BSP/Components/lis2mdl\lis2mdl_reg.c ****   ret = ctx->read_reg(ctx->handle, reg, data, len);
 548              		.loc 1 52 3 view .LVU130
  53:D:/fchai/work/i-cube/I-CUBE-HUAWEI/Drivers/BSP/Components/lis2mdl\lis2mdl_reg.c ****   return ret;
 549              		.loc 1 53 3 view .LVU131
 550              	.LBE157:
 551              	.LBE156:
 211:D:/fchai/work/i-cube/I-CUBE-HUAWEI/Drivers/BSP/Components/lis2mdl\lis2mdl_reg.c ****   lis2mdl_cfg_reg_a_t reg;
 552              		.loc 1 211 1 is_stmt 0 view .LVU132
 553 0006 0D46     		mov	r5, r1
 554              	.LBB159:
 555              	.LBB158:
  53:D:/fchai/work/i-cube/I-CUBE-HUAWEI/Drivers/BSP/Components/lis2mdl\lis2mdl_reg.c ****   return ret;
 556              		.loc 1 53 9 view .LVU133
 557 0008 D0E90160 		ldrd	r6, r0, [r0, #4]
 558              	.LVL38:
  53:D:/fchai/work/i-cube/I-CUBE-HUAWEI/Drivers/BSP/Components/lis2mdl\lis2mdl_reg.c ****   return ret;
 559              		.loc 1 53 9 view .LVU134
 560 000c 01AA     		add	r2, sp, #4
 561              	.LVL39:
  53:D:/fchai/work/i-cube/I-CUBE-HUAWEI/Drivers/BSP/Components/lis2mdl\lis2mdl_reg.c ****   return ret;
 562              		.loc 1 53 9 view .LVU135
 563 000e 0123     		movs	r3, #1
 564 0010 6021     		movs	r1, #96
 565              	.LVL40:
  53:D:/fchai/work/i-cube/I-CUBE-HUAWEI/Drivers/BSP/Components/lis2mdl\lis2mdl_reg.c ****   return ret;
 566              		.loc 1 53 9 view .LVU136
 567 0012 B047     		blx	r6
 568              	.LVL41:
  54:D:/fchai/work/i-cube/I-CUBE-HUAWEI/Drivers/BSP/Components/lis2mdl\lis2mdl_reg.c **** }
 569              		.loc 1 54 3 is_stmt 1 view .LVU137
  54:D:/fchai/work/i-cube/I-CUBE-HUAWEI/Drivers/BSP/Components/lis2mdl\lis2mdl_reg.c **** }
 570              		.loc 1 54 3 is_stmt 0 view .LVU138
 571              	.LBE158:
 572              	.LBE159:
 216:D:/fchai/work/i-cube/I-CUBE-HUAWEI/Drivers/BSP/Components/lis2mdl\lis2mdl_reg.c **** 
 217:D:/fchai/work/i-cube/I-CUBE-HUAWEI/Drivers/BSP/Components/lis2mdl\lis2mdl_reg.c ****   if(ret == 0){
 573              		.loc 1 217 3 is_stmt 1 view .LVU139
 574              		.loc 1 217 5 is_stmt 0 view .LVU140
 575 0014 58B9     		cbnz	r0, .L20
 218:D:/fchai/work/i-cube/I-CUBE-HUAWEI/Drivers/BSP/Components/lis2mdl\lis2mdl_reg.c ****     reg.odr = (uint8_t)val;
 576              		.loc 1 218 5 is_stmt 1 view .LVU141
ARM GAS  T:\msys\tmp\cct7nJJy.s 			page 16


 577              		.loc 1 218 13 is_stmt 0 view .LVU142
 578 0016 9DF80430 		ldrb	r3, [sp, #4]	@ zero_extendqisi2
 579              	.LBB160:
 580              	.LBB161:
  71:D:/fchai/work/i-cube/I-CUBE-HUAWEI/Drivers/BSP/Components/lis2mdl\lis2mdl_reg.c ****   return ret;
 581              		.loc 1 71 9 view .LVU143
 582 001a 2668     		ldr	r6, [r4]
 583 001c A068     		ldr	r0, [r4, #8]
 584              	.LVL42:
  71:D:/fchai/work/i-cube/I-CUBE-HUAWEI/Drivers/BSP/Components/lis2mdl\lis2mdl_reg.c ****   return ret;
 585              		.loc 1 71 9 view .LVU144
 586              	.LBE161:
 587              	.LBE160:
 588              		.loc 1 218 13 view .LVU145
 589 001e 65F38303 		bfi	r3, r5, #2, #2
 590 0022 8DF80430 		strb	r3, [sp, #4]
 219:D:/fchai/work/i-cube/I-CUBE-HUAWEI/Drivers/BSP/Components/lis2mdl\lis2mdl_reg.c ****     ret = lis2mdl_write_reg(ctx, LIS2MDL_CFG_REG_A, (uint8_t*)&reg, 1);
 591              		.loc 1 219 5 is_stmt 1 view .LVU146
 592              	.LVL43:
 593              	.LBB163:
 594              	.LBI160:
  67:D:/fchai/work/i-cube/I-CUBE-HUAWEI/Drivers/BSP/Components/lis2mdl\lis2mdl_reg.c ****                           uint16_t len)
 595              		.loc 1 67 9 view .LVU147
 596              	.LBB162:
  70:D:/fchai/work/i-cube/I-CUBE-HUAWEI/Drivers/BSP/Components/lis2mdl\lis2mdl_reg.c ****   ret = ctx->write_reg(ctx->handle, reg, data, len);
 597              		.loc 1 70 3 view .LVU148
  71:D:/fchai/work/i-cube/I-CUBE-HUAWEI/Drivers/BSP/Components/lis2mdl\lis2mdl_reg.c ****   return ret;
 598              		.loc 1 71 3 view .LVU149
  71:D:/fchai/work/i-cube/I-CUBE-HUAWEI/Drivers/BSP/Components/lis2mdl\lis2mdl_reg.c ****   return ret;
 599              		.loc 1 71 9 is_stmt 0 view .LVU150
 600 0026 01AA     		add	r2, sp, #4
 601              	.LVL44:
  71:D:/fchai/work/i-cube/I-CUBE-HUAWEI/Drivers/BSP/Components/lis2mdl\lis2mdl_reg.c ****   return ret;
 602              		.loc 1 71 9 view .LVU151
 603 0028 0123     		movs	r3, #1
 604 002a 6021     		movs	r1, #96
 605 002c B047     		blx	r6
 606              	.LVL45:
  72:D:/fchai/work/i-cube/I-CUBE-HUAWEI/Drivers/BSP/Components/lis2mdl\lis2mdl_reg.c **** }
 607              		.loc 1 72 3 is_stmt 1 view .LVU152
  72:D:/fchai/work/i-cube/I-CUBE-HUAWEI/Drivers/BSP/Components/lis2mdl\lis2mdl_reg.c **** }
 608              		.loc 1 72 3 is_stmt 0 view .LVU153
 609              	.LBE162:
 610              	.LBE163:
 220:D:/fchai/work/i-cube/I-CUBE-HUAWEI/Drivers/BSP/Components/lis2mdl\lis2mdl_reg.c ****   }
 221:D:/fchai/work/i-cube/I-CUBE-HUAWEI/Drivers/BSP/Components/lis2mdl\lis2mdl_reg.c **** 
 222:D:/fchai/work/i-cube/I-CUBE-HUAWEI/Drivers/BSP/Components/lis2mdl\lis2mdl_reg.c ****   return ret;
 611              		.loc 1 222 3 is_stmt 1 view .LVU154
 612              	.L20:
 223:D:/fchai/work/i-cube/I-CUBE-HUAWEI/Drivers/BSP/Components/lis2mdl\lis2mdl_reg.c **** }
 613              		.loc 1 223 1 is_stmt 0 view .LVU155
 614 002e 02B0     		add	sp, sp, #8
 615              	.LCFI18:
 616              		.cfi_def_cfa_offset 16
 617              		@ sp needed
 618 0030 70BD     		pop	{r4, r5, r6, pc}
 619              		.loc 1 223 1 view .LVU156
ARM GAS  T:\msys\tmp\cct7nJJy.s 			page 17


 620              		.cfi_endproc
 621              	.LFE8:
 623 0032 00BF     		.section	.text.lis2mdl_data_rate_get,"ax",%progbits
 624              		.align	1
 625              		.p2align 2,,3
 626              		.global	lis2mdl_data_rate_get
 627              		.syntax unified
 628              		.thumb
 629              		.thumb_func
 630              		.fpu fpv4-sp-d16
 632              	lis2mdl_data_rate_get:
 633              	.LVL46:
 634              	.LFB9:
 224:D:/fchai/work/i-cube/I-CUBE-HUAWEI/Drivers/BSP/Components/lis2mdl\lis2mdl_reg.c **** 
 225:D:/fchai/work/i-cube/I-CUBE-HUAWEI/Drivers/BSP/Components/lis2mdl\lis2mdl_reg.c **** /**
 226:D:/fchai/work/i-cube/I-CUBE-HUAWEI/Drivers/BSP/Components/lis2mdl\lis2mdl_reg.c ****   * @brief  Output data rate selection.[get]
 227:D:/fchai/work/i-cube/I-CUBE-HUAWEI/Drivers/BSP/Components/lis2mdl\lis2mdl_reg.c ****   *
 228:D:/fchai/work/i-cube/I-CUBE-HUAWEI/Drivers/BSP/Components/lis2mdl\lis2mdl_reg.c ****   * @param  ctx   read / write interface definitions.(ptr)
 229:D:/fchai/work/i-cube/I-CUBE-HUAWEI/Drivers/BSP/Components/lis2mdl\lis2mdl_reg.c ****   * @param  val   Get the values of odr in reg CFG_REG_A.(ptr)
 230:D:/fchai/work/i-cube/I-CUBE-HUAWEI/Drivers/BSP/Components/lis2mdl\lis2mdl_reg.c ****   * @retval       interface status.(MANDATORY: return 0 -> no Error)
 231:D:/fchai/work/i-cube/I-CUBE-HUAWEI/Drivers/BSP/Components/lis2mdl\lis2mdl_reg.c ****   *
 232:D:/fchai/work/i-cube/I-CUBE-HUAWEI/Drivers/BSP/Components/lis2mdl\lis2mdl_reg.c ****   */
 233:D:/fchai/work/i-cube/I-CUBE-HUAWEI/Drivers/BSP/Components/lis2mdl\lis2mdl_reg.c **** int32_t lis2mdl_data_rate_get(stmdev_ctx_t *ctx, lis2mdl_odr_t *val)
 234:D:/fchai/work/i-cube/I-CUBE-HUAWEI/Drivers/BSP/Components/lis2mdl\lis2mdl_reg.c **** {
 635              		.loc 1 234 1 is_stmt 1 view -0
 636              		.cfi_startproc
 637              		@ args = 0, pretend = 0, frame = 8
 638              		@ frame_needed = 0, uses_anonymous_args = 0
 235:D:/fchai/work/i-cube/I-CUBE-HUAWEI/Drivers/BSP/Components/lis2mdl\lis2mdl_reg.c ****   lis2mdl_cfg_reg_a_t reg;
 639              		.loc 1 235 3 view .LVU158
 236:D:/fchai/work/i-cube/I-CUBE-HUAWEI/Drivers/BSP/Components/lis2mdl\lis2mdl_reg.c ****   int32_t ret;
 640              		.loc 1 236 3 view .LVU159
 237:D:/fchai/work/i-cube/I-CUBE-HUAWEI/Drivers/BSP/Components/lis2mdl\lis2mdl_reg.c **** 
 238:D:/fchai/work/i-cube/I-CUBE-HUAWEI/Drivers/BSP/Components/lis2mdl\lis2mdl_reg.c ****   ret = lis2mdl_read_reg(ctx, LIS2MDL_CFG_REG_A, (uint8_t*)&reg, 1);
 641              		.loc 1 238 3 view .LVU160
 234:D:/fchai/work/i-cube/I-CUBE-HUAWEI/Drivers/BSP/Components/lis2mdl\lis2mdl_reg.c ****   lis2mdl_cfg_reg_a_t reg;
 642              		.loc 1 234 1 is_stmt 0 view .LVU161
 643 0000 30B5     		push	{r4, r5, lr}
 644              	.LCFI19:
 645              		.cfi_def_cfa_offset 12
 646              		.cfi_offset 4, -12
 647              		.cfi_offset 5, -8
 648              		.cfi_offset 14, -4
 649 0002 83B0     		sub	sp, sp, #12
 650              	.LCFI20:
 651              		.cfi_def_cfa_offset 24
 652              	.LVL47:
 653              	.LBB164:
 654              	.LBI164:
  49:D:/fchai/work/i-cube/I-CUBE-HUAWEI/Drivers/BSP/Components/lis2mdl\lis2mdl_reg.c ****                          uint16_t len)
 655              		.loc 1 49 9 is_stmt 1 view .LVU162
 656              	.LBB165:
  52:D:/fchai/work/i-cube/I-CUBE-HUAWEI/Drivers/BSP/Components/lis2mdl\lis2mdl_reg.c ****   ret = ctx->read_reg(ctx->handle, reg, data, len);
 657              		.loc 1 52 3 view .LVU163
  53:D:/fchai/work/i-cube/I-CUBE-HUAWEI/Drivers/BSP/Components/lis2mdl\lis2mdl_reg.c ****   return ret;
 658              		.loc 1 53 3 view .LVU164
  53:D:/fchai/work/i-cube/I-CUBE-HUAWEI/Drivers/BSP/Components/lis2mdl\lis2mdl_reg.c ****   return ret;
ARM GAS  T:\msys\tmp\cct7nJJy.s 			page 18


 659              		.loc 1 53 9 is_stmt 0 view .LVU165
 660 0004 0123     		movs	r3, #1
 661 0006 01AA     		add	r2, sp, #4
 662              	.LVL48:
  53:D:/fchai/work/i-cube/I-CUBE-HUAWEI/Drivers/BSP/Components/lis2mdl\lis2mdl_reg.c ****   return ret;
 663              		.loc 1 53 9 view .LVU166
 664 0008 D0E90150 		ldrd	r5, r0, [r0, #4]
 665              	.LVL49:
  53:D:/fchai/work/i-cube/I-CUBE-HUAWEI/Drivers/BSP/Components/lis2mdl\lis2mdl_reg.c ****   return ret;
 666              		.loc 1 53 9 view .LVU167
 667              	.LBE165:
 668              	.LBE164:
 234:D:/fchai/work/i-cube/I-CUBE-HUAWEI/Drivers/BSP/Components/lis2mdl\lis2mdl_reg.c ****   lis2mdl_cfg_reg_a_t reg;
 669              		.loc 1 234 1 view .LVU168
 670 000c 0C46     		mov	r4, r1
 671              	.LBB168:
 672              	.LBB166:
  53:D:/fchai/work/i-cube/I-CUBE-HUAWEI/Drivers/BSP/Components/lis2mdl\lis2mdl_reg.c ****   return ret;
 673              		.loc 1 53 9 view .LVU169
 674 000e 6021     		movs	r1, #96
 675              	.LVL50:
  53:D:/fchai/work/i-cube/I-CUBE-HUAWEI/Drivers/BSP/Components/lis2mdl\lis2mdl_reg.c ****   return ret;
 676              		.loc 1 53 9 view .LVU170
 677 0010 A847     		blx	r5
 678              	.LVL51:
  53:D:/fchai/work/i-cube/I-CUBE-HUAWEI/Drivers/BSP/Components/lis2mdl\lis2mdl_reg.c ****   return ret;
 679              		.loc 1 53 9 view .LVU171
 680              	.LBE166:
 681              	.LBE168:
 239:D:/fchai/work/i-cube/I-CUBE-HUAWEI/Drivers/BSP/Components/lis2mdl\lis2mdl_reg.c ****   switch (reg.odr){
 682              		.loc 1 239 14 view .LVU172
 683 0012 9DF80430 		ldrb	r3, [sp, #4]	@ zero_extendqisi2
 684 0016 C3F38102 		ubfx	r2, r3, #2, #2
 685              	.LVL52:
 686              	.LBB169:
 687              	.LBB167:
  54:D:/fchai/work/i-cube/I-CUBE-HUAWEI/Drivers/BSP/Components/lis2mdl\lis2mdl_reg.c **** }
 688              		.loc 1 54 3 is_stmt 1 view .LVU173
  54:D:/fchai/work/i-cube/I-CUBE-HUAWEI/Drivers/BSP/Components/lis2mdl\lis2mdl_reg.c **** }
 689              		.loc 1 54 3 is_stmt 0 view .LVU174
 690              	.LBE167:
 691              	.LBE169:
 692              		.loc 1 239 3 is_stmt 1 view .LVU175
 693 001a 022A     		cmp	r2, #2
 694              		.loc 1 239 14 is_stmt 0 view .LVU176
 695 001c 1346     		mov	r3, r2
 696              		.loc 1 239 3 view .LVU177
 697 001e 07D0     		beq	.L25
 698 0020 032A     		cmp	r2, #3
 699 0022 05D0     		beq	.L25
 700 0024 012A     		cmp	r2, #1
 701 0026 03D0     		beq	.L25
 240:D:/fchai/work/i-cube/I-CUBE-HUAWEI/Drivers/BSP/Components/lis2mdl\lis2mdl_reg.c ****     case LIS2MDL_ODR_10Hz:
 241:D:/fchai/work/i-cube/I-CUBE-HUAWEI/Drivers/BSP/Components/lis2mdl\lis2mdl_reg.c ****       *val = LIS2MDL_ODR_10Hz;
 702              		.loc 1 241 7 is_stmt 1 view .LVU178
 703              		.loc 1 241 12 is_stmt 0 view .LVU179
 704 0028 0023     		movs	r3, #0
ARM GAS  T:\msys\tmp\cct7nJJy.s 			page 19


 705 002a 2370     		strb	r3, [r4]
 242:D:/fchai/work/i-cube/I-CUBE-HUAWEI/Drivers/BSP/Components/lis2mdl\lis2mdl_reg.c ****       break;
 706              		.loc 1 242 7 is_stmt 1 view .LVU180
 243:D:/fchai/work/i-cube/I-CUBE-HUAWEI/Drivers/BSP/Components/lis2mdl\lis2mdl_reg.c ****     case LIS2MDL_ODR_20Hz:
 244:D:/fchai/work/i-cube/I-CUBE-HUAWEI/Drivers/BSP/Components/lis2mdl\lis2mdl_reg.c ****       *val = LIS2MDL_ODR_20Hz;
 245:D:/fchai/work/i-cube/I-CUBE-HUAWEI/Drivers/BSP/Components/lis2mdl\lis2mdl_reg.c ****       break;
 246:D:/fchai/work/i-cube/I-CUBE-HUAWEI/Drivers/BSP/Components/lis2mdl\lis2mdl_reg.c ****     case LIS2MDL_ODR_50Hz:
 247:D:/fchai/work/i-cube/I-CUBE-HUAWEI/Drivers/BSP/Components/lis2mdl\lis2mdl_reg.c ****       *val = LIS2MDL_ODR_50Hz;
 248:D:/fchai/work/i-cube/I-CUBE-HUAWEI/Drivers/BSP/Components/lis2mdl\lis2mdl_reg.c ****       break;
 249:D:/fchai/work/i-cube/I-CUBE-HUAWEI/Drivers/BSP/Components/lis2mdl\lis2mdl_reg.c ****     case LIS2MDL_ODR_100Hz:
 250:D:/fchai/work/i-cube/I-CUBE-HUAWEI/Drivers/BSP/Components/lis2mdl\lis2mdl_reg.c ****       *val = LIS2MDL_ODR_100Hz;
 251:D:/fchai/work/i-cube/I-CUBE-HUAWEI/Drivers/BSP/Components/lis2mdl\lis2mdl_reg.c ****       break;
 252:D:/fchai/work/i-cube/I-CUBE-HUAWEI/Drivers/BSP/Components/lis2mdl\lis2mdl_reg.c ****     default:
 253:D:/fchai/work/i-cube/I-CUBE-HUAWEI/Drivers/BSP/Components/lis2mdl\lis2mdl_reg.c ****       *val = LIS2MDL_ODR_10Hz;
 254:D:/fchai/work/i-cube/I-CUBE-HUAWEI/Drivers/BSP/Components/lis2mdl\lis2mdl_reg.c ****       break;
 255:D:/fchai/work/i-cube/I-CUBE-HUAWEI/Drivers/BSP/Components/lis2mdl\lis2mdl_reg.c ****   }
 256:D:/fchai/work/i-cube/I-CUBE-HUAWEI/Drivers/BSP/Components/lis2mdl\lis2mdl_reg.c ****   return ret;
 257:D:/fchai/work/i-cube/I-CUBE-HUAWEI/Drivers/BSP/Components/lis2mdl\lis2mdl_reg.c **** }
 707              		.loc 1 257 1 is_stmt 0 view .LVU181
 708 002c 03B0     		add	sp, sp, #12
 709              	.LCFI21:
 710              		.cfi_remember_state
 711              		.cfi_def_cfa_offset 12
 712              		@ sp needed
 713 002e 30BD     		pop	{r4, r5, pc}
 714              	.LVL53:
 715              	.L25:
 716              	.LCFI22:
 717              		.cfi_restore_state
 250:D:/fchai/work/i-cube/I-CUBE-HUAWEI/Drivers/BSP/Components/lis2mdl\lis2mdl_reg.c ****       break;
 718              		.loc 1 250 7 is_stmt 1 view .LVU182
 250:D:/fchai/work/i-cube/I-CUBE-HUAWEI/Drivers/BSP/Components/lis2mdl\lis2mdl_reg.c ****       break;
 719              		.loc 1 250 12 is_stmt 0 view .LVU183
 720 0030 2370     		strb	r3, [r4]
 251:D:/fchai/work/i-cube/I-CUBE-HUAWEI/Drivers/BSP/Components/lis2mdl\lis2mdl_reg.c ****     default:
 721              		.loc 1 251 7 is_stmt 1 view .LVU184
 256:D:/fchai/work/i-cube/I-CUBE-HUAWEI/Drivers/BSP/Components/lis2mdl\lis2mdl_reg.c **** }
 722              		.loc 1 256 3 view .LVU185
 723              		.loc 1 257 1 is_stmt 0 view .LVU186
 724 0032 03B0     		add	sp, sp, #12
 725              	.LCFI23:
 726              		.cfi_def_cfa_offset 12
 727              		@ sp needed
 728 0034 30BD     		pop	{r4, r5, pc}
 729              		.loc 1 257 1 view .LVU187
 730              		.cfi_endproc
 731              	.LFE9:
 733 0036 00BF     		.section	.text.lis2mdl_power_mode_set,"ax",%progbits
 734              		.align	1
 735              		.p2align 2,,3
 736              		.global	lis2mdl_power_mode_set
 737              		.syntax unified
 738              		.thumb
 739              		.thumb_func
 740              		.fpu fpv4-sp-d16
 742              	lis2mdl_power_mode_set:
 743              	.LVL54:
ARM GAS  T:\msys\tmp\cct7nJJy.s 			page 20


 744              	.LFB10:
 258:D:/fchai/work/i-cube/I-CUBE-HUAWEI/Drivers/BSP/Components/lis2mdl\lis2mdl_reg.c **** 
 259:D:/fchai/work/i-cube/I-CUBE-HUAWEI/Drivers/BSP/Components/lis2mdl\lis2mdl_reg.c **** /**
 260:D:/fchai/work/i-cube/I-CUBE-HUAWEI/Drivers/BSP/Components/lis2mdl\lis2mdl_reg.c ****   * @brief  Enables high-resolution/low-power mode.[set]
 261:D:/fchai/work/i-cube/I-CUBE-HUAWEI/Drivers/BSP/Components/lis2mdl\lis2mdl_reg.c ****   *
 262:D:/fchai/work/i-cube/I-CUBE-HUAWEI/Drivers/BSP/Components/lis2mdl\lis2mdl_reg.c ****   * @param  ctx   read / write interface definitions.(ptr)
 263:D:/fchai/work/i-cube/I-CUBE-HUAWEI/Drivers/BSP/Components/lis2mdl\lis2mdl_reg.c ****   * @param  val   change the values of lp in reg CFG_REG_A
 264:D:/fchai/work/i-cube/I-CUBE-HUAWEI/Drivers/BSP/Components/lis2mdl\lis2mdl_reg.c ****   * @retval       interface status.(MANDATORY: return 0 -> no Error)
 265:D:/fchai/work/i-cube/I-CUBE-HUAWEI/Drivers/BSP/Components/lis2mdl\lis2mdl_reg.c ****   *
 266:D:/fchai/work/i-cube/I-CUBE-HUAWEI/Drivers/BSP/Components/lis2mdl\lis2mdl_reg.c ****   */
 267:D:/fchai/work/i-cube/I-CUBE-HUAWEI/Drivers/BSP/Components/lis2mdl\lis2mdl_reg.c **** int32_t lis2mdl_power_mode_set(stmdev_ctx_t *ctx, lis2mdl_lp_t val)
 268:D:/fchai/work/i-cube/I-CUBE-HUAWEI/Drivers/BSP/Components/lis2mdl\lis2mdl_reg.c **** {
 745              		.loc 1 268 1 is_stmt 1 view -0
 746              		.cfi_startproc
 747              		@ args = 0, pretend = 0, frame = 8
 748              		@ frame_needed = 0, uses_anonymous_args = 0
 269:D:/fchai/work/i-cube/I-CUBE-HUAWEI/Drivers/BSP/Components/lis2mdl\lis2mdl_reg.c ****   lis2mdl_cfg_reg_a_t reg;
 749              		.loc 1 269 3 view .LVU189
 270:D:/fchai/work/i-cube/I-CUBE-HUAWEI/Drivers/BSP/Components/lis2mdl\lis2mdl_reg.c ****   int32_t ret;
 750              		.loc 1 270 3 view .LVU190
 271:D:/fchai/work/i-cube/I-CUBE-HUAWEI/Drivers/BSP/Components/lis2mdl\lis2mdl_reg.c **** 
 272:D:/fchai/work/i-cube/I-CUBE-HUAWEI/Drivers/BSP/Components/lis2mdl\lis2mdl_reg.c ****   ret = lis2mdl_read_reg(ctx, LIS2MDL_CFG_REG_A, (uint8_t*)&reg, 1);
 751              		.loc 1 272 3 view .LVU191
 268:D:/fchai/work/i-cube/I-CUBE-HUAWEI/Drivers/BSP/Components/lis2mdl\lis2mdl_reg.c ****   lis2mdl_cfg_reg_a_t reg;
 752              		.loc 1 268 1 is_stmt 0 view .LVU192
 753 0000 70B5     		push	{r4, r5, r6, lr}
 754              	.LCFI24:
 755              		.cfi_def_cfa_offset 16
 756              		.cfi_offset 4, -16
 757              		.cfi_offset 5, -12
 758              		.cfi_offset 6, -8
 759              		.cfi_offset 14, -4
 760 0002 82B0     		sub	sp, sp, #8
 761              	.LCFI25:
 762              		.cfi_def_cfa_offset 24
 268:D:/fchai/work/i-cube/I-CUBE-HUAWEI/Drivers/BSP/Components/lis2mdl\lis2mdl_reg.c ****   lis2mdl_cfg_reg_a_t reg;
 763              		.loc 1 268 1 view .LVU193
 764 0004 0446     		mov	r4, r0
 765              	.LVL55:
 766              	.LBB170:
 767              	.LBI170:
  49:D:/fchai/work/i-cube/I-CUBE-HUAWEI/Drivers/BSP/Components/lis2mdl\lis2mdl_reg.c ****                          uint16_t len)
 768              		.loc 1 49 9 is_stmt 1 view .LVU194
 769              	.LBB171:
  52:D:/fchai/work/i-cube/I-CUBE-HUAWEI/Drivers/BSP/Components/lis2mdl\lis2mdl_reg.c ****   ret = ctx->read_reg(ctx->handle, reg, data, len);
 770              		.loc 1 52 3 view .LVU195
  53:D:/fchai/work/i-cube/I-CUBE-HUAWEI/Drivers/BSP/Components/lis2mdl\lis2mdl_reg.c ****   return ret;
 771              		.loc 1 53 3 view .LVU196
 772              	.LBE171:
 773              	.LBE170:
 268:D:/fchai/work/i-cube/I-CUBE-HUAWEI/Drivers/BSP/Components/lis2mdl\lis2mdl_reg.c ****   lis2mdl_cfg_reg_a_t reg;
 774              		.loc 1 268 1 is_stmt 0 view .LVU197
 775 0006 0D46     		mov	r5, r1
 776              	.LBB173:
 777              	.LBB172:
  53:D:/fchai/work/i-cube/I-CUBE-HUAWEI/Drivers/BSP/Components/lis2mdl\lis2mdl_reg.c ****   return ret;
 778              		.loc 1 53 9 view .LVU198
ARM GAS  T:\msys\tmp\cct7nJJy.s 			page 21


 779 0008 D0E90160 		ldrd	r6, r0, [r0, #4]
 780              	.LVL56:
  53:D:/fchai/work/i-cube/I-CUBE-HUAWEI/Drivers/BSP/Components/lis2mdl\lis2mdl_reg.c ****   return ret;
 781              		.loc 1 53 9 view .LVU199
 782 000c 01AA     		add	r2, sp, #4
 783              	.LVL57:
  53:D:/fchai/work/i-cube/I-CUBE-HUAWEI/Drivers/BSP/Components/lis2mdl\lis2mdl_reg.c ****   return ret;
 784              		.loc 1 53 9 view .LVU200
 785 000e 0123     		movs	r3, #1
 786 0010 6021     		movs	r1, #96
 787              	.LVL58:
  53:D:/fchai/work/i-cube/I-CUBE-HUAWEI/Drivers/BSP/Components/lis2mdl\lis2mdl_reg.c ****   return ret;
 788              		.loc 1 53 9 view .LVU201
 789 0012 B047     		blx	r6
 790              	.LVL59:
  54:D:/fchai/work/i-cube/I-CUBE-HUAWEI/Drivers/BSP/Components/lis2mdl\lis2mdl_reg.c **** }
 791              		.loc 1 54 3 is_stmt 1 view .LVU202
  54:D:/fchai/work/i-cube/I-CUBE-HUAWEI/Drivers/BSP/Components/lis2mdl\lis2mdl_reg.c **** }
 792              		.loc 1 54 3 is_stmt 0 view .LVU203
 793              	.LBE172:
 794              	.LBE173:
 273:D:/fchai/work/i-cube/I-CUBE-HUAWEI/Drivers/BSP/Components/lis2mdl\lis2mdl_reg.c **** 
 274:D:/fchai/work/i-cube/I-CUBE-HUAWEI/Drivers/BSP/Components/lis2mdl\lis2mdl_reg.c ****   if(ret == 0){
 795              		.loc 1 274 3 is_stmt 1 view .LVU204
 796              		.loc 1 274 5 is_stmt 0 view .LVU205
 797 0014 58B9     		cbnz	r0, .L29
 275:D:/fchai/work/i-cube/I-CUBE-HUAWEI/Drivers/BSP/Components/lis2mdl\lis2mdl_reg.c ****     reg.lp = (uint8_t)val;
 798              		.loc 1 275 5 is_stmt 1 view .LVU206
 799              		.loc 1 275 12 is_stmt 0 view .LVU207
 800 0016 9DF80430 		ldrb	r3, [sp, #4]	@ zero_extendqisi2
 801              	.LBB174:
 802              	.LBB175:
  71:D:/fchai/work/i-cube/I-CUBE-HUAWEI/Drivers/BSP/Components/lis2mdl\lis2mdl_reg.c ****   return ret;
 803              		.loc 1 71 9 view .LVU208
 804 001a 2668     		ldr	r6, [r4]
 805 001c A068     		ldr	r0, [r4, #8]
 806              	.LVL60:
  71:D:/fchai/work/i-cube/I-CUBE-HUAWEI/Drivers/BSP/Components/lis2mdl\lis2mdl_reg.c ****   return ret;
 807              		.loc 1 71 9 view .LVU209
 808              	.LBE175:
 809              	.LBE174:
 810              		.loc 1 275 12 view .LVU210
 811 001e 65F30413 		bfi	r3, r5, #4, #1
 812 0022 8DF80430 		strb	r3, [sp, #4]
 276:D:/fchai/work/i-cube/I-CUBE-HUAWEI/Drivers/BSP/Components/lis2mdl\lis2mdl_reg.c ****     ret = lis2mdl_write_reg(ctx, LIS2MDL_CFG_REG_A, (uint8_t*)&reg, 1);
 813              		.loc 1 276 5 is_stmt 1 view .LVU211
 814              	.LVL61:
 815              	.LBB177:
 816              	.LBI174:
  67:D:/fchai/work/i-cube/I-CUBE-HUAWEI/Drivers/BSP/Components/lis2mdl\lis2mdl_reg.c ****                           uint16_t len)
 817              		.loc 1 67 9 view .LVU212
 818              	.LBB176:
  70:D:/fchai/work/i-cube/I-CUBE-HUAWEI/Drivers/BSP/Components/lis2mdl\lis2mdl_reg.c ****   ret = ctx->write_reg(ctx->handle, reg, data, len);
 819              		.loc 1 70 3 view .LVU213
  71:D:/fchai/work/i-cube/I-CUBE-HUAWEI/Drivers/BSP/Components/lis2mdl\lis2mdl_reg.c ****   return ret;
 820              		.loc 1 71 3 view .LVU214
  71:D:/fchai/work/i-cube/I-CUBE-HUAWEI/Drivers/BSP/Components/lis2mdl\lis2mdl_reg.c ****   return ret;
ARM GAS  T:\msys\tmp\cct7nJJy.s 			page 22


 821              		.loc 1 71 9 is_stmt 0 view .LVU215
 822 0026 01AA     		add	r2, sp, #4
 823              	.LVL62:
  71:D:/fchai/work/i-cube/I-CUBE-HUAWEI/Drivers/BSP/Components/lis2mdl\lis2mdl_reg.c ****   return ret;
 824              		.loc 1 71 9 view .LVU216
 825 0028 0123     		movs	r3, #1
 826 002a 6021     		movs	r1, #96
 827 002c B047     		blx	r6
 828              	.LVL63:
  72:D:/fchai/work/i-cube/I-CUBE-HUAWEI/Drivers/BSP/Components/lis2mdl\lis2mdl_reg.c **** }
 829              		.loc 1 72 3 is_stmt 1 view .LVU217
  72:D:/fchai/work/i-cube/I-CUBE-HUAWEI/Drivers/BSP/Components/lis2mdl\lis2mdl_reg.c **** }
 830              		.loc 1 72 3 is_stmt 0 view .LVU218
 831              	.LBE176:
 832              	.LBE177:
 277:D:/fchai/work/i-cube/I-CUBE-HUAWEI/Drivers/BSP/Components/lis2mdl\lis2mdl_reg.c ****   }
 278:D:/fchai/work/i-cube/I-CUBE-HUAWEI/Drivers/BSP/Components/lis2mdl\lis2mdl_reg.c **** 
 279:D:/fchai/work/i-cube/I-CUBE-HUAWEI/Drivers/BSP/Components/lis2mdl\lis2mdl_reg.c ****   return ret;
 833              		.loc 1 279 3 is_stmt 1 view .LVU219
 834              	.L29:
 280:D:/fchai/work/i-cube/I-CUBE-HUAWEI/Drivers/BSP/Components/lis2mdl\lis2mdl_reg.c **** }
 835              		.loc 1 280 1 is_stmt 0 view .LVU220
 836 002e 02B0     		add	sp, sp, #8
 837              	.LCFI26:
 838              		.cfi_def_cfa_offset 16
 839              		@ sp needed
 840 0030 70BD     		pop	{r4, r5, r6, pc}
 841              		.loc 1 280 1 view .LVU221
 842              		.cfi_endproc
 843              	.LFE10:
 845 0032 00BF     		.section	.text.lis2mdl_power_mode_get,"ax",%progbits
 846              		.align	1
 847              		.p2align 2,,3
 848              		.global	lis2mdl_power_mode_get
 849              		.syntax unified
 850              		.thumb
 851              		.thumb_func
 852              		.fpu fpv4-sp-d16
 854              	lis2mdl_power_mode_get:
 855              	.LVL64:
 856              	.LFB11:
 281:D:/fchai/work/i-cube/I-CUBE-HUAWEI/Drivers/BSP/Components/lis2mdl\lis2mdl_reg.c **** 
 282:D:/fchai/work/i-cube/I-CUBE-HUAWEI/Drivers/BSP/Components/lis2mdl\lis2mdl_reg.c **** /**
 283:D:/fchai/work/i-cube/I-CUBE-HUAWEI/Drivers/BSP/Components/lis2mdl\lis2mdl_reg.c ****   * @brief  Enables high-resolution/low-power mode.[get]
 284:D:/fchai/work/i-cube/I-CUBE-HUAWEI/Drivers/BSP/Components/lis2mdl\lis2mdl_reg.c ****   *
 285:D:/fchai/work/i-cube/I-CUBE-HUAWEI/Drivers/BSP/Components/lis2mdl\lis2mdl_reg.c ****   * @param  ctx   read / write interface definitions.(ptr)
 286:D:/fchai/work/i-cube/I-CUBE-HUAWEI/Drivers/BSP/Components/lis2mdl\lis2mdl_reg.c ****   * @param  val   Get the values of lp in reg CFG_REG_A.(ptr)
 287:D:/fchai/work/i-cube/I-CUBE-HUAWEI/Drivers/BSP/Components/lis2mdl\lis2mdl_reg.c ****   * @retval       interface status.(MANDATORY: return 0 -> no Error)
 288:D:/fchai/work/i-cube/I-CUBE-HUAWEI/Drivers/BSP/Components/lis2mdl\lis2mdl_reg.c ****   *
 289:D:/fchai/work/i-cube/I-CUBE-HUAWEI/Drivers/BSP/Components/lis2mdl\lis2mdl_reg.c ****   */
 290:D:/fchai/work/i-cube/I-CUBE-HUAWEI/Drivers/BSP/Components/lis2mdl\lis2mdl_reg.c **** int32_t lis2mdl_power_mode_get(stmdev_ctx_t *ctx, lis2mdl_lp_t *val)
 291:D:/fchai/work/i-cube/I-CUBE-HUAWEI/Drivers/BSP/Components/lis2mdl\lis2mdl_reg.c **** {
 857              		.loc 1 291 1 is_stmt 1 view -0
 858              		.cfi_startproc
 859              		@ args = 0, pretend = 0, frame = 8
 860              		@ frame_needed = 0, uses_anonymous_args = 0
 292:D:/fchai/work/i-cube/I-CUBE-HUAWEI/Drivers/BSP/Components/lis2mdl\lis2mdl_reg.c ****   lis2mdl_cfg_reg_a_t reg;
ARM GAS  T:\msys\tmp\cct7nJJy.s 			page 23


 861              		.loc 1 292 3 view .LVU223
 293:D:/fchai/work/i-cube/I-CUBE-HUAWEI/Drivers/BSP/Components/lis2mdl\lis2mdl_reg.c ****   int32_t ret;
 862              		.loc 1 293 3 view .LVU224
 294:D:/fchai/work/i-cube/I-CUBE-HUAWEI/Drivers/BSP/Components/lis2mdl\lis2mdl_reg.c **** 
 295:D:/fchai/work/i-cube/I-CUBE-HUAWEI/Drivers/BSP/Components/lis2mdl\lis2mdl_reg.c ****   ret = lis2mdl_read_reg(ctx, LIS2MDL_CFG_REG_A, (uint8_t*)&reg, 1);
 863              		.loc 1 295 3 view .LVU225
 291:D:/fchai/work/i-cube/I-CUBE-HUAWEI/Drivers/BSP/Components/lis2mdl\lis2mdl_reg.c ****   lis2mdl_cfg_reg_a_t reg;
 864              		.loc 1 291 1 is_stmt 0 view .LVU226
 865 0000 30B5     		push	{r4, r5, lr}
 866              	.LCFI27:
 867              		.cfi_def_cfa_offset 12
 868              		.cfi_offset 4, -12
 869              		.cfi_offset 5, -8
 870              		.cfi_offset 14, -4
 871 0002 83B0     		sub	sp, sp, #12
 872              	.LCFI28:
 873              		.cfi_def_cfa_offset 24
 874              	.LVL65:
 875              	.LBB178:
 876              	.LBI178:
  49:D:/fchai/work/i-cube/I-CUBE-HUAWEI/Drivers/BSP/Components/lis2mdl\lis2mdl_reg.c ****                          uint16_t len)
 877              		.loc 1 49 9 is_stmt 1 view .LVU227
 878              	.LBB179:
  52:D:/fchai/work/i-cube/I-CUBE-HUAWEI/Drivers/BSP/Components/lis2mdl\lis2mdl_reg.c ****   ret = ctx->read_reg(ctx->handle, reg, data, len);
 879              		.loc 1 52 3 view .LVU228
  53:D:/fchai/work/i-cube/I-CUBE-HUAWEI/Drivers/BSP/Components/lis2mdl\lis2mdl_reg.c ****   return ret;
 880              		.loc 1 53 3 view .LVU229
 881              	.LBE179:
 882              	.LBE178:
 291:D:/fchai/work/i-cube/I-CUBE-HUAWEI/Drivers/BSP/Components/lis2mdl\lis2mdl_reg.c ****   lis2mdl_cfg_reg_a_t reg;
 883              		.loc 1 291 1 is_stmt 0 view .LVU230
 884 0004 0C46     		mov	r4, r1
 885              	.LBB182:
 886              	.LBB180:
  53:D:/fchai/work/i-cube/I-CUBE-HUAWEI/Drivers/BSP/Components/lis2mdl\lis2mdl_reg.c ****   return ret;
 887              		.loc 1 53 9 view .LVU231
 888 0006 01AA     		add	r2, sp, #4
 889              	.LVL66:
  53:D:/fchai/work/i-cube/I-CUBE-HUAWEI/Drivers/BSP/Components/lis2mdl\lis2mdl_reg.c ****   return ret;
 890              		.loc 1 53 9 view .LVU232
 891 0008 D0E90150 		ldrd	r5, r0, [r0, #4]
 892              	.LVL67:
  53:D:/fchai/work/i-cube/I-CUBE-HUAWEI/Drivers/BSP/Components/lis2mdl\lis2mdl_reg.c ****   return ret;
 893              		.loc 1 53 9 view .LVU233
 894 000c 0123     		movs	r3, #1
 895 000e 6021     		movs	r1, #96
 896              	.LVL68:
  53:D:/fchai/work/i-cube/I-CUBE-HUAWEI/Drivers/BSP/Components/lis2mdl\lis2mdl_reg.c ****   return ret;
 897              		.loc 1 53 9 view .LVU234
 898 0010 A847     		blx	r5
 899              	.LVL69:
  53:D:/fchai/work/i-cube/I-CUBE-HUAWEI/Drivers/BSP/Components/lis2mdl\lis2mdl_reg.c ****   return ret;
 900              		.loc 1 53 9 view .LVU235
 901              	.LBE180:
 902              	.LBE182:
 296:D:/fchai/work/i-cube/I-CUBE-HUAWEI/Drivers/BSP/Components/lis2mdl\lis2mdl_reg.c ****   switch (reg.lp){
 903              		.loc 1 296 14 view .LVU236
ARM GAS  T:\msys\tmp\cct7nJJy.s 			page 24


 904 0012 9DF80430 		ldrb	r3, [sp, #4]	@ zero_extendqisi2
 905              	.LVL70:
 906              	.LBB183:
 907              	.LBB181:
  54:D:/fchai/work/i-cube/I-CUBE-HUAWEI/Drivers/BSP/Components/lis2mdl\lis2mdl_reg.c **** }
 908              		.loc 1 54 3 is_stmt 1 view .LVU237
  54:D:/fchai/work/i-cube/I-CUBE-HUAWEI/Drivers/BSP/Components/lis2mdl\lis2mdl_reg.c **** }
 909              		.loc 1 54 3 is_stmt 0 view .LVU238
 910              	.LBE181:
 911              	.LBE183:
 912              		.loc 1 296 3 is_stmt 1 view .LVU239
 913              		.loc 1 296 14 is_stmt 0 view .LVU240
 914 0016 C3F30012 		ubfx	r2, r3, #4, #1
 915              		.loc 1 296 3 view .LVU241
 916 001a DB06     		lsls	r3, r3, #27
 297:D:/fchai/work/i-cube/I-CUBE-HUAWEI/Drivers/BSP/Components/lis2mdl\lis2mdl_reg.c ****     case LIS2MDL_HIGH_RESOLUTION:
 298:D:/fchai/work/i-cube/I-CUBE-HUAWEI/Drivers/BSP/Components/lis2mdl\lis2mdl_reg.c ****       *val = LIS2MDL_HIGH_RESOLUTION;
 917              		.loc 1 298 7 is_stmt 1 view .LVU242
 918              		.loc 1 298 12 is_stmt 0 view .LVU243
 919 001c 5ABF     		itte	pl
 920 001e 0023     		movpl	r3, #0
 921 0020 2370     		strbpl	r3, [r4]
 299:D:/fchai/work/i-cube/I-CUBE-HUAWEI/Drivers/BSP/Components/lis2mdl\lis2mdl_reg.c ****       break;
 922              		.loc 1 299 7 is_stmt 1 view .LVU244
 300:D:/fchai/work/i-cube/I-CUBE-HUAWEI/Drivers/BSP/Components/lis2mdl\lis2mdl_reg.c ****     case LIS2MDL_LOW_POWER:
 301:D:/fchai/work/i-cube/I-CUBE-HUAWEI/Drivers/BSP/Components/lis2mdl\lis2mdl_reg.c ****       *val = LIS2MDL_LOW_POWER;
 923              		.loc 1 301 7 view .LVU245
 924              		.loc 1 301 12 is_stmt 0 view .LVU246
 925 0022 2270     		strbmi	r2, [r4]
 302:D:/fchai/work/i-cube/I-CUBE-HUAWEI/Drivers/BSP/Components/lis2mdl\lis2mdl_reg.c ****       break;
 926              		.loc 1 302 7 is_stmt 1 view .LVU247
 303:D:/fchai/work/i-cube/I-CUBE-HUAWEI/Drivers/BSP/Components/lis2mdl\lis2mdl_reg.c ****     default:
 304:D:/fchai/work/i-cube/I-CUBE-HUAWEI/Drivers/BSP/Components/lis2mdl\lis2mdl_reg.c ****       *val = LIS2MDL_HIGH_RESOLUTION;
 305:D:/fchai/work/i-cube/I-CUBE-HUAWEI/Drivers/BSP/Components/lis2mdl\lis2mdl_reg.c ****       break;
 306:D:/fchai/work/i-cube/I-CUBE-HUAWEI/Drivers/BSP/Components/lis2mdl\lis2mdl_reg.c ****   }
 307:D:/fchai/work/i-cube/I-CUBE-HUAWEI/Drivers/BSP/Components/lis2mdl\lis2mdl_reg.c ****   return ret;
 927              		.loc 1 307 3 view .LVU248
 308:D:/fchai/work/i-cube/I-CUBE-HUAWEI/Drivers/BSP/Components/lis2mdl\lis2mdl_reg.c **** }
 928              		.loc 1 308 1 is_stmt 0 view .LVU249
 929 0024 03B0     		add	sp, sp, #12
 930              	.LCFI29:
 931              		.cfi_def_cfa_offset 12
 932              		@ sp needed
 933 0026 30BD     		pop	{r4, r5, pc}
 934              		.loc 1 308 1 view .LVU250
 935              		.cfi_endproc
 936              	.LFE11:
 938              		.section	.text.lis2mdl_offset_temp_comp_set,"ax",%progbits
 939              		.align	1
 940              		.p2align 2,,3
 941              		.global	lis2mdl_offset_temp_comp_set
 942              		.syntax unified
 943              		.thumb
 944              		.thumb_func
 945              		.fpu fpv4-sp-d16
 947              	lis2mdl_offset_temp_comp_set:
 948              	.LVL71:
ARM GAS  T:\msys\tmp\cct7nJJy.s 			page 25


 949              	.LFB12:
 309:D:/fchai/work/i-cube/I-CUBE-HUAWEI/Drivers/BSP/Components/lis2mdl\lis2mdl_reg.c **** 
 310:D:/fchai/work/i-cube/I-CUBE-HUAWEI/Drivers/BSP/Components/lis2mdl\lis2mdl_reg.c **** /**
 311:D:/fchai/work/i-cube/I-CUBE-HUAWEI/Drivers/BSP/Components/lis2mdl\lis2mdl_reg.c ****   * @brief  Enables the magnetometer temperature compensation.[set]
 312:D:/fchai/work/i-cube/I-CUBE-HUAWEI/Drivers/BSP/Components/lis2mdl\lis2mdl_reg.c ****   *
 313:D:/fchai/work/i-cube/I-CUBE-HUAWEI/Drivers/BSP/Components/lis2mdl\lis2mdl_reg.c ****   * @param  ctx   read / write interface definitions.(ptr)
 314:D:/fchai/work/i-cube/I-CUBE-HUAWEI/Drivers/BSP/Components/lis2mdl\lis2mdl_reg.c ****   * @param  val   change the values of comp_temp_en in reg CFG_REG_A
 315:D:/fchai/work/i-cube/I-CUBE-HUAWEI/Drivers/BSP/Components/lis2mdl\lis2mdl_reg.c ****   * @retval       interface status.(MANDATORY: return 0 -> no Error)
 316:D:/fchai/work/i-cube/I-CUBE-HUAWEI/Drivers/BSP/Components/lis2mdl\lis2mdl_reg.c ****   *
 317:D:/fchai/work/i-cube/I-CUBE-HUAWEI/Drivers/BSP/Components/lis2mdl\lis2mdl_reg.c ****   */
 318:D:/fchai/work/i-cube/I-CUBE-HUAWEI/Drivers/BSP/Components/lis2mdl\lis2mdl_reg.c **** int32_t lis2mdl_offset_temp_comp_set(stmdev_ctx_t *ctx, uint8_t val)
 319:D:/fchai/work/i-cube/I-CUBE-HUAWEI/Drivers/BSP/Components/lis2mdl\lis2mdl_reg.c **** {
 950              		.loc 1 319 1 is_stmt 1 view -0
 951              		.cfi_startproc
 952              		@ args = 0, pretend = 0, frame = 8
 953              		@ frame_needed = 0, uses_anonymous_args = 0
 320:D:/fchai/work/i-cube/I-CUBE-HUAWEI/Drivers/BSP/Components/lis2mdl\lis2mdl_reg.c ****   lis2mdl_cfg_reg_a_t reg;
 954              		.loc 1 320 3 view .LVU252
 321:D:/fchai/work/i-cube/I-CUBE-HUAWEI/Drivers/BSP/Components/lis2mdl\lis2mdl_reg.c ****   int32_t ret;
 955              		.loc 1 321 3 view .LVU253
 322:D:/fchai/work/i-cube/I-CUBE-HUAWEI/Drivers/BSP/Components/lis2mdl\lis2mdl_reg.c **** 
 323:D:/fchai/work/i-cube/I-CUBE-HUAWEI/Drivers/BSP/Components/lis2mdl\lis2mdl_reg.c ****   ret = lis2mdl_read_reg(ctx, LIS2MDL_CFG_REG_A, (uint8_t*)&reg, 1);
 956              		.loc 1 323 3 view .LVU254
 319:D:/fchai/work/i-cube/I-CUBE-HUAWEI/Drivers/BSP/Components/lis2mdl\lis2mdl_reg.c ****   lis2mdl_cfg_reg_a_t reg;
 957              		.loc 1 319 1 is_stmt 0 view .LVU255
 958 0000 70B5     		push	{r4, r5, r6, lr}
 959              	.LCFI30:
 960              		.cfi_def_cfa_offset 16
 961              		.cfi_offset 4, -16
 962              		.cfi_offset 5, -12
 963              		.cfi_offset 6, -8
 964              		.cfi_offset 14, -4
 965 0002 82B0     		sub	sp, sp, #8
 966              	.LCFI31:
 967              		.cfi_def_cfa_offset 24
 319:D:/fchai/work/i-cube/I-CUBE-HUAWEI/Drivers/BSP/Components/lis2mdl\lis2mdl_reg.c ****   lis2mdl_cfg_reg_a_t reg;
 968              		.loc 1 319 1 view .LVU256
 969 0004 0446     		mov	r4, r0
 970              	.LVL72:
 971              	.LBB184:
 972              	.LBI184:
  49:D:/fchai/work/i-cube/I-CUBE-HUAWEI/Drivers/BSP/Components/lis2mdl\lis2mdl_reg.c ****                          uint16_t len)
 973              		.loc 1 49 9 is_stmt 1 view .LVU257
 974              	.LBB185:
  52:D:/fchai/work/i-cube/I-CUBE-HUAWEI/Drivers/BSP/Components/lis2mdl\lis2mdl_reg.c ****   ret = ctx->read_reg(ctx->handle, reg, data, len);
 975              		.loc 1 52 3 view .LVU258
  53:D:/fchai/work/i-cube/I-CUBE-HUAWEI/Drivers/BSP/Components/lis2mdl\lis2mdl_reg.c ****   return ret;
 976              		.loc 1 53 3 view .LVU259
 977              	.LBE185:
 978              	.LBE184:
 319:D:/fchai/work/i-cube/I-CUBE-HUAWEI/Drivers/BSP/Components/lis2mdl\lis2mdl_reg.c ****   lis2mdl_cfg_reg_a_t reg;
 979              		.loc 1 319 1 is_stmt 0 view .LVU260
 980 0006 0D46     		mov	r5, r1
 981              	.LBB187:
 982              	.LBB186:
  53:D:/fchai/work/i-cube/I-CUBE-HUAWEI/Drivers/BSP/Components/lis2mdl\lis2mdl_reg.c ****   return ret;
 983              		.loc 1 53 9 view .LVU261
ARM GAS  T:\msys\tmp\cct7nJJy.s 			page 26


 984 0008 D0E90160 		ldrd	r6, r0, [r0, #4]
 985              	.LVL73:
  53:D:/fchai/work/i-cube/I-CUBE-HUAWEI/Drivers/BSP/Components/lis2mdl\lis2mdl_reg.c ****   return ret;
 986              		.loc 1 53 9 view .LVU262
 987 000c 01AA     		add	r2, sp, #4
 988              	.LVL74:
  53:D:/fchai/work/i-cube/I-CUBE-HUAWEI/Drivers/BSP/Components/lis2mdl\lis2mdl_reg.c ****   return ret;
 989              		.loc 1 53 9 view .LVU263
 990 000e 0123     		movs	r3, #1
 991 0010 6021     		movs	r1, #96
 992              	.LVL75:
  53:D:/fchai/work/i-cube/I-CUBE-HUAWEI/Drivers/BSP/Components/lis2mdl\lis2mdl_reg.c ****   return ret;
 993              		.loc 1 53 9 view .LVU264
 994 0012 B047     		blx	r6
 995              	.LVL76:
  54:D:/fchai/work/i-cube/I-CUBE-HUAWEI/Drivers/BSP/Components/lis2mdl\lis2mdl_reg.c **** }
 996              		.loc 1 54 3 is_stmt 1 view .LVU265
  54:D:/fchai/work/i-cube/I-CUBE-HUAWEI/Drivers/BSP/Components/lis2mdl\lis2mdl_reg.c **** }
 997              		.loc 1 54 3 is_stmt 0 view .LVU266
 998              	.LBE186:
 999              	.LBE187:
 324:D:/fchai/work/i-cube/I-CUBE-HUAWEI/Drivers/BSP/Components/lis2mdl\lis2mdl_reg.c **** 
 325:D:/fchai/work/i-cube/I-CUBE-HUAWEI/Drivers/BSP/Components/lis2mdl\lis2mdl_reg.c ****   if(ret == 0){
 1000              		.loc 1 325 3 is_stmt 1 view .LVU267
 1001              		.loc 1 325 5 is_stmt 0 view .LVU268
 1002 0014 58B9     		cbnz	r0, .L36
 326:D:/fchai/work/i-cube/I-CUBE-HUAWEI/Drivers/BSP/Components/lis2mdl\lis2mdl_reg.c ****     reg.comp_temp_en = val;
 1003              		.loc 1 326 5 is_stmt 1 view .LVU269
 1004              		.loc 1 326 22 is_stmt 0 view .LVU270
 1005 0016 9DF80430 		ldrb	r3, [sp, #4]	@ zero_extendqisi2
 1006              	.LBB188:
 1007              	.LBB189:
  71:D:/fchai/work/i-cube/I-CUBE-HUAWEI/Drivers/BSP/Components/lis2mdl\lis2mdl_reg.c ****   return ret;
 1008              		.loc 1 71 9 view .LVU271
 1009 001a 2668     		ldr	r6, [r4]
 1010 001c A068     		ldr	r0, [r4, #8]
 1011              	.LVL77:
  71:D:/fchai/work/i-cube/I-CUBE-HUAWEI/Drivers/BSP/Components/lis2mdl\lis2mdl_reg.c ****   return ret;
 1012              		.loc 1 71 9 view .LVU272
 1013              	.LBE189:
 1014              	.LBE188:
 1015              		.loc 1 326 22 view .LVU273
 1016 001e 65F3C713 		bfi	r3, r5, #7, #1
 1017 0022 8DF80430 		strb	r3, [sp, #4]
 327:D:/fchai/work/i-cube/I-CUBE-HUAWEI/Drivers/BSP/Components/lis2mdl\lis2mdl_reg.c ****     ret = lis2mdl_write_reg(ctx, LIS2MDL_CFG_REG_A, (uint8_t*)&reg, 1);
 1018              		.loc 1 327 5 is_stmt 1 view .LVU274
 1019              	.LVL78:
 1020              	.LBB191:
 1021              	.LBI188:
  67:D:/fchai/work/i-cube/I-CUBE-HUAWEI/Drivers/BSP/Components/lis2mdl\lis2mdl_reg.c ****                           uint16_t len)
 1022              		.loc 1 67 9 view .LVU275
 1023              	.LBB190:
  70:D:/fchai/work/i-cube/I-CUBE-HUAWEI/Drivers/BSP/Components/lis2mdl\lis2mdl_reg.c ****   ret = ctx->write_reg(ctx->handle, reg, data, len);
 1024              		.loc 1 70 3 view .LVU276
  71:D:/fchai/work/i-cube/I-CUBE-HUAWEI/Drivers/BSP/Components/lis2mdl\lis2mdl_reg.c ****   return ret;
 1025              		.loc 1 71 3 view .LVU277
  71:D:/fchai/work/i-cube/I-CUBE-HUAWEI/Drivers/BSP/Components/lis2mdl\lis2mdl_reg.c ****   return ret;
ARM GAS  T:\msys\tmp\cct7nJJy.s 			page 27


 1026              		.loc 1 71 9 is_stmt 0 view .LVU278
 1027 0026 01AA     		add	r2, sp, #4
 1028              	.LVL79:
  71:D:/fchai/work/i-cube/I-CUBE-HUAWEI/Drivers/BSP/Components/lis2mdl\lis2mdl_reg.c ****   return ret;
 1029              		.loc 1 71 9 view .LVU279
 1030 0028 0123     		movs	r3, #1
 1031 002a 6021     		movs	r1, #96
 1032 002c B047     		blx	r6
 1033              	.LVL80:
  72:D:/fchai/work/i-cube/I-CUBE-HUAWEI/Drivers/BSP/Components/lis2mdl\lis2mdl_reg.c **** }
 1034              		.loc 1 72 3 is_stmt 1 view .LVU280
  72:D:/fchai/work/i-cube/I-CUBE-HUAWEI/Drivers/BSP/Components/lis2mdl\lis2mdl_reg.c **** }
 1035              		.loc 1 72 3 is_stmt 0 view .LVU281
 1036              	.LBE190:
 1037              	.LBE191:
 328:D:/fchai/work/i-cube/I-CUBE-HUAWEI/Drivers/BSP/Components/lis2mdl\lis2mdl_reg.c ****   }
 329:D:/fchai/work/i-cube/I-CUBE-HUAWEI/Drivers/BSP/Components/lis2mdl\lis2mdl_reg.c **** 
 330:D:/fchai/work/i-cube/I-CUBE-HUAWEI/Drivers/BSP/Components/lis2mdl\lis2mdl_reg.c ****   return ret;
 1038              		.loc 1 330 3 is_stmt 1 view .LVU282
 1039              	.L36:
 331:D:/fchai/work/i-cube/I-CUBE-HUAWEI/Drivers/BSP/Components/lis2mdl\lis2mdl_reg.c **** }
 1040              		.loc 1 331 1 is_stmt 0 view .LVU283
 1041 002e 02B0     		add	sp, sp, #8
 1042              	.LCFI32:
 1043              		.cfi_def_cfa_offset 16
 1044              		@ sp needed
 1045 0030 70BD     		pop	{r4, r5, r6, pc}
 1046              		.loc 1 331 1 view .LVU284
 1047              		.cfi_endproc
 1048              	.LFE12:
 1050 0032 00BF     		.section	.text.lis2mdl_offset_temp_comp_get,"ax",%progbits
 1051              		.align	1
 1052              		.p2align 2,,3
 1053              		.global	lis2mdl_offset_temp_comp_get
 1054              		.syntax unified
 1055              		.thumb
 1056              		.thumb_func
 1057              		.fpu fpv4-sp-d16
 1059              	lis2mdl_offset_temp_comp_get:
 1060              	.LVL81:
 1061              	.LFB13:
 332:D:/fchai/work/i-cube/I-CUBE-HUAWEI/Drivers/BSP/Components/lis2mdl\lis2mdl_reg.c **** 
 333:D:/fchai/work/i-cube/I-CUBE-HUAWEI/Drivers/BSP/Components/lis2mdl\lis2mdl_reg.c **** /**
 334:D:/fchai/work/i-cube/I-CUBE-HUAWEI/Drivers/BSP/Components/lis2mdl\lis2mdl_reg.c ****   * @brief  Enables the magnetometer temperature compensation.[get]
 335:D:/fchai/work/i-cube/I-CUBE-HUAWEI/Drivers/BSP/Components/lis2mdl\lis2mdl_reg.c ****   *
 336:D:/fchai/work/i-cube/I-CUBE-HUAWEI/Drivers/BSP/Components/lis2mdl\lis2mdl_reg.c ****   * @param  ctx   read / write interface definitions.(ptr)
 337:D:/fchai/work/i-cube/I-CUBE-HUAWEI/Drivers/BSP/Components/lis2mdl\lis2mdl_reg.c ****   * @param  val   change the values of comp_temp_en in reg CFG_REG_A.(ptr)
 338:D:/fchai/work/i-cube/I-CUBE-HUAWEI/Drivers/BSP/Components/lis2mdl\lis2mdl_reg.c ****   * @retval       interface status.(MANDATORY: return 0 -> no Error)
 339:D:/fchai/work/i-cube/I-CUBE-HUAWEI/Drivers/BSP/Components/lis2mdl\lis2mdl_reg.c ****   *
 340:D:/fchai/work/i-cube/I-CUBE-HUAWEI/Drivers/BSP/Components/lis2mdl\lis2mdl_reg.c ****   */
 341:D:/fchai/work/i-cube/I-CUBE-HUAWEI/Drivers/BSP/Components/lis2mdl\lis2mdl_reg.c **** int32_t lis2mdl_offset_temp_comp_get(stmdev_ctx_t *ctx, uint8_t *val)
 342:D:/fchai/work/i-cube/I-CUBE-HUAWEI/Drivers/BSP/Components/lis2mdl\lis2mdl_reg.c **** {
 1062              		.loc 1 342 1 is_stmt 1 view -0
 1063              		.cfi_startproc
 1064              		@ args = 0, pretend = 0, frame = 8
 1065              		@ frame_needed = 0, uses_anonymous_args = 0
 343:D:/fchai/work/i-cube/I-CUBE-HUAWEI/Drivers/BSP/Components/lis2mdl\lis2mdl_reg.c ****   lis2mdl_cfg_reg_a_t reg;
ARM GAS  T:\msys\tmp\cct7nJJy.s 			page 28


 1066              		.loc 1 343 3 view .LVU286
 344:D:/fchai/work/i-cube/I-CUBE-HUAWEI/Drivers/BSP/Components/lis2mdl\lis2mdl_reg.c ****   int32_t ret;
 1067              		.loc 1 344 3 view .LVU287
 345:D:/fchai/work/i-cube/I-CUBE-HUAWEI/Drivers/BSP/Components/lis2mdl\lis2mdl_reg.c **** 
 346:D:/fchai/work/i-cube/I-CUBE-HUAWEI/Drivers/BSP/Components/lis2mdl\lis2mdl_reg.c ****   ret = lis2mdl_read_reg(ctx, LIS2MDL_CFG_REG_A, (uint8_t*)&reg, 1);
 1068              		.loc 1 346 3 view .LVU288
 342:D:/fchai/work/i-cube/I-CUBE-HUAWEI/Drivers/BSP/Components/lis2mdl\lis2mdl_reg.c ****   lis2mdl_cfg_reg_a_t reg;
 1069              		.loc 1 342 1 is_stmt 0 view .LVU289
 1070 0000 30B5     		push	{r4, r5, lr}
 1071              	.LCFI33:
 1072              		.cfi_def_cfa_offset 12
 1073              		.cfi_offset 4, -12
 1074              		.cfi_offset 5, -8
 1075              		.cfi_offset 14, -4
 1076 0002 83B0     		sub	sp, sp, #12
 1077              	.LCFI34:
 1078              		.cfi_def_cfa_offset 24
 1079              	.LVL82:
 1080              	.LBB192:
 1081              	.LBI192:
  49:D:/fchai/work/i-cube/I-CUBE-HUAWEI/Drivers/BSP/Components/lis2mdl\lis2mdl_reg.c ****                          uint16_t len)
 1082              		.loc 1 49 9 is_stmt 1 view .LVU290
 1083              	.LBB193:
  52:D:/fchai/work/i-cube/I-CUBE-HUAWEI/Drivers/BSP/Components/lis2mdl\lis2mdl_reg.c ****   ret = ctx->read_reg(ctx->handle, reg, data, len);
 1084              		.loc 1 52 3 view .LVU291
  53:D:/fchai/work/i-cube/I-CUBE-HUAWEI/Drivers/BSP/Components/lis2mdl\lis2mdl_reg.c ****   return ret;
 1085              		.loc 1 53 3 view .LVU292
 1086              	.LBE193:
 1087              	.LBE192:
 342:D:/fchai/work/i-cube/I-CUBE-HUAWEI/Drivers/BSP/Components/lis2mdl\lis2mdl_reg.c ****   lis2mdl_cfg_reg_a_t reg;
 1088              		.loc 1 342 1 is_stmt 0 view .LVU293
 1089 0004 0C46     		mov	r4, r1
 1090              	.LBB195:
 1091              	.LBB194:
  53:D:/fchai/work/i-cube/I-CUBE-HUAWEI/Drivers/BSP/Components/lis2mdl\lis2mdl_reg.c ****   return ret;
 1092              		.loc 1 53 9 view .LVU294
 1093 0006 D0E90150 		ldrd	r5, r0, [r0, #4]
 1094              	.LVL83:
  53:D:/fchai/work/i-cube/I-CUBE-HUAWEI/Drivers/BSP/Components/lis2mdl\lis2mdl_reg.c ****   return ret;
 1095              		.loc 1 53 9 view .LVU295
 1096 000a 0123     		movs	r3, #1
 1097 000c 01AA     		add	r2, sp, #4
 1098              	.LVL84:
  53:D:/fchai/work/i-cube/I-CUBE-HUAWEI/Drivers/BSP/Components/lis2mdl\lis2mdl_reg.c ****   return ret;
 1099              		.loc 1 53 9 view .LVU296
 1100 000e 6021     		movs	r1, #96
 1101              	.LVL85:
  53:D:/fchai/work/i-cube/I-CUBE-HUAWEI/Drivers/BSP/Components/lis2mdl\lis2mdl_reg.c ****   return ret;
 1102              		.loc 1 53 9 view .LVU297
 1103 0010 A847     		blx	r5
 1104              	.LVL86:
  54:D:/fchai/work/i-cube/I-CUBE-HUAWEI/Drivers/BSP/Components/lis2mdl\lis2mdl_reg.c **** }
 1105              		.loc 1 54 3 is_stmt 1 view .LVU298
  54:D:/fchai/work/i-cube/I-CUBE-HUAWEI/Drivers/BSP/Components/lis2mdl\lis2mdl_reg.c **** }
 1106              		.loc 1 54 3 is_stmt 0 view .LVU299
 1107              	.LBE194:
 1108              	.LBE195:
ARM GAS  T:\msys\tmp\cct7nJJy.s 			page 29


 347:D:/fchai/work/i-cube/I-CUBE-HUAWEI/Drivers/BSP/Components/lis2mdl\lis2mdl_reg.c ****   *val = reg.comp_temp_en;
 1109              		.loc 1 347 3 is_stmt 1 view .LVU300
 1110              		.loc 1 347 13 is_stmt 0 view .LVU301
 1111 0012 9DF80430 		ldrb	r3, [sp, #4]	@ zero_extendqisi2
 1112 0016 C3F3C013 		ubfx	r3, r3, #7, #1
 1113              		.loc 1 347 8 view .LVU302
 1114 001a 2370     		strb	r3, [r4]
 348:D:/fchai/work/i-cube/I-CUBE-HUAWEI/Drivers/BSP/Components/lis2mdl\lis2mdl_reg.c **** 
 349:D:/fchai/work/i-cube/I-CUBE-HUAWEI/Drivers/BSP/Components/lis2mdl\lis2mdl_reg.c ****   return ret;
 1115              		.loc 1 349 3 is_stmt 1 view .LVU303
 350:D:/fchai/work/i-cube/I-CUBE-HUAWEI/Drivers/BSP/Components/lis2mdl\lis2mdl_reg.c **** }
 1116              		.loc 1 350 1 is_stmt 0 view .LVU304
 1117 001c 03B0     		add	sp, sp, #12
 1118              	.LCFI35:
 1119              		.cfi_def_cfa_offset 12
 1120              		@ sp needed
 1121 001e 30BD     		pop	{r4, r5, pc}
 1122              		.loc 1 350 1 view .LVU305
 1123              		.cfi_endproc
 1124              	.LFE13:
 1126              		.section	.text.lis2mdl_low_pass_bandwidth_set,"ax",%progbits
 1127              		.align	1
 1128              		.p2align 2,,3
 1129              		.global	lis2mdl_low_pass_bandwidth_set
 1130              		.syntax unified
 1131              		.thumb
 1132              		.thumb_func
 1133              		.fpu fpv4-sp-d16
 1135              	lis2mdl_low_pass_bandwidth_set:
 1136              	.LVL87:
 1137              	.LFB14:
 351:D:/fchai/work/i-cube/I-CUBE-HUAWEI/Drivers/BSP/Components/lis2mdl\lis2mdl_reg.c **** 
 352:D:/fchai/work/i-cube/I-CUBE-HUAWEI/Drivers/BSP/Components/lis2mdl\lis2mdl_reg.c **** /**
 353:D:/fchai/work/i-cube/I-CUBE-HUAWEI/Drivers/BSP/Components/lis2mdl\lis2mdl_reg.c ****   * @brief  Low-pass bandwidth selection.[set]
 354:D:/fchai/work/i-cube/I-CUBE-HUAWEI/Drivers/BSP/Components/lis2mdl\lis2mdl_reg.c ****   *
 355:D:/fchai/work/i-cube/I-CUBE-HUAWEI/Drivers/BSP/Components/lis2mdl\lis2mdl_reg.c ****   * @param  ctx   read / write interface definitions.(ptr)
 356:D:/fchai/work/i-cube/I-CUBE-HUAWEI/Drivers/BSP/Components/lis2mdl\lis2mdl_reg.c ****   * @param  val   change the values of lpf in reg CFG_REG_B
 357:D:/fchai/work/i-cube/I-CUBE-HUAWEI/Drivers/BSP/Components/lis2mdl\lis2mdl_reg.c ****   * @retval       interface status.(MANDATORY: return 0 -> no Error)
 358:D:/fchai/work/i-cube/I-CUBE-HUAWEI/Drivers/BSP/Components/lis2mdl\lis2mdl_reg.c ****   *
 359:D:/fchai/work/i-cube/I-CUBE-HUAWEI/Drivers/BSP/Components/lis2mdl\lis2mdl_reg.c ****   */
 360:D:/fchai/work/i-cube/I-CUBE-HUAWEI/Drivers/BSP/Components/lis2mdl\lis2mdl_reg.c **** int32_t lis2mdl_low_pass_bandwidth_set(stmdev_ctx_t *ctx,
 361:D:/fchai/work/i-cube/I-CUBE-HUAWEI/Drivers/BSP/Components/lis2mdl\lis2mdl_reg.c ****                                        lis2mdl_lpf_t val)
 362:D:/fchai/work/i-cube/I-CUBE-HUAWEI/Drivers/BSP/Components/lis2mdl\lis2mdl_reg.c **** {
 1138              		.loc 1 362 1 is_stmt 1 view -0
 1139              		.cfi_startproc
 1140              		@ args = 0, pretend = 0, frame = 8
 1141              		@ frame_needed = 0, uses_anonymous_args = 0
 363:D:/fchai/work/i-cube/I-CUBE-HUAWEI/Drivers/BSP/Components/lis2mdl\lis2mdl_reg.c ****   lis2mdl_cfg_reg_b_t reg;
 1142              		.loc 1 363 3 view .LVU307
 364:D:/fchai/work/i-cube/I-CUBE-HUAWEI/Drivers/BSP/Components/lis2mdl\lis2mdl_reg.c ****   int32_t ret;
 1143              		.loc 1 364 3 view .LVU308
 365:D:/fchai/work/i-cube/I-CUBE-HUAWEI/Drivers/BSP/Components/lis2mdl\lis2mdl_reg.c **** 
 366:D:/fchai/work/i-cube/I-CUBE-HUAWEI/Drivers/BSP/Components/lis2mdl\lis2mdl_reg.c ****   ret = lis2mdl_read_reg(ctx, LIS2MDL_CFG_REG_B, (uint8_t*)&reg, 1);
 1144              		.loc 1 366 3 view .LVU309
 362:D:/fchai/work/i-cube/I-CUBE-HUAWEI/Drivers/BSP/Components/lis2mdl\lis2mdl_reg.c ****   lis2mdl_cfg_reg_b_t reg;
 1145              		.loc 1 362 1 is_stmt 0 view .LVU310
 1146 0000 70B5     		push	{r4, r5, r6, lr}
ARM GAS  T:\msys\tmp\cct7nJJy.s 			page 30


 1147              	.LCFI36:
 1148              		.cfi_def_cfa_offset 16
 1149              		.cfi_offset 4, -16
 1150              		.cfi_offset 5, -12
 1151              		.cfi_offset 6, -8
 1152              		.cfi_offset 14, -4
 1153 0002 82B0     		sub	sp, sp, #8
 1154              	.LCFI37:
 1155              		.cfi_def_cfa_offset 24
 362:D:/fchai/work/i-cube/I-CUBE-HUAWEI/Drivers/BSP/Components/lis2mdl\lis2mdl_reg.c ****   lis2mdl_cfg_reg_b_t reg;
 1156              		.loc 1 362 1 view .LVU311
 1157 0004 0446     		mov	r4, r0
 1158              	.LVL88:
 1159              	.LBB196:
 1160              	.LBI196:
  49:D:/fchai/work/i-cube/I-CUBE-HUAWEI/Drivers/BSP/Components/lis2mdl\lis2mdl_reg.c ****                          uint16_t len)
 1161              		.loc 1 49 9 is_stmt 1 view .LVU312
 1162              	.LBB197:
  52:D:/fchai/work/i-cube/I-CUBE-HUAWEI/Drivers/BSP/Components/lis2mdl\lis2mdl_reg.c ****   ret = ctx->read_reg(ctx->handle, reg, data, len);
 1163              		.loc 1 52 3 view .LVU313
  53:D:/fchai/work/i-cube/I-CUBE-HUAWEI/Drivers/BSP/Components/lis2mdl\lis2mdl_reg.c ****   return ret;
 1164              		.loc 1 53 3 view .LVU314
 1165              	.LBE197:
 1166              	.LBE196:
 362:D:/fchai/work/i-cube/I-CUBE-HUAWEI/Drivers/BSP/Components/lis2mdl\lis2mdl_reg.c ****   lis2mdl_cfg_reg_b_t reg;
 1167              		.loc 1 362 1 is_stmt 0 view .LVU315
 1168 0006 0D46     		mov	r5, r1
 1169              	.LBB199:
 1170              	.LBB198:
  53:D:/fchai/work/i-cube/I-CUBE-HUAWEI/Drivers/BSP/Components/lis2mdl\lis2mdl_reg.c ****   return ret;
 1171              		.loc 1 53 9 view .LVU316
 1172 0008 D0E90160 		ldrd	r6, r0, [r0, #4]
 1173              	.LVL89:
  53:D:/fchai/work/i-cube/I-CUBE-HUAWEI/Drivers/BSP/Components/lis2mdl\lis2mdl_reg.c ****   return ret;
 1174              		.loc 1 53 9 view .LVU317
 1175 000c 01AA     		add	r2, sp, #4
 1176              	.LVL90:
  53:D:/fchai/work/i-cube/I-CUBE-HUAWEI/Drivers/BSP/Components/lis2mdl\lis2mdl_reg.c ****   return ret;
 1177              		.loc 1 53 9 view .LVU318
 1178 000e 0123     		movs	r3, #1
 1179 0010 6121     		movs	r1, #97
 1180              	.LVL91:
  53:D:/fchai/work/i-cube/I-CUBE-HUAWEI/Drivers/BSP/Components/lis2mdl\lis2mdl_reg.c ****   return ret;
 1181              		.loc 1 53 9 view .LVU319
 1182 0012 B047     		blx	r6
 1183              	.LVL92:
  54:D:/fchai/work/i-cube/I-CUBE-HUAWEI/Drivers/BSP/Components/lis2mdl\lis2mdl_reg.c **** }
 1184              		.loc 1 54 3 is_stmt 1 view .LVU320
  54:D:/fchai/work/i-cube/I-CUBE-HUAWEI/Drivers/BSP/Components/lis2mdl\lis2mdl_reg.c **** }
 1185              		.loc 1 54 3 is_stmt 0 view .LVU321
 1186              	.LBE198:
 1187              	.LBE199:
 367:D:/fchai/work/i-cube/I-CUBE-HUAWEI/Drivers/BSP/Components/lis2mdl\lis2mdl_reg.c **** 
 368:D:/fchai/work/i-cube/I-CUBE-HUAWEI/Drivers/BSP/Components/lis2mdl\lis2mdl_reg.c ****   if(ret == 0){
 1188              		.loc 1 368 3 is_stmt 1 view .LVU322
 1189              		.loc 1 368 5 is_stmt 0 view .LVU323
 1190 0014 58B9     		cbnz	r0, .L41
ARM GAS  T:\msys\tmp\cct7nJJy.s 			page 31


 369:D:/fchai/work/i-cube/I-CUBE-HUAWEI/Drivers/BSP/Components/lis2mdl\lis2mdl_reg.c ****     reg.lpf = (uint8_t)val;
 1191              		.loc 1 369 5 is_stmt 1 view .LVU324
 1192              		.loc 1 369 13 is_stmt 0 view .LVU325
 1193 0016 9DF80430 		ldrb	r3, [sp, #4]	@ zero_extendqisi2
 1194              	.LBB200:
 1195              	.LBB201:
  71:D:/fchai/work/i-cube/I-CUBE-HUAWEI/Drivers/BSP/Components/lis2mdl\lis2mdl_reg.c ****   return ret;
 1196              		.loc 1 71 9 view .LVU326
 1197 001a 2668     		ldr	r6, [r4]
 1198 001c A068     		ldr	r0, [r4, #8]
 1199              	.LVL93:
  71:D:/fchai/work/i-cube/I-CUBE-HUAWEI/Drivers/BSP/Components/lis2mdl\lis2mdl_reg.c ****   return ret;
 1200              		.loc 1 71 9 view .LVU327
 1201              	.LBE201:
 1202              	.LBE200:
 1203              		.loc 1 369 13 view .LVU328
 1204 001e 65F30003 		bfi	r3, r5, #0, #1
 1205 0022 8DF80430 		strb	r3, [sp, #4]
 370:D:/fchai/work/i-cube/I-CUBE-HUAWEI/Drivers/BSP/Components/lis2mdl\lis2mdl_reg.c ****     ret = lis2mdl_write_reg(ctx, LIS2MDL_CFG_REG_B, (uint8_t*)&reg, 1);
 1206              		.loc 1 370 5 is_stmt 1 view .LVU329
 1207              	.LVL94:
 1208              	.LBB203:
 1209              	.LBI200:
  67:D:/fchai/work/i-cube/I-CUBE-HUAWEI/Drivers/BSP/Components/lis2mdl\lis2mdl_reg.c ****                           uint16_t len)
 1210              		.loc 1 67 9 view .LVU330
 1211              	.LBB202:
  70:D:/fchai/work/i-cube/I-CUBE-HUAWEI/Drivers/BSP/Components/lis2mdl\lis2mdl_reg.c ****   ret = ctx->write_reg(ctx->handle, reg, data, len);
 1212              		.loc 1 70 3 view .LVU331
  71:D:/fchai/work/i-cube/I-CUBE-HUAWEI/Drivers/BSP/Components/lis2mdl\lis2mdl_reg.c ****   return ret;
 1213              		.loc 1 71 3 view .LVU332
  71:D:/fchai/work/i-cube/I-CUBE-HUAWEI/Drivers/BSP/Components/lis2mdl\lis2mdl_reg.c ****   return ret;
 1214              		.loc 1 71 9 is_stmt 0 view .LVU333
 1215 0026 01AA     		add	r2, sp, #4
 1216              	.LVL95:
  71:D:/fchai/work/i-cube/I-CUBE-HUAWEI/Drivers/BSP/Components/lis2mdl\lis2mdl_reg.c ****   return ret;
 1217              		.loc 1 71 9 view .LVU334
 1218 0028 0123     		movs	r3, #1
 1219 002a 6121     		movs	r1, #97
 1220 002c B047     		blx	r6
 1221              	.LVL96:
  72:D:/fchai/work/i-cube/I-CUBE-HUAWEI/Drivers/BSP/Components/lis2mdl\lis2mdl_reg.c **** }
 1222              		.loc 1 72 3 is_stmt 1 view .LVU335
  72:D:/fchai/work/i-cube/I-CUBE-HUAWEI/Drivers/BSP/Components/lis2mdl\lis2mdl_reg.c **** }
 1223              		.loc 1 72 3 is_stmt 0 view .LVU336
 1224              	.LBE202:
 1225              	.LBE203:
 371:D:/fchai/work/i-cube/I-CUBE-HUAWEI/Drivers/BSP/Components/lis2mdl\lis2mdl_reg.c ****   }
 372:D:/fchai/work/i-cube/I-CUBE-HUAWEI/Drivers/BSP/Components/lis2mdl\lis2mdl_reg.c **** 
 373:D:/fchai/work/i-cube/I-CUBE-HUAWEI/Drivers/BSP/Components/lis2mdl\lis2mdl_reg.c ****   return ret;
 1226              		.loc 1 373 3 is_stmt 1 view .LVU337
 1227              	.L41:
 374:D:/fchai/work/i-cube/I-CUBE-HUAWEI/Drivers/BSP/Components/lis2mdl\lis2mdl_reg.c **** }
 1228              		.loc 1 374 1 is_stmt 0 view .LVU338
 1229 002e 02B0     		add	sp, sp, #8
 1230              	.LCFI38:
 1231              		.cfi_def_cfa_offset 16
 1232              		@ sp needed
ARM GAS  T:\msys\tmp\cct7nJJy.s 			page 32


 1233 0030 70BD     		pop	{r4, r5, r6, pc}
 1234              		.loc 1 374 1 view .LVU339
 1235              		.cfi_endproc
 1236              	.LFE14:
 1238 0032 00BF     		.section	.text.lis2mdl_low_pass_bandwidth_get,"ax",%progbits
 1239              		.align	1
 1240              		.p2align 2,,3
 1241              		.global	lis2mdl_low_pass_bandwidth_get
 1242              		.syntax unified
 1243              		.thumb
 1244              		.thumb_func
 1245              		.fpu fpv4-sp-d16
 1247              	lis2mdl_low_pass_bandwidth_get:
 1248              	.LVL97:
 1249              	.LFB15:
 375:D:/fchai/work/i-cube/I-CUBE-HUAWEI/Drivers/BSP/Components/lis2mdl\lis2mdl_reg.c **** 
 376:D:/fchai/work/i-cube/I-CUBE-HUAWEI/Drivers/BSP/Components/lis2mdl\lis2mdl_reg.c **** /**
 377:D:/fchai/work/i-cube/I-CUBE-HUAWEI/Drivers/BSP/Components/lis2mdl\lis2mdl_reg.c ****   * @brief  Low-pass bandwidth selection.[get]
 378:D:/fchai/work/i-cube/I-CUBE-HUAWEI/Drivers/BSP/Components/lis2mdl\lis2mdl_reg.c ****   *
 379:D:/fchai/work/i-cube/I-CUBE-HUAWEI/Drivers/BSP/Components/lis2mdl\lis2mdl_reg.c ****   * @param  ctx   read / write interface definitions.(ptr)
 380:D:/fchai/work/i-cube/I-CUBE-HUAWEI/Drivers/BSP/Components/lis2mdl\lis2mdl_reg.c ****   * @param  val   Get the values of lpf in reg CFG_REG_B.(ptr)
 381:D:/fchai/work/i-cube/I-CUBE-HUAWEI/Drivers/BSP/Components/lis2mdl\lis2mdl_reg.c ****   * @retval       interface status.(MANDATORY: return 0 -> no Error)
 382:D:/fchai/work/i-cube/I-CUBE-HUAWEI/Drivers/BSP/Components/lis2mdl\lis2mdl_reg.c ****   *
 383:D:/fchai/work/i-cube/I-CUBE-HUAWEI/Drivers/BSP/Components/lis2mdl\lis2mdl_reg.c ****   */
 384:D:/fchai/work/i-cube/I-CUBE-HUAWEI/Drivers/BSP/Components/lis2mdl\lis2mdl_reg.c **** int32_t lis2mdl_low_pass_bandwidth_get(stmdev_ctx_t *ctx,
 385:D:/fchai/work/i-cube/I-CUBE-HUAWEI/Drivers/BSP/Components/lis2mdl\lis2mdl_reg.c ****                                        lis2mdl_lpf_t *val)
 386:D:/fchai/work/i-cube/I-CUBE-HUAWEI/Drivers/BSP/Components/lis2mdl\lis2mdl_reg.c **** {
 1250              		.loc 1 386 1 is_stmt 1 view -0
 1251              		.cfi_startproc
 1252              		@ args = 0, pretend = 0, frame = 8
 1253              		@ frame_needed = 0, uses_anonymous_args = 0
 387:D:/fchai/work/i-cube/I-CUBE-HUAWEI/Drivers/BSP/Components/lis2mdl\lis2mdl_reg.c ****   lis2mdl_cfg_reg_b_t reg;
 1254              		.loc 1 387 3 view .LVU341
 388:D:/fchai/work/i-cube/I-CUBE-HUAWEI/Drivers/BSP/Components/lis2mdl\lis2mdl_reg.c ****   int32_t ret;
 1255              		.loc 1 388 3 view .LVU342
 389:D:/fchai/work/i-cube/I-CUBE-HUAWEI/Drivers/BSP/Components/lis2mdl\lis2mdl_reg.c **** 
 390:D:/fchai/work/i-cube/I-CUBE-HUAWEI/Drivers/BSP/Components/lis2mdl\lis2mdl_reg.c ****   ret = lis2mdl_read_reg(ctx, LIS2MDL_CFG_REG_B, (uint8_t*)&reg, 1);
 1256              		.loc 1 390 3 view .LVU343
 386:D:/fchai/work/i-cube/I-CUBE-HUAWEI/Drivers/BSP/Components/lis2mdl\lis2mdl_reg.c ****   lis2mdl_cfg_reg_b_t reg;
 1257              		.loc 1 386 1 is_stmt 0 view .LVU344
 1258 0000 30B5     		push	{r4, r5, lr}
 1259              	.LCFI39:
 1260              		.cfi_def_cfa_offset 12
 1261              		.cfi_offset 4, -12
 1262              		.cfi_offset 5, -8
 1263              		.cfi_offset 14, -4
 1264 0002 83B0     		sub	sp, sp, #12
 1265              	.LCFI40:
 1266              		.cfi_def_cfa_offset 24
 1267              	.LVL98:
 1268              	.LBB204:
 1269              	.LBI204:
  49:D:/fchai/work/i-cube/I-CUBE-HUAWEI/Drivers/BSP/Components/lis2mdl\lis2mdl_reg.c ****                          uint16_t len)
 1270              		.loc 1 49 9 is_stmt 1 view .LVU345
 1271              	.LBB205:
  52:D:/fchai/work/i-cube/I-CUBE-HUAWEI/Drivers/BSP/Components/lis2mdl\lis2mdl_reg.c ****   ret = ctx->read_reg(ctx->handle, reg, data, len);
 1272              		.loc 1 52 3 view .LVU346
ARM GAS  T:\msys\tmp\cct7nJJy.s 			page 33


  53:D:/fchai/work/i-cube/I-CUBE-HUAWEI/Drivers/BSP/Components/lis2mdl\lis2mdl_reg.c ****   return ret;
 1273              		.loc 1 53 3 view .LVU347
 1274              	.LBE205:
 1275              	.LBE204:
 386:D:/fchai/work/i-cube/I-CUBE-HUAWEI/Drivers/BSP/Components/lis2mdl\lis2mdl_reg.c ****   lis2mdl_cfg_reg_b_t reg;
 1276              		.loc 1 386 1 is_stmt 0 view .LVU348
 1277 0004 0C46     		mov	r4, r1
 1278              	.LBB208:
 1279              	.LBB206:
  53:D:/fchai/work/i-cube/I-CUBE-HUAWEI/Drivers/BSP/Components/lis2mdl\lis2mdl_reg.c ****   return ret;
 1280              		.loc 1 53 9 view .LVU349
 1281 0006 01AA     		add	r2, sp, #4
 1282              	.LVL99:
  53:D:/fchai/work/i-cube/I-CUBE-HUAWEI/Drivers/BSP/Components/lis2mdl\lis2mdl_reg.c ****   return ret;
 1283              		.loc 1 53 9 view .LVU350
 1284 0008 D0E90150 		ldrd	r5, r0, [r0, #4]
 1285              	.LVL100:
  53:D:/fchai/work/i-cube/I-CUBE-HUAWEI/Drivers/BSP/Components/lis2mdl\lis2mdl_reg.c ****   return ret;
 1286              		.loc 1 53 9 view .LVU351
 1287 000c 0123     		movs	r3, #1
 1288 000e 6121     		movs	r1, #97
 1289              	.LVL101:
  53:D:/fchai/work/i-cube/I-CUBE-HUAWEI/Drivers/BSP/Components/lis2mdl\lis2mdl_reg.c ****   return ret;
 1290              		.loc 1 53 9 view .LVU352
 1291 0010 A847     		blx	r5
 1292              	.LVL102:
  53:D:/fchai/work/i-cube/I-CUBE-HUAWEI/Drivers/BSP/Components/lis2mdl\lis2mdl_reg.c ****   return ret;
 1293              		.loc 1 53 9 view .LVU353
 1294              	.LBE206:
 1295              	.LBE208:
 391:D:/fchai/work/i-cube/I-CUBE-HUAWEI/Drivers/BSP/Components/lis2mdl\lis2mdl_reg.c ****   switch (reg.lpf){
 1296              		.loc 1 391 14 view .LVU354
 1297 0012 9DF80430 		ldrb	r3, [sp, #4]	@ zero_extendqisi2
 1298              	.LVL103:
 1299              	.LBB209:
 1300              	.LBB207:
  54:D:/fchai/work/i-cube/I-CUBE-HUAWEI/Drivers/BSP/Components/lis2mdl\lis2mdl_reg.c **** }
 1301              		.loc 1 54 3 is_stmt 1 view .LVU355
  54:D:/fchai/work/i-cube/I-CUBE-HUAWEI/Drivers/BSP/Components/lis2mdl\lis2mdl_reg.c **** }
 1302              		.loc 1 54 3 is_stmt 0 view .LVU356
 1303              	.LBE207:
 1304              	.LBE209:
 1305              		.loc 1 391 3 is_stmt 1 view .LVU357
 1306              		.loc 1 391 14 is_stmt 0 view .LVU358
 1307 0016 C3F30002 		ubfx	r2, r3, #0, #1
 1308              		.loc 1 391 3 view .LVU359
 1309 001a DB07     		lsls	r3, r3, #31
 392:D:/fchai/work/i-cube/I-CUBE-HUAWEI/Drivers/BSP/Components/lis2mdl\lis2mdl_reg.c ****     case LIS2MDL_ODR_DIV_2:
 393:D:/fchai/work/i-cube/I-CUBE-HUAWEI/Drivers/BSP/Components/lis2mdl\lis2mdl_reg.c ****       *val = LIS2MDL_ODR_DIV_2;
 1310              		.loc 1 393 7 is_stmt 1 view .LVU360
 1311              		.loc 1 393 12 is_stmt 0 view .LVU361
 1312 001c 5ABF     		itte	pl
 1313 001e 0023     		movpl	r3, #0
 1314 0020 2370     		strbpl	r3, [r4]
 394:D:/fchai/work/i-cube/I-CUBE-HUAWEI/Drivers/BSP/Components/lis2mdl\lis2mdl_reg.c ****       break;
 1315              		.loc 1 394 7 is_stmt 1 view .LVU362
 395:D:/fchai/work/i-cube/I-CUBE-HUAWEI/Drivers/BSP/Components/lis2mdl\lis2mdl_reg.c ****     case LIS2MDL_ODR_DIV_4:
ARM GAS  T:\msys\tmp\cct7nJJy.s 			page 34


 396:D:/fchai/work/i-cube/I-CUBE-HUAWEI/Drivers/BSP/Components/lis2mdl\lis2mdl_reg.c ****       *val = LIS2MDL_ODR_DIV_4;
 1316              		.loc 1 396 7 view .LVU363
 1317              		.loc 1 396 12 is_stmt 0 view .LVU364
 1318 0022 2270     		strbmi	r2, [r4]
 397:D:/fchai/work/i-cube/I-CUBE-HUAWEI/Drivers/BSP/Components/lis2mdl\lis2mdl_reg.c ****       break;
 1319              		.loc 1 397 7 is_stmt 1 view .LVU365
 398:D:/fchai/work/i-cube/I-CUBE-HUAWEI/Drivers/BSP/Components/lis2mdl\lis2mdl_reg.c ****     default:
 399:D:/fchai/work/i-cube/I-CUBE-HUAWEI/Drivers/BSP/Components/lis2mdl\lis2mdl_reg.c ****       *val = LIS2MDL_ODR_DIV_2;
 400:D:/fchai/work/i-cube/I-CUBE-HUAWEI/Drivers/BSP/Components/lis2mdl\lis2mdl_reg.c ****       break;
 401:D:/fchai/work/i-cube/I-CUBE-HUAWEI/Drivers/BSP/Components/lis2mdl\lis2mdl_reg.c ****   }
 402:D:/fchai/work/i-cube/I-CUBE-HUAWEI/Drivers/BSP/Components/lis2mdl\lis2mdl_reg.c ****   return ret;
 1320              		.loc 1 402 3 view .LVU366
 403:D:/fchai/work/i-cube/I-CUBE-HUAWEI/Drivers/BSP/Components/lis2mdl\lis2mdl_reg.c **** }
 1321              		.loc 1 403 1 is_stmt 0 view .LVU367
 1322 0024 03B0     		add	sp, sp, #12
 1323              	.LCFI41:
 1324              		.cfi_def_cfa_offset 12
 1325              		@ sp needed
 1326 0026 30BD     		pop	{r4, r5, pc}
 1327              		.loc 1 403 1 view .LVU368
 1328              		.cfi_endproc
 1329              	.LFE15:
 1331              		.section	.text.lis2mdl_set_rst_mode_set,"ax",%progbits
 1332              		.align	1
 1333              		.p2align 2,,3
 1334              		.global	lis2mdl_set_rst_mode_set
 1335              		.syntax unified
 1336              		.thumb
 1337              		.thumb_func
 1338              		.fpu fpv4-sp-d16
 1340              	lis2mdl_set_rst_mode_set:
 1341              	.LVL104:
 1342              	.LFB16:
 404:D:/fchai/work/i-cube/I-CUBE-HUAWEI/Drivers/BSP/Components/lis2mdl\lis2mdl_reg.c **** 
 405:D:/fchai/work/i-cube/I-CUBE-HUAWEI/Drivers/BSP/Components/lis2mdl\lis2mdl_reg.c **** /**
 406:D:/fchai/work/i-cube/I-CUBE-HUAWEI/Drivers/BSP/Components/lis2mdl\lis2mdl_reg.c ****   * @brief  Reset mode.[set]
 407:D:/fchai/work/i-cube/I-CUBE-HUAWEI/Drivers/BSP/Components/lis2mdl\lis2mdl_reg.c ****   *
 408:D:/fchai/work/i-cube/I-CUBE-HUAWEI/Drivers/BSP/Components/lis2mdl\lis2mdl_reg.c ****   * @param  ctx   read / write interface definitions.(ptr)
 409:D:/fchai/work/i-cube/I-CUBE-HUAWEI/Drivers/BSP/Components/lis2mdl\lis2mdl_reg.c ****   * @param  val   change the values of set_rst in reg CFG_REG_B
 410:D:/fchai/work/i-cube/I-CUBE-HUAWEI/Drivers/BSP/Components/lis2mdl\lis2mdl_reg.c ****   * @retval       interface status.(MANDATORY: return 0 -> no Error)
 411:D:/fchai/work/i-cube/I-CUBE-HUAWEI/Drivers/BSP/Components/lis2mdl\lis2mdl_reg.c ****   *
 412:D:/fchai/work/i-cube/I-CUBE-HUAWEI/Drivers/BSP/Components/lis2mdl\lis2mdl_reg.c ****   */
 413:D:/fchai/work/i-cube/I-CUBE-HUAWEI/Drivers/BSP/Components/lis2mdl\lis2mdl_reg.c **** int32_t lis2mdl_set_rst_mode_set(stmdev_ctx_t *ctx, lis2mdl_set_rst_t val)
 414:D:/fchai/work/i-cube/I-CUBE-HUAWEI/Drivers/BSP/Components/lis2mdl\lis2mdl_reg.c **** {
 1343              		.loc 1 414 1 is_stmt 1 view -0
 1344              		.cfi_startproc
 1345              		@ args = 0, pretend = 0, frame = 8
 1346              		@ frame_needed = 0, uses_anonymous_args = 0
 415:D:/fchai/work/i-cube/I-CUBE-HUAWEI/Drivers/BSP/Components/lis2mdl\lis2mdl_reg.c ****   lis2mdl_cfg_reg_b_t reg;
 1347              		.loc 1 415 3 view .LVU370
 416:D:/fchai/work/i-cube/I-CUBE-HUAWEI/Drivers/BSP/Components/lis2mdl\lis2mdl_reg.c ****   int32_t ret;
 1348              		.loc 1 416 3 view .LVU371
 417:D:/fchai/work/i-cube/I-CUBE-HUAWEI/Drivers/BSP/Components/lis2mdl\lis2mdl_reg.c **** 
 418:D:/fchai/work/i-cube/I-CUBE-HUAWEI/Drivers/BSP/Components/lis2mdl\lis2mdl_reg.c ****   ret = lis2mdl_read_reg(ctx, LIS2MDL_CFG_REG_B, (uint8_t*)&reg, 1);
 1349              		.loc 1 418 3 view .LVU372
 414:D:/fchai/work/i-cube/I-CUBE-HUAWEI/Drivers/BSP/Components/lis2mdl\lis2mdl_reg.c ****   lis2mdl_cfg_reg_b_t reg;
 1350              		.loc 1 414 1 is_stmt 0 view .LVU373
ARM GAS  T:\msys\tmp\cct7nJJy.s 			page 35


 1351 0000 70B5     		push	{r4, r5, r6, lr}
 1352              	.LCFI42:
 1353              		.cfi_def_cfa_offset 16
 1354              		.cfi_offset 4, -16
 1355              		.cfi_offset 5, -12
 1356              		.cfi_offset 6, -8
 1357              		.cfi_offset 14, -4
 1358 0002 82B0     		sub	sp, sp, #8
 1359              	.LCFI43:
 1360              		.cfi_def_cfa_offset 24
 414:D:/fchai/work/i-cube/I-CUBE-HUAWEI/Drivers/BSP/Components/lis2mdl\lis2mdl_reg.c ****   lis2mdl_cfg_reg_b_t reg;
 1361              		.loc 1 414 1 view .LVU374
 1362 0004 0446     		mov	r4, r0
 1363              	.LVL105:
 1364              	.LBB210:
 1365              	.LBI210:
  49:D:/fchai/work/i-cube/I-CUBE-HUAWEI/Drivers/BSP/Components/lis2mdl\lis2mdl_reg.c ****                          uint16_t len)
 1366              		.loc 1 49 9 is_stmt 1 view .LVU375
 1367              	.LBB211:
  52:D:/fchai/work/i-cube/I-CUBE-HUAWEI/Drivers/BSP/Components/lis2mdl\lis2mdl_reg.c ****   ret = ctx->read_reg(ctx->handle, reg, data, len);
 1368              		.loc 1 52 3 view .LVU376
  53:D:/fchai/work/i-cube/I-CUBE-HUAWEI/Drivers/BSP/Components/lis2mdl\lis2mdl_reg.c ****   return ret;
 1369              		.loc 1 53 3 view .LVU377
 1370              	.LBE211:
 1371              	.LBE210:
 414:D:/fchai/work/i-cube/I-CUBE-HUAWEI/Drivers/BSP/Components/lis2mdl\lis2mdl_reg.c ****   lis2mdl_cfg_reg_b_t reg;
 1372              		.loc 1 414 1 is_stmt 0 view .LVU378
 1373 0006 0D46     		mov	r5, r1
 1374              	.LBB213:
 1375              	.LBB212:
  53:D:/fchai/work/i-cube/I-CUBE-HUAWEI/Drivers/BSP/Components/lis2mdl\lis2mdl_reg.c ****   return ret;
 1376              		.loc 1 53 9 view .LVU379
 1377 0008 D0E90160 		ldrd	r6, r0, [r0, #4]
 1378              	.LVL106:
  53:D:/fchai/work/i-cube/I-CUBE-HUAWEI/Drivers/BSP/Components/lis2mdl\lis2mdl_reg.c ****   return ret;
 1379              		.loc 1 53 9 view .LVU380
 1380 000c 01AA     		add	r2, sp, #4
 1381              	.LVL107:
  53:D:/fchai/work/i-cube/I-CUBE-HUAWEI/Drivers/BSP/Components/lis2mdl\lis2mdl_reg.c ****   return ret;
 1382              		.loc 1 53 9 view .LVU381
 1383 000e 0123     		movs	r3, #1
 1384 0010 6121     		movs	r1, #97
 1385              	.LVL108:
  53:D:/fchai/work/i-cube/I-CUBE-HUAWEI/Drivers/BSP/Components/lis2mdl\lis2mdl_reg.c ****   return ret;
 1386              		.loc 1 53 9 view .LVU382
 1387 0012 B047     		blx	r6
 1388              	.LVL109:
  54:D:/fchai/work/i-cube/I-CUBE-HUAWEI/Drivers/BSP/Components/lis2mdl\lis2mdl_reg.c **** }
 1389              		.loc 1 54 3 is_stmt 1 view .LVU383
  54:D:/fchai/work/i-cube/I-CUBE-HUAWEI/Drivers/BSP/Components/lis2mdl\lis2mdl_reg.c **** }
 1390              		.loc 1 54 3 is_stmt 0 view .LVU384
 1391              	.LBE212:
 1392              	.LBE213:
 419:D:/fchai/work/i-cube/I-CUBE-HUAWEI/Drivers/BSP/Components/lis2mdl\lis2mdl_reg.c **** 
 420:D:/fchai/work/i-cube/I-CUBE-HUAWEI/Drivers/BSP/Components/lis2mdl\lis2mdl_reg.c ****   if(ret == 0){
 1393              		.loc 1 420 3 is_stmt 1 view .LVU385
 1394              		.loc 1 420 5 is_stmt 0 view .LVU386
ARM GAS  T:\msys\tmp\cct7nJJy.s 			page 36


 1395 0014 58B9     		cbnz	r0, .L48
 421:D:/fchai/work/i-cube/I-CUBE-HUAWEI/Drivers/BSP/Components/lis2mdl\lis2mdl_reg.c ****     reg.set_rst = (uint8_t)val;
 1396              		.loc 1 421 5 is_stmt 1 view .LVU387
 1397              		.loc 1 421 17 is_stmt 0 view .LVU388
 1398 0016 9DF80430 		ldrb	r3, [sp, #4]	@ zero_extendqisi2
 1399              	.LBB214:
 1400              	.LBB215:
  71:D:/fchai/work/i-cube/I-CUBE-HUAWEI/Drivers/BSP/Components/lis2mdl\lis2mdl_reg.c ****   return ret;
 1401              		.loc 1 71 9 view .LVU389
 1402 001a 2668     		ldr	r6, [r4]
 1403 001c A068     		ldr	r0, [r4, #8]
 1404              	.LVL110:
  71:D:/fchai/work/i-cube/I-CUBE-HUAWEI/Drivers/BSP/Components/lis2mdl\lis2mdl_reg.c ****   return ret;
 1405              		.loc 1 71 9 view .LVU390
 1406              	.LBE215:
 1407              	.LBE214:
 1408              		.loc 1 421 17 view .LVU391
 1409 001e 65F34203 		bfi	r3, r5, #1, #2
 1410 0022 8DF80430 		strb	r3, [sp, #4]
 422:D:/fchai/work/i-cube/I-CUBE-HUAWEI/Drivers/BSP/Components/lis2mdl\lis2mdl_reg.c ****     ret = lis2mdl_write_reg(ctx, LIS2MDL_CFG_REG_B, (uint8_t*)&reg, 1);
 1411              		.loc 1 422 5 is_stmt 1 view .LVU392
 1412              	.LVL111:
 1413              	.LBB217:
 1414              	.LBI214:
  67:D:/fchai/work/i-cube/I-CUBE-HUAWEI/Drivers/BSP/Components/lis2mdl\lis2mdl_reg.c ****                           uint16_t len)
 1415              		.loc 1 67 9 view .LVU393
 1416              	.LBB216:
  70:D:/fchai/work/i-cube/I-CUBE-HUAWEI/Drivers/BSP/Components/lis2mdl\lis2mdl_reg.c ****   ret = ctx->write_reg(ctx->handle, reg, data, len);
 1417              		.loc 1 70 3 view .LVU394
  71:D:/fchai/work/i-cube/I-CUBE-HUAWEI/Drivers/BSP/Components/lis2mdl\lis2mdl_reg.c ****   return ret;
 1418              		.loc 1 71 3 view .LVU395
  71:D:/fchai/work/i-cube/I-CUBE-HUAWEI/Drivers/BSP/Components/lis2mdl\lis2mdl_reg.c ****   return ret;
 1419              		.loc 1 71 9 is_stmt 0 view .LVU396
 1420 0026 01AA     		add	r2, sp, #4
 1421              	.LVL112:
  71:D:/fchai/work/i-cube/I-CUBE-HUAWEI/Drivers/BSP/Components/lis2mdl\lis2mdl_reg.c ****   return ret;
 1422              		.loc 1 71 9 view .LVU397
 1423 0028 0123     		movs	r3, #1
 1424 002a 6121     		movs	r1, #97
 1425 002c B047     		blx	r6
 1426              	.LVL113:
  72:D:/fchai/work/i-cube/I-CUBE-HUAWEI/Drivers/BSP/Components/lis2mdl\lis2mdl_reg.c **** }
 1427              		.loc 1 72 3 is_stmt 1 view .LVU398
  72:D:/fchai/work/i-cube/I-CUBE-HUAWEI/Drivers/BSP/Components/lis2mdl\lis2mdl_reg.c **** }
 1428              		.loc 1 72 3 is_stmt 0 view .LVU399
 1429              	.LBE216:
 1430              	.LBE217:
 423:D:/fchai/work/i-cube/I-CUBE-HUAWEI/Drivers/BSP/Components/lis2mdl\lis2mdl_reg.c ****   }
 424:D:/fchai/work/i-cube/I-CUBE-HUAWEI/Drivers/BSP/Components/lis2mdl\lis2mdl_reg.c **** 
 425:D:/fchai/work/i-cube/I-CUBE-HUAWEI/Drivers/BSP/Components/lis2mdl\lis2mdl_reg.c ****   return ret;
 1431              		.loc 1 425 3 is_stmt 1 view .LVU400
 1432              	.L48:
 426:D:/fchai/work/i-cube/I-CUBE-HUAWEI/Drivers/BSP/Components/lis2mdl\lis2mdl_reg.c **** }
 1433              		.loc 1 426 1 is_stmt 0 view .LVU401
 1434 002e 02B0     		add	sp, sp, #8
 1435              	.LCFI44:
 1436              		.cfi_def_cfa_offset 16
ARM GAS  T:\msys\tmp\cct7nJJy.s 			page 37


 1437              		@ sp needed
 1438 0030 70BD     		pop	{r4, r5, r6, pc}
 1439              		.loc 1 426 1 view .LVU402
 1440              		.cfi_endproc
 1441              	.LFE16:
 1443 0032 00BF     		.section	.text.lis2mdl_set_rst_mode_get,"ax",%progbits
 1444              		.align	1
 1445              		.p2align 2,,3
 1446              		.global	lis2mdl_set_rst_mode_get
 1447              		.syntax unified
 1448              		.thumb
 1449              		.thumb_func
 1450              		.fpu fpv4-sp-d16
 1452              	lis2mdl_set_rst_mode_get:
 1453              	.LVL114:
 1454              	.LFB17:
 427:D:/fchai/work/i-cube/I-CUBE-HUAWEI/Drivers/BSP/Components/lis2mdl\lis2mdl_reg.c **** 
 428:D:/fchai/work/i-cube/I-CUBE-HUAWEI/Drivers/BSP/Components/lis2mdl\lis2mdl_reg.c **** /**
 429:D:/fchai/work/i-cube/I-CUBE-HUAWEI/Drivers/BSP/Components/lis2mdl\lis2mdl_reg.c ****   * @brief  Reset mode.[get]
 430:D:/fchai/work/i-cube/I-CUBE-HUAWEI/Drivers/BSP/Components/lis2mdl\lis2mdl_reg.c ****   *
 431:D:/fchai/work/i-cube/I-CUBE-HUAWEI/Drivers/BSP/Components/lis2mdl\lis2mdl_reg.c ****   * @param  ctx   read / write interface definitions.(ptr)
 432:D:/fchai/work/i-cube/I-CUBE-HUAWEI/Drivers/BSP/Components/lis2mdl\lis2mdl_reg.c ****   * @param  val   Get the values of set_rst in reg CFG_REG_B.(ptr)
 433:D:/fchai/work/i-cube/I-CUBE-HUAWEI/Drivers/BSP/Components/lis2mdl\lis2mdl_reg.c ****   * @retval       interface status.(MANDATORY: return 0 -> no Error)
 434:D:/fchai/work/i-cube/I-CUBE-HUAWEI/Drivers/BSP/Components/lis2mdl\lis2mdl_reg.c ****   *
 435:D:/fchai/work/i-cube/I-CUBE-HUAWEI/Drivers/BSP/Components/lis2mdl\lis2mdl_reg.c ****   */
 436:D:/fchai/work/i-cube/I-CUBE-HUAWEI/Drivers/BSP/Components/lis2mdl\lis2mdl_reg.c **** int32_t lis2mdl_set_rst_mode_get(stmdev_ctx_t *ctx, lis2mdl_set_rst_t *val)
 437:D:/fchai/work/i-cube/I-CUBE-HUAWEI/Drivers/BSP/Components/lis2mdl\lis2mdl_reg.c **** {
 1455              		.loc 1 437 1 is_stmt 1 view -0
 1456              		.cfi_startproc
 1457              		@ args = 0, pretend = 0, frame = 8
 1458              		@ frame_needed = 0, uses_anonymous_args = 0
 438:D:/fchai/work/i-cube/I-CUBE-HUAWEI/Drivers/BSP/Components/lis2mdl\lis2mdl_reg.c ****   lis2mdl_cfg_reg_b_t reg;
 1459              		.loc 1 438 3 view .LVU404
 439:D:/fchai/work/i-cube/I-CUBE-HUAWEI/Drivers/BSP/Components/lis2mdl\lis2mdl_reg.c ****   int32_t ret;
 1460              		.loc 1 439 3 view .LVU405
 440:D:/fchai/work/i-cube/I-CUBE-HUAWEI/Drivers/BSP/Components/lis2mdl\lis2mdl_reg.c **** 
 441:D:/fchai/work/i-cube/I-CUBE-HUAWEI/Drivers/BSP/Components/lis2mdl\lis2mdl_reg.c ****   ret = lis2mdl_read_reg(ctx, LIS2MDL_CFG_REG_B, (uint8_t*)&reg, 1);
 1461              		.loc 1 441 3 view .LVU406
 437:D:/fchai/work/i-cube/I-CUBE-HUAWEI/Drivers/BSP/Components/lis2mdl\lis2mdl_reg.c ****   lis2mdl_cfg_reg_b_t reg;
 1462              		.loc 1 437 1 is_stmt 0 view .LVU407
 1463 0000 30B5     		push	{r4, r5, lr}
 1464              	.LCFI45:
 1465              		.cfi_def_cfa_offset 12
 1466              		.cfi_offset 4, -12
 1467              		.cfi_offset 5, -8
 1468              		.cfi_offset 14, -4
 1469 0002 83B0     		sub	sp, sp, #12
 1470              	.LCFI46:
 1471              		.cfi_def_cfa_offset 24
 1472              	.LVL115:
 1473              	.LBB218:
 1474              	.LBI218:
  49:D:/fchai/work/i-cube/I-CUBE-HUAWEI/Drivers/BSP/Components/lis2mdl\lis2mdl_reg.c ****                          uint16_t len)
 1475              		.loc 1 49 9 is_stmt 1 view .LVU408
 1476              	.LBB219:
  52:D:/fchai/work/i-cube/I-CUBE-HUAWEI/Drivers/BSP/Components/lis2mdl\lis2mdl_reg.c ****   ret = ctx->read_reg(ctx->handle, reg, data, len);
 1477              		.loc 1 52 3 view .LVU409
ARM GAS  T:\msys\tmp\cct7nJJy.s 			page 38


  53:D:/fchai/work/i-cube/I-CUBE-HUAWEI/Drivers/BSP/Components/lis2mdl\lis2mdl_reg.c ****   return ret;
 1478              		.loc 1 53 3 view .LVU410
  53:D:/fchai/work/i-cube/I-CUBE-HUAWEI/Drivers/BSP/Components/lis2mdl\lis2mdl_reg.c ****   return ret;
 1479              		.loc 1 53 9 is_stmt 0 view .LVU411
 1480 0004 0123     		movs	r3, #1
 1481 0006 01AA     		add	r2, sp, #4
 1482              	.LVL116:
  53:D:/fchai/work/i-cube/I-CUBE-HUAWEI/Drivers/BSP/Components/lis2mdl\lis2mdl_reg.c ****   return ret;
 1483              		.loc 1 53 9 view .LVU412
 1484 0008 D0E90150 		ldrd	r5, r0, [r0, #4]
 1485              	.LVL117:
  53:D:/fchai/work/i-cube/I-CUBE-HUAWEI/Drivers/BSP/Components/lis2mdl\lis2mdl_reg.c ****   return ret;
 1486              		.loc 1 53 9 view .LVU413
 1487              	.LBE219:
 1488              	.LBE218:
 437:D:/fchai/work/i-cube/I-CUBE-HUAWEI/Drivers/BSP/Components/lis2mdl\lis2mdl_reg.c ****   lis2mdl_cfg_reg_b_t reg;
 1489              		.loc 1 437 1 view .LVU414
 1490 000c 0C46     		mov	r4, r1
 1491              	.LBB222:
 1492              	.LBB220:
  53:D:/fchai/work/i-cube/I-CUBE-HUAWEI/Drivers/BSP/Components/lis2mdl\lis2mdl_reg.c ****   return ret;
 1493              		.loc 1 53 9 view .LVU415
 1494 000e 6121     		movs	r1, #97
 1495              	.LVL118:
  53:D:/fchai/work/i-cube/I-CUBE-HUAWEI/Drivers/BSP/Components/lis2mdl\lis2mdl_reg.c ****   return ret;
 1496              		.loc 1 53 9 view .LVU416
 1497 0010 A847     		blx	r5
 1498              	.LVL119:
  53:D:/fchai/work/i-cube/I-CUBE-HUAWEI/Drivers/BSP/Components/lis2mdl\lis2mdl_reg.c ****   return ret;
 1499              		.loc 1 53 9 view .LVU417
 1500              	.LBE220:
 1501              	.LBE222:
 442:D:/fchai/work/i-cube/I-CUBE-HUAWEI/Drivers/BSP/Components/lis2mdl\lis2mdl_reg.c ****   switch (reg.set_rst){
 1502              		.loc 1 442 14 view .LVU418
 1503 0012 9DF80430 		ldrb	r3, [sp, #4]	@ zero_extendqisi2
 1504 0016 C3F34102 		ubfx	r2, r3, #1, #2
 1505              	.LVL120:
 1506              	.LBB223:
 1507              	.LBB221:
  54:D:/fchai/work/i-cube/I-CUBE-HUAWEI/Drivers/BSP/Components/lis2mdl\lis2mdl_reg.c **** }
 1508              		.loc 1 54 3 is_stmt 1 view .LVU419
  54:D:/fchai/work/i-cube/I-CUBE-HUAWEI/Drivers/BSP/Components/lis2mdl\lis2mdl_reg.c **** }
 1509              		.loc 1 54 3 is_stmt 0 view .LVU420
 1510              	.LBE221:
 1511              	.LBE223:
 1512              		.loc 1 442 3 is_stmt 1 view .LVU421
 1513 001a 012A     		cmp	r2, #1
 1514              		.loc 1 442 14 is_stmt 0 view .LVU422
 1515 001c 1346     		mov	r3, r2
 1516              		.loc 1 442 3 view .LVU423
 1517 001e 05D0     		beq	.L53
 1518 0020 022A     		cmp	r2, #2
 1519 0022 03D0     		beq	.L53
 443:D:/fchai/work/i-cube/I-CUBE-HUAWEI/Drivers/BSP/Components/lis2mdl\lis2mdl_reg.c ****     case LIS2MDL_SET_SENS_ODR_DIV_63:
 444:D:/fchai/work/i-cube/I-CUBE-HUAWEI/Drivers/BSP/Components/lis2mdl\lis2mdl_reg.c ****       *val = LIS2MDL_SET_SENS_ODR_DIV_63;
 1520              		.loc 1 444 7 is_stmt 1 view .LVU424
 1521              		.loc 1 444 12 is_stmt 0 view .LVU425
ARM GAS  T:\msys\tmp\cct7nJJy.s 			page 39


 1522 0024 0023     		movs	r3, #0
 1523 0026 2370     		strb	r3, [r4]
 445:D:/fchai/work/i-cube/I-CUBE-HUAWEI/Drivers/BSP/Components/lis2mdl\lis2mdl_reg.c ****       break;
 1524              		.loc 1 445 7 is_stmt 1 view .LVU426
 446:D:/fchai/work/i-cube/I-CUBE-HUAWEI/Drivers/BSP/Components/lis2mdl\lis2mdl_reg.c ****     case LIS2MDL_SENS_OFF_CANC_EVERY_ODR:
 447:D:/fchai/work/i-cube/I-CUBE-HUAWEI/Drivers/BSP/Components/lis2mdl\lis2mdl_reg.c ****       *val = LIS2MDL_SENS_OFF_CANC_EVERY_ODR;
 448:D:/fchai/work/i-cube/I-CUBE-HUAWEI/Drivers/BSP/Components/lis2mdl\lis2mdl_reg.c ****       break;
 449:D:/fchai/work/i-cube/I-CUBE-HUAWEI/Drivers/BSP/Components/lis2mdl\lis2mdl_reg.c ****     case LIS2MDL_SET_SENS_ONLY_AT_POWER_ON:
 450:D:/fchai/work/i-cube/I-CUBE-HUAWEI/Drivers/BSP/Components/lis2mdl\lis2mdl_reg.c ****       *val = LIS2MDL_SET_SENS_ONLY_AT_POWER_ON;
 451:D:/fchai/work/i-cube/I-CUBE-HUAWEI/Drivers/BSP/Components/lis2mdl\lis2mdl_reg.c ****       break;
 452:D:/fchai/work/i-cube/I-CUBE-HUAWEI/Drivers/BSP/Components/lis2mdl\lis2mdl_reg.c ****     default:
 453:D:/fchai/work/i-cube/I-CUBE-HUAWEI/Drivers/BSP/Components/lis2mdl\lis2mdl_reg.c ****       *val = LIS2MDL_SET_SENS_ODR_DIV_63;
 454:D:/fchai/work/i-cube/I-CUBE-HUAWEI/Drivers/BSP/Components/lis2mdl\lis2mdl_reg.c ****       break;
 455:D:/fchai/work/i-cube/I-CUBE-HUAWEI/Drivers/BSP/Components/lis2mdl\lis2mdl_reg.c ****   }
 456:D:/fchai/work/i-cube/I-CUBE-HUAWEI/Drivers/BSP/Components/lis2mdl\lis2mdl_reg.c ****   return ret;
 457:D:/fchai/work/i-cube/I-CUBE-HUAWEI/Drivers/BSP/Components/lis2mdl\lis2mdl_reg.c **** }
 1525              		.loc 1 457 1 is_stmt 0 view .LVU427
 1526 0028 03B0     		add	sp, sp, #12
 1527              	.LCFI47:
 1528              		.cfi_remember_state
 1529              		.cfi_def_cfa_offset 12
 1530              		@ sp needed
 1531 002a 30BD     		pop	{r4, r5, pc}
 1532              	.LVL121:
 1533              	.L53:
 1534              	.LCFI48:
 1535              		.cfi_restore_state
 450:D:/fchai/work/i-cube/I-CUBE-HUAWEI/Drivers/BSP/Components/lis2mdl\lis2mdl_reg.c ****       break;
 1536              		.loc 1 450 7 is_stmt 1 view .LVU428
 450:D:/fchai/work/i-cube/I-CUBE-HUAWEI/Drivers/BSP/Components/lis2mdl\lis2mdl_reg.c ****       break;
 1537              		.loc 1 450 12 is_stmt 0 view .LVU429
 1538 002c 2370     		strb	r3, [r4]
 451:D:/fchai/work/i-cube/I-CUBE-HUAWEI/Drivers/BSP/Components/lis2mdl\lis2mdl_reg.c ****     default:
 1539              		.loc 1 451 7 is_stmt 1 view .LVU430
 456:D:/fchai/work/i-cube/I-CUBE-HUAWEI/Drivers/BSP/Components/lis2mdl\lis2mdl_reg.c **** }
 1540              		.loc 1 456 3 view .LVU431
 1541              		.loc 1 457 1 is_stmt 0 view .LVU432
 1542 002e 03B0     		add	sp, sp, #12
 1543              	.LCFI49:
 1544              		.cfi_def_cfa_offset 12
 1545              		@ sp needed
 1546 0030 30BD     		pop	{r4, r5, pc}
 1547              		.loc 1 457 1 view .LVU433
 1548              		.cfi_endproc
 1549              	.LFE17:
 1551 0032 00BF     		.section	.text.lis2mdl_set_rst_sensor_single_set,"ax",%progbits
 1552              		.align	1
 1553              		.p2align 2,,3
 1554              		.global	lis2mdl_set_rst_sensor_single_set
 1555              		.syntax unified
 1556              		.thumb
 1557              		.thumb_func
 1558              		.fpu fpv4-sp-d16
 1560              	lis2mdl_set_rst_sensor_single_set:
 1561              	.LVL122:
 1562              	.LFB18:
 458:D:/fchai/work/i-cube/I-CUBE-HUAWEI/Drivers/BSP/Components/lis2mdl\lis2mdl_reg.c **** 
ARM GAS  T:\msys\tmp\cct7nJJy.s 			page 40


 459:D:/fchai/work/i-cube/I-CUBE-HUAWEI/Drivers/BSP/Components/lis2mdl\lis2mdl_reg.c **** /**
 460:D:/fchai/work/i-cube/I-CUBE-HUAWEI/Drivers/BSP/Components/lis2mdl\lis2mdl_reg.c ****   * @brief  Enables offset cancellation in single measurement mode.
 461:D:/fchai/work/i-cube/I-CUBE-HUAWEI/Drivers/BSP/Components/lis2mdl\lis2mdl_reg.c ****   *         The OFF_CANC bit must be set to 1 when enabling offset
 462:D:/fchai/work/i-cube/I-CUBE-HUAWEI/Drivers/BSP/Components/lis2mdl\lis2mdl_reg.c ****   *         cancellation in single measurement mode this means a
 463:D:/fchai/work/i-cube/I-CUBE-HUAWEI/Drivers/BSP/Components/lis2mdl\lis2mdl_reg.c ****   *         call function: set_rst_mode(SENS_OFF_CANC_EVERY_ODR)
 464:D:/fchai/work/i-cube/I-CUBE-HUAWEI/Drivers/BSP/Components/lis2mdl\lis2mdl_reg.c ****   *         is need.[set]
 465:D:/fchai/work/i-cube/I-CUBE-HUAWEI/Drivers/BSP/Components/lis2mdl\lis2mdl_reg.c ****   *
 466:D:/fchai/work/i-cube/I-CUBE-HUAWEI/Drivers/BSP/Components/lis2mdl\lis2mdl_reg.c ****   * @param  ctx   read / write interface definitions.(ptr)
 467:D:/fchai/work/i-cube/I-CUBE-HUAWEI/Drivers/BSP/Components/lis2mdl\lis2mdl_reg.c ****   * @param  val   change the values of off_canc_one_shot in reg CFG_REG_B
 468:D:/fchai/work/i-cube/I-CUBE-HUAWEI/Drivers/BSP/Components/lis2mdl\lis2mdl_reg.c ****   * @retval       interface status.(MANDATORY: return 0 -> no Error)
 469:D:/fchai/work/i-cube/I-CUBE-HUAWEI/Drivers/BSP/Components/lis2mdl\lis2mdl_reg.c ****   *
 470:D:/fchai/work/i-cube/I-CUBE-HUAWEI/Drivers/BSP/Components/lis2mdl\lis2mdl_reg.c ****   */
 471:D:/fchai/work/i-cube/I-CUBE-HUAWEI/Drivers/BSP/Components/lis2mdl\lis2mdl_reg.c **** int32_t lis2mdl_set_rst_sensor_single_set(stmdev_ctx_t *ctx, uint8_t val)
 472:D:/fchai/work/i-cube/I-CUBE-HUAWEI/Drivers/BSP/Components/lis2mdl\lis2mdl_reg.c **** {
 1563              		.loc 1 472 1 is_stmt 1 view -0
 1564              		.cfi_startproc
 1565              		@ args = 0, pretend = 0, frame = 8
 1566              		@ frame_needed = 0, uses_anonymous_args = 0
 473:D:/fchai/work/i-cube/I-CUBE-HUAWEI/Drivers/BSP/Components/lis2mdl\lis2mdl_reg.c ****   lis2mdl_cfg_reg_b_t reg;
 1567              		.loc 1 473 3 view .LVU435
 474:D:/fchai/work/i-cube/I-CUBE-HUAWEI/Drivers/BSP/Components/lis2mdl\lis2mdl_reg.c ****   int32_t ret;
 1568              		.loc 1 474 3 view .LVU436
 475:D:/fchai/work/i-cube/I-CUBE-HUAWEI/Drivers/BSP/Components/lis2mdl\lis2mdl_reg.c **** 
 476:D:/fchai/work/i-cube/I-CUBE-HUAWEI/Drivers/BSP/Components/lis2mdl\lis2mdl_reg.c ****   ret = lis2mdl_read_reg(ctx, LIS2MDL_CFG_REG_B, (uint8_t*)&reg, 1);
 1569              		.loc 1 476 3 view .LVU437
 472:D:/fchai/work/i-cube/I-CUBE-HUAWEI/Drivers/BSP/Components/lis2mdl\lis2mdl_reg.c ****   lis2mdl_cfg_reg_b_t reg;
 1570              		.loc 1 472 1 is_stmt 0 view .LVU438
 1571 0000 70B5     		push	{r4, r5, r6, lr}
 1572              	.LCFI50:
 1573              		.cfi_def_cfa_offset 16
 1574              		.cfi_offset 4, -16
 1575              		.cfi_offset 5, -12
 1576              		.cfi_offset 6, -8
 1577              		.cfi_offset 14, -4
 1578 0002 82B0     		sub	sp, sp, #8
 1579              	.LCFI51:
 1580              		.cfi_def_cfa_offset 24
 472:D:/fchai/work/i-cube/I-CUBE-HUAWEI/Drivers/BSP/Components/lis2mdl\lis2mdl_reg.c ****   lis2mdl_cfg_reg_b_t reg;
 1581              		.loc 1 472 1 view .LVU439
 1582 0004 0446     		mov	r4, r0
 1583              	.LVL123:
 1584              	.LBB224:
 1585              	.LBI224:
  49:D:/fchai/work/i-cube/I-CUBE-HUAWEI/Drivers/BSP/Components/lis2mdl\lis2mdl_reg.c ****                          uint16_t len)
 1586              		.loc 1 49 9 is_stmt 1 view .LVU440
 1587              	.LBB225:
  52:D:/fchai/work/i-cube/I-CUBE-HUAWEI/Drivers/BSP/Components/lis2mdl\lis2mdl_reg.c ****   ret = ctx->read_reg(ctx->handle, reg, data, len);
 1588              		.loc 1 52 3 view .LVU441
  53:D:/fchai/work/i-cube/I-CUBE-HUAWEI/Drivers/BSP/Components/lis2mdl\lis2mdl_reg.c ****   return ret;
 1589              		.loc 1 53 3 view .LVU442
 1590              	.LBE225:
 1591              	.LBE224:
 472:D:/fchai/work/i-cube/I-CUBE-HUAWEI/Drivers/BSP/Components/lis2mdl\lis2mdl_reg.c ****   lis2mdl_cfg_reg_b_t reg;
 1592              		.loc 1 472 1 is_stmt 0 view .LVU443
 1593 0006 0D46     		mov	r5, r1
 1594              	.LBB227:
 1595              	.LBB226:
ARM GAS  T:\msys\tmp\cct7nJJy.s 			page 41


  53:D:/fchai/work/i-cube/I-CUBE-HUAWEI/Drivers/BSP/Components/lis2mdl\lis2mdl_reg.c ****   return ret;
 1596              		.loc 1 53 9 view .LVU444
 1597 0008 D0E90160 		ldrd	r6, r0, [r0, #4]
 1598              	.LVL124:
  53:D:/fchai/work/i-cube/I-CUBE-HUAWEI/Drivers/BSP/Components/lis2mdl\lis2mdl_reg.c ****   return ret;
 1599              		.loc 1 53 9 view .LVU445
 1600 000c 01AA     		add	r2, sp, #4
 1601              	.LVL125:
  53:D:/fchai/work/i-cube/I-CUBE-HUAWEI/Drivers/BSP/Components/lis2mdl\lis2mdl_reg.c ****   return ret;
 1602              		.loc 1 53 9 view .LVU446
 1603 000e 0123     		movs	r3, #1
 1604 0010 6121     		movs	r1, #97
 1605              	.LVL126:
  53:D:/fchai/work/i-cube/I-CUBE-HUAWEI/Drivers/BSP/Components/lis2mdl\lis2mdl_reg.c ****   return ret;
 1606              		.loc 1 53 9 view .LVU447
 1607 0012 B047     		blx	r6
 1608              	.LVL127:
  54:D:/fchai/work/i-cube/I-CUBE-HUAWEI/Drivers/BSP/Components/lis2mdl\lis2mdl_reg.c **** }
 1609              		.loc 1 54 3 is_stmt 1 view .LVU448
  54:D:/fchai/work/i-cube/I-CUBE-HUAWEI/Drivers/BSP/Components/lis2mdl\lis2mdl_reg.c **** }
 1610              		.loc 1 54 3 is_stmt 0 view .LVU449
 1611              	.LBE226:
 1612              	.LBE227:
 477:D:/fchai/work/i-cube/I-CUBE-HUAWEI/Drivers/BSP/Components/lis2mdl\lis2mdl_reg.c **** 
 478:D:/fchai/work/i-cube/I-CUBE-HUAWEI/Drivers/BSP/Components/lis2mdl\lis2mdl_reg.c ****   if(ret == 0){
 1613              		.loc 1 478 3 is_stmt 1 view .LVU450
 1614              		.loc 1 478 5 is_stmt 0 view .LVU451
 1615 0014 58B9     		cbnz	r0, .L56
 479:D:/fchai/work/i-cube/I-CUBE-HUAWEI/Drivers/BSP/Components/lis2mdl\lis2mdl_reg.c ****     reg.off_canc_one_shot = val;
 1616              		.loc 1 479 5 is_stmt 1 view .LVU452
 1617              		.loc 1 479 27 is_stmt 0 view .LVU453
 1618 0016 9DF80430 		ldrb	r3, [sp, #4]	@ zero_extendqisi2
 1619              	.LBB228:
 1620              	.LBB229:
  71:D:/fchai/work/i-cube/I-CUBE-HUAWEI/Drivers/BSP/Components/lis2mdl\lis2mdl_reg.c ****   return ret;
 1621              		.loc 1 71 9 view .LVU454
 1622 001a 2668     		ldr	r6, [r4]
 1623 001c A068     		ldr	r0, [r4, #8]
 1624              	.LVL128:
  71:D:/fchai/work/i-cube/I-CUBE-HUAWEI/Drivers/BSP/Components/lis2mdl\lis2mdl_reg.c ****   return ret;
 1625              		.loc 1 71 9 view .LVU455
 1626              	.LBE229:
 1627              	.LBE228:
 1628              		.loc 1 479 27 view .LVU456
 1629 001e 65F30413 		bfi	r3, r5, #4, #1
 1630 0022 8DF80430 		strb	r3, [sp, #4]
 480:D:/fchai/work/i-cube/I-CUBE-HUAWEI/Drivers/BSP/Components/lis2mdl\lis2mdl_reg.c ****     ret = lis2mdl_write_reg(ctx, LIS2MDL_CFG_REG_B, (uint8_t*)&reg, 1);
 1631              		.loc 1 480 5 is_stmt 1 view .LVU457
 1632              	.LVL129:
 1633              	.LBB231:
 1634              	.LBI228:
  67:D:/fchai/work/i-cube/I-CUBE-HUAWEI/Drivers/BSP/Components/lis2mdl\lis2mdl_reg.c ****                           uint16_t len)
 1635              		.loc 1 67 9 view .LVU458
 1636              	.LBB230:
  70:D:/fchai/work/i-cube/I-CUBE-HUAWEI/Drivers/BSP/Components/lis2mdl\lis2mdl_reg.c ****   ret = ctx->write_reg(ctx->handle, reg, data, len);
 1637              		.loc 1 70 3 view .LVU459
  71:D:/fchai/work/i-cube/I-CUBE-HUAWEI/Drivers/BSP/Components/lis2mdl\lis2mdl_reg.c ****   return ret;
ARM GAS  T:\msys\tmp\cct7nJJy.s 			page 42


 1638              		.loc 1 71 3 view .LVU460
  71:D:/fchai/work/i-cube/I-CUBE-HUAWEI/Drivers/BSP/Components/lis2mdl\lis2mdl_reg.c ****   return ret;
 1639              		.loc 1 71 9 is_stmt 0 view .LVU461
 1640 0026 01AA     		add	r2, sp, #4
 1641              	.LVL130:
  71:D:/fchai/work/i-cube/I-CUBE-HUAWEI/Drivers/BSP/Components/lis2mdl\lis2mdl_reg.c ****   return ret;
 1642              		.loc 1 71 9 view .LVU462
 1643 0028 0123     		movs	r3, #1
 1644 002a 6121     		movs	r1, #97
 1645 002c B047     		blx	r6
 1646              	.LVL131:
  72:D:/fchai/work/i-cube/I-CUBE-HUAWEI/Drivers/BSP/Components/lis2mdl\lis2mdl_reg.c **** }
 1647              		.loc 1 72 3 is_stmt 1 view .LVU463
  72:D:/fchai/work/i-cube/I-CUBE-HUAWEI/Drivers/BSP/Components/lis2mdl\lis2mdl_reg.c **** }
 1648              		.loc 1 72 3 is_stmt 0 view .LVU464
 1649              	.LBE230:
 1650              	.LBE231:
 481:D:/fchai/work/i-cube/I-CUBE-HUAWEI/Drivers/BSP/Components/lis2mdl\lis2mdl_reg.c ****   }
 482:D:/fchai/work/i-cube/I-CUBE-HUAWEI/Drivers/BSP/Components/lis2mdl\lis2mdl_reg.c **** 
 483:D:/fchai/work/i-cube/I-CUBE-HUAWEI/Drivers/BSP/Components/lis2mdl\lis2mdl_reg.c ****   return ret;
 1651              		.loc 1 483 3 is_stmt 1 view .LVU465
 1652              	.L56:
 484:D:/fchai/work/i-cube/I-CUBE-HUAWEI/Drivers/BSP/Components/lis2mdl\lis2mdl_reg.c **** }
 1653              		.loc 1 484 1 is_stmt 0 view .LVU466
 1654 002e 02B0     		add	sp, sp, #8
 1655              	.LCFI52:
 1656              		.cfi_def_cfa_offset 16
 1657              		@ sp needed
 1658 0030 70BD     		pop	{r4, r5, r6, pc}
 1659              		.loc 1 484 1 view .LVU467
 1660              		.cfi_endproc
 1661              	.LFE18:
 1663 0032 00BF     		.section	.text.lis2mdl_set_rst_sensor_single_get,"ax",%progbits
 1664              		.align	1
 1665              		.p2align 2,,3
 1666              		.global	lis2mdl_set_rst_sensor_single_get
 1667              		.syntax unified
 1668              		.thumb
 1669              		.thumb_func
 1670              		.fpu fpv4-sp-d16
 1672              	lis2mdl_set_rst_sensor_single_get:
 1673              	.LVL132:
 1674              	.LFB19:
 485:D:/fchai/work/i-cube/I-CUBE-HUAWEI/Drivers/BSP/Components/lis2mdl\lis2mdl_reg.c **** 
 486:D:/fchai/work/i-cube/I-CUBE-HUAWEI/Drivers/BSP/Components/lis2mdl\lis2mdl_reg.c **** /**
 487:D:/fchai/work/i-cube/I-CUBE-HUAWEI/Drivers/BSP/Components/lis2mdl\lis2mdl_reg.c ****   * @brief  Enables offset cancellation in single measurement mode.
 488:D:/fchai/work/i-cube/I-CUBE-HUAWEI/Drivers/BSP/Components/lis2mdl\lis2mdl_reg.c ****   *         The OFF_CANC bit must be set to 1 when enabling offset
 489:D:/fchai/work/i-cube/I-CUBE-HUAWEI/Drivers/BSP/Components/lis2mdl\lis2mdl_reg.c ****   *         cancellation in single measurement mode this means a
 490:D:/fchai/work/i-cube/I-CUBE-HUAWEI/Drivers/BSP/Components/lis2mdl\lis2mdl_reg.c ****   *         call function: set_rst_mode(SENS_OFF_CANC_EVERY_ODR)
 491:D:/fchai/work/i-cube/I-CUBE-HUAWEI/Drivers/BSP/Components/lis2mdl\lis2mdl_reg.c ****   *         is need.[get]
 492:D:/fchai/work/i-cube/I-CUBE-HUAWEI/Drivers/BSP/Components/lis2mdl\lis2mdl_reg.c ****   *
 493:D:/fchai/work/i-cube/I-CUBE-HUAWEI/Drivers/BSP/Components/lis2mdl\lis2mdl_reg.c ****   * @param  ctx   read / write interface definitions.(ptr)
 494:D:/fchai/work/i-cube/I-CUBE-HUAWEI/Drivers/BSP/Components/lis2mdl\lis2mdl_reg.c ****   * @param  val   change the values of off_canc_one_shot in reg CFG_REG_B.(ptr)
 495:D:/fchai/work/i-cube/I-CUBE-HUAWEI/Drivers/BSP/Components/lis2mdl\lis2mdl_reg.c ****   * @retval       interface status.(MANDATORY: return 0 -> no Error)
 496:D:/fchai/work/i-cube/I-CUBE-HUAWEI/Drivers/BSP/Components/lis2mdl\lis2mdl_reg.c ****   *
 497:D:/fchai/work/i-cube/I-CUBE-HUAWEI/Drivers/BSP/Components/lis2mdl\lis2mdl_reg.c ****   */
 498:D:/fchai/work/i-cube/I-CUBE-HUAWEI/Drivers/BSP/Components/lis2mdl\lis2mdl_reg.c **** int32_t lis2mdl_set_rst_sensor_single_get(stmdev_ctx_t *ctx, uint8_t *val)
ARM GAS  T:\msys\tmp\cct7nJJy.s 			page 43


 499:D:/fchai/work/i-cube/I-CUBE-HUAWEI/Drivers/BSP/Components/lis2mdl\lis2mdl_reg.c **** {
 1675              		.loc 1 499 1 is_stmt 1 view -0
 1676              		.cfi_startproc
 1677              		@ args = 0, pretend = 0, frame = 8
 1678              		@ frame_needed = 0, uses_anonymous_args = 0
 500:D:/fchai/work/i-cube/I-CUBE-HUAWEI/Drivers/BSP/Components/lis2mdl\lis2mdl_reg.c ****   lis2mdl_cfg_reg_b_t reg;
 1679              		.loc 1 500 3 view .LVU469
 501:D:/fchai/work/i-cube/I-CUBE-HUAWEI/Drivers/BSP/Components/lis2mdl\lis2mdl_reg.c ****   int32_t ret;
 1680              		.loc 1 501 3 view .LVU470
 502:D:/fchai/work/i-cube/I-CUBE-HUAWEI/Drivers/BSP/Components/lis2mdl\lis2mdl_reg.c **** 
 503:D:/fchai/work/i-cube/I-CUBE-HUAWEI/Drivers/BSP/Components/lis2mdl\lis2mdl_reg.c ****   ret = lis2mdl_read_reg(ctx, LIS2MDL_CFG_REG_B, (uint8_t*)&reg, 1);
 1681              		.loc 1 503 3 view .LVU471
 499:D:/fchai/work/i-cube/I-CUBE-HUAWEI/Drivers/BSP/Components/lis2mdl\lis2mdl_reg.c ****   lis2mdl_cfg_reg_b_t reg;
 1682              		.loc 1 499 1 is_stmt 0 view .LVU472
 1683 0000 30B5     		push	{r4, r5, lr}
 1684              	.LCFI53:
 1685              		.cfi_def_cfa_offset 12
 1686              		.cfi_offset 4, -12
 1687              		.cfi_offset 5, -8
 1688              		.cfi_offset 14, -4
 1689 0002 83B0     		sub	sp, sp, #12
 1690              	.LCFI54:
 1691              		.cfi_def_cfa_offset 24
 1692              	.LVL133:
 1693              	.LBB232:
 1694              	.LBI232:
  49:D:/fchai/work/i-cube/I-CUBE-HUAWEI/Drivers/BSP/Components/lis2mdl\lis2mdl_reg.c ****                          uint16_t len)
 1695              		.loc 1 49 9 is_stmt 1 view .LVU473
 1696              	.LBB233:
  52:D:/fchai/work/i-cube/I-CUBE-HUAWEI/Drivers/BSP/Components/lis2mdl\lis2mdl_reg.c ****   ret = ctx->read_reg(ctx->handle, reg, data, len);
 1697              		.loc 1 52 3 view .LVU474
  53:D:/fchai/work/i-cube/I-CUBE-HUAWEI/Drivers/BSP/Components/lis2mdl\lis2mdl_reg.c ****   return ret;
 1698              		.loc 1 53 3 view .LVU475
 1699              	.LBE233:
 1700              	.LBE232:
 499:D:/fchai/work/i-cube/I-CUBE-HUAWEI/Drivers/BSP/Components/lis2mdl\lis2mdl_reg.c ****   lis2mdl_cfg_reg_b_t reg;
 1701              		.loc 1 499 1 is_stmt 0 view .LVU476
 1702 0004 0C46     		mov	r4, r1
 1703              	.LBB235:
 1704              	.LBB234:
  53:D:/fchai/work/i-cube/I-CUBE-HUAWEI/Drivers/BSP/Components/lis2mdl\lis2mdl_reg.c ****   return ret;
 1705              		.loc 1 53 9 view .LVU477
 1706 0006 D0E90150 		ldrd	r5, r0, [r0, #4]
 1707              	.LVL134:
  53:D:/fchai/work/i-cube/I-CUBE-HUAWEI/Drivers/BSP/Components/lis2mdl\lis2mdl_reg.c ****   return ret;
 1708              		.loc 1 53 9 view .LVU478
 1709 000a 0123     		movs	r3, #1
 1710 000c 01AA     		add	r2, sp, #4
 1711              	.LVL135:
  53:D:/fchai/work/i-cube/I-CUBE-HUAWEI/Drivers/BSP/Components/lis2mdl\lis2mdl_reg.c ****   return ret;
 1712              		.loc 1 53 9 view .LVU479
 1713 000e 6121     		movs	r1, #97
 1714              	.LVL136:
  53:D:/fchai/work/i-cube/I-CUBE-HUAWEI/Drivers/BSP/Components/lis2mdl\lis2mdl_reg.c ****   return ret;
 1715              		.loc 1 53 9 view .LVU480
 1716 0010 A847     		blx	r5
 1717              	.LVL137:
ARM GAS  T:\msys\tmp\cct7nJJy.s 			page 44


  54:D:/fchai/work/i-cube/I-CUBE-HUAWEI/Drivers/BSP/Components/lis2mdl\lis2mdl_reg.c **** }
 1718              		.loc 1 54 3 is_stmt 1 view .LVU481
  54:D:/fchai/work/i-cube/I-CUBE-HUAWEI/Drivers/BSP/Components/lis2mdl\lis2mdl_reg.c **** }
 1719              		.loc 1 54 3 is_stmt 0 view .LVU482
 1720              	.LBE234:
 1721              	.LBE235:
 504:D:/fchai/work/i-cube/I-CUBE-HUAWEI/Drivers/BSP/Components/lis2mdl\lis2mdl_reg.c ****   *val = reg.off_canc_one_shot;
 1722              		.loc 1 504 3 is_stmt 1 view .LVU483
 1723              		.loc 1 504 13 is_stmt 0 view .LVU484
 1724 0012 9DF80430 		ldrb	r3, [sp, #4]	@ zero_extendqisi2
 1725 0016 C3F30013 		ubfx	r3, r3, #4, #1
 1726              		.loc 1 504 8 view .LVU485
 1727 001a 2370     		strb	r3, [r4]
 505:D:/fchai/work/i-cube/I-CUBE-HUAWEI/Drivers/BSP/Components/lis2mdl\lis2mdl_reg.c **** 
 506:D:/fchai/work/i-cube/I-CUBE-HUAWEI/Drivers/BSP/Components/lis2mdl\lis2mdl_reg.c ****   return ret;
 1728              		.loc 1 506 3 is_stmt 1 view .LVU486
 507:D:/fchai/work/i-cube/I-CUBE-HUAWEI/Drivers/BSP/Components/lis2mdl\lis2mdl_reg.c **** }
 1729              		.loc 1 507 1 is_stmt 0 view .LVU487
 1730 001c 03B0     		add	sp, sp, #12
 1731              	.LCFI55:
 1732              		.cfi_def_cfa_offset 12
 1733              		@ sp needed
 1734 001e 30BD     		pop	{r4, r5, pc}
 1735              		.loc 1 507 1 view .LVU488
 1736              		.cfi_endproc
 1737              	.LFE19:
 1739              		.section	.text.lis2mdl_block_data_update_set,"ax",%progbits
 1740              		.align	1
 1741              		.p2align 2,,3
 1742              		.global	lis2mdl_block_data_update_set
 1743              		.syntax unified
 1744              		.thumb
 1745              		.thumb_func
 1746              		.fpu fpv4-sp-d16
 1748              	lis2mdl_block_data_update_set:
 1749              	.LVL138:
 1750              	.LFB20:
 508:D:/fchai/work/i-cube/I-CUBE-HUAWEI/Drivers/BSP/Components/lis2mdl\lis2mdl_reg.c **** 
 509:D:/fchai/work/i-cube/I-CUBE-HUAWEI/Drivers/BSP/Components/lis2mdl\lis2mdl_reg.c **** /**
 510:D:/fchai/work/i-cube/I-CUBE-HUAWEI/Drivers/BSP/Components/lis2mdl\lis2mdl_reg.c ****   * @brief  Blockdataupdate.[set]
 511:D:/fchai/work/i-cube/I-CUBE-HUAWEI/Drivers/BSP/Components/lis2mdl\lis2mdl_reg.c ****   *
 512:D:/fchai/work/i-cube/I-CUBE-HUAWEI/Drivers/BSP/Components/lis2mdl\lis2mdl_reg.c ****   * @param  ctx   read / write interface definitions.(ptr)
 513:D:/fchai/work/i-cube/I-CUBE-HUAWEI/Drivers/BSP/Components/lis2mdl\lis2mdl_reg.c ****   * @param  val   change the values of bdu in reg CFG_REG_C
 514:D:/fchai/work/i-cube/I-CUBE-HUAWEI/Drivers/BSP/Components/lis2mdl\lis2mdl_reg.c ****   * @retval       interface status.(MANDATORY: return 0 -> no Error)
 515:D:/fchai/work/i-cube/I-CUBE-HUAWEI/Drivers/BSP/Components/lis2mdl\lis2mdl_reg.c ****   *
 516:D:/fchai/work/i-cube/I-CUBE-HUAWEI/Drivers/BSP/Components/lis2mdl\lis2mdl_reg.c ****   */
 517:D:/fchai/work/i-cube/I-CUBE-HUAWEI/Drivers/BSP/Components/lis2mdl\lis2mdl_reg.c **** int32_t lis2mdl_block_data_update_set(stmdev_ctx_t *ctx, uint8_t val)
 518:D:/fchai/work/i-cube/I-CUBE-HUAWEI/Drivers/BSP/Components/lis2mdl\lis2mdl_reg.c **** {
 1751              		.loc 1 518 1 is_stmt 1 view -0
 1752              		.cfi_startproc
 1753              		@ args = 0, pretend = 0, frame = 8
 1754              		@ frame_needed = 0, uses_anonymous_args = 0
 519:D:/fchai/work/i-cube/I-CUBE-HUAWEI/Drivers/BSP/Components/lis2mdl\lis2mdl_reg.c ****   lis2mdl_cfg_reg_c_t reg;
 1755              		.loc 1 519 3 view .LVU490
 520:D:/fchai/work/i-cube/I-CUBE-HUAWEI/Drivers/BSP/Components/lis2mdl\lis2mdl_reg.c ****   int32_t ret;
 1756              		.loc 1 520 3 view .LVU491
 521:D:/fchai/work/i-cube/I-CUBE-HUAWEI/Drivers/BSP/Components/lis2mdl\lis2mdl_reg.c **** 
ARM GAS  T:\msys\tmp\cct7nJJy.s 			page 45


 522:D:/fchai/work/i-cube/I-CUBE-HUAWEI/Drivers/BSP/Components/lis2mdl\lis2mdl_reg.c ****   ret = lis2mdl_read_reg(ctx, LIS2MDL_CFG_REG_C, (uint8_t*)&reg, 1);
 1757              		.loc 1 522 3 view .LVU492
 518:D:/fchai/work/i-cube/I-CUBE-HUAWEI/Drivers/BSP/Components/lis2mdl\lis2mdl_reg.c ****   lis2mdl_cfg_reg_c_t reg;
 1758              		.loc 1 518 1 is_stmt 0 view .LVU493
 1759 0000 70B5     		push	{r4, r5, r6, lr}
 1760              	.LCFI56:
 1761              		.cfi_def_cfa_offset 16
 1762              		.cfi_offset 4, -16
 1763              		.cfi_offset 5, -12
 1764              		.cfi_offset 6, -8
 1765              		.cfi_offset 14, -4
 1766 0002 82B0     		sub	sp, sp, #8
 1767              	.LCFI57:
 1768              		.cfi_def_cfa_offset 24
 518:D:/fchai/work/i-cube/I-CUBE-HUAWEI/Drivers/BSP/Components/lis2mdl\lis2mdl_reg.c ****   lis2mdl_cfg_reg_c_t reg;
 1769              		.loc 1 518 1 view .LVU494
 1770 0004 0446     		mov	r4, r0
 1771              	.LVL139:
 1772              	.LBB236:
 1773              	.LBI236:
  49:D:/fchai/work/i-cube/I-CUBE-HUAWEI/Drivers/BSP/Components/lis2mdl\lis2mdl_reg.c ****                          uint16_t len)
 1774              		.loc 1 49 9 is_stmt 1 view .LVU495
 1775              	.LBB237:
  52:D:/fchai/work/i-cube/I-CUBE-HUAWEI/Drivers/BSP/Components/lis2mdl\lis2mdl_reg.c ****   ret = ctx->read_reg(ctx->handle, reg, data, len);
 1776              		.loc 1 52 3 view .LVU496
  53:D:/fchai/work/i-cube/I-CUBE-HUAWEI/Drivers/BSP/Components/lis2mdl\lis2mdl_reg.c ****   return ret;
 1777              		.loc 1 53 3 view .LVU497
 1778              	.LBE237:
 1779              	.LBE236:
 518:D:/fchai/work/i-cube/I-CUBE-HUAWEI/Drivers/BSP/Components/lis2mdl\lis2mdl_reg.c ****   lis2mdl_cfg_reg_c_t reg;
 1780              		.loc 1 518 1 is_stmt 0 view .LVU498
 1781 0006 0D46     		mov	r5, r1
 1782              	.LBB239:
 1783              	.LBB238:
  53:D:/fchai/work/i-cube/I-CUBE-HUAWEI/Drivers/BSP/Components/lis2mdl\lis2mdl_reg.c ****   return ret;
 1784              		.loc 1 53 9 view .LVU499
 1785 0008 D0E90160 		ldrd	r6, r0, [r0, #4]
 1786              	.LVL140:
  53:D:/fchai/work/i-cube/I-CUBE-HUAWEI/Drivers/BSP/Components/lis2mdl\lis2mdl_reg.c ****   return ret;
 1787              		.loc 1 53 9 view .LVU500
 1788 000c 01AA     		add	r2, sp, #4
 1789              	.LVL141:
  53:D:/fchai/work/i-cube/I-CUBE-HUAWEI/Drivers/BSP/Components/lis2mdl\lis2mdl_reg.c ****   return ret;
 1790              		.loc 1 53 9 view .LVU501
 1791 000e 0123     		movs	r3, #1
 1792 0010 6221     		movs	r1, #98
 1793              	.LVL142:
  53:D:/fchai/work/i-cube/I-CUBE-HUAWEI/Drivers/BSP/Components/lis2mdl\lis2mdl_reg.c ****   return ret;
 1794              		.loc 1 53 9 view .LVU502
 1795 0012 B047     		blx	r6
 1796              	.LVL143:
  54:D:/fchai/work/i-cube/I-CUBE-HUAWEI/Drivers/BSP/Components/lis2mdl\lis2mdl_reg.c **** }
 1797              		.loc 1 54 3 is_stmt 1 view .LVU503
  54:D:/fchai/work/i-cube/I-CUBE-HUAWEI/Drivers/BSP/Components/lis2mdl\lis2mdl_reg.c **** }
 1798              		.loc 1 54 3 is_stmt 0 view .LVU504
 1799              	.LBE238:
 1800              	.LBE239:
ARM GAS  T:\msys\tmp\cct7nJJy.s 			page 46


 523:D:/fchai/work/i-cube/I-CUBE-HUAWEI/Drivers/BSP/Components/lis2mdl\lis2mdl_reg.c **** 
 524:D:/fchai/work/i-cube/I-CUBE-HUAWEI/Drivers/BSP/Components/lis2mdl\lis2mdl_reg.c ****   if(ret == 0){
 1801              		.loc 1 524 3 is_stmt 1 view .LVU505
 1802              		.loc 1 524 5 is_stmt 0 view .LVU506
 1803 0014 58B9     		cbnz	r0, .L61
 525:D:/fchai/work/i-cube/I-CUBE-HUAWEI/Drivers/BSP/Components/lis2mdl\lis2mdl_reg.c ****     reg.bdu = val;
 1804              		.loc 1 525 5 is_stmt 1 view .LVU507
 1805              		.loc 1 525 13 is_stmt 0 view .LVU508
 1806 0016 9DF80430 		ldrb	r3, [sp, #4]	@ zero_extendqisi2
 1807              	.LBB240:
 1808              	.LBB241:
  71:D:/fchai/work/i-cube/I-CUBE-HUAWEI/Drivers/BSP/Components/lis2mdl\lis2mdl_reg.c ****   return ret;
 1809              		.loc 1 71 9 view .LVU509
 1810 001a 2668     		ldr	r6, [r4]
 1811 001c A068     		ldr	r0, [r4, #8]
 1812              	.LVL144:
  71:D:/fchai/work/i-cube/I-CUBE-HUAWEI/Drivers/BSP/Components/lis2mdl\lis2mdl_reg.c ****   return ret;
 1813              		.loc 1 71 9 view .LVU510
 1814              	.LBE241:
 1815              	.LBE240:
 1816              		.loc 1 525 13 view .LVU511
 1817 001e 65F30413 		bfi	r3, r5, #4, #1
 1818 0022 8DF80430 		strb	r3, [sp, #4]
 526:D:/fchai/work/i-cube/I-CUBE-HUAWEI/Drivers/BSP/Components/lis2mdl\lis2mdl_reg.c ****     ret = lis2mdl_write_reg(ctx, LIS2MDL_CFG_REG_C, (uint8_t*)&reg, 1);
 1819              		.loc 1 526 5 is_stmt 1 view .LVU512
 1820              	.LVL145:
 1821              	.LBB243:
 1822              	.LBI240:
  67:D:/fchai/work/i-cube/I-CUBE-HUAWEI/Drivers/BSP/Components/lis2mdl\lis2mdl_reg.c ****                           uint16_t len)
 1823              		.loc 1 67 9 view .LVU513
 1824              	.LBB242:
  70:D:/fchai/work/i-cube/I-CUBE-HUAWEI/Drivers/BSP/Components/lis2mdl\lis2mdl_reg.c ****   ret = ctx->write_reg(ctx->handle, reg, data, len);
 1825              		.loc 1 70 3 view .LVU514
  71:D:/fchai/work/i-cube/I-CUBE-HUAWEI/Drivers/BSP/Components/lis2mdl\lis2mdl_reg.c ****   return ret;
 1826              		.loc 1 71 3 view .LVU515
  71:D:/fchai/work/i-cube/I-CUBE-HUAWEI/Drivers/BSP/Components/lis2mdl\lis2mdl_reg.c ****   return ret;
 1827              		.loc 1 71 9 is_stmt 0 view .LVU516
 1828 0026 01AA     		add	r2, sp, #4
 1829              	.LVL146:
  71:D:/fchai/work/i-cube/I-CUBE-HUAWEI/Drivers/BSP/Components/lis2mdl\lis2mdl_reg.c ****   return ret;
 1830              		.loc 1 71 9 view .LVU517
 1831 0028 0123     		movs	r3, #1
 1832 002a 6221     		movs	r1, #98
 1833 002c B047     		blx	r6
 1834              	.LVL147:
  72:D:/fchai/work/i-cube/I-CUBE-HUAWEI/Drivers/BSP/Components/lis2mdl\lis2mdl_reg.c **** }
 1835              		.loc 1 72 3 is_stmt 1 view .LVU518
  72:D:/fchai/work/i-cube/I-CUBE-HUAWEI/Drivers/BSP/Components/lis2mdl\lis2mdl_reg.c **** }
 1836              		.loc 1 72 3 is_stmt 0 view .LVU519
 1837              	.LBE242:
 1838              	.LBE243:
 527:D:/fchai/work/i-cube/I-CUBE-HUAWEI/Drivers/BSP/Components/lis2mdl\lis2mdl_reg.c ****   }
 528:D:/fchai/work/i-cube/I-CUBE-HUAWEI/Drivers/BSP/Components/lis2mdl\lis2mdl_reg.c **** 
 529:D:/fchai/work/i-cube/I-CUBE-HUAWEI/Drivers/BSP/Components/lis2mdl\lis2mdl_reg.c ****   return ret;
 1839              		.loc 1 529 3 is_stmt 1 view .LVU520
 1840              	.L61:
 530:D:/fchai/work/i-cube/I-CUBE-HUAWEI/Drivers/BSP/Components/lis2mdl\lis2mdl_reg.c **** }
ARM GAS  T:\msys\tmp\cct7nJJy.s 			page 47


 1841              		.loc 1 530 1 is_stmt 0 view .LVU521
 1842 002e 02B0     		add	sp, sp, #8
 1843              	.LCFI58:
 1844              		.cfi_def_cfa_offset 16
 1845              		@ sp needed
 1846 0030 70BD     		pop	{r4, r5, r6, pc}
 1847              		.loc 1 530 1 view .LVU522
 1848              		.cfi_endproc
 1849              	.LFE20:
 1851 0032 00BF     		.section	.text.lis2mdl_block_data_update_get,"ax",%progbits
 1852              		.align	1
 1853              		.p2align 2,,3
 1854              		.global	lis2mdl_block_data_update_get
 1855              		.syntax unified
 1856              		.thumb
 1857              		.thumb_func
 1858              		.fpu fpv4-sp-d16
 1860              	lis2mdl_block_data_update_get:
 1861              	.LVL148:
 1862              	.LFB21:
 531:D:/fchai/work/i-cube/I-CUBE-HUAWEI/Drivers/BSP/Components/lis2mdl\lis2mdl_reg.c **** 
 532:D:/fchai/work/i-cube/I-CUBE-HUAWEI/Drivers/BSP/Components/lis2mdl\lis2mdl_reg.c **** /**
 533:D:/fchai/work/i-cube/I-CUBE-HUAWEI/Drivers/BSP/Components/lis2mdl\lis2mdl_reg.c ****   * @brief  Blockdataupdate.[get]
 534:D:/fchai/work/i-cube/I-CUBE-HUAWEI/Drivers/BSP/Components/lis2mdl\lis2mdl_reg.c ****   *
 535:D:/fchai/work/i-cube/I-CUBE-HUAWEI/Drivers/BSP/Components/lis2mdl\lis2mdl_reg.c ****   * @param  ctx   read / write interface definitions.(ptr)
 536:D:/fchai/work/i-cube/I-CUBE-HUAWEI/Drivers/BSP/Components/lis2mdl\lis2mdl_reg.c ****   * @param  val   change the values of bdu in reg CFG_REG_C.(ptr)
 537:D:/fchai/work/i-cube/I-CUBE-HUAWEI/Drivers/BSP/Components/lis2mdl\lis2mdl_reg.c ****   * @retval       interface status.(MANDATORY: return 0 -> no Error)
 538:D:/fchai/work/i-cube/I-CUBE-HUAWEI/Drivers/BSP/Components/lis2mdl\lis2mdl_reg.c ****   *
 539:D:/fchai/work/i-cube/I-CUBE-HUAWEI/Drivers/BSP/Components/lis2mdl\lis2mdl_reg.c ****   */
 540:D:/fchai/work/i-cube/I-CUBE-HUAWEI/Drivers/BSP/Components/lis2mdl\lis2mdl_reg.c **** int32_t lis2mdl_block_data_update_get(stmdev_ctx_t *ctx, uint8_t *val)
 541:D:/fchai/work/i-cube/I-CUBE-HUAWEI/Drivers/BSP/Components/lis2mdl\lis2mdl_reg.c **** {
 1863              		.loc 1 541 1 is_stmt 1 view -0
 1864              		.cfi_startproc
 1865              		@ args = 0, pretend = 0, frame = 8
 1866              		@ frame_needed = 0, uses_anonymous_args = 0
 542:D:/fchai/work/i-cube/I-CUBE-HUAWEI/Drivers/BSP/Components/lis2mdl\lis2mdl_reg.c ****   lis2mdl_cfg_reg_c_t reg;
 1867              		.loc 1 542 3 view .LVU524
 543:D:/fchai/work/i-cube/I-CUBE-HUAWEI/Drivers/BSP/Components/lis2mdl\lis2mdl_reg.c ****   int32_t ret;
 1868              		.loc 1 543 3 view .LVU525
 544:D:/fchai/work/i-cube/I-CUBE-HUAWEI/Drivers/BSP/Components/lis2mdl\lis2mdl_reg.c **** 
 545:D:/fchai/work/i-cube/I-CUBE-HUAWEI/Drivers/BSP/Components/lis2mdl\lis2mdl_reg.c ****   ret = lis2mdl_read_reg(ctx, LIS2MDL_CFG_REG_C, (uint8_t*)&reg, 1);
 1869              		.loc 1 545 3 view .LVU526
 541:D:/fchai/work/i-cube/I-CUBE-HUAWEI/Drivers/BSP/Components/lis2mdl\lis2mdl_reg.c ****   lis2mdl_cfg_reg_c_t reg;
 1870              		.loc 1 541 1 is_stmt 0 view .LVU527
 1871 0000 30B5     		push	{r4, r5, lr}
 1872              	.LCFI59:
 1873              		.cfi_def_cfa_offset 12
 1874              		.cfi_offset 4, -12
 1875              		.cfi_offset 5, -8
 1876              		.cfi_offset 14, -4
 1877 0002 83B0     		sub	sp, sp, #12
 1878              	.LCFI60:
 1879              		.cfi_def_cfa_offset 24
 1880              	.LVL149:
 1881              	.LBB244:
 1882              	.LBI244:
  49:D:/fchai/work/i-cube/I-CUBE-HUAWEI/Drivers/BSP/Components/lis2mdl\lis2mdl_reg.c ****                          uint16_t len)
ARM GAS  T:\msys\tmp\cct7nJJy.s 			page 48


 1883              		.loc 1 49 9 is_stmt 1 view .LVU528
 1884              	.LBB245:
  52:D:/fchai/work/i-cube/I-CUBE-HUAWEI/Drivers/BSP/Components/lis2mdl\lis2mdl_reg.c ****   ret = ctx->read_reg(ctx->handle, reg, data, len);
 1885              		.loc 1 52 3 view .LVU529
  53:D:/fchai/work/i-cube/I-CUBE-HUAWEI/Drivers/BSP/Components/lis2mdl\lis2mdl_reg.c ****   return ret;
 1886              		.loc 1 53 3 view .LVU530
 1887              	.LBE245:
 1888              	.LBE244:
 541:D:/fchai/work/i-cube/I-CUBE-HUAWEI/Drivers/BSP/Components/lis2mdl\lis2mdl_reg.c ****   lis2mdl_cfg_reg_c_t reg;
 1889              		.loc 1 541 1 is_stmt 0 view .LVU531
 1890 0004 0C46     		mov	r4, r1
 1891              	.LBB247:
 1892              	.LBB246:
  53:D:/fchai/work/i-cube/I-CUBE-HUAWEI/Drivers/BSP/Components/lis2mdl\lis2mdl_reg.c ****   return ret;
 1893              		.loc 1 53 9 view .LVU532
 1894 0006 D0E90150 		ldrd	r5, r0, [r0, #4]
 1895              	.LVL150:
  53:D:/fchai/work/i-cube/I-CUBE-HUAWEI/Drivers/BSP/Components/lis2mdl\lis2mdl_reg.c ****   return ret;
 1896              		.loc 1 53 9 view .LVU533
 1897 000a 0123     		movs	r3, #1
 1898 000c 01AA     		add	r2, sp, #4
 1899              	.LVL151:
  53:D:/fchai/work/i-cube/I-CUBE-HUAWEI/Drivers/BSP/Components/lis2mdl\lis2mdl_reg.c ****   return ret;
 1900              		.loc 1 53 9 view .LVU534
 1901 000e 6221     		movs	r1, #98
 1902              	.LVL152:
  53:D:/fchai/work/i-cube/I-CUBE-HUAWEI/Drivers/BSP/Components/lis2mdl\lis2mdl_reg.c ****   return ret;
 1903              		.loc 1 53 9 view .LVU535
 1904 0010 A847     		blx	r5
 1905              	.LVL153:
  54:D:/fchai/work/i-cube/I-CUBE-HUAWEI/Drivers/BSP/Components/lis2mdl\lis2mdl_reg.c **** }
 1906              		.loc 1 54 3 is_stmt 1 view .LVU536
  54:D:/fchai/work/i-cube/I-CUBE-HUAWEI/Drivers/BSP/Components/lis2mdl\lis2mdl_reg.c **** }
 1907              		.loc 1 54 3 is_stmt 0 view .LVU537
 1908              	.LBE246:
 1909              	.LBE247:
 546:D:/fchai/work/i-cube/I-CUBE-HUAWEI/Drivers/BSP/Components/lis2mdl\lis2mdl_reg.c ****   *val = reg.bdu;
 1910              		.loc 1 546 3 is_stmt 1 view .LVU538
 1911              		.loc 1 546 13 is_stmt 0 view .LVU539
 1912 0012 9DF80430 		ldrb	r3, [sp, #4]	@ zero_extendqisi2
 1913 0016 C3F30013 		ubfx	r3, r3, #4, #1
 1914              		.loc 1 546 8 view .LVU540
 1915 001a 2370     		strb	r3, [r4]
 547:D:/fchai/work/i-cube/I-CUBE-HUAWEI/Drivers/BSP/Components/lis2mdl\lis2mdl_reg.c **** 
 548:D:/fchai/work/i-cube/I-CUBE-HUAWEI/Drivers/BSP/Components/lis2mdl\lis2mdl_reg.c ****   return ret;
 1916              		.loc 1 548 3 is_stmt 1 view .LVU541
 549:D:/fchai/work/i-cube/I-CUBE-HUAWEI/Drivers/BSP/Components/lis2mdl\lis2mdl_reg.c **** }
 1917              		.loc 1 549 1 is_stmt 0 view .LVU542
 1918 001c 03B0     		add	sp, sp, #12
 1919              	.LCFI61:
 1920              		.cfi_def_cfa_offset 12
 1921              		@ sp needed
 1922 001e 30BD     		pop	{r4, r5, pc}
 1923              		.loc 1 549 1 view .LVU543
 1924              		.cfi_endproc
 1925              	.LFE21:
 1927              		.section	.text.lis2mdl_mag_data_ready_get,"ax",%progbits
ARM GAS  T:\msys\tmp\cct7nJJy.s 			page 49


 1928              		.align	1
 1929              		.p2align 2,,3
 1930              		.global	lis2mdl_mag_data_ready_get
 1931              		.syntax unified
 1932              		.thumb
 1933              		.thumb_func
 1934              		.fpu fpv4-sp-d16
 1936              	lis2mdl_mag_data_ready_get:
 1937              	.LVL154:
 1938              	.LFB22:
 550:D:/fchai/work/i-cube/I-CUBE-HUAWEI/Drivers/BSP/Components/lis2mdl\lis2mdl_reg.c **** 
 551:D:/fchai/work/i-cube/I-CUBE-HUAWEI/Drivers/BSP/Components/lis2mdl\lis2mdl_reg.c **** /**
 552:D:/fchai/work/i-cube/I-CUBE-HUAWEI/Drivers/BSP/Components/lis2mdl\lis2mdl_reg.c ****   * @brief  Magnetic set of data available.[get]
 553:D:/fchai/work/i-cube/I-CUBE-HUAWEI/Drivers/BSP/Components/lis2mdl\lis2mdl_reg.c ****   *
 554:D:/fchai/work/i-cube/I-CUBE-HUAWEI/Drivers/BSP/Components/lis2mdl\lis2mdl_reg.c ****   * @param  ctx   read / write interface definitions.(ptr)
 555:D:/fchai/work/i-cube/I-CUBE-HUAWEI/Drivers/BSP/Components/lis2mdl\lis2mdl_reg.c ****   * @param  val   change the values of zyxda in reg STATUS_REG.(ptr)
 556:D:/fchai/work/i-cube/I-CUBE-HUAWEI/Drivers/BSP/Components/lis2mdl\lis2mdl_reg.c ****   * @retval       interface status.(MANDATORY: return 0 -> no Error)
 557:D:/fchai/work/i-cube/I-CUBE-HUAWEI/Drivers/BSP/Components/lis2mdl\lis2mdl_reg.c ****   *
 558:D:/fchai/work/i-cube/I-CUBE-HUAWEI/Drivers/BSP/Components/lis2mdl\lis2mdl_reg.c ****   */
 559:D:/fchai/work/i-cube/I-CUBE-HUAWEI/Drivers/BSP/Components/lis2mdl\lis2mdl_reg.c **** int32_t lis2mdl_mag_data_ready_get(stmdev_ctx_t *ctx, uint8_t *val)
 560:D:/fchai/work/i-cube/I-CUBE-HUAWEI/Drivers/BSP/Components/lis2mdl\lis2mdl_reg.c **** {
 1939              		.loc 1 560 1 is_stmt 1 view -0
 1940              		.cfi_startproc
 1941              		@ args = 0, pretend = 0, frame = 8
 1942              		@ frame_needed = 0, uses_anonymous_args = 0
 561:D:/fchai/work/i-cube/I-CUBE-HUAWEI/Drivers/BSP/Components/lis2mdl\lis2mdl_reg.c ****   lis2mdl_status_reg_t reg;
 1943              		.loc 1 561 3 view .LVU545
 562:D:/fchai/work/i-cube/I-CUBE-HUAWEI/Drivers/BSP/Components/lis2mdl\lis2mdl_reg.c ****   int32_t ret;
 1944              		.loc 1 562 3 view .LVU546
 563:D:/fchai/work/i-cube/I-CUBE-HUAWEI/Drivers/BSP/Components/lis2mdl\lis2mdl_reg.c **** 
 564:D:/fchai/work/i-cube/I-CUBE-HUAWEI/Drivers/BSP/Components/lis2mdl\lis2mdl_reg.c ****   ret = lis2mdl_read_reg(ctx, LIS2MDL_STATUS_REG, (uint8_t*)&reg, 1);
 1945              		.loc 1 564 3 view .LVU547
 560:D:/fchai/work/i-cube/I-CUBE-HUAWEI/Drivers/BSP/Components/lis2mdl\lis2mdl_reg.c ****   lis2mdl_status_reg_t reg;
 1946              		.loc 1 560 1 is_stmt 0 view .LVU548
 1947 0000 30B5     		push	{r4, r5, lr}
 1948              	.LCFI62:
 1949              		.cfi_def_cfa_offset 12
 1950              		.cfi_offset 4, -12
 1951              		.cfi_offset 5, -8
 1952              		.cfi_offset 14, -4
 1953 0002 83B0     		sub	sp, sp, #12
 1954              	.LCFI63:
 1955              		.cfi_def_cfa_offset 24
 1956              	.LVL155:
 1957              	.LBB248:
 1958              	.LBI248:
  49:D:/fchai/work/i-cube/I-CUBE-HUAWEI/Drivers/BSP/Components/lis2mdl\lis2mdl_reg.c ****                          uint16_t len)
 1959              		.loc 1 49 9 is_stmt 1 view .LVU549
 1960              	.LBB249:
  52:D:/fchai/work/i-cube/I-CUBE-HUAWEI/Drivers/BSP/Components/lis2mdl\lis2mdl_reg.c ****   ret = ctx->read_reg(ctx->handle, reg, data, len);
 1961              		.loc 1 52 3 view .LVU550
  53:D:/fchai/work/i-cube/I-CUBE-HUAWEI/Drivers/BSP/Components/lis2mdl\lis2mdl_reg.c ****   return ret;
 1962              		.loc 1 53 3 view .LVU551
 1963              	.LBE249:
 1964              	.LBE248:
 560:D:/fchai/work/i-cube/I-CUBE-HUAWEI/Drivers/BSP/Components/lis2mdl\lis2mdl_reg.c ****   lis2mdl_status_reg_t reg;
 1965              		.loc 1 560 1 is_stmt 0 view .LVU552
ARM GAS  T:\msys\tmp\cct7nJJy.s 			page 50


 1966 0004 0C46     		mov	r4, r1
 1967              	.LBB251:
 1968              	.LBB250:
  53:D:/fchai/work/i-cube/I-CUBE-HUAWEI/Drivers/BSP/Components/lis2mdl\lis2mdl_reg.c ****   return ret;
 1969              		.loc 1 53 9 view .LVU553
 1970 0006 D0E90150 		ldrd	r5, r0, [r0, #4]
 1971              	.LVL156:
  53:D:/fchai/work/i-cube/I-CUBE-HUAWEI/Drivers/BSP/Components/lis2mdl\lis2mdl_reg.c ****   return ret;
 1972              		.loc 1 53 9 view .LVU554
 1973 000a 0123     		movs	r3, #1
 1974 000c 01AA     		add	r2, sp, #4
 1975              	.LVL157:
  53:D:/fchai/work/i-cube/I-CUBE-HUAWEI/Drivers/BSP/Components/lis2mdl\lis2mdl_reg.c ****   return ret;
 1976              		.loc 1 53 9 view .LVU555
 1977 000e 6721     		movs	r1, #103
 1978              	.LVL158:
  53:D:/fchai/work/i-cube/I-CUBE-HUAWEI/Drivers/BSP/Components/lis2mdl\lis2mdl_reg.c ****   return ret;
 1979              		.loc 1 53 9 view .LVU556
 1980 0010 A847     		blx	r5
 1981              	.LVL159:
  54:D:/fchai/work/i-cube/I-CUBE-HUAWEI/Drivers/BSP/Components/lis2mdl\lis2mdl_reg.c **** }
 1982              		.loc 1 54 3 is_stmt 1 view .LVU557
  54:D:/fchai/work/i-cube/I-CUBE-HUAWEI/Drivers/BSP/Components/lis2mdl\lis2mdl_reg.c **** }
 1983              		.loc 1 54 3 is_stmt 0 view .LVU558
 1984              	.LBE250:
 1985              	.LBE251:
 565:D:/fchai/work/i-cube/I-CUBE-HUAWEI/Drivers/BSP/Components/lis2mdl\lis2mdl_reg.c ****   *val = reg.zyxda;
 1986              		.loc 1 565 3 is_stmt 1 view .LVU559
 1987              		.loc 1 565 13 is_stmt 0 view .LVU560
 1988 0012 9DF80430 		ldrb	r3, [sp, #4]	@ zero_extendqisi2
 1989 0016 C3F3C003 		ubfx	r3, r3, #3, #1
 1990              		.loc 1 565 8 view .LVU561
 1991 001a 2370     		strb	r3, [r4]
 566:D:/fchai/work/i-cube/I-CUBE-HUAWEI/Drivers/BSP/Components/lis2mdl\lis2mdl_reg.c **** 
 567:D:/fchai/work/i-cube/I-CUBE-HUAWEI/Drivers/BSP/Components/lis2mdl\lis2mdl_reg.c ****   return ret;
 1992              		.loc 1 567 3 is_stmt 1 view .LVU562
 568:D:/fchai/work/i-cube/I-CUBE-HUAWEI/Drivers/BSP/Components/lis2mdl\lis2mdl_reg.c **** }
 1993              		.loc 1 568 1 is_stmt 0 view .LVU563
 1994 001c 03B0     		add	sp, sp, #12
 1995              	.LCFI64:
 1996              		.cfi_def_cfa_offset 12
 1997              		@ sp needed
 1998 001e 30BD     		pop	{r4, r5, pc}
 1999              		.loc 1 568 1 view .LVU564
 2000              		.cfi_endproc
 2001              	.LFE22:
 2003              		.section	.text.lis2mdl_mag_data_ovr_get,"ax",%progbits
 2004              		.align	1
 2005              		.p2align 2,,3
 2006              		.global	lis2mdl_mag_data_ovr_get
 2007              		.syntax unified
 2008              		.thumb
 2009              		.thumb_func
 2010              		.fpu fpv4-sp-d16
 2012              	lis2mdl_mag_data_ovr_get:
 2013              	.LVL160:
 2014              	.LFB23:
ARM GAS  T:\msys\tmp\cct7nJJy.s 			page 51


 569:D:/fchai/work/i-cube/I-CUBE-HUAWEI/Drivers/BSP/Components/lis2mdl\lis2mdl_reg.c **** 
 570:D:/fchai/work/i-cube/I-CUBE-HUAWEI/Drivers/BSP/Components/lis2mdl\lis2mdl_reg.c **** /**
 571:D:/fchai/work/i-cube/I-CUBE-HUAWEI/Drivers/BSP/Components/lis2mdl\lis2mdl_reg.c ****   * @brief  Magnetic set of data overrun.[get]
 572:D:/fchai/work/i-cube/I-CUBE-HUAWEI/Drivers/BSP/Components/lis2mdl\lis2mdl_reg.c ****   *
 573:D:/fchai/work/i-cube/I-CUBE-HUAWEI/Drivers/BSP/Components/lis2mdl\lis2mdl_reg.c ****   * @param  ctx   read / write interface definitions.(ptr)
 574:D:/fchai/work/i-cube/I-CUBE-HUAWEI/Drivers/BSP/Components/lis2mdl\lis2mdl_reg.c ****   * @param  val   change the values of zyxor in reg STATUS_REG.(ptr)
 575:D:/fchai/work/i-cube/I-CUBE-HUAWEI/Drivers/BSP/Components/lis2mdl\lis2mdl_reg.c ****   * @retval       interface status.(MANDATORY: return 0 -> no Error)
 576:D:/fchai/work/i-cube/I-CUBE-HUAWEI/Drivers/BSP/Components/lis2mdl\lis2mdl_reg.c ****   *
 577:D:/fchai/work/i-cube/I-CUBE-HUAWEI/Drivers/BSP/Components/lis2mdl\lis2mdl_reg.c ****   */
 578:D:/fchai/work/i-cube/I-CUBE-HUAWEI/Drivers/BSP/Components/lis2mdl\lis2mdl_reg.c **** int32_t lis2mdl_mag_data_ovr_get(stmdev_ctx_t *ctx, uint8_t *val)
 579:D:/fchai/work/i-cube/I-CUBE-HUAWEI/Drivers/BSP/Components/lis2mdl\lis2mdl_reg.c **** {
 2015              		.loc 1 579 1 is_stmt 1 view -0
 2016              		.cfi_startproc
 2017              		@ args = 0, pretend = 0, frame = 8
 2018              		@ frame_needed = 0, uses_anonymous_args = 0
 580:D:/fchai/work/i-cube/I-CUBE-HUAWEI/Drivers/BSP/Components/lis2mdl\lis2mdl_reg.c ****   lis2mdl_status_reg_t reg;
 2019              		.loc 1 580 3 view .LVU566
 581:D:/fchai/work/i-cube/I-CUBE-HUAWEI/Drivers/BSP/Components/lis2mdl\lis2mdl_reg.c ****   int32_t ret;
 2020              		.loc 1 581 3 view .LVU567
 582:D:/fchai/work/i-cube/I-CUBE-HUAWEI/Drivers/BSP/Components/lis2mdl\lis2mdl_reg.c **** 
 583:D:/fchai/work/i-cube/I-CUBE-HUAWEI/Drivers/BSP/Components/lis2mdl\lis2mdl_reg.c ****   ret = lis2mdl_read_reg(ctx, LIS2MDL_STATUS_REG, (uint8_t*)&reg, 1);
 2021              		.loc 1 583 3 view .LVU568
 579:D:/fchai/work/i-cube/I-CUBE-HUAWEI/Drivers/BSP/Components/lis2mdl\lis2mdl_reg.c ****   lis2mdl_status_reg_t reg;
 2022              		.loc 1 579 1 is_stmt 0 view .LVU569
 2023 0000 30B5     		push	{r4, r5, lr}
 2024              	.LCFI65:
 2025              		.cfi_def_cfa_offset 12
 2026              		.cfi_offset 4, -12
 2027              		.cfi_offset 5, -8
 2028              		.cfi_offset 14, -4
 2029 0002 83B0     		sub	sp, sp, #12
 2030              	.LCFI66:
 2031              		.cfi_def_cfa_offset 24
 2032              	.LVL161:
 2033              	.LBB252:
 2034              	.LBI252:
  49:D:/fchai/work/i-cube/I-CUBE-HUAWEI/Drivers/BSP/Components/lis2mdl\lis2mdl_reg.c ****                          uint16_t len)
 2035              		.loc 1 49 9 is_stmt 1 view .LVU570
 2036              	.LBB253:
  52:D:/fchai/work/i-cube/I-CUBE-HUAWEI/Drivers/BSP/Components/lis2mdl\lis2mdl_reg.c ****   ret = ctx->read_reg(ctx->handle, reg, data, len);
 2037              		.loc 1 52 3 view .LVU571
  53:D:/fchai/work/i-cube/I-CUBE-HUAWEI/Drivers/BSP/Components/lis2mdl\lis2mdl_reg.c ****   return ret;
 2038              		.loc 1 53 3 view .LVU572
 2039              	.LBE253:
 2040              	.LBE252:
 579:D:/fchai/work/i-cube/I-CUBE-HUAWEI/Drivers/BSP/Components/lis2mdl\lis2mdl_reg.c ****   lis2mdl_status_reg_t reg;
 2041              		.loc 1 579 1 is_stmt 0 view .LVU573
 2042 0004 0C46     		mov	r4, r1
 2043              	.LBB255:
 2044              	.LBB254:
  53:D:/fchai/work/i-cube/I-CUBE-HUAWEI/Drivers/BSP/Components/lis2mdl\lis2mdl_reg.c ****   return ret;
 2045              		.loc 1 53 9 view .LVU574
 2046 0006 D0E90150 		ldrd	r5, r0, [r0, #4]
 2047              	.LVL162:
  53:D:/fchai/work/i-cube/I-CUBE-HUAWEI/Drivers/BSP/Components/lis2mdl\lis2mdl_reg.c ****   return ret;
 2048              		.loc 1 53 9 view .LVU575
 2049 000a 0123     		movs	r3, #1
ARM GAS  T:\msys\tmp\cct7nJJy.s 			page 52


 2050 000c 01AA     		add	r2, sp, #4
 2051              	.LVL163:
  53:D:/fchai/work/i-cube/I-CUBE-HUAWEI/Drivers/BSP/Components/lis2mdl\lis2mdl_reg.c ****   return ret;
 2052              		.loc 1 53 9 view .LVU576
 2053 000e 6721     		movs	r1, #103
 2054              	.LVL164:
  53:D:/fchai/work/i-cube/I-CUBE-HUAWEI/Drivers/BSP/Components/lis2mdl\lis2mdl_reg.c ****   return ret;
 2055              		.loc 1 53 9 view .LVU577
 2056 0010 A847     		blx	r5
 2057              	.LVL165:
  54:D:/fchai/work/i-cube/I-CUBE-HUAWEI/Drivers/BSP/Components/lis2mdl\lis2mdl_reg.c **** }
 2058              		.loc 1 54 3 is_stmt 1 view .LVU578
  54:D:/fchai/work/i-cube/I-CUBE-HUAWEI/Drivers/BSP/Components/lis2mdl\lis2mdl_reg.c **** }
 2059              		.loc 1 54 3 is_stmt 0 view .LVU579
 2060              	.LBE254:
 2061              	.LBE255:
 584:D:/fchai/work/i-cube/I-CUBE-HUAWEI/Drivers/BSP/Components/lis2mdl\lis2mdl_reg.c ****   *val = reg.zyxor;
 2062              		.loc 1 584 3 is_stmt 1 view .LVU580
 2063              		.loc 1 584 13 is_stmt 0 view .LVU581
 2064 0012 9DF80430 		ldrb	r3, [sp, #4]	@ zero_extendqisi2
 2065 0016 C3F3C013 		ubfx	r3, r3, #7, #1
 2066              		.loc 1 584 8 view .LVU582
 2067 001a 2370     		strb	r3, [r4]
 585:D:/fchai/work/i-cube/I-CUBE-HUAWEI/Drivers/BSP/Components/lis2mdl\lis2mdl_reg.c **** 
 586:D:/fchai/work/i-cube/I-CUBE-HUAWEI/Drivers/BSP/Components/lis2mdl\lis2mdl_reg.c ****   return ret;
 2068              		.loc 1 586 3 is_stmt 1 view .LVU583
 587:D:/fchai/work/i-cube/I-CUBE-HUAWEI/Drivers/BSP/Components/lis2mdl\lis2mdl_reg.c **** }
 2069              		.loc 1 587 1 is_stmt 0 view .LVU584
 2070 001c 03B0     		add	sp, sp, #12
 2071              	.LCFI67:
 2072              		.cfi_def_cfa_offset 12
 2073              		@ sp needed
 2074 001e 30BD     		pop	{r4, r5, pc}
 2075              		.loc 1 587 1 view .LVU585
 2076              		.cfi_endproc
 2077              	.LFE23:
 2079              		.section	.text.lis2mdl_magnetic_raw_get,"ax",%progbits
 2080              		.align	1
 2081              		.p2align 2,,3
 2082              		.global	lis2mdl_magnetic_raw_get
 2083              		.syntax unified
 2084              		.thumb
 2085              		.thumb_func
 2086              		.fpu fpv4-sp-d16
 2088              	lis2mdl_magnetic_raw_get:
 2089              	.LVL166:
 2090              	.LFB24:
 588:D:/fchai/work/i-cube/I-CUBE-HUAWEI/Drivers/BSP/Components/lis2mdl\lis2mdl_reg.c **** 
 589:D:/fchai/work/i-cube/I-CUBE-HUAWEI/Drivers/BSP/Components/lis2mdl\lis2mdl_reg.c **** /**
 590:D:/fchai/work/i-cube/I-CUBE-HUAWEI/Drivers/BSP/Components/lis2mdl\lis2mdl_reg.c ****   * @brief  Magnetic output value.[get]
 591:D:/fchai/work/i-cube/I-CUBE-HUAWEI/Drivers/BSP/Components/lis2mdl\lis2mdl_reg.c ****   *
 592:D:/fchai/work/i-cube/I-CUBE-HUAWEI/Drivers/BSP/Components/lis2mdl\lis2mdl_reg.c ****   * @param  ctx   read / write interface definitions.(ptr)
 593:D:/fchai/work/i-cube/I-CUBE-HUAWEI/Drivers/BSP/Components/lis2mdl\lis2mdl_reg.c ****   * @param  buff  that stores data read
 594:D:/fchai/work/i-cube/I-CUBE-HUAWEI/Drivers/BSP/Components/lis2mdl\lis2mdl_reg.c ****   * @retval       interface status.(MANDATORY: return 0 -> no Error)
 595:D:/fchai/work/i-cube/I-CUBE-HUAWEI/Drivers/BSP/Components/lis2mdl\lis2mdl_reg.c ****   *
 596:D:/fchai/work/i-cube/I-CUBE-HUAWEI/Drivers/BSP/Components/lis2mdl\lis2mdl_reg.c ****   */
 597:D:/fchai/work/i-cube/I-CUBE-HUAWEI/Drivers/BSP/Components/lis2mdl\lis2mdl_reg.c **** int32_t lis2mdl_magnetic_raw_get(stmdev_ctx_t *ctx, uint8_t *buff)
ARM GAS  T:\msys\tmp\cct7nJJy.s 			page 53


 598:D:/fchai/work/i-cube/I-CUBE-HUAWEI/Drivers/BSP/Components/lis2mdl\lis2mdl_reg.c **** {
 2091              		.loc 1 598 1 is_stmt 1 view -0
 2092              		.cfi_startproc
 2093              		@ args = 0, pretend = 0, frame = 0
 2094              		@ frame_needed = 0, uses_anonymous_args = 0
 2095              		@ link register save eliminated.
 599:D:/fchai/work/i-cube/I-CUBE-HUAWEI/Drivers/BSP/Components/lis2mdl\lis2mdl_reg.c ****   int32_t ret;
 2096              		.loc 1 599 3 view .LVU587
 600:D:/fchai/work/i-cube/I-CUBE-HUAWEI/Drivers/BSP/Components/lis2mdl\lis2mdl_reg.c ****   ret = lis2mdl_read_reg(ctx, LIS2MDL_OUTX_L_REG, buff, 6);
 2097              		.loc 1 600 3 view .LVU588
 598:D:/fchai/work/i-cube/I-CUBE-HUAWEI/Drivers/BSP/Components/lis2mdl\lis2mdl_reg.c ****   int32_t ret;
 2098              		.loc 1 598 1 is_stmt 0 view .LVU589
 2099 0000 10B4     		push	{r4}
 2100              	.LCFI68:
 2101              		.cfi_def_cfa_offset 4
 2102              		.cfi_offset 4, -4
 2103              	.LBB256:
 2104              	.LBB257:
  53:D:/fchai/work/i-cube/I-CUBE-HUAWEI/Drivers/BSP/Components/lis2mdl\lis2mdl_reg.c ****   return ret;
 2105              		.loc 1 53 9 view .LVU590
 2106 0002 D0E90140 		ldrd	r4, r0, [r0, #4]
 2107              	.LVL167:
  53:D:/fchai/work/i-cube/I-CUBE-HUAWEI/Drivers/BSP/Components/lis2mdl\lis2mdl_reg.c ****   return ret;
 2108              		.loc 1 53 9 view .LVU591
 2109              	.LBE257:
 2110              	.LBE256:
 598:D:/fchai/work/i-cube/I-CUBE-HUAWEI/Drivers/BSP/Components/lis2mdl\lis2mdl_reg.c ****   int32_t ret;
 2111              		.loc 1 598 1 view .LVU592
 2112 0006 0A46     		mov	r2, r1
 2113              	.LVL168:
 2114              	.LBB260:
 2115              	.LBI256:
  49:D:/fchai/work/i-cube/I-CUBE-HUAWEI/Drivers/BSP/Components/lis2mdl\lis2mdl_reg.c ****                          uint16_t len)
 2116              		.loc 1 49 9 is_stmt 1 view .LVU593
 2117              	.LBB258:
  52:D:/fchai/work/i-cube/I-CUBE-HUAWEI/Drivers/BSP/Components/lis2mdl\lis2mdl_reg.c ****   ret = ctx->read_reg(ctx->handle, reg, data, len);
 2118              		.loc 1 52 3 view .LVU594
  53:D:/fchai/work/i-cube/I-CUBE-HUAWEI/Drivers/BSP/Components/lis2mdl\lis2mdl_reg.c ****   return ret;
 2119              		.loc 1 53 3 view .LVU595
  53:D:/fchai/work/i-cube/I-CUBE-HUAWEI/Drivers/BSP/Components/lis2mdl\lis2mdl_reg.c ****   return ret;
 2120              		.loc 1 53 9 is_stmt 0 view .LVU596
 2121 0008 A446     		mov	ip, r4
 2122 000a 0623     		movs	r3, #6
 2123              	.LBE258:
 2124              	.LBE260:
 601:D:/fchai/work/i-cube/I-CUBE-HUAWEI/Drivers/BSP/Components/lis2mdl\lis2mdl_reg.c ****   return ret;
 602:D:/fchai/work/i-cube/I-CUBE-HUAWEI/Drivers/BSP/Components/lis2mdl\lis2mdl_reg.c **** }
 2125              		.loc 1 602 1 view .LVU597
 2126 000c 5DF8044B 		ldr	r4, [sp], #4
 2127              	.LCFI69:
 2128              		.cfi_restore 4
 2129              		.cfi_def_cfa_offset 0
 2130              	.LBB261:
 2131              	.LBB259:
  53:D:/fchai/work/i-cube/I-CUBE-HUAWEI/Drivers/BSP/Components/lis2mdl\lis2mdl_reg.c ****   return ret;
 2132              		.loc 1 53 9 view .LVU598
 2133 0010 6821     		movs	r1, #104
ARM GAS  T:\msys\tmp\cct7nJJy.s 			page 54


 2134              	.LVL169:
  53:D:/fchai/work/i-cube/I-CUBE-HUAWEI/Drivers/BSP/Components/lis2mdl\lis2mdl_reg.c ****   return ret;
 2135              		.loc 1 53 9 view .LVU599
 2136 0012 6047     		bx	ip
 2137              	.LVL170:
  53:D:/fchai/work/i-cube/I-CUBE-HUAWEI/Drivers/BSP/Components/lis2mdl\lis2mdl_reg.c ****   return ret;
 2138              		.loc 1 53 9 view .LVU600
 2139              	.LBE259:
 2140              	.LBE261:
 2141              		.cfi_endproc
 2142              	.LFE24:
 2144              		.section	.text.lis2mdl_temperature_raw_get,"ax",%progbits
 2145              		.align	1
 2146              		.p2align 2,,3
 2147              		.global	lis2mdl_temperature_raw_get
 2148              		.syntax unified
 2149              		.thumb
 2150              		.thumb_func
 2151              		.fpu fpv4-sp-d16
 2153              	lis2mdl_temperature_raw_get:
 2154              	.LVL171:
 2155              	.LFB25:
 603:D:/fchai/work/i-cube/I-CUBE-HUAWEI/Drivers/BSP/Components/lis2mdl\lis2mdl_reg.c **** 
 604:D:/fchai/work/i-cube/I-CUBE-HUAWEI/Drivers/BSP/Components/lis2mdl\lis2mdl_reg.c **** /**
 605:D:/fchai/work/i-cube/I-CUBE-HUAWEI/Drivers/BSP/Components/lis2mdl\lis2mdl_reg.c ****   * @brief  Temperature output value.[get]
 606:D:/fchai/work/i-cube/I-CUBE-HUAWEI/Drivers/BSP/Components/lis2mdl\lis2mdl_reg.c ****   *
 607:D:/fchai/work/i-cube/I-CUBE-HUAWEI/Drivers/BSP/Components/lis2mdl\lis2mdl_reg.c ****   * @param  ctx   read / write interface definitions.(ptr)
 608:D:/fchai/work/i-cube/I-CUBE-HUAWEI/Drivers/BSP/Components/lis2mdl\lis2mdl_reg.c ****   * @param  buff  that stores data read
 609:D:/fchai/work/i-cube/I-CUBE-HUAWEI/Drivers/BSP/Components/lis2mdl\lis2mdl_reg.c ****   * @retval       interface status.(MANDATORY: return 0 -> no Error)
 610:D:/fchai/work/i-cube/I-CUBE-HUAWEI/Drivers/BSP/Components/lis2mdl\lis2mdl_reg.c ****   *
 611:D:/fchai/work/i-cube/I-CUBE-HUAWEI/Drivers/BSP/Components/lis2mdl\lis2mdl_reg.c ****   */
 612:D:/fchai/work/i-cube/I-CUBE-HUAWEI/Drivers/BSP/Components/lis2mdl\lis2mdl_reg.c **** int32_t lis2mdl_temperature_raw_get(stmdev_ctx_t *ctx, uint8_t *buff)
 613:D:/fchai/work/i-cube/I-CUBE-HUAWEI/Drivers/BSP/Components/lis2mdl\lis2mdl_reg.c **** {
 2156              		.loc 1 613 1 is_stmt 1 view -0
 2157              		.cfi_startproc
 2158              		@ args = 0, pretend = 0, frame = 0
 2159              		@ frame_needed = 0, uses_anonymous_args = 0
 2160              		@ link register save eliminated.
 614:D:/fchai/work/i-cube/I-CUBE-HUAWEI/Drivers/BSP/Components/lis2mdl\lis2mdl_reg.c ****   int32_t ret;
 2161              		.loc 1 614 3 view .LVU602
 615:D:/fchai/work/i-cube/I-CUBE-HUAWEI/Drivers/BSP/Components/lis2mdl\lis2mdl_reg.c ****   ret = lis2mdl_read_reg(ctx, LIS2MDL_TEMP_OUT_L_REG, buff, 2);
 2162              		.loc 1 615 3 view .LVU603
 613:D:/fchai/work/i-cube/I-CUBE-HUAWEI/Drivers/BSP/Components/lis2mdl\lis2mdl_reg.c ****   int32_t ret;
 2163              		.loc 1 613 1 is_stmt 0 view .LVU604
 2164 0000 10B4     		push	{r4}
 2165              	.LCFI70:
 2166              		.cfi_def_cfa_offset 4
 2167              		.cfi_offset 4, -4
 2168              	.LBB262:
 2169              	.LBB263:
  53:D:/fchai/work/i-cube/I-CUBE-HUAWEI/Drivers/BSP/Components/lis2mdl\lis2mdl_reg.c ****   return ret;
 2170              		.loc 1 53 9 view .LVU605
 2171 0002 D0E90140 		ldrd	r4, r0, [r0, #4]
 2172              	.LVL172:
  53:D:/fchai/work/i-cube/I-CUBE-HUAWEI/Drivers/BSP/Components/lis2mdl\lis2mdl_reg.c ****   return ret;
 2173              		.loc 1 53 9 view .LVU606
 2174              	.LBE263:
ARM GAS  T:\msys\tmp\cct7nJJy.s 			page 55


 2175              	.LBE262:
 613:D:/fchai/work/i-cube/I-CUBE-HUAWEI/Drivers/BSP/Components/lis2mdl\lis2mdl_reg.c ****   int32_t ret;
 2176              		.loc 1 613 1 view .LVU607
 2177 0006 0A46     		mov	r2, r1
 2178              	.LVL173:
 2179              	.LBB266:
 2180              	.LBI262:
  49:D:/fchai/work/i-cube/I-CUBE-HUAWEI/Drivers/BSP/Components/lis2mdl\lis2mdl_reg.c ****                          uint16_t len)
 2181              		.loc 1 49 9 is_stmt 1 view .LVU608
 2182              	.LBB264:
  52:D:/fchai/work/i-cube/I-CUBE-HUAWEI/Drivers/BSP/Components/lis2mdl\lis2mdl_reg.c ****   ret = ctx->read_reg(ctx->handle, reg, data, len);
 2183              		.loc 1 52 3 view .LVU609
  53:D:/fchai/work/i-cube/I-CUBE-HUAWEI/Drivers/BSP/Components/lis2mdl\lis2mdl_reg.c ****   return ret;
 2184              		.loc 1 53 3 view .LVU610
  53:D:/fchai/work/i-cube/I-CUBE-HUAWEI/Drivers/BSP/Components/lis2mdl\lis2mdl_reg.c ****   return ret;
 2185              		.loc 1 53 9 is_stmt 0 view .LVU611
 2186 0008 A446     		mov	ip, r4
 2187 000a 0223     		movs	r3, #2
 2188              	.LBE264:
 2189              	.LBE266:
 616:D:/fchai/work/i-cube/I-CUBE-HUAWEI/Drivers/BSP/Components/lis2mdl\lis2mdl_reg.c ****   return ret;
 617:D:/fchai/work/i-cube/I-CUBE-HUAWEI/Drivers/BSP/Components/lis2mdl\lis2mdl_reg.c **** }
 2190              		.loc 1 617 1 view .LVU612
 2191 000c 5DF8044B 		ldr	r4, [sp], #4
 2192              	.LCFI71:
 2193              		.cfi_restore 4
 2194              		.cfi_def_cfa_offset 0
 2195              	.LBB267:
 2196              	.LBB265:
  53:D:/fchai/work/i-cube/I-CUBE-HUAWEI/Drivers/BSP/Components/lis2mdl\lis2mdl_reg.c ****   return ret;
 2197              		.loc 1 53 9 view .LVU613
 2198 0010 6E21     		movs	r1, #110
 2199              	.LVL174:
  53:D:/fchai/work/i-cube/I-CUBE-HUAWEI/Drivers/BSP/Components/lis2mdl\lis2mdl_reg.c ****   return ret;
 2200              		.loc 1 53 9 view .LVU614
 2201 0012 6047     		bx	ip
 2202              	.LVL175:
  53:D:/fchai/work/i-cube/I-CUBE-HUAWEI/Drivers/BSP/Components/lis2mdl\lis2mdl_reg.c ****   return ret;
 2203              		.loc 1 53 9 view .LVU615
 2204              	.LBE265:
 2205              	.LBE267:
 2206              		.cfi_endproc
 2207              	.LFE25:
 2209              		.section	.text.lis2mdl_device_id_get,"ax",%progbits
 2210              		.align	1
 2211              		.p2align 2,,3
 2212              		.global	lis2mdl_device_id_get
 2213              		.syntax unified
 2214              		.thumb
 2215              		.thumb_func
 2216              		.fpu fpv4-sp-d16
 2218              	lis2mdl_device_id_get:
 2219              	.LVL176:
 2220              	.LFB26:
 618:D:/fchai/work/i-cube/I-CUBE-HUAWEI/Drivers/BSP/Components/lis2mdl\lis2mdl_reg.c **** 
 619:D:/fchai/work/i-cube/I-CUBE-HUAWEI/Drivers/BSP/Components/lis2mdl\lis2mdl_reg.c **** /**
 620:D:/fchai/work/i-cube/I-CUBE-HUAWEI/Drivers/BSP/Components/lis2mdl\lis2mdl_reg.c ****   * @}
ARM GAS  T:\msys\tmp\cct7nJJy.s 			page 56


 621:D:/fchai/work/i-cube/I-CUBE-HUAWEI/Drivers/BSP/Components/lis2mdl\lis2mdl_reg.c ****   *
 622:D:/fchai/work/i-cube/I-CUBE-HUAWEI/Drivers/BSP/Components/lis2mdl\lis2mdl_reg.c ****   */
 623:D:/fchai/work/i-cube/I-CUBE-HUAWEI/Drivers/BSP/Components/lis2mdl\lis2mdl_reg.c **** 
 624:D:/fchai/work/i-cube/I-CUBE-HUAWEI/Drivers/BSP/Components/lis2mdl\lis2mdl_reg.c **** /**
 625:D:/fchai/work/i-cube/I-CUBE-HUAWEI/Drivers/BSP/Components/lis2mdl\lis2mdl_reg.c ****   * @defgroup    LIS2MDL_common
 626:D:/fchai/work/i-cube/I-CUBE-HUAWEI/Drivers/BSP/Components/lis2mdl\lis2mdl_reg.c ****   * @brief       This section group common usefull functions
 627:D:/fchai/work/i-cube/I-CUBE-HUAWEI/Drivers/BSP/Components/lis2mdl\lis2mdl_reg.c ****   * @{
 628:D:/fchai/work/i-cube/I-CUBE-HUAWEI/Drivers/BSP/Components/lis2mdl\lis2mdl_reg.c ****   *
 629:D:/fchai/work/i-cube/I-CUBE-HUAWEI/Drivers/BSP/Components/lis2mdl\lis2mdl_reg.c ****   */
 630:D:/fchai/work/i-cube/I-CUBE-HUAWEI/Drivers/BSP/Components/lis2mdl\lis2mdl_reg.c **** 
 631:D:/fchai/work/i-cube/I-CUBE-HUAWEI/Drivers/BSP/Components/lis2mdl\lis2mdl_reg.c **** /**
 632:D:/fchai/work/i-cube/I-CUBE-HUAWEI/Drivers/BSP/Components/lis2mdl\lis2mdl_reg.c ****   * @brief  DeviceWhoamI.[get]
 633:D:/fchai/work/i-cube/I-CUBE-HUAWEI/Drivers/BSP/Components/lis2mdl\lis2mdl_reg.c ****   *
 634:D:/fchai/work/i-cube/I-CUBE-HUAWEI/Drivers/BSP/Components/lis2mdl\lis2mdl_reg.c ****   * @param  ctx   read / write interface definitions.(ptr)
 635:D:/fchai/work/i-cube/I-CUBE-HUAWEI/Drivers/BSP/Components/lis2mdl\lis2mdl_reg.c ****   * @param  buff  that stores data read
 636:D:/fchai/work/i-cube/I-CUBE-HUAWEI/Drivers/BSP/Components/lis2mdl\lis2mdl_reg.c ****   * @retval       interface status.(MANDATORY: return 0 -> no Error)
 637:D:/fchai/work/i-cube/I-CUBE-HUAWEI/Drivers/BSP/Components/lis2mdl\lis2mdl_reg.c ****   *
 638:D:/fchai/work/i-cube/I-CUBE-HUAWEI/Drivers/BSP/Components/lis2mdl\lis2mdl_reg.c ****   */
 639:D:/fchai/work/i-cube/I-CUBE-HUAWEI/Drivers/BSP/Components/lis2mdl\lis2mdl_reg.c **** int32_t lis2mdl_device_id_get(stmdev_ctx_t *ctx, uint8_t *buff)
 640:D:/fchai/work/i-cube/I-CUBE-HUAWEI/Drivers/BSP/Components/lis2mdl\lis2mdl_reg.c **** {
 2221              		.loc 1 640 1 is_stmt 1 view -0
 2222              		.cfi_startproc
 2223              		@ args = 0, pretend = 0, frame = 0
 2224              		@ frame_needed = 0, uses_anonymous_args = 0
 2225              		@ link register save eliminated.
 641:D:/fchai/work/i-cube/I-CUBE-HUAWEI/Drivers/BSP/Components/lis2mdl\lis2mdl_reg.c ****   int32_t ret;
 2226              		.loc 1 641 3 view .LVU617
 642:D:/fchai/work/i-cube/I-CUBE-HUAWEI/Drivers/BSP/Components/lis2mdl\lis2mdl_reg.c ****   ret = lis2mdl_read_reg(ctx, LIS2MDL_WHO_AM_I, buff, 1);
 2227              		.loc 1 642 3 view .LVU618
 640:D:/fchai/work/i-cube/I-CUBE-HUAWEI/Drivers/BSP/Components/lis2mdl\lis2mdl_reg.c ****   int32_t ret;
 2228              		.loc 1 640 1 is_stmt 0 view .LVU619
 2229 0000 10B4     		push	{r4}
 2230              	.LCFI72:
 2231              		.cfi_def_cfa_offset 4
 2232              		.cfi_offset 4, -4
 2233              	.LBB268:
 2234              	.LBB269:
  53:D:/fchai/work/i-cube/I-CUBE-HUAWEI/Drivers/BSP/Components/lis2mdl\lis2mdl_reg.c ****   return ret;
 2235              		.loc 1 53 9 view .LVU620
 2236 0002 D0E90140 		ldrd	r4, r0, [r0, #4]
 2237              	.LVL177:
  53:D:/fchai/work/i-cube/I-CUBE-HUAWEI/Drivers/BSP/Components/lis2mdl\lis2mdl_reg.c ****   return ret;
 2238              		.loc 1 53 9 view .LVU621
 2239              	.LBE269:
 2240              	.LBE268:
 640:D:/fchai/work/i-cube/I-CUBE-HUAWEI/Drivers/BSP/Components/lis2mdl\lis2mdl_reg.c ****   int32_t ret;
 2241              		.loc 1 640 1 view .LVU622
 2242 0006 0A46     		mov	r2, r1
 2243              	.LVL178:
 2244              	.LBB272:
 2245              	.LBI268:
  49:D:/fchai/work/i-cube/I-CUBE-HUAWEI/Drivers/BSP/Components/lis2mdl\lis2mdl_reg.c ****                          uint16_t len)
 2246              		.loc 1 49 9 is_stmt 1 view .LVU623
 2247              	.LBB270:
  52:D:/fchai/work/i-cube/I-CUBE-HUAWEI/Drivers/BSP/Components/lis2mdl\lis2mdl_reg.c ****   ret = ctx->read_reg(ctx->handle, reg, data, len);
 2248              		.loc 1 52 3 view .LVU624
  53:D:/fchai/work/i-cube/I-CUBE-HUAWEI/Drivers/BSP/Components/lis2mdl\lis2mdl_reg.c ****   return ret;
ARM GAS  T:\msys\tmp\cct7nJJy.s 			page 57


 2249              		.loc 1 53 3 view .LVU625
  53:D:/fchai/work/i-cube/I-CUBE-HUAWEI/Drivers/BSP/Components/lis2mdl\lis2mdl_reg.c ****   return ret;
 2250              		.loc 1 53 9 is_stmt 0 view .LVU626
 2251 0008 A446     		mov	ip, r4
 2252 000a 0123     		movs	r3, #1
 2253              	.LBE270:
 2254              	.LBE272:
 643:D:/fchai/work/i-cube/I-CUBE-HUAWEI/Drivers/BSP/Components/lis2mdl\lis2mdl_reg.c ****   return ret;
 644:D:/fchai/work/i-cube/I-CUBE-HUAWEI/Drivers/BSP/Components/lis2mdl\lis2mdl_reg.c **** }
 2255              		.loc 1 644 1 view .LVU627
 2256 000c 5DF8044B 		ldr	r4, [sp], #4
 2257              	.LCFI73:
 2258              		.cfi_restore 4
 2259              		.cfi_def_cfa_offset 0
 2260              	.LBB273:
 2261              	.LBB271:
  53:D:/fchai/work/i-cube/I-CUBE-HUAWEI/Drivers/BSP/Components/lis2mdl\lis2mdl_reg.c ****   return ret;
 2262              		.loc 1 53 9 view .LVU628
 2263 0010 4F21     		movs	r1, #79
 2264              	.LVL179:
  53:D:/fchai/work/i-cube/I-CUBE-HUAWEI/Drivers/BSP/Components/lis2mdl\lis2mdl_reg.c ****   return ret;
 2265              		.loc 1 53 9 view .LVU629
 2266 0012 6047     		bx	ip
 2267              	.LVL180:
  53:D:/fchai/work/i-cube/I-CUBE-HUAWEI/Drivers/BSP/Components/lis2mdl\lis2mdl_reg.c ****   return ret;
 2268              		.loc 1 53 9 view .LVU630
 2269              	.LBE271:
 2270              	.LBE273:
 2271              		.cfi_endproc
 2272              	.LFE26:
 2274              		.section	.text.lis2mdl_reset_set,"ax",%progbits
 2275              		.align	1
 2276              		.p2align 2,,3
 2277              		.global	lis2mdl_reset_set
 2278              		.syntax unified
 2279              		.thumb
 2280              		.thumb_func
 2281              		.fpu fpv4-sp-d16
 2283              	lis2mdl_reset_set:
 2284              	.LVL181:
 2285              	.LFB27:
 645:D:/fchai/work/i-cube/I-CUBE-HUAWEI/Drivers/BSP/Components/lis2mdl\lis2mdl_reg.c **** 
 646:D:/fchai/work/i-cube/I-CUBE-HUAWEI/Drivers/BSP/Components/lis2mdl\lis2mdl_reg.c **** /**
 647:D:/fchai/work/i-cube/I-CUBE-HUAWEI/Drivers/BSP/Components/lis2mdl\lis2mdl_reg.c ****   * @brief  Software reset. Restore the default values in user registers.[set]
 648:D:/fchai/work/i-cube/I-CUBE-HUAWEI/Drivers/BSP/Components/lis2mdl\lis2mdl_reg.c ****   *
 649:D:/fchai/work/i-cube/I-CUBE-HUAWEI/Drivers/BSP/Components/lis2mdl\lis2mdl_reg.c ****   * @param  ctx   read / write interface definitions.(ptr)
 650:D:/fchai/work/i-cube/I-CUBE-HUAWEI/Drivers/BSP/Components/lis2mdl\lis2mdl_reg.c ****   * @param  val   change the values of soft_rst in reg CFG_REG_A
 651:D:/fchai/work/i-cube/I-CUBE-HUAWEI/Drivers/BSP/Components/lis2mdl\lis2mdl_reg.c ****   * @retval       interface status.(MANDATORY: return 0 -> no Error)
 652:D:/fchai/work/i-cube/I-CUBE-HUAWEI/Drivers/BSP/Components/lis2mdl\lis2mdl_reg.c ****   *
 653:D:/fchai/work/i-cube/I-CUBE-HUAWEI/Drivers/BSP/Components/lis2mdl\lis2mdl_reg.c ****   */
 654:D:/fchai/work/i-cube/I-CUBE-HUAWEI/Drivers/BSP/Components/lis2mdl\lis2mdl_reg.c **** int32_t lis2mdl_reset_set(stmdev_ctx_t *ctx, uint8_t val)
 655:D:/fchai/work/i-cube/I-CUBE-HUAWEI/Drivers/BSP/Components/lis2mdl\lis2mdl_reg.c **** {
 2286              		.loc 1 655 1 is_stmt 1 view -0
 2287              		.cfi_startproc
 2288              		@ args = 0, pretend = 0, frame = 8
 2289              		@ frame_needed = 0, uses_anonymous_args = 0
 656:D:/fchai/work/i-cube/I-CUBE-HUAWEI/Drivers/BSP/Components/lis2mdl\lis2mdl_reg.c ****   lis2mdl_cfg_reg_a_t reg;
ARM GAS  T:\msys\tmp\cct7nJJy.s 			page 58


 2290              		.loc 1 656 3 view .LVU632
 657:D:/fchai/work/i-cube/I-CUBE-HUAWEI/Drivers/BSP/Components/lis2mdl\lis2mdl_reg.c ****   int32_t ret;
 2291              		.loc 1 657 3 view .LVU633
 658:D:/fchai/work/i-cube/I-CUBE-HUAWEI/Drivers/BSP/Components/lis2mdl\lis2mdl_reg.c **** 
 659:D:/fchai/work/i-cube/I-CUBE-HUAWEI/Drivers/BSP/Components/lis2mdl\lis2mdl_reg.c ****   ret = lis2mdl_read_reg(ctx, LIS2MDL_CFG_REG_A, (uint8_t*)&reg, 1);
 2292              		.loc 1 659 3 view .LVU634
 655:D:/fchai/work/i-cube/I-CUBE-HUAWEI/Drivers/BSP/Components/lis2mdl\lis2mdl_reg.c ****   lis2mdl_cfg_reg_a_t reg;
 2293              		.loc 1 655 1 is_stmt 0 view .LVU635
 2294 0000 70B5     		push	{r4, r5, r6, lr}
 2295              	.LCFI74:
 2296              		.cfi_def_cfa_offset 16
 2297              		.cfi_offset 4, -16
 2298              		.cfi_offset 5, -12
 2299              		.cfi_offset 6, -8
 2300              		.cfi_offset 14, -4
 2301 0002 82B0     		sub	sp, sp, #8
 2302              	.LCFI75:
 2303              		.cfi_def_cfa_offset 24
 655:D:/fchai/work/i-cube/I-CUBE-HUAWEI/Drivers/BSP/Components/lis2mdl\lis2mdl_reg.c ****   lis2mdl_cfg_reg_a_t reg;
 2304              		.loc 1 655 1 view .LVU636
 2305 0004 0446     		mov	r4, r0
 2306              	.LVL182:
 2307              	.LBB274:
 2308              	.LBI274:
  49:D:/fchai/work/i-cube/I-CUBE-HUAWEI/Drivers/BSP/Components/lis2mdl\lis2mdl_reg.c ****                          uint16_t len)
 2309              		.loc 1 49 9 is_stmt 1 view .LVU637
 2310              	.LBB275:
  52:D:/fchai/work/i-cube/I-CUBE-HUAWEI/Drivers/BSP/Components/lis2mdl\lis2mdl_reg.c ****   ret = ctx->read_reg(ctx->handle, reg, data, len);
 2311              		.loc 1 52 3 view .LVU638
  53:D:/fchai/work/i-cube/I-CUBE-HUAWEI/Drivers/BSP/Components/lis2mdl\lis2mdl_reg.c ****   return ret;
 2312              		.loc 1 53 3 view .LVU639
 2313              	.LBE275:
 2314              	.LBE274:
 655:D:/fchai/work/i-cube/I-CUBE-HUAWEI/Drivers/BSP/Components/lis2mdl\lis2mdl_reg.c ****   lis2mdl_cfg_reg_a_t reg;
 2315              		.loc 1 655 1 is_stmt 0 view .LVU640
 2316 0006 0D46     		mov	r5, r1
 2317              	.LBB277:
 2318              	.LBB276:
  53:D:/fchai/work/i-cube/I-CUBE-HUAWEI/Drivers/BSP/Components/lis2mdl\lis2mdl_reg.c ****   return ret;
 2319              		.loc 1 53 9 view .LVU641
 2320 0008 D0E90160 		ldrd	r6, r0, [r0, #4]
 2321              	.LVL183:
  53:D:/fchai/work/i-cube/I-CUBE-HUAWEI/Drivers/BSP/Components/lis2mdl\lis2mdl_reg.c ****   return ret;
 2322              		.loc 1 53 9 view .LVU642
 2323 000c 01AA     		add	r2, sp, #4
 2324              	.LVL184:
  53:D:/fchai/work/i-cube/I-CUBE-HUAWEI/Drivers/BSP/Components/lis2mdl\lis2mdl_reg.c ****   return ret;
 2325              		.loc 1 53 9 view .LVU643
 2326 000e 0123     		movs	r3, #1
 2327 0010 6021     		movs	r1, #96
 2328              	.LVL185:
  53:D:/fchai/work/i-cube/I-CUBE-HUAWEI/Drivers/BSP/Components/lis2mdl\lis2mdl_reg.c ****   return ret;
 2329              		.loc 1 53 9 view .LVU644
 2330 0012 B047     		blx	r6
 2331              	.LVL186:
  54:D:/fchai/work/i-cube/I-CUBE-HUAWEI/Drivers/BSP/Components/lis2mdl\lis2mdl_reg.c **** }
 2332              		.loc 1 54 3 is_stmt 1 view .LVU645
ARM GAS  T:\msys\tmp\cct7nJJy.s 			page 59


  54:D:/fchai/work/i-cube/I-CUBE-HUAWEI/Drivers/BSP/Components/lis2mdl\lis2mdl_reg.c **** }
 2333              		.loc 1 54 3 is_stmt 0 view .LVU646
 2334              	.LBE276:
 2335              	.LBE277:
 660:D:/fchai/work/i-cube/I-CUBE-HUAWEI/Drivers/BSP/Components/lis2mdl\lis2mdl_reg.c **** 
 661:D:/fchai/work/i-cube/I-CUBE-HUAWEI/Drivers/BSP/Components/lis2mdl\lis2mdl_reg.c ****   if(ret == 0){
 2336              		.loc 1 661 3 is_stmt 1 view .LVU647
 2337              		.loc 1 661 5 is_stmt 0 view .LVU648
 2338 0014 58B9     		cbnz	r0, .L76
 662:D:/fchai/work/i-cube/I-CUBE-HUAWEI/Drivers/BSP/Components/lis2mdl\lis2mdl_reg.c ****     reg.soft_rst = val;
 2339              		.loc 1 662 5 is_stmt 1 view .LVU649
 2340              		.loc 1 662 18 is_stmt 0 view .LVU650
 2341 0016 9DF80430 		ldrb	r3, [sp, #4]	@ zero_extendqisi2
 2342              	.LBB278:
 2343              	.LBB279:
  71:D:/fchai/work/i-cube/I-CUBE-HUAWEI/Drivers/BSP/Components/lis2mdl\lis2mdl_reg.c ****   return ret;
 2344              		.loc 1 71 9 view .LVU651
 2345 001a 2668     		ldr	r6, [r4]
 2346 001c A068     		ldr	r0, [r4, #8]
 2347              	.LVL187:
  71:D:/fchai/work/i-cube/I-CUBE-HUAWEI/Drivers/BSP/Components/lis2mdl\lis2mdl_reg.c ****   return ret;
 2348              		.loc 1 71 9 view .LVU652
 2349              	.LBE279:
 2350              	.LBE278:
 2351              		.loc 1 662 18 view .LVU653
 2352 001e 65F34513 		bfi	r3, r5, #5, #1
 2353 0022 8DF80430 		strb	r3, [sp, #4]
 663:D:/fchai/work/i-cube/I-CUBE-HUAWEI/Drivers/BSP/Components/lis2mdl\lis2mdl_reg.c ****     ret = lis2mdl_write_reg(ctx, LIS2MDL_CFG_REG_A, (uint8_t*)&reg, 1);
 2354              		.loc 1 663 5 is_stmt 1 view .LVU654
 2355              	.LVL188:
 2356              	.LBB281:
 2357              	.LBI278:
  67:D:/fchai/work/i-cube/I-CUBE-HUAWEI/Drivers/BSP/Components/lis2mdl\lis2mdl_reg.c ****                           uint16_t len)
 2358              		.loc 1 67 9 view .LVU655
 2359              	.LBB280:
  70:D:/fchai/work/i-cube/I-CUBE-HUAWEI/Drivers/BSP/Components/lis2mdl\lis2mdl_reg.c ****   ret = ctx->write_reg(ctx->handle, reg, data, len);
 2360              		.loc 1 70 3 view .LVU656
  71:D:/fchai/work/i-cube/I-CUBE-HUAWEI/Drivers/BSP/Components/lis2mdl\lis2mdl_reg.c ****   return ret;
 2361              		.loc 1 71 3 view .LVU657
  71:D:/fchai/work/i-cube/I-CUBE-HUAWEI/Drivers/BSP/Components/lis2mdl\lis2mdl_reg.c ****   return ret;
 2362              		.loc 1 71 9 is_stmt 0 view .LVU658
 2363 0026 01AA     		add	r2, sp, #4
 2364              	.LVL189:
  71:D:/fchai/work/i-cube/I-CUBE-HUAWEI/Drivers/BSP/Components/lis2mdl\lis2mdl_reg.c ****   return ret;
 2365              		.loc 1 71 9 view .LVU659
 2366 0028 0123     		movs	r3, #1
 2367 002a 6021     		movs	r1, #96
 2368 002c B047     		blx	r6
 2369              	.LVL190:
  72:D:/fchai/work/i-cube/I-CUBE-HUAWEI/Drivers/BSP/Components/lis2mdl\lis2mdl_reg.c **** }
 2370              		.loc 1 72 3 is_stmt 1 view .LVU660
  72:D:/fchai/work/i-cube/I-CUBE-HUAWEI/Drivers/BSP/Components/lis2mdl\lis2mdl_reg.c **** }
 2371              		.loc 1 72 3 is_stmt 0 view .LVU661
 2372              	.LBE280:
 2373              	.LBE281:
 664:D:/fchai/work/i-cube/I-CUBE-HUAWEI/Drivers/BSP/Components/lis2mdl\lis2mdl_reg.c ****   }
 665:D:/fchai/work/i-cube/I-CUBE-HUAWEI/Drivers/BSP/Components/lis2mdl\lis2mdl_reg.c **** 
ARM GAS  T:\msys\tmp\cct7nJJy.s 			page 60


 666:D:/fchai/work/i-cube/I-CUBE-HUAWEI/Drivers/BSP/Components/lis2mdl\lis2mdl_reg.c ****   return ret;
 2374              		.loc 1 666 3 is_stmt 1 view .LVU662
 2375              	.L76:
 667:D:/fchai/work/i-cube/I-CUBE-HUAWEI/Drivers/BSP/Components/lis2mdl\lis2mdl_reg.c **** }
 2376              		.loc 1 667 1 is_stmt 0 view .LVU663
 2377 002e 02B0     		add	sp, sp, #8
 2378              	.LCFI76:
 2379              		.cfi_def_cfa_offset 16
 2380              		@ sp needed
 2381 0030 70BD     		pop	{r4, r5, r6, pc}
 2382              		.loc 1 667 1 view .LVU664
 2383              		.cfi_endproc
 2384              	.LFE27:
 2386 0032 00BF     		.section	.text.lis2mdl_reset_get,"ax",%progbits
 2387              		.align	1
 2388              		.p2align 2,,3
 2389              		.global	lis2mdl_reset_get
 2390              		.syntax unified
 2391              		.thumb
 2392              		.thumb_func
 2393              		.fpu fpv4-sp-d16
 2395              	lis2mdl_reset_get:
 2396              	.LVL191:
 2397              	.LFB28:
 668:D:/fchai/work/i-cube/I-CUBE-HUAWEI/Drivers/BSP/Components/lis2mdl\lis2mdl_reg.c **** 
 669:D:/fchai/work/i-cube/I-CUBE-HUAWEI/Drivers/BSP/Components/lis2mdl\lis2mdl_reg.c **** /**
 670:D:/fchai/work/i-cube/I-CUBE-HUAWEI/Drivers/BSP/Components/lis2mdl\lis2mdl_reg.c ****   * @brief  Software reset. Restore the default values in user registers.[get]
 671:D:/fchai/work/i-cube/I-CUBE-HUAWEI/Drivers/BSP/Components/lis2mdl\lis2mdl_reg.c ****   *
 672:D:/fchai/work/i-cube/I-CUBE-HUAWEI/Drivers/BSP/Components/lis2mdl\lis2mdl_reg.c ****   * @param  ctx   read / write interface definitions.(ptr)
 673:D:/fchai/work/i-cube/I-CUBE-HUAWEI/Drivers/BSP/Components/lis2mdl\lis2mdl_reg.c ****   * @param  val   change the values of soft_rst in reg CFG_REG_A.(ptr)
 674:D:/fchai/work/i-cube/I-CUBE-HUAWEI/Drivers/BSP/Components/lis2mdl\lis2mdl_reg.c ****   * @retval       interface status.(MANDATORY: return 0 -> no Error)
 675:D:/fchai/work/i-cube/I-CUBE-HUAWEI/Drivers/BSP/Components/lis2mdl\lis2mdl_reg.c ****   *
 676:D:/fchai/work/i-cube/I-CUBE-HUAWEI/Drivers/BSP/Components/lis2mdl\lis2mdl_reg.c ****   */
 677:D:/fchai/work/i-cube/I-CUBE-HUAWEI/Drivers/BSP/Components/lis2mdl\lis2mdl_reg.c **** int32_t lis2mdl_reset_get(stmdev_ctx_t *ctx, uint8_t *val)
 678:D:/fchai/work/i-cube/I-CUBE-HUAWEI/Drivers/BSP/Components/lis2mdl\lis2mdl_reg.c **** {
 2398              		.loc 1 678 1 is_stmt 1 view -0
 2399              		.cfi_startproc
 2400              		@ args = 0, pretend = 0, frame = 8
 2401              		@ frame_needed = 0, uses_anonymous_args = 0
 679:D:/fchai/work/i-cube/I-CUBE-HUAWEI/Drivers/BSP/Components/lis2mdl\lis2mdl_reg.c ****   lis2mdl_cfg_reg_a_t reg;
 2402              		.loc 1 679 3 view .LVU666
 680:D:/fchai/work/i-cube/I-CUBE-HUAWEI/Drivers/BSP/Components/lis2mdl\lis2mdl_reg.c ****   int32_t ret;
 2403              		.loc 1 680 3 view .LVU667
 681:D:/fchai/work/i-cube/I-CUBE-HUAWEI/Drivers/BSP/Components/lis2mdl\lis2mdl_reg.c **** 
 682:D:/fchai/work/i-cube/I-CUBE-HUAWEI/Drivers/BSP/Components/lis2mdl\lis2mdl_reg.c ****   ret = lis2mdl_read_reg(ctx, LIS2MDL_CFG_REG_A, (uint8_t*)&reg, 1);
 2404              		.loc 1 682 3 view .LVU668
 678:D:/fchai/work/i-cube/I-CUBE-HUAWEI/Drivers/BSP/Components/lis2mdl\lis2mdl_reg.c ****   lis2mdl_cfg_reg_a_t reg;
 2405              		.loc 1 678 1 is_stmt 0 view .LVU669
 2406 0000 30B5     		push	{r4, r5, lr}
 2407              	.LCFI77:
 2408              		.cfi_def_cfa_offset 12
 2409              		.cfi_offset 4, -12
 2410              		.cfi_offset 5, -8
 2411              		.cfi_offset 14, -4
 2412 0002 83B0     		sub	sp, sp, #12
 2413              	.LCFI78:
 2414              		.cfi_def_cfa_offset 24
ARM GAS  T:\msys\tmp\cct7nJJy.s 			page 61


 2415              	.LVL192:
 2416              	.LBB282:
 2417              	.LBI282:
  49:D:/fchai/work/i-cube/I-CUBE-HUAWEI/Drivers/BSP/Components/lis2mdl\lis2mdl_reg.c ****                          uint16_t len)
 2418              		.loc 1 49 9 is_stmt 1 view .LVU670
 2419              	.LBB283:
  52:D:/fchai/work/i-cube/I-CUBE-HUAWEI/Drivers/BSP/Components/lis2mdl\lis2mdl_reg.c ****   ret = ctx->read_reg(ctx->handle, reg, data, len);
 2420              		.loc 1 52 3 view .LVU671
  53:D:/fchai/work/i-cube/I-CUBE-HUAWEI/Drivers/BSP/Components/lis2mdl\lis2mdl_reg.c ****   return ret;
 2421              		.loc 1 53 3 view .LVU672
 2422              	.LBE283:
 2423              	.LBE282:
 678:D:/fchai/work/i-cube/I-CUBE-HUAWEI/Drivers/BSP/Components/lis2mdl\lis2mdl_reg.c ****   lis2mdl_cfg_reg_a_t reg;
 2424              		.loc 1 678 1 is_stmt 0 view .LVU673
 2425 0004 0C46     		mov	r4, r1
 2426              	.LBB285:
 2427              	.LBB284:
  53:D:/fchai/work/i-cube/I-CUBE-HUAWEI/Drivers/BSP/Components/lis2mdl\lis2mdl_reg.c ****   return ret;
 2428              		.loc 1 53 9 view .LVU674
 2429 0006 D0E90150 		ldrd	r5, r0, [r0, #4]
 2430              	.LVL193:
  53:D:/fchai/work/i-cube/I-CUBE-HUAWEI/Drivers/BSP/Components/lis2mdl\lis2mdl_reg.c ****   return ret;
 2431              		.loc 1 53 9 view .LVU675
 2432 000a 0123     		movs	r3, #1
 2433 000c 01AA     		add	r2, sp, #4
 2434              	.LVL194:
  53:D:/fchai/work/i-cube/I-CUBE-HUAWEI/Drivers/BSP/Components/lis2mdl\lis2mdl_reg.c ****   return ret;
 2435              		.loc 1 53 9 view .LVU676
 2436 000e 6021     		movs	r1, #96
 2437              	.LVL195:
  53:D:/fchai/work/i-cube/I-CUBE-HUAWEI/Drivers/BSP/Components/lis2mdl\lis2mdl_reg.c ****   return ret;
 2438              		.loc 1 53 9 view .LVU677
 2439 0010 A847     		blx	r5
 2440              	.LVL196:
  54:D:/fchai/work/i-cube/I-CUBE-HUAWEI/Drivers/BSP/Components/lis2mdl\lis2mdl_reg.c **** }
 2441              		.loc 1 54 3 is_stmt 1 view .LVU678
  54:D:/fchai/work/i-cube/I-CUBE-HUAWEI/Drivers/BSP/Components/lis2mdl\lis2mdl_reg.c **** }
 2442              		.loc 1 54 3 is_stmt 0 view .LVU679
 2443              	.LBE284:
 2444              	.LBE285:
 683:D:/fchai/work/i-cube/I-CUBE-HUAWEI/Drivers/BSP/Components/lis2mdl\lis2mdl_reg.c ****   *val = reg.soft_rst;
 2445              		.loc 1 683 3 is_stmt 1 view .LVU680
 2446              		.loc 1 683 13 is_stmt 0 view .LVU681
 2447 0012 9DF80430 		ldrb	r3, [sp, #4]	@ zero_extendqisi2
 2448 0016 C3F34013 		ubfx	r3, r3, #5, #1
 2449              		.loc 1 683 8 view .LVU682
 2450 001a 2370     		strb	r3, [r4]
 684:D:/fchai/work/i-cube/I-CUBE-HUAWEI/Drivers/BSP/Components/lis2mdl\lis2mdl_reg.c **** 
 685:D:/fchai/work/i-cube/I-CUBE-HUAWEI/Drivers/BSP/Components/lis2mdl\lis2mdl_reg.c ****   return ret;
 2451              		.loc 1 685 3 is_stmt 1 view .LVU683
 686:D:/fchai/work/i-cube/I-CUBE-HUAWEI/Drivers/BSP/Components/lis2mdl\lis2mdl_reg.c **** }
 2452              		.loc 1 686 1 is_stmt 0 view .LVU684
 2453 001c 03B0     		add	sp, sp, #12
 2454              	.LCFI79:
 2455              		.cfi_def_cfa_offset 12
 2456              		@ sp needed
 2457 001e 30BD     		pop	{r4, r5, pc}
ARM GAS  T:\msys\tmp\cct7nJJy.s 			page 62


 2458              		.loc 1 686 1 view .LVU685
 2459              		.cfi_endproc
 2460              	.LFE28:
 2462              		.section	.text.lis2mdl_boot_set,"ax",%progbits
 2463              		.align	1
 2464              		.p2align 2,,3
 2465              		.global	lis2mdl_boot_set
 2466              		.syntax unified
 2467              		.thumb
 2468              		.thumb_func
 2469              		.fpu fpv4-sp-d16
 2471              	lis2mdl_boot_set:
 2472              	.LVL197:
 2473              	.LFB29:
 687:D:/fchai/work/i-cube/I-CUBE-HUAWEI/Drivers/BSP/Components/lis2mdl\lis2mdl_reg.c **** 
 688:D:/fchai/work/i-cube/I-CUBE-HUAWEI/Drivers/BSP/Components/lis2mdl\lis2mdl_reg.c **** /**
 689:D:/fchai/work/i-cube/I-CUBE-HUAWEI/Drivers/BSP/Components/lis2mdl\lis2mdl_reg.c ****   * @brief  Reboot memory content. Reload the calibration parameters.[set]
 690:D:/fchai/work/i-cube/I-CUBE-HUAWEI/Drivers/BSP/Components/lis2mdl\lis2mdl_reg.c ****   *
 691:D:/fchai/work/i-cube/I-CUBE-HUAWEI/Drivers/BSP/Components/lis2mdl\lis2mdl_reg.c ****   * @param  ctx   read / write interface definitions.(ptr)
 692:D:/fchai/work/i-cube/I-CUBE-HUAWEI/Drivers/BSP/Components/lis2mdl\lis2mdl_reg.c ****   * @param  val   change the values of reboot in reg CFG_REG_A
 693:D:/fchai/work/i-cube/I-CUBE-HUAWEI/Drivers/BSP/Components/lis2mdl\lis2mdl_reg.c ****   * @retval       interface status.(MANDATORY: return 0 -> no Error)
 694:D:/fchai/work/i-cube/I-CUBE-HUAWEI/Drivers/BSP/Components/lis2mdl\lis2mdl_reg.c ****   *
 695:D:/fchai/work/i-cube/I-CUBE-HUAWEI/Drivers/BSP/Components/lis2mdl\lis2mdl_reg.c ****   */
 696:D:/fchai/work/i-cube/I-CUBE-HUAWEI/Drivers/BSP/Components/lis2mdl\lis2mdl_reg.c **** int32_t lis2mdl_boot_set(stmdev_ctx_t *ctx, uint8_t val)
 697:D:/fchai/work/i-cube/I-CUBE-HUAWEI/Drivers/BSP/Components/lis2mdl\lis2mdl_reg.c **** {
 2474              		.loc 1 697 1 is_stmt 1 view -0
 2475              		.cfi_startproc
 2476              		@ args = 0, pretend = 0, frame = 8
 2477              		@ frame_needed = 0, uses_anonymous_args = 0
 698:D:/fchai/work/i-cube/I-CUBE-HUAWEI/Drivers/BSP/Components/lis2mdl\lis2mdl_reg.c ****   lis2mdl_cfg_reg_a_t reg;
 2478              		.loc 1 698 3 view .LVU687
 699:D:/fchai/work/i-cube/I-CUBE-HUAWEI/Drivers/BSP/Components/lis2mdl\lis2mdl_reg.c ****   int32_t ret;
 2479              		.loc 1 699 3 view .LVU688
 700:D:/fchai/work/i-cube/I-CUBE-HUAWEI/Drivers/BSP/Components/lis2mdl\lis2mdl_reg.c **** 
 701:D:/fchai/work/i-cube/I-CUBE-HUAWEI/Drivers/BSP/Components/lis2mdl\lis2mdl_reg.c ****   ret = lis2mdl_read_reg(ctx, LIS2MDL_CFG_REG_A, (uint8_t*)&reg, 1);
 2480              		.loc 1 701 3 view .LVU689
 697:D:/fchai/work/i-cube/I-CUBE-HUAWEI/Drivers/BSP/Components/lis2mdl\lis2mdl_reg.c ****   lis2mdl_cfg_reg_a_t reg;
 2481              		.loc 1 697 1 is_stmt 0 view .LVU690
 2482 0000 70B5     		push	{r4, r5, r6, lr}
 2483              	.LCFI80:
 2484              		.cfi_def_cfa_offset 16
 2485              		.cfi_offset 4, -16
 2486              		.cfi_offset 5, -12
 2487              		.cfi_offset 6, -8
 2488              		.cfi_offset 14, -4
 2489 0002 82B0     		sub	sp, sp, #8
 2490              	.LCFI81:
 2491              		.cfi_def_cfa_offset 24
 697:D:/fchai/work/i-cube/I-CUBE-HUAWEI/Drivers/BSP/Components/lis2mdl\lis2mdl_reg.c ****   lis2mdl_cfg_reg_a_t reg;
 2492              		.loc 1 697 1 view .LVU691
 2493 0004 0446     		mov	r4, r0
 2494              	.LVL198:
 2495              	.LBB286:
 2496              	.LBI286:
  49:D:/fchai/work/i-cube/I-CUBE-HUAWEI/Drivers/BSP/Components/lis2mdl\lis2mdl_reg.c ****                          uint16_t len)
 2497              		.loc 1 49 9 is_stmt 1 view .LVU692
 2498              	.LBB287:
ARM GAS  T:\msys\tmp\cct7nJJy.s 			page 63


  52:D:/fchai/work/i-cube/I-CUBE-HUAWEI/Drivers/BSP/Components/lis2mdl\lis2mdl_reg.c ****   ret = ctx->read_reg(ctx->handle, reg, data, len);
 2499              		.loc 1 52 3 view .LVU693
  53:D:/fchai/work/i-cube/I-CUBE-HUAWEI/Drivers/BSP/Components/lis2mdl\lis2mdl_reg.c ****   return ret;
 2500              		.loc 1 53 3 view .LVU694
 2501              	.LBE287:
 2502              	.LBE286:
 697:D:/fchai/work/i-cube/I-CUBE-HUAWEI/Drivers/BSP/Components/lis2mdl\lis2mdl_reg.c ****   lis2mdl_cfg_reg_a_t reg;
 2503              		.loc 1 697 1 is_stmt 0 view .LVU695
 2504 0006 0D46     		mov	r5, r1
 2505              	.LBB289:
 2506              	.LBB288:
  53:D:/fchai/work/i-cube/I-CUBE-HUAWEI/Drivers/BSP/Components/lis2mdl\lis2mdl_reg.c ****   return ret;
 2507              		.loc 1 53 9 view .LVU696
 2508 0008 D0E90160 		ldrd	r6, r0, [r0, #4]
 2509              	.LVL199:
  53:D:/fchai/work/i-cube/I-CUBE-HUAWEI/Drivers/BSP/Components/lis2mdl\lis2mdl_reg.c ****   return ret;
 2510              		.loc 1 53 9 view .LVU697
 2511 000c 01AA     		add	r2, sp, #4
 2512              	.LVL200:
  53:D:/fchai/work/i-cube/I-CUBE-HUAWEI/Drivers/BSP/Components/lis2mdl\lis2mdl_reg.c ****   return ret;
 2513              		.loc 1 53 9 view .LVU698
 2514 000e 0123     		movs	r3, #1
 2515 0010 6021     		movs	r1, #96
 2516              	.LVL201:
  53:D:/fchai/work/i-cube/I-CUBE-HUAWEI/Drivers/BSP/Components/lis2mdl\lis2mdl_reg.c ****   return ret;
 2517              		.loc 1 53 9 view .LVU699
 2518 0012 B047     		blx	r6
 2519              	.LVL202:
  54:D:/fchai/work/i-cube/I-CUBE-HUAWEI/Drivers/BSP/Components/lis2mdl\lis2mdl_reg.c **** }
 2520              		.loc 1 54 3 is_stmt 1 view .LVU700
  54:D:/fchai/work/i-cube/I-CUBE-HUAWEI/Drivers/BSP/Components/lis2mdl\lis2mdl_reg.c **** }
 2521              		.loc 1 54 3 is_stmt 0 view .LVU701
 2522              	.LBE288:
 2523              	.LBE289:
 702:D:/fchai/work/i-cube/I-CUBE-HUAWEI/Drivers/BSP/Components/lis2mdl\lis2mdl_reg.c **** 
 703:D:/fchai/work/i-cube/I-CUBE-HUAWEI/Drivers/BSP/Components/lis2mdl\lis2mdl_reg.c ****   if(ret == 0){
 2524              		.loc 1 703 3 is_stmt 1 view .LVU702
 2525              		.loc 1 703 5 is_stmt 0 view .LVU703
 2526 0014 58B9     		cbnz	r0, .L81
 704:D:/fchai/work/i-cube/I-CUBE-HUAWEI/Drivers/BSP/Components/lis2mdl\lis2mdl_reg.c ****     reg.reboot = val;
 2527              		.loc 1 704 5 is_stmt 1 view .LVU704
 2528              		.loc 1 704 16 is_stmt 0 view .LVU705
 2529 0016 9DF80430 		ldrb	r3, [sp, #4]	@ zero_extendqisi2
 2530              	.LBB290:
 2531              	.LBB291:
  71:D:/fchai/work/i-cube/I-CUBE-HUAWEI/Drivers/BSP/Components/lis2mdl\lis2mdl_reg.c ****   return ret;
 2532              		.loc 1 71 9 view .LVU706
 2533 001a 2668     		ldr	r6, [r4]
 2534 001c A068     		ldr	r0, [r4, #8]
 2535              	.LVL203:
  71:D:/fchai/work/i-cube/I-CUBE-HUAWEI/Drivers/BSP/Components/lis2mdl\lis2mdl_reg.c ****   return ret;
 2536              		.loc 1 71 9 view .LVU707
 2537              	.LBE291:
 2538              	.LBE290:
 2539              		.loc 1 704 16 view .LVU708
 2540 001e 65F38613 		bfi	r3, r5, #6, #1
 2541 0022 8DF80430 		strb	r3, [sp, #4]
ARM GAS  T:\msys\tmp\cct7nJJy.s 			page 64


 705:D:/fchai/work/i-cube/I-CUBE-HUAWEI/Drivers/BSP/Components/lis2mdl\lis2mdl_reg.c ****     ret = lis2mdl_write_reg(ctx, LIS2MDL_CFG_REG_A, (uint8_t*)&reg, 1);
 2542              		.loc 1 705 5 is_stmt 1 view .LVU709
 2543              	.LVL204:
 2544              	.LBB293:
 2545              	.LBI290:
  67:D:/fchai/work/i-cube/I-CUBE-HUAWEI/Drivers/BSP/Components/lis2mdl\lis2mdl_reg.c ****                           uint16_t len)
 2546              		.loc 1 67 9 view .LVU710
 2547              	.LBB292:
  70:D:/fchai/work/i-cube/I-CUBE-HUAWEI/Drivers/BSP/Components/lis2mdl\lis2mdl_reg.c ****   ret = ctx->write_reg(ctx->handle, reg, data, len);
 2548              		.loc 1 70 3 view .LVU711
  71:D:/fchai/work/i-cube/I-CUBE-HUAWEI/Drivers/BSP/Components/lis2mdl\lis2mdl_reg.c ****   return ret;
 2549              		.loc 1 71 3 view .LVU712
  71:D:/fchai/work/i-cube/I-CUBE-HUAWEI/Drivers/BSP/Components/lis2mdl\lis2mdl_reg.c ****   return ret;
 2550              		.loc 1 71 9 is_stmt 0 view .LVU713
 2551 0026 01AA     		add	r2, sp, #4
 2552              	.LVL205:
  71:D:/fchai/work/i-cube/I-CUBE-HUAWEI/Drivers/BSP/Components/lis2mdl\lis2mdl_reg.c ****   return ret;
 2553              		.loc 1 71 9 view .LVU714
 2554 0028 0123     		movs	r3, #1
 2555 002a 6021     		movs	r1, #96
 2556 002c B047     		blx	r6
 2557              	.LVL206:
  72:D:/fchai/work/i-cube/I-CUBE-HUAWEI/Drivers/BSP/Components/lis2mdl\lis2mdl_reg.c **** }
 2558              		.loc 1 72 3 is_stmt 1 view .LVU715
  72:D:/fchai/work/i-cube/I-CUBE-HUAWEI/Drivers/BSP/Components/lis2mdl\lis2mdl_reg.c **** }
 2559              		.loc 1 72 3 is_stmt 0 view .LVU716
 2560              	.LBE292:
 2561              	.LBE293:
 706:D:/fchai/work/i-cube/I-CUBE-HUAWEI/Drivers/BSP/Components/lis2mdl\lis2mdl_reg.c ****   }
 707:D:/fchai/work/i-cube/I-CUBE-HUAWEI/Drivers/BSP/Components/lis2mdl\lis2mdl_reg.c **** 
 708:D:/fchai/work/i-cube/I-CUBE-HUAWEI/Drivers/BSP/Components/lis2mdl\lis2mdl_reg.c ****   return ret;
 2562              		.loc 1 708 3 is_stmt 1 view .LVU717
 2563              	.L81:
 709:D:/fchai/work/i-cube/I-CUBE-HUAWEI/Drivers/BSP/Components/lis2mdl\lis2mdl_reg.c **** }
 2564              		.loc 1 709 1 is_stmt 0 view .LVU718
 2565 002e 02B0     		add	sp, sp, #8
 2566              	.LCFI82:
 2567              		.cfi_def_cfa_offset 16
 2568              		@ sp needed
 2569 0030 70BD     		pop	{r4, r5, r6, pc}
 2570              		.loc 1 709 1 view .LVU719
 2571              		.cfi_endproc
 2572              	.LFE29:
 2574 0032 00BF     		.section	.text.lis2mdl_boot_get,"ax",%progbits
 2575              		.align	1
 2576              		.p2align 2,,3
 2577              		.global	lis2mdl_boot_get
 2578              		.syntax unified
 2579              		.thumb
 2580              		.thumb_func
 2581              		.fpu fpv4-sp-d16
 2583              	lis2mdl_boot_get:
 2584              	.LVL207:
 2585              	.LFB30:
 710:D:/fchai/work/i-cube/I-CUBE-HUAWEI/Drivers/BSP/Components/lis2mdl\lis2mdl_reg.c **** 
 711:D:/fchai/work/i-cube/I-CUBE-HUAWEI/Drivers/BSP/Components/lis2mdl\lis2mdl_reg.c **** /**
 712:D:/fchai/work/i-cube/I-CUBE-HUAWEI/Drivers/BSP/Components/lis2mdl\lis2mdl_reg.c ****   * @brief  Reboot memory content. Reload the calibration parameters.[get]
ARM GAS  T:\msys\tmp\cct7nJJy.s 			page 65


 713:D:/fchai/work/i-cube/I-CUBE-HUAWEI/Drivers/BSP/Components/lis2mdl\lis2mdl_reg.c ****   *
 714:D:/fchai/work/i-cube/I-CUBE-HUAWEI/Drivers/BSP/Components/lis2mdl\lis2mdl_reg.c ****   * @param  ctx   read / write interface definitions.(ptr)
 715:D:/fchai/work/i-cube/I-CUBE-HUAWEI/Drivers/BSP/Components/lis2mdl\lis2mdl_reg.c ****   * @param  val   change the values of reboot in reg CFG_REG_A.(ptr)
 716:D:/fchai/work/i-cube/I-CUBE-HUAWEI/Drivers/BSP/Components/lis2mdl\lis2mdl_reg.c ****   * @retval       interface status.(MANDATORY: return 0 -> no Error)
 717:D:/fchai/work/i-cube/I-CUBE-HUAWEI/Drivers/BSP/Components/lis2mdl\lis2mdl_reg.c ****   *
 718:D:/fchai/work/i-cube/I-CUBE-HUAWEI/Drivers/BSP/Components/lis2mdl\lis2mdl_reg.c ****   */
 719:D:/fchai/work/i-cube/I-CUBE-HUAWEI/Drivers/BSP/Components/lis2mdl\lis2mdl_reg.c **** int32_t lis2mdl_boot_get(stmdev_ctx_t *ctx, uint8_t *val)
 720:D:/fchai/work/i-cube/I-CUBE-HUAWEI/Drivers/BSP/Components/lis2mdl\lis2mdl_reg.c **** {
 2586              		.loc 1 720 1 is_stmt 1 view -0
 2587              		.cfi_startproc
 2588              		@ args = 0, pretend = 0, frame = 8
 2589              		@ frame_needed = 0, uses_anonymous_args = 0
 721:D:/fchai/work/i-cube/I-CUBE-HUAWEI/Drivers/BSP/Components/lis2mdl\lis2mdl_reg.c ****   lis2mdl_cfg_reg_a_t reg;
 2590              		.loc 1 721 3 view .LVU721
 722:D:/fchai/work/i-cube/I-CUBE-HUAWEI/Drivers/BSP/Components/lis2mdl\lis2mdl_reg.c ****   int32_t ret;
 2591              		.loc 1 722 3 view .LVU722
 723:D:/fchai/work/i-cube/I-CUBE-HUAWEI/Drivers/BSP/Components/lis2mdl\lis2mdl_reg.c **** 
 724:D:/fchai/work/i-cube/I-CUBE-HUAWEI/Drivers/BSP/Components/lis2mdl\lis2mdl_reg.c ****   ret = lis2mdl_read_reg(ctx, LIS2MDL_CFG_REG_A, (uint8_t*)&reg, 1);
 2592              		.loc 1 724 3 view .LVU723
 720:D:/fchai/work/i-cube/I-CUBE-HUAWEI/Drivers/BSP/Components/lis2mdl\lis2mdl_reg.c ****   lis2mdl_cfg_reg_a_t reg;
 2593              		.loc 1 720 1 is_stmt 0 view .LVU724
 2594 0000 30B5     		push	{r4, r5, lr}
 2595              	.LCFI83:
 2596              		.cfi_def_cfa_offset 12
 2597              		.cfi_offset 4, -12
 2598              		.cfi_offset 5, -8
 2599              		.cfi_offset 14, -4
 2600 0002 83B0     		sub	sp, sp, #12
 2601              	.LCFI84:
 2602              		.cfi_def_cfa_offset 24
 2603              	.LVL208:
 2604              	.LBB294:
 2605              	.LBI294:
  49:D:/fchai/work/i-cube/I-CUBE-HUAWEI/Drivers/BSP/Components/lis2mdl\lis2mdl_reg.c ****                          uint16_t len)
 2606              		.loc 1 49 9 is_stmt 1 view .LVU725
 2607              	.LBB295:
  52:D:/fchai/work/i-cube/I-CUBE-HUAWEI/Drivers/BSP/Components/lis2mdl\lis2mdl_reg.c ****   ret = ctx->read_reg(ctx->handle, reg, data, len);
 2608              		.loc 1 52 3 view .LVU726
  53:D:/fchai/work/i-cube/I-CUBE-HUAWEI/Drivers/BSP/Components/lis2mdl\lis2mdl_reg.c ****   return ret;
 2609              		.loc 1 53 3 view .LVU727
 2610              	.LBE295:
 2611              	.LBE294:
 720:D:/fchai/work/i-cube/I-CUBE-HUAWEI/Drivers/BSP/Components/lis2mdl\lis2mdl_reg.c ****   lis2mdl_cfg_reg_a_t reg;
 2612              		.loc 1 720 1 is_stmt 0 view .LVU728
 2613 0004 0C46     		mov	r4, r1
 2614              	.LBB297:
 2615              	.LBB296:
  53:D:/fchai/work/i-cube/I-CUBE-HUAWEI/Drivers/BSP/Components/lis2mdl\lis2mdl_reg.c ****   return ret;
 2616              		.loc 1 53 9 view .LVU729
 2617 0006 D0E90150 		ldrd	r5, r0, [r0, #4]
 2618              	.LVL209:
  53:D:/fchai/work/i-cube/I-CUBE-HUAWEI/Drivers/BSP/Components/lis2mdl\lis2mdl_reg.c ****   return ret;
 2619              		.loc 1 53 9 view .LVU730
 2620 000a 0123     		movs	r3, #1
 2621 000c 01AA     		add	r2, sp, #4
 2622              	.LVL210:
  53:D:/fchai/work/i-cube/I-CUBE-HUAWEI/Drivers/BSP/Components/lis2mdl\lis2mdl_reg.c ****   return ret;
ARM GAS  T:\msys\tmp\cct7nJJy.s 			page 66


 2623              		.loc 1 53 9 view .LVU731
 2624 000e 6021     		movs	r1, #96
 2625              	.LVL211:
  53:D:/fchai/work/i-cube/I-CUBE-HUAWEI/Drivers/BSP/Components/lis2mdl\lis2mdl_reg.c ****   return ret;
 2626              		.loc 1 53 9 view .LVU732
 2627 0010 A847     		blx	r5
 2628              	.LVL212:
  54:D:/fchai/work/i-cube/I-CUBE-HUAWEI/Drivers/BSP/Components/lis2mdl\lis2mdl_reg.c **** }
 2629              		.loc 1 54 3 is_stmt 1 view .LVU733
  54:D:/fchai/work/i-cube/I-CUBE-HUAWEI/Drivers/BSP/Components/lis2mdl\lis2mdl_reg.c **** }
 2630              		.loc 1 54 3 is_stmt 0 view .LVU734
 2631              	.LBE296:
 2632              	.LBE297:
 725:D:/fchai/work/i-cube/I-CUBE-HUAWEI/Drivers/BSP/Components/lis2mdl\lis2mdl_reg.c ****   *val = reg.reboot;
 2633              		.loc 1 725 3 is_stmt 1 view .LVU735
 2634              		.loc 1 725 13 is_stmt 0 view .LVU736
 2635 0012 9DF80430 		ldrb	r3, [sp, #4]	@ zero_extendqisi2
 2636 0016 C3F38013 		ubfx	r3, r3, #6, #1
 2637              		.loc 1 725 8 view .LVU737
 2638 001a 2370     		strb	r3, [r4]
 726:D:/fchai/work/i-cube/I-CUBE-HUAWEI/Drivers/BSP/Components/lis2mdl\lis2mdl_reg.c **** 
 727:D:/fchai/work/i-cube/I-CUBE-HUAWEI/Drivers/BSP/Components/lis2mdl\lis2mdl_reg.c ****   return ret;
 2639              		.loc 1 727 3 is_stmt 1 view .LVU738
 728:D:/fchai/work/i-cube/I-CUBE-HUAWEI/Drivers/BSP/Components/lis2mdl\lis2mdl_reg.c **** }
 2640              		.loc 1 728 1 is_stmt 0 view .LVU739
 2641 001c 03B0     		add	sp, sp, #12
 2642              	.LCFI85:
 2643              		.cfi_def_cfa_offset 12
 2644              		@ sp needed
 2645 001e 30BD     		pop	{r4, r5, pc}
 2646              		.loc 1 728 1 view .LVU740
 2647              		.cfi_endproc
 2648              	.LFE30:
 2650              		.section	.text.lis2mdl_self_test_set,"ax",%progbits
 2651              		.align	1
 2652              		.p2align 2,,3
 2653              		.global	lis2mdl_self_test_set
 2654              		.syntax unified
 2655              		.thumb
 2656              		.thumb_func
 2657              		.fpu fpv4-sp-d16
 2659              	lis2mdl_self_test_set:
 2660              	.LVL213:
 2661              	.LFB31:
 729:D:/fchai/work/i-cube/I-CUBE-HUAWEI/Drivers/BSP/Components/lis2mdl\lis2mdl_reg.c **** 
 730:D:/fchai/work/i-cube/I-CUBE-HUAWEI/Drivers/BSP/Components/lis2mdl\lis2mdl_reg.c **** /**
 731:D:/fchai/work/i-cube/I-CUBE-HUAWEI/Drivers/BSP/Components/lis2mdl\lis2mdl_reg.c ****   * @brief  Selftest.[set]
 732:D:/fchai/work/i-cube/I-CUBE-HUAWEI/Drivers/BSP/Components/lis2mdl\lis2mdl_reg.c ****   *
 733:D:/fchai/work/i-cube/I-CUBE-HUAWEI/Drivers/BSP/Components/lis2mdl\lis2mdl_reg.c ****   * @param  ctx   read / write interface definitions.(ptr)
 734:D:/fchai/work/i-cube/I-CUBE-HUAWEI/Drivers/BSP/Components/lis2mdl\lis2mdl_reg.c ****   * @param  val   change the values of self_test in reg CFG_REG_C
 735:D:/fchai/work/i-cube/I-CUBE-HUAWEI/Drivers/BSP/Components/lis2mdl\lis2mdl_reg.c ****   * @retval       interface status.(MANDATORY: return 0 -> no Error)
 736:D:/fchai/work/i-cube/I-CUBE-HUAWEI/Drivers/BSP/Components/lis2mdl\lis2mdl_reg.c ****   *
 737:D:/fchai/work/i-cube/I-CUBE-HUAWEI/Drivers/BSP/Components/lis2mdl\lis2mdl_reg.c ****   */
 738:D:/fchai/work/i-cube/I-CUBE-HUAWEI/Drivers/BSP/Components/lis2mdl\lis2mdl_reg.c **** int32_t lis2mdl_self_test_set(stmdev_ctx_t *ctx, uint8_t val)
 739:D:/fchai/work/i-cube/I-CUBE-HUAWEI/Drivers/BSP/Components/lis2mdl\lis2mdl_reg.c **** {
 2662              		.loc 1 739 1 is_stmt 1 view -0
 2663              		.cfi_startproc
ARM GAS  T:\msys\tmp\cct7nJJy.s 			page 67


 2664              		@ args = 0, pretend = 0, frame = 8
 2665              		@ frame_needed = 0, uses_anonymous_args = 0
 740:D:/fchai/work/i-cube/I-CUBE-HUAWEI/Drivers/BSP/Components/lis2mdl\lis2mdl_reg.c ****   lis2mdl_cfg_reg_c_t reg;
 2666              		.loc 1 740 3 view .LVU742
 741:D:/fchai/work/i-cube/I-CUBE-HUAWEI/Drivers/BSP/Components/lis2mdl\lis2mdl_reg.c ****   int32_t ret;
 2667              		.loc 1 741 3 view .LVU743
 742:D:/fchai/work/i-cube/I-CUBE-HUAWEI/Drivers/BSP/Components/lis2mdl\lis2mdl_reg.c **** 
 743:D:/fchai/work/i-cube/I-CUBE-HUAWEI/Drivers/BSP/Components/lis2mdl\lis2mdl_reg.c ****   ret = lis2mdl_read_reg(ctx, LIS2MDL_CFG_REG_C, (uint8_t*)&reg, 1);
 2668              		.loc 1 743 3 view .LVU744
 739:D:/fchai/work/i-cube/I-CUBE-HUAWEI/Drivers/BSP/Components/lis2mdl\lis2mdl_reg.c ****   lis2mdl_cfg_reg_c_t reg;
 2669              		.loc 1 739 1 is_stmt 0 view .LVU745
 2670 0000 70B5     		push	{r4, r5, r6, lr}
 2671              	.LCFI86:
 2672              		.cfi_def_cfa_offset 16
 2673              		.cfi_offset 4, -16
 2674              		.cfi_offset 5, -12
 2675              		.cfi_offset 6, -8
 2676              		.cfi_offset 14, -4
 2677 0002 82B0     		sub	sp, sp, #8
 2678              	.LCFI87:
 2679              		.cfi_def_cfa_offset 24
 739:D:/fchai/work/i-cube/I-CUBE-HUAWEI/Drivers/BSP/Components/lis2mdl\lis2mdl_reg.c ****   lis2mdl_cfg_reg_c_t reg;
 2680              		.loc 1 739 1 view .LVU746
 2681 0004 0446     		mov	r4, r0
 2682              	.LVL214:
 2683              	.LBB298:
 2684              	.LBI298:
  49:D:/fchai/work/i-cube/I-CUBE-HUAWEI/Drivers/BSP/Components/lis2mdl\lis2mdl_reg.c ****                          uint16_t len)
 2685              		.loc 1 49 9 is_stmt 1 view .LVU747
 2686              	.LBB299:
  52:D:/fchai/work/i-cube/I-CUBE-HUAWEI/Drivers/BSP/Components/lis2mdl\lis2mdl_reg.c ****   ret = ctx->read_reg(ctx->handle, reg, data, len);
 2687              		.loc 1 52 3 view .LVU748
  53:D:/fchai/work/i-cube/I-CUBE-HUAWEI/Drivers/BSP/Components/lis2mdl\lis2mdl_reg.c ****   return ret;
 2688              		.loc 1 53 3 view .LVU749
 2689              	.LBE299:
 2690              	.LBE298:
 739:D:/fchai/work/i-cube/I-CUBE-HUAWEI/Drivers/BSP/Components/lis2mdl\lis2mdl_reg.c ****   lis2mdl_cfg_reg_c_t reg;
 2691              		.loc 1 739 1 is_stmt 0 view .LVU750
 2692 0006 0D46     		mov	r5, r1
 2693              	.LBB301:
 2694              	.LBB300:
  53:D:/fchai/work/i-cube/I-CUBE-HUAWEI/Drivers/BSP/Components/lis2mdl\lis2mdl_reg.c ****   return ret;
 2695              		.loc 1 53 9 view .LVU751
 2696 0008 D0E90160 		ldrd	r6, r0, [r0, #4]
 2697              	.LVL215:
  53:D:/fchai/work/i-cube/I-CUBE-HUAWEI/Drivers/BSP/Components/lis2mdl\lis2mdl_reg.c ****   return ret;
 2698              		.loc 1 53 9 view .LVU752
 2699 000c 01AA     		add	r2, sp, #4
 2700              	.LVL216:
  53:D:/fchai/work/i-cube/I-CUBE-HUAWEI/Drivers/BSP/Components/lis2mdl\lis2mdl_reg.c ****   return ret;
 2701              		.loc 1 53 9 view .LVU753
 2702 000e 0123     		movs	r3, #1
 2703 0010 6221     		movs	r1, #98
 2704              	.LVL217:
  53:D:/fchai/work/i-cube/I-CUBE-HUAWEI/Drivers/BSP/Components/lis2mdl\lis2mdl_reg.c ****   return ret;
 2705              		.loc 1 53 9 view .LVU754
 2706 0012 B047     		blx	r6
ARM GAS  T:\msys\tmp\cct7nJJy.s 			page 68


 2707              	.LVL218:
  54:D:/fchai/work/i-cube/I-CUBE-HUAWEI/Drivers/BSP/Components/lis2mdl\lis2mdl_reg.c **** }
 2708              		.loc 1 54 3 is_stmt 1 view .LVU755
  54:D:/fchai/work/i-cube/I-CUBE-HUAWEI/Drivers/BSP/Components/lis2mdl\lis2mdl_reg.c **** }
 2709              		.loc 1 54 3 is_stmt 0 view .LVU756
 2710              	.LBE300:
 2711              	.LBE301:
 744:D:/fchai/work/i-cube/I-CUBE-HUAWEI/Drivers/BSP/Components/lis2mdl\lis2mdl_reg.c **** 
 745:D:/fchai/work/i-cube/I-CUBE-HUAWEI/Drivers/BSP/Components/lis2mdl\lis2mdl_reg.c ****   if(ret == 0){
 2712              		.loc 1 745 3 is_stmt 1 view .LVU757
 2713              		.loc 1 745 5 is_stmt 0 view .LVU758
 2714 0014 58B9     		cbnz	r0, .L86
 746:D:/fchai/work/i-cube/I-CUBE-HUAWEI/Drivers/BSP/Components/lis2mdl\lis2mdl_reg.c ****     reg.self_test = val;
 2715              		.loc 1 746 5 is_stmt 1 view .LVU759
 2716              		.loc 1 746 19 is_stmt 0 view .LVU760
 2717 0016 9DF80430 		ldrb	r3, [sp, #4]	@ zero_extendqisi2
 2718              	.LBB302:
 2719              	.LBB303:
  71:D:/fchai/work/i-cube/I-CUBE-HUAWEI/Drivers/BSP/Components/lis2mdl\lis2mdl_reg.c ****   return ret;
 2720              		.loc 1 71 9 view .LVU761
 2721 001a 2668     		ldr	r6, [r4]
 2722 001c A068     		ldr	r0, [r4, #8]
 2723              	.LVL219:
  71:D:/fchai/work/i-cube/I-CUBE-HUAWEI/Drivers/BSP/Components/lis2mdl\lis2mdl_reg.c ****   return ret;
 2724              		.loc 1 71 9 view .LVU762
 2725              	.LBE303:
 2726              	.LBE302:
 2727              		.loc 1 746 19 view .LVU763
 2728 001e 65F34103 		bfi	r3, r5, #1, #1
 2729 0022 8DF80430 		strb	r3, [sp, #4]
 747:D:/fchai/work/i-cube/I-CUBE-HUAWEI/Drivers/BSP/Components/lis2mdl\lis2mdl_reg.c ****     ret = lis2mdl_write_reg(ctx, LIS2MDL_CFG_REG_C, (uint8_t*)&reg, 1);
 2730              		.loc 1 747 5 is_stmt 1 view .LVU764
 2731              	.LVL220:
 2732              	.LBB305:
 2733              	.LBI302:
  67:D:/fchai/work/i-cube/I-CUBE-HUAWEI/Drivers/BSP/Components/lis2mdl\lis2mdl_reg.c ****                           uint16_t len)
 2734              		.loc 1 67 9 view .LVU765
 2735              	.LBB304:
  70:D:/fchai/work/i-cube/I-CUBE-HUAWEI/Drivers/BSP/Components/lis2mdl\lis2mdl_reg.c ****   ret = ctx->write_reg(ctx->handle, reg, data, len);
 2736              		.loc 1 70 3 view .LVU766
  71:D:/fchai/work/i-cube/I-CUBE-HUAWEI/Drivers/BSP/Components/lis2mdl\lis2mdl_reg.c ****   return ret;
 2737              		.loc 1 71 3 view .LVU767
  71:D:/fchai/work/i-cube/I-CUBE-HUAWEI/Drivers/BSP/Components/lis2mdl\lis2mdl_reg.c ****   return ret;
 2738              		.loc 1 71 9 is_stmt 0 view .LVU768
 2739 0026 01AA     		add	r2, sp, #4
 2740              	.LVL221:
  71:D:/fchai/work/i-cube/I-CUBE-HUAWEI/Drivers/BSP/Components/lis2mdl\lis2mdl_reg.c ****   return ret;
 2741              		.loc 1 71 9 view .LVU769
 2742 0028 0123     		movs	r3, #1
 2743 002a 6221     		movs	r1, #98
 2744 002c B047     		blx	r6
 2745              	.LVL222:
  72:D:/fchai/work/i-cube/I-CUBE-HUAWEI/Drivers/BSP/Components/lis2mdl\lis2mdl_reg.c **** }
 2746              		.loc 1 72 3 is_stmt 1 view .LVU770
  72:D:/fchai/work/i-cube/I-CUBE-HUAWEI/Drivers/BSP/Components/lis2mdl\lis2mdl_reg.c **** }
 2747              		.loc 1 72 3 is_stmt 0 view .LVU771
 2748              	.LBE304:
ARM GAS  T:\msys\tmp\cct7nJJy.s 			page 69


 2749              	.LBE305:
 748:D:/fchai/work/i-cube/I-CUBE-HUAWEI/Drivers/BSP/Components/lis2mdl\lis2mdl_reg.c ****   }
 749:D:/fchai/work/i-cube/I-CUBE-HUAWEI/Drivers/BSP/Components/lis2mdl\lis2mdl_reg.c **** 
 750:D:/fchai/work/i-cube/I-CUBE-HUAWEI/Drivers/BSP/Components/lis2mdl\lis2mdl_reg.c ****   return ret;
 2750              		.loc 1 750 3 is_stmt 1 view .LVU772
 2751              	.L86:
 751:D:/fchai/work/i-cube/I-CUBE-HUAWEI/Drivers/BSP/Components/lis2mdl\lis2mdl_reg.c **** }
 2752              		.loc 1 751 1 is_stmt 0 view .LVU773
 2753 002e 02B0     		add	sp, sp, #8
 2754              	.LCFI88:
 2755              		.cfi_def_cfa_offset 16
 2756              		@ sp needed
 2757 0030 70BD     		pop	{r4, r5, r6, pc}
 2758              		.loc 1 751 1 view .LVU774
 2759              		.cfi_endproc
 2760              	.LFE31:
 2762 0032 00BF     		.section	.text.lis2mdl_self_test_get,"ax",%progbits
 2763              		.align	1
 2764              		.p2align 2,,3
 2765              		.global	lis2mdl_self_test_get
 2766              		.syntax unified
 2767              		.thumb
 2768              		.thumb_func
 2769              		.fpu fpv4-sp-d16
 2771              	lis2mdl_self_test_get:
 2772              	.LVL223:
 2773              	.LFB32:
 752:D:/fchai/work/i-cube/I-CUBE-HUAWEI/Drivers/BSP/Components/lis2mdl\lis2mdl_reg.c **** 
 753:D:/fchai/work/i-cube/I-CUBE-HUAWEI/Drivers/BSP/Components/lis2mdl\lis2mdl_reg.c **** /**
 754:D:/fchai/work/i-cube/I-CUBE-HUAWEI/Drivers/BSP/Components/lis2mdl\lis2mdl_reg.c ****   * @brief  Selftest.[get]
 755:D:/fchai/work/i-cube/I-CUBE-HUAWEI/Drivers/BSP/Components/lis2mdl\lis2mdl_reg.c ****   *
 756:D:/fchai/work/i-cube/I-CUBE-HUAWEI/Drivers/BSP/Components/lis2mdl\lis2mdl_reg.c ****   * @param  ctx   read / write interface definitions.(ptr)
 757:D:/fchai/work/i-cube/I-CUBE-HUAWEI/Drivers/BSP/Components/lis2mdl\lis2mdl_reg.c ****   * @param  val   change the values of self_test in reg CFG_REG_C.(ptr)
 758:D:/fchai/work/i-cube/I-CUBE-HUAWEI/Drivers/BSP/Components/lis2mdl\lis2mdl_reg.c ****   * @retval       interface status.(MANDATORY: return 0 -> no Error)
 759:D:/fchai/work/i-cube/I-CUBE-HUAWEI/Drivers/BSP/Components/lis2mdl\lis2mdl_reg.c ****   *
 760:D:/fchai/work/i-cube/I-CUBE-HUAWEI/Drivers/BSP/Components/lis2mdl\lis2mdl_reg.c ****   */
 761:D:/fchai/work/i-cube/I-CUBE-HUAWEI/Drivers/BSP/Components/lis2mdl\lis2mdl_reg.c **** int32_t lis2mdl_self_test_get(stmdev_ctx_t *ctx, uint8_t *val)
 762:D:/fchai/work/i-cube/I-CUBE-HUAWEI/Drivers/BSP/Components/lis2mdl\lis2mdl_reg.c **** {
 2774              		.loc 1 762 1 is_stmt 1 view -0
 2775              		.cfi_startproc
 2776              		@ args = 0, pretend = 0, frame = 8
 2777              		@ frame_needed = 0, uses_anonymous_args = 0
 763:D:/fchai/work/i-cube/I-CUBE-HUAWEI/Drivers/BSP/Components/lis2mdl\lis2mdl_reg.c ****   lis2mdl_cfg_reg_c_t reg;
 2778              		.loc 1 763 3 view .LVU776
 764:D:/fchai/work/i-cube/I-CUBE-HUAWEI/Drivers/BSP/Components/lis2mdl\lis2mdl_reg.c ****   int32_t ret;
 2779              		.loc 1 764 3 view .LVU777
 765:D:/fchai/work/i-cube/I-CUBE-HUAWEI/Drivers/BSP/Components/lis2mdl\lis2mdl_reg.c **** 
 766:D:/fchai/work/i-cube/I-CUBE-HUAWEI/Drivers/BSP/Components/lis2mdl\lis2mdl_reg.c ****   ret = lis2mdl_read_reg(ctx, LIS2MDL_CFG_REG_C, (uint8_t*)&reg, 1);
 2780              		.loc 1 766 3 view .LVU778
 762:D:/fchai/work/i-cube/I-CUBE-HUAWEI/Drivers/BSP/Components/lis2mdl\lis2mdl_reg.c ****   lis2mdl_cfg_reg_c_t reg;
 2781              		.loc 1 762 1 is_stmt 0 view .LVU779
 2782 0000 30B5     		push	{r4, r5, lr}
 2783              	.LCFI89:
 2784              		.cfi_def_cfa_offset 12
 2785              		.cfi_offset 4, -12
 2786              		.cfi_offset 5, -8
 2787              		.cfi_offset 14, -4
ARM GAS  T:\msys\tmp\cct7nJJy.s 			page 70


 2788 0002 83B0     		sub	sp, sp, #12
 2789              	.LCFI90:
 2790              		.cfi_def_cfa_offset 24
 2791              	.LVL224:
 2792              	.LBB306:
 2793              	.LBI306:
  49:D:/fchai/work/i-cube/I-CUBE-HUAWEI/Drivers/BSP/Components/lis2mdl\lis2mdl_reg.c ****                          uint16_t len)
 2794              		.loc 1 49 9 is_stmt 1 view .LVU780
 2795              	.LBB307:
  52:D:/fchai/work/i-cube/I-CUBE-HUAWEI/Drivers/BSP/Components/lis2mdl\lis2mdl_reg.c ****   ret = ctx->read_reg(ctx->handle, reg, data, len);
 2796              		.loc 1 52 3 view .LVU781
  53:D:/fchai/work/i-cube/I-CUBE-HUAWEI/Drivers/BSP/Components/lis2mdl\lis2mdl_reg.c ****   return ret;
 2797              		.loc 1 53 3 view .LVU782
 2798              	.LBE307:
 2799              	.LBE306:
 762:D:/fchai/work/i-cube/I-CUBE-HUAWEI/Drivers/BSP/Components/lis2mdl\lis2mdl_reg.c ****   lis2mdl_cfg_reg_c_t reg;
 2800              		.loc 1 762 1 is_stmt 0 view .LVU783
 2801 0004 0C46     		mov	r4, r1
 2802              	.LBB309:
 2803              	.LBB308:
  53:D:/fchai/work/i-cube/I-CUBE-HUAWEI/Drivers/BSP/Components/lis2mdl\lis2mdl_reg.c ****   return ret;
 2804              		.loc 1 53 9 view .LVU784
 2805 0006 D0E90150 		ldrd	r5, r0, [r0, #4]
 2806              	.LVL225:
  53:D:/fchai/work/i-cube/I-CUBE-HUAWEI/Drivers/BSP/Components/lis2mdl\lis2mdl_reg.c ****   return ret;
 2807              		.loc 1 53 9 view .LVU785
 2808 000a 0123     		movs	r3, #1
 2809 000c 01AA     		add	r2, sp, #4
 2810              	.LVL226:
  53:D:/fchai/work/i-cube/I-CUBE-HUAWEI/Drivers/BSP/Components/lis2mdl\lis2mdl_reg.c ****   return ret;
 2811              		.loc 1 53 9 view .LVU786
 2812 000e 6221     		movs	r1, #98
 2813              	.LVL227:
  53:D:/fchai/work/i-cube/I-CUBE-HUAWEI/Drivers/BSP/Components/lis2mdl\lis2mdl_reg.c ****   return ret;
 2814              		.loc 1 53 9 view .LVU787
 2815 0010 A847     		blx	r5
 2816              	.LVL228:
  54:D:/fchai/work/i-cube/I-CUBE-HUAWEI/Drivers/BSP/Components/lis2mdl\lis2mdl_reg.c **** }
 2817              		.loc 1 54 3 is_stmt 1 view .LVU788
  54:D:/fchai/work/i-cube/I-CUBE-HUAWEI/Drivers/BSP/Components/lis2mdl\lis2mdl_reg.c **** }
 2818              		.loc 1 54 3 is_stmt 0 view .LVU789
 2819              	.LBE308:
 2820              	.LBE309:
 767:D:/fchai/work/i-cube/I-CUBE-HUAWEI/Drivers/BSP/Components/lis2mdl\lis2mdl_reg.c ****   *val = reg.self_test;
 2821              		.loc 1 767 3 is_stmt 1 view .LVU790
 2822              		.loc 1 767 13 is_stmt 0 view .LVU791
 2823 0012 9DF80430 		ldrb	r3, [sp, #4]	@ zero_extendqisi2
 2824 0016 C3F34003 		ubfx	r3, r3, #1, #1
 2825              		.loc 1 767 8 view .LVU792
 2826 001a 2370     		strb	r3, [r4]
 768:D:/fchai/work/i-cube/I-CUBE-HUAWEI/Drivers/BSP/Components/lis2mdl\lis2mdl_reg.c **** 
 769:D:/fchai/work/i-cube/I-CUBE-HUAWEI/Drivers/BSP/Components/lis2mdl\lis2mdl_reg.c ****   return ret;
 2827              		.loc 1 769 3 is_stmt 1 view .LVU793
 770:D:/fchai/work/i-cube/I-CUBE-HUAWEI/Drivers/BSP/Components/lis2mdl\lis2mdl_reg.c **** }
 2828              		.loc 1 770 1 is_stmt 0 view .LVU794
 2829 001c 03B0     		add	sp, sp, #12
 2830              	.LCFI91:
ARM GAS  T:\msys\tmp\cct7nJJy.s 			page 71


 2831              		.cfi_def_cfa_offset 12
 2832              		@ sp needed
 2833 001e 30BD     		pop	{r4, r5, pc}
 2834              		.loc 1 770 1 view .LVU795
 2835              		.cfi_endproc
 2836              	.LFE32:
 2838              		.section	.text.lis2mdl_data_format_set,"ax",%progbits
 2839              		.align	1
 2840              		.p2align 2,,3
 2841              		.global	lis2mdl_data_format_set
 2842              		.syntax unified
 2843              		.thumb
 2844              		.thumb_func
 2845              		.fpu fpv4-sp-d16
 2847              	lis2mdl_data_format_set:
 2848              	.LVL229:
 2849              	.LFB33:
 771:D:/fchai/work/i-cube/I-CUBE-HUAWEI/Drivers/BSP/Components/lis2mdl\lis2mdl_reg.c **** 
 772:D:/fchai/work/i-cube/I-CUBE-HUAWEI/Drivers/BSP/Components/lis2mdl\lis2mdl_reg.c **** /**
 773:D:/fchai/work/i-cube/I-CUBE-HUAWEI/Drivers/BSP/Components/lis2mdl\lis2mdl_reg.c ****   * @brief  Big/Little Endian data selection.[set]
 774:D:/fchai/work/i-cube/I-CUBE-HUAWEI/Drivers/BSP/Components/lis2mdl\lis2mdl_reg.c ****   *
 775:D:/fchai/work/i-cube/I-CUBE-HUAWEI/Drivers/BSP/Components/lis2mdl\lis2mdl_reg.c ****   * @param  ctx   read / write interface definitions.(ptr)
 776:D:/fchai/work/i-cube/I-CUBE-HUAWEI/Drivers/BSP/Components/lis2mdl\lis2mdl_reg.c ****   * @param  val   change the values of ble in reg CFG_REG_C
 777:D:/fchai/work/i-cube/I-CUBE-HUAWEI/Drivers/BSP/Components/lis2mdl\lis2mdl_reg.c ****   * @retval       interface status.(MANDATORY: return 0 -> no Error)
 778:D:/fchai/work/i-cube/I-CUBE-HUAWEI/Drivers/BSP/Components/lis2mdl\lis2mdl_reg.c ****   *
 779:D:/fchai/work/i-cube/I-CUBE-HUAWEI/Drivers/BSP/Components/lis2mdl\lis2mdl_reg.c ****   */
 780:D:/fchai/work/i-cube/I-CUBE-HUAWEI/Drivers/BSP/Components/lis2mdl\lis2mdl_reg.c **** int32_t lis2mdl_data_format_set(stmdev_ctx_t *ctx, lis2mdl_ble_t val)
 781:D:/fchai/work/i-cube/I-CUBE-HUAWEI/Drivers/BSP/Components/lis2mdl\lis2mdl_reg.c **** {
 2850              		.loc 1 781 1 is_stmt 1 view -0
 2851              		.cfi_startproc
 2852              		@ args = 0, pretend = 0, frame = 8
 2853              		@ frame_needed = 0, uses_anonymous_args = 0
 782:D:/fchai/work/i-cube/I-CUBE-HUAWEI/Drivers/BSP/Components/lis2mdl\lis2mdl_reg.c ****   lis2mdl_cfg_reg_c_t reg;
 2854              		.loc 1 782 3 view .LVU797
 783:D:/fchai/work/i-cube/I-CUBE-HUAWEI/Drivers/BSP/Components/lis2mdl\lis2mdl_reg.c ****   int32_t ret;
 2855              		.loc 1 783 3 view .LVU798
 784:D:/fchai/work/i-cube/I-CUBE-HUAWEI/Drivers/BSP/Components/lis2mdl\lis2mdl_reg.c **** 
 785:D:/fchai/work/i-cube/I-CUBE-HUAWEI/Drivers/BSP/Components/lis2mdl\lis2mdl_reg.c ****   ret = lis2mdl_read_reg(ctx, LIS2MDL_CFG_REG_C, (uint8_t*)&reg, 1);
 2856              		.loc 1 785 3 view .LVU799
 781:D:/fchai/work/i-cube/I-CUBE-HUAWEI/Drivers/BSP/Components/lis2mdl\lis2mdl_reg.c ****   lis2mdl_cfg_reg_c_t reg;
 2857              		.loc 1 781 1 is_stmt 0 view .LVU800
 2858 0000 70B5     		push	{r4, r5, r6, lr}
 2859              	.LCFI92:
 2860              		.cfi_def_cfa_offset 16
 2861              		.cfi_offset 4, -16
 2862              		.cfi_offset 5, -12
 2863              		.cfi_offset 6, -8
 2864              		.cfi_offset 14, -4
 2865 0002 82B0     		sub	sp, sp, #8
 2866              	.LCFI93:
 2867              		.cfi_def_cfa_offset 24
 781:D:/fchai/work/i-cube/I-CUBE-HUAWEI/Drivers/BSP/Components/lis2mdl\lis2mdl_reg.c ****   lis2mdl_cfg_reg_c_t reg;
 2868              		.loc 1 781 1 view .LVU801
 2869 0004 0446     		mov	r4, r0
 2870              	.LVL230:
 2871              	.LBB310:
 2872              	.LBI310:
ARM GAS  T:\msys\tmp\cct7nJJy.s 			page 72


  49:D:/fchai/work/i-cube/I-CUBE-HUAWEI/Drivers/BSP/Components/lis2mdl\lis2mdl_reg.c ****                          uint16_t len)
 2873              		.loc 1 49 9 is_stmt 1 view .LVU802
 2874              	.LBB311:
  52:D:/fchai/work/i-cube/I-CUBE-HUAWEI/Drivers/BSP/Components/lis2mdl\lis2mdl_reg.c ****   ret = ctx->read_reg(ctx->handle, reg, data, len);
 2875              		.loc 1 52 3 view .LVU803
  53:D:/fchai/work/i-cube/I-CUBE-HUAWEI/Drivers/BSP/Components/lis2mdl\lis2mdl_reg.c ****   return ret;
 2876              		.loc 1 53 3 view .LVU804
 2877              	.LBE311:
 2878              	.LBE310:
 781:D:/fchai/work/i-cube/I-CUBE-HUAWEI/Drivers/BSP/Components/lis2mdl\lis2mdl_reg.c ****   lis2mdl_cfg_reg_c_t reg;
 2879              		.loc 1 781 1 is_stmt 0 view .LVU805
 2880 0006 0D46     		mov	r5, r1
 2881              	.LBB313:
 2882              	.LBB312:
  53:D:/fchai/work/i-cube/I-CUBE-HUAWEI/Drivers/BSP/Components/lis2mdl\lis2mdl_reg.c ****   return ret;
 2883              		.loc 1 53 9 view .LVU806
 2884 0008 D0E90160 		ldrd	r6, r0, [r0, #4]
 2885              	.LVL231:
  53:D:/fchai/work/i-cube/I-CUBE-HUAWEI/Drivers/BSP/Components/lis2mdl\lis2mdl_reg.c ****   return ret;
 2886              		.loc 1 53 9 view .LVU807
 2887 000c 01AA     		add	r2, sp, #4
 2888              	.LVL232:
  53:D:/fchai/work/i-cube/I-CUBE-HUAWEI/Drivers/BSP/Components/lis2mdl\lis2mdl_reg.c ****   return ret;
 2889              		.loc 1 53 9 view .LVU808
 2890 000e 0123     		movs	r3, #1
 2891 0010 6221     		movs	r1, #98
 2892              	.LVL233:
  53:D:/fchai/work/i-cube/I-CUBE-HUAWEI/Drivers/BSP/Components/lis2mdl\lis2mdl_reg.c ****   return ret;
 2893              		.loc 1 53 9 view .LVU809
 2894 0012 B047     		blx	r6
 2895              	.LVL234:
  54:D:/fchai/work/i-cube/I-CUBE-HUAWEI/Drivers/BSP/Components/lis2mdl\lis2mdl_reg.c **** }
 2896              		.loc 1 54 3 is_stmt 1 view .LVU810
  54:D:/fchai/work/i-cube/I-CUBE-HUAWEI/Drivers/BSP/Components/lis2mdl\lis2mdl_reg.c **** }
 2897              		.loc 1 54 3 is_stmt 0 view .LVU811
 2898              	.LBE312:
 2899              	.LBE313:
 786:D:/fchai/work/i-cube/I-CUBE-HUAWEI/Drivers/BSP/Components/lis2mdl\lis2mdl_reg.c **** 
 787:D:/fchai/work/i-cube/I-CUBE-HUAWEI/Drivers/BSP/Components/lis2mdl\lis2mdl_reg.c ****   if(ret == 0){
 2900              		.loc 1 787 3 is_stmt 1 view .LVU812
 2901              		.loc 1 787 5 is_stmt 0 view .LVU813
 2902 0014 58B9     		cbnz	r0, .L91
 788:D:/fchai/work/i-cube/I-CUBE-HUAWEI/Drivers/BSP/Components/lis2mdl\lis2mdl_reg.c ****     reg.ble = (uint8_t)val;
 2903              		.loc 1 788 5 is_stmt 1 view .LVU814
 2904              		.loc 1 788 13 is_stmt 0 view .LVU815
 2905 0016 9DF80430 		ldrb	r3, [sp, #4]	@ zero_extendqisi2
 2906              	.LBB314:
 2907              	.LBB315:
  71:D:/fchai/work/i-cube/I-CUBE-HUAWEI/Drivers/BSP/Components/lis2mdl\lis2mdl_reg.c ****   return ret;
 2908              		.loc 1 71 9 view .LVU816
 2909 001a 2668     		ldr	r6, [r4]
 2910 001c A068     		ldr	r0, [r4, #8]
 2911              	.LVL235:
  71:D:/fchai/work/i-cube/I-CUBE-HUAWEI/Drivers/BSP/Components/lis2mdl\lis2mdl_reg.c ****   return ret;
 2912              		.loc 1 71 9 view .LVU817
 2913              	.LBE315:
 2914              	.LBE314:
ARM GAS  T:\msys\tmp\cct7nJJy.s 			page 73


 2915              		.loc 1 788 13 view .LVU818
 2916 001e 65F3C303 		bfi	r3, r5, #3, #1
 2917 0022 8DF80430 		strb	r3, [sp, #4]
 789:D:/fchai/work/i-cube/I-CUBE-HUAWEI/Drivers/BSP/Components/lis2mdl\lis2mdl_reg.c ****     ret = lis2mdl_write_reg(ctx, LIS2MDL_CFG_REG_C, (uint8_t*)&reg, 1);
 2918              		.loc 1 789 5 is_stmt 1 view .LVU819
 2919              	.LVL236:
 2920              	.LBB317:
 2921              	.LBI314:
  67:D:/fchai/work/i-cube/I-CUBE-HUAWEI/Drivers/BSP/Components/lis2mdl\lis2mdl_reg.c ****                           uint16_t len)
 2922              		.loc 1 67 9 view .LVU820
 2923              	.LBB316:
  70:D:/fchai/work/i-cube/I-CUBE-HUAWEI/Drivers/BSP/Components/lis2mdl\lis2mdl_reg.c ****   ret = ctx->write_reg(ctx->handle, reg, data, len);
 2924              		.loc 1 70 3 view .LVU821
  71:D:/fchai/work/i-cube/I-CUBE-HUAWEI/Drivers/BSP/Components/lis2mdl\lis2mdl_reg.c ****   return ret;
 2925              		.loc 1 71 3 view .LVU822
  71:D:/fchai/work/i-cube/I-CUBE-HUAWEI/Drivers/BSP/Components/lis2mdl\lis2mdl_reg.c ****   return ret;
 2926              		.loc 1 71 9 is_stmt 0 view .LVU823
 2927 0026 01AA     		add	r2, sp, #4
 2928              	.LVL237:
  71:D:/fchai/work/i-cube/I-CUBE-HUAWEI/Drivers/BSP/Components/lis2mdl\lis2mdl_reg.c ****   return ret;
 2929              		.loc 1 71 9 view .LVU824
 2930 0028 0123     		movs	r3, #1
 2931 002a 6221     		movs	r1, #98
 2932 002c B047     		blx	r6
 2933              	.LVL238:
  72:D:/fchai/work/i-cube/I-CUBE-HUAWEI/Drivers/BSP/Components/lis2mdl\lis2mdl_reg.c **** }
 2934              		.loc 1 72 3 is_stmt 1 view .LVU825
  72:D:/fchai/work/i-cube/I-CUBE-HUAWEI/Drivers/BSP/Components/lis2mdl\lis2mdl_reg.c **** }
 2935              		.loc 1 72 3 is_stmt 0 view .LVU826
 2936              	.LBE316:
 2937              	.LBE317:
 790:D:/fchai/work/i-cube/I-CUBE-HUAWEI/Drivers/BSP/Components/lis2mdl\lis2mdl_reg.c ****   }
 791:D:/fchai/work/i-cube/I-CUBE-HUAWEI/Drivers/BSP/Components/lis2mdl\lis2mdl_reg.c **** 
 792:D:/fchai/work/i-cube/I-CUBE-HUAWEI/Drivers/BSP/Components/lis2mdl\lis2mdl_reg.c ****   return ret;
 2938              		.loc 1 792 3 is_stmt 1 view .LVU827
 2939              	.L91:
 793:D:/fchai/work/i-cube/I-CUBE-HUAWEI/Drivers/BSP/Components/lis2mdl\lis2mdl_reg.c **** }
 2940              		.loc 1 793 1 is_stmt 0 view .LVU828
 2941 002e 02B0     		add	sp, sp, #8
 2942              	.LCFI94:
 2943              		.cfi_def_cfa_offset 16
 2944              		@ sp needed
 2945 0030 70BD     		pop	{r4, r5, r6, pc}
 2946              		.loc 1 793 1 view .LVU829
 2947              		.cfi_endproc
 2948              	.LFE33:
 2950 0032 00BF     		.section	.text.lis2mdl_data_format_get,"ax",%progbits
 2951              		.align	1
 2952              		.p2align 2,,3
 2953              		.global	lis2mdl_data_format_get
 2954              		.syntax unified
 2955              		.thumb
 2956              		.thumb_func
 2957              		.fpu fpv4-sp-d16
 2959              	lis2mdl_data_format_get:
 2960              	.LVL239:
 2961              	.LFB34:
ARM GAS  T:\msys\tmp\cct7nJJy.s 			page 74


 794:D:/fchai/work/i-cube/I-CUBE-HUAWEI/Drivers/BSP/Components/lis2mdl\lis2mdl_reg.c **** 
 795:D:/fchai/work/i-cube/I-CUBE-HUAWEI/Drivers/BSP/Components/lis2mdl\lis2mdl_reg.c **** /**
 796:D:/fchai/work/i-cube/I-CUBE-HUAWEI/Drivers/BSP/Components/lis2mdl\lis2mdl_reg.c ****   * @brief  Big/Little Endian data selection.[get]
 797:D:/fchai/work/i-cube/I-CUBE-HUAWEI/Drivers/BSP/Components/lis2mdl\lis2mdl_reg.c ****   *
 798:D:/fchai/work/i-cube/I-CUBE-HUAWEI/Drivers/BSP/Components/lis2mdl\lis2mdl_reg.c ****   * @param  ctx   read / write interface definitions.(ptr)
 799:D:/fchai/work/i-cube/I-CUBE-HUAWEI/Drivers/BSP/Components/lis2mdl\lis2mdl_reg.c ****   * @param  val   Get the values of ble in reg CFG_REG_C.(ptr)
 800:D:/fchai/work/i-cube/I-CUBE-HUAWEI/Drivers/BSP/Components/lis2mdl\lis2mdl_reg.c ****   * @retval       interface status.(MANDATORY: return 0 -> no Error)
 801:D:/fchai/work/i-cube/I-CUBE-HUAWEI/Drivers/BSP/Components/lis2mdl\lis2mdl_reg.c ****   *
 802:D:/fchai/work/i-cube/I-CUBE-HUAWEI/Drivers/BSP/Components/lis2mdl\lis2mdl_reg.c ****   */
 803:D:/fchai/work/i-cube/I-CUBE-HUAWEI/Drivers/BSP/Components/lis2mdl\lis2mdl_reg.c **** int32_t lis2mdl_data_format_get(stmdev_ctx_t *ctx, lis2mdl_ble_t *val)
 804:D:/fchai/work/i-cube/I-CUBE-HUAWEI/Drivers/BSP/Components/lis2mdl\lis2mdl_reg.c **** {
 2962              		.loc 1 804 1 is_stmt 1 view -0
 2963              		.cfi_startproc
 2964              		@ args = 0, pretend = 0, frame = 8
 2965              		@ frame_needed = 0, uses_anonymous_args = 0
 805:D:/fchai/work/i-cube/I-CUBE-HUAWEI/Drivers/BSP/Components/lis2mdl\lis2mdl_reg.c ****   lis2mdl_cfg_reg_c_t reg;
 2966              		.loc 1 805 3 view .LVU831
 806:D:/fchai/work/i-cube/I-CUBE-HUAWEI/Drivers/BSP/Components/lis2mdl\lis2mdl_reg.c ****   int32_t ret;
 2967              		.loc 1 806 3 view .LVU832
 807:D:/fchai/work/i-cube/I-CUBE-HUAWEI/Drivers/BSP/Components/lis2mdl\lis2mdl_reg.c **** 
 808:D:/fchai/work/i-cube/I-CUBE-HUAWEI/Drivers/BSP/Components/lis2mdl\lis2mdl_reg.c ****   ret = lis2mdl_read_reg(ctx, LIS2MDL_CFG_REG_C, (uint8_t*)&reg, 1);
 2968              		.loc 1 808 3 view .LVU833
 804:D:/fchai/work/i-cube/I-CUBE-HUAWEI/Drivers/BSP/Components/lis2mdl\lis2mdl_reg.c ****   lis2mdl_cfg_reg_c_t reg;
 2969              		.loc 1 804 1 is_stmt 0 view .LVU834
 2970 0000 30B5     		push	{r4, r5, lr}
 2971              	.LCFI95:
 2972              		.cfi_def_cfa_offset 12
 2973              		.cfi_offset 4, -12
 2974              		.cfi_offset 5, -8
 2975              		.cfi_offset 14, -4
 2976 0002 83B0     		sub	sp, sp, #12
 2977              	.LCFI96:
 2978              		.cfi_def_cfa_offset 24
 2979              	.LVL240:
 2980              	.LBB318:
 2981              	.LBI318:
  49:D:/fchai/work/i-cube/I-CUBE-HUAWEI/Drivers/BSP/Components/lis2mdl\lis2mdl_reg.c ****                          uint16_t len)
 2982              		.loc 1 49 9 is_stmt 1 view .LVU835
 2983              	.LBB319:
  52:D:/fchai/work/i-cube/I-CUBE-HUAWEI/Drivers/BSP/Components/lis2mdl\lis2mdl_reg.c ****   ret = ctx->read_reg(ctx->handle, reg, data, len);
 2984              		.loc 1 52 3 view .LVU836
  53:D:/fchai/work/i-cube/I-CUBE-HUAWEI/Drivers/BSP/Components/lis2mdl\lis2mdl_reg.c ****   return ret;
 2985              		.loc 1 53 3 view .LVU837
 2986              	.LBE319:
 2987              	.LBE318:
 804:D:/fchai/work/i-cube/I-CUBE-HUAWEI/Drivers/BSP/Components/lis2mdl\lis2mdl_reg.c ****   lis2mdl_cfg_reg_c_t reg;
 2988              		.loc 1 804 1 is_stmt 0 view .LVU838
 2989 0004 0C46     		mov	r4, r1
 2990              	.LBB322:
 2991              	.LBB320:
  53:D:/fchai/work/i-cube/I-CUBE-HUAWEI/Drivers/BSP/Components/lis2mdl\lis2mdl_reg.c ****   return ret;
 2992              		.loc 1 53 9 view .LVU839
 2993 0006 01AA     		add	r2, sp, #4
 2994              	.LVL241:
  53:D:/fchai/work/i-cube/I-CUBE-HUAWEI/Drivers/BSP/Components/lis2mdl\lis2mdl_reg.c ****   return ret;
 2995              		.loc 1 53 9 view .LVU840
 2996 0008 D0E90150 		ldrd	r5, r0, [r0, #4]
ARM GAS  T:\msys\tmp\cct7nJJy.s 			page 75


 2997              	.LVL242:
  53:D:/fchai/work/i-cube/I-CUBE-HUAWEI/Drivers/BSP/Components/lis2mdl\lis2mdl_reg.c ****   return ret;
 2998              		.loc 1 53 9 view .LVU841
 2999 000c 0123     		movs	r3, #1
 3000 000e 6221     		movs	r1, #98
 3001              	.LVL243:
  53:D:/fchai/work/i-cube/I-CUBE-HUAWEI/Drivers/BSP/Components/lis2mdl\lis2mdl_reg.c ****   return ret;
 3002              		.loc 1 53 9 view .LVU842
 3003 0010 A847     		blx	r5
 3004              	.LVL244:
  53:D:/fchai/work/i-cube/I-CUBE-HUAWEI/Drivers/BSP/Components/lis2mdl\lis2mdl_reg.c ****   return ret;
 3005              		.loc 1 53 9 view .LVU843
 3006              	.LBE320:
 3007              	.LBE322:
 809:D:/fchai/work/i-cube/I-CUBE-HUAWEI/Drivers/BSP/Components/lis2mdl\lis2mdl_reg.c ****   switch (reg.ble){
 3008              		.loc 1 809 14 view .LVU844
 3009 0012 9DF80430 		ldrb	r3, [sp, #4]	@ zero_extendqisi2
 3010              	.LVL245:
 3011              	.LBB323:
 3012              	.LBB321:
  54:D:/fchai/work/i-cube/I-CUBE-HUAWEI/Drivers/BSP/Components/lis2mdl\lis2mdl_reg.c **** }
 3013              		.loc 1 54 3 is_stmt 1 view .LVU845
  54:D:/fchai/work/i-cube/I-CUBE-HUAWEI/Drivers/BSP/Components/lis2mdl\lis2mdl_reg.c **** }
 3014              		.loc 1 54 3 is_stmt 0 view .LVU846
 3015              	.LBE321:
 3016              	.LBE323:
 3017              		.loc 1 809 3 is_stmt 1 view .LVU847
 3018              		.loc 1 809 14 is_stmt 0 view .LVU848
 3019 0016 C3F3C002 		ubfx	r2, r3, #3, #1
 3020              		.loc 1 809 3 view .LVU849
 3021 001a 1B07     		lsls	r3, r3, #28
 810:D:/fchai/work/i-cube/I-CUBE-HUAWEI/Drivers/BSP/Components/lis2mdl\lis2mdl_reg.c ****     case LIS2MDL_LSB_AT_LOW_ADD:
 811:D:/fchai/work/i-cube/I-CUBE-HUAWEI/Drivers/BSP/Components/lis2mdl\lis2mdl_reg.c ****       *val = LIS2MDL_LSB_AT_LOW_ADD;
 3022              		.loc 1 811 7 is_stmt 1 view .LVU850
 3023              		.loc 1 811 12 is_stmt 0 view .LVU851
 3024 001c 5ABF     		itte	pl
 3025 001e 0023     		movpl	r3, #0
 3026 0020 2370     		strbpl	r3, [r4]
 812:D:/fchai/work/i-cube/I-CUBE-HUAWEI/Drivers/BSP/Components/lis2mdl\lis2mdl_reg.c ****       break;
 3027              		.loc 1 812 7 is_stmt 1 view .LVU852
 813:D:/fchai/work/i-cube/I-CUBE-HUAWEI/Drivers/BSP/Components/lis2mdl\lis2mdl_reg.c ****     case LIS2MDL_MSB_AT_LOW_ADD:
 814:D:/fchai/work/i-cube/I-CUBE-HUAWEI/Drivers/BSP/Components/lis2mdl\lis2mdl_reg.c ****       *val = LIS2MDL_MSB_AT_LOW_ADD;
 3028              		.loc 1 814 7 view .LVU853
 3029              		.loc 1 814 12 is_stmt 0 view .LVU854
 3030 0022 2270     		strbmi	r2, [r4]
 815:D:/fchai/work/i-cube/I-CUBE-HUAWEI/Drivers/BSP/Components/lis2mdl\lis2mdl_reg.c ****       break;
 3031              		.loc 1 815 7 is_stmt 1 view .LVU855
 816:D:/fchai/work/i-cube/I-CUBE-HUAWEI/Drivers/BSP/Components/lis2mdl\lis2mdl_reg.c ****     default:
 817:D:/fchai/work/i-cube/I-CUBE-HUAWEI/Drivers/BSP/Components/lis2mdl\lis2mdl_reg.c ****       *val = LIS2MDL_LSB_AT_LOW_ADD;
 818:D:/fchai/work/i-cube/I-CUBE-HUAWEI/Drivers/BSP/Components/lis2mdl\lis2mdl_reg.c ****       break;
 819:D:/fchai/work/i-cube/I-CUBE-HUAWEI/Drivers/BSP/Components/lis2mdl\lis2mdl_reg.c ****   }
 820:D:/fchai/work/i-cube/I-CUBE-HUAWEI/Drivers/BSP/Components/lis2mdl\lis2mdl_reg.c ****   return ret;
 3032              		.loc 1 820 3 view .LVU856
 821:D:/fchai/work/i-cube/I-CUBE-HUAWEI/Drivers/BSP/Components/lis2mdl\lis2mdl_reg.c **** }
 3033              		.loc 1 821 1 is_stmt 0 view .LVU857
 3034 0024 03B0     		add	sp, sp, #12
 3035              	.LCFI97:
ARM GAS  T:\msys\tmp\cct7nJJy.s 			page 76


 3036              		.cfi_def_cfa_offset 12
 3037              		@ sp needed
 3038 0026 30BD     		pop	{r4, r5, pc}
 3039              		.loc 1 821 1 view .LVU858
 3040              		.cfi_endproc
 3041              	.LFE34:
 3043              		.section	.text.lis2mdl_status_get,"ax",%progbits
 3044              		.align	1
 3045              		.p2align 2,,3
 3046              		.global	lis2mdl_status_get
 3047              		.syntax unified
 3048              		.thumb
 3049              		.thumb_func
 3050              		.fpu fpv4-sp-d16
 3052              	lis2mdl_status_get:
 3053              	.LVL246:
 3054              	.LFB35:
 822:D:/fchai/work/i-cube/I-CUBE-HUAWEI/Drivers/BSP/Components/lis2mdl\lis2mdl_reg.c **** 
 823:D:/fchai/work/i-cube/I-CUBE-HUAWEI/Drivers/BSP/Components/lis2mdl\lis2mdl_reg.c **** /**
 824:D:/fchai/work/i-cube/I-CUBE-HUAWEI/Drivers/BSP/Components/lis2mdl\lis2mdl_reg.c ****   * @brief  Info about device status.[get]
 825:D:/fchai/work/i-cube/I-CUBE-HUAWEI/Drivers/BSP/Components/lis2mdl\lis2mdl_reg.c ****   *
 826:D:/fchai/work/i-cube/I-CUBE-HUAWEI/Drivers/BSP/Components/lis2mdl\lis2mdl_reg.c ****   * @param  ctx   read / write interface definitions.(ptr)
 827:D:/fchai/work/i-cube/I-CUBE-HUAWEI/Drivers/BSP/Components/lis2mdl\lis2mdl_reg.c ****   * @param  val   registers STATUS_REG.(ptr)
 828:D:/fchai/work/i-cube/I-CUBE-HUAWEI/Drivers/BSP/Components/lis2mdl\lis2mdl_reg.c ****   * @retval       interface status.(MANDATORY: return 0 -> no Error)
 829:D:/fchai/work/i-cube/I-CUBE-HUAWEI/Drivers/BSP/Components/lis2mdl\lis2mdl_reg.c ****   *
 830:D:/fchai/work/i-cube/I-CUBE-HUAWEI/Drivers/BSP/Components/lis2mdl\lis2mdl_reg.c ****   */
 831:D:/fchai/work/i-cube/I-CUBE-HUAWEI/Drivers/BSP/Components/lis2mdl\lis2mdl_reg.c **** int32_t lis2mdl_status_get(stmdev_ctx_t *ctx, lis2mdl_status_reg_t *val)
 832:D:/fchai/work/i-cube/I-CUBE-HUAWEI/Drivers/BSP/Components/lis2mdl\lis2mdl_reg.c **** {
 3055              		.loc 1 832 1 is_stmt 1 view -0
 3056              		.cfi_startproc
 3057              		@ args = 0, pretend = 0, frame = 0
 3058              		@ frame_needed = 0, uses_anonymous_args = 0
 3059              		@ link register save eliminated.
 833:D:/fchai/work/i-cube/I-CUBE-HUAWEI/Drivers/BSP/Components/lis2mdl\lis2mdl_reg.c ****   int32_t ret;
 3060              		.loc 1 833 3 view .LVU860
 834:D:/fchai/work/i-cube/I-CUBE-HUAWEI/Drivers/BSP/Components/lis2mdl\lis2mdl_reg.c ****   ret = lis2mdl_read_reg(ctx, LIS2MDL_STATUS_REG, (uint8_t*) val, 1);
 3061              		.loc 1 834 3 view .LVU861
 832:D:/fchai/work/i-cube/I-CUBE-HUAWEI/Drivers/BSP/Components/lis2mdl\lis2mdl_reg.c ****   int32_t ret;
 3062              		.loc 1 832 1 is_stmt 0 view .LVU862
 3063 0000 10B4     		push	{r4}
 3064              	.LCFI98:
 3065              		.cfi_def_cfa_offset 4
 3066              		.cfi_offset 4, -4
 3067              	.LBB324:
 3068              	.LBB325:
  53:D:/fchai/work/i-cube/I-CUBE-HUAWEI/Drivers/BSP/Components/lis2mdl\lis2mdl_reg.c ****   return ret;
 3069              		.loc 1 53 9 view .LVU863
 3070 0002 D0E90140 		ldrd	r4, r0, [r0, #4]
 3071              	.LVL247:
  53:D:/fchai/work/i-cube/I-CUBE-HUAWEI/Drivers/BSP/Components/lis2mdl\lis2mdl_reg.c ****   return ret;
 3072              		.loc 1 53 9 view .LVU864
 3073              	.LBE325:
 3074              	.LBE324:
 832:D:/fchai/work/i-cube/I-CUBE-HUAWEI/Drivers/BSP/Components/lis2mdl\lis2mdl_reg.c ****   int32_t ret;
 3075              		.loc 1 832 1 view .LVU865
 3076 0006 0A46     		mov	r2, r1
 3077              	.LVL248:
ARM GAS  T:\msys\tmp\cct7nJJy.s 			page 77


 3078              	.LBB328:
 3079              	.LBI324:
  49:D:/fchai/work/i-cube/I-CUBE-HUAWEI/Drivers/BSP/Components/lis2mdl\lis2mdl_reg.c ****                          uint16_t len)
 3080              		.loc 1 49 9 is_stmt 1 view .LVU866
 3081              	.LBB326:
  52:D:/fchai/work/i-cube/I-CUBE-HUAWEI/Drivers/BSP/Components/lis2mdl\lis2mdl_reg.c ****   ret = ctx->read_reg(ctx->handle, reg, data, len);
 3082              		.loc 1 52 3 view .LVU867
  53:D:/fchai/work/i-cube/I-CUBE-HUAWEI/Drivers/BSP/Components/lis2mdl\lis2mdl_reg.c ****   return ret;
 3083              		.loc 1 53 3 view .LVU868
  53:D:/fchai/work/i-cube/I-CUBE-HUAWEI/Drivers/BSP/Components/lis2mdl\lis2mdl_reg.c ****   return ret;
 3084              		.loc 1 53 9 is_stmt 0 view .LVU869
 3085 0008 A446     		mov	ip, r4
 3086 000a 0123     		movs	r3, #1
 3087              	.LBE326:
 3088              	.LBE328:
 835:D:/fchai/work/i-cube/I-CUBE-HUAWEI/Drivers/BSP/Components/lis2mdl\lis2mdl_reg.c ****   return ret;
 836:D:/fchai/work/i-cube/I-CUBE-HUAWEI/Drivers/BSP/Components/lis2mdl\lis2mdl_reg.c **** }
 3089              		.loc 1 836 1 view .LVU870
 3090 000c 5DF8044B 		ldr	r4, [sp], #4
 3091              	.LCFI99:
 3092              		.cfi_restore 4
 3093              		.cfi_def_cfa_offset 0
 3094              	.LBB329:
 3095              	.LBB327:
  53:D:/fchai/work/i-cube/I-CUBE-HUAWEI/Drivers/BSP/Components/lis2mdl\lis2mdl_reg.c ****   return ret;
 3096              		.loc 1 53 9 view .LVU871
 3097 0010 6721     		movs	r1, #103
 3098              	.LVL249:
  53:D:/fchai/work/i-cube/I-CUBE-HUAWEI/Drivers/BSP/Components/lis2mdl\lis2mdl_reg.c ****   return ret;
 3099              		.loc 1 53 9 view .LVU872
 3100 0012 6047     		bx	ip
 3101              	.LVL250:
  53:D:/fchai/work/i-cube/I-CUBE-HUAWEI/Drivers/BSP/Components/lis2mdl\lis2mdl_reg.c ****   return ret;
 3102              		.loc 1 53 9 view .LVU873
 3103              	.LBE327:
 3104              	.LBE329:
 3105              		.cfi_endproc
 3106              	.LFE35:
 3108              		.section	.text.lis2mdl_offset_int_conf_set,"ax",%progbits
 3109              		.align	1
 3110              		.p2align 2,,3
 3111              		.global	lis2mdl_offset_int_conf_set
 3112              		.syntax unified
 3113              		.thumb
 3114              		.thumb_func
 3115              		.fpu fpv4-sp-d16
 3117              	lis2mdl_offset_int_conf_set:
 3118              	.LVL251:
 3119              	.LFB36:
 837:D:/fchai/work/i-cube/I-CUBE-HUAWEI/Drivers/BSP/Components/lis2mdl\lis2mdl_reg.c **** 
 838:D:/fchai/work/i-cube/I-CUBE-HUAWEI/Drivers/BSP/Components/lis2mdl\lis2mdl_reg.c **** /**
 839:D:/fchai/work/i-cube/I-CUBE-HUAWEI/Drivers/BSP/Components/lis2mdl\lis2mdl_reg.c ****   * @}
 840:D:/fchai/work/i-cube/I-CUBE-HUAWEI/Drivers/BSP/Components/lis2mdl\lis2mdl_reg.c ****   *
 841:D:/fchai/work/i-cube/I-CUBE-HUAWEI/Drivers/BSP/Components/lis2mdl\lis2mdl_reg.c ****   */
 842:D:/fchai/work/i-cube/I-CUBE-HUAWEI/Drivers/BSP/Components/lis2mdl\lis2mdl_reg.c **** 
 843:D:/fchai/work/i-cube/I-CUBE-HUAWEI/Drivers/BSP/Components/lis2mdl\lis2mdl_reg.c **** /**
 844:D:/fchai/work/i-cube/I-CUBE-HUAWEI/Drivers/BSP/Components/lis2mdl\lis2mdl_reg.c ****   * @defgroup    LIS2MDL_interrupts
ARM GAS  T:\msys\tmp\cct7nJJy.s 			page 78


 845:D:/fchai/work/i-cube/I-CUBE-HUAWEI/Drivers/BSP/Components/lis2mdl\lis2mdl_reg.c ****   * @brief       This section group all the functions that manage interrupts
 846:D:/fchai/work/i-cube/I-CUBE-HUAWEI/Drivers/BSP/Components/lis2mdl\lis2mdl_reg.c ****   * @{
 847:D:/fchai/work/i-cube/I-CUBE-HUAWEI/Drivers/BSP/Components/lis2mdl\lis2mdl_reg.c ****   *
 848:D:/fchai/work/i-cube/I-CUBE-HUAWEI/Drivers/BSP/Components/lis2mdl\lis2mdl_reg.c ****   */
 849:D:/fchai/work/i-cube/I-CUBE-HUAWEI/Drivers/BSP/Components/lis2mdl\lis2mdl_reg.c **** 
 850:D:/fchai/work/i-cube/I-CUBE-HUAWEI/Drivers/BSP/Components/lis2mdl\lis2mdl_reg.c **** /**
 851:D:/fchai/work/i-cube/I-CUBE-HUAWEI/Drivers/BSP/Components/lis2mdl\lis2mdl_reg.c ****   * @brief  The interrupt block recognition checks data after/before the
 852:D:/fchai/work/i-cube/I-CUBE-HUAWEI/Drivers/BSP/Components/lis2mdl\lis2mdl_reg.c ****   *         hard-iron correction to discover the interrupt.[set]
 853:D:/fchai/work/i-cube/I-CUBE-HUAWEI/Drivers/BSP/Components/lis2mdl\lis2mdl_reg.c ****   *
 854:D:/fchai/work/i-cube/I-CUBE-HUAWEI/Drivers/BSP/Components/lis2mdl\lis2mdl_reg.c ****   * @param  ctx   read / write interface definitions.(ptr)
 855:D:/fchai/work/i-cube/I-CUBE-HUAWEI/Drivers/BSP/Components/lis2mdl\lis2mdl_reg.c ****   * @param  val   change the values of int_on_dataoff in reg CFG_REG_B
 856:D:/fchai/work/i-cube/I-CUBE-HUAWEI/Drivers/BSP/Components/lis2mdl\lis2mdl_reg.c ****   * @retval       interface status.(MANDATORY: return 0 -> no Error)
 857:D:/fchai/work/i-cube/I-CUBE-HUAWEI/Drivers/BSP/Components/lis2mdl\lis2mdl_reg.c ****   *
 858:D:/fchai/work/i-cube/I-CUBE-HUAWEI/Drivers/BSP/Components/lis2mdl\lis2mdl_reg.c ****   */
 859:D:/fchai/work/i-cube/I-CUBE-HUAWEI/Drivers/BSP/Components/lis2mdl\lis2mdl_reg.c **** int32_t lis2mdl_offset_int_conf_set(stmdev_ctx_t *ctx,
 860:D:/fchai/work/i-cube/I-CUBE-HUAWEI/Drivers/BSP/Components/lis2mdl\lis2mdl_reg.c ****                                     lis2mdl_int_on_dataoff_t val)
 861:D:/fchai/work/i-cube/I-CUBE-HUAWEI/Drivers/BSP/Components/lis2mdl\lis2mdl_reg.c **** {
 3120              		.loc 1 861 1 is_stmt 1 view -0
 3121              		.cfi_startproc
 3122              		@ args = 0, pretend = 0, frame = 8
 3123              		@ frame_needed = 0, uses_anonymous_args = 0
 862:D:/fchai/work/i-cube/I-CUBE-HUAWEI/Drivers/BSP/Components/lis2mdl\lis2mdl_reg.c ****   lis2mdl_cfg_reg_b_t reg;
 3124              		.loc 1 862 3 view .LVU875
 863:D:/fchai/work/i-cube/I-CUBE-HUAWEI/Drivers/BSP/Components/lis2mdl\lis2mdl_reg.c ****   int32_t ret;
 3125              		.loc 1 863 3 view .LVU876
 864:D:/fchai/work/i-cube/I-CUBE-HUAWEI/Drivers/BSP/Components/lis2mdl\lis2mdl_reg.c **** 
 865:D:/fchai/work/i-cube/I-CUBE-HUAWEI/Drivers/BSP/Components/lis2mdl\lis2mdl_reg.c ****   ret = lis2mdl_read_reg(ctx, LIS2MDL_CFG_REG_B, (uint8_t*)&reg, 1);
 3126              		.loc 1 865 3 view .LVU877
 861:D:/fchai/work/i-cube/I-CUBE-HUAWEI/Drivers/BSP/Components/lis2mdl\lis2mdl_reg.c ****   lis2mdl_cfg_reg_b_t reg;
 3127              		.loc 1 861 1 is_stmt 0 view .LVU878
 3128 0000 70B5     		push	{r4, r5, r6, lr}
 3129              	.LCFI100:
 3130              		.cfi_def_cfa_offset 16
 3131              		.cfi_offset 4, -16
 3132              		.cfi_offset 5, -12
 3133              		.cfi_offset 6, -8
 3134              		.cfi_offset 14, -4
 3135 0002 82B0     		sub	sp, sp, #8
 3136              	.LCFI101:
 3137              		.cfi_def_cfa_offset 24
 861:D:/fchai/work/i-cube/I-CUBE-HUAWEI/Drivers/BSP/Components/lis2mdl\lis2mdl_reg.c ****   lis2mdl_cfg_reg_b_t reg;
 3138              		.loc 1 861 1 view .LVU879
 3139 0004 0446     		mov	r4, r0
 3140              	.LVL252:
 3141              	.LBB330:
 3142              	.LBI330:
  49:D:/fchai/work/i-cube/I-CUBE-HUAWEI/Drivers/BSP/Components/lis2mdl\lis2mdl_reg.c ****                          uint16_t len)
 3143              		.loc 1 49 9 is_stmt 1 view .LVU880
 3144              	.LBB331:
  52:D:/fchai/work/i-cube/I-CUBE-HUAWEI/Drivers/BSP/Components/lis2mdl\lis2mdl_reg.c ****   ret = ctx->read_reg(ctx->handle, reg, data, len);
 3145              		.loc 1 52 3 view .LVU881
  53:D:/fchai/work/i-cube/I-CUBE-HUAWEI/Drivers/BSP/Components/lis2mdl\lis2mdl_reg.c ****   return ret;
 3146              		.loc 1 53 3 view .LVU882
 3147              	.LBE331:
 3148              	.LBE330:
 861:D:/fchai/work/i-cube/I-CUBE-HUAWEI/Drivers/BSP/Components/lis2mdl\lis2mdl_reg.c ****   lis2mdl_cfg_reg_b_t reg;
 3149              		.loc 1 861 1 is_stmt 0 view .LVU883
ARM GAS  T:\msys\tmp\cct7nJJy.s 			page 79


 3150 0006 0D46     		mov	r5, r1
 3151              	.LBB333:
 3152              	.LBB332:
  53:D:/fchai/work/i-cube/I-CUBE-HUAWEI/Drivers/BSP/Components/lis2mdl\lis2mdl_reg.c ****   return ret;
 3153              		.loc 1 53 9 view .LVU884
 3154 0008 D0E90160 		ldrd	r6, r0, [r0, #4]
 3155              	.LVL253:
  53:D:/fchai/work/i-cube/I-CUBE-HUAWEI/Drivers/BSP/Components/lis2mdl\lis2mdl_reg.c ****   return ret;
 3156              		.loc 1 53 9 view .LVU885
 3157 000c 01AA     		add	r2, sp, #4
 3158              	.LVL254:
  53:D:/fchai/work/i-cube/I-CUBE-HUAWEI/Drivers/BSP/Components/lis2mdl\lis2mdl_reg.c ****   return ret;
 3159              		.loc 1 53 9 view .LVU886
 3160 000e 0123     		movs	r3, #1
 3161 0010 6121     		movs	r1, #97
 3162              	.LVL255:
  53:D:/fchai/work/i-cube/I-CUBE-HUAWEI/Drivers/BSP/Components/lis2mdl\lis2mdl_reg.c ****   return ret;
 3163              		.loc 1 53 9 view .LVU887
 3164 0012 B047     		blx	r6
 3165              	.LVL256:
  54:D:/fchai/work/i-cube/I-CUBE-HUAWEI/Drivers/BSP/Components/lis2mdl\lis2mdl_reg.c **** }
 3166              		.loc 1 54 3 is_stmt 1 view .LVU888
  54:D:/fchai/work/i-cube/I-CUBE-HUAWEI/Drivers/BSP/Components/lis2mdl\lis2mdl_reg.c **** }
 3167              		.loc 1 54 3 is_stmt 0 view .LVU889
 3168              	.LBE332:
 3169              	.LBE333:
 866:D:/fchai/work/i-cube/I-CUBE-HUAWEI/Drivers/BSP/Components/lis2mdl\lis2mdl_reg.c **** 
 867:D:/fchai/work/i-cube/I-CUBE-HUAWEI/Drivers/BSP/Components/lis2mdl\lis2mdl_reg.c ****   if(ret == 0){
 3170              		.loc 1 867 3 is_stmt 1 view .LVU890
 3171              		.loc 1 867 5 is_stmt 0 view .LVU891
 3172 0014 58B9     		cbnz	r0, .L100
 868:D:/fchai/work/i-cube/I-CUBE-HUAWEI/Drivers/BSP/Components/lis2mdl\lis2mdl_reg.c ****     reg.int_on_dataoff = (uint8_t)val;
 3173              		.loc 1 868 5 is_stmt 1 view .LVU892
 3174              		.loc 1 868 24 is_stmt 0 view .LVU893
 3175 0016 9DF80430 		ldrb	r3, [sp, #4]	@ zero_extendqisi2
 3176              	.LBB334:
 3177              	.LBB335:
  71:D:/fchai/work/i-cube/I-CUBE-HUAWEI/Drivers/BSP/Components/lis2mdl\lis2mdl_reg.c ****   return ret;
 3178              		.loc 1 71 9 view .LVU894
 3179 001a 2668     		ldr	r6, [r4]
 3180 001c A068     		ldr	r0, [r4, #8]
 3181              	.LVL257:
  71:D:/fchai/work/i-cube/I-CUBE-HUAWEI/Drivers/BSP/Components/lis2mdl\lis2mdl_reg.c ****   return ret;
 3182              		.loc 1 71 9 view .LVU895
 3183              	.LBE335:
 3184              	.LBE334:
 3185              		.loc 1 868 24 view .LVU896
 3186 001e 65F3C303 		bfi	r3, r5, #3, #1
 3187 0022 8DF80430 		strb	r3, [sp, #4]
 869:D:/fchai/work/i-cube/I-CUBE-HUAWEI/Drivers/BSP/Components/lis2mdl\lis2mdl_reg.c ****     ret = lis2mdl_write_reg(ctx, LIS2MDL_CFG_REG_B, (uint8_t*)&reg, 1);
 3188              		.loc 1 869 5 is_stmt 1 view .LVU897
 3189              	.LVL258:
 3190              	.LBB337:
 3191              	.LBI334:
  67:D:/fchai/work/i-cube/I-CUBE-HUAWEI/Drivers/BSP/Components/lis2mdl\lis2mdl_reg.c ****                           uint16_t len)
 3192              		.loc 1 67 9 view .LVU898
 3193              	.LBB336:
ARM GAS  T:\msys\tmp\cct7nJJy.s 			page 80


  70:D:/fchai/work/i-cube/I-CUBE-HUAWEI/Drivers/BSP/Components/lis2mdl\lis2mdl_reg.c ****   ret = ctx->write_reg(ctx->handle, reg, data, len);
 3194              		.loc 1 70 3 view .LVU899
  71:D:/fchai/work/i-cube/I-CUBE-HUAWEI/Drivers/BSP/Components/lis2mdl\lis2mdl_reg.c ****   return ret;
 3195              		.loc 1 71 3 view .LVU900
  71:D:/fchai/work/i-cube/I-CUBE-HUAWEI/Drivers/BSP/Components/lis2mdl\lis2mdl_reg.c ****   return ret;
 3196              		.loc 1 71 9 is_stmt 0 view .LVU901
 3197 0026 01AA     		add	r2, sp, #4
 3198              	.LVL259:
  71:D:/fchai/work/i-cube/I-CUBE-HUAWEI/Drivers/BSP/Components/lis2mdl\lis2mdl_reg.c ****   return ret;
 3199              		.loc 1 71 9 view .LVU902
 3200 0028 0123     		movs	r3, #1
 3201 002a 6121     		movs	r1, #97
 3202 002c B047     		blx	r6
 3203              	.LVL260:
  72:D:/fchai/work/i-cube/I-CUBE-HUAWEI/Drivers/BSP/Components/lis2mdl\lis2mdl_reg.c **** }
 3204              		.loc 1 72 3 is_stmt 1 view .LVU903
  72:D:/fchai/work/i-cube/I-CUBE-HUAWEI/Drivers/BSP/Components/lis2mdl\lis2mdl_reg.c **** }
 3205              		.loc 1 72 3 is_stmt 0 view .LVU904
 3206              	.LBE336:
 3207              	.LBE337:
 870:D:/fchai/work/i-cube/I-CUBE-HUAWEI/Drivers/BSP/Components/lis2mdl\lis2mdl_reg.c ****   }
 871:D:/fchai/work/i-cube/I-CUBE-HUAWEI/Drivers/BSP/Components/lis2mdl\lis2mdl_reg.c **** 
 872:D:/fchai/work/i-cube/I-CUBE-HUAWEI/Drivers/BSP/Components/lis2mdl\lis2mdl_reg.c ****   return ret;
 3208              		.loc 1 872 3 is_stmt 1 view .LVU905
 3209              	.L100:
 873:D:/fchai/work/i-cube/I-CUBE-HUAWEI/Drivers/BSP/Components/lis2mdl\lis2mdl_reg.c **** }
 3210              		.loc 1 873 1 is_stmt 0 view .LVU906
 3211 002e 02B0     		add	sp, sp, #8
 3212              	.LCFI102:
 3213              		.cfi_def_cfa_offset 16
 3214              		@ sp needed
 3215 0030 70BD     		pop	{r4, r5, r6, pc}
 3216              		.loc 1 873 1 view .LVU907
 3217              		.cfi_endproc
 3218              	.LFE36:
 3220 0032 00BF     		.section	.text.lis2mdl_offset_int_conf_get,"ax",%progbits
 3221              		.align	1
 3222              		.p2align 2,,3
 3223              		.global	lis2mdl_offset_int_conf_get
 3224              		.syntax unified
 3225              		.thumb
 3226              		.thumb_func
 3227              		.fpu fpv4-sp-d16
 3229              	lis2mdl_offset_int_conf_get:
 3230              	.LVL261:
 3231              	.LFB37:
 874:D:/fchai/work/i-cube/I-CUBE-HUAWEI/Drivers/BSP/Components/lis2mdl\lis2mdl_reg.c **** 
 875:D:/fchai/work/i-cube/I-CUBE-HUAWEI/Drivers/BSP/Components/lis2mdl\lis2mdl_reg.c **** /**
 876:D:/fchai/work/i-cube/I-CUBE-HUAWEI/Drivers/BSP/Components/lis2mdl\lis2mdl_reg.c ****   * @brief  The interrupt block recognition checks data after/before the
 877:D:/fchai/work/i-cube/I-CUBE-HUAWEI/Drivers/BSP/Components/lis2mdl\lis2mdl_reg.c ****   *         hard-iron correction to discover the interrupt.[get]
 878:D:/fchai/work/i-cube/I-CUBE-HUAWEI/Drivers/BSP/Components/lis2mdl\lis2mdl_reg.c ****   *
 879:D:/fchai/work/i-cube/I-CUBE-HUAWEI/Drivers/BSP/Components/lis2mdl\lis2mdl_reg.c ****   * @param  ctx   read / write interface definitions.(ptr)
 880:D:/fchai/work/i-cube/I-CUBE-HUAWEI/Drivers/BSP/Components/lis2mdl\lis2mdl_reg.c ****   * @param  val   Get the values of int_on_dataoff in reg CFG_REG_B.(ptr)
 881:D:/fchai/work/i-cube/I-CUBE-HUAWEI/Drivers/BSP/Components/lis2mdl\lis2mdl_reg.c ****   * @retval       interface status.(MANDATORY: return 0 -> no Error)
 882:D:/fchai/work/i-cube/I-CUBE-HUAWEI/Drivers/BSP/Components/lis2mdl\lis2mdl_reg.c ****   *
 883:D:/fchai/work/i-cube/I-CUBE-HUAWEI/Drivers/BSP/Components/lis2mdl\lis2mdl_reg.c ****   */
 884:D:/fchai/work/i-cube/I-CUBE-HUAWEI/Drivers/BSP/Components/lis2mdl\lis2mdl_reg.c **** int32_t lis2mdl_offset_int_conf_get(stmdev_ctx_t *ctx,
ARM GAS  T:\msys\tmp\cct7nJJy.s 			page 81


 885:D:/fchai/work/i-cube/I-CUBE-HUAWEI/Drivers/BSP/Components/lis2mdl\lis2mdl_reg.c ****                                     lis2mdl_int_on_dataoff_t *val)
 886:D:/fchai/work/i-cube/I-CUBE-HUAWEI/Drivers/BSP/Components/lis2mdl\lis2mdl_reg.c **** {
 3232              		.loc 1 886 1 is_stmt 1 view -0
 3233              		.cfi_startproc
 3234              		@ args = 0, pretend = 0, frame = 8
 3235              		@ frame_needed = 0, uses_anonymous_args = 0
 887:D:/fchai/work/i-cube/I-CUBE-HUAWEI/Drivers/BSP/Components/lis2mdl\lis2mdl_reg.c ****   lis2mdl_cfg_reg_b_t reg;
 3236              		.loc 1 887 3 view .LVU909
 888:D:/fchai/work/i-cube/I-CUBE-HUAWEI/Drivers/BSP/Components/lis2mdl\lis2mdl_reg.c ****   int32_t ret;
 3237              		.loc 1 888 3 view .LVU910
 889:D:/fchai/work/i-cube/I-CUBE-HUAWEI/Drivers/BSP/Components/lis2mdl\lis2mdl_reg.c **** 
 890:D:/fchai/work/i-cube/I-CUBE-HUAWEI/Drivers/BSP/Components/lis2mdl\lis2mdl_reg.c ****   ret = lis2mdl_read_reg(ctx, LIS2MDL_CFG_REG_B, (uint8_t*)&reg, 1);
 3238              		.loc 1 890 3 view .LVU911
 886:D:/fchai/work/i-cube/I-CUBE-HUAWEI/Drivers/BSP/Components/lis2mdl\lis2mdl_reg.c ****   lis2mdl_cfg_reg_b_t reg;
 3239              		.loc 1 886 1 is_stmt 0 view .LVU912
 3240 0000 30B5     		push	{r4, r5, lr}
 3241              	.LCFI103:
 3242              		.cfi_def_cfa_offset 12
 3243              		.cfi_offset 4, -12
 3244              		.cfi_offset 5, -8
 3245              		.cfi_offset 14, -4
 3246 0002 83B0     		sub	sp, sp, #12
 3247              	.LCFI104:
 3248              		.cfi_def_cfa_offset 24
 3249              	.LVL262:
 3250              	.LBB338:
 3251              	.LBI338:
  49:D:/fchai/work/i-cube/I-CUBE-HUAWEI/Drivers/BSP/Components/lis2mdl\lis2mdl_reg.c ****                          uint16_t len)
 3252              		.loc 1 49 9 is_stmt 1 view .LVU913
 3253              	.LBB339:
  52:D:/fchai/work/i-cube/I-CUBE-HUAWEI/Drivers/BSP/Components/lis2mdl\lis2mdl_reg.c ****   ret = ctx->read_reg(ctx->handle, reg, data, len);
 3254              		.loc 1 52 3 view .LVU914
  53:D:/fchai/work/i-cube/I-CUBE-HUAWEI/Drivers/BSP/Components/lis2mdl\lis2mdl_reg.c ****   return ret;
 3255              		.loc 1 53 3 view .LVU915
 3256              	.LBE339:
 3257              	.LBE338:
 886:D:/fchai/work/i-cube/I-CUBE-HUAWEI/Drivers/BSP/Components/lis2mdl\lis2mdl_reg.c ****   lis2mdl_cfg_reg_b_t reg;
 3258              		.loc 1 886 1 is_stmt 0 view .LVU916
 3259 0004 0C46     		mov	r4, r1
 3260              	.LBB342:
 3261              	.LBB340:
  53:D:/fchai/work/i-cube/I-CUBE-HUAWEI/Drivers/BSP/Components/lis2mdl\lis2mdl_reg.c ****   return ret;
 3262              		.loc 1 53 9 view .LVU917
 3263 0006 01AA     		add	r2, sp, #4
 3264              	.LVL263:
  53:D:/fchai/work/i-cube/I-CUBE-HUAWEI/Drivers/BSP/Components/lis2mdl\lis2mdl_reg.c ****   return ret;
 3265              		.loc 1 53 9 view .LVU918
 3266 0008 D0E90150 		ldrd	r5, r0, [r0, #4]
 3267              	.LVL264:
  53:D:/fchai/work/i-cube/I-CUBE-HUAWEI/Drivers/BSP/Components/lis2mdl\lis2mdl_reg.c ****   return ret;
 3268              		.loc 1 53 9 view .LVU919
 3269 000c 0123     		movs	r3, #1
 3270 000e 6121     		movs	r1, #97
 3271              	.LVL265:
  53:D:/fchai/work/i-cube/I-CUBE-HUAWEI/Drivers/BSP/Components/lis2mdl\lis2mdl_reg.c ****   return ret;
 3272              		.loc 1 53 9 view .LVU920
 3273 0010 A847     		blx	r5
ARM GAS  T:\msys\tmp\cct7nJJy.s 			page 82


 3274              	.LVL266:
  53:D:/fchai/work/i-cube/I-CUBE-HUAWEI/Drivers/BSP/Components/lis2mdl\lis2mdl_reg.c ****   return ret;
 3275              		.loc 1 53 9 view .LVU921
 3276              	.LBE340:
 3277              	.LBE342:
 891:D:/fchai/work/i-cube/I-CUBE-HUAWEI/Drivers/BSP/Components/lis2mdl\lis2mdl_reg.c ****   switch (reg.int_on_dataoff){
 3278              		.loc 1 891 14 view .LVU922
 3279 0012 9DF80430 		ldrb	r3, [sp, #4]	@ zero_extendqisi2
 3280              	.LVL267:
 3281              	.LBB343:
 3282              	.LBB341:
  54:D:/fchai/work/i-cube/I-CUBE-HUAWEI/Drivers/BSP/Components/lis2mdl\lis2mdl_reg.c **** }
 3283              		.loc 1 54 3 is_stmt 1 view .LVU923
  54:D:/fchai/work/i-cube/I-CUBE-HUAWEI/Drivers/BSP/Components/lis2mdl\lis2mdl_reg.c **** }
 3284              		.loc 1 54 3 is_stmt 0 view .LVU924
 3285              	.LBE341:
 3286              	.LBE343:
 3287              		.loc 1 891 3 is_stmt 1 view .LVU925
 3288              		.loc 1 891 14 is_stmt 0 view .LVU926
 3289 0016 C3F3C002 		ubfx	r2, r3, #3, #1
 3290              		.loc 1 891 3 view .LVU927
 3291 001a 1B07     		lsls	r3, r3, #28
 892:D:/fchai/work/i-cube/I-CUBE-HUAWEI/Drivers/BSP/Components/lis2mdl\lis2mdl_reg.c ****     case LIS2MDL_CHECK_BEFORE:
 893:D:/fchai/work/i-cube/I-CUBE-HUAWEI/Drivers/BSP/Components/lis2mdl\lis2mdl_reg.c ****       *val = LIS2MDL_CHECK_BEFORE;
 3292              		.loc 1 893 7 is_stmt 1 view .LVU928
 3293              		.loc 1 893 12 is_stmt 0 view .LVU929
 3294 001c 5ABF     		itte	pl
 3295 001e 0023     		movpl	r3, #0
 3296 0020 2370     		strbpl	r3, [r4]
 894:D:/fchai/work/i-cube/I-CUBE-HUAWEI/Drivers/BSP/Components/lis2mdl\lis2mdl_reg.c ****       break;
 3297              		.loc 1 894 7 is_stmt 1 view .LVU930
 895:D:/fchai/work/i-cube/I-CUBE-HUAWEI/Drivers/BSP/Components/lis2mdl\lis2mdl_reg.c ****     case LIS2MDL_CHECK_AFTER:
 896:D:/fchai/work/i-cube/I-CUBE-HUAWEI/Drivers/BSP/Components/lis2mdl\lis2mdl_reg.c ****       *val = LIS2MDL_CHECK_AFTER;
 3298              		.loc 1 896 7 view .LVU931
 3299              		.loc 1 896 12 is_stmt 0 view .LVU932
 3300 0022 2270     		strbmi	r2, [r4]
 897:D:/fchai/work/i-cube/I-CUBE-HUAWEI/Drivers/BSP/Components/lis2mdl\lis2mdl_reg.c ****       break;
 3301              		.loc 1 897 7 is_stmt 1 view .LVU933
 898:D:/fchai/work/i-cube/I-CUBE-HUAWEI/Drivers/BSP/Components/lis2mdl\lis2mdl_reg.c ****     default:
 899:D:/fchai/work/i-cube/I-CUBE-HUAWEI/Drivers/BSP/Components/lis2mdl\lis2mdl_reg.c ****       *val = LIS2MDL_CHECK_BEFORE;
 900:D:/fchai/work/i-cube/I-CUBE-HUAWEI/Drivers/BSP/Components/lis2mdl\lis2mdl_reg.c ****       break;
 901:D:/fchai/work/i-cube/I-CUBE-HUAWEI/Drivers/BSP/Components/lis2mdl\lis2mdl_reg.c ****   }
 902:D:/fchai/work/i-cube/I-CUBE-HUAWEI/Drivers/BSP/Components/lis2mdl\lis2mdl_reg.c ****   return ret;
 3302              		.loc 1 902 3 view .LVU934
 903:D:/fchai/work/i-cube/I-CUBE-HUAWEI/Drivers/BSP/Components/lis2mdl\lis2mdl_reg.c **** }
 3303              		.loc 1 903 1 is_stmt 0 view .LVU935
 3304 0024 03B0     		add	sp, sp, #12
 3305              	.LCFI105:
 3306              		.cfi_def_cfa_offset 12
 3307              		@ sp needed
 3308 0026 30BD     		pop	{r4, r5, pc}
 3309              		.loc 1 903 1 view .LVU936
 3310              		.cfi_endproc
 3311              	.LFE37:
 3313              		.section	.text.lis2mdl_drdy_on_pin_set,"ax",%progbits
 3314              		.align	1
 3315              		.p2align 2,,3
ARM GAS  T:\msys\tmp\cct7nJJy.s 			page 83


 3316              		.global	lis2mdl_drdy_on_pin_set
 3317              		.syntax unified
 3318              		.thumb
 3319              		.thumb_func
 3320              		.fpu fpv4-sp-d16
 3322              	lis2mdl_drdy_on_pin_set:
 3323              	.LVL268:
 3324              	.LFB38:
 904:D:/fchai/work/i-cube/I-CUBE-HUAWEI/Drivers/BSP/Components/lis2mdl\lis2mdl_reg.c **** 
 905:D:/fchai/work/i-cube/I-CUBE-HUAWEI/Drivers/BSP/Components/lis2mdl\lis2mdl_reg.c **** /**
 906:D:/fchai/work/i-cube/I-CUBE-HUAWEI/Drivers/BSP/Components/lis2mdl\lis2mdl_reg.c ****   * @brief  Data-ready signal on INT_DRDY pin.[set]
 907:D:/fchai/work/i-cube/I-CUBE-HUAWEI/Drivers/BSP/Components/lis2mdl\lis2mdl_reg.c ****   *
 908:D:/fchai/work/i-cube/I-CUBE-HUAWEI/Drivers/BSP/Components/lis2mdl\lis2mdl_reg.c ****   * @param  ctx   read / write interface definitions.(ptr)
 909:D:/fchai/work/i-cube/I-CUBE-HUAWEI/Drivers/BSP/Components/lis2mdl\lis2mdl_reg.c ****   * @param  val   change the values of drdy_on_pin in reg CFG_REG_C
 910:D:/fchai/work/i-cube/I-CUBE-HUAWEI/Drivers/BSP/Components/lis2mdl\lis2mdl_reg.c ****   * @retval       interface status.(MANDATORY: return 0 -> no Error)
 911:D:/fchai/work/i-cube/I-CUBE-HUAWEI/Drivers/BSP/Components/lis2mdl\lis2mdl_reg.c ****   *
 912:D:/fchai/work/i-cube/I-CUBE-HUAWEI/Drivers/BSP/Components/lis2mdl\lis2mdl_reg.c ****   */
 913:D:/fchai/work/i-cube/I-CUBE-HUAWEI/Drivers/BSP/Components/lis2mdl\lis2mdl_reg.c **** int32_t lis2mdl_drdy_on_pin_set(stmdev_ctx_t *ctx, uint8_t val)
 914:D:/fchai/work/i-cube/I-CUBE-HUAWEI/Drivers/BSP/Components/lis2mdl\lis2mdl_reg.c **** {
 3325              		.loc 1 914 1 is_stmt 1 view -0
 3326              		.cfi_startproc
 3327              		@ args = 0, pretend = 0, frame = 8
 3328              		@ frame_needed = 0, uses_anonymous_args = 0
 915:D:/fchai/work/i-cube/I-CUBE-HUAWEI/Drivers/BSP/Components/lis2mdl\lis2mdl_reg.c ****   lis2mdl_cfg_reg_c_t reg;
 3329              		.loc 1 915 3 view .LVU938
 916:D:/fchai/work/i-cube/I-CUBE-HUAWEI/Drivers/BSP/Components/lis2mdl\lis2mdl_reg.c ****   int32_t ret;
 3330              		.loc 1 916 3 view .LVU939
 917:D:/fchai/work/i-cube/I-CUBE-HUAWEI/Drivers/BSP/Components/lis2mdl\lis2mdl_reg.c **** 
 918:D:/fchai/work/i-cube/I-CUBE-HUAWEI/Drivers/BSP/Components/lis2mdl\lis2mdl_reg.c ****   ret = lis2mdl_read_reg(ctx, LIS2MDL_CFG_REG_C, (uint8_t*)&reg, 1);
 3331              		.loc 1 918 3 view .LVU940
 914:D:/fchai/work/i-cube/I-CUBE-HUAWEI/Drivers/BSP/Components/lis2mdl\lis2mdl_reg.c ****   lis2mdl_cfg_reg_c_t reg;
 3332              		.loc 1 914 1 is_stmt 0 view .LVU941
 3333 0000 70B5     		push	{r4, r5, r6, lr}
 3334              	.LCFI106:
 3335              		.cfi_def_cfa_offset 16
 3336              		.cfi_offset 4, -16
 3337              		.cfi_offset 5, -12
 3338              		.cfi_offset 6, -8
 3339              		.cfi_offset 14, -4
 3340 0002 82B0     		sub	sp, sp, #8
 3341              	.LCFI107:
 3342              		.cfi_def_cfa_offset 24
 914:D:/fchai/work/i-cube/I-CUBE-HUAWEI/Drivers/BSP/Components/lis2mdl\lis2mdl_reg.c ****   lis2mdl_cfg_reg_c_t reg;
 3343              		.loc 1 914 1 view .LVU942
 3344 0004 0446     		mov	r4, r0
 3345              	.LVL269:
 3346              	.LBB344:
 3347              	.LBI344:
  49:D:/fchai/work/i-cube/I-CUBE-HUAWEI/Drivers/BSP/Components/lis2mdl\lis2mdl_reg.c ****                          uint16_t len)
 3348              		.loc 1 49 9 is_stmt 1 view .LVU943
 3349              	.LBB345:
  52:D:/fchai/work/i-cube/I-CUBE-HUAWEI/Drivers/BSP/Components/lis2mdl\lis2mdl_reg.c ****   ret = ctx->read_reg(ctx->handle, reg, data, len);
 3350              		.loc 1 52 3 view .LVU944
  53:D:/fchai/work/i-cube/I-CUBE-HUAWEI/Drivers/BSP/Components/lis2mdl\lis2mdl_reg.c ****   return ret;
 3351              		.loc 1 53 3 view .LVU945
 3352              	.LBE345:
 3353              	.LBE344:
ARM GAS  T:\msys\tmp\cct7nJJy.s 			page 84


 914:D:/fchai/work/i-cube/I-CUBE-HUAWEI/Drivers/BSP/Components/lis2mdl\lis2mdl_reg.c ****   lis2mdl_cfg_reg_c_t reg;
 3354              		.loc 1 914 1 is_stmt 0 view .LVU946
 3355 0006 0D46     		mov	r5, r1
 3356              	.LBB347:
 3357              	.LBB346:
  53:D:/fchai/work/i-cube/I-CUBE-HUAWEI/Drivers/BSP/Components/lis2mdl\lis2mdl_reg.c ****   return ret;
 3358              		.loc 1 53 9 view .LVU947
 3359 0008 D0E90160 		ldrd	r6, r0, [r0, #4]
 3360              	.LVL270:
  53:D:/fchai/work/i-cube/I-CUBE-HUAWEI/Drivers/BSP/Components/lis2mdl\lis2mdl_reg.c ****   return ret;
 3361              		.loc 1 53 9 view .LVU948
 3362 000c 01AA     		add	r2, sp, #4
 3363              	.LVL271:
  53:D:/fchai/work/i-cube/I-CUBE-HUAWEI/Drivers/BSP/Components/lis2mdl\lis2mdl_reg.c ****   return ret;
 3364              		.loc 1 53 9 view .LVU949
 3365 000e 0123     		movs	r3, #1
 3366 0010 6221     		movs	r1, #98
 3367              	.LVL272:
  53:D:/fchai/work/i-cube/I-CUBE-HUAWEI/Drivers/BSP/Components/lis2mdl\lis2mdl_reg.c ****   return ret;
 3368              		.loc 1 53 9 view .LVU950
 3369 0012 B047     		blx	r6
 3370              	.LVL273:
  54:D:/fchai/work/i-cube/I-CUBE-HUAWEI/Drivers/BSP/Components/lis2mdl\lis2mdl_reg.c **** }
 3371              		.loc 1 54 3 is_stmt 1 view .LVU951
  54:D:/fchai/work/i-cube/I-CUBE-HUAWEI/Drivers/BSP/Components/lis2mdl\lis2mdl_reg.c **** }
 3372              		.loc 1 54 3 is_stmt 0 view .LVU952
 3373              	.LBE346:
 3374              	.LBE347:
 919:D:/fchai/work/i-cube/I-CUBE-HUAWEI/Drivers/BSP/Components/lis2mdl\lis2mdl_reg.c **** 
 920:D:/fchai/work/i-cube/I-CUBE-HUAWEI/Drivers/BSP/Components/lis2mdl\lis2mdl_reg.c ****   if(ret == 0){
 3375              		.loc 1 920 3 is_stmt 1 view .LVU953
 3376              		.loc 1 920 5 is_stmt 0 view .LVU954
 3377 0014 58B9     		cbnz	r0, .L107
 921:D:/fchai/work/i-cube/I-CUBE-HUAWEI/Drivers/BSP/Components/lis2mdl\lis2mdl_reg.c ****     reg.drdy_on_pin = val;
 3378              		.loc 1 921 5 is_stmt 1 view .LVU955
 3379              		.loc 1 921 21 is_stmt 0 view .LVU956
 3380 0016 9DF80430 		ldrb	r3, [sp, #4]	@ zero_extendqisi2
 3381              	.LBB348:
 3382              	.LBB349:
  71:D:/fchai/work/i-cube/I-CUBE-HUAWEI/Drivers/BSP/Components/lis2mdl\lis2mdl_reg.c ****   return ret;
 3383              		.loc 1 71 9 view .LVU957
 3384 001a 2668     		ldr	r6, [r4]
 3385 001c A068     		ldr	r0, [r4, #8]
 3386              	.LVL274:
  71:D:/fchai/work/i-cube/I-CUBE-HUAWEI/Drivers/BSP/Components/lis2mdl\lis2mdl_reg.c ****   return ret;
 3387              		.loc 1 71 9 view .LVU958
 3388              	.LBE349:
 3389              	.LBE348:
 3390              		.loc 1 921 21 view .LVU959
 3391 001e 65F30003 		bfi	r3, r5, #0, #1
 3392 0022 8DF80430 		strb	r3, [sp, #4]
 922:D:/fchai/work/i-cube/I-CUBE-HUAWEI/Drivers/BSP/Components/lis2mdl\lis2mdl_reg.c ****     ret = lis2mdl_write_reg(ctx, LIS2MDL_CFG_REG_C, (uint8_t*)&reg, 1);
 3393              		.loc 1 922 5 is_stmt 1 view .LVU960
 3394              	.LVL275:
 3395              	.LBB351:
 3396              	.LBI348:
  67:D:/fchai/work/i-cube/I-CUBE-HUAWEI/Drivers/BSP/Components/lis2mdl\lis2mdl_reg.c ****                           uint16_t len)
ARM GAS  T:\msys\tmp\cct7nJJy.s 			page 85


 3397              		.loc 1 67 9 view .LVU961
 3398              	.LBB350:
  70:D:/fchai/work/i-cube/I-CUBE-HUAWEI/Drivers/BSP/Components/lis2mdl\lis2mdl_reg.c ****   ret = ctx->write_reg(ctx->handle, reg, data, len);
 3399              		.loc 1 70 3 view .LVU962
  71:D:/fchai/work/i-cube/I-CUBE-HUAWEI/Drivers/BSP/Components/lis2mdl\lis2mdl_reg.c ****   return ret;
 3400              		.loc 1 71 3 view .LVU963
  71:D:/fchai/work/i-cube/I-CUBE-HUAWEI/Drivers/BSP/Components/lis2mdl\lis2mdl_reg.c ****   return ret;
 3401              		.loc 1 71 9 is_stmt 0 view .LVU964
 3402 0026 01AA     		add	r2, sp, #4
 3403              	.LVL276:
  71:D:/fchai/work/i-cube/I-CUBE-HUAWEI/Drivers/BSP/Components/lis2mdl\lis2mdl_reg.c ****   return ret;
 3404              		.loc 1 71 9 view .LVU965
 3405 0028 0123     		movs	r3, #1
 3406 002a 6221     		movs	r1, #98
 3407 002c B047     		blx	r6
 3408              	.LVL277:
  72:D:/fchai/work/i-cube/I-CUBE-HUAWEI/Drivers/BSP/Components/lis2mdl\lis2mdl_reg.c **** }
 3409              		.loc 1 72 3 is_stmt 1 view .LVU966
  72:D:/fchai/work/i-cube/I-CUBE-HUAWEI/Drivers/BSP/Components/lis2mdl\lis2mdl_reg.c **** }
 3410              		.loc 1 72 3 is_stmt 0 view .LVU967
 3411              	.LBE350:
 3412              	.LBE351:
 923:D:/fchai/work/i-cube/I-CUBE-HUAWEI/Drivers/BSP/Components/lis2mdl\lis2mdl_reg.c ****   }
 924:D:/fchai/work/i-cube/I-CUBE-HUAWEI/Drivers/BSP/Components/lis2mdl\lis2mdl_reg.c **** 
 925:D:/fchai/work/i-cube/I-CUBE-HUAWEI/Drivers/BSP/Components/lis2mdl\lis2mdl_reg.c ****   return ret;
 3413              		.loc 1 925 3 is_stmt 1 view .LVU968
 3414              	.L107:
 926:D:/fchai/work/i-cube/I-CUBE-HUAWEI/Drivers/BSP/Components/lis2mdl\lis2mdl_reg.c **** }
 3415              		.loc 1 926 1 is_stmt 0 view .LVU969
 3416 002e 02B0     		add	sp, sp, #8
 3417              	.LCFI108:
 3418              		.cfi_def_cfa_offset 16
 3419              		@ sp needed
 3420 0030 70BD     		pop	{r4, r5, r6, pc}
 3421              		.loc 1 926 1 view .LVU970
 3422              		.cfi_endproc
 3423              	.LFE38:
 3425 0032 00BF     		.section	.text.lis2mdl_drdy_on_pin_get,"ax",%progbits
 3426              		.align	1
 3427              		.p2align 2,,3
 3428              		.global	lis2mdl_drdy_on_pin_get
 3429              		.syntax unified
 3430              		.thumb
 3431              		.thumb_func
 3432              		.fpu fpv4-sp-d16
 3434              	lis2mdl_drdy_on_pin_get:
 3435              	.LVL278:
 3436              	.LFB39:
 927:D:/fchai/work/i-cube/I-CUBE-HUAWEI/Drivers/BSP/Components/lis2mdl\lis2mdl_reg.c **** 
 928:D:/fchai/work/i-cube/I-CUBE-HUAWEI/Drivers/BSP/Components/lis2mdl\lis2mdl_reg.c **** /**
 929:D:/fchai/work/i-cube/I-CUBE-HUAWEI/Drivers/BSP/Components/lis2mdl\lis2mdl_reg.c ****   * @brief  Data-ready signal on INT_DRDY pin.[get]
 930:D:/fchai/work/i-cube/I-CUBE-HUAWEI/Drivers/BSP/Components/lis2mdl\lis2mdl_reg.c ****   *
 931:D:/fchai/work/i-cube/I-CUBE-HUAWEI/Drivers/BSP/Components/lis2mdl\lis2mdl_reg.c ****   * @param  ctx   read / write interface definitions.(ptr)
 932:D:/fchai/work/i-cube/I-CUBE-HUAWEI/Drivers/BSP/Components/lis2mdl\lis2mdl_reg.c ****   * @param  val   change the values of drdy_on_pin in reg CFG_REG_C.(ptr)
 933:D:/fchai/work/i-cube/I-CUBE-HUAWEI/Drivers/BSP/Components/lis2mdl\lis2mdl_reg.c ****   * @retval       interface status.(MANDATORY: return 0 -> no Error)
 934:D:/fchai/work/i-cube/I-CUBE-HUAWEI/Drivers/BSP/Components/lis2mdl\lis2mdl_reg.c ****   *
 935:D:/fchai/work/i-cube/I-CUBE-HUAWEI/Drivers/BSP/Components/lis2mdl\lis2mdl_reg.c ****   */
ARM GAS  T:\msys\tmp\cct7nJJy.s 			page 86


 936:D:/fchai/work/i-cube/I-CUBE-HUAWEI/Drivers/BSP/Components/lis2mdl\lis2mdl_reg.c **** int32_t lis2mdl_drdy_on_pin_get(stmdev_ctx_t *ctx, uint8_t *val)
 937:D:/fchai/work/i-cube/I-CUBE-HUAWEI/Drivers/BSP/Components/lis2mdl\lis2mdl_reg.c **** {
 3437              		.loc 1 937 1 is_stmt 1 view -0
 3438              		.cfi_startproc
 3439              		@ args = 0, pretend = 0, frame = 8
 3440              		@ frame_needed = 0, uses_anonymous_args = 0
 938:D:/fchai/work/i-cube/I-CUBE-HUAWEI/Drivers/BSP/Components/lis2mdl\lis2mdl_reg.c ****   lis2mdl_cfg_reg_c_t reg;
 3441              		.loc 1 938 3 view .LVU972
 939:D:/fchai/work/i-cube/I-CUBE-HUAWEI/Drivers/BSP/Components/lis2mdl\lis2mdl_reg.c ****   int32_t ret;
 3442              		.loc 1 939 3 view .LVU973
 940:D:/fchai/work/i-cube/I-CUBE-HUAWEI/Drivers/BSP/Components/lis2mdl\lis2mdl_reg.c **** 
 941:D:/fchai/work/i-cube/I-CUBE-HUAWEI/Drivers/BSP/Components/lis2mdl\lis2mdl_reg.c ****   ret = lis2mdl_read_reg(ctx, LIS2MDL_CFG_REG_C, (uint8_t*)&reg, 1);
 3443              		.loc 1 941 3 view .LVU974
 937:D:/fchai/work/i-cube/I-CUBE-HUAWEI/Drivers/BSP/Components/lis2mdl\lis2mdl_reg.c ****   lis2mdl_cfg_reg_c_t reg;
 3444              		.loc 1 937 1 is_stmt 0 view .LVU975
 3445 0000 30B5     		push	{r4, r5, lr}
 3446              	.LCFI109:
 3447              		.cfi_def_cfa_offset 12
 3448              		.cfi_offset 4, -12
 3449              		.cfi_offset 5, -8
 3450              		.cfi_offset 14, -4
 3451 0002 83B0     		sub	sp, sp, #12
 3452              	.LCFI110:
 3453              		.cfi_def_cfa_offset 24
 3454              	.LVL279:
 3455              	.LBB352:
 3456              	.LBI352:
  49:D:/fchai/work/i-cube/I-CUBE-HUAWEI/Drivers/BSP/Components/lis2mdl\lis2mdl_reg.c ****                          uint16_t len)
 3457              		.loc 1 49 9 is_stmt 1 view .LVU976
 3458              	.LBB353:
  52:D:/fchai/work/i-cube/I-CUBE-HUAWEI/Drivers/BSP/Components/lis2mdl\lis2mdl_reg.c ****   ret = ctx->read_reg(ctx->handle, reg, data, len);
 3459              		.loc 1 52 3 view .LVU977
  53:D:/fchai/work/i-cube/I-CUBE-HUAWEI/Drivers/BSP/Components/lis2mdl\lis2mdl_reg.c ****   return ret;
 3460              		.loc 1 53 3 view .LVU978
 3461              	.LBE353:
 3462              	.LBE352:
 937:D:/fchai/work/i-cube/I-CUBE-HUAWEI/Drivers/BSP/Components/lis2mdl\lis2mdl_reg.c ****   lis2mdl_cfg_reg_c_t reg;
 3463              		.loc 1 937 1 is_stmt 0 view .LVU979
 3464 0004 0C46     		mov	r4, r1
 3465              	.LBB355:
 3466              	.LBB354:
  53:D:/fchai/work/i-cube/I-CUBE-HUAWEI/Drivers/BSP/Components/lis2mdl\lis2mdl_reg.c ****   return ret;
 3467              		.loc 1 53 9 view .LVU980
 3468 0006 D0E90150 		ldrd	r5, r0, [r0, #4]
 3469              	.LVL280:
  53:D:/fchai/work/i-cube/I-CUBE-HUAWEI/Drivers/BSP/Components/lis2mdl\lis2mdl_reg.c ****   return ret;
 3470              		.loc 1 53 9 view .LVU981
 3471 000a 0123     		movs	r3, #1
 3472 000c 01AA     		add	r2, sp, #4
 3473              	.LVL281:
  53:D:/fchai/work/i-cube/I-CUBE-HUAWEI/Drivers/BSP/Components/lis2mdl\lis2mdl_reg.c ****   return ret;
 3474              		.loc 1 53 9 view .LVU982
 3475 000e 6221     		movs	r1, #98
 3476              	.LVL282:
  53:D:/fchai/work/i-cube/I-CUBE-HUAWEI/Drivers/BSP/Components/lis2mdl\lis2mdl_reg.c ****   return ret;
 3477              		.loc 1 53 9 view .LVU983
 3478 0010 A847     		blx	r5
ARM GAS  T:\msys\tmp\cct7nJJy.s 			page 87


 3479              	.LVL283:
  54:D:/fchai/work/i-cube/I-CUBE-HUAWEI/Drivers/BSP/Components/lis2mdl\lis2mdl_reg.c **** }
 3480              		.loc 1 54 3 is_stmt 1 view .LVU984
  54:D:/fchai/work/i-cube/I-CUBE-HUAWEI/Drivers/BSP/Components/lis2mdl\lis2mdl_reg.c **** }
 3481              		.loc 1 54 3 is_stmt 0 view .LVU985
 3482              	.LBE354:
 3483              	.LBE355:
 942:D:/fchai/work/i-cube/I-CUBE-HUAWEI/Drivers/BSP/Components/lis2mdl\lis2mdl_reg.c ****   *val = reg.drdy_on_pin;
 3484              		.loc 1 942 3 is_stmt 1 view .LVU986
 3485              		.loc 1 942 13 is_stmt 0 view .LVU987
 3486 0012 9DF80430 		ldrb	r3, [sp, #4]	@ zero_extendqisi2
 3487 0016 C3F30003 		ubfx	r3, r3, #0, #1
 3488              		.loc 1 942 8 view .LVU988
 3489 001a 2370     		strb	r3, [r4]
 943:D:/fchai/work/i-cube/I-CUBE-HUAWEI/Drivers/BSP/Components/lis2mdl\lis2mdl_reg.c **** 
 944:D:/fchai/work/i-cube/I-CUBE-HUAWEI/Drivers/BSP/Components/lis2mdl\lis2mdl_reg.c ****   return ret;
 3490              		.loc 1 944 3 is_stmt 1 view .LVU989
 945:D:/fchai/work/i-cube/I-CUBE-HUAWEI/Drivers/BSP/Components/lis2mdl\lis2mdl_reg.c **** }
 3491              		.loc 1 945 1 is_stmt 0 view .LVU990
 3492 001c 03B0     		add	sp, sp, #12
 3493              	.LCFI111:
 3494              		.cfi_def_cfa_offset 12
 3495              		@ sp needed
 3496 001e 30BD     		pop	{r4, r5, pc}
 3497              		.loc 1 945 1 view .LVU991
 3498              		.cfi_endproc
 3499              	.LFE39:
 3501              		.section	.text.lis2mdl_int_on_pin_set,"ax",%progbits
 3502              		.align	1
 3503              		.p2align 2,,3
 3504              		.global	lis2mdl_int_on_pin_set
 3505              		.syntax unified
 3506              		.thumb
 3507              		.thumb_func
 3508              		.fpu fpv4-sp-d16
 3510              	lis2mdl_int_on_pin_set:
 3511              	.LVL284:
 3512              	.LFB40:
 946:D:/fchai/work/i-cube/I-CUBE-HUAWEI/Drivers/BSP/Components/lis2mdl\lis2mdl_reg.c **** 
 947:D:/fchai/work/i-cube/I-CUBE-HUAWEI/Drivers/BSP/Components/lis2mdl\lis2mdl_reg.c **** /**
 948:D:/fchai/work/i-cube/I-CUBE-HUAWEI/Drivers/BSP/Components/lis2mdl\lis2mdl_reg.c ****   * @brief  Interrupt signal on INT_DRDY pin.[set]
 949:D:/fchai/work/i-cube/I-CUBE-HUAWEI/Drivers/BSP/Components/lis2mdl\lis2mdl_reg.c ****   *
 950:D:/fchai/work/i-cube/I-CUBE-HUAWEI/Drivers/BSP/Components/lis2mdl\lis2mdl_reg.c ****   * @param  ctx   read / write interface definitions.(ptr)
 951:D:/fchai/work/i-cube/I-CUBE-HUAWEI/Drivers/BSP/Components/lis2mdl\lis2mdl_reg.c ****   * @param  val   change the values of int_on_pin in reg CFG_REG_C
 952:D:/fchai/work/i-cube/I-CUBE-HUAWEI/Drivers/BSP/Components/lis2mdl\lis2mdl_reg.c ****   * @retval       interface status.(MANDATORY: return 0 -> no Error)
 953:D:/fchai/work/i-cube/I-CUBE-HUAWEI/Drivers/BSP/Components/lis2mdl\lis2mdl_reg.c ****   *
 954:D:/fchai/work/i-cube/I-CUBE-HUAWEI/Drivers/BSP/Components/lis2mdl\lis2mdl_reg.c ****   */
 955:D:/fchai/work/i-cube/I-CUBE-HUAWEI/Drivers/BSP/Components/lis2mdl\lis2mdl_reg.c **** int32_t lis2mdl_int_on_pin_set(stmdev_ctx_t *ctx, uint8_t val)
 956:D:/fchai/work/i-cube/I-CUBE-HUAWEI/Drivers/BSP/Components/lis2mdl\lis2mdl_reg.c **** {
 3513              		.loc 1 956 1 is_stmt 1 view -0
 3514              		.cfi_startproc
 3515              		@ args = 0, pretend = 0, frame = 8
 3516              		@ frame_needed = 0, uses_anonymous_args = 0
 957:D:/fchai/work/i-cube/I-CUBE-HUAWEI/Drivers/BSP/Components/lis2mdl\lis2mdl_reg.c ****   lis2mdl_cfg_reg_c_t reg;
 3517              		.loc 1 957 3 view .LVU993
 958:D:/fchai/work/i-cube/I-CUBE-HUAWEI/Drivers/BSP/Components/lis2mdl\lis2mdl_reg.c ****   int32_t ret;
 3518              		.loc 1 958 3 view .LVU994
ARM GAS  T:\msys\tmp\cct7nJJy.s 			page 88


 959:D:/fchai/work/i-cube/I-CUBE-HUAWEI/Drivers/BSP/Components/lis2mdl\lis2mdl_reg.c **** 
 960:D:/fchai/work/i-cube/I-CUBE-HUAWEI/Drivers/BSP/Components/lis2mdl\lis2mdl_reg.c ****   ret = lis2mdl_read_reg(ctx, LIS2MDL_CFG_REG_C, (uint8_t*)&reg, 1);
 3519              		.loc 1 960 3 view .LVU995
 956:D:/fchai/work/i-cube/I-CUBE-HUAWEI/Drivers/BSP/Components/lis2mdl\lis2mdl_reg.c ****   lis2mdl_cfg_reg_c_t reg;
 3520              		.loc 1 956 1 is_stmt 0 view .LVU996
 3521 0000 70B5     		push	{r4, r5, r6, lr}
 3522              	.LCFI112:
 3523              		.cfi_def_cfa_offset 16
 3524              		.cfi_offset 4, -16
 3525              		.cfi_offset 5, -12
 3526              		.cfi_offset 6, -8
 3527              		.cfi_offset 14, -4
 3528 0002 82B0     		sub	sp, sp, #8
 3529              	.LCFI113:
 3530              		.cfi_def_cfa_offset 24
 956:D:/fchai/work/i-cube/I-CUBE-HUAWEI/Drivers/BSP/Components/lis2mdl\lis2mdl_reg.c ****   lis2mdl_cfg_reg_c_t reg;
 3531              		.loc 1 956 1 view .LVU997
 3532 0004 0446     		mov	r4, r0
 3533              	.LVL285:
 3534              	.LBB356:
 3535              	.LBI356:
  49:D:/fchai/work/i-cube/I-CUBE-HUAWEI/Drivers/BSP/Components/lis2mdl\lis2mdl_reg.c ****                          uint16_t len)
 3536              		.loc 1 49 9 is_stmt 1 view .LVU998
 3537              	.LBB357:
  52:D:/fchai/work/i-cube/I-CUBE-HUAWEI/Drivers/BSP/Components/lis2mdl\lis2mdl_reg.c ****   ret = ctx->read_reg(ctx->handle, reg, data, len);
 3538              		.loc 1 52 3 view .LVU999
  53:D:/fchai/work/i-cube/I-CUBE-HUAWEI/Drivers/BSP/Components/lis2mdl\lis2mdl_reg.c ****   return ret;
 3539              		.loc 1 53 3 view .LVU1000
 3540              	.LBE357:
 3541              	.LBE356:
 956:D:/fchai/work/i-cube/I-CUBE-HUAWEI/Drivers/BSP/Components/lis2mdl\lis2mdl_reg.c ****   lis2mdl_cfg_reg_c_t reg;
 3542              		.loc 1 956 1 is_stmt 0 view .LVU1001
 3543 0006 0D46     		mov	r5, r1
 3544              	.LBB359:
 3545              	.LBB358:
  53:D:/fchai/work/i-cube/I-CUBE-HUAWEI/Drivers/BSP/Components/lis2mdl\lis2mdl_reg.c ****   return ret;
 3546              		.loc 1 53 9 view .LVU1002
 3547 0008 D0E90160 		ldrd	r6, r0, [r0, #4]
 3548              	.LVL286:
  53:D:/fchai/work/i-cube/I-CUBE-HUAWEI/Drivers/BSP/Components/lis2mdl\lis2mdl_reg.c ****   return ret;
 3549              		.loc 1 53 9 view .LVU1003
 3550 000c 01AA     		add	r2, sp, #4
 3551              	.LVL287:
  53:D:/fchai/work/i-cube/I-CUBE-HUAWEI/Drivers/BSP/Components/lis2mdl\lis2mdl_reg.c ****   return ret;
 3552              		.loc 1 53 9 view .LVU1004
 3553 000e 0123     		movs	r3, #1
 3554 0010 6221     		movs	r1, #98
 3555              	.LVL288:
  53:D:/fchai/work/i-cube/I-CUBE-HUAWEI/Drivers/BSP/Components/lis2mdl\lis2mdl_reg.c ****   return ret;
 3556              		.loc 1 53 9 view .LVU1005
 3557 0012 B047     		blx	r6
 3558              	.LVL289:
  54:D:/fchai/work/i-cube/I-CUBE-HUAWEI/Drivers/BSP/Components/lis2mdl\lis2mdl_reg.c **** }
 3559              		.loc 1 54 3 is_stmt 1 view .LVU1006
  54:D:/fchai/work/i-cube/I-CUBE-HUAWEI/Drivers/BSP/Components/lis2mdl\lis2mdl_reg.c **** }
 3560              		.loc 1 54 3 is_stmt 0 view .LVU1007
 3561              	.LBE358:
ARM GAS  T:\msys\tmp\cct7nJJy.s 			page 89


 3562              	.LBE359:
 961:D:/fchai/work/i-cube/I-CUBE-HUAWEI/Drivers/BSP/Components/lis2mdl\lis2mdl_reg.c **** 
 962:D:/fchai/work/i-cube/I-CUBE-HUAWEI/Drivers/BSP/Components/lis2mdl\lis2mdl_reg.c ****   if(ret == 0){
 3563              		.loc 1 962 3 is_stmt 1 view .LVU1008
 3564              		.loc 1 962 5 is_stmt 0 view .LVU1009
 3565 0014 58B9     		cbnz	r0, .L112
 963:D:/fchai/work/i-cube/I-CUBE-HUAWEI/Drivers/BSP/Components/lis2mdl\lis2mdl_reg.c ****     reg.int_on_pin = val;
 3566              		.loc 1 963 5 is_stmt 1 view .LVU1010
 3567              		.loc 1 963 20 is_stmt 0 view .LVU1011
 3568 0016 9DF80430 		ldrb	r3, [sp, #4]	@ zero_extendqisi2
 3569              	.LBB360:
 3570              	.LBB361:
  71:D:/fchai/work/i-cube/I-CUBE-HUAWEI/Drivers/BSP/Components/lis2mdl\lis2mdl_reg.c ****   return ret;
 3571              		.loc 1 71 9 view .LVU1012
 3572 001a 2668     		ldr	r6, [r4]
 3573 001c A068     		ldr	r0, [r4, #8]
 3574              	.LVL290:
  71:D:/fchai/work/i-cube/I-CUBE-HUAWEI/Drivers/BSP/Components/lis2mdl\lis2mdl_reg.c ****   return ret;
 3575              		.loc 1 71 9 view .LVU1013
 3576              	.LBE361:
 3577              	.LBE360:
 3578              		.loc 1 963 20 view .LVU1014
 3579 001e 65F38613 		bfi	r3, r5, #6, #1
 3580 0022 8DF80430 		strb	r3, [sp, #4]
 964:D:/fchai/work/i-cube/I-CUBE-HUAWEI/Drivers/BSP/Components/lis2mdl\lis2mdl_reg.c ****     ret = lis2mdl_write_reg(ctx, LIS2MDL_CFG_REG_C, (uint8_t*)&reg, 1);
 3581              		.loc 1 964 5 is_stmt 1 view .LVU1015
 3582              	.LVL291:
 3583              	.LBB363:
 3584              	.LBI360:
  67:D:/fchai/work/i-cube/I-CUBE-HUAWEI/Drivers/BSP/Components/lis2mdl\lis2mdl_reg.c ****                           uint16_t len)
 3585              		.loc 1 67 9 view .LVU1016
 3586              	.LBB362:
  70:D:/fchai/work/i-cube/I-CUBE-HUAWEI/Drivers/BSP/Components/lis2mdl\lis2mdl_reg.c ****   ret = ctx->write_reg(ctx->handle, reg, data, len);
 3587              		.loc 1 70 3 view .LVU1017
  71:D:/fchai/work/i-cube/I-CUBE-HUAWEI/Drivers/BSP/Components/lis2mdl\lis2mdl_reg.c ****   return ret;
 3588              		.loc 1 71 3 view .LVU1018
  71:D:/fchai/work/i-cube/I-CUBE-HUAWEI/Drivers/BSP/Components/lis2mdl\lis2mdl_reg.c ****   return ret;
 3589              		.loc 1 71 9 is_stmt 0 view .LVU1019
 3590 0026 01AA     		add	r2, sp, #4
 3591              	.LVL292:
  71:D:/fchai/work/i-cube/I-CUBE-HUAWEI/Drivers/BSP/Components/lis2mdl\lis2mdl_reg.c ****   return ret;
 3592              		.loc 1 71 9 view .LVU1020
 3593 0028 0123     		movs	r3, #1
 3594 002a 6221     		movs	r1, #98
 3595 002c B047     		blx	r6
 3596              	.LVL293:
  72:D:/fchai/work/i-cube/I-CUBE-HUAWEI/Drivers/BSP/Components/lis2mdl\lis2mdl_reg.c **** }
 3597              		.loc 1 72 3 is_stmt 1 view .LVU1021
  72:D:/fchai/work/i-cube/I-CUBE-HUAWEI/Drivers/BSP/Components/lis2mdl\lis2mdl_reg.c **** }
 3598              		.loc 1 72 3 is_stmt 0 view .LVU1022
 3599              	.LBE362:
 3600              	.LBE363:
 965:D:/fchai/work/i-cube/I-CUBE-HUAWEI/Drivers/BSP/Components/lis2mdl\lis2mdl_reg.c ****   }
 966:D:/fchai/work/i-cube/I-CUBE-HUAWEI/Drivers/BSP/Components/lis2mdl\lis2mdl_reg.c **** 
 967:D:/fchai/work/i-cube/I-CUBE-HUAWEI/Drivers/BSP/Components/lis2mdl\lis2mdl_reg.c ****   return ret;
 3601              		.loc 1 967 3 is_stmt 1 view .LVU1023
 3602              	.L112:
ARM GAS  T:\msys\tmp\cct7nJJy.s 			page 90


 968:D:/fchai/work/i-cube/I-CUBE-HUAWEI/Drivers/BSP/Components/lis2mdl\lis2mdl_reg.c **** }
 3603              		.loc 1 968 1 is_stmt 0 view .LVU1024
 3604 002e 02B0     		add	sp, sp, #8
 3605              	.LCFI114:
 3606              		.cfi_def_cfa_offset 16
 3607              		@ sp needed
 3608 0030 70BD     		pop	{r4, r5, r6, pc}
 3609              		.loc 1 968 1 view .LVU1025
 3610              		.cfi_endproc
 3611              	.LFE40:
 3613 0032 00BF     		.section	.text.lis2mdl_int_on_pin_get,"ax",%progbits
 3614              		.align	1
 3615              		.p2align 2,,3
 3616              		.global	lis2mdl_int_on_pin_get
 3617              		.syntax unified
 3618              		.thumb
 3619              		.thumb_func
 3620              		.fpu fpv4-sp-d16
 3622              	lis2mdl_int_on_pin_get:
 3623              	.LVL294:
 3624              	.LFB41:
 969:D:/fchai/work/i-cube/I-CUBE-HUAWEI/Drivers/BSP/Components/lis2mdl\lis2mdl_reg.c **** 
 970:D:/fchai/work/i-cube/I-CUBE-HUAWEI/Drivers/BSP/Components/lis2mdl\lis2mdl_reg.c **** /**
 971:D:/fchai/work/i-cube/I-CUBE-HUAWEI/Drivers/BSP/Components/lis2mdl\lis2mdl_reg.c ****   * @brief  Interrupt signal on INT_DRDY pin.[get]
 972:D:/fchai/work/i-cube/I-CUBE-HUAWEI/Drivers/BSP/Components/lis2mdl\lis2mdl_reg.c ****   *
 973:D:/fchai/work/i-cube/I-CUBE-HUAWEI/Drivers/BSP/Components/lis2mdl\lis2mdl_reg.c ****   * @param  ctx   read / write interface definitions.(ptr)
 974:D:/fchai/work/i-cube/I-CUBE-HUAWEI/Drivers/BSP/Components/lis2mdl\lis2mdl_reg.c ****   * @param  val   change the values of int_on_pin in reg CFG_REG_C.(ptr)
 975:D:/fchai/work/i-cube/I-CUBE-HUAWEI/Drivers/BSP/Components/lis2mdl\lis2mdl_reg.c ****   * @retval       interface status.(MANDATORY: return 0 -> no Error)
 976:D:/fchai/work/i-cube/I-CUBE-HUAWEI/Drivers/BSP/Components/lis2mdl\lis2mdl_reg.c ****   *
 977:D:/fchai/work/i-cube/I-CUBE-HUAWEI/Drivers/BSP/Components/lis2mdl\lis2mdl_reg.c ****   */
 978:D:/fchai/work/i-cube/I-CUBE-HUAWEI/Drivers/BSP/Components/lis2mdl\lis2mdl_reg.c **** int32_t lis2mdl_int_on_pin_get(stmdev_ctx_t *ctx, uint8_t *val)
 979:D:/fchai/work/i-cube/I-CUBE-HUAWEI/Drivers/BSP/Components/lis2mdl\lis2mdl_reg.c **** {
 3625              		.loc 1 979 1 is_stmt 1 view -0
 3626              		.cfi_startproc
 3627              		@ args = 0, pretend = 0, frame = 8
 3628              		@ frame_needed = 0, uses_anonymous_args = 0
 980:D:/fchai/work/i-cube/I-CUBE-HUAWEI/Drivers/BSP/Components/lis2mdl\lis2mdl_reg.c ****   lis2mdl_cfg_reg_c_t reg;
 3629              		.loc 1 980 3 view .LVU1027
 981:D:/fchai/work/i-cube/I-CUBE-HUAWEI/Drivers/BSP/Components/lis2mdl\lis2mdl_reg.c ****   int32_t ret;
 3630              		.loc 1 981 3 view .LVU1028
 982:D:/fchai/work/i-cube/I-CUBE-HUAWEI/Drivers/BSP/Components/lis2mdl\lis2mdl_reg.c **** 
 983:D:/fchai/work/i-cube/I-CUBE-HUAWEI/Drivers/BSP/Components/lis2mdl\lis2mdl_reg.c ****   ret = lis2mdl_read_reg(ctx, LIS2MDL_CFG_REG_C, (uint8_t*)&reg, 1);
 3631              		.loc 1 983 3 view .LVU1029
 979:D:/fchai/work/i-cube/I-CUBE-HUAWEI/Drivers/BSP/Components/lis2mdl\lis2mdl_reg.c ****   lis2mdl_cfg_reg_c_t reg;
 3632              		.loc 1 979 1 is_stmt 0 view .LVU1030
 3633 0000 30B5     		push	{r4, r5, lr}
 3634              	.LCFI115:
 3635              		.cfi_def_cfa_offset 12
 3636              		.cfi_offset 4, -12
 3637              		.cfi_offset 5, -8
 3638              		.cfi_offset 14, -4
 3639 0002 83B0     		sub	sp, sp, #12
 3640              	.LCFI116:
 3641              		.cfi_def_cfa_offset 24
 3642              	.LVL295:
 3643              	.LBB364:
 3644              	.LBI364:
ARM GAS  T:\msys\tmp\cct7nJJy.s 			page 91


  49:D:/fchai/work/i-cube/I-CUBE-HUAWEI/Drivers/BSP/Components/lis2mdl\lis2mdl_reg.c ****                          uint16_t len)
 3645              		.loc 1 49 9 is_stmt 1 view .LVU1031
 3646              	.LBB365:
  52:D:/fchai/work/i-cube/I-CUBE-HUAWEI/Drivers/BSP/Components/lis2mdl\lis2mdl_reg.c ****   ret = ctx->read_reg(ctx->handle, reg, data, len);
 3647              		.loc 1 52 3 view .LVU1032
  53:D:/fchai/work/i-cube/I-CUBE-HUAWEI/Drivers/BSP/Components/lis2mdl\lis2mdl_reg.c ****   return ret;
 3648              		.loc 1 53 3 view .LVU1033
 3649              	.LBE365:
 3650              	.LBE364:
 979:D:/fchai/work/i-cube/I-CUBE-HUAWEI/Drivers/BSP/Components/lis2mdl\lis2mdl_reg.c ****   lis2mdl_cfg_reg_c_t reg;
 3651              		.loc 1 979 1 is_stmt 0 view .LVU1034
 3652 0004 0C46     		mov	r4, r1
 3653              	.LBB367:
 3654              	.LBB366:
  53:D:/fchai/work/i-cube/I-CUBE-HUAWEI/Drivers/BSP/Components/lis2mdl\lis2mdl_reg.c ****   return ret;
 3655              		.loc 1 53 9 view .LVU1035
 3656 0006 D0E90150 		ldrd	r5, r0, [r0, #4]
 3657              	.LVL296:
  53:D:/fchai/work/i-cube/I-CUBE-HUAWEI/Drivers/BSP/Components/lis2mdl\lis2mdl_reg.c ****   return ret;
 3658              		.loc 1 53 9 view .LVU1036
 3659 000a 0123     		movs	r3, #1
 3660 000c 01AA     		add	r2, sp, #4
 3661              	.LVL297:
  53:D:/fchai/work/i-cube/I-CUBE-HUAWEI/Drivers/BSP/Components/lis2mdl\lis2mdl_reg.c ****   return ret;
 3662              		.loc 1 53 9 view .LVU1037
 3663 000e 6221     		movs	r1, #98
 3664              	.LVL298:
  53:D:/fchai/work/i-cube/I-CUBE-HUAWEI/Drivers/BSP/Components/lis2mdl\lis2mdl_reg.c ****   return ret;
 3665              		.loc 1 53 9 view .LVU1038
 3666 0010 A847     		blx	r5
 3667              	.LVL299:
  54:D:/fchai/work/i-cube/I-CUBE-HUAWEI/Drivers/BSP/Components/lis2mdl\lis2mdl_reg.c **** }
 3668              		.loc 1 54 3 is_stmt 1 view .LVU1039
  54:D:/fchai/work/i-cube/I-CUBE-HUAWEI/Drivers/BSP/Components/lis2mdl\lis2mdl_reg.c **** }
 3669              		.loc 1 54 3 is_stmt 0 view .LVU1040
 3670              	.LBE366:
 3671              	.LBE367:
 984:D:/fchai/work/i-cube/I-CUBE-HUAWEI/Drivers/BSP/Components/lis2mdl\lis2mdl_reg.c ****   *val = reg.int_on_pin;
 3672              		.loc 1 984 3 is_stmt 1 view .LVU1041
 3673              		.loc 1 984 13 is_stmt 0 view .LVU1042
 3674 0012 9DF80430 		ldrb	r3, [sp, #4]	@ zero_extendqisi2
 3675 0016 C3F38013 		ubfx	r3, r3, #6, #1
 3676              		.loc 1 984 8 view .LVU1043
 3677 001a 2370     		strb	r3, [r4]
 985:D:/fchai/work/i-cube/I-CUBE-HUAWEI/Drivers/BSP/Components/lis2mdl\lis2mdl_reg.c **** 
 986:D:/fchai/work/i-cube/I-CUBE-HUAWEI/Drivers/BSP/Components/lis2mdl\lis2mdl_reg.c ****   return ret;
 3678              		.loc 1 986 3 is_stmt 1 view .LVU1044
 987:D:/fchai/work/i-cube/I-CUBE-HUAWEI/Drivers/BSP/Components/lis2mdl\lis2mdl_reg.c **** }
 3679              		.loc 1 987 1 is_stmt 0 view .LVU1045
 3680 001c 03B0     		add	sp, sp, #12
 3681              	.LCFI117:
 3682              		.cfi_def_cfa_offset 12
 3683              		@ sp needed
 3684 001e 30BD     		pop	{r4, r5, pc}
 3685              		.loc 1 987 1 view .LVU1046
 3686              		.cfi_endproc
 3687              	.LFE41:
ARM GAS  T:\msys\tmp\cct7nJJy.s 			page 92


 3689              		.section	.text.lis2mdl_int_gen_conf_set,"ax",%progbits
 3690              		.align	1
 3691              		.p2align 2,,3
 3692              		.global	lis2mdl_int_gen_conf_set
 3693              		.syntax unified
 3694              		.thumb
 3695              		.thumb_func
 3696              		.fpu fpv4-sp-d16
 3698              	lis2mdl_int_gen_conf_set:
 3699              	.LVL300:
 3700              	.LFB42:
 988:D:/fchai/work/i-cube/I-CUBE-HUAWEI/Drivers/BSP/Components/lis2mdl\lis2mdl_reg.c **** 
 989:D:/fchai/work/i-cube/I-CUBE-HUAWEI/Drivers/BSP/Components/lis2mdl\lis2mdl_reg.c **** /**
 990:D:/fchai/work/i-cube/I-CUBE-HUAWEI/Drivers/BSP/Components/lis2mdl\lis2mdl_reg.c ****   * @brief  Interrupt generator configuration register.[set]
 991:D:/fchai/work/i-cube/I-CUBE-HUAWEI/Drivers/BSP/Components/lis2mdl\lis2mdl_reg.c ****   *
 992:D:/fchai/work/i-cube/I-CUBE-HUAWEI/Drivers/BSP/Components/lis2mdl\lis2mdl_reg.c ****   * @param  ctx   read / write interface definitions.(ptr)
 993:D:/fchai/work/i-cube/I-CUBE-HUAWEI/Drivers/BSP/Components/lis2mdl\lis2mdl_reg.c ****   * @param  val   registers INT_CRTL_REG.(ptr)
 994:D:/fchai/work/i-cube/I-CUBE-HUAWEI/Drivers/BSP/Components/lis2mdl\lis2mdl_reg.c ****   * @retval       interface status.(MANDATORY: return 0 -> no Error)
 995:D:/fchai/work/i-cube/I-CUBE-HUAWEI/Drivers/BSP/Components/lis2mdl\lis2mdl_reg.c ****   *
 996:D:/fchai/work/i-cube/I-CUBE-HUAWEI/Drivers/BSP/Components/lis2mdl\lis2mdl_reg.c ****   */
 997:D:/fchai/work/i-cube/I-CUBE-HUAWEI/Drivers/BSP/Components/lis2mdl\lis2mdl_reg.c **** int32_t lis2mdl_int_gen_conf_set(stmdev_ctx_t *ctx,
 998:D:/fchai/work/i-cube/I-CUBE-HUAWEI/Drivers/BSP/Components/lis2mdl\lis2mdl_reg.c ****                                  lis2mdl_int_crtl_reg_t *val)
 999:D:/fchai/work/i-cube/I-CUBE-HUAWEI/Drivers/BSP/Components/lis2mdl\lis2mdl_reg.c **** {
 3701              		.loc 1 999 1 is_stmt 1 view -0
 3702              		.cfi_startproc
 3703              		@ args = 0, pretend = 0, frame = 0
 3704              		@ frame_needed = 0, uses_anonymous_args = 0
 3705              		@ link register save eliminated.
1000:D:/fchai/work/i-cube/I-CUBE-HUAWEI/Drivers/BSP/Components/lis2mdl\lis2mdl_reg.c ****   int32_t ret;
 3706              		.loc 1 1000 3 view .LVU1048
1001:D:/fchai/work/i-cube/I-CUBE-HUAWEI/Drivers/BSP/Components/lis2mdl\lis2mdl_reg.c ****   ret = lis2mdl_write_reg(ctx, LIS2MDL_INT_CRTL_REG, (uint8_t*) val, 1);
 3707              		.loc 1 1001 3 view .LVU1049
 999:D:/fchai/work/i-cube/I-CUBE-HUAWEI/Drivers/BSP/Components/lis2mdl\lis2mdl_reg.c ****   int32_t ret;
 3708              		.loc 1 999 1 is_stmt 0 view .LVU1050
 3709 0000 10B4     		push	{r4}
 3710              	.LCFI118:
 3711              		.cfi_def_cfa_offset 4
 3712              		.cfi_offset 4, -4
 3713              	.LBB368:
 3714              	.LBB369:
  71:D:/fchai/work/i-cube/I-CUBE-HUAWEI/Drivers/BSP/Components/lis2mdl\lis2mdl_reg.c ****   return ret;
 3715              		.loc 1 71 9 view .LVU1051
 3716 0002 0468     		ldr	r4, [r0]
 3717 0004 8068     		ldr	r0, [r0, #8]
 3718              	.LVL301:
  71:D:/fchai/work/i-cube/I-CUBE-HUAWEI/Drivers/BSP/Components/lis2mdl\lis2mdl_reg.c ****   return ret;
 3719              		.loc 1 71 9 view .LVU1052
 3720              	.LBE369:
 3721              	.LBE368:
 999:D:/fchai/work/i-cube/I-CUBE-HUAWEI/Drivers/BSP/Components/lis2mdl\lis2mdl_reg.c ****   int32_t ret;
 3722              		.loc 1 999 1 view .LVU1053
 3723 0006 0A46     		mov	r2, r1
 3724              	.LVL302:
 3725              	.LBB372:
 3726              	.LBI368:
  67:D:/fchai/work/i-cube/I-CUBE-HUAWEI/Drivers/BSP/Components/lis2mdl\lis2mdl_reg.c ****                           uint16_t len)
 3727              		.loc 1 67 9 is_stmt 1 view .LVU1054
ARM GAS  T:\msys\tmp\cct7nJJy.s 			page 93


 3728              	.LBB370:
  70:D:/fchai/work/i-cube/I-CUBE-HUAWEI/Drivers/BSP/Components/lis2mdl\lis2mdl_reg.c ****   ret = ctx->write_reg(ctx->handle, reg, data, len);
 3729              		.loc 1 70 3 view .LVU1055
  71:D:/fchai/work/i-cube/I-CUBE-HUAWEI/Drivers/BSP/Components/lis2mdl\lis2mdl_reg.c ****   return ret;
 3730              		.loc 1 71 3 view .LVU1056
  71:D:/fchai/work/i-cube/I-CUBE-HUAWEI/Drivers/BSP/Components/lis2mdl\lis2mdl_reg.c ****   return ret;
 3731              		.loc 1 71 9 is_stmt 0 view .LVU1057
 3732 0008 A446     		mov	ip, r4
 3733 000a 0123     		movs	r3, #1
 3734              	.LBE370:
 3735              	.LBE372:
1002:D:/fchai/work/i-cube/I-CUBE-HUAWEI/Drivers/BSP/Components/lis2mdl\lis2mdl_reg.c ****   return ret;
1003:D:/fchai/work/i-cube/I-CUBE-HUAWEI/Drivers/BSP/Components/lis2mdl\lis2mdl_reg.c **** }
 3736              		.loc 1 1003 1 view .LVU1058
 3737 000c 5DF8044B 		ldr	r4, [sp], #4
 3738              	.LCFI119:
 3739              		.cfi_restore 4
 3740              		.cfi_def_cfa_offset 0
 3741              	.LBB373:
 3742              	.LBB371:
  71:D:/fchai/work/i-cube/I-CUBE-HUAWEI/Drivers/BSP/Components/lis2mdl\lis2mdl_reg.c ****   return ret;
 3743              		.loc 1 71 9 view .LVU1059
 3744 0010 6321     		movs	r1, #99
 3745              	.LVL303:
  71:D:/fchai/work/i-cube/I-CUBE-HUAWEI/Drivers/BSP/Components/lis2mdl\lis2mdl_reg.c ****   return ret;
 3746              		.loc 1 71 9 view .LVU1060
 3747 0012 6047     		bx	ip
 3748              	.LVL304:
  71:D:/fchai/work/i-cube/I-CUBE-HUAWEI/Drivers/BSP/Components/lis2mdl\lis2mdl_reg.c ****   return ret;
 3749              		.loc 1 71 9 view .LVU1061
 3750              	.LBE371:
 3751              	.LBE373:
 3752              		.cfi_endproc
 3753              	.LFE42:
 3755              		.section	.text.lis2mdl_int_gen_conf_get,"ax",%progbits
 3756              		.align	1
 3757              		.p2align 2,,3
 3758              		.global	lis2mdl_int_gen_conf_get
 3759              		.syntax unified
 3760              		.thumb
 3761              		.thumb_func
 3762              		.fpu fpv4-sp-d16
 3764              	lis2mdl_int_gen_conf_get:
 3765              	.LVL305:
 3766              	.LFB43:
1004:D:/fchai/work/i-cube/I-CUBE-HUAWEI/Drivers/BSP/Components/lis2mdl\lis2mdl_reg.c **** 
1005:D:/fchai/work/i-cube/I-CUBE-HUAWEI/Drivers/BSP/Components/lis2mdl\lis2mdl_reg.c **** /**
1006:D:/fchai/work/i-cube/I-CUBE-HUAWEI/Drivers/BSP/Components/lis2mdl\lis2mdl_reg.c ****   * @brief  Interrupt generator configuration register.[get]
1007:D:/fchai/work/i-cube/I-CUBE-HUAWEI/Drivers/BSP/Components/lis2mdl\lis2mdl_reg.c ****   *
1008:D:/fchai/work/i-cube/I-CUBE-HUAWEI/Drivers/BSP/Components/lis2mdl\lis2mdl_reg.c ****   * @param  ctx   read / write interface definitions.(ptr)
1009:D:/fchai/work/i-cube/I-CUBE-HUAWEI/Drivers/BSP/Components/lis2mdl\lis2mdl_reg.c ****   * @param  val   registers INT_CRTL_REG.(ptr)
1010:D:/fchai/work/i-cube/I-CUBE-HUAWEI/Drivers/BSP/Components/lis2mdl\lis2mdl_reg.c ****   * @retval       interface status.(MANDATORY: return 0 -> no Error)
1011:D:/fchai/work/i-cube/I-CUBE-HUAWEI/Drivers/BSP/Components/lis2mdl\lis2mdl_reg.c ****   *
1012:D:/fchai/work/i-cube/I-CUBE-HUAWEI/Drivers/BSP/Components/lis2mdl\lis2mdl_reg.c ****   */
1013:D:/fchai/work/i-cube/I-CUBE-HUAWEI/Drivers/BSP/Components/lis2mdl\lis2mdl_reg.c **** int32_t lis2mdl_int_gen_conf_get(stmdev_ctx_t *ctx,
1014:D:/fchai/work/i-cube/I-CUBE-HUAWEI/Drivers/BSP/Components/lis2mdl\lis2mdl_reg.c ****                                  lis2mdl_int_crtl_reg_t *val)
1015:D:/fchai/work/i-cube/I-CUBE-HUAWEI/Drivers/BSP/Components/lis2mdl\lis2mdl_reg.c **** {
ARM GAS  T:\msys\tmp\cct7nJJy.s 			page 94


 3767              		.loc 1 1015 1 is_stmt 1 view -0
 3768              		.cfi_startproc
 3769              		@ args = 0, pretend = 0, frame = 0
 3770              		@ frame_needed = 0, uses_anonymous_args = 0
 3771              		@ link register save eliminated.
1016:D:/fchai/work/i-cube/I-CUBE-HUAWEI/Drivers/BSP/Components/lis2mdl\lis2mdl_reg.c ****   int32_t ret;
 3772              		.loc 1 1016 3 view .LVU1063
1017:D:/fchai/work/i-cube/I-CUBE-HUAWEI/Drivers/BSP/Components/lis2mdl\lis2mdl_reg.c ****   ret = lis2mdl_read_reg(ctx, LIS2MDL_INT_CRTL_REG, (uint8_t*) val, 1);
 3773              		.loc 1 1017 3 view .LVU1064
1015:D:/fchai/work/i-cube/I-CUBE-HUAWEI/Drivers/BSP/Components/lis2mdl\lis2mdl_reg.c ****   int32_t ret;
 3774              		.loc 1 1015 1 is_stmt 0 view .LVU1065
 3775 0000 10B4     		push	{r4}
 3776              	.LCFI120:
 3777              		.cfi_def_cfa_offset 4
 3778              		.cfi_offset 4, -4
 3779              	.LBB374:
 3780              	.LBB375:
  53:D:/fchai/work/i-cube/I-CUBE-HUAWEI/Drivers/BSP/Components/lis2mdl\lis2mdl_reg.c ****   return ret;
 3781              		.loc 1 53 9 view .LVU1066
 3782 0002 D0E90140 		ldrd	r4, r0, [r0, #4]
 3783              	.LVL306:
  53:D:/fchai/work/i-cube/I-CUBE-HUAWEI/Drivers/BSP/Components/lis2mdl\lis2mdl_reg.c ****   return ret;
 3784              		.loc 1 53 9 view .LVU1067
 3785              	.LBE375:
 3786              	.LBE374:
1015:D:/fchai/work/i-cube/I-CUBE-HUAWEI/Drivers/BSP/Components/lis2mdl\lis2mdl_reg.c ****   int32_t ret;
 3787              		.loc 1 1015 1 view .LVU1068
 3788 0006 0A46     		mov	r2, r1
 3789              	.LVL307:
 3790              	.LBB378:
 3791              	.LBI374:
  49:D:/fchai/work/i-cube/I-CUBE-HUAWEI/Drivers/BSP/Components/lis2mdl\lis2mdl_reg.c ****                          uint16_t len)
 3792              		.loc 1 49 9 is_stmt 1 view .LVU1069
 3793              	.LBB376:
  52:D:/fchai/work/i-cube/I-CUBE-HUAWEI/Drivers/BSP/Components/lis2mdl\lis2mdl_reg.c ****   ret = ctx->read_reg(ctx->handle, reg, data, len);
 3794              		.loc 1 52 3 view .LVU1070
  53:D:/fchai/work/i-cube/I-CUBE-HUAWEI/Drivers/BSP/Components/lis2mdl\lis2mdl_reg.c ****   return ret;
 3795              		.loc 1 53 3 view .LVU1071
  53:D:/fchai/work/i-cube/I-CUBE-HUAWEI/Drivers/BSP/Components/lis2mdl\lis2mdl_reg.c ****   return ret;
 3796              		.loc 1 53 9 is_stmt 0 view .LVU1072
 3797 0008 A446     		mov	ip, r4
 3798 000a 0123     		movs	r3, #1
 3799              	.LBE376:
 3800              	.LBE378:
1018:D:/fchai/work/i-cube/I-CUBE-HUAWEI/Drivers/BSP/Components/lis2mdl\lis2mdl_reg.c ****   return ret;
1019:D:/fchai/work/i-cube/I-CUBE-HUAWEI/Drivers/BSP/Components/lis2mdl\lis2mdl_reg.c **** }
 3801              		.loc 1 1019 1 view .LVU1073
 3802 000c 5DF8044B 		ldr	r4, [sp], #4
 3803              	.LCFI121:
 3804              		.cfi_restore 4
 3805              		.cfi_def_cfa_offset 0
 3806              	.LBB379:
 3807              	.LBB377:
  53:D:/fchai/work/i-cube/I-CUBE-HUAWEI/Drivers/BSP/Components/lis2mdl\lis2mdl_reg.c ****   return ret;
 3808              		.loc 1 53 9 view .LVU1074
 3809 0010 6321     		movs	r1, #99
 3810              	.LVL308:
ARM GAS  T:\msys\tmp\cct7nJJy.s 			page 95


  53:D:/fchai/work/i-cube/I-CUBE-HUAWEI/Drivers/BSP/Components/lis2mdl\lis2mdl_reg.c ****   return ret;
 3811              		.loc 1 53 9 view .LVU1075
 3812 0012 6047     		bx	ip
 3813              	.LVL309:
  53:D:/fchai/work/i-cube/I-CUBE-HUAWEI/Drivers/BSP/Components/lis2mdl\lis2mdl_reg.c ****   return ret;
 3814              		.loc 1 53 9 view .LVU1076
 3815              	.LBE377:
 3816              	.LBE379:
 3817              		.cfi_endproc
 3818              	.LFE43:
 3820              		.section	.text.lis2mdl_int_gen_source_get,"ax",%progbits
 3821              		.align	1
 3822              		.p2align 2,,3
 3823              		.global	lis2mdl_int_gen_source_get
 3824              		.syntax unified
 3825              		.thumb
 3826              		.thumb_func
 3827              		.fpu fpv4-sp-d16
 3829              	lis2mdl_int_gen_source_get:
 3830              	.LVL310:
 3831              	.LFB44:
1020:D:/fchai/work/i-cube/I-CUBE-HUAWEI/Drivers/BSP/Components/lis2mdl\lis2mdl_reg.c **** 
1021:D:/fchai/work/i-cube/I-CUBE-HUAWEI/Drivers/BSP/Components/lis2mdl\lis2mdl_reg.c **** /**
1022:D:/fchai/work/i-cube/I-CUBE-HUAWEI/Drivers/BSP/Components/lis2mdl\lis2mdl_reg.c ****   * @brief  Interrupt generator source register.[get]
1023:D:/fchai/work/i-cube/I-CUBE-HUAWEI/Drivers/BSP/Components/lis2mdl\lis2mdl_reg.c ****   *
1024:D:/fchai/work/i-cube/I-CUBE-HUAWEI/Drivers/BSP/Components/lis2mdl\lis2mdl_reg.c ****   * @param  ctx   read / write interface definitions.(ptr)
1025:D:/fchai/work/i-cube/I-CUBE-HUAWEI/Drivers/BSP/Components/lis2mdl\lis2mdl_reg.c ****   * @param  val   registers INT_SOURCE_REG.(ptr)
1026:D:/fchai/work/i-cube/I-CUBE-HUAWEI/Drivers/BSP/Components/lis2mdl\lis2mdl_reg.c ****   * @retval       interface status.(MANDATORY: return 0 -> no Error)
1027:D:/fchai/work/i-cube/I-CUBE-HUAWEI/Drivers/BSP/Components/lis2mdl\lis2mdl_reg.c ****   *
1028:D:/fchai/work/i-cube/I-CUBE-HUAWEI/Drivers/BSP/Components/lis2mdl\lis2mdl_reg.c ****   */
1029:D:/fchai/work/i-cube/I-CUBE-HUAWEI/Drivers/BSP/Components/lis2mdl\lis2mdl_reg.c **** int32_t lis2mdl_int_gen_source_get(stmdev_ctx_t *ctx,
1030:D:/fchai/work/i-cube/I-CUBE-HUAWEI/Drivers/BSP/Components/lis2mdl\lis2mdl_reg.c ****                                    lis2mdl_int_source_reg_t *val)
1031:D:/fchai/work/i-cube/I-CUBE-HUAWEI/Drivers/BSP/Components/lis2mdl\lis2mdl_reg.c **** {
 3832              		.loc 1 1031 1 is_stmt 1 view -0
 3833              		.cfi_startproc
 3834              		@ args = 0, pretend = 0, frame = 0
 3835              		@ frame_needed = 0, uses_anonymous_args = 0
 3836              		@ link register save eliminated.
1032:D:/fchai/work/i-cube/I-CUBE-HUAWEI/Drivers/BSP/Components/lis2mdl\lis2mdl_reg.c ****   int32_t ret;
 3837              		.loc 1 1032 3 view .LVU1078
1033:D:/fchai/work/i-cube/I-CUBE-HUAWEI/Drivers/BSP/Components/lis2mdl\lis2mdl_reg.c ****   ret = lis2mdl_read_reg(ctx, LIS2MDL_INT_SOURCE_REG, (uint8_t*) val, 1);
 3838              		.loc 1 1033 3 view .LVU1079
1031:D:/fchai/work/i-cube/I-CUBE-HUAWEI/Drivers/BSP/Components/lis2mdl\lis2mdl_reg.c ****   int32_t ret;
 3839              		.loc 1 1031 1 is_stmt 0 view .LVU1080
 3840 0000 10B4     		push	{r4}
 3841              	.LCFI122:
 3842              		.cfi_def_cfa_offset 4
 3843              		.cfi_offset 4, -4
 3844              	.LBB380:
 3845              	.LBB381:
  53:D:/fchai/work/i-cube/I-CUBE-HUAWEI/Drivers/BSP/Components/lis2mdl\lis2mdl_reg.c ****   return ret;
 3846              		.loc 1 53 9 view .LVU1081
 3847 0002 D0E90140 		ldrd	r4, r0, [r0, #4]
 3848              	.LVL311:
  53:D:/fchai/work/i-cube/I-CUBE-HUAWEI/Drivers/BSP/Components/lis2mdl\lis2mdl_reg.c ****   return ret;
 3849              		.loc 1 53 9 view .LVU1082
 3850              	.LBE381:
ARM GAS  T:\msys\tmp\cct7nJJy.s 			page 96


 3851              	.LBE380:
1031:D:/fchai/work/i-cube/I-CUBE-HUAWEI/Drivers/BSP/Components/lis2mdl\lis2mdl_reg.c ****   int32_t ret;
 3852              		.loc 1 1031 1 view .LVU1083
 3853 0006 0A46     		mov	r2, r1
 3854              	.LVL312:
 3855              	.LBB384:
 3856              	.LBI380:
  49:D:/fchai/work/i-cube/I-CUBE-HUAWEI/Drivers/BSP/Components/lis2mdl\lis2mdl_reg.c ****                          uint16_t len)
 3857              		.loc 1 49 9 is_stmt 1 view .LVU1084
 3858              	.LBB382:
  52:D:/fchai/work/i-cube/I-CUBE-HUAWEI/Drivers/BSP/Components/lis2mdl\lis2mdl_reg.c ****   ret = ctx->read_reg(ctx->handle, reg, data, len);
 3859              		.loc 1 52 3 view .LVU1085
  53:D:/fchai/work/i-cube/I-CUBE-HUAWEI/Drivers/BSP/Components/lis2mdl\lis2mdl_reg.c ****   return ret;
 3860              		.loc 1 53 3 view .LVU1086
  53:D:/fchai/work/i-cube/I-CUBE-HUAWEI/Drivers/BSP/Components/lis2mdl\lis2mdl_reg.c ****   return ret;
 3861              		.loc 1 53 9 is_stmt 0 view .LVU1087
 3862 0008 A446     		mov	ip, r4
 3863 000a 0123     		movs	r3, #1
 3864              	.LBE382:
 3865              	.LBE384:
1034:D:/fchai/work/i-cube/I-CUBE-HUAWEI/Drivers/BSP/Components/lis2mdl\lis2mdl_reg.c ****   return ret;
1035:D:/fchai/work/i-cube/I-CUBE-HUAWEI/Drivers/BSP/Components/lis2mdl\lis2mdl_reg.c **** }
 3866              		.loc 1 1035 1 view .LVU1088
 3867 000c 5DF8044B 		ldr	r4, [sp], #4
 3868              	.LCFI123:
 3869              		.cfi_restore 4
 3870              		.cfi_def_cfa_offset 0
 3871              	.LBB385:
 3872              	.LBB383:
  53:D:/fchai/work/i-cube/I-CUBE-HUAWEI/Drivers/BSP/Components/lis2mdl\lis2mdl_reg.c ****   return ret;
 3873              		.loc 1 53 9 view .LVU1089
 3874 0010 6421     		movs	r1, #100
 3875              	.LVL313:
  53:D:/fchai/work/i-cube/I-CUBE-HUAWEI/Drivers/BSP/Components/lis2mdl\lis2mdl_reg.c ****   return ret;
 3876              		.loc 1 53 9 view .LVU1090
 3877 0012 6047     		bx	ip
 3878              	.LVL314:
  53:D:/fchai/work/i-cube/I-CUBE-HUAWEI/Drivers/BSP/Components/lis2mdl\lis2mdl_reg.c ****   return ret;
 3879              		.loc 1 53 9 view .LVU1091
 3880              	.LBE383:
 3881              	.LBE385:
 3882              		.cfi_endproc
 3883              	.LFE44:
 3885              		.section	.text.lis2mdl_int_gen_treshold_set,"ax",%progbits
 3886              		.align	1
 3887              		.p2align 2,,3
 3888              		.global	lis2mdl_int_gen_treshold_set
 3889              		.syntax unified
 3890              		.thumb
 3891              		.thumb_func
 3892              		.fpu fpv4-sp-d16
 3894              	lis2mdl_int_gen_treshold_set:
 3895              	.LVL315:
 3896              	.LFB45:
1036:D:/fchai/work/i-cube/I-CUBE-HUAWEI/Drivers/BSP/Components/lis2mdl\lis2mdl_reg.c **** 
1037:D:/fchai/work/i-cube/I-CUBE-HUAWEI/Drivers/BSP/Components/lis2mdl\lis2mdl_reg.c **** /**
1038:D:/fchai/work/i-cube/I-CUBE-HUAWEI/Drivers/BSP/Components/lis2mdl\lis2mdl_reg.c ****   * @brief  User-defined threshold value for xl interrupt event on generator.
ARM GAS  T:\msys\tmp\cct7nJJy.s 			page 97


1039:D:/fchai/work/i-cube/I-CUBE-HUAWEI/Drivers/BSP/Components/lis2mdl\lis2mdl_reg.c ****   *         Data format is the same of output data raw: two’s complement with
1040:D:/fchai/work/i-cube/I-CUBE-HUAWEI/Drivers/BSP/Components/lis2mdl\lis2mdl_reg.c ****   *         1LSb = 1.5mG.[set]
1041:D:/fchai/work/i-cube/I-CUBE-HUAWEI/Drivers/BSP/Components/lis2mdl\lis2mdl_reg.c ****   *
1042:D:/fchai/work/i-cube/I-CUBE-HUAWEI/Drivers/BSP/Components/lis2mdl\lis2mdl_reg.c ****   * @param  ctx   read / write interface definitions.(ptr)
1043:D:/fchai/work/i-cube/I-CUBE-HUAWEI/Drivers/BSP/Components/lis2mdl\lis2mdl_reg.c ****   * @param  buff  that contains data to write
1044:D:/fchai/work/i-cube/I-CUBE-HUAWEI/Drivers/BSP/Components/lis2mdl\lis2mdl_reg.c ****   * @retval       interface status.(MANDATORY: return 0 -> no Error)
1045:D:/fchai/work/i-cube/I-CUBE-HUAWEI/Drivers/BSP/Components/lis2mdl\lis2mdl_reg.c ****   *
1046:D:/fchai/work/i-cube/I-CUBE-HUAWEI/Drivers/BSP/Components/lis2mdl\lis2mdl_reg.c ****   */
1047:D:/fchai/work/i-cube/I-CUBE-HUAWEI/Drivers/BSP/Components/lis2mdl\lis2mdl_reg.c **** int32_t lis2mdl_int_gen_treshold_set(stmdev_ctx_t *ctx, uint8_t *buff)
1048:D:/fchai/work/i-cube/I-CUBE-HUAWEI/Drivers/BSP/Components/lis2mdl\lis2mdl_reg.c **** {
 3897              		.loc 1 1048 1 is_stmt 1 view -0
 3898              		.cfi_startproc
 3899              		@ args = 0, pretend = 0, frame = 0
 3900              		@ frame_needed = 0, uses_anonymous_args = 0
 3901              		@ link register save eliminated.
1049:D:/fchai/work/i-cube/I-CUBE-HUAWEI/Drivers/BSP/Components/lis2mdl\lis2mdl_reg.c ****   int32_t ret;
 3902              		.loc 1 1049 3 view .LVU1093
1050:D:/fchai/work/i-cube/I-CUBE-HUAWEI/Drivers/BSP/Components/lis2mdl\lis2mdl_reg.c ****   ret = lis2mdl_write_reg(ctx, LIS2MDL_INT_THS_L_REG, buff, 2);
 3903              		.loc 1 1050 3 view .LVU1094
1048:D:/fchai/work/i-cube/I-CUBE-HUAWEI/Drivers/BSP/Components/lis2mdl\lis2mdl_reg.c ****   int32_t ret;
 3904              		.loc 1 1048 1 is_stmt 0 view .LVU1095
 3905 0000 10B4     		push	{r4}
 3906              	.LCFI124:
 3907              		.cfi_def_cfa_offset 4
 3908              		.cfi_offset 4, -4
 3909              	.LBB386:
 3910              	.LBB387:
  71:D:/fchai/work/i-cube/I-CUBE-HUAWEI/Drivers/BSP/Components/lis2mdl\lis2mdl_reg.c ****   return ret;
 3911              		.loc 1 71 9 view .LVU1096
 3912 0002 0468     		ldr	r4, [r0]
 3913 0004 8068     		ldr	r0, [r0, #8]
 3914              	.LVL316:
  71:D:/fchai/work/i-cube/I-CUBE-HUAWEI/Drivers/BSP/Components/lis2mdl\lis2mdl_reg.c ****   return ret;
 3915              		.loc 1 71 9 view .LVU1097
 3916              	.LBE387:
 3917              	.LBE386:
1048:D:/fchai/work/i-cube/I-CUBE-HUAWEI/Drivers/BSP/Components/lis2mdl\lis2mdl_reg.c ****   int32_t ret;
 3918              		.loc 1 1048 1 view .LVU1098
 3919 0006 0A46     		mov	r2, r1
 3920              	.LVL317:
 3921              	.LBB390:
 3922              	.LBI386:
  67:D:/fchai/work/i-cube/I-CUBE-HUAWEI/Drivers/BSP/Components/lis2mdl\lis2mdl_reg.c ****                           uint16_t len)
 3923              		.loc 1 67 9 is_stmt 1 view .LVU1099
 3924              	.LBB388:
  70:D:/fchai/work/i-cube/I-CUBE-HUAWEI/Drivers/BSP/Components/lis2mdl\lis2mdl_reg.c ****   ret = ctx->write_reg(ctx->handle, reg, data, len);
 3925              		.loc 1 70 3 view .LVU1100
  71:D:/fchai/work/i-cube/I-CUBE-HUAWEI/Drivers/BSP/Components/lis2mdl\lis2mdl_reg.c ****   return ret;
 3926              		.loc 1 71 3 view .LVU1101
  71:D:/fchai/work/i-cube/I-CUBE-HUAWEI/Drivers/BSP/Components/lis2mdl\lis2mdl_reg.c ****   return ret;
 3927              		.loc 1 71 9 is_stmt 0 view .LVU1102
 3928 0008 A446     		mov	ip, r4
 3929 000a 0223     		movs	r3, #2
 3930              	.LBE388:
 3931              	.LBE390:
1051:D:/fchai/work/i-cube/I-CUBE-HUAWEI/Drivers/BSP/Components/lis2mdl\lis2mdl_reg.c ****   return ret;
1052:D:/fchai/work/i-cube/I-CUBE-HUAWEI/Drivers/BSP/Components/lis2mdl\lis2mdl_reg.c **** }
ARM GAS  T:\msys\tmp\cct7nJJy.s 			page 98


 3932              		.loc 1 1052 1 view .LVU1103
 3933 000c 5DF8044B 		ldr	r4, [sp], #4
 3934              	.LCFI125:
 3935              		.cfi_restore 4
 3936              		.cfi_def_cfa_offset 0
 3937              	.LBB391:
 3938              	.LBB389:
  71:D:/fchai/work/i-cube/I-CUBE-HUAWEI/Drivers/BSP/Components/lis2mdl\lis2mdl_reg.c ****   return ret;
 3939              		.loc 1 71 9 view .LVU1104
 3940 0010 6521     		movs	r1, #101
 3941              	.LVL318:
  71:D:/fchai/work/i-cube/I-CUBE-HUAWEI/Drivers/BSP/Components/lis2mdl\lis2mdl_reg.c ****   return ret;
 3942              		.loc 1 71 9 view .LVU1105
 3943 0012 6047     		bx	ip
 3944              	.LVL319:
  71:D:/fchai/work/i-cube/I-CUBE-HUAWEI/Drivers/BSP/Components/lis2mdl\lis2mdl_reg.c ****   return ret;
 3945              		.loc 1 71 9 view .LVU1106
 3946              	.LBE389:
 3947              	.LBE391:
 3948              		.cfi_endproc
 3949              	.LFE45:
 3951              		.section	.text.lis2mdl_int_gen_treshold_get,"ax",%progbits
 3952              		.align	1
 3953              		.p2align 2,,3
 3954              		.global	lis2mdl_int_gen_treshold_get
 3955              		.syntax unified
 3956              		.thumb
 3957              		.thumb_func
 3958              		.fpu fpv4-sp-d16
 3960              	lis2mdl_int_gen_treshold_get:
 3961              	.LVL320:
 3962              	.LFB46:
1053:D:/fchai/work/i-cube/I-CUBE-HUAWEI/Drivers/BSP/Components/lis2mdl\lis2mdl_reg.c **** 
1054:D:/fchai/work/i-cube/I-CUBE-HUAWEI/Drivers/BSP/Components/lis2mdl\lis2mdl_reg.c **** /**
1055:D:/fchai/work/i-cube/I-CUBE-HUAWEI/Drivers/BSP/Components/lis2mdl\lis2mdl_reg.c ****   * @brief  User-defined threshold value for xl interrupt event on generator.
1056:D:/fchai/work/i-cube/I-CUBE-HUAWEI/Drivers/BSP/Components/lis2mdl\lis2mdl_reg.c ****   *         Data format is the same of output data raw: two’s complement with
1057:D:/fchai/work/i-cube/I-CUBE-HUAWEI/Drivers/BSP/Components/lis2mdl\lis2mdl_reg.c ****   *         1LSb = 1.5mG.[get]
1058:D:/fchai/work/i-cube/I-CUBE-HUAWEI/Drivers/BSP/Components/lis2mdl\lis2mdl_reg.c ****   *
1059:D:/fchai/work/i-cube/I-CUBE-HUAWEI/Drivers/BSP/Components/lis2mdl\lis2mdl_reg.c ****   * @param  ctx   read / write interface definitions.(ptr)
1060:D:/fchai/work/i-cube/I-CUBE-HUAWEI/Drivers/BSP/Components/lis2mdl\lis2mdl_reg.c ****   * @param  buff  that stores data read
1061:D:/fchai/work/i-cube/I-CUBE-HUAWEI/Drivers/BSP/Components/lis2mdl\lis2mdl_reg.c ****   * @retval       interface status.(MANDATORY: return 0 -> no Error)
1062:D:/fchai/work/i-cube/I-CUBE-HUAWEI/Drivers/BSP/Components/lis2mdl\lis2mdl_reg.c ****   *
1063:D:/fchai/work/i-cube/I-CUBE-HUAWEI/Drivers/BSP/Components/lis2mdl\lis2mdl_reg.c ****   */
1064:D:/fchai/work/i-cube/I-CUBE-HUAWEI/Drivers/BSP/Components/lis2mdl\lis2mdl_reg.c **** int32_t lis2mdl_int_gen_treshold_get(stmdev_ctx_t *ctx, uint8_t *buff)
1065:D:/fchai/work/i-cube/I-CUBE-HUAWEI/Drivers/BSP/Components/lis2mdl\lis2mdl_reg.c **** {
 3963              		.loc 1 1065 1 is_stmt 1 view -0
 3964              		.cfi_startproc
 3965              		@ args = 0, pretend = 0, frame = 0
 3966              		@ frame_needed = 0, uses_anonymous_args = 0
 3967              		@ link register save eliminated.
1066:D:/fchai/work/i-cube/I-CUBE-HUAWEI/Drivers/BSP/Components/lis2mdl\lis2mdl_reg.c ****   int32_t ret;
 3968              		.loc 1 1066 3 view .LVU1108
1067:D:/fchai/work/i-cube/I-CUBE-HUAWEI/Drivers/BSP/Components/lis2mdl\lis2mdl_reg.c ****   ret = lis2mdl_read_reg(ctx, LIS2MDL_INT_THS_L_REG, buff, 2);
 3969              		.loc 1 1067 3 view .LVU1109
1065:D:/fchai/work/i-cube/I-CUBE-HUAWEI/Drivers/BSP/Components/lis2mdl\lis2mdl_reg.c ****   int32_t ret;
 3970              		.loc 1 1065 1 is_stmt 0 view .LVU1110
 3971 0000 10B4     		push	{r4}
ARM GAS  T:\msys\tmp\cct7nJJy.s 			page 99


 3972              	.LCFI126:
 3973              		.cfi_def_cfa_offset 4
 3974              		.cfi_offset 4, -4
 3975              	.LBB392:
 3976              	.LBB393:
  53:D:/fchai/work/i-cube/I-CUBE-HUAWEI/Drivers/BSP/Components/lis2mdl\lis2mdl_reg.c ****   return ret;
 3977              		.loc 1 53 9 view .LVU1111
 3978 0002 D0E90140 		ldrd	r4, r0, [r0, #4]
 3979              	.LVL321:
  53:D:/fchai/work/i-cube/I-CUBE-HUAWEI/Drivers/BSP/Components/lis2mdl\lis2mdl_reg.c ****   return ret;
 3980              		.loc 1 53 9 view .LVU1112
 3981              	.LBE393:
 3982              	.LBE392:
1065:D:/fchai/work/i-cube/I-CUBE-HUAWEI/Drivers/BSP/Components/lis2mdl\lis2mdl_reg.c ****   int32_t ret;
 3983              		.loc 1 1065 1 view .LVU1113
 3984 0006 0A46     		mov	r2, r1
 3985              	.LVL322:
 3986              	.LBB396:
 3987              	.LBI392:
  49:D:/fchai/work/i-cube/I-CUBE-HUAWEI/Drivers/BSP/Components/lis2mdl\lis2mdl_reg.c ****                          uint16_t len)
 3988              		.loc 1 49 9 is_stmt 1 view .LVU1114
 3989              	.LBB394:
  52:D:/fchai/work/i-cube/I-CUBE-HUAWEI/Drivers/BSP/Components/lis2mdl\lis2mdl_reg.c ****   ret = ctx->read_reg(ctx->handle, reg, data, len);
 3990              		.loc 1 52 3 view .LVU1115
  53:D:/fchai/work/i-cube/I-CUBE-HUAWEI/Drivers/BSP/Components/lis2mdl\lis2mdl_reg.c ****   return ret;
 3991              		.loc 1 53 3 view .LVU1116
  53:D:/fchai/work/i-cube/I-CUBE-HUAWEI/Drivers/BSP/Components/lis2mdl\lis2mdl_reg.c ****   return ret;
 3992              		.loc 1 53 9 is_stmt 0 view .LVU1117
 3993 0008 A446     		mov	ip, r4
 3994 000a 0223     		movs	r3, #2
 3995              	.LBE394:
 3996              	.LBE396:
1068:D:/fchai/work/i-cube/I-CUBE-HUAWEI/Drivers/BSP/Components/lis2mdl\lis2mdl_reg.c ****   return ret;
1069:D:/fchai/work/i-cube/I-CUBE-HUAWEI/Drivers/BSP/Components/lis2mdl\lis2mdl_reg.c **** }
 3997              		.loc 1 1069 1 view .LVU1118
 3998 000c 5DF8044B 		ldr	r4, [sp], #4
 3999              	.LCFI127:
 4000              		.cfi_restore 4
 4001              		.cfi_def_cfa_offset 0
 4002              	.LBB397:
 4003              	.LBB395:
  53:D:/fchai/work/i-cube/I-CUBE-HUAWEI/Drivers/BSP/Components/lis2mdl\lis2mdl_reg.c ****   return ret;
 4004              		.loc 1 53 9 view .LVU1119
 4005 0010 6521     		movs	r1, #101
 4006              	.LVL323:
  53:D:/fchai/work/i-cube/I-CUBE-HUAWEI/Drivers/BSP/Components/lis2mdl\lis2mdl_reg.c ****   return ret;
 4007              		.loc 1 53 9 view .LVU1120
 4008 0012 6047     		bx	ip
 4009              	.LVL324:
  53:D:/fchai/work/i-cube/I-CUBE-HUAWEI/Drivers/BSP/Components/lis2mdl\lis2mdl_reg.c ****   return ret;
 4010              		.loc 1 53 9 view .LVU1121
 4011              	.LBE395:
 4012              	.LBE397:
 4013              		.cfi_endproc
 4014              	.LFE46:
 4016              		.section	.text.lis2mdl_spi_mode_set,"ax",%progbits
 4017              		.align	1
ARM GAS  T:\msys\tmp\cct7nJJy.s 			page 100


 4018              		.p2align 2,,3
 4019              		.global	lis2mdl_spi_mode_set
 4020              		.syntax unified
 4021              		.thumb
 4022              		.thumb_func
 4023              		.fpu fpv4-sp-d16
 4025              	lis2mdl_spi_mode_set:
 4026              	.LVL325:
 4027              	.LFB47:
1070:D:/fchai/work/i-cube/I-CUBE-HUAWEI/Drivers/BSP/Components/lis2mdl\lis2mdl_reg.c **** 
1071:D:/fchai/work/i-cube/I-CUBE-HUAWEI/Drivers/BSP/Components/lis2mdl\lis2mdl_reg.c **** /**
1072:D:/fchai/work/i-cube/I-CUBE-HUAWEI/Drivers/BSP/Components/lis2mdl\lis2mdl_reg.c ****   * @}
1073:D:/fchai/work/i-cube/I-CUBE-HUAWEI/Drivers/BSP/Components/lis2mdl\lis2mdl_reg.c ****   *
1074:D:/fchai/work/i-cube/I-CUBE-HUAWEI/Drivers/BSP/Components/lis2mdl\lis2mdl_reg.c ****   */
1075:D:/fchai/work/i-cube/I-CUBE-HUAWEI/Drivers/BSP/Components/lis2mdl\lis2mdl_reg.c **** 
1076:D:/fchai/work/i-cube/I-CUBE-HUAWEI/Drivers/BSP/Components/lis2mdl\lis2mdl_reg.c **** /**
1077:D:/fchai/work/i-cube/I-CUBE-HUAWEI/Drivers/BSP/Components/lis2mdl\lis2mdl_reg.c ****   * @defgroup    LIS2MDL_serial_interface
1078:D:/fchai/work/i-cube/I-CUBE-HUAWEI/Drivers/BSP/Components/lis2mdl\lis2mdl_reg.c ****   * @brief       This section group all the functions concerning serial
1079:D:/fchai/work/i-cube/I-CUBE-HUAWEI/Drivers/BSP/Components/lis2mdl\lis2mdl_reg.c ****   *              interface management
1080:D:/fchai/work/i-cube/I-CUBE-HUAWEI/Drivers/BSP/Components/lis2mdl\lis2mdl_reg.c ****   * @{
1081:D:/fchai/work/i-cube/I-CUBE-HUAWEI/Drivers/BSP/Components/lis2mdl\lis2mdl_reg.c ****   *
1082:D:/fchai/work/i-cube/I-CUBE-HUAWEI/Drivers/BSP/Components/lis2mdl\lis2mdl_reg.c ****   */
1083:D:/fchai/work/i-cube/I-CUBE-HUAWEI/Drivers/BSP/Components/lis2mdl\lis2mdl_reg.c **** 
1084:D:/fchai/work/i-cube/I-CUBE-HUAWEI/Drivers/BSP/Components/lis2mdl\lis2mdl_reg.c **** /**
1085:D:/fchai/work/i-cube/I-CUBE-HUAWEI/Drivers/BSP/Components/lis2mdl\lis2mdl_reg.c ****   * @brief  SPI Serial Interface Mode selection.[set]
1086:D:/fchai/work/i-cube/I-CUBE-HUAWEI/Drivers/BSP/Components/lis2mdl\lis2mdl_reg.c ****   *
1087:D:/fchai/work/i-cube/I-CUBE-HUAWEI/Drivers/BSP/Components/lis2mdl\lis2mdl_reg.c ****   * @param  ctx      read / write interface definitions
1088:D:/fchai/work/i-cube/I-CUBE-HUAWEI/Drivers/BSP/Components/lis2mdl\lis2mdl_reg.c ****   * @param  val      change the values of 4wspi in reg CFG_REG_C
1089:D:/fchai/work/i-cube/I-CUBE-HUAWEI/Drivers/BSP/Components/lis2mdl\lis2mdl_reg.c ****   * @retval          interface status (MANDATORY: return 0 -> no Error)
1090:D:/fchai/work/i-cube/I-CUBE-HUAWEI/Drivers/BSP/Components/lis2mdl\lis2mdl_reg.c ****   *
1091:D:/fchai/work/i-cube/I-CUBE-HUAWEI/Drivers/BSP/Components/lis2mdl\lis2mdl_reg.c ****   */
1092:D:/fchai/work/i-cube/I-CUBE-HUAWEI/Drivers/BSP/Components/lis2mdl\lis2mdl_reg.c **** int32_t lis2mdl_spi_mode_set(stmdev_ctx_t *ctx, lis2mdl_sim_t val)
1093:D:/fchai/work/i-cube/I-CUBE-HUAWEI/Drivers/BSP/Components/lis2mdl\lis2mdl_reg.c **** {
 4028              		.loc 1 1093 1 is_stmt 1 view -0
 4029              		.cfi_startproc
 4030              		@ args = 0, pretend = 0, frame = 8
 4031              		@ frame_needed = 0, uses_anonymous_args = 0
1094:D:/fchai/work/i-cube/I-CUBE-HUAWEI/Drivers/BSP/Components/lis2mdl\lis2mdl_reg.c ****   lis2mdl_cfg_reg_c_t reg;
 4032              		.loc 1 1094 3 view .LVU1123
1095:D:/fchai/work/i-cube/I-CUBE-HUAWEI/Drivers/BSP/Components/lis2mdl\lis2mdl_reg.c ****   int32_t ret;
 4033              		.loc 1 1095 3 view .LVU1124
1096:D:/fchai/work/i-cube/I-CUBE-HUAWEI/Drivers/BSP/Components/lis2mdl\lis2mdl_reg.c **** 
1097:D:/fchai/work/i-cube/I-CUBE-HUAWEI/Drivers/BSP/Components/lis2mdl\lis2mdl_reg.c ****   ret = lis2mdl_read_reg(ctx, LIS2MDL_CFG_REG_C, (uint8_t*)&reg, 1);
 4034              		.loc 1 1097 3 view .LVU1125
1093:D:/fchai/work/i-cube/I-CUBE-HUAWEI/Drivers/BSP/Components/lis2mdl\lis2mdl_reg.c ****   lis2mdl_cfg_reg_c_t reg;
 4035              		.loc 1 1093 1 is_stmt 0 view .LVU1126
 4036 0000 70B5     		push	{r4, r5, r6, lr}
 4037              	.LCFI128:
 4038              		.cfi_def_cfa_offset 16
 4039              		.cfi_offset 4, -16
 4040              		.cfi_offset 5, -12
 4041              		.cfi_offset 6, -8
 4042              		.cfi_offset 14, -4
 4043 0002 82B0     		sub	sp, sp, #8
 4044              	.LCFI129:
 4045              		.cfi_def_cfa_offset 24
1093:D:/fchai/work/i-cube/I-CUBE-HUAWEI/Drivers/BSP/Components/lis2mdl\lis2mdl_reg.c ****   lis2mdl_cfg_reg_c_t reg;
ARM GAS  T:\msys\tmp\cct7nJJy.s 			page 101


 4046              		.loc 1 1093 1 view .LVU1127
 4047 0004 0446     		mov	r4, r0
 4048              	.LVL326:
 4049              	.LBB398:
 4050              	.LBI398:
  49:D:/fchai/work/i-cube/I-CUBE-HUAWEI/Drivers/BSP/Components/lis2mdl\lis2mdl_reg.c ****                          uint16_t len)
 4051              		.loc 1 49 9 is_stmt 1 view .LVU1128
 4052              	.LBB399:
  52:D:/fchai/work/i-cube/I-CUBE-HUAWEI/Drivers/BSP/Components/lis2mdl\lis2mdl_reg.c ****   ret = ctx->read_reg(ctx->handle, reg, data, len);
 4053              		.loc 1 52 3 view .LVU1129
  53:D:/fchai/work/i-cube/I-CUBE-HUAWEI/Drivers/BSP/Components/lis2mdl\lis2mdl_reg.c ****   return ret;
 4054              		.loc 1 53 3 view .LVU1130
 4055              	.LBE399:
 4056              	.LBE398:
1093:D:/fchai/work/i-cube/I-CUBE-HUAWEI/Drivers/BSP/Components/lis2mdl\lis2mdl_reg.c ****   lis2mdl_cfg_reg_c_t reg;
 4057              		.loc 1 1093 1 is_stmt 0 view .LVU1131
 4058 0006 0D46     		mov	r5, r1
 4059              	.LBB401:
 4060              	.LBB400:
  53:D:/fchai/work/i-cube/I-CUBE-HUAWEI/Drivers/BSP/Components/lis2mdl\lis2mdl_reg.c ****   return ret;
 4061              		.loc 1 53 9 view .LVU1132
 4062 0008 D0E90160 		ldrd	r6, r0, [r0, #4]
 4063              	.LVL327:
  53:D:/fchai/work/i-cube/I-CUBE-HUAWEI/Drivers/BSP/Components/lis2mdl\lis2mdl_reg.c ****   return ret;
 4064              		.loc 1 53 9 view .LVU1133
 4065 000c 01AA     		add	r2, sp, #4
 4066              	.LVL328:
  53:D:/fchai/work/i-cube/I-CUBE-HUAWEI/Drivers/BSP/Components/lis2mdl\lis2mdl_reg.c ****   return ret;
 4067              		.loc 1 53 9 view .LVU1134
 4068 000e 0123     		movs	r3, #1
 4069 0010 6221     		movs	r1, #98
 4070              	.LVL329:
  53:D:/fchai/work/i-cube/I-CUBE-HUAWEI/Drivers/BSP/Components/lis2mdl\lis2mdl_reg.c ****   return ret;
 4071              		.loc 1 53 9 view .LVU1135
 4072 0012 B047     		blx	r6
 4073              	.LVL330:
  54:D:/fchai/work/i-cube/I-CUBE-HUAWEI/Drivers/BSP/Components/lis2mdl\lis2mdl_reg.c **** }
 4074              		.loc 1 54 3 is_stmt 1 view .LVU1136
  54:D:/fchai/work/i-cube/I-CUBE-HUAWEI/Drivers/BSP/Components/lis2mdl\lis2mdl_reg.c **** }
 4075              		.loc 1 54 3 is_stmt 0 view .LVU1137
 4076              	.LBE400:
 4077              	.LBE401:
1098:D:/fchai/work/i-cube/I-CUBE-HUAWEI/Drivers/BSP/Components/lis2mdl\lis2mdl_reg.c **** 
1099:D:/fchai/work/i-cube/I-CUBE-HUAWEI/Drivers/BSP/Components/lis2mdl\lis2mdl_reg.c ****   if(ret == 0){
 4078              		.loc 1 1099 3 is_stmt 1 view .LVU1138
 4079              		.loc 1 1099 5 is_stmt 0 view .LVU1139
 4080 0014 58B9     		cbnz	r0, .L127
1100:D:/fchai/work/i-cube/I-CUBE-HUAWEI/Drivers/BSP/Components/lis2mdl\lis2mdl_reg.c ****     reg._4wspi = (uint8_t)val;
 4081              		.loc 1 1100 5 is_stmt 1 view .LVU1140
 4082              		.loc 1 1100 16 is_stmt 0 view .LVU1141
 4083 0016 9DF80430 		ldrb	r3, [sp, #4]	@ zero_extendqisi2
 4084              	.LBB402:
 4085              	.LBB403:
  71:D:/fchai/work/i-cube/I-CUBE-HUAWEI/Drivers/BSP/Components/lis2mdl\lis2mdl_reg.c ****   return ret;
 4086              		.loc 1 71 9 view .LVU1142
 4087 001a 2668     		ldr	r6, [r4]
 4088 001c A068     		ldr	r0, [r4, #8]
ARM GAS  T:\msys\tmp\cct7nJJy.s 			page 102


 4089              	.LVL331:
  71:D:/fchai/work/i-cube/I-CUBE-HUAWEI/Drivers/BSP/Components/lis2mdl\lis2mdl_reg.c ****   return ret;
 4090              		.loc 1 71 9 view .LVU1143
 4091              	.LBE403:
 4092              	.LBE402:
 4093              		.loc 1 1100 16 view .LVU1144
 4094 001e 65F38203 		bfi	r3, r5, #2, #1
 4095 0022 8DF80430 		strb	r3, [sp, #4]
1101:D:/fchai/work/i-cube/I-CUBE-HUAWEI/Drivers/BSP/Components/lis2mdl\lis2mdl_reg.c ****     ret = lis2mdl_write_reg(ctx, LIS2MDL_CFG_REG_C, (uint8_t*)&reg, 1);
 4096              		.loc 1 1101 5 is_stmt 1 view .LVU1145
 4097              	.LVL332:
 4098              	.LBB405:
 4099              	.LBI402:
  67:D:/fchai/work/i-cube/I-CUBE-HUAWEI/Drivers/BSP/Components/lis2mdl\lis2mdl_reg.c ****                           uint16_t len)
 4100              		.loc 1 67 9 view .LVU1146
 4101              	.LBB404:
  70:D:/fchai/work/i-cube/I-CUBE-HUAWEI/Drivers/BSP/Components/lis2mdl\lis2mdl_reg.c ****   ret = ctx->write_reg(ctx->handle, reg, data, len);
 4102              		.loc 1 70 3 view .LVU1147
  71:D:/fchai/work/i-cube/I-CUBE-HUAWEI/Drivers/BSP/Components/lis2mdl\lis2mdl_reg.c ****   return ret;
 4103              		.loc 1 71 3 view .LVU1148
  71:D:/fchai/work/i-cube/I-CUBE-HUAWEI/Drivers/BSP/Components/lis2mdl\lis2mdl_reg.c ****   return ret;
 4104              		.loc 1 71 9 is_stmt 0 view .LVU1149
 4105 0026 01AA     		add	r2, sp, #4
 4106              	.LVL333:
  71:D:/fchai/work/i-cube/I-CUBE-HUAWEI/Drivers/BSP/Components/lis2mdl\lis2mdl_reg.c ****   return ret;
 4107              		.loc 1 71 9 view .LVU1150
 4108 0028 0123     		movs	r3, #1
 4109 002a 6221     		movs	r1, #98
 4110 002c B047     		blx	r6
 4111              	.LVL334:
  72:D:/fchai/work/i-cube/I-CUBE-HUAWEI/Drivers/BSP/Components/lis2mdl\lis2mdl_reg.c **** }
 4112              		.loc 1 72 3 is_stmt 1 view .LVU1151
  72:D:/fchai/work/i-cube/I-CUBE-HUAWEI/Drivers/BSP/Components/lis2mdl\lis2mdl_reg.c **** }
 4113              		.loc 1 72 3 is_stmt 0 view .LVU1152
 4114              	.LBE404:
 4115              	.LBE405:
1102:D:/fchai/work/i-cube/I-CUBE-HUAWEI/Drivers/BSP/Components/lis2mdl\lis2mdl_reg.c ****   }
1103:D:/fchai/work/i-cube/I-CUBE-HUAWEI/Drivers/BSP/Components/lis2mdl\lis2mdl_reg.c **** 
1104:D:/fchai/work/i-cube/I-CUBE-HUAWEI/Drivers/BSP/Components/lis2mdl\lis2mdl_reg.c ****   return ret;
 4116              		.loc 1 1104 3 is_stmt 1 view .LVU1153
 4117              	.L127:
1105:D:/fchai/work/i-cube/I-CUBE-HUAWEI/Drivers/BSP/Components/lis2mdl\lis2mdl_reg.c **** }
 4118              		.loc 1 1105 1 is_stmt 0 view .LVU1154
 4119 002e 02B0     		add	sp, sp, #8
 4120              	.LCFI130:
 4121              		.cfi_def_cfa_offset 16
 4122              		@ sp needed
 4123 0030 70BD     		pop	{r4, r5, r6, pc}
 4124              		.loc 1 1105 1 view .LVU1155
 4125              		.cfi_endproc
 4126              	.LFE47:
 4128 0032 00BF     		.section	.text.lis2mdl_spi_mode_get,"ax",%progbits
 4129              		.align	1
 4130              		.p2align 2,,3
 4131              		.global	lis2mdl_spi_mode_get
 4132              		.syntax unified
 4133              		.thumb
ARM GAS  T:\msys\tmp\cct7nJJy.s 			page 103


 4134              		.thumb_func
 4135              		.fpu fpv4-sp-d16
 4137              	lis2mdl_spi_mode_get:
 4138              	.LVL335:
 4139              	.LFB48:
1106:D:/fchai/work/i-cube/I-CUBE-HUAWEI/Drivers/BSP/Components/lis2mdl\lis2mdl_reg.c **** 
1107:D:/fchai/work/i-cube/I-CUBE-HUAWEI/Drivers/BSP/Components/lis2mdl\lis2mdl_reg.c **** /**
1108:D:/fchai/work/i-cube/I-CUBE-HUAWEI/Drivers/BSP/Components/lis2mdl\lis2mdl_reg.c ****   * @brief  SPI Serial Interface Mode selection.[get]
1109:D:/fchai/work/i-cube/I-CUBE-HUAWEI/Drivers/BSP/Components/lis2mdl\lis2mdl_reg.c ****   *
1110:D:/fchai/work/i-cube/I-CUBE-HUAWEI/Drivers/BSP/Components/lis2mdl\lis2mdl_reg.c ****   * @param  ctx      read / write interface definitions
1111:D:/fchai/work/i-cube/I-CUBE-HUAWEI/Drivers/BSP/Components/lis2mdl\lis2mdl_reg.c ****   * @param  val      Get the values of 4wspi in reg CFG_REG_C
1112:D:/fchai/work/i-cube/I-CUBE-HUAWEI/Drivers/BSP/Components/lis2mdl\lis2mdl_reg.c ****   * @retval          interface status (MANDATORY: return 0 -> no Error)
1113:D:/fchai/work/i-cube/I-CUBE-HUAWEI/Drivers/BSP/Components/lis2mdl\lis2mdl_reg.c ****   *
1114:D:/fchai/work/i-cube/I-CUBE-HUAWEI/Drivers/BSP/Components/lis2mdl\lis2mdl_reg.c ****   */
1115:D:/fchai/work/i-cube/I-CUBE-HUAWEI/Drivers/BSP/Components/lis2mdl\lis2mdl_reg.c **** int32_t lis2mdl_spi_mode_get(stmdev_ctx_t *ctx, lis2mdl_sim_t *val)
1116:D:/fchai/work/i-cube/I-CUBE-HUAWEI/Drivers/BSP/Components/lis2mdl\lis2mdl_reg.c **** {
 4140              		.loc 1 1116 1 is_stmt 1 view -0
 4141              		.cfi_startproc
 4142              		@ args = 0, pretend = 0, frame = 8
 4143              		@ frame_needed = 0, uses_anonymous_args = 0
1117:D:/fchai/work/i-cube/I-CUBE-HUAWEI/Drivers/BSP/Components/lis2mdl\lis2mdl_reg.c ****   lis2mdl_cfg_reg_c_t reg;
 4144              		.loc 1 1117 3 view .LVU1157
1118:D:/fchai/work/i-cube/I-CUBE-HUAWEI/Drivers/BSP/Components/lis2mdl\lis2mdl_reg.c ****   int32_t ret;
 4145              		.loc 1 1118 3 view .LVU1158
1119:D:/fchai/work/i-cube/I-CUBE-HUAWEI/Drivers/BSP/Components/lis2mdl\lis2mdl_reg.c **** 
1120:D:/fchai/work/i-cube/I-CUBE-HUAWEI/Drivers/BSP/Components/lis2mdl\lis2mdl_reg.c ****   ret = lis2mdl_read_reg(ctx, LIS2MDL_CFG_REG_C, (uint8_t*)&reg, 1);
 4146              		.loc 1 1120 3 view .LVU1159
1116:D:/fchai/work/i-cube/I-CUBE-HUAWEI/Drivers/BSP/Components/lis2mdl\lis2mdl_reg.c ****   lis2mdl_cfg_reg_c_t reg;
 4147              		.loc 1 1116 1 is_stmt 0 view .LVU1160
 4148 0000 30B5     		push	{r4, r5, lr}
 4149              	.LCFI131:
 4150              		.cfi_def_cfa_offset 12
 4151              		.cfi_offset 4, -12
 4152              		.cfi_offset 5, -8
 4153              		.cfi_offset 14, -4
 4154 0002 83B0     		sub	sp, sp, #12
 4155              	.LCFI132:
 4156              		.cfi_def_cfa_offset 24
 4157              	.LVL336:
 4158              	.LBB406:
 4159              	.LBI406:
  49:D:/fchai/work/i-cube/I-CUBE-HUAWEI/Drivers/BSP/Components/lis2mdl\lis2mdl_reg.c ****                          uint16_t len)
 4160              		.loc 1 49 9 is_stmt 1 view .LVU1161
 4161              	.LBB407:
  52:D:/fchai/work/i-cube/I-CUBE-HUAWEI/Drivers/BSP/Components/lis2mdl\lis2mdl_reg.c ****   ret = ctx->read_reg(ctx->handle, reg, data, len);
 4162              		.loc 1 52 3 view .LVU1162
  53:D:/fchai/work/i-cube/I-CUBE-HUAWEI/Drivers/BSP/Components/lis2mdl\lis2mdl_reg.c ****   return ret;
 4163              		.loc 1 53 3 view .LVU1163
 4164              	.LBE407:
 4165              	.LBE406:
1116:D:/fchai/work/i-cube/I-CUBE-HUAWEI/Drivers/BSP/Components/lis2mdl\lis2mdl_reg.c ****   lis2mdl_cfg_reg_c_t reg;
 4166              		.loc 1 1116 1 is_stmt 0 view .LVU1164
 4167 0004 0C46     		mov	r4, r1
 4168              	.LBB410:
 4169              	.LBB408:
  53:D:/fchai/work/i-cube/I-CUBE-HUAWEI/Drivers/BSP/Components/lis2mdl\lis2mdl_reg.c ****   return ret;
 4170              		.loc 1 53 9 view .LVU1165
ARM GAS  T:\msys\tmp\cct7nJJy.s 			page 104


 4171 0006 01AA     		add	r2, sp, #4
 4172              	.LVL337:
  53:D:/fchai/work/i-cube/I-CUBE-HUAWEI/Drivers/BSP/Components/lis2mdl\lis2mdl_reg.c ****   return ret;
 4173              		.loc 1 53 9 view .LVU1166
 4174 0008 D0E90150 		ldrd	r5, r0, [r0, #4]
 4175              	.LVL338:
  53:D:/fchai/work/i-cube/I-CUBE-HUAWEI/Drivers/BSP/Components/lis2mdl\lis2mdl_reg.c ****   return ret;
 4176              		.loc 1 53 9 view .LVU1167
 4177 000c 0123     		movs	r3, #1
 4178 000e 6221     		movs	r1, #98
 4179              	.LVL339:
  53:D:/fchai/work/i-cube/I-CUBE-HUAWEI/Drivers/BSP/Components/lis2mdl\lis2mdl_reg.c ****   return ret;
 4180              		.loc 1 53 9 view .LVU1168
 4181 0010 A847     		blx	r5
 4182              	.LVL340:
  53:D:/fchai/work/i-cube/I-CUBE-HUAWEI/Drivers/BSP/Components/lis2mdl\lis2mdl_reg.c ****   return ret;
 4183              		.loc 1 53 9 view .LVU1169
 4184              	.LBE408:
 4185              	.LBE410:
1121:D:/fchai/work/i-cube/I-CUBE-HUAWEI/Drivers/BSP/Components/lis2mdl\lis2mdl_reg.c ****   switch (reg._4wspi){
 4186              		.loc 1 1121 14 view .LVU1170
 4187 0012 9DF80430 		ldrb	r3, [sp, #4]	@ zero_extendqisi2
 4188              	.LVL341:
 4189              	.LBB411:
 4190              	.LBB409:
  54:D:/fchai/work/i-cube/I-CUBE-HUAWEI/Drivers/BSP/Components/lis2mdl\lis2mdl_reg.c **** }
 4191              		.loc 1 54 3 is_stmt 1 view .LVU1171
  54:D:/fchai/work/i-cube/I-CUBE-HUAWEI/Drivers/BSP/Components/lis2mdl\lis2mdl_reg.c **** }
 4192              		.loc 1 54 3 is_stmt 0 view .LVU1172
 4193              	.LBE409:
 4194              	.LBE411:
 4195              		.loc 1 1121 3 is_stmt 1 view .LVU1173
 4196              		.loc 1 1121 14 is_stmt 0 view .LVU1174
 4197 0016 C3F38002 		ubfx	r2, r3, #2, #1
 4198              		.loc 1 1121 3 view .LVU1175
 4199 001a 5B07     		lsls	r3, r3, #29
1122:D:/fchai/work/i-cube/I-CUBE-HUAWEI/Drivers/BSP/Components/lis2mdl\lis2mdl_reg.c ****     case LIS2MDL_SPI_4_WIRE:
1123:D:/fchai/work/i-cube/I-CUBE-HUAWEI/Drivers/BSP/Components/lis2mdl\lis2mdl_reg.c ****       *val = LIS2MDL_SPI_4_WIRE;
 4200              		.loc 1 1123 7 is_stmt 1 view .LVU1176
1124:D:/fchai/work/i-cube/I-CUBE-HUAWEI/Drivers/BSP/Components/lis2mdl\lis2mdl_reg.c ****       break;
1125:D:/fchai/work/i-cube/I-CUBE-HUAWEI/Drivers/BSP/Components/lis2mdl\lis2mdl_reg.c ****     case LIS2MDL_SPI_3_WIRE:
1126:D:/fchai/work/i-cube/I-CUBE-HUAWEI/Drivers/BSP/Components/lis2mdl\lis2mdl_reg.c ****       *val = LIS2MDL_SPI_3_WIRE;
 4201              		.loc 1 1126 12 is_stmt 0 view .LVU1177
 4202 001c 56BF     		itet	pl
 4203 001e 0023     		movpl	r3, #0
1123:D:/fchai/work/i-cube/I-CUBE-HUAWEI/Drivers/BSP/Components/lis2mdl\lis2mdl_reg.c ****       break;
 4204              		.loc 1 1123 12 view .LVU1178
 4205 0020 2270     		strbmi	r2, [r4]
1124:D:/fchai/work/i-cube/I-CUBE-HUAWEI/Drivers/BSP/Components/lis2mdl\lis2mdl_reg.c ****       break;
 4206              		.loc 1 1124 7 is_stmt 1 view .LVU1179
 4207              		.loc 1 1126 7 view .LVU1180
 4208              		.loc 1 1126 12 is_stmt 0 view .LVU1181
 4209 0022 2370     		strbpl	r3, [r4]
1127:D:/fchai/work/i-cube/I-CUBE-HUAWEI/Drivers/BSP/Components/lis2mdl\lis2mdl_reg.c ****       break;
 4210              		.loc 1 1127 7 is_stmt 1 view .LVU1182
1128:D:/fchai/work/i-cube/I-CUBE-HUAWEI/Drivers/BSP/Components/lis2mdl\lis2mdl_reg.c ****     default:
1129:D:/fchai/work/i-cube/I-CUBE-HUAWEI/Drivers/BSP/Components/lis2mdl\lis2mdl_reg.c ****       *val = LIS2MDL_SPI_3_WIRE;
ARM GAS  T:\msys\tmp\cct7nJJy.s 			page 105


1130:D:/fchai/work/i-cube/I-CUBE-HUAWEI/Drivers/BSP/Components/lis2mdl\lis2mdl_reg.c ****       break;
1131:D:/fchai/work/i-cube/I-CUBE-HUAWEI/Drivers/BSP/Components/lis2mdl\lis2mdl_reg.c ****   }
1132:D:/fchai/work/i-cube/I-CUBE-HUAWEI/Drivers/BSP/Components/lis2mdl\lis2mdl_reg.c ****   return ret;
 4211              		.loc 1 1132 3 view .LVU1183
1133:D:/fchai/work/i-cube/I-CUBE-HUAWEI/Drivers/BSP/Components/lis2mdl\lis2mdl_reg.c **** }
 4212              		.loc 1 1133 1 is_stmt 0 view .LVU1184
 4213 0024 03B0     		add	sp, sp, #12
 4214              	.LCFI133:
 4215              		.cfi_def_cfa_offset 12
 4216              		@ sp needed
 4217 0026 30BD     		pop	{r4, r5, pc}
 4218              		.loc 1 1133 1 view .LVU1185
 4219              		.cfi_endproc
 4220              	.LFE48:
 4222              		.section	.text.lis2mdl_i2c_interface_set,"ax",%progbits
 4223              		.align	1
 4224              		.p2align 2,,3
 4225              		.global	lis2mdl_i2c_interface_set
 4226              		.syntax unified
 4227              		.thumb
 4228              		.thumb_func
 4229              		.fpu fpv4-sp-d16
 4231              	lis2mdl_i2c_interface_set:
 4232              	.LVL342:
 4233              	.LFB49:
1134:D:/fchai/work/i-cube/I-CUBE-HUAWEI/Drivers/BSP/Components/lis2mdl\lis2mdl_reg.c **** 
1135:D:/fchai/work/i-cube/I-CUBE-HUAWEI/Drivers/BSP/Components/lis2mdl\lis2mdl_reg.c **** /**
1136:D:/fchai/work/i-cube/I-CUBE-HUAWEI/Drivers/BSP/Components/lis2mdl\lis2mdl_reg.c ****   * @brief  Enable/Disable I2C interface.[set]
1137:D:/fchai/work/i-cube/I-CUBE-HUAWEI/Drivers/BSP/Components/lis2mdl\lis2mdl_reg.c ****   *
1138:D:/fchai/work/i-cube/I-CUBE-HUAWEI/Drivers/BSP/Components/lis2mdl\lis2mdl_reg.c ****   * @param  ctx   read / write interface definitions.(ptr)
1139:D:/fchai/work/i-cube/I-CUBE-HUAWEI/Drivers/BSP/Components/lis2mdl\lis2mdl_reg.c ****   * @param  val   change the values of i2c_dis in reg CFG_REG_C
1140:D:/fchai/work/i-cube/I-CUBE-HUAWEI/Drivers/BSP/Components/lis2mdl\lis2mdl_reg.c ****   * @retval       interface status.(MANDATORY: return 0 -> no Error)
1141:D:/fchai/work/i-cube/I-CUBE-HUAWEI/Drivers/BSP/Components/lis2mdl\lis2mdl_reg.c ****   *
1142:D:/fchai/work/i-cube/I-CUBE-HUAWEI/Drivers/BSP/Components/lis2mdl\lis2mdl_reg.c ****   */
1143:D:/fchai/work/i-cube/I-CUBE-HUAWEI/Drivers/BSP/Components/lis2mdl\lis2mdl_reg.c **** int32_t lis2mdl_i2c_interface_set(stmdev_ctx_t *ctx, lis2mdl_i2c_dis_t val)
1144:D:/fchai/work/i-cube/I-CUBE-HUAWEI/Drivers/BSP/Components/lis2mdl\lis2mdl_reg.c **** {
 4234              		.loc 1 1144 1 is_stmt 1 view -0
 4235              		.cfi_startproc
 4236              		@ args = 0, pretend = 0, frame = 8
 4237              		@ frame_needed = 0, uses_anonymous_args = 0
1145:D:/fchai/work/i-cube/I-CUBE-HUAWEI/Drivers/BSP/Components/lis2mdl\lis2mdl_reg.c ****   lis2mdl_cfg_reg_c_t reg;
 4238              		.loc 1 1145 3 view .LVU1187
1146:D:/fchai/work/i-cube/I-CUBE-HUAWEI/Drivers/BSP/Components/lis2mdl\lis2mdl_reg.c ****   int32_t ret;
 4239              		.loc 1 1146 3 view .LVU1188
1147:D:/fchai/work/i-cube/I-CUBE-HUAWEI/Drivers/BSP/Components/lis2mdl\lis2mdl_reg.c **** 
1148:D:/fchai/work/i-cube/I-CUBE-HUAWEI/Drivers/BSP/Components/lis2mdl\lis2mdl_reg.c ****   ret = lis2mdl_read_reg(ctx, LIS2MDL_CFG_REG_C, (uint8_t*)&reg, 1);
 4240              		.loc 1 1148 3 view .LVU1189
1144:D:/fchai/work/i-cube/I-CUBE-HUAWEI/Drivers/BSP/Components/lis2mdl\lis2mdl_reg.c ****   lis2mdl_cfg_reg_c_t reg;
 4241              		.loc 1 1144 1 is_stmt 0 view .LVU1190
 4242 0000 70B5     		push	{r4, r5, r6, lr}
 4243              	.LCFI134:
 4244              		.cfi_def_cfa_offset 16
 4245              		.cfi_offset 4, -16
 4246              		.cfi_offset 5, -12
 4247              		.cfi_offset 6, -8
 4248              		.cfi_offset 14, -4
 4249 0002 82B0     		sub	sp, sp, #8
ARM GAS  T:\msys\tmp\cct7nJJy.s 			page 106


 4250              	.LCFI135:
 4251              		.cfi_def_cfa_offset 24
1144:D:/fchai/work/i-cube/I-CUBE-HUAWEI/Drivers/BSP/Components/lis2mdl\lis2mdl_reg.c ****   lis2mdl_cfg_reg_c_t reg;
 4252              		.loc 1 1144 1 view .LVU1191
 4253 0004 0446     		mov	r4, r0
 4254              	.LVL343:
 4255              	.LBB412:
 4256              	.LBI412:
  49:D:/fchai/work/i-cube/I-CUBE-HUAWEI/Drivers/BSP/Components/lis2mdl\lis2mdl_reg.c ****                          uint16_t len)
 4257              		.loc 1 49 9 is_stmt 1 view .LVU1192
 4258              	.LBB413:
  52:D:/fchai/work/i-cube/I-CUBE-HUAWEI/Drivers/BSP/Components/lis2mdl\lis2mdl_reg.c ****   ret = ctx->read_reg(ctx->handle, reg, data, len);
 4259              		.loc 1 52 3 view .LVU1193
  53:D:/fchai/work/i-cube/I-CUBE-HUAWEI/Drivers/BSP/Components/lis2mdl\lis2mdl_reg.c ****   return ret;
 4260              		.loc 1 53 3 view .LVU1194
 4261              	.LBE413:
 4262              	.LBE412:
1144:D:/fchai/work/i-cube/I-CUBE-HUAWEI/Drivers/BSP/Components/lis2mdl\lis2mdl_reg.c ****   lis2mdl_cfg_reg_c_t reg;
 4263              		.loc 1 1144 1 is_stmt 0 view .LVU1195
 4264 0006 0D46     		mov	r5, r1
 4265              	.LBB415:
 4266              	.LBB414:
  53:D:/fchai/work/i-cube/I-CUBE-HUAWEI/Drivers/BSP/Components/lis2mdl\lis2mdl_reg.c ****   return ret;
 4267              		.loc 1 53 9 view .LVU1196
 4268 0008 D0E90160 		ldrd	r6, r0, [r0, #4]
 4269              	.LVL344:
  53:D:/fchai/work/i-cube/I-CUBE-HUAWEI/Drivers/BSP/Components/lis2mdl\lis2mdl_reg.c ****   return ret;
 4270              		.loc 1 53 9 view .LVU1197
 4271 000c 01AA     		add	r2, sp, #4
 4272              	.LVL345:
  53:D:/fchai/work/i-cube/I-CUBE-HUAWEI/Drivers/BSP/Components/lis2mdl\lis2mdl_reg.c ****   return ret;
 4273              		.loc 1 53 9 view .LVU1198
 4274 000e 0123     		movs	r3, #1
 4275 0010 6221     		movs	r1, #98
 4276              	.LVL346:
  53:D:/fchai/work/i-cube/I-CUBE-HUAWEI/Drivers/BSP/Components/lis2mdl\lis2mdl_reg.c ****   return ret;
 4277              		.loc 1 53 9 view .LVU1199
 4278 0012 B047     		blx	r6
 4279              	.LVL347:
  54:D:/fchai/work/i-cube/I-CUBE-HUAWEI/Drivers/BSP/Components/lis2mdl\lis2mdl_reg.c **** }
 4280              		.loc 1 54 3 is_stmt 1 view .LVU1200
  54:D:/fchai/work/i-cube/I-CUBE-HUAWEI/Drivers/BSP/Components/lis2mdl\lis2mdl_reg.c **** }
 4281              		.loc 1 54 3 is_stmt 0 view .LVU1201
 4282              	.LBE414:
 4283              	.LBE415:
1149:D:/fchai/work/i-cube/I-CUBE-HUAWEI/Drivers/BSP/Components/lis2mdl\lis2mdl_reg.c **** 
1150:D:/fchai/work/i-cube/I-CUBE-HUAWEI/Drivers/BSP/Components/lis2mdl\lis2mdl_reg.c ****   if(ret == 0){
 4284              		.loc 1 1150 3 is_stmt 1 view .LVU1202
 4285              		.loc 1 1150 5 is_stmt 0 view .LVU1203
 4286 0014 58B9     		cbnz	r0, .L134
1151:D:/fchai/work/i-cube/I-CUBE-HUAWEI/Drivers/BSP/Components/lis2mdl\lis2mdl_reg.c ****     reg.i2c_dis = (uint8_t)val;
 4287              		.loc 1 1151 5 is_stmt 1 view .LVU1204
 4288              		.loc 1 1151 17 is_stmt 0 view .LVU1205
 4289 0016 9DF80430 		ldrb	r3, [sp, #4]	@ zero_extendqisi2
 4290              	.LBB416:
 4291              	.LBB417:
  71:D:/fchai/work/i-cube/I-CUBE-HUAWEI/Drivers/BSP/Components/lis2mdl\lis2mdl_reg.c ****   return ret;
ARM GAS  T:\msys\tmp\cct7nJJy.s 			page 107


 4292              		.loc 1 71 9 view .LVU1206
 4293 001a 2668     		ldr	r6, [r4]
 4294 001c A068     		ldr	r0, [r4, #8]
 4295              	.LVL348:
  71:D:/fchai/work/i-cube/I-CUBE-HUAWEI/Drivers/BSP/Components/lis2mdl\lis2mdl_reg.c ****   return ret;
 4296              		.loc 1 71 9 view .LVU1207
 4297              	.LBE417:
 4298              	.LBE416:
 4299              		.loc 1 1151 17 view .LVU1208
 4300 001e 65F34513 		bfi	r3, r5, #5, #1
 4301 0022 8DF80430 		strb	r3, [sp, #4]
1152:D:/fchai/work/i-cube/I-CUBE-HUAWEI/Drivers/BSP/Components/lis2mdl\lis2mdl_reg.c ****     ret = lis2mdl_write_reg(ctx, LIS2MDL_CFG_REG_C, (uint8_t*)&reg, 1);
 4302              		.loc 1 1152 5 is_stmt 1 view .LVU1209
 4303              	.LVL349:
 4304              	.LBB419:
 4305              	.LBI416:
  67:D:/fchai/work/i-cube/I-CUBE-HUAWEI/Drivers/BSP/Components/lis2mdl\lis2mdl_reg.c ****                           uint16_t len)
 4306              		.loc 1 67 9 view .LVU1210
 4307              	.LBB418:
  70:D:/fchai/work/i-cube/I-CUBE-HUAWEI/Drivers/BSP/Components/lis2mdl\lis2mdl_reg.c ****   ret = ctx->write_reg(ctx->handle, reg, data, len);
 4308              		.loc 1 70 3 view .LVU1211
  71:D:/fchai/work/i-cube/I-CUBE-HUAWEI/Drivers/BSP/Components/lis2mdl\lis2mdl_reg.c ****   return ret;
 4309              		.loc 1 71 3 view .LVU1212
  71:D:/fchai/work/i-cube/I-CUBE-HUAWEI/Drivers/BSP/Components/lis2mdl\lis2mdl_reg.c ****   return ret;
 4310              		.loc 1 71 9 is_stmt 0 view .LVU1213
 4311 0026 01AA     		add	r2, sp, #4
 4312              	.LVL350:
  71:D:/fchai/work/i-cube/I-CUBE-HUAWEI/Drivers/BSP/Components/lis2mdl\lis2mdl_reg.c ****   return ret;
 4313              		.loc 1 71 9 view .LVU1214
 4314 0028 0123     		movs	r3, #1
 4315 002a 6221     		movs	r1, #98
 4316 002c B047     		blx	r6
 4317              	.LVL351:
  72:D:/fchai/work/i-cube/I-CUBE-HUAWEI/Drivers/BSP/Components/lis2mdl\lis2mdl_reg.c **** }
 4318              		.loc 1 72 3 is_stmt 1 view .LVU1215
  72:D:/fchai/work/i-cube/I-CUBE-HUAWEI/Drivers/BSP/Components/lis2mdl\lis2mdl_reg.c **** }
 4319              		.loc 1 72 3 is_stmt 0 view .LVU1216
 4320              	.LBE418:
 4321              	.LBE419:
1153:D:/fchai/work/i-cube/I-CUBE-HUAWEI/Drivers/BSP/Components/lis2mdl\lis2mdl_reg.c ****   }
1154:D:/fchai/work/i-cube/I-CUBE-HUAWEI/Drivers/BSP/Components/lis2mdl\lis2mdl_reg.c **** 
1155:D:/fchai/work/i-cube/I-CUBE-HUAWEI/Drivers/BSP/Components/lis2mdl\lis2mdl_reg.c ****   return ret;
 4322              		.loc 1 1155 3 is_stmt 1 view .LVU1217
 4323              	.L134:
1156:D:/fchai/work/i-cube/I-CUBE-HUAWEI/Drivers/BSP/Components/lis2mdl\lis2mdl_reg.c **** }
 4324              		.loc 1 1156 1 is_stmt 0 view .LVU1218
 4325 002e 02B0     		add	sp, sp, #8
 4326              	.LCFI136:
 4327              		.cfi_def_cfa_offset 16
 4328              		@ sp needed
 4329 0030 70BD     		pop	{r4, r5, r6, pc}
 4330              		.loc 1 1156 1 view .LVU1219
 4331              		.cfi_endproc
 4332              	.LFE49:
 4334 0032 00BF     		.section	.text.lis2mdl_i2c_interface_get,"ax",%progbits
 4335              		.align	1
 4336              		.p2align 2,,3
ARM GAS  T:\msys\tmp\cct7nJJy.s 			page 108


 4337              		.global	lis2mdl_i2c_interface_get
 4338              		.syntax unified
 4339              		.thumb
 4340              		.thumb_func
 4341              		.fpu fpv4-sp-d16
 4343              	lis2mdl_i2c_interface_get:
 4344              	.LVL352:
 4345              	.LFB50:
1157:D:/fchai/work/i-cube/I-CUBE-HUAWEI/Drivers/BSP/Components/lis2mdl\lis2mdl_reg.c **** 
1158:D:/fchai/work/i-cube/I-CUBE-HUAWEI/Drivers/BSP/Components/lis2mdl\lis2mdl_reg.c **** /**
1159:D:/fchai/work/i-cube/I-CUBE-HUAWEI/Drivers/BSP/Components/lis2mdl\lis2mdl_reg.c ****   * @brief  Enable/Disable I2C interface.[get]
1160:D:/fchai/work/i-cube/I-CUBE-HUAWEI/Drivers/BSP/Components/lis2mdl\lis2mdl_reg.c ****   *
1161:D:/fchai/work/i-cube/I-CUBE-HUAWEI/Drivers/BSP/Components/lis2mdl\lis2mdl_reg.c ****   * @param  ctx   read / write interface definitions.(ptr)
1162:D:/fchai/work/i-cube/I-CUBE-HUAWEI/Drivers/BSP/Components/lis2mdl\lis2mdl_reg.c ****   * @param  val   Get the values of i2c_dis in reg CFG_REG_C.(ptr)
1163:D:/fchai/work/i-cube/I-CUBE-HUAWEI/Drivers/BSP/Components/lis2mdl\lis2mdl_reg.c ****   * @retval       interface status.(MANDATORY: return 0 -> no Error)
1164:D:/fchai/work/i-cube/I-CUBE-HUAWEI/Drivers/BSP/Components/lis2mdl\lis2mdl_reg.c ****   *
1165:D:/fchai/work/i-cube/I-CUBE-HUAWEI/Drivers/BSP/Components/lis2mdl\lis2mdl_reg.c ****   */
1166:D:/fchai/work/i-cube/I-CUBE-HUAWEI/Drivers/BSP/Components/lis2mdl\lis2mdl_reg.c **** int32_t lis2mdl_i2c_interface_get(stmdev_ctx_t *ctx, lis2mdl_i2c_dis_t *val)
1167:D:/fchai/work/i-cube/I-CUBE-HUAWEI/Drivers/BSP/Components/lis2mdl\lis2mdl_reg.c **** {
 4346              		.loc 1 1167 1 is_stmt 1 view -0
 4347              		.cfi_startproc
 4348              		@ args = 0, pretend = 0, frame = 8
 4349              		@ frame_needed = 0, uses_anonymous_args = 0
1168:D:/fchai/work/i-cube/I-CUBE-HUAWEI/Drivers/BSP/Components/lis2mdl\lis2mdl_reg.c ****   lis2mdl_cfg_reg_c_t reg;
 4350              		.loc 1 1168 3 view .LVU1221
1169:D:/fchai/work/i-cube/I-CUBE-HUAWEI/Drivers/BSP/Components/lis2mdl\lis2mdl_reg.c ****   int32_t ret;
 4351              		.loc 1 1169 3 view .LVU1222
1170:D:/fchai/work/i-cube/I-CUBE-HUAWEI/Drivers/BSP/Components/lis2mdl\lis2mdl_reg.c **** 
1171:D:/fchai/work/i-cube/I-CUBE-HUAWEI/Drivers/BSP/Components/lis2mdl\lis2mdl_reg.c ****   ret = lis2mdl_read_reg(ctx, LIS2MDL_CFG_REG_C, (uint8_t*)&reg, 1);
 4352              		.loc 1 1171 3 view .LVU1223
1167:D:/fchai/work/i-cube/I-CUBE-HUAWEI/Drivers/BSP/Components/lis2mdl\lis2mdl_reg.c ****   lis2mdl_cfg_reg_c_t reg;
 4353              		.loc 1 1167 1 is_stmt 0 view .LVU1224
 4354 0000 30B5     		push	{r4, r5, lr}
 4355              	.LCFI137:
 4356              		.cfi_def_cfa_offset 12
 4357              		.cfi_offset 4, -12
 4358              		.cfi_offset 5, -8
 4359              		.cfi_offset 14, -4
 4360 0002 83B0     		sub	sp, sp, #12
 4361              	.LCFI138:
 4362              		.cfi_def_cfa_offset 24
 4363              	.LVL353:
 4364              	.LBB420:
 4365              	.LBI420:
  49:D:/fchai/work/i-cube/I-CUBE-HUAWEI/Drivers/BSP/Components/lis2mdl\lis2mdl_reg.c ****                          uint16_t len)
 4366              		.loc 1 49 9 is_stmt 1 view .LVU1225
 4367              	.LBB421:
  52:D:/fchai/work/i-cube/I-CUBE-HUAWEI/Drivers/BSP/Components/lis2mdl\lis2mdl_reg.c ****   ret = ctx->read_reg(ctx->handle, reg, data, len);
 4368              		.loc 1 52 3 view .LVU1226
  53:D:/fchai/work/i-cube/I-CUBE-HUAWEI/Drivers/BSP/Components/lis2mdl\lis2mdl_reg.c ****   return ret;
 4369              		.loc 1 53 3 view .LVU1227
 4370              	.LBE421:
 4371              	.LBE420:
1167:D:/fchai/work/i-cube/I-CUBE-HUAWEI/Drivers/BSP/Components/lis2mdl\lis2mdl_reg.c ****   lis2mdl_cfg_reg_c_t reg;
 4372              		.loc 1 1167 1 is_stmt 0 view .LVU1228
 4373 0004 0C46     		mov	r4, r1
 4374              	.LBB424:
ARM GAS  T:\msys\tmp\cct7nJJy.s 			page 109


 4375              	.LBB422:
  53:D:/fchai/work/i-cube/I-CUBE-HUAWEI/Drivers/BSP/Components/lis2mdl\lis2mdl_reg.c ****   return ret;
 4376              		.loc 1 53 9 view .LVU1229
 4377 0006 01AA     		add	r2, sp, #4
 4378              	.LVL354:
  53:D:/fchai/work/i-cube/I-CUBE-HUAWEI/Drivers/BSP/Components/lis2mdl\lis2mdl_reg.c ****   return ret;
 4379              		.loc 1 53 9 view .LVU1230
 4380 0008 D0E90150 		ldrd	r5, r0, [r0, #4]
 4381              	.LVL355:
  53:D:/fchai/work/i-cube/I-CUBE-HUAWEI/Drivers/BSP/Components/lis2mdl\lis2mdl_reg.c ****   return ret;
 4382              		.loc 1 53 9 view .LVU1231
 4383 000c 0123     		movs	r3, #1
 4384 000e 6221     		movs	r1, #98
 4385              	.LVL356:
  53:D:/fchai/work/i-cube/I-CUBE-HUAWEI/Drivers/BSP/Components/lis2mdl\lis2mdl_reg.c ****   return ret;
 4386              		.loc 1 53 9 view .LVU1232
 4387 0010 A847     		blx	r5
 4388              	.LVL357:
  53:D:/fchai/work/i-cube/I-CUBE-HUAWEI/Drivers/BSP/Components/lis2mdl\lis2mdl_reg.c ****   return ret;
 4389              		.loc 1 53 9 view .LVU1233
 4390              	.LBE422:
 4391              	.LBE424:
1172:D:/fchai/work/i-cube/I-CUBE-HUAWEI/Drivers/BSP/Components/lis2mdl\lis2mdl_reg.c ****   switch (reg.i2c_dis){
 4392              		.loc 1 1172 14 view .LVU1234
 4393 0012 9DF80430 		ldrb	r3, [sp, #4]	@ zero_extendqisi2
 4394              	.LVL358:
 4395              	.LBB425:
 4396              	.LBB423:
  54:D:/fchai/work/i-cube/I-CUBE-HUAWEI/Drivers/BSP/Components/lis2mdl\lis2mdl_reg.c **** }
 4397              		.loc 1 54 3 is_stmt 1 view .LVU1235
  54:D:/fchai/work/i-cube/I-CUBE-HUAWEI/Drivers/BSP/Components/lis2mdl\lis2mdl_reg.c **** }
 4398              		.loc 1 54 3 is_stmt 0 view .LVU1236
 4399              	.LBE423:
 4400              	.LBE425:
 4401              		.loc 1 1172 3 is_stmt 1 view .LVU1237
 4402              		.loc 1 1172 14 is_stmt 0 view .LVU1238
 4403 0016 C3F34012 		ubfx	r2, r3, #5, #1
 4404              		.loc 1 1172 3 view .LVU1239
 4405 001a 9B06     		lsls	r3, r3, #26
1173:D:/fchai/work/i-cube/I-CUBE-HUAWEI/Drivers/BSP/Components/lis2mdl\lis2mdl_reg.c ****     case LIS2MDL_I2C_ENABLE:
1174:D:/fchai/work/i-cube/I-CUBE-HUAWEI/Drivers/BSP/Components/lis2mdl\lis2mdl_reg.c ****       *val = LIS2MDL_I2C_ENABLE;
 4406              		.loc 1 1174 7 is_stmt 1 view .LVU1240
 4407              		.loc 1 1174 12 is_stmt 0 view .LVU1241
 4408 001c 5ABF     		itte	pl
 4409 001e 0023     		movpl	r3, #0
 4410 0020 2370     		strbpl	r3, [r4]
1175:D:/fchai/work/i-cube/I-CUBE-HUAWEI/Drivers/BSP/Components/lis2mdl\lis2mdl_reg.c ****       break;
 4411              		.loc 1 1175 7 is_stmt 1 view .LVU1242
1176:D:/fchai/work/i-cube/I-CUBE-HUAWEI/Drivers/BSP/Components/lis2mdl\lis2mdl_reg.c ****     case LIS2MDL_I2C_DISABLE:
1177:D:/fchai/work/i-cube/I-CUBE-HUAWEI/Drivers/BSP/Components/lis2mdl\lis2mdl_reg.c ****       *val = LIS2MDL_I2C_DISABLE;
 4412              		.loc 1 1177 7 view .LVU1243
 4413              		.loc 1 1177 12 is_stmt 0 view .LVU1244
 4414 0022 2270     		strbmi	r2, [r4]
1178:D:/fchai/work/i-cube/I-CUBE-HUAWEI/Drivers/BSP/Components/lis2mdl\lis2mdl_reg.c ****       break;
 4415              		.loc 1 1178 7 is_stmt 1 view .LVU1245
1179:D:/fchai/work/i-cube/I-CUBE-HUAWEI/Drivers/BSP/Components/lis2mdl\lis2mdl_reg.c ****     default:
1180:D:/fchai/work/i-cube/I-CUBE-HUAWEI/Drivers/BSP/Components/lis2mdl\lis2mdl_reg.c ****       *val = LIS2MDL_I2C_ENABLE;
ARM GAS  T:\msys\tmp\cct7nJJy.s 			page 110


1181:D:/fchai/work/i-cube/I-CUBE-HUAWEI/Drivers/BSP/Components/lis2mdl\lis2mdl_reg.c ****       break;
1182:D:/fchai/work/i-cube/I-CUBE-HUAWEI/Drivers/BSP/Components/lis2mdl\lis2mdl_reg.c ****   }
1183:D:/fchai/work/i-cube/I-CUBE-HUAWEI/Drivers/BSP/Components/lis2mdl\lis2mdl_reg.c ****   return ret;
 4416              		.loc 1 1183 3 view .LVU1246
1184:D:/fchai/work/i-cube/I-CUBE-HUAWEI/Drivers/BSP/Components/lis2mdl\lis2mdl_reg.c **** }
 4417              		.loc 1 1184 1 is_stmt 0 view .LVU1247
 4418 0024 03B0     		add	sp, sp, #12
 4419              	.LCFI139:
 4420              		.cfi_def_cfa_offset 12
 4421              		@ sp needed
 4422 0026 30BD     		pop	{r4, r5, pc}
 4423              		.loc 1 1184 1 view .LVU1248
 4424              		.cfi_endproc
 4425              	.LFE50:
 4427              		.text
 4428              	.Letext0:
 4429              		.file 2 "t:\\msys\\3rd\\gcc-arm-none-eabi-9-2020-q2-update-win32\\arm-none-eabi\\include\\machine\
 4430              		.file 3 "t:\\msys\\3rd\\gcc-arm-none-eabi-9-2020-q2-update-win32\\arm-none-eabi\\include\\sys\\_st
 4431              		.file 4 "t:\\msys\\3rd\\gcc-arm-none-eabi-9-2020-q2-update-win32\\lib\\gcc\\arm-none-eabi\\9.3.1\\
 4432              		.file 5 "t:\\msys\\3rd\\gcc-arm-none-eabi-9-2020-q2-update-win32\\arm-none-eabi\\include\\sys\\_ty
 4433              		.file 6 "t:\\msys\\3rd\\gcc-arm-none-eabi-9-2020-q2-update-win32\\arm-none-eabi\\include\\sys\\ree
 4434              		.file 7 "t:\\msys\\3rd\\gcc-arm-none-eabi-9-2020-q2-update-win32\\arm-none-eabi\\include\\sys\\loc
 4435              		.file 8 "t:\\msys\\3rd\\gcc-arm-none-eabi-9-2020-q2-update-win32\\arm-none-eabi\\include\\math.h"
 4436              		.file 9 "D:/fchai/work/i-cube/I-CUBE-HUAWEI/Drivers/BSP/Components/lis2mdl/lis2mdl_reg.h"
ARM GAS  T:\msys\tmp\cct7nJJy.s 			page 111


DEFINED SYMBOLS
                            *ABS*:00000000 lis2mdl_reg.c
T:\msys\tmp\cct7nJJy.s:18     .text.lis2mdl_read_reg:00000000 $t
T:\msys\tmp\cct7nJJy.s:27     .text.lis2mdl_read_reg:00000000 lis2mdl_read_reg
T:\msys\tmp\cct7nJJy.s:61     .text.lis2mdl_write_reg:00000000 $t
T:\msys\tmp\cct7nJJy.s:69     .text.lis2mdl_write_reg:00000000 lis2mdl_write_reg
T:\msys\tmp\cct7nJJy.s:103    .text.lis2mdl_from_lsb_to_mgauss:00000000 $t
T:\msys\tmp\cct7nJJy.s:111    .text.lis2mdl_from_lsb_to_mgauss:00000000 lis2mdl_from_lsb_to_mgauss
T:\msys\tmp\cct7nJJy.s:132    .text.lis2mdl_from_lsb_to_celsius:00000000 $t
T:\msys\tmp\cct7nJJy.s:140    .text.lis2mdl_from_lsb_to_celsius:00000000 lis2mdl_from_lsb_to_celsius
T:\msys\tmp\cct7nJJy.s:162    .text.lis2mdl_mag_user_offset_set:00000000 $t
T:\msys\tmp\cct7nJJy.s:170    .text.lis2mdl_mag_user_offset_set:00000000 lis2mdl_mag_user_offset_set
T:\msys\tmp\cct7nJJy.s:228    .text.lis2mdl_mag_user_offset_get:00000000 $t
T:\msys\tmp\cct7nJJy.s:236    .text.lis2mdl_mag_user_offset_get:00000000 lis2mdl_mag_user_offset_get
T:\msys\tmp\cct7nJJy.s:293    .text.lis2mdl_operating_mode_set:00000000 $t
T:\msys\tmp\cct7nJJy.s:301    .text.lis2mdl_operating_mode_set:00000000 lis2mdl_operating_mode_set
T:\msys\tmp\cct7nJJy.s:405    .text.lis2mdl_operating_mode_get:00000000 $t
T:\msys\tmp\cct7nJJy.s:413    .text.lis2mdl_operating_mode_get:00000000 lis2mdl_operating_mode_get
T:\msys\tmp\cct7nJJy.s:512    .text.lis2mdl_data_rate_set:00000000 $t
T:\msys\tmp\cct7nJJy.s:520    .text.lis2mdl_data_rate_set:00000000 lis2mdl_data_rate_set
T:\msys\tmp\cct7nJJy.s:624    .text.lis2mdl_data_rate_get:00000000 $t
T:\msys\tmp\cct7nJJy.s:632    .text.lis2mdl_data_rate_get:00000000 lis2mdl_data_rate_get
T:\msys\tmp\cct7nJJy.s:734    .text.lis2mdl_power_mode_set:00000000 $t
T:\msys\tmp\cct7nJJy.s:742    .text.lis2mdl_power_mode_set:00000000 lis2mdl_power_mode_set
T:\msys\tmp\cct7nJJy.s:846    .text.lis2mdl_power_mode_get:00000000 $t
T:\msys\tmp\cct7nJJy.s:854    .text.lis2mdl_power_mode_get:00000000 lis2mdl_power_mode_get
T:\msys\tmp\cct7nJJy.s:939    .text.lis2mdl_offset_temp_comp_set:00000000 $t
T:\msys\tmp\cct7nJJy.s:947    .text.lis2mdl_offset_temp_comp_set:00000000 lis2mdl_offset_temp_comp_set
T:\msys\tmp\cct7nJJy.s:1051   .text.lis2mdl_offset_temp_comp_get:00000000 $t
T:\msys\tmp\cct7nJJy.s:1059   .text.lis2mdl_offset_temp_comp_get:00000000 lis2mdl_offset_temp_comp_get
T:\msys\tmp\cct7nJJy.s:1127   .text.lis2mdl_low_pass_bandwidth_set:00000000 $t
T:\msys\tmp\cct7nJJy.s:1135   .text.lis2mdl_low_pass_bandwidth_set:00000000 lis2mdl_low_pass_bandwidth_set
T:\msys\tmp\cct7nJJy.s:1239   .text.lis2mdl_low_pass_bandwidth_get:00000000 $t
T:\msys\tmp\cct7nJJy.s:1247   .text.lis2mdl_low_pass_bandwidth_get:00000000 lis2mdl_low_pass_bandwidth_get
T:\msys\tmp\cct7nJJy.s:1332   .text.lis2mdl_set_rst_mode_set:00000000 $t
T:\msys\tmp\cct7nJJy.s:1340   .text.lis2mdl_set_rst_mode_set:00000000 lis2mdl_set_rst_mode_set
T:\msys\tmp\cct7nJJy.s:1444   .text.lis2mdl_set_rst_mode_get:00000000 $t
T:\msys\tmp\cct7nJJy.s:1452   .text.lis2mdl_set_rst_mode_get:00000000 lis2mdl_set_rst_mode_get
T:\msys\tmp\cct7nJJy.s:1552   .text.lis2mdl_set_rst_sensor_single_set:00000000 $t
T:\msys\tmp\cct7nJJy.s:1560   .text.lis2mdl_set_rst_sensor_single_set:00000000 lis2mdl_set_rst_sensor_single_set
T:\msys\tmp\cct7nJJy.s:1664   .text.lis2mdl_set_rst_sensor_single_get:00000000 $t
T:\msys\tmp\cct7nJJy.s:1672   .text.lis2mdl_set_rst_sensor_single_get:00000000 lis2mdl_set_rst_sensor_single_get
T:\msys\tmp\cct7nJJy.s:1740   .text.lis2mdl_block_data_update_set:00000000 $t
T:\msys\tmp\cct7nJJy.s:1748   .text.lis2mdl_block_data_update_set:00000000 lis2mdl_block_data_update_set
T:\msys\tmp\cct7nJJy.s:1852   .text.lis2mdl_block_data_update_get:00000000 $t
T:\msys\tmp\cct7nJJy.s:1860   .text.lis2mdl_block_data_update_get:00000000 lis2mdl_block_data_update_get
T:\msys\tmp\cct7nJJy.s:1928   .text.lis2mdl_mag_data_ready_get:00000000 $t
T:\msys\tmp\cct7nJJy.s:1936   .text.lis2mdl_mag_data_ready_get:00000000 lis2mdl_mag_data_ready_get
T:\msys\tmp\cct7nJJy.s:2004   .text.lis2mdl_mag_data_ovr_get:00000000 $t
T:\msys\tmp\cct7nJJy.s:2012   .text.lis2mdl_mag_data_ovr_get:00000000 lis2mdl_mag_data_ovr_get
T:\msys\tmp\cct7nJJy.s:2080   .text.lis2mdl_magnetic_raw_get:00000000 $t
T:\msys\tmp\cct7nJJy.s:2088   .text.lis2mdl_magnetic_raw_get:00000000 lis2mdl_magnetic_raw_get
T:\msys\tmp\cct7nJJy.s:2145   .text.lis2mdl_temperature_raw_get:00000000 $t
T:\msys\tmp\cct7nJJy.s:2153   .text.lis2mdl_temperature_raw_get:00000000 lis2mdl_temperature_raw_get
T:\msys\tmp\cct7nJJy.s:2210   .text.lis2mdl_device_id_get:00000000 $t
T:\msys\tmp\cct7nJJy.s:2218   .text.lis2mdl_device_id_get:00000000 lis2mdl_device_id_get
T:\msys\tmp\cct7nJJy.s:2275   .text.lis2mdl_reset_set:00000000 $t
ARM GAS  T:\msys\tmp\cct7nJJy.s 			page 112


T:\msys\tmp\cct7nJJy.s:2283   .text.lis2mdl_reset_set:00000000 lis2mdl_reset_set
T:\msys\tmp\cct7nJJy.s:2387   .text.lis2mdl_reset_get:00000000 $t
T:\msys\tmp\cct7nJJy.s:2395   .text.lis2mdl_reset_get:00000000 lis2mdl_reset_get
T:\msys\tmp\cct7nJJy.s:2463   .text.lis2mdl_boot_set:00000000 $t
T:\msys\tmp\cct7nJJy.s:2471   .text.lis2mdl_boot_set:00000000 lis2mdl_boot_set
T:\msys\tmp\cct7nJJy.s:2575   .text.lis2mdl_boot_get:00000000 $t
T:\msys\tmp\cct7nJJy.s:2583   .text.lis2mdl_boot_get:00000000 lis2mdl_boot_get
T:\msys\tmp\cct7nJJy.s:2651   .text.lis2mdl_self_test_set:00000000 $t
T:\msys\tmp\cct7nJJy.s:2659   .text.lis2mdl_self_test_set:00000000 lis2mdl_self_test_set
T:\msys\tmp\cct7nJJy.s:2763   .text.lis2mdl_self_test_get:00000000 $t
T:\msys\tmp\cct7nJJy.s:2771   .text.lis2mdl_self_test_get:00000000 lis2mdl_self_test_get
T:\msys\tmp\cct7nJJy.s:2839   .text.lis2mdl_data_format_set:00000000 $t
T:\msys\tmp\cct7nJJy.s:2847   .text.lis2mdl_data_format_set:00000000 lis2mdl_data_format_set
T:\msys\tmp\cct7nJJy.s:2951   .text.lis2mdl_data_format_get:00000000 $t
T:\msys\tmp\cct7nJJy.s:2959   .text.lis2mdl_data_format_get:00000000 lis2mdl_data_format_get
T:\msys\tmp\cct7nJJy.s:3044   .text.lis2mdl_status_get:00000000 $t
T:\msys\tmp\cct7nJJy.s:3052   .text.lis2mdl_status_get:00000000 lis2mdl_status_get
T:\msys\tmp\cct7nJJy.s:3109   .text.lis2mdl_offset_int_conf_set:00000000 $t
T:\msys\tmp\cct7nJJy.s:3117   .text.lis2mdl_offset_int_conf_set:00000000 lis2mdl_offset_int_conf_set
T:\msys\tmp\cct7nJJy.s:3221   .text.lis2mdl_offset_int_conf_get:00000000 $t
T:\msys\tmp\cct7nJJy.s:3229   .text.lis2mdl_offset_int_conf_get:00000000 lis2mdl_offset_int_conf_get
T:\msys\tmp\cct7nJJy.s:3314   .text.lis2mdl_drdy_on_pin_set:00000000 $t
T:\msys\tmp\cct7nJJy.s:3322   .text.lis2mdl_drdy_on_pin_set:00000000 lis2mdl_drdy_on_pin_set
T:\msys\tmp\cct7nJJy.s:3426   .text.lis2mdl_drdy_on_pin_get:00000000 $t
T:\msys\tmp\cct7nJJy.s:3434   .text.lis2mdl_drdy_on_pin_get:00000000 lis2mdl_drdy_on_pin_get
T:\msys\tmp\cct7nJJy.s:3502   .text.lis2mdl_int_on_pin_set:00000000 $t
T:\msys\tmp\cct7nJJy.s:3510   .text.lis2mdl_int_on_pin_set:00000000 lis2mdl_int_on_pin_set
T:\msys\tmp\cct7nJJy.s:3614   .text.lis2mdl_int_on_pin_get:00000000 $t
T:\msys\tmp\cct7nJJy.s:3622   .text.lis2mdl_int_on_pin_get:00000000 lis2mdl_int_on_pin_get
T:\msys\tmp\cct7nJJy.s:3690   .text.lis2mdl_int_gen_conf_set:00000000 $t
T:\msys\tmp\cct7nJJy.s:3698   .text.lis2mdl_int_gen_conf_set:00000000 lis2mdl_int_gen_conf_set
T:\msys\tmp\cct7nJJy.s:3756   .text.lis2mdl_int_gen_conf_get:00000000 $t
T:\msys\tmp\cct7nJJy.s:3764   .text.lis2mdl_int_gen_conf_get:00000000 lis2mdl_int_gen_conf_get
T:\msys\tmp\cct7nJJy.s:3821   .text.lis2mdl_int_gen_source_get:00000000 $t
T:\msys\tmp\cct7nJJy.s:3829   .text.lis2mdl_int_gen_source_get:00000000 lis2mdl_int_gen_source_get
T:\msys\tmp\cct7nJJy.s:3886   .text.lis2mdl_int_gen_treshold_set:00000000 $t
T:\msys\tmp\cct7nJJy.s:3894   .text.lis2mdl_int_gen_treshold_set:00000000 lis2mdl_int_gen_treshold_set
T:\msys\tmp\cct7nJJy.s:3952   .text.lis2mdl_int_gen_treshold_get:00000000 $t
T:\msys\tmp\cct7nJJy.s:3960   .text.lis2mdl_int_gen_treshold_get:00000000 lis2mdl_int_gen_treshold_get
T:\msys\tmp\cct7nJJy.s:4017   .text.lis2mdl_spi_mode_set:00000000 $t
T:\msys\tmp\cct7nJJy.s:4025   .text.lis2mdl_spi_mode_set:00000000 lis2mdl_spi_mode_set
T:\msys\tmp\cct7nJJy.s:4129   .text.lis2mdl_spi_mode_get:00000000 $t
T:\msys\tmp\cct7nJJy.s:4137   .text.lis2mdl_spi_mode_get:00000000 lis2mdl_spi_mode_get
T:\msys\tmp\cct7nJJy.s:4223   .text.lis2mdl_i2c_interface_set:00000000 $t
T:\msys\tmp\cct7nJJy.s:4231   .text.lis2mdl_i2c_interface_set:00000000 lis2mdl_i2c_interface_set
T:\msys\tmp\cct7nJJy.s:4335   .text.lis2mdl_i2c_interface_get:00000000 $t
T:\msys\tmp\cct7nJJy.s:4343   .text.lis2mdl_i2c_interface_get:00000000 lis2mdl_i2c_interface_get

NO UNDEFINED SYMBOLS
