ARM GAS  T:\msys\tmp\ccdfMMY7.s 			page 1


   1              		.cpu cortex-m4
   2              		.eabi_attribute 27, 1
   3              		.eabi_attribute 28, 1
   4              		.eabi_attribute 20, 1
   5              		.eabi_attribute 21, 1
   6              		.eabi_attribute 23, 3
   7              		.eabi_attribute 24, 1
   8              		.eabi_attribute 25, 1
   9              		.eabi_attribute 26, 1
  10              		.eabi_attribute 30, 2
  11              		.eabi_attribute 34, 1
  12              		.eabi_attribute 18, 4
  13              		.file	"lps22hh_reg.c"
  14              		.text
  15              	.Ltext0:
  16              		.cfi_sections	.debug_frame
  17              		.section	.text.lps22hh_read_reg,"ax",%progbits
  18              		.align	1
  19              		.p2align 2,,3
  20              		.global	lps22hh_read_reg
  21              		.arch armv7e-m
  22              		.syntax unified
  23              		.thumb
  24              		.thumb_func
  25              		.fpu fpv4-sp-d16
  27              	lps22hh_read_reg:
  28              	.LVL0:
  29              	.LFB0:
  30              		.file 1 "D:/fchai/work/i-cube/I-CUBE-HUAWEI/Drivers/BSP/Components/lps22hh/lps22hh_reg.c"
   1:D:/fchai/work/i-cube/I-CUBE-HUAWEI/Drivers/BSP/Components/lps22hh\lps22hh_reg.c **** /*
   2:D:/fchai/work/i-cube/I-CUBE-HUAWEI/Drivers/BSP/Components/lps22hh\lps22hh_reg.c ****  ******************************************************************************
   3:D:/fchai/work/i-cube/I-CUBE-HUAWEI/Drivers/BSP/Components/lps22hh\lps22hh_reg.c ****  * @file    lps22hh_reg.c
   4:D:/fchai/work/i-cube/I-CUBE-HUAWEI/Drivers/BSP/Components/lps22hh\lps22hh_reg.c ****  * @author  Sensors Software Solution Team
   5:D:/fchai/work/i-cube/I-CUBE-HUAWEI/Drivers/BSP/Components/lps22hh\lps22hh_reg.c ****  * @brief   LPS22HH driver file
   6:D:/fchai/work/i-cube/I-CUBE-HUAWEI/Drivers/BSP/Components/lps22hh\lps22hh_reg.c ****  ******************************************************************************
   7:D:/fchai/work/i-cube/I-CUBE-HUAWEI/Drivers/BSP/Components/lps22hh\lps22hh_reg.c ****  * @attention
   8:D:/fchai/work/i-cube/I-CUBE-HUAWEI/Drivers/BSP/Components/lps22hh\lps22hh_reg.c ****  *
   9:D:/fchai/work/i-cube/I-CUBE-HUAWEI/Drivers/BSP/Components/lps22hh\lps22hh_reg.c ****  * <h2><center>&copy; Copyright (c) 2019 STMicroelectronics.
  10:D:/fchai/work/i-cube/I-CUBE-HUAWEI/Drivers/BSP/Components/lps22hh\lps22hh_reg.c ****  * All rights reserved.</center></h2>
  11:D:/fchai/work/i-cube/I-CUBE-HUAWEI/Drivers/BSP/Components/lps22hh\lps22hh_reg.c ****  *
  12:D:/fchai/work/i-cube/I-CUBE-HUAWEI/Drivers/BSP/Components/lps22hh\lps22hh_reg.c ****  * This software component is licensed by ST under BSD 3-Clause license,
  13:D:/fchai/work/i-cube/I-CUBE-HUAWEI/Drivers/BSP/Components/lps22hh\lps22hh_reg.c ****  * the "License"; You may not use this file except in compliance with the
  14:D:/fchai/work/i-cube/I-CUBE-HUAWEI/Drivers/BSP/Components/lps22hh\lps22hh_reg.c ****  * License. You may obtain a copy of the License at:
  15:D:/fchai/work/i-cube/I-CUBE-HUAWEI/Drivers/BSP/Components/lps22hh\lps22hh_reg.c ****  *                        opensource.org/licenses/BSD-3-Clause
  16:D:/fchai/work/i-cube/I-CUBE-HUAWEI/Drivers/BSP/Components/lps22hh\lps22hh_reg.c ****  *
  17:D:/fchai/work/i-cube/I-CUBE-HUAWEI/Drivers/BSP/Components/lps22hh\lps22hh_reg.c ****  ******************************************************************************
  18:D:/fchai/work/i-cube/I-CUBE-HUAWEI/Drivers/BSP/Components/lps22hh\lps22hh_reg.c ****  */
  19:D:/fchai/work/i-cube/I-CUBE-HUAWEI/Drivers/BSP/Components/lps22hh\lps22hh_reg.c **** 
  20:D:/fchai/work/i-cube/I-CUBE-HUAWEI/Drivers/BSP/Components/lps22hh\lps22hh_reg.c **** #include "lps22hh_reg.h"
  21:D:/fchai/work/i-cube/I-CUBE-HUAWEI/Drivers/BSP/Components/lps22hh\lps22hh_reg.c **** 
  22:D:/fchai/work/i-cube/I-CUBE-HUAWEI/Drivers/BSP/Components/lps22hh\lps22hh_reg.c **** /**
  23:D:/fchai/work/i-cube/I-CUBE-HUAWEI/Drivers/BSP/Components/lps22hh\lps22hh_reg.c ****   * @defgroup  LPS22HH
  24:D:/fchai/work/i-cube/I-CUBE-HUAWEI/Drivers/BSP/Components/lps22hh\lps22hh_reg.c ****   * @brief     This file provides a set of functions needed to drive the
  25:D:/fchai/work/i-cube/I-CUBE-HUAWEI/Drivers/BSP/Components/lps22hh\lps22hh_reg.c ****   *            lps22hh enhanced inertial module.
  26:D:/fchai/work/i-cube/I-CUBE-HUAWEI/Drivers/BSP/Components/lps22hh\lps22hh_reg.c ****   * @{
  27:D:/fchai/work/i-cube/I-CUBE-HUAWEI/Drivers/BSP/Components/lps22hh\lps22hh_reg.c ****   *
  28:D:/fchai/work/i-cube/I-CUBE-HUAWEI/Drivers/BSP/Components/lps22hh\lps22hh_reg.c ****   */
ARM GAS  T:\msys\tmp\ccdfMMY7.s 			page 2


  29:D:/fchai/work/i-cube/I-CUBE-HUAWEI/Drivers/BSP/Components/lps22hh\lps22hh_reg.c **** 
  30:D:/fchai/work/i-cube/I-CUBE-HUAWEI/Drivers/BSP/Components/lps22hh\lps22hh_reg.c **** /**
  31:D:/fchai/work/i-cube/I-CUBE-HUAWEI/Drivers/BSP/Components/lps22hh\lps22hh_reg.c ****   * @defgroup  LPS22HH_Interfaces_Functions
  32:D:/fchai/work/i-cube/I-CUBE-HUAWEI/Drivers/BSP/Components/lps22hh\lps22hh_reg.c ****   * @brief     This section provide a set of functions used to read and
  33:D:/fchai/work/i-cube/I-CUBE-HUAWEI/Drivers/BSP/Components/lps22hh\lps22hh_reg.c ****   *            write a generic register of the device.
  34:D:/fchai/work/i-cube/I-CUBE-HUAWEI/Drivers/BSP/Components/lps22hh\lps22hh_reg.c ****   *            MANDATORY: return 0 -> no Error.
  35:D:/fchai/work/i-cube/I-CUBE-HUAWEI/Drivers/BSP/Components/lps22hh\lps22hh_reg.c ****   * @{
  36:D:/fchai/work/i-cube/I-CUBE-HUAWEI/Drivers/BSP/Components/lps22hh\lps22hh_reg.c ****   *
  37:D:/fchai/work/i-cube/I-CUBE-HUAWEI/Drivers/BSP/Components/lps22hh\lps22hh_reg.c ****   */
  38:D:/fchai/work/i-cube/I-CUBE-HUAWEI/Drivers/BSP/Components/lps22hh\lps22hh_reg.c **** 
  39:D:/fchai/work/i-cube/I-CUBE-HUAWEI/Drivers/BSP/Components/lps22hh\lps22hh_reg.c **** /**
  40:D:/fchai/work/i-cube/I-CUBE-HUAWEI/Drivers/BSP/Components/lps22hh\lps22hh_reg.c ****   * @brief  Read generic device register
  41:D:/fchai/work/i-cube/I-CUBE-HUAWEI/Drivers/BSP/Components/lps22hh\lps22hh_reg.c ****   *
  42:D:/fchai/work/i-cube/I-CUBE-HUAWEI/Drivers/BSP/Components/lps22hh\lps22hh_reg.c ****   * @param  ctx   read / write interface definitions(ptr)
  43:D:/fchai/work/i-cube/I-CUBE-HUAWEI/Drivers/BSP/Components/lps22hh\lps22hh_reg.c ****   * @param  reg   register to read
  44:D:/fchai/work/i-cube/I-CUBE-HUAWEI/Drivers/BSP/Components/lps22hh\lps22hh_reg.c ****   * @param  data  pointer to buffer that store the data read(ptr)
  45:D:/fchai/work/i-cube/I-CUBE-HUAWEI/Drivers/BSP/Components/lps22hh\lps22hh_reg.c ****   * @param  len   number of consecutive register to read
  46:D:/fchai/work/i-cube/I-CUBE-HUAWEI/Drivers/BSP/Components/lps22hh\lps22hh_reg.c ****   * @retval       interface status (MANDATORY: return 0 -> no Error)
  47:D:/fchai/work/i-cube/I-CUBE-HUAWEI/Drivers/BSP/Components/lps22hh\lps22hh_reg.c ****   *
  48:D:/fchai/work/i-cube/I-CUBE-HUAWEI/Drivers/BSP/Components/lps22hh\lps22hh_reg.c ****   */
  49:D:/fchai/work/i-cube/I-CUBE-HUAWEI/Drivers/BSP/Components/lps22hh\lps22hh_reg.c **** int32_t lps22hh_read_reg(stmdev_ctx_t* ctx, uint8_t reg, uint8_t* data,
  50:D:/fchai/work/i-cube/I-CUBE-HUAWEI/Drivers/BSP/Components/lps22hh\lps22hh_reg.c ****                          uint16_t len)
  51:D:/fchai/work/i-cube/I-CUBE-HUAWEI/Drivers/BSP/Components/lps22hh\lps22hh_reg.c **** {
  31              		.loc 1 51 1 view -0
  32              		.cfi_startproc
  33              		@ args = 0, pretend = 0, frame = 0
  34              		@ frame_needed = 0, uses_anonymous_args = 0
  35              		@ link register save eliminated.
  52:D:/fchai/work/i-cube/I-CUBE-HUAWEI/Drivers/BSP/Components/lps22hh\lps22hh_reg.c ****   int32_t ret;
  36              		.loc 1 52 3 view .LVU1
  53:D:/fchai/work/i-cube/I-CUBE-HUAWEI/Drivers/BSP/Components/lps22hh\lps22hh_reg.c ****   ret = ctx->read_reg(ctx->handle, reg, data, len);
  37              		.loc 1 53 3 view .LVU2
  51:D:/fchai/work/i-cube/I-CUBE-HUAWEI/Drivers/BSP/Components/lps22hh\lps22hh_reg.c ****   int32_t ret;
  38              		.loc 1 51 1 is_stmt 0 view .LVU3
  39 0000 10B4     		push	{r4}
  40              	.LCFI0:
  41              		.cfi_def_cfa_offset 4
  42              		.cfi_offset 4, -4
  43              		.loc 1 53 9 view .LVU4
  44 0002 D0E90140 		ldrd	r4, r0, [r0, #4]
  45              	.LVL1:
  46              		.loc 1 53 9 view .LVU5
  47 0006 A446     		mov	ip, r4
  54:D:/fchai/work/i-cube/I-CUBE-HUAWEI/Drivers/BSP/Components/lps22hh\lps22hh_reg.c ****   return ret;
  55:D:/fchai/work/i-cube/I-CUBE-HUAWEI/Drivers/BSP/Components/lps22hh\lps22hh_reg.c **** }
  48              		.loc 1 55 1 view .LVU6
  49 0008 5DF8044B 		ldr	r4, [sp], #4
  50              	.LCFI1:
  51              		.cfi_restore 4
  52              		.cfi_def_cfa_offset 0
  53:D:/fchai/work/i-cube/I-CUBE-HUAWEI/Drivers/BSP/Components/lps22hh\lps22hh_reg.c ****   return ret;
  53              		.loc 1 53 9 view .LVU7
  54 000c 6047     		bx	ip
  55              	.LVL2:
  53:D:/fchai/work/i-cube/I-CUBE-HUAWEI/Drivers/BSP/Components/lps22hh\lps22hh_reg.c ****   return ret;
  56              		.loc 1 53 9 view .LVU8
  57              		.cfi_endproc
ARM GAS  T:\msys\tmp\ccdfMMY7.s 			page 3


  58              	.LFE0:
  60 000e 00BF     		.section	.text.lps22hh_write_reg,"ax",%progbits
  61              		.align	1
  62              		.p2align 2,,3
  63              		.global	lps22hh_write_reg
  64              		.syntax unified
  65              		.thumb
  66              		.thumb_func
  67              		.fpu fpv4-sp-d16
  69              	lps22hh_write_reg:
  70              	.LVL3:
  71              	.LFB1:
  56:D:/fchai/work/i-cube/I-CUBE-HUAWEI/Drivers/BSP/Components/lps22hh\lps22hh_reg.c **** 
  57:D:/fchai/work/i-cube/I-CUBE-HUAWEI/Drivers/BSP/Components/lps22hh\lps22hh_reg.c **** /**
  58:D:/fchai/work/i-cube/I-CUBE-HUAWEI/Drivers/BSP/Components/lps22hh\lps22hh_reg.c ****   * @brief  Write generic device register
  59:D:/fchai/work/i-cube/I-CUBE-HUAWEI/Drivers/BSP/Components/lps22hh\lps22hh_reg.c ****   *
  60:D:/fchai/work/i-cube/I-CUBE-HUAWEI/Drivers/BSP/Components/lps22hh\lps22hh_reg.c ****   * @param  ctx   read / write interface definitions(ptr)
  61:D:/fchai/work/i-cube/I-CUBE-HUAWEI/Drivers/BSP/Components/lps22hh\lps22hh_reg.c ****   * @param  reg   register to write
  62:D:/fchai/work/i-cube/I-CUBE-HUAWEI/Drivers/BSP/Components/lps22hh\lps22hh_reg.c ****   * @param  data  pointer to data to write in register reg(ptr)
  63:D:/fchai/work/i-cube/I-CUBE-HUAWEI/Drivers/BSP/Components/lps22hh\lps22hh_reg.c ****   * @param  len   number of consecutive register to write
  64:D:/fchai/work/i-cube/I-CUBE-HUAWEI/Drivers/BSP/Components/lps22hh\lps22hh_reg.c ****   * @retval       interface status (MANDATORY: return 0 -> no Error)
  65:D:/fchai/work/i-cube/I-CUBE-HUAWEI/Drivers/BSP/Components/lps22hh\lps22hh_reg.c ****   *
  66:D:/fchai/work/i-cube/I-CUBE-HUAWEI/Drivers/BSP/Components/lps22hh\lps22hh_reg.c ****   */
  67:D:/fchai/work/i-cube/I-CUBE-HUAWEI/Drivers/BSP/Components/lps22hh\lps22hh_reg.c **** int32_t lps22hh_write_reg(stmdev_ctx_t* ctx, uint8_t reg, uint8_t* data,
  68:D:/fchai/work/i-cube/I-CUBE-HUAWEI/Drivers/BSP/Components/lps22hh\lps22hh_reg.c ****                            uint16_t len)
  69:D:/fchai/work/i-cube/I-CUBE-HUAWEI/Drivers/BSP/Components/lps22hh\lps22hh_reg.c **** {
  72              		.loc 1 69 1 is_stmt 1 view -0
  73              		.cfi_startproc
  74              		@ args = 0, pretend = 0, frame = 0
  75              		@ frame_needed = 0, uses_anonymous_args = 0
  76              		@ link register save eliminated.
  70:D:/fchai/work/i-cube/I-CUBE-HUAWEI/Drivers/BSP/Components/lps22hh\lps22hh_reg.c ****   int32_t ret;
  77              		.loc 1 70 3 view .LVU10
  71:D:/fchai/work/i-cube/I-CUBE-HUAWEI/Drivers/BSP/Components/lps22hh\lps22hh_reg.c ****   ret = ctx->write_reg(ctx->handle, reg, data, len);
  78              		.loc 1 71 3 view .LVU11
  69:D:/fchai/work/i-cube/I-CUBE-HUAWEI/Drivers/BSP/Components/lps22hh\lps22hh_reg.c ****   int32_t ret;
  79              		.loc 1 69 1 is_stmt 0 view .LVU12
  80 0000 10B4     		push	{r4}
  81              	.LCFI2:
  82              		.cfi_def_cfa_offset 4
  83              		.cfi_offset 4, -4
  84              		.loc 1 71 9 view .LVU13
  85 0002 0468     		ldr	r4, [r0]
  86 0004 8068     		ldr	r0, [r0, #8]
  87              	.LVL4:
  88              		.loc 1 71 9 view .LVU14
  89 0006 A446     		mov	ip, r4
  72:D:/fchai/work/i-cube/I-CUBE-HUAWEI/Drivers/BSP/Components/lps22hh\lps22hh_reg.c ****   return ret;
  73:D:/fchai/work/i-cube/I-CUBE-HUAWEI/Drivers/BSP/Components/lps22hh\lps22hh_reg.c **** }
  90              		.loc 1 73 1 view .LVU15
  91 0008 5DF8044B 		ldr	r4, [sp], #4
  92              	.LCFI3:
  93              		.cfi_restore 4
  94              		.cfi_def_cfa_offset 0
  71:D:/fchai/work/i-cube/I-CUBE-HUAWEI/Drivers/BSP/Components/lps22hh\lps22hh_reg.c ****   return ret;
  95              		.loc 1 71 9 view .LVU16
  96 000c 6047     		bx	ip
ARM GAS  T:\msys\tmp\ccdfMMY7.s 			page 4


  97              	.LVL5:
  71:D:/fchai/work/i-cube/I-CUBE-HUAWEI/Drivers/BSP/Components/lps22hh\lps22hh_reg.c ****   return ret;
  98              		.loc 1 71 9 view .LVU17
  99              		.cfi_endproc
 100              	.LFE1:
 102 000e 00BF     		.section	.text.lps22hh_from_lsb_to_hpa,"ax",%progbits
 103              		.align	1
 104              		.p2align 2,,3
 105              		.global	lps22hh_from_lsb_to_hpa
 106              		.syntax unified
 107              		.thumb
 108              		.thumb_func
 109              		.fpu fpv4-sp-d16
 111              	lps22hh_from_lsb_to_hpa:
 112              	.LVL6:
 113              	.LFB2:
  74:D:/fchai/work/i-cube/I-CUBE-HUAWEI/Drivers/BSP/Components/lps22hh\lps22hh_reg.c **** 
  75:D:/fchai/work/i-cube/I-CUBE-HUAWEI/Drivers/BSP/Components/lps22hh\lps22hh_reg.c **** /**
  76:D:/fchai/work/i-cube/I-CUBE-HUAWEI/Drivers/BSP/Components/lps22hh\lps22hh_reg.c ****   * @}
  77:D:/fchai/work/i-cube/I-CUBE-HUAWEI/Drivers/BSP/Components/lps22hh\lps22hh_reg.c ****   *
  78:D:/fchai/work/i-cube/I-CUBE-HUAWEI/Drivers/BSP/Components/lps22hh\lps22hh_reg.c ****   */
  79:D:/fchai/work/i-cube/I-CUBE-HUAWEI/Drivers/BSP/Components/lps22hh\lps22hh_reg.c **** 
  80:D:/fchai/work/i-cube/I-CUBE-HUAWEI/Drivers/BSP/Components/lps22hh\lps22hh_reg.c **** /**
  81:D:/fchai/work/i-cube/I-CUBE-HUAWEI/Drivers/BSP/Components/lps22hh\lps22hh_reg.c ****   * @defgroup    LPS22HH_Sensitivity
  82:D:/fchai/work/i-cube/I-CUBE-HUAWEI/Drivers/BSP/Components/lps22hh\lps22hh_reg.c ****   * @brief       These functions convert raw-data into engineering units.
  83:D:/fchai/work/i-cube/I-CUBE-HUAWEI/Drivers/BSP/Components/lps22hh\lps22hh_reg.c ****   * @{
  84:D:/fchai/work/i-cube/I-CUBE-HUAWEI/Drivers/BSP/Components/lps22hh\lps22hh_reg.c ****   *
  85:D:/fchai/work/i-cube/I-CUBE-HUAWEI/Drivers/BSP/Components/lps22hh\lps22hh_reg.c ****   */
  86:D:/fchai/work/i-cube/I-CUBE-HUAWEI/Drivers/BSP/Components/lps22hh\lps22hh_reg.c **** float_t lps22hh_from_lsb_to_hpa(int32_t lsb)
  87:D:/fchai/work/i-cube/I-CUBE-HUAWEI/Drivers/BSP/Components/lps22hh\lps22hh_reg.c **** {
 114              		.loc 1 87 1 is_stmt 1 view -0
 115              		.cfi_startproc
 116              		@ args = 0, pretend = 0, frame = 0
 117              		@ frame_needed = 0, uses_anonymous_args = 0
 118              		@ link register save eliminated.
  88:D:/fchai/work/i-cube/I-CUBE-HUAWEI/Drivers/BSP/Components/lps22hh\lps22hh_reg.c ****   return ( (float_t) lsb / 4096.0f );
 119              		.loc 1 88 3 view .LVU19
  87:D:/fchai/work/i-cube/I-CUBE-HUAWEI/Drivers/BSP/Components/lps22hh\lps22hh_reg.c ****   return ( (float_t) lsb / 4096.0f );
 120              		.loc 1 87 1 is_stmt 0 view .LVU20
 121 0000 00EE100A 		vmov	s0, r0	@ int
  89:D:/fchai/work/i-cube/I-CUBE-HUAWEI/Drivers/BSP/Components/lps22hh\lps22hh_reg.c **** }
 122              		.loc 1 89 1 view .LVU21
 123 0004 BAEECA0A 		vcvt.f32.s32	s0, s0, #12
 124 0008 7047     		bx	lr
 125              		.cfi_endproc
 126              	.LFE2:
 128 000a 00BF     		.section	.text.lps22hh_from_lsb_to_celsius,"ax",%progbits
 129              		.align	1
 130              		.p2align 2,,3
 131              		.global	lps22hh_from_lsb_to_celsius
 132              		.syntax unified
 133              		.thumb
 134              		.thumb_func
 135              		.fpu fpv4-sp-d16
 137              	lps22hh_from_lsb_to_celsius:
 138              	.LVL7:
 139              	.LFB3:
ARM GAS  T:\msys\tmp\ccdfMMY7.s 			page 5


  90:D:/fchai/work/i-cube/I-CUBE-HUAWEI/Drivers/BSP/Components/lps22hh\lps22hh_reg.c **** 
  91:D:/fchai/work/i-cube/I-CUBE-HUAWEI/Drivers/BSP/Components/lps22hh\lps22hh_reg.c **** float_t lps22hh_from_lsb_to_celsius(int16_t lsb)
  92:D:/fchai/work/i-cube/I-CUBE-HUAWEI/Drivers/BSP/Components/lps22hh\lps22hh_reg.c **** {
 140              		.loc 1 92 1 is_stmt 1 view -0
 141              		.cfi_startproc
 142              		@ args = 0, pretend = 0, frame = 0
 143              		@ frame_needed = 0, uses_anonymous_args = 0
 144              		@ link register save eliminated.
  93:D:/fchai/work/i-cube/I-CUBE-HUAWEI/Drivers/BSP/Components/lps22hh\lps22hh_reg.c ****   return ( (float_t) lsb / 100.0f );
 145              		.loc 1 93 3 view .LVU23
 146              		.loc 1 93 12 is_stmt 0 view .LVU24
 147 0000 07EE900A 		vmov	s15, r0	@ int
 148 0004 B8EEE70A 		vcvt.f32.s32	s0, s15
 149              		.loc 1 93 26 view .LVU25
 150 0008 DFED027A 		vldr.32	s15, .L8
  94:D:/fchai/work/i-cube/I-CUBE-HUAWEI/Drivers/BSP/Components/lps22hh\lps22hh_reg.c **** }
 151              		.loc 1 94 1 view .LVU26
 152 000c 80EE270A 		vdiv.f32	s0, s0, s15
 153 0010 7047     		bx	lr
 154              	.L9:
 155 0012 00BF     		.align	2
 156              	.L8:
 157 0014 0000C842 		.word	1120403456
 158              		.cfi_endproc
 159              	.LFE3:
 161              		.section	.text.lps22hh_autozero_rst_set,"ax",%progbits
 162              		.align	1
 163              		.p2align 2,,3
 164              		.global	lps22hh_autozero_rst_set
 165              		.syntax unified
 166              		.thumb
 167              		.thumb_func
 168              		.fpu fpv4-sp-d16
 170              	lps22hh_autozero_rst_set:
 171              	.LVL8:
 172              	.LFB4:
  95:D:/fchai/work/i-cube/I-CUBE-HUAWEI/Drivers/BSP/Components/lps22hh\lps22hh_reg.c **** 
  96:D:/fchai/work/i-cube/I-CUBE-HUAWEI/Drivers/BSP/Components/lps22hh\lps22hh_reg.c **** /**
  97:D:/fchai/work/i-cube/I-CUBE-HUAWEI/Drivers/BSP/Components/lps22hh\lps22hh_reg.c ****   * @}
  98:D:/fchai/work/i-cube/I-CUBE-HUAWEI/Drivers/BSP/Components/lps22hh\lps22hh_reg.c ****   *
  99:D:/fchai/work/i-cube/I-CUBE-HUAWEI/Drivers/BSP/Components/lps22hh\lps22hh_reg.c ****   */
 100:D:/fchai/work/i-cube/I-CUBE-HUAWEI/Drivers/BSP/Components/lps22hh\lps22hh_reg.c **** 
 101:D:/fchai/work/i-cube/I-CUBE-HUAWEI/Drivers/BSP/Components/lps22hh\lps22hh_reg.c **** /**
 102:D:/fchai/work/i-cube/I-CUBE-HUAWEI/Drivers/BSP/Components/lps22hh\lps22hh_reg.c ****   * @defgroup  LPS22HH_Data_Generation
 103:D:/fchai/work/i-cube/I-CUBE-HUAWEI/Drivers/BSP/Components/lps22hh\lps22hh_reg.c ****   * @brief     This section groups all the functions concerning
 104:D:/fchai/work/i-cube/I-CUBE-HUAWEI/Drivers/BSP/Components/lps22hh\lps22hh_reg.c ****   *            data generation.
 105:D:/fchai/work/i-cube/I-CUBE-HUAWEI/Drivers/BSP/Components/lps22hh\lps22hh_reg.c ****   * @{
 106:D:/fchai/work/i-cube/I-CUBE-HUAWEI/Drivers/BSP/Components/lps22hh\lps22hh_reg.c ****   *
 107:D:/fchai/work/i-cube/I-CUBE-HUAWEI/Drivers/BSP/Components/lps22hh\lps22hh_reg.c ****   */
 108:D:/fchai/work/i-cube/I-CUBE-HUAWEI/Drivers/BSP/Components/lps22hh\lps22hh_reg.c **** 
 109:D:/fchai/work/i-cube/I-CUBE-HUAWEI/Drivers/BSP/Components/lps22hh\lps22hh_reg.c **** /**
 110:D:/fchai/work/i-cube/I-CUBE-HUAWEI/Drivers/BSP/Components/lps22hh\lps22hh_reg.c ****   * @brief  Reset Autozero function.[set]
 111:D:/fchai/work/i-cube/I-CUBE-HUAWEI/Drivers/BSP/Components/lps22hh\lps22hh_reg.c ****   *
 112:D:/fchai/work/i-cube/I-CUBE-HUAWEI/Drivers/BSP/Components/lps22hh\lps22hh_reg.c ****   * @param  ctx      read / write interface definitions
 113:D:/fchai/work/i-cube/I-CUBE-HUAWEI/Drivers/BSP/Components/lps22hh\lps22hh_reg.c ****   * @param  val      change the values of reset_az in reg INTERRUPT_CFG
 114:D:/fchai/work/i-cube/I-CUBE-HUAWEI/Drivers/BSP/Components/lps22hh\lps22hh_reg.c ****   * @retval          interface status (MANDATORY: return 0 -> no Error)
 115:D:/fchai/work/i-cube/I-CUBE-HUAWEI/Drivers/BSP/Components/lps22hh\lps22hh_reg.c ****   *
ARM GAS  T:\msys\tmp\ccdfMMY7.s 			page 6


 116:D:/fchai/work/i-cube/I-CUBE-HUAWEI/Drivers/BSP/Components/lps22hh\lps22hh_reg.c ****   */
 117:D:/fchai/work/i-cube/I-CUBE-HUAWEI/Drivers/BSP/Components/lps22hh\lps22hh_reg.c **** int32_t lps22hh_autozero_rst_set(stmdev_ctx_t *ctx, uint8_t val)
 118:D:/fchai/work/i-cube/I-CUBE-HUAWEI/Drivers/BSP/Components/lps22hh\lps22hh_reg.c **** {
 173              		.loc 1 118 1 is_stmt 1 view -0
 174              		.cfi_startproc
 175              		@ args = 0, pretend = 0, frame = 8
 176              		@ frame_needed = 0, uses_anonymous_args = 0
 119:D:/fchai/work/i-cube/I-CUBE-HUAWEI/Drivers/BSP/Components/lps22hh\lps22hh_reg.c ****   lps22hh_interrupt_cfg_t reg;
 177              		.loc 1 119 3 view .LVU28
 120:D:/fchai/work/i-cube/I-CUBE-HUAWEI/Drivers/BSP/Components/lps22hh\lps22hh_reg.c ****   int32_t ret;
 178              		.loc 1 120 3 view .LVU29
 121:D:/fchai/work/i-cube/I-CUBE-HUAWEI/Drivers/BSP/Components/lps22hh\lps22hh_reg.c **** 
 122:D:/fchai/work/i-cube/I-CUBE-HUAWEI/Drivers/BSP/Components/lps22hh\lps22hh_reg.c ****   ret = lps22hh_read_reg(ctx, LPS22HH_INTERRUPT_CFG, (uint8_t*) &reg, 1);
 179              		.loc 1 122 3 view .LVU30
 118:D:/fchai/work/i-cube/I-CUBE-HUAWEI/Drivers/BSP/Components/lps22hh\lps22hh_reg.c ****   lps22hh_interrupt_cfg_t reg;
 180              		.loc 1 118 1 is_stmt 0 view .LVU31
 181 0000 70B5     		push	{r4, r5, r6, lr}
 182              	.LCFI4:
 183              		.cfi_def_cfa_offset 16
 184              		.cfi_offset 4, -16
 185              		.cfi_offset 5, -12
 186              		.cfi_offset 6, -8
 187              		.cfi_offset 14, -4
 188 0002 82B0     		sub	sp, sp, #8
 189              	.LCFI5:
 190              		.cfi_def_cfa_offset 24
 118:D:/fchai/work/i-cube/I-CUBE-HUAWEI/Drivers/BSP/Components/lps22hh\lps22hh_reg.c ****   lps22hh_interrupt_cfg_t reg;
 191              		.loc 1 118 1 view .LVU32
 192 0004 0446     		mov	r4, r0
 193              	.LVL9:
 194              	.LBB212:
 195              	.LBI212:
  49:D:/fchai/work/i-cube/I-CUBE-HUAWEI/Drivers/BSP/Components/lps22hh\lps22hh_reg.c ****                          uint16_t len)
 196              		.loc 1 49 9 is_stmt 1 view .LVU33
 197              	.LBB213:
  52:D:/fchai/work/i-cube/I-CUBE-HUAWEI/Drivers/BSP/Components/lps22hh\lps22hh_reg.c ****   ret = ctx->read_reg(ctx->handle, reg, data, len);
 198              		.loc 1 52 3 view .LVU34
  53:D:/fchai/work/i-cube/I-CUBE-HUAWEI/Drivers/BSP/Components/lps22hh\lps22hh_reg.c ****   return ret;
 199              		.loc 1 53 3 view .LVU35
 200              	.LBE213:
 201              	.LBE212:
 118:D:/fchai/work/i-cube/I-CUBE-HUAWEI/Drivers/BSP/Components/lps22hh\lps22hh_reg.c ****   lps22hh_interrupt_cfg_t reg;
 202              		.loc 1 118 1 is_stmt 0 view .LVU36
 203 0006 0D46     		mov	r5, r1
 204              	.LBB215:
 205              	.LBB214:
  53:D:/fchai/work/i-cube/I-CUBE-HUAWEI/Drivers/BSP/Components/lps22hh\lps22hh_reg.c ****   return ret;
 206              		.loc 1 53 9 view .LVU37
 207 0008 D0E90160 		ldrd	r6, r0, [r0, #4]
 208              	.LVL10:
  53:D:/fchai/work/i-cube/I-CUBE-HUAWEI/Drivers/BSP/Components/lps22hh\lps22hh_reg.c ****   return ret;
 209              		.loc 1 53 9 view .LVU38
 210 000c 01AA     		add	r2, sp, #4
 211              	.LVL11:
  53:D:/fchai/work/i-cube/I-CUBE-HUAWEI/Drivers/BSP/Components/lps22hh\lps22hh_reg.c ****   return ret;
 212              		.loc 1 53 9 view .LVU39
 213 000e 0123     		movs	r3, #1
ARM GAS  T:\msys\tmp\ccdfMMY7.s 			page 7


 214 0010 0B21     		movs	r1, #11
 215              	.LVL12:
  53:D:/fchai/work/i-cube/I-CUBE-HUAWEI/Drivers/BSP/Components/lps22hh\lps22hh_reg.c ****   return ret;
 216              		.loc 1 53 9 view .LVU40
 217 0012 B047     		blx	r6
 218              	.LVL13:
  54:D:/fchai/work/i-cube/I-CUBE-HUAWEI/Drivers/BSP/Components/lps22hh\lps22hh_reg.c **** }
 219              		.loc 1 54 3 is_stmt 1 view .LVU41
  54:D:/fchai/work/i-cube/I-CUBE-HUAWEI/Drivers/BSP/Components/lps22hh\lps22hh_reg.c **** }
 220              		.loc 1 54 3 is_stmt 0 view .LVU42
 221              	.LBE214:
 222              	.LBE215:
 123:D:/fchai/work/i-cube/I-CUBE-HUAWEI/Drivers/BSP/Components/lps22hh\lps22hh_reg.c ****   if (ret == 0) {
 223              		.loc 1 123 3 is_stmt 1 view .LVU43
 224              		.loc 1 123 6 is_stmt 0 view .LVU44
 225 0014 58B9     		cbnz	r0, .L10
 124:D:/fchai/work/i-cube/I-CUBE-HUAWEI/Drivers/BSP/Components/lps22hh\lps22hh_reg.c ****     reg.reset_az = val;
 226              		.loc 1 124 5 is_stmt 1 view .LVU45
 227              		.loc 1 124 18 is_stmt 0 view .LVU46
 228 0016 9DF80430 		ldrb	r3, [sp, #4]	@ zero_extendqisi2
 229              	.LBB216:
 230              	.LBB217:
  71:D:/fchai/work/i-cube/I-CUBE-HUAWEI/Drivers/BSP/Components/lps22hh\lps22hh_reg.c ****   return ret;
 231              		.loc 1 71 9 view .LVU47
 232 001a 2668     		ldr	r6, [r4]
 233 001c A068     		ldr	r0, [r4, #8]
 234              	.LVL14:
  71:D:/fchai/work/i-cube/I-CUBE-HUAWEI/Drivers/BSP/Components/lps22hh\lps22hh_reg.c ****   return ret;
 235              		.loc 1 71 9 view .LVU48
 236              	.LBE217:
 237              	.LBE216:
 238              		.loc 1 124 18 view .LVU49
 239 001e 65F30413 		bfi	r3, r5, #4, #1
 240 0022 8DF80430 		strb	r3, [sp, #4]
 125:D:/fchai/work/i-cube/I-CUBE-HUAWEI/Drivers/BSP/Components/lps22hh\lps22hh_reg.c ****     ret = lps22hh_write_reg(ctx, LPS22HH_INTERRUPT_CFG, (uint8_t*) &reg, 1);
 241              		.loc 1 125 5 is_stmt 1 view .LVU50
 242              	.LVL15:
 243              	.LBB219:
 244              	.LBI216:
  67:D:/fchai/work/i-cube/I-CUBE-HUAWEI/Drivers/BSP/Components/lps22hh\lps22hh_reg.c ****                            uint16_t len)
 245              		.loc 1 67 9 view .LVU51
 246              	.LBB218:
  70:D:/fchai/work/i-cube/I-CUBE-HUAWEI/Drivers/BSP/Components/lps22hh\lps22hh_reg.c ****   ret = ctx->write_reg(ctx->handle, reg, data, len);
 247              		.loc 1 70 3 view .LVU52
  71:D:/fchai/work/i-cube/I-CUBE-HUAWEI/Drivers/BSP/Components/lps22hh\lps22hh_reg.c ****   return ret;
 248              		.loc 1 71 3 view .LVU53
  71:D:/fchai/work/i-cube/I-CUBE-HUAWEI/Drivers/BSP/Components/lps22hh\lps22hh_reg.c ****   return ret;
 249              		.loc 1 71 9 is_stmt 0 view .LVU54
 250 0026 01AA     		add	r2, sp, #4
 251              	.LVL16:
  71:D:/fchai/work/i-cube/I-CUBE-HUAWEI/Drivers/BSP/Components/lps22hh\lps22hh_reg.c ****   return ret;
 252              		.loc 1 71 9 view .LVU55
 253 0028 0123     		movs	r3, #1
 254 002a 0B21     		movs	r1, #11
 255 002c B047     		blx	r6
 256              	.LVL17:
  72:D:/fchai/work/i-cube/I-CUBE-HUAWEI/Drivers/BSP/Components/lps22hh\lps22hh_reg.c **** }
ARM GAS  T:\msys\tmp\ccdfMMY7.s 			page 8


 257              		.loc 1 72 3 is_stmt 1 view .LVU56
  72:D:/fchai/work/i-cube/I-CUBE-HUAWEI/Drivers/BSP/Components/lps22hh\lps22hh_reg.c **** }
 258              		.loc 1 72 3 is_stmt 0 view .LVU57
 259              	.LBE218:
 260              	.LBE219:
 126:D:/fchai/work/i-cube/I-CUBE-HUAWEI/Drivers/BSP/Components/lps22hh\lps22hh_reg.c ****   }
 127:D:/fchai/work/i-cube/I-CUBE-HUAWEI/Drivers/BSP/Components/lps22hh\lps22hh_reg.c ****   return ret;
 261              		.loc 1 127 3 is_stmt 1 view .LVU58
 262              	.L10:
 128:D:/fchai/work/i-cube/I-CUBE-HUAWEI/Drivers/BSP/Components/lps22hh\lps22hh_reg.c **** }
 263              		.loc 1 128 1 is_stmt 0 view .LVU59
 264 002e 02B0     		add	sp, sp, #8
 265              	.LCFI6:
 266              		.cfi_def_cfa_offset 16
 267              		@ sp needed
 268 0030 70BD     		pop	{r4, r5, r6, pc}
 269              		.loc 1 128 1 view .LVU60
 270              		.cfi_endproc
 271              	.LFE4:
 273 0032 00BF     		.section	.text.lps22hh_autozero_rst_get,"ax",%progbits
 274              		.align	1
 275              		.p2align 2,,3
 276              		.global	lps22hh_autozero_rst_get
 277              		.syntax unified
 278              		.thumb
 279              		.thumb_func
 280              		.fpu fpv4-sp-d16
 282              	lps22hh_autozero_rst_get:
 283              	.LVL18:
 284              	.LFB5:
 129:D:/fchai/work/i-cube/I-CUBE-HUAWEI/Drivers/BSP/Components/lps22hh\lps22hh_reg.c **** 
 130:D:/fchai/work/i-cube/I-CUBE-HUAWEI/Drivers/BSP/Components/lps22hh\lps22hh_reg.c **** /**
 131:D:/fchai/work/i-cube/I-CUBE-HUAWEI/Drivers/BSP/Components/lps22hh\lps22hh_reg.c ****   * @brief  Reset Autozero function.[get]
 132:D:/fchai/work/i-cube/I-CUBE-HUAWEI/Drivers/BSP/Components/lps22hh\lps22hh_reg.c ****   *
 133:D:/fchai/work/i-cube/I-CUBE-HUAWEI/Drivers/BSP/Components/lps22hh\lps22hh_reg.c ****   * @param  ctx      read / write interface definitions
 134:D:/fchai/work/i-cube/I-CUBE-HUAWEI/Drivers/BSP/Components/lps22hh\lps22hh_reg.c ****   * @param  val      change the values of reset_az in reg INTERRUPT_CFG
 135:D:/fchai/work/i-cube/I-CUBE-HUAWEI/Drivers/BSP/Components/lps22hh\lps22hh_reg.c ****   * @retval          interface status (MANDATORY: return 0 -> no Error)
 136:D:/fchai/work/i-cube/I-CUBE-HUAWEI/Drivers/BSP/Components/lps22hh\lps22hh_reg.c ****   *
 137:D:/fchai/work/i-cube/I-CUBE-HUAWEI/Drivers/BSP/Components/lps22hh\lps22hh_reg.c ****   */
 138:D:/fchai/work/i-cube/I-CUBE-HUAWEI/Drivers/BSP/Components/lps22hh\lps22hh_reg.c **** int32_t lps22hh_autozero_rst_get(stmdev_ctx_t *ctx, uint8_t *val)
 139:D:/fchai/work/i-cube/I-CUBE-HUAWEI/Drivers/BSP/Components/lps22hh\lps22hh_reg.c **** {
 285              		.loc 1 139 1 is_stmt 1 view -0
 286              		.cfi_startproc
 287              		@ args = 0, pretend = 0, frame = 8
 288              		@ frame_needed = 0, uses_anonymous_args = 0
 140:D:/fchai/work/i-cube/I-CUBE-HUAWEI/Drivers/BSP/Components/lps22hh\lps22hh_reg.c ****   lps22hh_interrupt_cfg_t reg;
 289              		.loc 1 140 3 view .LVU62
 141:D:/fchai/work/i-cube/I-CUBE-HUAWEI/Drivers/BSP/Components/lps22hh\lps22hh_reg.c ****   int32_t ret;
 290              		.loc 1 141 3 view .LVU63
 142:D:/fchai/work/i-cube/I-CUBE-HUAWEI/Drivers/BSP/Components/lps22hh\lps22hh_reg.c **** 
 143:D:/fchai/work/i-cube/I-CUBE-HUAWEI/Drivers/BSP/Components/lps22hh\lps22hh_reg.c ****   ret = lps22hh_read_reg(ctx, LPS22HH_INTERRUPT_CFG, (uint8_t*) &reg, 1);
 291              		.loc 1 143 3 view .LVU64
 139:D:/fchai/work/i-cube/I-CUBE-HUAWEI/Drivers/BSP/Components/lps22hh\lps22hh_reg.c ****   lps22hh_interrupt_cfg_t reg;
 292              		.loc 1 139 1 is_stmt 0 view .LVU65
 293 0000 30B5     		push	{r4, r5, lr}
 294              	.LCFI7:
 295              		.cfi_def_cfa_offset 12
ARM GAS  T:\msys\tmp\ccdfMMY7.s 			page 9


 296              		.cfi_offset 4, -12
 297              		.cfi_offset 5, -8
 298              		.cfi_offset 14, -4
 299 0002 83B0     		sub	sp, sp, #12
 300              	.LCFI8:
 301              		.cfi_def_cfa_offset 24
 302              	.LVL19:
 303              	.LBB220:
 304              	.LBI220:
  49:D:/fchai/work/i-cube/I-CUBE-HUAWEI/Drivers/BSP/Components/lps22hh\lps22hh_reg.c ****                          uint16_t len)
 305              		.loc 1 49 9 is_stmt 1 view .LVU66
 306              	.LBB221:
  52:D:/fchai/work/i-cube/I-CUBE-HUAWEI/Drivers/BSP/Components/lps22hh\lps22hh_reg.c ****   ret = ctx->read_reg(ctx->handle, reg, data, len);
 307              		.loc 1 52 3 view .LVU67
  53:D:/fchai/work/i-cube/I-CUBE-HUAWEI/Drivers/BSP/Components/lps22hh\lps22hh_reg.c ****   return ret;
 308              		.loc 1 53 3 view .LVU68
 309              	.LBE221:
 310              	.LBE220:
 139:D:/fchai/work/i-cube/I-CUBE-HUAWEI/Drivers/BSP/Components/lps22hh\lps22hh_reg.c ****   lps22hh_interrupt_cfg_t reg;
 311              		.loc 1 139 1 is_stmt 0 view .LVU69
 312 0004 0C46     		mov	r4, r1
 313              	.LBB223:
 314              	.LBB222:
  53:D:/fchai/work/i-cube/I-CUBE-HUAWEI/Drivers/BSP/Components/lps22hh\lps22hh_reg.c ****   return ret;
 315              		.loc 1 53 9 view .LVU70
 316 0006 D0E90150 		ldrd	r5, r0, [r0, #4]
 317              	.LVL20:
  53:D:/fchai/work/i-cube/I-CUBE-HUAWEI/Drivers/BSP/Components/lps22hh\lps22hh_reg.c ****   return ret;
 318              		.loc 1 53 9 view .LVU71
 319 000a 0123     		movs	r3, #1
 320 000c 01AA     		add	r2, sp, #4
 321              	.LVL21:
  53:D:/fchai/work/i-cube/I-CUBE-HUAWEI/Drivers/BSP/Components/lps22hh\lps22hh_reg.c ****   return ret;
 322              		.loc 1 53 9 view .LVU72
 323 000e 0B21     		movs	r1, #11
 324              	.LVL22:
  53:D:/fchai/work/i-cube/I-CUBE-HUAWEI/Drivers/BSP/Components/lps22hh\lps22hh_reg.c ****   return ret;
 325              		.loc 1 53 9 view .LVU73
 326 0010 A847     		blx	r5
 327              	.LVL23:
  54:D:/fchai/work/i-cube/I-CUBE-HUAWEI/Drivers/BSP/Components/lps22hh\lps22hh_reg.c **** }
 328              		.loc 1 54 3 is_stmt 1 view .LVU74
  54:D:/fchai/work/i-cube/I-CUBE-HUAWEI/Drivers/BSP/Components/lps22hh\lps22hh_reg.c **** }
 329              		.loc 1 54 3 is_stmt 0 view .LVU75
 330              	.LBE222:
 331              	.LBE223:
 144:D:/fchai/work/i-cube/I-CUBE-HUAWEI/Drivers/BSP/Components/lps22hh\lps22hh_reg.c ****   *val = reg.reset_az;
 332              		.loc 1 144 3 is_stmt 1 view .LVU76
 333              		.loc 1 144 13 is_stmt 0 view .LVU77
 334 0012 9DF80430 		ldrb	r3, [sp, #4]	@ zero_extendqisi2
 335 0016 C3F30013 		ubfx	r3, r3, #4, #1
 336              		.loc 1 144 8 view .LVU78
 337 001a 2370     		strb	r3, [r4]
 145:D:/fchai/work/i-cube/I-CUBE-HUAWEI/Drivers/BSP/Components/lps22hh\lps22hh_reg.c **** 
 146:D:/fchai/work/i-cube/I-CUBE-HUAWEI/Drivers/BSP/Components/lps22hh\lps22hh_reg.c ****   return ret;
 338              		.loc 1 146 3 is_stmt 1 view .LVU79
 147:D:/fchai/work/i-cube/I-CUBE-HUAWEI/Drivers/BSP/Components/lps22hh\lps22hh_reg.c **** }
ARM GAS  T:\msys\tmp\ccdfMMY7.s 			page 10


 339              		.loc 1 147 1 is_stmt 0 view .LVU80
 340 001c 03B0     		add	sp, sp, #12
 341              	.LCFI9:
 342              		.cfi_def_cfa_offset 12
 343              		@ sp needed
 344 001e 30BD     		pop	{r4, r5, pc}
 345              		.loc 1 147 1 view .LVU81
 346              		.cfi_endproc
 347              	.LFE5:
 349              		.section	.text.lps22hh_autozero_set,"ax",%progbits
 350              		.align	1
 351              		.p2align 2,,3
 352              		.global	lps22hh_autozero_set
 353              		.syntax unified
 354              		.thumb
 355              		.thumb_func
 356              		.fpu fpv4-sp-d16
 358              	lps22hh_autozero_set:
 359              	.LVL24:
 360              	.LFB6:
 148:D:/fchai/work/i-cube/I-CUBE-HUAWEI/Drivers/BSP/Components/lps22hh\lps22hh_reg.c **** 
 149:D:/fchai/work/i-cube/I-CUBE-HUAWEI/Drivers/BSP/Components/lps22hh\lps22hh_reg.c **** /**
 150:D:/fchai/work/i-cube/I-CUBE-HUAWEI/Drivers/BSP/Components/lps22hh\lps22hh_reg.c ****   * @brief  Enable Autozero function.[set]
 151:D:/fchai/work/i-cube/I-CUBE-HUAWEI/Drivers/BSP/Components/lps22hh\lps22hh_reg.c ****   *
 152:D:/fchai/work/i-cube/I-CUBE-HUAWEI/Drivers/BSP/Components/lps22hh\lps22hh_reg.c ****   * @param  ctx      read / write interface definitions
 153:D:/fchai/work/i-cube/I-CUBE-HUAWEI/Drivers/BSP/Components/lps22hh\lps22hh_reg.c ****   * @param  val      change the values of autozero in reg INTERRUPT_CFG
 154:D:/fchai/work/i-cube/I-CUBE-HUAWEI/Drivers/BSP/Components/lps22hh\lps22hh_reg.c ****   * @retval          interface status (MANDATORY: return 0 -> no Error)
 155:D:/fchai/work/i-cube/I-CUBE-HUAWEI/Drivers/BSP/Components/lps22hh\lps22hh_reg.c ****   *
 156:D:/fchai/work/i-cube/I-CUBE-HUAWEI/Drivers/BSP/Components/lps22hh\lps22hh_reg.c ****   */
 157:D:/fchai/work/i-cube/I-CUBE-HUAWEI/Drivers/BSP/Components/lps22hh\lps22hh_reg.c **** int32_t lps22hh_autozero_set(stmdev_ctx_t *ctx, uint8_t val)
 158:D:/fchai/work/i-cube/I-CUBE-HUAWEI/Drivers/BSP/Components/lps22hh\lps22hh_reg.c **** {
 361              		.loc 1 158 1 is_stmt 1 view -0
 362              		.cfi_startproc
 363              		@ args = 0, pretend = 0, frame = 8
 364              		@ frame_needed = 0, uses_anonymous_args = 0
 159:D:/fchai/work/i-cube/I-CUBE-HUAWEI/Drivers/BSP/Components/lps22hh\lps22hh_reg.c ****   lps22hh_interrupt_cfg_t reg;
 365              		.loc 1 159 3 view .LVU83
 160:D:/fchai/work/i-cube/I-CUBE-HUAWEI/Drivers/BSP/Components/lps22hh\lps22hh_reg.c ****   int32_t ret;
 366              		.loc 1 160 3 view .LVU84
 161:D:/fchai/work/i-cube/I-CUBE-HUAWEI/Drivers/BSP/Components/lps22hh\lps22hh_reg.c **** 
 162:D:/fchai/work/i-cube/I-CUBE-HUAWEI/Drivers/BSP/Components/lps22hh\lps22hh_reg.c ****   ret = lps22hh_read_reg(ctx, LPS22HH_INTERRUPT_CFG, (uint8_t*) &reg, 1);
 367              		.loc 1 162 3 view .LVU85
 158:D:/fchai/work/i-cube/I-CUBE-HUAWEI/Drivers/BSP/Components/lps22hh\lps22hh_reg.c ****   lps22hh_interrupt_cfg_t reg;
 368              		.loc 1 158 1 is_stmt 0 view .LVU86
 369 0000 70B5     		push	{r4, r5, r6, lr}
 370              	.LCFI10:
 371              		.cfi_def_cfa_offset 16
 372              		.cfi_offset 4, -16
 373              		.cfi_offset 5, -12
 374              		.cfi_offset 6, -8
 375              		.cfi_offset 14, -4
 376 0002 82B0     		sub	sp, sp, #8
 377              	.LCFI11:
 378              		.cfi_def_cfa_offset 24
 158:D:/fchai/work/i-cube/I-CUBE-HUAWEI/Drivers/BSP/Components/lps22hh\lps22hh_reg.c ****   lps22hh_interrupt_cfg_t reg;
 379              		.loc 1 158 1 view .LVU87
 380 0004 0446     		mov	r4, r0
ARM GAS  T:\msys\tmp\ccdfMMY7.s 			page 11


 381              	.LVL25:
 382              	.LBB224:
 383              	.LBI224:
  49:D:/fchai/work/i-cube/I-CUBE-HUAWEI/Drivers/BSP/Components/lps22hh\lps22hh_reg.c ****                          uint16_t len)
 384              		.loc 1 49 9 is_stmt 1 view .LVU88
 385              	.LBB225:
  52:D:/fchai/work/i-cube/I-CUBE-HUAWEI/Drivers/BSP/Components/lps22hh\lps22hh_reg.c ****   ret = ctx->read_reg(ctx->handle, reg, data, len);
 386              		.loc 1 52 3 view .LVU89
  53:D:/fchai/work/i-cube/I-CUBE-HUAWEI/Drivers/BSP/Components/lps22hh\lps22hh_reg.c ****   return ret;
 387              		.loc 1 53 3 view .LVU90
 388              	.LBE225:
 389              	.LBE224:
 158:D:/fchai/work/i-cube/I-CUBE-HUAWEI/Drivers/BSP/Components/lps22hh\lps22hh_reg.c ****   lps22hh_interrupt_cfg_t reg;
 390              		.loc 1 158 1 is_stmt 0 view .LVU91
 391 0006 0D46     		mov	r5, r1
 392              	.LBB227:
 393              	.LBB226:
  53:D:/fchai/work/i-cube/I-CUBE-HUAWEI/Drivers/BSP/Components/lps22hh\lps22hh_reg.c ****   return ret;
 394              		.loc 1 53 9 view .LVU92
 395 0008 D0E90160 		ldrd	r6, r0, [r0, #4]
 396              	.LVL26:
  53:D:/fchai/work/i-cube/I-CUBE-HUAWEI/Drivers/BSP/Components/lps22hh\lps22hh_reg.c ****   return ret;
 397              		.loc 1 53 9 view .LVU93
 398 000c 01AA     		add	r2, sp, #4
 399              	.LVL27:
  53:D:/fchai/work/i-cube/I-CUBE-HUAWEI/Drivers/BSP/Components/lps22hh\lps22hh_reg.c ****   return ret;
 400              		.loc 1 53 9 view .LVU94
 401 000e 0123     		movs	r3, #1
 402 0010 0B21     		movs	r1, #11
 403              	.LVL28:
  53:D:/fchai/work/i-cube/I-CUBE-HUAWEI/Drivers/BSP/Components/lps22hh\lps22hh_reg.c ****   return ret;
 404              		.loc 1 53 9 view .LVU95
 405 0012 B047     		blx	r6
 406              	.LVL29:
  54:D:/fchai/work/i-cube/I-CUBE-HUAWEI/Drivers/BSP/Components/lps22hh\lps22hh_reg.c **** }
 407              		.loc 1 54 3 is_stmt 1 view .LVU96
  54:D:/fchai/work/i-cube/I-CUBE-HUAWEI/Drivers/BSP/Components/lps22hh\lps22hh_reg.c **** }
 408              		.loc 1 54 3 is_stmt 0 view .LVU97
 409              	.LBE226:
 410              	.LBE227:
 163:D:/fchai/work/i-cube/I-CUBE-HUAWEI/Drivers/BSP/Components/lps22hh\lps22hh_reg.c ****   if (ret == 0) {
 411              		.loc 1 163 3 is_stmt 1 view .LVU98
 412              		.loc 1 163 6 is_stmt 0 view .LVU99
 413 0014 58B9     		cbnz	r0, .L15
 164:D:/fchai/work/i-cube/I-CUBE-HUAWEI/Drivers/BSP/Components/lps22hh\lps22hh_reg.c ****     reg.autozero = val;
 414              		.loc 1 164 5 is_stmt 1 view .LVU100
 415              		.loc 1 164 18 is_stmt 0 view .LVU101
 416 0016 9DF80430 		ldrb	r3, [sp, #4]	@ zero_extendqisi2
 417              	.LBB228:
 418              	.LBB229:
  71:D:/fchai/work/i-cube/I-CUBE-HUAWEI/Drivers/BSP/Components/lps22hh\lps22hh_reg.c ****   return ret;
 419              		.loc 1 71 9 view .LVU102
 420 001a 2668     		ldr	r6, [r4]
 421 001c A068     		ldr	r0, [r4, #8]
 422              	.LVL30:
  71:D:/fchai/work/i-cube/I-CUBE-HUAWEI/Drivers/BSP/Components/lps22hh\lps22hh_reg.c ****   return ret;
 423              		.loc 1 71 9 view .LVU103
ARM GAS  T:\msys\tmp\ccdfMMY7.s 			page 12


 424              	.LBE229:
 425              	.LBE228:
 426              		.loc 1 164 18 view .LVU104
 427 001e 65F34513 		bfi	r3, r5, #5, #1
 428 0022 8DF80430 		strb	r3, [sp, #4]
 165:D:/fchai/work/i-cube/I-CUBE-HUAWEI/Drivers/BSP/Components/lps22hh\lps22hh_reg.c ****     ret = lps22hh_write_reg(ctx, LPS22HH_INTERRUPT_CFG, (uint8_t*) &reg, 1);
 429              		.loc 1 165 5 is_stmt 1 view .LVU105
 430              	.LVL31:
 431              	.LBB231:
 432              	.LBI228:
  67:D:/fchai/work/i-cube/I-CUBE-HUAWEI/Drivers/BSP/Components/lps22hh\lps22hh_reg.c ****                            uint16_t len)
 433              		.loc 1 67 9 view .LVU106
 434              	.LBB230:
  70:D:/fchai/work/i-cube/I-CUBE-HUAWEI/Drivers/BSP/Components/lps22hh\lps22hh_reg.c ****   ret = ctx->write_reg(ctx->handle, reg, data, len);
 435              		.loc 1 70 3 view .LVU107
  71:D:/fchai/work/i-cube/I-CUBE-HUAWEI/Drivers/BSP/Components/lps22hh\lps22hh_reg.c ****   return ret;
 436              		.loc 1 71 3 view .LVU108
  71:D:/fchai/work/i-cube/I-CUBE-HUAWEI/Drivers/BSP/Components/lps22hh\lps22hh_reg.c ****   return ret;
 437              		.loc 1 71 9 is_stmt 0 view .LVU109
 438 0026 01AA     		add	r2, sp, #4
 439              	.LVL32:
  71:D:/fchai/work/i-cube/I-CUBE-HUAWEI/Drivers/BSP/Components/lps22hh\lps22hh_reg.c ****   return ret;
 440              		.loc 1 71 9 view .LVU110
 441 0028 0123     		movs	r3, #1
 442 002a 0B21     		movs	r1, #11
 443 002c B047     		blx	r6
 444              	.LVL33:
  72:D:/fchai/work/i-cube/I-CUBE-HUAWEI/Drivers/BSP/Components/lps22hh\lps22hh_reg.c **** }
 445              		.loc 1 72 3 is_stmt 1 view .LVU111
  72:D:/fchai/work/i-cube/I-CUBE-HUAWEI/Drivers/BSP/Components/lps22hh\lps22hh_reg.c **** }
 446              		.loc 1 72 3 is_stmt 0 view .LVU112
 447              	.LBE230:
 448              	.LBE231:
 166:D:/fchai/work/i-cube/I-CUBE-HUAWEI/Drivers/BSP/Components/lps22hh\lps22hh_reg.c ****   }
 167:D:/fchai/work/i-cube/I-CUBE-HUAWEI/Drivers/BSP/Components/lps22hh\lps22hh_reg.c ****   return ret;
 449              		.loc 1 167 3 is_stmt 1 view .LVU113
 450              	.L15:
 168:D:/fchai/work/i-cube/I-CUBE-HUAWEI/Drivers/BSP/Components/lps22hh\lps22hh_reg.c **** }
 451              		.loc 1 168 1 is_stmt 0 view .LVU114
 452 002e 02B0     		add	sp, sp, #8
 453              	.LCFI12:
 454              		.cfi_def_cfa_offset 16
 455              		@ sp needed
 456 0030 70BD     		pop	{r4, r5, r6, pc}
 457              		.loc 1 168 1 view .LVU115
 458              		.cfi_endproc
 459              	.LFE6:
 461 0032 00BF     		.section	.text.lps22hh_autozero_get,"ax",%progbits
 462              		.align	1
 463              		.p2align 2,,3
 464              		.global	lps22hh_autozero_get
 465              		.syntax unified
 466              		.thumb
 467              		.thumb_func
 468              		.fpu fpv4-sp-d16
 470              	lps22hh_autozero_get:
 471              	.LVL34:
ARM GAS  T:\msys\tmp\ccdfMMY7.s 			page 13


 472              	.LFB7:
 169:D:/fchai/work/i-cube/I-CUBE-HUAWEI/Drivers/BSP/Components/lps22hh\lps22hh_reg.c **** 
 170:D:/fchai/work/i-cube/I-CUBE-HUAWEI/Drivers/BSP/Components/lps22hh\lps22hh_reg.c **** /**
 171:D:/fchai/work/i-cube/I-CUBE-HUAWEI/Drivers/BSP/Components/lps22hh\lps22hh_reg.c ****   * @brief  Enable Autozero function.[get]
 172:D:/fchai/work/i-cube/I-CUBE-HUAWEI/Drivers/BSP/Components/lps22hh\lps22hh_reg.c ****   *
 173:D:/fchai/work/i-cube/I-CUBE-HUAWEI/Drivers/BSP/Components/lps22hh\lps22hh_reg.c ****   * @param  ctx      read / write interface definitions
 174:D:/fchai/work/i-cube/I-CUBE-HUAWEI/Drivers/BSP/Components/lps22hh\lps22hh_reg.c ****   * @param  val      change the values of autozero in reg INTERRUPT_CFG
 175:D:/fchai/work/i-cube/I-CUBE-HUAWEI/Drivers/BSP/Components/lps22hh\lps22hh_reg.c ****   * @retval          interface status (MANDATORY: return 0 -> no Error)
 176:D:/fchai/work/i-cube/I-CUBE-HUAWEI/Drivers/BSP/Components/lps22hh\lps22hh_reg.c ****   *
 177:D:/fchai/work/i-cube/I-CUBE-HUAWEI/Drivers/BSP/Components/lps22hh\lps22hh_reg.c ****   */
 178:D:/fchai/work/i-cube/I-CUBE-HUAWEI/Drivers/BSP/Components/lps22hh\lps22hh_reg.c **** int32_t lps22hh_autozero_get(stmdev_ctx_t *ctx, uint8_t *val)
 179:D:/fchai/work/i-cube/I-CUBE-HUAWEI/Drivers/BSP/Components/lps22hh\lps22hh_reg.c **** {
 473              		.loc 1 179 1 is_stmt 1 view -0
 474              		.cfi_startproc
 475              		@ args = 0, pretend = 0, frame = 8
 476              		@ frame_needed = 0, uses_anonymous_args = 0
 180:D:/fchai/work/i-cube/I-CUBE-HUAWEI/Drivers/BSP/Components/lps22hh\lps22hh_reg.c ****   lps22hh_interrupt_cfg_t reg;
 477              		.loc 1 180 3 view .LVU117
 181:D:/fchai/work/i-cube/I-CUBE-HUAWEI/Drivers/BSP/Components/lps22hh\lps22hh_reg.c ****   int32_t ret;
 478              		.loc 1 181 3 view .LVU118
 182:D:/fchai/work/i-cube/I-CUBE-HUAWEI/Drivers/BSP/Components/lps22hh\lps22hh_reg.c **** 
 183:D:/fchai/work/i-cube/I-CUBE-HUAWEI/Drivers/BSP/Components/lps22hh\lps22hh_reg.c ****   ret = lps22hh_read_reg(ctx, LPS22HH_INTERRUPT_CFG, (uint8_t*) &reg, 1);
 479              		.loc 1 183 3 view .LVU119
 179:D:/fchai/work/i-cube/I-CUBE-HUAWEI/Drivers/BSP/Components/lps22hh\lps22hh_reg.c ****   lps22hh_interrupt_cfg_t reg;
 480              		.loc 1 179 1 is_stmt 0 view .LVU120
 481 0000 30B5     		push	{r4, r5, lr}
 482              	.LCFI13:
 483              		.cfi_def_cfa_offset 12
 484              		.cfi_offset 4, -12
 485              		.cfi_offset 5, -8
 486              		.cfi_offset 14, -4
 487 0002 83B0     		sub	sp, sp, #12
 488              	.LCFI14:
 489              		.cfi_def_cfa_offset 24
 490              	.LVL35:
 491              	.LBB232:
 492              	.LBI232:
  49:D:/fchai/work/i-cube/I-CUBE-HUAWEI/Drivers/BSP/Components/lps22hh\lps22hh_reg.c ****                          uint16_t len)
 493              		.loc 1 49 9 is_stmt 1 view .LVU121
 494              	.LBB233:
  52:D:/fchai/work/i-cube/I-CUBE-HUAWEI/Drivers/BSP/Components/lps22hh\lps22hh_reg.c ****   ret = ctx->read_reg(ctx->handle, reg, data, len);
 495              		.loc 1 52 3 view .LVU122
  53:D:/fchai/work/i-cube/I-CUBE-HUAWEI/Drivers/BSP/Components/lps22hh\lps22hh_reg.c ****   return ret;
 496              		.loc 1 53 3 view .LVU123
 497              	.LBE233:
 498              	.LBE232:
 179:D:/fchai/work/i-cube/I-CUBE-HUAWEI/Drivers/BSP/Components/lps22hh\lps22hh_reg.c ****   lps22hh_interrupt_cfg_t reg;
 499              		.loc 1 179 1 is_stmt 0 view .LVU124
 500 0004 0C46     		mov	r4, r1
 501              	.LBB235:
 502              	.LBB234:
  53:D:/fchai/work/i-cube/I-CUBE-HUAWEI/Drivers/BSP/Components/lps22hh\lps22hh_reg.c ****   return ret;
 503              		.loc 1 53 9 view .LVU125
 504 0006 D0E90150 		ldrd	r5, r0, [r0, #4]
 505              	.LVL36:
  53:D:/fchai/work/i-cube/I-CUBE-HUAWEI/Drivers/BSP/Components/lps22hh\lps22hh_reg.c ****   return ret;
 506              		.loc 1 53 9 view .LVU126
ARM GAS  T:\msys\tmp\ccdfMMY7.s 			page 14


 507 000a 0123     		movs	r3, #1
 508 000c 01AA     		add	r2, sp, #4
 509              	.LVL37:
  53:D:/fchai/work/i-cube/I-CUBE-HUAWEI/Drivers/BSP/Components/lps22hh\lps22hh_reg.c ****   return ret;
 510              		.loc 1 53 9 view .LVU127
 511 000e 0B21     		movs	r1, #11
 512              	.LVL38:
  53:D:/fchai/work/i-cube/I-CUBE-HUAWEI/Drivers/BSP/Components/lps22hh\lps22hh_reg.c ****   return ret;
 513              		.loc 1 53 9 view .LVU128
 514 0010 A847     		blx	r5
 515              	.LVL39:
  54:D:/fchai/work/i-cube/I-CUBE-HUAWEI/Drivers/BSP/Components/lps22hh\lps22hh_reg.c **** }
 516              		.loc 1 54 3 is_stmt 1 view .LVU129
  54:D:/fchai/work/i-cube/I-CUBE-HUAWEI/Drivers/BSP/Components/lps22hh\lps22hh_reg.c **** }
 517              		.loc 1 54 3 is_stmt 0 view .LVU130
 518              	.LBE234:
 519              	.LBE235:
 184:D:/fchai/work/i-cube/I-CUBE-HUAWEI/Drivers/BSP/Components/lps22hh\lps22hh_reg.c ****   *val = reg.autozero;
 520              		.loc 1 184 3 is_stmt 1 view .LVU131
 521              		.loc 1 184 13 is_stmt 0 view .LVU132
 522 0012 9DF80430 		ldrb	r3, [sp, #4]	@ zero_extendqisi2
 523 0016 C3F34013 		ubfx	r3, r3, #5, #1
 524              		.loc 1 184 8 view .LVU133
 525 001a 2370     		strb	r3, [r4]
 185:D:/fchai/work/i-cube/I-CUBE-HUAWEI/Drivers/BSP/Components/lps22hh\lps22hh_reg.c **** 
 186:D:/fchai/work/i-cube/I-CUBE-HUAWEI/Drivers/BSP/Components/lps22hh\lps22hh_reg.c ****   return ret;
 526              		.loc 1 186 3 is_stmt 1 view .LVU134
 187:D:/fchai/work/i-cube/I-CUBE-HUAWEI/Drivers/BSP/Components/lps22hh\lps22hh_reg.c **** }
 527              		.loc 1 187 1 is_stmt 0 view .LVU135
 528 001c 03B0     		add	sp, sp, #12
 529              	.LCFI15:
 530              		.cfi_def_cfa_offset 12
 531              		@ sp needed
 532 001e 30BD     		pop	{r4, r5, pc}
 533              		.loc 1 187 1 view .LVU136
 534              		.cfi_endproc
 535              	.LFE7:
 537              		.section	.text.lps22hh_pressure_snap_rst_set,"ax",%progbits
 538              		.align	1
 539              		.p2align 2,,3
 540              		.global	lps22hh_pressure_snap_rst_set
 541              		.syntax unified
 542              		.thumb
 543              		.thumb_func
 544              		.fpu fpv4-sp-d16
 546              	lps22hh_pressure_snap_rst_set:
 547              	.LVL40:
 548              	.LFB8:
 188:D:/fchai/work/i-cube/I-CUBE-HUAWEI/Drivers/BSP/Components/lps22hh\lps22hh_reg.c **** 
 189:D:/fchai/work/i-cube/I-CUBE-HUAWEI/Drivers/BSP/Components/lps22hh\lps22hh_reg.c **** /**
 190:D:/fchai/work/i-cube/I-CUBE-HUAWEI/Drivers/BSP/Components/lps22hh\lps22hh_reg.c ****   * @brief  Reset AutoRifP function.[set]
 191:D:/fchai/work/i-cube/I-CUBE-HUAWEI/Drivers/BSP/Components/lps22hh\lps22hh_reg.c ****   *
 192:D:/fchai/work/i-cube/I-CUBE-HUAWEI/Drivers/BSP/Components/lps22hh\lps22hh_reg.c ****   * @param  ctx      read / write interface definitions
 193:D:/fchai/work/i-cube/I-CUBE-HUAWEI/Drivers/BSP/Components/lps22hh\lps22hh_reg.c ****   * @param  val      change the values of reset_arp in reg INTERRUPT_CFG
 194:D:/fchai/work/i-cube/I-CUBE-HUAWEI/Drivers/BSP/Components/lps22hh\lps22hh_reg.c ****   * @retval          interface status (MANDATORY: return 0 -> no Error)
 195:D:/fchai/work/i-cube/I-CUBE-HUAWEI/Drivers/BSP/Components/lps22hh\lps22hh_reg.c ****   *
 196:D:/fchai/work/i-cube/I-CUBE-HUAWEI/Drivers/BSP/Components/lps22hh\lps22hh_reg.c ****   */
ARM GAS  T:\msys\tmp\ccdfMMY7.s 			page 15


 197:D:/fchai/work/i-cube/I-CUBE-HUAWEI/Drivers/BSP/Components/lps22hh\lps22hh_reg.c **** int32_t lps22hh_pressure_snap_rst_set(stmdev_ctx_t *ctx, uint8_t val)
 198:D:/fchai/work/i-cube/I-CUBE-HUAWEI/Drivers/BSP/Components/lps22hh\lps22hh_reg.c **** {
 549              		.loc 1 198 1 is_stmt 1 view -0
 550              		.cfi_startproc
 551              		@ args = 0, pretend = 0, frame = 8
 552              		@ frame_needed = 0, uses_anonymous_args = 0
 199:D:/fchai/work/i-cube/I-CUBE-HUAWEI/Drivers/BSP/Components/lps22hh\lps22hh_reg.c ****   lps22hh_interrupt_cfg_t reg;
 553              		.loc 1 199 3 view .LVU138
 200:D:/fchai/work/i-cube/I-CUBE-HUAWEI/Drivers/BSP/Components/lps22hh\lps22hh_reg.c ****   int32_t ret;
 554              		.loc 1 200 3 view .LVU139
 201:D:/fchai/work/i-cube/I-CUBE-HUAWEI/Drivers/BSP/Components/lps22hh\lps22hh_reg.c **** 
 202:D:/fchai/work/i-cube/I-CUBE-HUAWEI/Drivers/BSP/Components/lps22hh\lps22hh_reg.c ****   ret = lps22hh_read_reg(ctx, LPS22HH_INTERRUPT_CFG, (uint8_t*) &reg, 1);
 555              		.loc 1 202 3 view .LVU140
 198:D:/fchai/work/i-cube/I-CUBE-HUAWEI/Drivers/BSP/Components/lps22hh\lps22hh_reg.c ****   lps22hh_interrupt_cfg_t reg;
 556              		.loc 1 198 1 is_stmt 0 view .LVU141
 557 0000 70B5     		push	{r4, r5, r6, lr}
 558              	.LCFI16:
 559              		.cfi_def_cfa_offset 16
 560              		.cfi_offset 4, -16
 561              		.cfi_offset 5, -12
 562              		.cfi_offset 6, -8
 563              		.cfi_offset 14, -4
 564 0002 82B0     		sub	sp, sp, #8
 565              	.LCFI17:
 566              		.cfi_def_cfa_offset 24
 198:D:/fchai/work/i-cube/I-CUBE-HUAWEI/Drivers/BSP/Components/lps22hh\lps22hh_reg.c ****   lps22hh_interrupt_cfg_t reg;
 567              		.loc 1 198 1 view .LVU142
 568 0004 0446     		mov	r4, r0
 569              	.LVL41:
 570              	.LBB236:
 571              	.LBI236:
  49:D:/fchai/work/i-cube/I-CUBE-HUAWEI/Drivers/BSP/Components/lps22hh\lps22hh_reg.c ****                          uint16_t len)
 572              		.loc 1 49 9 is_stmt 1 view .LVU143
 573              	.LBB237:
  52:D:/fchai/work/i-cube/I-CUBE-HUAWEI/Drivers/BSP/Components/lps22hh\lps22hh_reg.c ****   ret = ctx->read_reg(ctx->handle, reg, data, len);
 574              		.loc 1 52 3 view .LVU144
  53:D:/fchai/work/i-cube/I-CUBE-HUAWEI/Drivers/BSP/Components/lps22hh\lps22hh_reg.c ****   return ret;
 575              		.loc 1 53 3 view .LVU145
 576              	.LBE237:
 577              	.LBE236:
 198:D:/fchai/work/i-cube/I-CUBE-HUAWEI/Drivers/BSP/Components/lps22hh\lps22hh_reg.c ****   lps22hh_interrupt_cfg_t reg;
 578              		.loc 1 198 1 is_stmt 0 view .LVU146
 579 0006 0D46     		mov	r5, r1
 580              	.LBB239:
 581              	.LBB238:
  53:D:/fchai/work/i-cube/I-CUBE-HUAWEI/Drivers/BSP/Components/lps22hh\lps22hh_reg.c ****   return ret;
 582              		.loc 1 53 9 view .LVU147
 583 0008 D0E90160 		ldrd	r6, r0, [r0, #4]
 584              	.LVL42:
  53:D:/fchai/work/i-cube/I-CUBE-HUAWEI/Drivers/BSP/Components/lps22hh\lps22hh_reg.c ****   return ret;
 585              		.loc 1 53 9 view .LVU148
 586 000c 01AA     		add	r2, sp, #4
 587              	.LVL43:
  53:D:/fchai/work/i-cube/I-CUBE-HUAWEI/Drivers/BSP/Components/lps22hh\lps22hh_reg.c ****   return ret;
 588              		.loc 1 53 9 view .LVU149
 589 000e 0123     		movs	r3, #1
 590 0010 0B21     		movs	r1, #11
ARM GAS  T:\msys\tmp\ccdfMMY7.s 			page 16


 591              	.LVL44:
  53:D:/fchai/work/i-cube/I-CUBE-HUAWEI/Drivers/BSP/Components/lps22hh\lps22hh_reg.c ****   return ret;
 592              		.loc 1 53 9 view .LVU150
 593 0012 B047     		blx	r6
 594              	.LVL45:
  54:D:/fchai/work/i-cube/I-CUBE-HUAWEI/Drivers/BSP/Components/lps22hh\lps22hh_reg.c **** }
 595              		.loc 1 54 3 is_stmt 1 view .LVU151
  54:D:/fchai/work/i-cube/I-CUBE-HUAWEI/Drivers/BSP/Components/lps22hh\lps22hh_reg.c **** }
 596              		.loc 1 54 3 is_stmt 0 view .LVU152
 597              	.LBE238:
 598              	.LBE239:
 203:D:/fchai/work/i-cube/I-CUBE-HUAWEI/Drivers/BSP/Components/lps22hh\lps22hh_reg.c ****   if (ret == 0) {
 599              		.loc 1 203 3 is_stmt 1 view .LVU153
 600              		.loc 1 203 6 is_stmt 0 view .LVU154
 601 0014 58B9     		cbnz	r0, .L20
 204:D:/fchai/work/i-cube/I-CUBE-HUAWEI/Drivers/BSP/Components/lps22hh\lps22hh_reg.c ****     reg.reset_arp = val;
 602              		.loc 1 204 5 is_stmt 1 view .LVU155
 603              		.loc 1 204 19 is_stmt 0 view .LVU156
 604 0016 9DF80430 		ldrb	r3, [sp, #4]	@ zero_extendqisi2
 605              	.LBB240:
 606              	.LBB241:
  71:D:/fchai/work/i-cube/I-CUBE-HUAWEI/Drivers/BSP/Components/lps22hh\lps22hh_reg.c ****   return ret;
 607              		.loc 1 71 9 view .LVU157
 608 001a 2668     		ldr	r6, [r4]
 609 001c A068     		ldr	r0, [r4, #8]
 610              	.LVL46:
  71:D:/fchai/work/i-cube/I-CUBE-HUAWEI/Drivers/BSP/Components/lps22hh\lps22hh_reg.c ****   return ret;
 611              		.loc 1 71 9 view .LVU158
 612              	.LBE241:
 613              	.LBE240:
 614              		.loc 1 204 19 view .LVU159
 615 001e 65F38613 		bfi	r3, r5, #6, #1
 616 0022 8DF80430 		strb	r3, [sp, #4]
 205:D:/fchai/work/i-cube/I-CUBE-HUAWEI/Drivers/BSP/Components/lps22hh\lps22hh_reg.c ****     ret = lps22hh_write_reg(ctx, LPS22HH_INTERRUPT_CFG, (uint8_t*) &reg, 1);
 617              		.loc 1 205 5 is_stmt 1 view .LVU160
 618              	.LVL47:
 619              	.LBB243:
 620              	.LBI240:
  67:D:/fchai/work/i-cube/I-CUBE-HUAWEI/Drivers/BSP/Components/lps22hh\lps22hh_reg.c ****                            uint16_t len)
 621              		.loc 1 67 9 view .LVU161
 622              	.LBB242:
  70:D:/fchai/work/i-cube/I-CUBE-HUAWEI/Drivers/BSP/Components/lps22hh\lps22hh_reg.c ****   ret = ctx->write_reg(ctx->handle, reg, data, len);
 623              		.loc 1 70 3 view .LVU162
  71:D:/fchai/work/i-cube/I-CUBE-HUAWEI/Drivers/BSP/Components/lps22hh\lps22hh_reg.c ****   return ret;
 624              		.loc 1 71 3 view .LVU163
  71:D:/fchai/work/i-cube/I-CUBE-HUAWEI/Drivers/BSP/Components/lps22hh\lps22hh_reg.c ****   return ret;
 625              		.loc 1 71 9 is_stmt 0 view .LVU164
 626 0026 01AA     		add	r2, sp, #4
 627              	.LVL48:
  71:D:/fchai/work/i-cube/I-CUBE-HUAWEI/Drivers/BSP/Components/lps22hh\lps22hh_reg.c ****   return ret;
 628              		.loc 1 71 9 view .LVU165
 629 0028 0123     		movs	r3, #1
 630 002a 0B21     		movs	r1, #11
 631 002c B047     		blx	r6
 632              	.LVL49:
  72:D:/fchai/work/i-cube/I-CUBE-HUAWEI/Drivers/BSP/Components/lps22hh\lps22hh_reg.c **** }
 633              		.loc 1 72 3 is_stmt 1 view .LVU166
ARM GAS  T:\msys\tmp\ccdfMMY7.s 			page 17


  72:D:/fchai/work/i-cube/I-CUBE-HUAWEI/Drivers/BSP/Components/lps22hh\lps22hh_reg.c **** }
 634              		.loc 1 72 3 is_stmt 0 view .LVU167
 635              	.LBE242:
 636              	.LBE243:
 206:D:/fchai/work/i-cube/I-CUBE-HUAWEI/Drivers/BSP/Components/lps22hh\lps22hh_reg.c ****   }
 207:D:/fchai/work/i-cube/I-CUBE-HUAWEI/Drivers/BSP/Components/lps22hh\lps22hh_reg.c ****   return ret;
 637              		.loc 1 207 3 is_stmt 1 view .LVU168
 638              	.L20:
 208:D:/fchai/work/i-cube/I-CUBE-HUAWEI/Drivers/BSP/Components/lps22hh\lps22hh_reg.c **** }
 639              		.loc 1 208 1 is_stmt 0 view .LVU169
 640 002e 02B0     		add	sp, sp, #8
 641              	.LCFI18:
 642              		.cfi_def_cfa_offset 16
 643              		@ sp needed
 644 0030 70BD     		pop	{r4, r5, r6, pc}
 645              		.loc 1 208 1 view .LVU170
 646              		.cfi_endproc
 647              	.LFE8:
 649 0032 00BF     		.section	.text.lps22hh_pressure_snap_rst_get,"ax",%progbits
 650              		.align	1
 651              		.p2align 2,,3
 652              		.global	lps22hh_pressure_snap_rst_get
 653              		.syntax unified
 654              		.thumb
 655              		.thumb_func
 656              		.fpu fpv4-sp-d16
 658              	lps22hh_pressure_snap_rst_get:
 659              	.LVL50:
 660              	.LFB9:
 209:D:/fchai/work/i-cube/I-CUBE-HUAWEI/Drivers/BSP/Components/lps22hh\lps22hh_reg.c **** 
 210:D:/fchai/work/i-cube/I-CUBE-HUAWEI/Drivers/BSP/Components/lps22hh\lps22hh_reg.c **** /**
 211:D:/fchai/work/i-cube/I-CUBE-HUAWEI/Drivers/BSP/Components/lps22hh\lps22hh_reg.c ****   * @brief  Reset AutoRifP function.[get]
 212:D:/fchai/work/i-cube/I-CUBE-HUAWEI/Drivers/BSP/Components/lps22hh\lps22hh_reg.c ****   *
 213:D:/fchai/work/i-cube/I-CUBE-HUAWEI/Drivers/BSP/Components/lps22hh\lps22hh_reg.c ****   * @param  ctx      read / write interface definitions
 214:D:/fchai/work/i-cube/I-CUBE-HUAWEI/Drivers/BSP/Components/lps22hh\lps22hh_reg.c ****   * @param  val      change the values of reset_arp in reg INTERRUPT_CFG
 215:D:/fchai/work/i-cube/I-CUBE-HUAWEI/Drivers/BSP/Components/lps22hh\lps22hh_reg.c ****   * @retval          interface status (MANDATORY: return 0 -> no Error)
 216:D:/fchai/work/i-cube/I-CUBE-HUAWEI/Drivers/BSP/Components/lps22hh\lps22hh_reg.c ****   *
 217:D:/fchai/work/i-cube/I-CUBE-HUAWEI/Drivers/BSP/Components/lps22hh\lps22hh_reg.c ****   */
 218:D:/fchai/work/i-cube/I-CUBE-HUAWEI/Drivers/BSP/Components/lps22hh\lps22hh_reg.c **** int32_t lps22hh_pressure_snap_rst_get(stmdev_ctx_t *ctx, uint8_t *val)
 219:D:/fchai/work/i-cube/I-CUBE-HUAWEI/Drivers/BSP/Components/lps22hh\lps22hh_reg.c **** {
 661              		.loc 1 219 1 is_stmt 1 view -0
 662              		.cfi_startproc
 663              		@ args = 0, pretend = 0, frame = 8
 664              		@ frame_needed = 0, uses_anonymous_args = 0
 220:D:/fchai/work/i-cube/I-CUBE-HUAWEI/Drivers/BSP/Components/lps22hh\lps22hh_reg.c ****   lps22hh_interrupt_cfg_t reg;
 665              		.loc 1 220 3 view .LVU172
 221:D:/fchai/work/i-cube/I-CUBE-HUAWEI/Drivers/BSP/Components/lps22hh\lps22hh_reg.c ****   int32_t ret;
 666              		.loc 1 221 3 view .LVU173
 222:D:/fchai/work/i-cube/I-CUBE-HUAWEI/Drivers/BSP/Components/lps22hh\lps22hh_reg.c **** 
 223:D:/fchai/work/i-cube/I-CUBE-HUAWEI/Drivers/BSP/Components/lps22hh\lps22hh_reg.c ****   ret = lps22hh_read_reg(ctx, LPS22HH_INTERRUPT_CFG, (uint8_t*) &reg, 1);
 667              		.loc 1 223 3 view .LVU174
 219:D:/fchai/work/i-cube/I-CUBE-HUAWEI/Drivers/BSP/Components/lps22hh\lps22hh_reg.c ****   lps22hh_interrupt_cfg_t reg;
 668              		.loc 1 219 1 is_stmt 0 view .LVU175
 669 0000 30B5     		push	{r4, r5, lr}
 670              	.LCFI19:
 671              		.cfi_def_cfa_offset 12
 672              		.cfi_offset 4, -12
ARM GAS  T:\msys\tmp\ccdfMMY7.s 			page 18


 673              		.cfi_offset 5, -8
 674              		.cfi_offset 14, -4
 675 0002 83B0     		sub	sp, sp, #12
 676              	.LCFI20:
 677              		.cfi_def_cfa_offset 24
 678              	.LVL51:
 679              	.LBB244:
 680              	.LBI244:
  49:D:/fchai/work/i-cube/I-CUBE-HUAWEI/Drivers/BSP/Components/lps22hh\lps22hh_reg.c ****                          uint16_t len)
 681              		.loc 1 49 9 is_stmt 1 view .LVU176
 682              	.LBB245:
  52:D:/fchai/work/i-cube/I-CUBE-HUAWEI/Drivers/BSP/Components/lps22hh\lps22hh_reg.c ****   ret = ctx->read_reg(ctx->handle, reg, data, len);
 683              		.loc 1 52 3 view .LVU177
  53:D:/fchai/work/i-cube/I-CUBE-HUAWEI/Drivers/BSP/Components/lps22hh\lps22hh_reg.c ****   return ret;
 684              		.loc 1 53 3 view .LVU178
 685              	.LBE245:
 686              	.LBE244:
 219:D:/fchai/work/i-cube/I-CUBE-HUAWEI/Drivers/BSP/Components/lps22hh\lps22hh_reg.c ****   lps22hh_interrupt_cfg_t reg;
 687              		.loc 1 219 1 is_stmt 0 view .LVU179
 688 0004 0C46     		mov	r4, r1
 689              	.LBB247:
 690              	.LBB246:
  53:D:/fchai/work/i-cube/I-CUBE-HUAWEI/Drivers/BSP/Components/lps22hh\lps22hh_reg.c ****   return ret;
 691              		.loc 1 53 9 view .LVU180
 692 0006 D0E90150 		ldrd	r5, r0, [r0, #4]
 693              	.LVL52:
  53:D:/fchai/work/i-cube/I-CUBE-HUAWEI/Drivers/BSP/Components/lps22hh\lps22hh_reg.c ****   return ret;
 694              		.loc 1 53 9 view .LVU181
 695 000a 0123     		movs	r3, #1
 696 000c 01AA     		add	r2, sp, #4
 697              	.LVL53:
  53:D:/fchai/work/i-cube/I-CUBE-HUAWEI/Drivers/BSP/Components/lps22hh\lps22hh_reg.c ****   return ret;
 698              		.loc 1 53 9 view .LVU182
 699 000e 0B21     		movs	r1, #11
 700              	.LVL54:
  53:D:/fchai/work/i-cube/I-CUBE-HUAWEI/Drivers/BSP/Components/lps22hh\lps22hh_reg.c ****   return ret;
 701              		.loc 1 53 9 view .LVU183
 702 0010 A847     		blx	r5
 703              	.LVL55:
  54:D:/fchai/work/i-cube/I-CUBE-HUAWEI/Drivers/BSP/Components/lps22hh\lps22hh_reg.c **** }
 704              		.loc 1 54 3 is_stmt 1 view .LVU184
  54:D:/fchai/work/i-cube/I-CUBE-HUAWEI/Drivers/BSP/Components/lps22hh\lps22hh_reg.c **** }
 705              		.loc 1 54 3 is_stmt 0 view .LVU185
 706              	.LBE246:
 707              	.LBE247:
 224:D:/fchai/work/i-cube/I-CUBE-HUAWEI/Drivers/BSP/Components/lps22hh\lps22hh_reg.c ****   *val = reg.reset_arp;
 708              		.loc 1 224 3 is_stmt 1 view .LVU186
 709              		.loc 1 224 13 is_stmt 0 view .LVU187
 710 0012 9DF80430 		ldrb	r3, [sp, #4]	@ zero_extendqisi2
 711 0016 C3F38013 		ubfx	r3, r3, #6, #1
 712              		.loc 1 224 8 view .LVU188
 713 001a 2370     		strb	r3, [r4]
 225:D:/fchai/work/i-cube/I-CUBE-HUAWEI/Drivers/BSP/Components/lps22hh\lps22hh_reg.c **** 
 226:D:/fchai/work/i-cube/I-CUBE-HUAWEI/Drivers/BSP/Components/lps22hh\lps22hh_reg.c ****   return ret;
 714              		.loc 1 226 3 is_stmt 1 view .LVU189
 227:D:/fchai/work/i-cube/I-CUBE-HUAWEI/Drivers/BSP/Components/lps22hh\lps22hh_reg.c **** }
 715              		.loc 1 227 1 is_stmt 0 view .LVU190
ARM GAS  T:\msys\tmp\ccdfMMY7.s 			page 19


 716 001c 03B0     		add	sp, sp, #12
 717              	.LCFI21:
 718              		.cfi_def_cfa_offset 12
 719              		@ sp needed
 720 001e 30BD     		pop	{r4, r5, pc}
 721              		.loc 1 227 1 view .LVU191
 722              		.cfi_endproc
 723              	.LFE9:
 725              		.section	.text.lps22hh_pressure_snap_set,"ax",%progbits
 726              		.align	1
 727              		.p2align 2,,3
 728              		.global	lps22hh_pressure_snap_set
 729              		.syntax unified
 730              		.thumb
 731              		.thumb_func
 732              		.fpu fpv4-sp-d16
 734              	lps22hh_pressure_snap_set:
 735              	.LVL56:
 736              	.LFB10:
 228:D:/fchai/work/i-cube/I-CUBE-HUAWEI/Drivers/BSP/Components/lps22hh\lps22hh_reg.c **** 
 229:D:/fchai/work/i-cube/I-CUBE-HUAWEI/Drivers/BSP/Components/lps22hh\lps22hh_reg.c **** /**
 230:D:/fchai/work/i-cube/I-CUBE-HUAWEI/Drivers/BSP/Components/lps22hh\lps22hh_reg.c ****   * @brief  Enable AutoRefP function.[set]
 231:D:/fchai/work/i-cube/I-CUBE-HUAWEI/Drivers/BSP/Components/lps22hh\lps22hh_reg.c ****   *
 232:D:/fchai/work/i-cube/I-CUBE-HUAWEI/Drivers/BSP/Components/lps22hh\lps22hh_reg.c ****   * @param  ctx      read / write interface definitions
 233:D:/fchai/work/i-cube/I-CUBE-HUAWEI/Drivers/BSP/Components/lps22hh\lps22hh_reg.c ****   * @param  val      change the values of autorefp in reg INTERRUPT_CFG
 234:D:/fchai/work/i-cube/I-CUBE-HUAWEI/Drivers/BSP/Components/lps22hh\lps22hh_reg.c ****   * @retval          interface status (MANDATORY: return 0 -> no Error)
 235:D:/fchai/work/i-cube/I-CUBE-HUAWEI/Drivers/BSP/Components/lps22hh\lps22hh_reg.c ****   *
 236:D:/fchai/work/i-cube/I-CUBE-HUAWEI/Drivers/BSP/Components/lps22hh\lps22hh_reg.c ****   */
 237:D:/fchai/work/i-cube/I-CUBE-HUAWEI/Drivers/BSP/Components/lps22hh\lps22hh_reg.c **** int32_t lps22hh_pressure_snap_set(stmdev_ctx_t *ctx, uint8_t val)
 238:D:/fchai/work/i-cube/I-CUBE-HUAWEI/Drivers/BSP/Components/lps22hh\lps22hh_reg.c **** {
 737              		.loc 1 238 1 is_stmt 1 view -0
 738              		.cfi_startproc
 739              		@ args = 0, pretend = 0, frame = 8
 740              		@ frame_needed = 0, uses_anonymous_args = 0
 239:D:/fchai/work/i-cube/I-CUBE-HUAWEI/Drivers/BSP/Components/lps22hh\lps22hh_reg.c ****   lps22hh_interrupt_cfg_t reg;
 741              		.loc 1 239 3 view .LVU193
 240:D:/fchai/work/i-cube/I-CUBE-HUAWEI/Drivers/BSP/Components/lps22hh\lps22hh_reg.c ****   int32_t ret;
 742              		.loc 1 240 3 view .LVU194
 241:D:/fchai/work/i-cube/I-CUBE-HUAWEI/Drivers/BSP/Components/lps22hh\lps22hh_reg.c **** 
 242:D:/fchai/work/i-cube/I-CUBE-HUAWEI/Drivers/BSP/Components/lps22hh\lps22hh_reg.c ****   ret = lps22hh_read_reg(ctx, LPS22HH_INTERRUPT_CFG, (uint8_t*) &reg, 1);
 743              		.loc 1 242 3 view .LVU195
 238:D:/fchai/work/i-cube/I-CUBE-HUAWEI/Drivers/BSP/Components/lps22hh\lps22hh_reg.c ****   lps22hh_interrupt_cfg_t reg;
 744              		.loc 1 238 1 is_stmt 0 view .LVU196
 745 0000 70B5     		push	{r4, r5, r6, lr}
 746              	.LCFI22:
 747              		.cfi_def_cfa_offset 16
 748              		.cfi_offset 4, -16
 749              		.cfi_offset 5, -12
 750              		.cfi_offset 6, -8
 751              		.cfi_offset 14, -4
 752 0002 82B0     		sub	sp, sp, #8
 753              	.LCFI23:
 754              		.cfi_def_cfa_offset 24
 238:D:/fchai/work/i-cube/I-CUBE-HUAWEI/Drivers/BSP/Components/lps22hh\lps22hh_reg.c ****   lps22hh_interrupt_cfg_t reg;
 755              		.loc 1 238 1 view .LVU197
 756 0004 0446     		mov	r4, r0
 757              	.LVL57:
ARM GAS  T:\msys\tmp\ccdfMMY7.s 			page 20


 758              	.LBB248:
 759              	.LBI248:
  49:D:/fchai/work/i-cube/I-CUBE-HUAWEI/Drivers/BSP/Components/lps22hh\lps22hh_reg.c ****                          uint16_t len)
 760              		.loc 1 49 9 is_stmt 1 view .LVU198
 761              	.LBB249:
  52:D:/fchai/work/i-cube/I-CUBE-HUAWEI/Drivers/BSP/Components/lps22hh\lps22hh_reg.c ****   ret = ctx->read_reg(ctx->handle, reg, data, len);
 762              		.loc 1 52 3 view .LVU199
  53:D:/fchai/work/i-cube/I-CUBE-HUAWEI/Drivers/BSP/Components/lps22hh\lps22hh_reg.c ****   return ret;
 763              		.loc 1 53 3 view .LVU200
 764              	.LBE249:
 765              	.LBE248:
 238:D:/fchai/work/i-cube/I-CUBE-HUAWEI/Drivers/BSP/Components/lps22hh\lps22hh_reg.c ****   lps22hh_interrupt_cfg_t reg;
 766              		.loc 1 238 1 is_stmt 0 view .LVU201
 767 0006 0D46     		mov	r5, r1
 768              	.LBB251:
 769              	.LBB250:
  53:D:/fchai/work/i-cube/I-CUBE-HUAWEI/Drivers/BSP/Components/lps22hh\lps22hh_reg.c ****   return ret;
 770              		.loc 1 53 9 view .LVU202
 771 0008 D0E90160 		ldrd	r6, r0, [r0, #4]
 772              	.LVL58:
  53:D:/fchai/work/i-cube/I-CUBE-HUAWEI/Drivers/BSP/Components/lps22hh\lps22hh_reg.c ****   return ret;
 773              		.loc 1 53 9 view .LVU203
 774 000c 01AA     		add	r2, sp, #4
 775              	.LVL59:
  53:D:/fchai/work/i-cube/I-CUBE-HUAWEI/Drivers/BSP/Components/lps22hh\lps22hh_reg.c ****   return ret;
 776              		.loc 1 53 9 view .LVU204
 777 000e 0123     		movs	r3, #1
 778 0010 0B21     		movs	r1, #11
 779              	.LVL60:
  53:D:/fchai/work/i-cube/I-CUBE-HUAWEI/Drivers/BSP/Components/lps22hh\lps22hh_reg.c ****   return ret;
 780              		.loc 1 53 9 view .LVU205
 781 0012 B047     		blx	r6
 782              	.LVL61:
  54:D:/fchai/work/i-cube/I-CUBE-HUAWEI/Drivers/BSP/Components/lps22hh\lps22hh_reg.c **** }
 783              		.loc 1 54 3 is_stmt 1 view .LVU206
  54:D:/fchai/work/i-cube/I-CUBE-HUAWEI/Drivers/BSP/Components/lps22hh\lps22hh_reg.c **** }
 784              		.loc 1 54 3 is_stmt 0 view .LVU207
 785              	.LBE250:
 786              	.LBE251:
 243:D:/fchai/work/i-cube/I-CUBE-HUAWEI/Drivers/BSP/Components/lps22hh\lps22hh_reg.c ****   if (ret == 0) {
 787              		.loc 1 243 3 is_stmt 1 view .LVU208
 788              		.loc 1 243 6 is_stmt 0 view .LVU209
 789 0014 58B9     		cbnz	r0, .L25
 244:D:/fchai/work/i-cube/I-CUBE-HUAWEI/Drivers/BSP/Components/lps22hh\lps22hh_reg.c ****     reg.autorefp = val;
 790              		.loc 1 244 5 is_stmt 1 view .LVU210
 791              		.loc 1 244 18 is_stmt 0 view .LVU211
 792 0016 9DF80430 		ldrb	r3, [sp, #4]	@ zero_extendqisi2
 793              	.LBB252:
 794              	.LBB253:
  71:D:/fchai/work/i-cube/I-CUBE-HUAWEI/Drivers/BSP/Components/lps22hh\lps22hh_reg.c ****   return ret;
 795              		.loc 1 71 9 view .LVU212
 796 001a 2668     		ldr	r6, [r4]
 797 001c A068     		ldr	r0, [r4, #8]
 798              	.LVL62:
  71:D:/fchai/work/i-cube/I-CUBE-HUAWEI/Drivers/BSP/Components/lps22hh\lps22hh_reg.c ****   return ret;
 799              		.loc 1 71 9 view .LVU213
 800              	.LBE253:
ARM GAS  T:\msys\tmp\ccdfMMY7.s 			page 21


 801              	.LBE252:
 802              		.loc 1 244 18 view .LVU214
 803 001e 65F3C713 		bfi	r3, r5, #7, #1
 804 0022 8DF80430 		strb	r3, [sp, #4]
 245:D:/fchai/work/i-cube/I-CUBE-HUAWEI/Drivers/BSP/Components/lps22hh\lps22hh_reg.c ****     ret = lps22hh_write_reg(ctx, LPS22HH_INTERRUPT_CFG, (uint8_t*) &reg, 1);
 805              		.loc 1 245 5 is_stmt 1 view .LVU215
 806              	.LVL63:
 807              	.LBB255:
 808              	.LBI252:
  67:D:/fchai/work/i-cube/I-CUBE-HUAWEI/Drivers/BSP/Components/lps22hh\lps22hh_reg.c ****                            uint16_t len)
 809              		.loc 1 67 9 view .LVU216
 810              	.LBB254:
  70:D:/fchai/work/i-cube/I-CUBE-HUAWEI/Drivers/BSP/Components/lps22hh\lps22hh_reg.c ****   ret = ctx->write_reg(ctx->handle, reg, data, len);
 811              		.loc 1 70 3 view .LVU217
  71:D:/fchai/work/i-cube/I-CUBE-HUAWEI/Drivers/BSP/Components/lps22hh\lps22hh_reg.c ****   return ret;
 812              		.loc 1 71 3 view .LVU218
  71:D:/fchai/work/i-cube/I-CUBE-HUAWEI/Drivers/BSP/Components/lps22hh\lps22hh_reg.c ****   return ret;
 813              		.loc 1 71 9 is_stmt 0 view .LVU219
 814 0026 01AA     		add	r2, sp, #4
 815              	.LVL64:
  71:D:/fchai/work/i-cube/I-CUBE-HUAWEI/Drivers/BSP/Components/lps22hh\lps22hh_reg.c ****   return ret;
 816              		.loc 1 71 9 view .LVU220
 817 0028 0123     		movs	r3, #1
 818 002a 0B21     		movs	r1, #11
 819 002c B047     		blx	r6
 820              	.LVL65:
  72:D:/fchai/work/i-cube/I-CUBE-HUAWEI/Drivers/BSP/Components/lps22hh\lps22hh_reg.c **** }
 821              		.loc 1 72 3 is_stmt 1 view .LVU221
  72:D:/fchai/work/i-cube/I-CUBE-HUAWEI/Drivers/BSP/Components/lps22hh\lps22hh_reg.c **** }
 822              		.loc 1 72 3 is_stmt 0 view .LVU222
 823              	.LBE254:
 824              	.LBE255:
 246:D:/fchai/work/i-cube/I-CUBE-HUAWEI/Drivers/BSP/Components/lps22hh\lps22hh_reg.c ****   }
 247:D:/fchai/work/i-cube/I-CUBE-HUAWEI/Drivers/BSP/Components/lps22hh\lps22hh_reg.c ****   return ret;
 825              		.loc 1 247 3 is_stmt 1 view .LVU223
 826              	.L25:
 248:D:/fchai/work/i-cube/I-CUBE-HUAWEI/Drivers/BSP/Components/lps22hh\lps22hh_reg.c **** }
 827              		.loc 1 248 1 is_stmt 0 view .LVU224
 828 002e 02B0     		add	sp, sp, #8
 829              	.LCFI24:
 830              		.cfi_def_cfa_offset 16
 831              		@ sp needed
 832 0030 70BD     		pop	{r4, r5, r6, pc}
 833              		.loc 1 248 1 view .LVU225
 834              		.cfi_endproc
 835              	.LFE10:
 837 0032 00BF     		.section	.text.lps22hh_pressure_snap_get,"ax",%progbits
 838              		.align	1
 839              		.p2align 2,,3
 840              		.global	lps22hh_pressure_snap_get
 841              		.syntax unified
 842              		.thumb
 843              		.thumb_func
 844              		.fpu fpv4-sp-d16
 846              	lps22hh_pressure_snap_get:
 847              	.LVL66:
 848              	.LFB11:
ARM GAS  T:\msys\tmp\ccdfMMY7.s 			page 22


 249:D:/fchai/work/i-cube/I-CUBE-HUAWEI/Drivers/BSP/Components/lps22hh\lps22hh_reg.c **** 
 250:D:/fchai/work/i-cube/I-CUBE-HUAWEI/Drivers/BSP/Components/lps22hh\lps22hh_reg.c **** /**
 251:D:/fchai/work/i-cube/I-CUBE-HUAWEI/Drivers/BSP/Components/lps22hh\lps22hh_reg.c ****   * @brief  Enable AutoRefP function.[get]
 252:D:/fchai/work/i-cube/I-CUBE-HUAWEI/Drivers/BSP/Components/lps22hh\lps22hh_reg.c ****   *
 253:D:/fchai/work/i-cube/I-CUBE-HUAWEI/Drivers/BSP/Components/lps22hh\lps22hh_reg.c ****   * @param  ctx      read / write interface definitions
 254:D:/fchai/work/i-cube/I-CUBE-HUAWEI/Drivers/BSP/Components/lps22hh\lps22hh_reg.c ****   * @param  val      change the values of autorefp in reg INTERRUPT_CFG
 255:D:/fchai/work/i-cube/I-CUBE-HUAWEI/Drivers/BSP/Components/lps22hh\lps22hh_reg.c ****   * @retval          interface status (MANDATORY: return 0 -> no Error)
 256:D:/fchai/work/i-cube/I-CUBE-HUAWEI/Drivers/BSP/Components/lps22hh\lps22hh_reg.c ****   *
 257:D:/fchai/work/i-cube/I-CUBE-HUAWEI/Drivers/BSP/Components/lps22hh\lps22hh_reg.c ****   */
 258:D:/fchai/work/i-cube/I-CUBE-HUAWEI/Drivers/BSP/Components/lps22hh\lps22hh_reg.c **** int32_t lps22hh_pressure_snap_get(stmdev_ctx_t *ctx, uint8_t *val)
 259:D:/fchai/work/i-cube/I-CUBE-HUAWEI/Drivers/BSP/Components/lps22hh\lps22hh_reg.c **** {
 849              		.loc 1 259 1 is_stmt 1 view -0
 850              		.cfi_startproc
 851              		@ args = 0, pretend = 0, frame = 8
 852              		@ frame_needed = 0, uses_anonymous_args = 0
 260:D:/fchai/work/i-cube/I-CUBE-HUAWEI/Drivers/BSP/Components/lps22hh\lps22hh_reg.c ****   lps22hh_interrupt_cfg_t reg;
 853              		.loc 1 260 3 view .LVU227
 261:D:/fchai/work/i-cube/I-CUBE-HUAWEI/Drivers/BSP/Components/lps22hh\lps22hh_reg.c ****   int32_t ret;
 854              		.loc 1 261 3 view .LVU228
 262:D:/fchai/work/i-cube/I-CUBE-HUAWEI/Drivers/BSP/Components/lps22hh\lps22hh_reg.c **** 
 263:D:/fchai/work/i-cube/I-CUBE-HUAWEI/Drivers/BSP/Components/lps22hh\lps22hh_reg.c ****   ret = lps22hh_read_reg(ctx, LPS22HH_INTERRUPT_CFG, (uint8_t*) &reg, 1);
 855              		.loc 1 263 3 view .LVU229
 259:D:/fchai/work/i-cube/I-CUBE-HUAWEI/Drivers/BSP/Components/lps22hh\lps22hh_reg.c ****   lps22hh_interrupt_cfg_t reg;
 856              		.loc 1 259 1 is_stmt 0 view .LVU230
 857 0000 30B5     		push	{r4, r5, lr}
 858              	.LCFI25:
 859              		.cfi_def_cfa_offset 12
 860              		.cfi_offset 4, -12
 861              		.cfi_offset 5, -8
 862              		.cfi_offset 14, -4
 863 0002 83B0     		sub	sp, sp, #12
 864              	.LCFI26:
 865              		.cfi_def_cfa_offset 24
 866              	.LVL67:
 867              	.LBB256:
 868              	.LBI256:
  49:D:/fchai/work/i-cube/I-CUBE-HUAWEI/Drivers/BSP/Components/lps22hh\lps22hh_reg.c ****                          uint16_t len)
 869              		.loc 1 49 9 is_stmt 1 view .LVU231
 870              	.LBB257:
  52:D:/fchai/work/i-cube/I-CUBE-HUAWEI/Drivers/BSP/Components/lps22hh\lps22hh_reg.c ****   ret = ctx->read_reg(ctx->handle, reg, data, len);
 871              		.loc 1 52 3 view .LVU232
  53:D:/fchai/work/i-cube/I-CUBE-HUAWEI/Drivers/BSP/Components/lps22hh\lps22hh_reg.c ****   return ret;
 872              		.loc 1 53 3 view .LVU233
 873              	.LBE257:
 874              	.LBE256:
 259:D:/fchai/work/i-cube/I-CUBE-HUAWEI/Drivers/BSP/Components/lps22hh\lps22hh_reg.c ****   lps22hh_interrupt_cfg_t reg;
 875              		.loc 1 259 1 is_stmt 0 view .LVU234
 876 0004 0C46     		mov	r4, r1
 877              	.LBB259:
 878              	.LBB258:
  53:D:/fchai/work/i-cube/I-CUBE-HUAWEI/Drivers/BSP/Components/lps22hh\lps22hh_reg.c ****   return ret;
 879              		.loc 1 53 9 view .LVU235
 880 0006 D0E90150 		ldrd	r5, r0, [r0, #4]
 881              	.LVL68:
  53:D:/fchai/work/i-cube/I-CUBE-HUAWEI/Drivers/BSP/Components/lps22hh\lps22hh_reg.c ****   return ret;
 882              		.loc 1 53 9 view .LVU236
 883 000a 0123     		movs	r3, #1
ARM GAS  T:\msys\tmp\ccdfMMY7.s 			page 23


 884 000c 01AA     		add	r2, sp, #4
 885              	.LVL69:
  53:D:/fchai/work/i-cube/I-CUBE-HUAWEI/Drivers/BSP/Components/lps22hh\lps22hh_reg.c ****   return ret;
 886              		.loc 1 53 9 view .LVU237
 887 000e 0B21     		movs	r1, #11
 888              	.LVL70:
  53:D:/fchai/work/i-cube/I-CUBE-HUAWEI/Drivers/BSP/Components/lps22hh\lps22hh_reg.c ****   return ret;
 889              		.loc 1 53 9 view .LVU238
 890 0010 A847     		blx	r5
 891              	.LVL71:
  54:D:/fchai/work/i-cube/I-CUBE-HUAWEI/Drivers/BSP/Components/lps22hh\lps22hh_reg.c **** }
 892              		.loc 1 54 3 is_stmt 1 view .LVU239
  54:D:/fchai/work/i-cube/I-CUBE-HUAWEI/Drivers/BSP/Components/lps22hh\lps22hh_reg.c **** }
 893              		.loc 1 54 3 is_stmt 0 view .LVU240
 894              	.LBE258:
 895              	.LBE259:
 264:D:/fchai/work/i-cube/I-CUBE-HUAWEI/Drivers/BSP/Components/lps22hh\lps22hh_reg.c ****   *val = reg.autorefp;
 896              		.loc 1 264 3 is_stmt 1 view .LVU241
 897              		.loc 1 264 13 is_stmt 0 view .LVU242
 898 0012 9DF80430 		ldrb	r3, [sp, #4]	@ zero_extendqisi2
 899 0016 C3F3C013 		ubfx	r3, r3, #7, #1
 900              		.loc 1 264 8 view .LVU243
 901 001a 2370     		strb	r3, [r4]
 265:D:/fchai/work/i-cube/I-CUBE-HUAWEI/Drivers/BSP/Components/lps22hh\lps22hh_reg.c **** 
 266:D:/fchai/work/i-cube/I-CUBE-HUAWEI/Drivers/BSP/Components/lps22hh\lps22hh_reg.c ****   return ret;
 902              		.loc 1 266 3 is_stmt 1 view .LVU244
 267:D:/fchai/work/i-cube/I-CUBE-HUAWEI/Drivers/BSP/Components/lps22hh\lps22hh_reg.c **** }
 903              		.loc 1 267 1 is_stmt 0 view .LVU245
 904 001c 03B0     		add	sp, sp, #12
 905              	.LCFI27:
 906              		.cfi_def_cfa_offset 12
 907              		@ sp needed
 908 001e 30BD     		pop	{r4, r5, pc}
 909              		.loc 1 267 1 view .LVU246
 910              		.cfi_endproc
 911              	.LFE11:
 913              		.section	.text.lps22hh_block_data_update_set,"ax",%progbits
 914              		.align	1
 915              		.p2align 2,,3
 916              		.global	lps22hh_block_data_update_set
 917              		.syntax unified
 918              		.thumb
 919              		.thumb_func
 920              		.fpu fpv4-sp-d16
 922              	lps22hh_block_data_update_set:
 923              	.LVL72:
 924              	.LFB12:
 268:D:/fchai/work/i-cube/I-CUBE-HUAWEI/Drivers/BSP/Components/lps22hh\lps22hh_reg.c **** 
 269:D:/fchai/work/i-cube/I-CUBE-HUAWEI/Drivers/BSP/Components/lps22hh\lps22hh_reg.c **** /**
 270:D:/fchai/work/i-cube/I-CUBE-HUAWEI/Drivers/BSP/Components/lps22hh\lps22hh_reg.c ****   * @brief  Block Data Update.[set]
 271:D:/fchai/work/i-cube/I-CUBE-HUAWEI/Drivers/BSP/Components/lps22hh\lps22hh_reg.c ****   *
 272:D:/fchai/work/i-cube/I-CUBE-HUAWEI/Drivers/BSP/Components/lps22hh\lps22hh_reg.c ****   * @param  ctx      read / write interface definitions
 273:D:/fchai/work/i-cube/I-CUBE-HUAWEI/Drivers/BSP/Components/lps22hh\lps22hh_reg.c ****   * @param  val      change the values of bdu in reg CTRL_REG1
 274:D:/fchai/work/i-cube/I-CUBE-HUAWEI/Drivers/BSP/Components/lps22hh\lps22hh_reg.c ****   * @retval          interface status (MANDATORY: return 0 -> no Error)
 275:D:/fchai/work/i-cube/I-CUBE-HUAWEI/Drivers/BSP/Components/lps22hh\lps22hh_reg.c ****   *
 276:D:/fchai/work/i-cube/I-CUBE-HUAWEI/Drivers/BSP/Components/lps22hh\lps22hh_reg.c ****   */
 277:D:/fchai/work/i-cube/I-CUBE-HUAWEI/Drivers/BSP/Components/lps22hh\lps22hh_reg.c **** int32_t lps22hh_block_data_update_set(stmdev_ctx_t *ctx, uint8_t val)
ARM GAS  T:\msys\tmp\ccdfMMY7.s 			page 24


 278:D:/fchai/work/i-cube/I-CUBE-HUAWEI/Drivers/BSP/Components/lps22hh\lps22hh_reg.c **** {
 925              		.loc 1 278 1 is_stmt 1 view -0
 926              		.cfi_startproc
 927              		@ args = 0, pretend = 0, frame = 8
 928              		@ frame_needed = 0, uses_anonymous_args = 0
 279:D:/fchai/work/i-cube/I-CUBE-HUAWEI/Drivers/BSP/Components/lps22hh\lps22hh_reg.c ****   lps22hh_ctrl_reg1_t reg;
 929              		.loc 1 279 3 view .LVU248
 280:D:/fchai/work/i-cube/I-CUBE-HUAWEI/Drivers/BSP/Components/lps22hh\lps22hh_reg.c ****   int32_t ret;
 930              		.loc 1 280 3 view .LVU249
 281:D:/fchai/work/i-cube/I-CUBE-HUAWEI/Drivers/BSP/Components/lps22hh\lps22hh_reg.c **** 
 282:D:/fchai/work/i-cube/I-CUBE-HUAWEI/Drivers/BSP/Components/lps22hh\lps22hh_reg.c ****   ret = lps22hh_read_reg(ctx, LPS22HH_CTRL_REG1, (uint8_t*) &reg, 1);
 931              		.loc 1 282 3 view .LVU250
 278:D:/fchai/work/i-cube/I-CUBE-HUAWEI/Drivers/BSP/Components/lps22hh\lps22hh_reg.c ****   lps22hh_ctrl_reg1_t reg;
 932              		.loc 1 278 1 is_stmt 0 view .LVU251
 933 0000 70B5     		push	{r4, r5, r6, lr}
 934              	.LCFI28:
 935              		.cfi_def_cfa_offset 16
 936              		.cfi_offset 4, -16
 937              		.cfi_offset 5, -12
 938              		.cfi_offset 6, -8
 939              		.cfi_offset 14, -4
 940 0002 82B0     		sub	sp, sp, #8
 941              	.LCFI29:
 942              		.cfi_def_cfa_offset 24
 278:D:/fchai/work/i-cube/I-CUBE-HUAWEI/Drivers/BSP/Components/lps22hh\lps22hh_reg.c ****   lps22hh_ctrl_reg1_t reg;
 943              		.loc 1 278 1 view .LVU252
 944 0004 0446     		mov	r4, r0
 945              	.LVL73:
 946              	.LBB260:
 947              	.LBI260:
  49:D:/fchai/work/i-cube/I-CUBE-HUAWEI/Drivers/BSP/Components/lps22hh\lps22hh_reg.c ****                          uint16_t len)
 948              		.loc 1 49 9 is_stmt 1 view .LVU253
 949              	.LBB261:
  52:D:/fchai/work/i-cube/I-CUBE-HUAWEI/Drivers/BSP/Components/lps22hh\lps22hh_reg.c ****   ret = ctx->read_reg(ctx->handle, reg, data, len);
 950              		.loc 1 52 3 view .LVU254
  53:D:/fchai/work/i-cube/I-CUBE-HUAWEI/Drivers/BSP/Components/lps22hh\lps22hh_reg.c ****   return ret;
 951              		.loc 1 53 3 view .LVU255
 952              	.LBE261:
 953              	.LBE260:
 278:D:/fchai/work/i-cube/I-CUBE-HUAWEI/Drivers/BSP/Components/lps22hh\lps22hh_reg.c ****   lps22hh_ctrl_reg1_t reg;
 954              		.loc 1 278 1 is_stmt 0 view .LVU256
 955 0006 0D46     		mov	r5, r1
 956              	.LBB263:
 957              	.LBB262:
  53:D:/fchai/work/i-cube/I-CUBE-HUAWEI/Drivers/BSP/Components/lps22hh\lps22hh_reg.c ****   return ret;
 958              		.loc 1 53 9 view .LVU257
 959 0008 D0E90160 		ldrd	r6, r0, [r0, #4]
 960              	.LVL74:
  53:D:/fchai/work/i-cube/I-CUBE-HUAWEI/Drivers/BSP/Components/lps22hh\lps22hh_reg.c ****   return ret;
 961              		.loc 1 53 9 view .LVU258
 962 000c 01AA     		add	r2, sp, #4
 963              	.LVL75:
  53:D:/fchai/work/i-cube/I-CUBE-HUAWEI/Drivers/BSP/Components/lps22hh\lps22hh_reg.c ****   return ret;
 964              		.loc 1 53 9 view .LVU259
 965 000e 0123     		movs	r3, #1
 966 0010 1021     		movs	r1, #16
 967              	.LVL76:
ARM GAS  T:\msys\tmp\ccdfMMY7.s 			page 25


  53:D:/fchai/work/i-cube/I-CUBE-HUAWEI/Drivers/BSP/Components/lps22hh\lps22hh_reg.c ****   return ret;
 968              		.loc 1 53 9 view .LVU260
 969 0012 B047     		blx	r6
 970              	.LVL77:
  54:D:/fchai/work/i-cube/I-CUBE-HUAWEI/Drivers/BSP/Components/lps22hh\lps22hh_reg.c **** }
 971              		.loc 1 54 3 is_stmt 1 view .LVU261
  54:D:/fchai/work/i-cube/I-CUBE-HUAWEI/Drivers/BSP/Components/lps22hh\lps22hh_reg.c **** }
 972              		.loc 1 54 3 is_stmt 0 view .LVU262
 973              	.LBE262:
 974              	.LBE263:
 283:D:/fchai/work/i-cube/I-CUBE-HUAWEI/Drivers/BSP/Components/lps22hh\lps22hh_reg.c ****   if (ret == 0) {
 975              		.loc 1 283 3 is_stmt 1 view .LVU263
 976              		.loc 1 283 6 is_stmt 0 view .LVU264
 977 0014 58B9     		cbnz	r0, .L30
 284:D:/fchai/work/i-cube/I-CUBE-HUAWEI/Drivers/BSP/Components/lps22hh\lps22hh_reg.c ****     reg.bdu = val;
 978              		.loc 1 284 5 is_stmt 1 view .LVU265
 979              		.loc 1 284 13 is_stmt 0 view .LVU266
 980 0016 9DF80430 		ldrb	r3, [sp, #4]	@ zero_extendqisi2
 981              	.LBB264:
 982              	.LBB265:
  71:D:/fchai/work/i-cube/I-CUBE-HUAWEI/Drivers/BSP/Components/lps22hh\lps22hh_reg.c ****   return ret;
 983              		.loc 1 71 9 view .LVU267
 984 001a 2668     		ldr	r6, [r4]
 985 001c A068     		ldr	r0, [r4, #8]
 986              	.LVL78:
  71:D:/fchai/work/i-cube/I-CUBE-HUAWEI/Drivers/BSP/Components/lps22hh\lps22hh_reg.c ****   return ret;
 987              		.loc 1 71 9 view .LVU268
 988              	.LBE265:
 989              	.LBE264:
 990              		.loc 1 284 13 view .LVU269
 991 001e 65F34103 		bfi	r3, r5, #1, #1
 992 0022 8DF80430 		strb	r3, [sp, #4]
 285:D:/fchai/work/i-cube/I-CUBE-HUAWEI/Drivers/BSP/Components/lps22hh\lps22hh_reg.c ****     ret = lps22hh_write_reg(ctx, LPS22HH_CTRL_REG1, (uint8_t*) &reg, 1);
 993              		.loc 1 285 5 is_stmt 1 view .LVU270
 994              	.LVL79:
 995              	.LBB267:
 996              	.LBI264:
  67:D:/fchai/work/i-cube/I-CUBE-HUAWEI/Drivers/BSP/Components/lps22hh\lps22hh_reg.c ****                            uint16_t len)
 997              		.loc 1 67 9 view .LVU271
 998              	.LBB266:
  70:D:/fchai/work/i-cube/I-CUBE-HUAWEI/Drivers/BSP/Components/lps22hh\lps22hh_reg.c ****   ret = ctx->write_reg(ctx->handle, reg, data, len);
 999              		.loc 1 70 3 view .LVU272
  71:D:/fchai/work/i-cube/I-CUBE-HUAWEI/Drivers/BSP/Components/lps22hh\lps22hh_reg.c ****   return ret;
 1000              		.loc 1 71 3 view .LVU273
  71:D:/fchai/work/i-cube/I-CUBE-HUAWEI/Drivers/BSP/Components/lps22hh\lps22hh_reg.c ****   return ret;
 1001              		.loc 1 71 9 is_stmt 0 view .LVU274
 1002 0026 01AA     		add	r2, sp, #4
 1003              	.LVL80:
  71:D:/fchai/work/i-cube/I-CUBE-HUAWEI/Drivers/BSP/Components/lps22hh\lps22hh_reg.c ****   return ret;
 1004              		.loc 1 71 9 view .LVU275
 1005 0028 0123     		movs	r3, #1
 1006 002a 1021     		movs	r1, #16
 1007 002c B047     		blx	r6
 1008              	.LVL81:
  72:D:/fchai/work/i-cube/I-CUBE-HUAWEI/Drivers/BSP/Components/lps22hh\lps22hh_reg.c **** }
 1009              		.loc 1 72 3 is_stmt 1 view .LVU276
  72:D:/fchai/work/i-cube/I-CUBE-HUAWEI/Drivers/BSP/Components/lps22hh\lps22hh_reg.c **** }
ARM GAS  T:\msys\tmp\ccdfMMY7.s 			page 26


 1010              		.loc 1 72 3 is_stmt 0 view .LVU277
 1011              	.LBE266:
 1012              	.LBE267:
 286:D:/fchai/work/i-cube/I-CUBE-HUAWEI/Drivers/BSP/Components/lps22hh\lps22hh_reg.c ****   }
 287:D:/fchai/work/i-cube/I-CUBE-HUAWEI/Drivers/BSP/Components/lps22hh\lps22hh_reg.c ****   return ret;
 1013              		.loc 1 287 3 is_stmt 1 view .LVU278
 1014              	.L30:
 288:D:/fchai/work/i-cube/I-CUBE-HUAWEI/Drivers/BSP/Components/lps22hh\lps22hh_reg.c **** }
 1015              		.loc 1 288 1 is_stmt 0 view .LVU279
 1016 002e 02B0     		add	sp, sp, #8
 1017              	.LCFI30:
 1018              		.cfi_def_cfa_offset 16
 1019              		@ sp needed
 1020 0030 70BD     		pop	{r4, r5, r6, pc}
 1021              		.loc 1 288 1 view .LVU280
 1022              		.cfi_endproc
 1023              	.LFE12:
 1025 0032 00BF     		.section	.text.lps22hh_block_data_update_get,"ax",%progbits
 1026              		.align	1
 1027              		.p2align 2,,3
 1028              		.global	lps22hh_block_data_update_get
 1029              		.syntax unified
 1030              		.thumb
 1031              		.thumb_func
 1032              		.fpu fpv4-sp-d16
 1034              	lps22hh_block_data_update_get:
 1035              	.LVL82:
 1036              	.LFB13:
 289:D:/fchai/work/i-cube/I-CUBE-HUAWEI/Drivers/BSP/Components/lps22hh\lps22hh_reg.c **** 
 290:D:/fchai/work/i-cube/I-CUBE-HUAWEI/Drivers/BSP/Components/lps22hh\lps22hh_reg.c **** /**
 291:D:/fchai/work/i-cube/I-CUBE-HUAWEI/Drivers/BSP/Components/lps22hh\lps22hh_reg.c ****   * @brief  Block Data Update.[get]
 292:D:/fchai/work/i-cube/I-CUBE-HUAWEI/Drivers/BSP/Components/lps22hh\lps22hh_reg.c ****   *
 293:D:/fchai/work/i-cube/I-CUBE-HUAWEI/Drivers/BSP/Components/lps22hh\lps22hh_reg.c ****   * @param  ctx      read / write interface definitions
 294:D:/fchai/work/i-cube/I-CUBE-HUAWEI/Drivers/BSP/Components/lps22hh\lps22hh_reg.c ****   * @param  val      change the values of bdu in reg CTRL_REG1
 295:D:/fchai/work/i-cube/I-CUBE-HUAWEI/Drivers/BSP/Components/lps22hh\lps22hh_reg.c ****   * @retval          interface status (MANDATORY: return 0 -> no Error)
 296:D:/fchai/work/i-cube/I-CUBE-HUAWEI/Drivers/BSP/Components/lps22hh\lps22hh_reg.c ****   *
 297:D:/fchai/work/i-cube/I-CUBE-HUAWEI/Drivers/BSP/Components/lps22hh\lps22hh_reg.c ****   */
 298:D:/fchai/work/i-cube/I-CUBE-HUAWEI/Drivers/BSP/Components/lps22hh\lps22hh_reg.c **** int32_t lps22hh_block_data_update_get(stmdev_ctx_t *ctx, uint8_t *val)
 299:D:/fchai/work/i-cube/I-CUBE-HUAWEI/Drivers/BSP/Components/lps22hh\lps22hh_reg.c **** {
 1037              		.loc 1 299 1 is_stmt 1 view -0
 1038              		.cfi_startproc
 1039              		@ args = 0, pretend = 0, frame = 8
 1040              		@ frame_needed = 0, uses_anonymous_args = 0
 300:D:/fchai/work/i-cube/I-CUBE-HUAWEI/Drivers/BSP/Components/lps22hh\lps22hh_reg.c ****   lps22hh_ctrl_reg1_t reg;
 1041              		.loc 1 300 3 view .LVU282
 301:D:/fchai/work/i-cube/I-CUBE-HUAWEI/Drivers/BSP/Components/lps22hh\lps22hh_reg.c ****   int32_t ret;
 1042              		.loc 1 301 3 view .LVU283
 302:D:/fchai/work/i-cube/I-CUBE-HUAWEI/Drivers/BSP/Components/lps22hh\lps22hh_reg.c **** 
 303:D:/fchai/work/i-cube/I-CUBE-HUAWEI/Drivers/BSP/Components/lps22hh\lps22hh_reg.c ****   ret = lps22hh_read_reg(ctx, LPS22HH_CTRL_REG1, (uint8_t*) &reg, 1);
 1043              		.loc 1 303 3 view .LVU284
 299:D:/fchai/work/i-cube/I-CUBE-HUAWEI/Drivers/BSP/Components/lps22hh\lps22hh_reg.c ****   lps22hh_ctrl_reg1_t reg;
 1044              		.loc 1 299 1 is_stmt 0 view .LVU285
 1045 0000 30B5     		push	{r4, r5, lr}
 1046              	.LCFI31:
 1047              		.cfi_def_cfa_offset 12
 1048              		.cfi_offset 4, -12
 1049              		.cfi_offset 5, -8
ARM GAS  T:\msys\tmp\ccdfMMY7.s 			page 27


 1050              		.cfi_offset 14, -4
 1051 0002 83B0     		sub	sp, sp, #12
 1052              	.LCFI32:
 1053              		.cfi_def_cfa_offset 24
 1054              	.LVL83:
 1055              	.LBB268:
 1056              	.LBI268:
  49:D:/fchai/work/i-cube/I-CUBE-HUAWEI/Drivers/BSP/Components/lps22hh\lps22hh_reg.c ****                          uint16_t len)
 1057              		.loc 1 49 9 is_stmt 1 view .LVU286
 1058              	.LBB269:
  52:D:/fchai/work/i-cube/I-CUBE-HUAWEI/Drivers/BSP/Components/lps22hh\lps22hh_reg.c ****   ret = ctx->read_reg(ctx->handle, reg, data, len);
 1059              		.loc 1 52 3 view .LVU287
  53:D:/fchai/work/i-cube/I-CUBE-HUAWEI/Drivers/BSP/Components/lps22hh\lps22hh_reg.c ****   return ret;
 1060              		.loc 1 53 3 view .LVU288
 1061              	.LBE269:
 1062              	.LBE268:
 299:D:/fchai/work/i-cube/I-CUBE-HUAWEI/Drivers/BSP/Components/lps22hh\lps22hh_reg.c ****   lps22hh_ctrl_reg1_t reg;
 1063              		.loc 1 299 1 is_stmt 0 view .LVU289
 1064 0004 0C46     		mov	r4, r1
 1065              	.LBB271:
 1066              	.LBB270:
  53:D:/fchai/work/i-cube/I-CUBE-HUAWEI/Drivers/BSP/Components/lps22hh\lps22hh_reg.c ****   return ret;
 1067              		.loc 1 53 9 view .LVU290
 1068 0006 D0E90150 		ldrd	r5, r0, [r0, #4]
 1069              	.LVL84:
  53:D:/fchai/work/i-cube/I-CUBE-HUAWEI/Drivers/BSP/Components/lps22hh\lps22hh_reg.c ****   return ret;
 1070              		.loc 1 53 9 view .LVU291
 1071 000a 0123     		movs	r3, #1
 1072 000c 01AA     		add	r2, sp, #4
 1073              	.LVL85:
  53:D:/fchai/work/i-cube/I-CUBE-HUAWEI/Drivers/BSP/Components/lps22hh\lps22hh_reg.c ****   return ret;
 1074              		.loc 1 53 9 view .LVU292
 1075 000e 1021     		movs	r1, #16
 1076              	.LVL86:
  53:D:/fchai/work/i-cube/I-CUBE-HUAWEI/Drivers/BSP/Components/lps22hh\lps22hh_reg.c ****   return ret;
 1077              		.loc 1 53 9 view .LVU293
 1078 0010 A847     		blx	r5
 1079              	.LVL87:
  54:D:/fchai/work/i-cube/I-CUBE-HUAWEI/Drivers/BSP/Components/lps22hh\lps22hh_reg.c **** }
 1080              		.loc 1 54 3 is_stmt 1 view .LVU294
  54:D:/fchai/work/i-cube/I-CUBE-HUAWEI/Drivers/BSP/Components/lps22hh\lps22hh_reg.c **** }
 1081              		.loc 1 54 3 is_stmt 0 view .LVU295
 1082              	.LBE270:
 1083              	.LBE271:
 304:D:/fchai/work/i-cube/I-CUBE-HUAWEI/Drivers/BSP/Components/lps22hh\lps22hh_reg.c ****   *val = reg.bdu;
 1084              		.loc 1 304 3 is_stmt 1 view .LVU296
 1085              		.loc 1 304 13 is_stmt 0 view .LVU297
 1086 0012 9DF80430 		ldrb	r3, [sp, #4]	@ zero_extendqisi2
 1087 0016 C3F34003 		ubfx	r3, r3, #1, #1
 1088              		.loc 1 304 8 view .LVU298
 1089 001a 2370     		strb	r3, [r4]
 305:D:/fchai/work/i-cube/I-CUBE-HUAWEI/Drivers/BSP/Components/lps22hh\lps22hh_reg.c **** 
 306:D:/fchai/work/i-cube/I-CUBE-HUAWEI/Drivers/BSP/Components/lps22hh\lps22hh_reg.c ****   return ret;
 1090              		.loc 1 306 3 is_stmt 1 view .LVU299
 307:D:/fchai/work/i-cube/I-CUBE-HUAWEI/Drivers/BSP/Components/lps22hh\lps22hh_reg.c **** }
 1091              		.loc 1 307 1 is_stmt 0 view .LVU300
 1092 001c 03B0     		add	sp, sp, #12
ARM GAS  T:\msys\tmp\ccdfMMY7.s 			page 28


 1093              	.LCFI33:
 1094              		.cfi_def_cfa_offset 12
 1095              		@ sp needed
 1096 001e 30BD     		pop	{r4, r5, pc}
 1097              		.loc 1 307 1 view .LVU301
 1098              		.cfi_endproc
 1099              	.LFE13:
 1101              		.section	.text.lps22hh_data_rate_set,"ax",%progbits
 1102              		.align	1
 1103              		.p2align 2,,3
 1104              		.global	lps22hh_data_rate_set
 1105              		.syntax unified
 1106              		.thumb
 1107              		.thumb_func
 1108              		.fpu fpv4-sp-d16
 1110              	lps22hh_data_rate_set:
 1111              	.LVL88:
 1112              	.LFB14:
 308:D:/fchai/work/i-cube/I-CUBE-HUAWEI/Drivers/BSP/Components/lps22hh\lps22hh_reg.c **** 
 309:D:/fchai/work/i-cube/I-CUBE-HUAWEI/Drivers/BSP/Components/lps22hh\lps22hh_reg.c **** /**
 310:D:/fchai/work/i-cube/I-CUBE-HUAWEI/Drivers/BSP/Components/lps22hh\lps22hh_reg.c ****   * @brief  Output data rate selection.[set]
 311:D:/fchai/work/i-cube/I-CUBE-HUAWEI/Drivers/BSP/Components/lps22hh\lps22hh_reg.c ****   *
 312:D:/fchai/work/i-cube/I-CUBE-HUAWEI/Drivers/BSP/Components/lps22hh\lps22hh_reg.c ****   * @param  ctx      read / write interface definitions
 313:D:/fchai/work/i-cube/I-CUBE-HUAWEI/Drivers/BSP/Components/lps22hh\lps22hh_reg.c ****   * @param  val      change the values of odr in reg CTRL_REG1
 314:D:/fchai/work/i-cube/I-CUBE-HUAWEI/Drivers/BSP/Components/lps22hh\lps22hh_reg.c ****   * @retval          interface status (MANDATORY: return 0 -> no Error)
 315:D:/fchai/work/i-cube/I-CUBE-HUAWEI/Drivers/BSP/Components/lps22hh\lps22hh_reg.c ****   *
 316:D:/fchai/work/i-cube/I-CUBE-HUAWEI/Drivers/BSP/Components/lps22hh\lps22hh_reg.c ****   */
 317:D:/fchai/work/i-cube/I-CUBE-HUAWEI/Drivers/BSP/Components/lps22hh\lps22hh_reg.c **** int32_t lps22hh_data_rate_set(stmdev_ctx_t *ctx, lps22hh_odr_t val)
 318:D:/fchai/work/i-cube/I-CUBE-HUAWEI/Drivers/BSP/Components/lps22hh\lps22hh_reg.c **** {
 1113              		.loc 1 318 1 is_stmt 1 view -0
 1114              		.cfi_startproc
 1115              		@ args = 0, pretend = 0, frame = 8
 1116              		@ frame_needed = 0, uses_anonymous_args = 0
 319:D:/fchai/work/i-cube/I-CUBE-HUAWEI/Drivers/BSP/Components/lps22hh\lps22hh_reg.c ****   lps22hh_ctrl_reg1_t ctrl_reg1;
 1117              		.loc 1 319 3 view .LVU303
 320:D:/fchai/work/i-cube/I-CUBE-HUAWEI/Drivers/BSP/Components/lps22hh\lps22hh_reg.c ****   lps22hh_ctrl_reg2_t ctrl_reg2;
 1118              		.loc 1 320 3 view .LVU304
 321:D:/fchai/work/i-cube/I-CUBE-HUAWEI/Drivers/BSP/Components/lps22hh\lps22hh_reg.c ****   int32_t ret;
 1119              		.loc 1 321 3 view .LVU305
 322:D:/fchai/work/i-cube/I-CUBE-HUAWEI/Drivers/BSP/Components/lps22hh\lps22hh_reg.c **** 
 323:D:/fchai/work/i-cube/I-CUBE-HUAWEI/Drivers/BSP/Components/lps22hh\lps22hh_reg.c ****   ret = lps22hh_read_reg(ctx, LPS22HH_CTRL_REG1, (uint8_t*)&ctrl_reg1, 1);
 1120              		.loc 1 323 3 view .LVU306
 318:D:/fchai/work/i-cube/I-CUBE-HUAWEI/Drivers/BSP/Components/lps22hh\lps22hh_reg.c ****   lps22hh_ctrl_reg1_t ctrl_reg1;
 1121              		.loc 1 318 1 is_stmt 0 view .LVU307
 1122 0000 70B5     		push	{r4, r5, r6, lr}
 1123              	.LCFI34:
 1124              		.cfi_def_cfa_offset 16
 1125              		.cfi_offset 4, -16
 1126              		.cfi_offset 5, -12
 1127              		.cfi_offset 6, -8
 1128              		.cfi_offset 14, -4
 1129 0002 82B0     		sub	sp, sp, #8
 1130              	.LCFI35:
 1131              		.cfi_def_cfa_offset 24
 318:D:/fchai/work/i-cube/I-CUBE-HUAWEI/Drivers/BSP/Components/lps22hh\lps22hh_reg.c ****   lps22hh_ctrl_reg1_t ctrl_reg1;
 1132              		.loc 1 318 1 view .LVU308
 1133 0004 0446     		mov	r4, r0
ARM GAS  T:\msys\tmp\ccdfMMY7.s 			page 29


 1134              	.LVL89:
 1135              	.LBB272:
 1136              	.LBI272:
  49:D:/fchai/work/i-cube/I-CUBE-HUAWEI/Drivers/BSP/Components/lps22hh\lps22hh_reg.c ****                          uint16_t len)
 1137              		.loc 1 49 9 is_stmt 1 view .LVU309
 1138              	.LBB273:
  52:D:/fchai/work/i-cube/I-CUBE-HUAWEI/Drivers/BSP/Components/lps22hh\lps22hh_reg.c ****   ret = ctx->read_reg(ctx->handle, reg, data, len);
 1139              		.loc 1 52 3 view .LVU310
  53:D:/fchai/work/i-cube/I-CUBE-HUAWEI/Drivers/BSP/Components/lps22hh\lps22hh_reg.c ****   return ret;
 1140              		.loc 1 53 3 view .LVU311
 1141              	.LBE273:
 1142              	.LBE272:
 318:D:/fchai/work/i-cube/I-CUBE-HUAWEI/Drivers/BSP/Components/lps22hh\lps22hh_reg.c ****   lps22hh_ctrl_reg1_t ctrl_reg1;
 1143              		.loc 1 318 1 is_stmt 0 view .LVU312
 1144 0006 0D46     		mov	r5, r1
 1145              	.LBB275:
 1146              	.LBB274:
  53:D:/fchai/work/i-cube/I-CUBE-HUAWEI/Drivers/BSP/Components/lps22hh\lps22hh_reg.c ****   return ret;
 1147              		.loc 1 53 9 view .LVU313
 1148 0008 D0E90160 		ldrd	r6, r0, [r0, #4]
 1149              	.LVL90:
  53:D:/fchai/work/i-cube/I-CUBE-HUAWEI/Drivers/BSP/Components/lps22hh\lps22hh_reg.c ****   return ret;
 1150              		.loc 1 53 9 view .LVU314
 1151 000c 6A46     		mov	r2, sp
 1152 000e 0123     		movs	r3, #1
 1153 0010 1021     		movs	r1, #16
 1154              	.LVL91:
  53:D:/fchai/work/i-cube/I-CUBE-HUAWEI/Drivers/BSP/Components/lps22hh\lps22hh_reg.c ****   return ret;
 1155              		.loc 1 53 9 view .LVU315
 1156 0012 B047     		blx	r6
 1157              	.LVL92:
  54:D:/fchai/work/i-cube/I-CUBE-HUAWEI/Drivers/BSP/Components/lps22hh\lps22hh_reg.c **** }
 1158              		.loc 1 54 3 is_stmt 1 view .LVU316
  54:D:/fchai/work/i-cube/I-CUBE-HUAWEI/Drivers/BSP/Components/lps22hh\lps22hh_reg.c **** }
 1159              		.loc 1 54 3 is_stmt 0 view .LVU317
 1160              	.LBE274:
 1161              	.LBE275:
 324:D:/fchai/work/i-cube/I-CUBE-HUAWEI/Drivers/BSP/Components/lps22hh\lps22hh_reg.c ****   if (ret == 0) {
 1162              		.loc 1 324 3 is_stmt 1 view .LVU318
 1163              		.loc 1 324 6 is_stmt 0 view .LVU319
 1164 0014 10BB     		cbnz	r0, .L35
 325:D:/fchai/work/i-cube/I-CUBE-HUAWEI/Drivers/BSP/Components/lps22hh\lps22hh_reg.c ****     ret = lps22hh_read_reg(ctx, LPS22HH_CTRL_REG2, (uint8_t*)&ctrl_reg2, 1);
 1165              		.loc 1 325 5 is_stmt 1 view .LVU320
 1166              	.LVL93:
 1167              	.LBB276:
 1168              	.LBI276:
  49:D:/fchai/work/i-cube/I-CUBE-HUAWEI/Drivers/BSP/Components/lps22hh\lps22hh_reg.c ****                          uint16_t len)
 1169              		.loc 1 49 9 view .LVU321
 1170              	.LBB277:
  52:D:/fchai/work/i-cube/I-CUBE-HUAWEI/Drivers/BSP/Components/lps22hh\lps22hh_reg.c ****   ret = ctx->read_reg(ctx->handle, reg, data, len);
 1171              		.loc 1 52 3 view .LVU322
  53:D:/fchai/work/i-cube/I-CUBE-HUAWEI/Drivers/BSP/Components/lps22hh\lps22hh_reg.c ****   return ret;
 1172              		.loc 1 53 3 view .LVU323
  53:D:/fchai/work/i-cube/I-CUBE-HUAWEI/Drivers/BSP/Components/lps22hh\lps22hh_reg.c ****   return ret;
 1173              		.loc 1 53 9 is_stmt 0 view .LVU324
 1174 0016 D4E90160 		ldrd	r6, r0, [r4, #4]
 1175              	.LVL94:
ARM GAS  T:\msys\tmp\ccdfMMY7.s 			page 30


  53:D:/fchai/work/i-cube/I-CUBE-HUAWEI/Drivers/BSP/Components/lps22hh\lps22hh_reg.c ****   return ret;
 1176              		.loc 1 53 9 view .LVU325
 1177 001a 01AA     		add	r2, sp, #4
 1178              	.LVL95:
  53:D:/fchai/work/i-cube/I-CUBE-HUAWEI/Drivers/BSP/Components/lps22hh\lps22hh_reg.c ****   return ret;
 1179              		.loc 1 53 9 view .LVU326
 1180 001c 0123     		movs	r3, #1
 1181 001e 1121     		movs	r1, #17
 1182 0020 B047     		blx	r6
 1183              	.LVL96:
  54:D:/fchai/work/i-cube/I-CUBE-HUAWEI/Drivers/BSP/Components/lps22hh\lps22hh_reg.c **** }
 1184              		.loc 1 54 3 is_stmt 1 view .LVU327
  54:D:/fchai/work/i-cube/I-CUBE-HUAWEI/Drivers/BSP/Components/lps22hh\lps22hh_reg.c **** }
 1185              		.loc 1 54 3 is_stmt 0 view .LVU328
 1186              	.LBE277:
 1187              	.LBE276:
 326:D:/fchai/work/i-cube/I-CUBE-HUAWEI/Drivers/BSP/Components/lps22hh\lps22hh_reg.c ****   }
 327:D:/fchai/work/i-cube/I-CUBE-HUAWEI/Drivers/BSP/Components/lps22hh\lps22hh_reg.c ****   if (ret == 0) {
 1188              		.loc 1 327 3 is_stmt 1 view .LVU329
 1189              		.loc 1 327 6 is_stmt 0 view .LVU330
 1190 0022 D8B9     		cbnz	r0, .L35
 328:D:/fchai/work/i-cube/I-CUBE-HUAWEI/Drivers/BSP/Components/lps22hh\lps22hh_reg.c ****     ctrl_reg1.odr = (uint8_t)val & 0x07U;
 1191              		.loc 1 328 5 is_stmt 1 view .LVU331
 1192              		.loc 1 328 19 is_stmt 0 view .LVU332
 1193 0024 9DF80030 		ldrb	r3, [sp]	@ zero_extendqisi2
 1194              	.LBB278:
 1195              	.LBB279:
  71:D:/fchai/work/i-cube/I-CUBE-HUAWEI/Drivers/BSP/Components/lps22hh\lps22hh_reg.c ****   return ret;
 1196              		.loc 1 71 9 view .LVU333
 1197 0028 2668     		ldr	r6, [r4]
 1198 002a A068     		ldr	r0, [r4, #8]
 1199              	.LVL97:
  71:D:/fchai/work/i-cube/I-CUBE-HUAWEI/Drivers/BSP/Components/lps22hh\lps22hh_reg.c ****   return ret;
 1200              		.loc 1 71 9 view .LVU334
 1201              	.LBE279:
 1202              	.LBE278:
 1203              		.loc 1 328 19 view .LVU335
 1204 002c 65F30613 		bfi	r3, r5, #4, #3
 1205 0030 8DF80030 		strb	r3, [sp]
 329:D:/fchai/work/i-cube/I-CUBE-HUAWEI/Drivers/BSP/Components/lps22hh\lps22hh_reg.c ****     ret = lps22hh_write_reg(ctx, LPS22HH_CTRL_REG1, (uint8_t*)&ctrl_reg1, 1);
 1206              		.loc 1 329 5 is_stmt 1 view .LVU336
 1207              	.LVL98:
 1208              	.LBB281:
 1209              	.LBI278:
  67:D:/fchai/work/i-cube/I-CUBE-HUAWEI/Drivers/BSP/Components/lps22hh\lps22hh_reg.c ****                            uint16_t len)
 1210              		.loc 1 67 9 view .LVU337
 1211              	.LBB280:
  70:D:/fchai/work/i-cube/I-CUBE-HUAWEI/Drivers/BSP/Components/lps22hh\lps22hh_reg.c ****   ret = ctx->write_reg(ctx->handle, reg, data, len);
 1212              		.loc 1 70 3 view .LVU338
  71:D:/fchai/work/i-cube/I-CUBE-HUAWEI/Drivers/BSP/Components/lps22hh\lps22hh_reg.c ****   return ret;
 1213              		.loc 1 71 3 view .LVU339
  71:D:/fchai/work/i-cube/I-CUBE-HUAWEI/Drivers/BSP/Components/lps22hh\lps22hh_reg.c ****   return ret;
 1214              		.loc 1 71 9 is_stmt 0 view .LVU340
 1215 0034 6A46     		mov	r2, sp
 1216 0036 0123     		movs	r3, #1
 1217 0038 1021     		movs	r1, #16
 1218 003a B047     		blx	r6
ARM GAS  T:\msys\tmp\ccdfMMY7.s 			page 31


 1219              	.LVL99:
  72:D:/fchai/work/i-cube/I-CUBE-HUAWEI/Drivers/BSP/Components/lps22hh\lps22hh_reg.c **** }
 1220              		.loc 1 72 3 is_stmt 1 view .LVU341
  72:D:/fchai/work/i-cube/I-CUBE-HUAWEI/Drivers/BSP/Components/lps22hh\lps22hh_reg.c **** }
 1221              		.loc 1 72 3 is_stmt 0 view .LVU342
 1222              	.LBE280:
 1223              	.LBE281:
 330:D:/fchai/work/i-cube/I-CUBE-HUAWEI/Drivers/BSP/Components/lps22hh\lps22hh_reg.c ****   }
 331:D:/fchai/work/i-cube/I-CUBE-HUAWEI/Drivers/BSP/Components/lps22hh\lps22hh_reg.c ****   if (ret == 0) {
 1224              		.loc 1 331 3 is_stmt 1 view .LVU343
 1225              		.loc 1 331 6 is_stmt 0 view .LVU344
 1226 003c 70B9     		cbnz	r0, .L35
 332:D:/fchai/work/i-cube/I-CUBE-HUAWEI/Drivers/BSP/Components/lps22hh\lps22hh_reg.c ****     ctrl_reg2.low_noise_en = ((uint8_t)val & 0x10U) >> 4;
 1227              		.loc 1 332 5 is_stmt 1 view .LVU345
 333:D:/fchai/work/i-cube/I-CUBE-HUAWEI/Drivers/BSP/Components/lps22hh\lps22hh_reg.c ****     ctrl_reg2.one_shot = ((uint8_t)val & 0x08U) >> 3;
 1228              		.loc 1 333 5 view .LVU346
 1229              		.loc 1 333 24 is_stmt 0 view .LVU347
 1230 003e 9DF80430 		ldrb	r3, [sp, #4]	@ zero_extendqisi2
 1231              	.LBB282:
 1232              	.LBB283:
  71:D:/fchai/work/i-cube/I-CUBE-HUAWEI/Drivers/BSP/Components/lps22hh\lps22hh_reg.c ****   return ret;
 1233              		.loc 1 71 9 view .LVU348
 1234 0042 2668     		ldr	r6, [r4]
 1235 0044 A068     		ldr	r0, [r4, #8]
 1236              	.LVL100:
  71:D:/fchai/work/i-cube/I-CUBE-HUAWEI/Drivers/BSP/Components/lps22hh\lps22hh_reg.c ****   return ret;
 1237              		.loc 1 71 9 view .LVU349
 1238              	.LBE283:
 1239              	.LBE282:
 1240              		.loc 1 333 24 view .LVU350
 1241 0046 23F00303 		bic	r3, r3, #3
 1242 004a C5F3C105 		ubfx	r5, r5, #3, #2
 1243 004e 1D43     		orrs	r5, r5, r3
 1244              	.LBB286:
 1245              	.LBB284:
  71:D:/fchai/work/i-cube/I-CUBE-HUAWEI/Drivers/BSP/Components/lps22hh\lps22hh_reg.c ****   return ret;
 1246              		.loc 1 71 9 view .LVU351
 1247 0050 01AA     		add	r2, sp, #4
 1248              	.LBE284:
 1249              	.LBE286:
 1250              		.loc 1 333 24 view .LVU352
 1251 0052 8DF80450 		strb	r5, [sp, #4]
 334:D:/fchai/work/i-cube/I-CUBE-HUAWEI/Drivers/BSP/Components/lps22hh\lps22hh_reg.c ****     ret = lps22hh_write_reg(ctx, LPS22HH_CTRL_REG2, (uint8_t*)&ctrl_reg2, 1);
 1252              		.loc 1 334 5 is_stmt 1 view .LVU353
 1253              	.LVL101:
 1254              	.LBB287:
 1255              	.LBI282:
  67:D:/fchai/work/i-cube/I-CUBE-HUAWEI/Drivers/BSP/Components/lps22hh\lps22hh_reg.c ****                            uint16_t len)
 1256              		.loc 1 67 9 view .LVU354
 1257              	.LBB285:
  70:D:/fchai/work/i-cube/I-CUBE-HUAWEI/Drivers/BSP/Components/lps22hh\lps22hh_reg.c ****   ret = ctx->write_reg(ctx->handle, reg, data, len);
 1258              		.loc 1 70 3 view .LVU355
  71:D:/fchai/work/i-cube/I-CUBE-HUAWEI/Drivers/BSP/Components/lps22hh\lps22hh_reg.c ****   return ret;
 1259              		.loc 1 71 3 view .LVU356
  71:D:/fchai/work/i-cube/I-CUBE-HUAWEI/Drivers/BSP/Components/lps22hh\lps22hh_reg.c ****   return ret;
 1260              		.loc 1 71 9 is_stmt 0 view .LVU357
 1261 0056 0123     		movs	r3, #1
ARM GAS  T:\msys\tmp\ccdfMMY7.s 			page 32


 1262 0058 1121     		movs	r1, #17
 1263 005a B047     		blx	r6
 1264              	.LVL102:
  72:D:/fchai/work/i-cube/I-CUBE-HUAWEI/Drivers/BSP/Components/lps22hh\lps22hh_reg.c **** }
 1265              		.loc 1 72 3 is_stmt 1 view .LVU358
  72:D:/fchai/work/i-cube/I-CUBE-HUAWEI/Drivers/BSP/Components/lps22hh\lps22hh_reg.c **** }
 1266              		.loc 1 72 3 is_stmt 0 view .LVU359
 1267              	.LBE285:
 1268              	.LBE287:
 335:D:/fchai/work/i-cube/I-CUBE-HUAWEI/Drivers/BSP/Components/lps22hh\lps22hh_reg.c ****   }
 336:D:/fchai/work/i-cube/I-CUBE-HUAWEI/Drivers/BSP/Components/lps22hh\lps22hh_reg.c ****   return ret;
 1269              		.loc 1 336 3 is_stmt 1 view .LVU360
 1270              	.L35:
 337:D:/fchai/work/i-cube/I-CUBE-HUAWEI/Drivers/BSP/Components/lps22hh\lps22hh_reg.c **** }
 1271              		.loc 1 337 1 is_stmt 0 view .LVU361
 1272 005c 02B0     		add	sp, sp, #8
 1273              	.LCFI36:
 1274              		.cfi_def_cfa_offset 16
 1275              		@ sp needed
 1276 005e 70BD     		pop	{r4, r5, r6, pc}
 1277              		.loc 1 337 1 view .LVU362
 1278              		.cfi_endproc
 1279              	.LFE14:
 1281              		.section	.text.lps22hh_data_rate_get,"ax",%progbits
 1282              		.align	1
 1283              		.p2align 2,,3
 1284              		.global	lps22hh_data_rate_get
 1285              		.syntax unified
 1286              		.thumb
 1287              		.thumb_func
 1288              		.fpu fpv4-sp-d16
 1290              	lps22hh_data_rate_get:
 1291              	.LVL103:
 1292              	.LFB15:
 338:D:/fchai/work/i-cube/I-CUBE-HUAWEI/Drivers/BSP/Components/lps22hh\lps22hh_reg.c **** 
 339:D:/fchai/work/i-cube/I-CUBE-HUAWEI/Drivers/BSP/Components/lps22hh\lps22hh_reg.c **** /**
 340:D:/fchai/work/i-cube/I-CUBE-HUAWEI/Drivers/BSP/Components/lps22hh\lps22hh_reg.c ****   * @brief  Output data rate selection.[get]
 341:D:/fchai/work/i-cube/I-CUBE-HUAWEI/Drivers/BSP/Components/lps22hh\lps22hh_reg.c ****   *
 342:D:/fchai/work/i-cube/I-CUBE-HUAWEI/Drivers/BSP/Components/lps22hh\lps22hh_reg.c ****   * @param  ctx      read / write interface definitions
 343:D:/fchai/work/i-cube/I-CUBE-HUAWEI/Drivers/BSP/Components/lps22hh\lps22hh_reg.c ****   * @param  val      Get the values of odr in reg CTRL_REG1
 344:D:/fchai/work/i-cube/I-CUBE-HUAWEI/Drivers/BSP/Components/lps22hh\lps22hh_reg.c ****   * @retval          interface status (MANDATORY: return 0 -> no Error)
 345:D:/fchai/work/i-cube/I-CUBE-HUAWEI/Drivers/BSP/Components/lps22hh\lps22hh_reg.c ****   *
 346:D:/fchai/work/i-cube/I-CUBE-HUAWEI/Drivers/BSP/Components/lps22hh\lps22hh_reg.c ****   */
 347:D:/fchai/work/i-cube/I-CUBE-HUAWEI/Drivers/BSP/Components/lps22hh\lps22hh_reg.c **** int32_t lps22hh_data_rate_get(stmdev_ctx_t *ctx, lps22hh_odr_t *val)
 348:D:/fchai/work/i-cube/I-CUBE-HUAWEI/Drivers/BSP/Components/lps22hh\lps22hh_reg.c **** {
 1293              		.loc 1 348 1 is_stmt 1 view -0
 1294              		.cfi_startproc
 1295              		@ args = 0, pretend = 0, frame = 8
 1296              		@ frame_needed = 0, uses_anonymous_args = 0
 349:D:/fchai/work/i-cube/I-CUBE-HUAWEI/Drivers/BSP/Components/lps22hh\lps22hh_reg.c ****   lps22hh_ctrl_reg1_t ctrl_reg1;
 1297              		.loc 1 349 3 view .LVU364
 350:D:/fchai/work/i-cube/I-CUBE-HUAWEI/Drivers/BSP/Components/lps22hh\lps22hh_reg.c ****   lps22hh_ctrl_reg2_t ctrl_reg2;
 1298              		.loc 1 350 3 view .LVU365
 351:D:/fchai/work/i-cube/I-CUBE-HUAWEI/Drivers/BSP/Components/lps22hh\lps22hh_reg.c ****   int32_t ret;
 1299              		.loc 1 351 3 view .LVU366
 352:D:/fchai/work/i-cube/I-CUBE-HUAWEI/Drivers/BSP/Components/lps22hh\lps22hh_reg.c **** 
 353:D:/fchai/work/i-cube/I-CUBE-HUAWEI/Drivers/BSP/Components/lps22hh\lps22hh_reg.c ****   ret = lps22hh_read_reg(ctx, LPS22HH_CTRL_REG1, (uint8_t*)&ctrl_reg1, 1);
ARM GAS  T:\msys\tmp\ccdfMMY7.s 			page 33


 1300              		.loc 1 353 3 view .LVU367
 348:D:/fchai/work/i-cube/I-CUBE-HUAWEI/Drivers/BSP/Components/lps22hh\lps22hh_reg.c ****   lps22hh_ctrl_reg1_t ctrl_reg1;
 1301              		.loc 1 348 1 is_stmt 0 view .LVU368
 1302 0000 70B5     		push	{r4, r5, r6, lr}
 1303              	.LCFI37:
 1304              		.cfi_def_cfa_offset 16
 1305              		.cfi_offset 4, -16
 1306              		.cfi_offset 5, -12
 1307              		.cfi_offset 6, -8
 1308              		.cfi_offset 14, -4
 1309 0002 82B0     		sub	sp, sp, #8
 1310              	.LCFI38:
 1311              		.cfi_def_cfa_offset 24
 348:D:/fchai/work/i-cube/I-CUBE-HUAWEI/Drivers/BSP/Components/lps22hh\lps22hh_reg.c ****   lps22hh_ctrl_reg1_t ctrl_reg1;
 1312              		.loc 1 348 1 view .LVU369
 1313 0004 0646     		mov	r6, r0
 1314              	.LVL104:
 1315              	.LBB288:
 1316              	.LBI288:
  49:D:/fchai/work/i-cube/I-CUBE-HUAWEI/Drivers/BSP/Components/lps22hh\lps22hh_reg.c ****                          uint16_t len)
 1317              		.loc 1 49 9 is_stmt 1 view .LVU370
 1318              	.LBB289:
  52:D:/fchai/work/i-cube/I-CUBE-HUAWEI/Drivers/BSP/Components/lps22hh\lps22hh_reg.c ****   ret = ctx->read_reg(ctx->handle, reg, data, len);
 1319              		.loc 1 52 3 view .LVU371
  53:D:/fchai/work/i-cube/I-CUBE-HUAWEI/Drivers/BSP/Components/lps22hh\lps22hh_reg.c ****   return ret;
 1320              		.loc 1 53 3 view .LVU372
 1321              	.LBE289:
 1322              	.LBE288:
 348:D:/fchai/work/i-cube/I-CUBE-HUAWEI/Drivers/BSP/Components/lps22hh\lps22hh_reg.c ****   lps22hh_ctrl_reg1_t ctrl_reg1;
 1323              		.loc 1 348 1 is_stmt 0 view .LVU373
 1324 0006 0C46     		mov	r4, r1
 1325              	.LBB291:
 1326              	.LBB290:
  53:D:/fchai/work/i-cube/I-CUBE-HUAWEI/Drivers/BSP/Components/lps22hh\lps22hh_reg.c ****   return ret;
 1327              		.loc 1 53 9 view .LVU374
 1328 0008 D0E90150 		ldrd	r5, r0, [r0, #4]
 1329              	.LVL105:
  53:D:/fchai/work/i-cube/I-CUBE-HUAWEI/Drivers/BSP/Components/lps22hh\lps22hh_reg.c ****   return ret;
 1330              		.loc 1 53 9 view .LVU375
 1331 000c 0123     		movs	r3, #1
 1332 000e 6A46     		mov	r2, sp
 1333 0010 1021     		movs	r1, #16
 1334              	.LVL106:
  53:D:/fchai/work/i-cube/I-CUBE-HUAWEI/Drivers/BSP/Components/lps22hh\lps22hh_reg.c ****   return ret;
 1335              		.loc 1 53 9 view .LVU376
 1336 0012 A847     		blx	r5
 1337              	.LVL107:
  54:D:/fchai/work/i-cube/I-CUBE-HUAWEI/Drivers/BSP/Components/lps22hh\lps22hh_reg.c **** }
 1338              		.loc 1 54 3 is_stmt 1 view .LVU377
  54:D:/fchai/work/i-cube/I-CUBE-HUAWEI/Drivers/BSP/Components/lps22hh\lps22hh_reg.c **** }
 1339              		.loc 1 54 3 is_stmt 0 view .LVU378
 1340              	.LBE290:
 1341              	.LBE291:
 354:D:/fchai/work/i-cube/I-CUBE-HUAWEI/Drivers/BSP/Components/lps22hh\lps22hh_reg.c ****   if (ret == 0) {
 1342              		.loc 1 354 3 is_stmt 1 view .LVU379
 1343              		.loc 1 354 6 is_stmt 0 view .LVU380
 1344 0014 58BB     		cbnz	r0, .L38
ARM GAS  T:\msys\tmp\ccdfMMY7.s 			page 34


 355:D:/fchai/work/i-cube/I-CUBE-HUAWEI/Drivers/BSP/Components/lps22hh\lps22hh_reg.c ****     ret = lps22hh_read_reg(ctx, LPS22HH_CTRL_REG2, (uint8_t*)&ctrl_reg2, 1);
 1345              		.loc 1 355 5 is_stmt 1 view .LVU381
 1346              	.LVL108:
 1347              	.LBB292:
 1348              	.LBI292:
  49:D:/fchai/work/i-cube/I-CUBE-HUAWEI/Drivers/BSP/Components/lps22hh\lps22hh_reg.c ****                          uint16_t len)
 1349              		.loc 1 49 9 view .LVU382
 1350              	.LBB293:
  52:D:/fchai/work/i-cube/I-CUBE-HUAWEI/Drivers/BSP/Components/lps22hh\lps22hh_reg.c ****   ret = ctx->read_reg(ctx->handle, reg, data, len);
 1351              		.loc 1 52 3 view .LVU383
  53:D:/fchai/work/i-cube/I-CUBE-HUAWEI/Drivers/BSP/Components/lps22hh\lps22hh_reg.c ****   return ret;
 1352              		.loc 1 53 3 view .LVU384
  53:D:/fchai/work/i-cube/I-CUBE-HUAWEI/Drivers/BSP/Components/lps22hh\lps22hh_reg.c ****   return ret;
 1353              		.loc 1 53 9 is_stmt 0 view .LVU385
 1354 0016 D6E90150 		ldrd	r5, r0, [r6, #4]
 1355              	.LVL109:
  53:D:/fchai/work/i-cube/I-CUBE-HUAWEI/Drivers/BSP/Components/lps22hh\lps22hh_reg.c ****   return ret;
 1356              		.loc 1 53 9 view .LVU386
 1357 001a 01AA     		add	r2, sp, #4
 1358              	.LVL110:
  53:D:/fchai/work/i-cube/I-CUBE-HUAWEI/Drivers/BSP/Components/lps22hh\lps22hh_reg.c ****   return ret;
 1359              		.loc 1 53 9 view .LVU387
 1360 001c 0123     		movs	r3, #1
 1361 001e 1121     		movs	r1, #17
 1362 0020 A847     		blx	r5
 1363              	.LVL111:
  54:D:/fchai/work/i-cube/I-CUBE-HUAWEI/Drivers/BSP/Components/lps22hh\lps22hh_reg.c **** }
 1364              		.loc 1 54 3 is_stmt 1 view .LVU388
  54:D:/fchai/work/i-cube/I-CUBE-HUAWEI/Drivers/BSP/Components/lps22hh\lps22hh_reg.c **** }
 1365              		.loc 1 54 3 is_stmt 0 view .LVU389
 1366              	.LBE293:
 1367              	.LBE292:
 356:D:/fchai/work/i-cube/I-CUBE-HUAWEI/Drivers/BSP/Components/lps22hh\lps22hh_reg.c ****   }
 357:D:/fchai/work/i-cube/I-CUBE-HUAWEI/Drivers/BSP/Components/lps22hh\lps22hh_reg.c ****   if (ret == 0) {
 1368              		.loc 1 357 3 is_stmt 1 view .LVU390
 1369              		.loc 1 357 6 is_stmt 0 view .LVU391
 1370 0022 20BB     		cbnz	r0, .L38
 358:D:/fchai/work/i-cube/I-CUBE-HUAWEI/Drivers/BSP/Components/lps22hh\lps22hh_reg.c ****     ret = lps22hh_read_reg(ctx, LPS22HH_CTRL_REG2, (uint8_t*)&ctrl_reg2, 1);
 1371              		.loc 1 358 5 is_stmt 1 view .LVU392
 1372              	.LVL112:
 1373              	.LBB294:
 1374              	.LBI294:
  49:D:/fchai/work/i-cube/I-CUBE-HUAWEI/Drivers/BSP/Components/lps22hh\lps22hh_reg.c ****                          uint16_t len)
 1375              		.loc 1 49 9 view .LVU393
 1376              	.LBB295:
  52:D:/fchai/work/i-cube/I-CUBE-HUAWEI/Drivers/BSP/Components/lps22hh\lps22hh_reg.c ****   ret = ctx->read_reg(ctx->handle, reg, data, len);
 1377              		.loc 1 52 3 view .LVU394
  53:D:/fchai/work/i-cube/I-CUBE-HUAWEI/Drivers/BSP/Components/lps22hh\lps22hh_reg.c ****   return ret;
 1378              		.loc 1 53 3 view .LVU395
  53:D:/fchai/work/i-cube/I-CUBE-HUAWEI/Drivers/BSP/Components/lps22hh\lps22hh_reg.c ****   return ret;
 1379              		.loc 1 53 9 is_stmt 0 view .LVU396
 1380 0024 01AA     		add	r2, sp, #4
 1381              	.LVL113:
  53:D:/fchai/work/i-cube/I-CUBE-HUAWEI/Drivers/BSP/Components/lps22hh\lps22hh_reg.c ****   return ret;
 1382              		.loc 1 53 9 view .LVU397
 1383 0026 0123     		movs	r3, #1
 1384 0028 1121     		movs	r1, #17
ARM GAS  T:\msys\tmp\ccdfMMY7.s 			page 35


 1385 002a D6E90150 		ldrd	r5, r0, [r6, #4]
 1386              	.LVL114:
  53:D:/fchai/work/i-cube/I-CUBE-HUAWEI/Drivers/BSP/Components/lps22hh\lps22hh_reg.c ****   return ret;
 1387              		.loc 1 53 9 view .LVU398
 1388 002e A847     		blx	r5
 1389              	.LVL115:
  53:D:/fchai/work/i-cube/I-CUBE-HUAWEI/Drivers/BSP/Components/lps22hh\lps22hh_reg.c ****   return ret;
 1390              		.loc 1 53 9 view .LVU399
 1391              	.LBE295:
 1392              	.LBE294:
 359:D:/fchai/work/i-cube/I-CUBE-HUAWEI/Drivers/BSP/Components/lps22hh\lps22hh_reg.c ****     switch (((ctrl_reg2.low_noise_en << 4) + (ctrl_reg2.one_shot << 3) +
 1393              		.loc 1 359 24 view .LVU400
 1394 0030 9DF80420 		ldrb	r2, [sp, #4]	@ zero_extendqisi2
 360:D:/fchai/work/i-cube/I-CUBE-HUAWEI/Drivers/BSP/Components/lps22hh\lps22hh_reg.c ****             ctrl_reg1.odr )) {
 1395              		.loc 1 360 22 view .LVU401
 1396 0034 9DF80010 		ldrb	r1, [sp]	@ zero_extendqisi2
 359:D:/fchai/work/i-cube/I-CUBE-HUAWEI/Drivers/BSP/Components/lps22hh\lps22hh_reg.c ****     switch (((ctrl_reg2.low_noise_en << 4) + (ctrl_reg2.one_shot << 3) +
 1397              		.loc 1 359 56 view .LVU402
 1398 0038 02F00103 		and	r3, r2, #1
 359:D:/fchai/work/i-cube/I-CUBE-HUAWEI/Drivers/BSP/Components/lps22hh\lps22hh_reg.c ****     switch (((ctrl_reg2.low_noise_en << 4) + (ctrl_reg2.one_shot << 3) +
 1399              		.loc 1 359 66 view .LVU403
 1400 003c DB00     		lsls	r3, r3, #3
 359:D:/fchai/work/i-cube/I-CUBE-HUAWEI/Drivers/BSP/Components/lps22hh\lps22hh_reg.c ****     switch (((ctrl_reg2.low_noise_en << 4) + (ctrl_reg2.one_shot << 3) +
 1401              		.loc 1 359 24 view .LVU404
 1402 003e C2F34002 		ubfx	r2, r2, #1, #1
 359:D:/fchai/work/i-cube/I-CUBE-HUAWEI/Drivers/BSP/Components/lps22hh\lps22hh_reg.c ****     switch (((ctrl_reg2.low_noise_en << 4) + (ctrl_reg2.one_shot << 3) +
 1403              		.loc 1 359 44 view .LVU405
 1404 0042 03EB0213 		add	r3, r3, r2, lsl #4
 1405              		.loc 1 360 22 view .LVU406
 1406 0046 C1F30212 		ubfx	r2, r1, #4, #3
 359:D:/fchai/work/i-cube/I-CUBE-HUAWEI/Drivers/BSP/Components/lps22hh\lps22hh_reg.c ****     switch (((ctrl_reg2.low_noise_en << 4) + (ctrl_reg2.one_shot << 3) +
 1407              		.loc 1 359 72 view .LVU407
 1408 004a 1344     		add	r3, r3, r2
 1409              	.LVL116:
 1410              	.LBB297:
 1411              	.LBB296:
  54:D:/fchai/work/i-cube/I-CUBE-HUAWEI/Drivers/BSP/Components/lps22hh\lps22hh_reg.c **** }
 1412              		.loc 1 54 3 is_stmt 1 view .LVU408
  54:D:/fchai/work/i-cube/I-CUBE-HUAWEI/Drivers/BSP/Components/lps22hh\lps22hh_reg.c **** }
 1413              		.loc 1 54 3 is_stmt 0 view .LVU409
 1414              	.LBE296:
 1415              	.LBE297:
 359:D:/fchai/work/i-cube/I-CUBE-HUAWEI/Drivers/BSP/Components/lps22hh\lps22hh_reg.c ****     switch (((ctrl_reg2.low_noise_en << 4) + (ctrl_reg2.one_shot << 3) +
 1416              		.loc 1 359 5 is_stmt 1 view .LVU410
 1417 004c 152B     		cmp	r3, #21
 1418 004e 0CD8     		bhi	.L40
 1419 0050 DFE803F0 		tbb	[pc, r3]
 1420              	.L42:
 1421 0054 0B       		.byte	(.L40-.L42)/2
 1422 0055 33       		.byte	(.L54-.L42)/2
 1423 0056 30       		.byte	(.L53-.L42)/2
 1424 0057 2D       		.byte	(.L52-.L42)/2
 1425 0058 2A       		.byte	(.L51-.L42)/2
 1426 0059 27       		.byte	(.L50-.L42)/2
 1427 005a 24       		.byte	(.L49-.L42)/2
 1428 005b 21       		.byte	(.L48-.L42)/2
 1429 005c 1E       		.byte	(.L47-.L42)/2
ARM GAS  T:\msys\tmp\ccdfMMY7.s 			page 36


 1430 005d 0B       		.byte	(.L40-.L42)/2
 1431 005e 0B       		.byte	(.L40-.L42)/2
 1432 005f 0B       		.byte	(.L40-.L42)/2
 1433 0060 0B       		.byte	(.L40-.L42)/2
 1434 0061 0B       		.byte	(.L40-.L42)/2
 1435 0062 0B       		.byte	(.L40-.L42)/2
 1436 0063 0B       		.byte	(.L40-.L42)/2
 1437 0064 0B       		.byte	(.L40-.L42)/2
 1438 0065 1B       		.byte	(.L46-.L42)/2
 1439 0066 18       		.byte	(.L45-.L42)/2
 1440 0067 15       		.byte	(.L44-.L42)/2
 1441 0068 12       		.byte	(.L43-.L42)/2
 1442 0069 0F       		.byte	(.L41-.L42)/2
 1443              		.p2align 1
 1444              	.L40:
 361:D:/fchai/work/i-cube/I-CUBE-HUAWEI/Drivers/BSP/Components/lps22hh\lps22hh_reg.c ****       case LPS22HH_POWER_DOWN:
 362:D:/fchai/work/i-cube/I-CUBE-HUAWEI/Drivers/BSP/Components/lps22hh\lps22hh_reg.c ****         *val = LPS22HH_POWER_DOWN;
 363:D:/fchai/work/i-cube/I-CUBE-HUAWEI/Drivers/BSP/Components/lps22hh\lps22hh_reg.c ****         break;
 364:D:/fchai/work/i-cube/I-CUBE-HUAWEI/Drivers/BSP/Components/lps22hh\lps22hh_reg.c ****       case LPS22HH_ONE_SHOOT:
 365:D:/fchai/work/i-cube/I-CUBE-HUAWEI/Drivers/BSP/Components/lps22hh\lps22hh_reg.c ****         *val = LPS22HH_ONE_SHOOT;
 366:D:/fchai/work/i-cube/I-CUBE-HUAWEI/Drivers/BSP/Components/lps22hh\lps22hh_reg.c ****         break;
 367:D:/fchai/work/i-cube/I-CUBE-HUAWEI/Drivers/BSP/Components/lps22hh\lps22hh_reg.c ****       case LPS22HH_1_Hz:
 368:D:/fchai/work/i-cube/I-CUBE-HUAWEI/Drivers/BSP/Components/lps22hh\lps22hh_reg.c ****         *val = LPS22HH_1_Hz;
 369:D:/fchai/work/i-cube/I-CUBE-HUAWEI/Drivers/BSP/Components/lps22hh\lps22hh_reg.c ****         break;
 370:D:/fchai/work/i-cube/I-CUBE-HUAWEI/Drivers/BSP/Components/lps22hh\lps22hh_reg.c ****       case LPS22HH_10_Hz:
 371:D:/fchai/work/i-cube/I-CUBE-HUAWEI/Drivers/BSP/Components/lps22hh\lps22hh_reg.c ****         *val = LPS22HH_10_Hz;
 372:D:/fchai/work/i-cube/I-CUBE-HUAWEI/Drivers/BSP/Components/lps22hh\lps22hh_reg.c ****         break;
 373:D:/fchai/work/i-cube/I-CUBE-HUAWEI/Drivers/BSP/Components/lps22hh\lps22hh_reg.c ****       case LPS22HH_25_Hz:
 374:D:/fchai/work/i-cube/I-CUBE-HUAWEI/Drivers/BSP/Components/lps22hh\lps22hh_reg.c ****         *val = LPS22HH_25_Hz;
 375:D:/fchai/work/i-cube/I-CUBE-HUAWEI/Drivers/BSP/Components/lps22hh\lps22hh_reg.c ****         break;
 376:D:/fchai/work/i-cube/I-CUBE-HUAWEI/Drivers/BSP/Components/lps22hh\lps22hh_reg.c ****       case LPS22HH_50_Hz:
 377:D:/fchai/work/i-cube/I-CUBE-HUAWEI/Drivers/BSP/Components/lps22hh\lps22hh_reg.c ****         *val = LPS22HH_50_Hz;
 378:D:/fchai/work/i-cube/I-CUBE-HUAWEI/Drivers/BSP/Components/lps22hh\lps22hh_reg.c ****         break;
 379:D:/fchai/work/i-cube/I-CUBE-HUAWEI/Drivers/BSP/Components/lps22hh\lps22hh_reg.c ****       case LPS22HH_75_Hz:
 380:D:/fchai/work/i-cube/I-CUBE-HUAWEI/Drivers/BSP/Components/lps22hh\lps22hh_reg.c ****         *val = LPS22HH_75_Hz;
 381:D:/fchai/work/i-cube/I-CUBE-HUAWEI/Drivers/BSP/Components/lps22hh\lps22hh_reg.c ****         break;
 382:D:/fchai/work/i-cube/I-CUBE-HUAWEI/Drivers/BSP/Components/lps22hh\lps22hh_reg.c ****       case LPS22HH_1_Hz_LOW_NOISE:
 383:D:/fchai/work/i-cube/I-CUBE-HUAWEI/Drivers/BSP/Components/lps22hh\lps22hh_reg.c ****         *val = LPS22HH_1_Hz_LOW_NOISE;
 384:D:/fchai/work/i-cube/I-CUBE-HUAWEI/Drivers/BSP/Components/lps22hh\lps22hh_reg.c ****         break;
 385:D:/fchai/work/i-cube/I-CUBE-HUAWEI/Drivers/BSP/Components/lps22hh\lps22hh_reg.c ****       case LPS22HH_10_Hz_LOW_NOISE:
 386:D:/fchai/work/i-cube/I-CUBE-HUAWEI/Drivers/BSP/Components/lps22hh\lps22hh_reg.c ****         *val = LPS22HH_10_Hz_LOW_NOISE;
 387:D:/fchai/work/i-cube/I-CUBE-HUAWEI/Drivers/BSP/Components/lps22hh\lps22hh_reg.c ****         break;
 388:D:/fchai/work/i-cube/I-CUBE-HUAWEI/Drivers/BSP/Components/lps22hh\lps22hh_reg.c ****       case LPS22HH_25_Hz_LOW_NOISE:
 389:D:/fchai/work/i-cube/I-CUBE-HUAWEI/Drivers/BSP/Components/lps22hh\lps22hh_reg.c ****         *val = LPS22HH_25_Hz_LOW_NOISE;
 390:D:/fchai/work/i-cube/I-CUBE-HUAWEI/Drivers/BSP/Components/lps22hh\lps22hh_reg.c ****         break;
 391:D:/fchai/work/i-cube/I-CUBE-HUAWEI/Drivers/BSP/Components/lps22hh\lps22hh_reg.c ****       case LPS22HH_50_Hz_LOW_NOISE:
 392:D:/fchai/work/i-cube/I-CUBE-HUAWEI/Drivers/BSP/Components/lps22hh\lps22hh_reg.c ****         *val = LPS22HH_50_Hz_LOW_NOISE;
 393:D:/fchai/work/i-cube/I-CUBE-HUAWEI/Drivers/BSP/Components/lps22hh\lps22hh_reg.c ****         break;
 394:D:/fchai/work/i-cube/I-CUBE-HUAWEI/Drivers/BSP/Components/lps22hh\lps22hh_reg.c ****       case LPS22HH_75_Hz_LOW_NOISE:
 395:D:/fchai/work/i-cube/I-CUBE-HUAWEI/Drivers/BSP/Components/lps22hh\lps22hh_reg.c ****         *val = LPS22HH_75_Hz_LOW_NOISE;
 396:D:/fchai/work/i-cube/I-CUBE-HUAWEI/Drivers/BSP/Components/lps22hh\lps22hh_reg.c ****         break;
 397:D:/fchai/work/i-cube/I-CUBE-HUAWEI/Drivers/BSP/Components/lps22hh\lps22hh_reg.c ****       case LPS22HH_100_Hz:
 398:D:/fchai/work/i-cube/I-CUBE-HUAWEI/Drivers/BSP/Components/lps22hh\lps22hh_reg.c ****         *val = LPS22HH_100_Hz;
 399:D:/fchai/work/i-cube/I-CUBE-HUAWEI/Drivers/BSP/Components/lps22hh\lps22hh_reg.c ****         break;
 400:D:/fchai/work/i-cube/I-CUBE-HUAWEI/Drivers/BSP/Components/lps22hh\lps22hh_reg.c ****       case LPS22HH_200_Hz:
 401:D:/fchai/work/i-cube/I-CUBE-HUAWEI/Drivers/BSP/Components/lps22hh\lps22hh_reg.c ****         *val = LPS22HH_200_Hz;
 402:D:/fchai/work/i-cube/I-CUBE-HUAWEI/Drivers/BSP/Components/lps22hh\lps22hh_reg.c ****         break;
ARM GAS  T:\msys\tmp\ccdfMMY7.s 			page 37


 403:D:/fchai/work/i-cube/I-CUBE-HUAWEI/Drivers/BSP/Components/lps22hh\lps22hh_reg.c ****       default:
 404:D:/fchai/work/i-cube/I-CUBE-HUAWEI/Drivers/BSP/Components/lps22hh\lps22hh_reg.c ****         *val = LPS22HH_POWER_DOWN;
 1445              		.loc 1 404 9 view .LVU411
 1446              		.loc 1 404 14 is_stmt 0 view .LVU412
 1447 006a 0023     		movs	r3, #0
 1448 006c 2370     		strb	r3, [r4]
 405:D:/fchai/work/i-cube/I-CUBE-HUAWEI/Drivers/BSP/Components/lps22hh\lps22hh_reg.c ****         break;
 1449              		.loc 1 405 9 is_stmt 1 view .LVU413
 406:D:/fchai/work/i-cube/I-CUBE-HUAWEI/Drivers/BSP/Components/lps22hh\lps22hh_reg.c ****     }
 407:D:/fchai/work/i-cube/I-CUBE-HUAWEI/Drivers/BSP/Components/lps22hh\lps22hh_reg.c ****   }
 408:D:/fchai/work/i-cube/I-CUBE-HUAWEI/Drivers/BSP/Components/lps22hh\lps22hh_reg.c ****   return ret;
 1450              		.loc 1 408 3 view .LVU414
 1451              	.L38:
 409:D:/fchai/work/i-cube/I-CUBE-HUAWEI/Drivers/BSP/Components/lps22hh\lps22hh_reg.c **** }
 1452              		.loc 1 409 1 is_stmt 0 view .LVU415
 1453 006e 02B0     		add	sp, sp, #8
 1454              	.LCFI39:
 1455              		.cfi_remember_state
 1456              		.cfi_def_cfa_offset 16
 1457              		@ sp needed
 1458 0070 70BD     		pop	{r4, r5, r6, pc}
 1459              	.LVL117:
 1460              	.L41:
 1461              	.LCFI40:
 1462              		.cfi_restore_state
 395:D:/fchai/work/i-cube/I-CUBE-HUAWEI/Drivers/BSP/Components/lps22hh\lps22hh_reg.c ****         break;
 1463              		.loc 1 395 9 is_stmt 1 view .LVU416
 395:D:/fchai/work/i-cube/I-CUBE-HUAWEI/Drivers/BSP/Components/lps22hh\lps22hh_reg.c ****         break;
 1464              		.loc 1 395 14 is_stmt 0 view .LVU417
 1465 0072 1523     		movs	r3, #21
 1466 0074 2370     		strb	r3, [r4]
 396:D:/fchai/work/i-cube/I-CUBE-HUAWEI/Drivers/BSP/Components/lps22hh\lps22hh_reg.c ****       case LPS22HH_100_Hz:
 1467              		.loc 1 396 9 is_stmt 1 view .LVU418
 1468 0076 FAE7     		b	.L38
 1469              	.L43:
 392:D:/fchai/work/i-cube/I-CUBE-HUAWEI/Drivers/BSP/Components/lps22hh\lps22hh_reg.c ****         break;
 1470              		.loc 1 392 9 view .LVU419
 392:D:/fchai/work/i-cube/I-CUBE-HUAWEI/Drivers/BSP/Components/lps22hh\lps22hh_reg.c ****         break;
 1471              		.loc 1 392 14 is_stmt 0 view .LVU420
 1472 0078 1423     		movs	r3, #20
 1473 007a 2370     		strb	r3, [r4]
 393:D:/fchai/work/i-cube/I-CUBE-HUAWEI/Drivers/BSP/Components/lps22hh\lps22hh_reg.c ****       case LPS22HH_75_Hz_LOW_NOISE:
 1474              		.loc 1 393 9 is_stmt 1 view .LVU421
 1475 007c F7E7     		b	.L38
 1476              	.L44:
 389:D:/fchai/work/i-cube/I-CUBE-HUAWEI/Drivers/BSP/Components/lps22hh\lps22hh_reg.c ****         break;
 1477              		.loc 1 389 9 view .LVU422
 389:D:/fchai/work/i-cube/I-CUBE-HUAWEI/Drivers/BSP/Components/lps22hh\lps22hh_reg.c ****         break;
 1478              		.loc 1 389 14 is_stmt 0 view .LVU423
 1479 007e 1323     		movs	r3, #19
 1480 0080 2370     		strb	r3, [r4]
 390:D:/fchai/work/i-cube/I-CUBE-HUAWEI/Drivers/BSP/Components/lps22hh\lps22hh_reg.c ****       case LPS22HH_50_Hz_LOW_NOISE:
 1481              		.loc 1 390 9 is_stmt 1 view .LVU424
 1482 0082 F4E7     		b	.L38
 1483              	.L45:
 386:D:/fchai/work/i-cube/I-CUBE-HUAWEI/Drivers/BSP/Components/lps22hh\lps22hh_reg.c ****         break;
 1484              		.loc 1 386 9 view .LVU425
ARM GAS  T:\msys\tmp\ccdfMMY7.s 			page 38


 386:D:/fchai/work/i-cube/I-CUBE-HUAWEI/Drivers/BSP/Components/lps22hh\lps22hh_reg.c ****         break;
 1485              		.loc 1 386 14 is_stmt 0 view .LVU426
 1486 0084 1223     		movs	r3, #18
 1487 0086 2370     		strb	r3, [r4]
 387:D:/fchai/work/i-cube/I-CUBE-HUAWEI/Drivers/BSP/Components/lps22hh\lps22hh_reg.c ****       case LPS22HH_25_Hz_LOW_NOISE:
 1488              		.loc 1 387 9 is_stmt 1 view .LVU427
 1489 0088 F1E7     		b	.L38
 1490              	.L46:
 383:D:/fchai/work/i-cube/I-CUBE-HUAWEI/Drivers/BSP/Components/lps22hh\lps22hh_reg.c ****         break;
 1491              		.loc 1 383 9 view .LVU428
 383:D:/fchai/work/i-cube/I-CUBE-HUAWEI/Drivers/BSP/Components/lps22hh\lps22hh_reg.c ****         break;
 1492              		.loc 1 383 14 is_stmt 0 view .LVU429
 1493 008a 1123     		movs	r3, #17
 1494 008c 2370     		strb	r3, [r4]
 384:D:/fchai/work/i-cube/I-CUBE-HUAWEI/Drivers/BSP/Components/lps22hh\lps22hh_reg.c ****       case LPS22HH_10_Hz_LOW_NOISE:
 1495              		.loc 1 384 9 is_stmt 1 view .LVU430
 1496 008e EEE7     		b	.L38
 1497              	.L47:
 365:D:/fchai/work/i-cube/I-CUBE-HUAWEI/Drivers/BSP/Components/lps22hh\lps22hh_reg.c ****         break;
 1498              		.loc 1 365 9 view .LVU431
 365:D:/fchai/work/i-cube/I-CUBE-HUAWEI/Drivers/BSP/Components/lps22hh\lps22hh_reg.c ****         break;
 1499              		.loc 1 365 14 is_stmt 0 view .LVU432
 1500 0090 0823     		movs	r3, #8
 1501 0092 2370     		strb	r3, [r4]
 366:D:/fchai/work/i-cube/I-CUBE-HUAWEI/Drivers/BSP/Components/lps22hh\lps22hh_reg.c ****       case LPS22HH_1_Hz:
 1502              		.loc 1 366 9 is_stmt 1 view .LVU433
 1503 0094 EBE7     		b	.L38
 1504              	.L48:
 401:D:/fchai/work/i-cube/I-CUBE-HUAWEI/Drivers/BSP/Components/lps22hh\lps22hh_reg.c ****         break;
 1505              		.loc 1 401 9 view .LVU434
 401:D:/fchai/work/i-cube/I-CUBE-HUAWEI/Drivers/BSP/Components/lps22hh\lps22hh_reg.c ****         break;
 1506              		.loc 1 401 14 is_stmt 0 view .LVU435
 1507 0096 0723     		movs	r3, #7
 1508 0098 2370     		strb	r3, [r4]
 402:D:/fchai/work/i-cube/I-CUBE-HUAWEI/Drivers/BSP/Components/lps22hh\lps22hh_reg.c ****       default:
 1509              		.loc 1 402 9 is_stmt 1 view .LVU436
 1510 009a E8E7     		b	.L38
 1511              	.L49:
 398:D:/fchai/work/i-cube/I-CUBE-HUAWEI/Drivers/BSP/Components/lps22hh\lps22hh_reg.c ****         break;
 1512              		.loc 1 398 9 view .LVU437
 398:D:/fchai/work/i-cube/I-CUBE-HUAWEI/Drivers/BSP/Components/lps22hh\lps22hh_reg.c ****         break;
 1513              		.loc 1 398 14 is_stmt 0 view .LVU438
 1514 009c 0623     		movs	r3, #6
 1515 009e 2370     		strb	r3, [r4]
 399:D:/fchai/work/i-cube/I-CUBE-HUAWEI/Drivers/BSP/Components/lps22hh\lps22hh_reg.c ****       case LPS22HH_200_Hz:
 1516              		.loc 1 399 9 is_stmt 1 view .LVU439
 1517 00a0 E5E7     		b	.L38
 1518              	.L50:
 380:D:/fchai/work/i-cube/I-CUBE-HUAWEI/Drivers/BSP/Components/lps22hh\lps22hh_reg.c ****         break;
 1519              		.loc 1 380 9 view .LVU440
 380:D:/fchai/work/i-cube/I-CUBE-HUAWEI/Drivers/BSP/Components/lps22hh\lps22hh_reg.c ****         break;
 1520              		.loc 1 380 14 is_stmt 0 view .LVU441
 1521 00a2 0523     		movs	r3, #5
 1522 00a4 2370     		strb	r3, [r4]
 381:D:/fchai/work/i-cube/I-CUBE-HUAWEI/Drivers/BSP/Components/lps22hh\lps22hh_reg.c ****       case LPS22HH_1_Hz_LOW_NOISE:
 1523              		.loc 1 381 9 is_stmt 1 view .LVU442
 1524 00a6 E2E7     		b	.L38
ARM GAS  T:\msys\tmp\ccdfMMY7.s 			page 39


 1525              	.L51:
 377:D:/fchai/work/i-cube/I-CUBE-HUAWEI/Drivers/BSP/Components/lps22hh\lps22hh_reg.c ****         break;
 1526              		.loc 1 377 9 view .LVU443
 377:D:/fchai/work/i-cube/I-CUBE-HUAWEI/Drivers/BSP/Components/lps22hh\lps22hh_reg.c ****         break;
 1527              		.loc 1 377 14 is_stmt 0 view .LVU444
 1528 00a8 0423     		movs	r3, #4
 1529 00aa 2370     		strb	r3, [r4]
 378:D:/fchai/work/i-cube/I-CUBE-HUAWEI/Drivers/BSP/Components/lps22hh\lps22hh_reg.c ****       case LPS22HH_75_Hz:
 1530              		.loc 1 378 9 is_stmt 1 view .LVU445
 1531 00ac DFE7     		b	.L38
 1532              	.L52:
 374:D:/fchai/work/i-cube/I-CUBE-HUAWEI/Drivers/BSP/Components/lps22hh\lps22hh_reg.c ****         break;
 1533              		.loc 1 374 9 view .LVU446
 374:D:/fchai/work/i-cube/I-CUBE-HUAWEI/Drivers/BSP/Components/lps22hh\lps22hh_reg.c ****         break;
 1534              		.loc 1 374 14 is_stmt 0 view .LVU447
 1535 00ae 0323     		movs	r3, #3
 1536 00b0 2370     		strb	r3, [r4]
 375:D:/fchai/work/i-cube/I-CUBE-HUAWEI/Drivers/BSP/Components/lps22hh\lps22hh_reg.c ****       case LPS22HH_50_Hz:
 1537              		.loc 1 375 9 is_stmt 1 view .LVU448
 1538 00b2 DCE7     		b	.L38
 1539              	.L53:
 371:D:/fchai/work/i-cube/I-CUBE-HUAWEI/Drivers/BSP/Components/lps22hh\lps22hh_reg.c ****         break;
 1540              		.loc 1 371 9 view .LVU449
 371:D:/fchai/work/i-cube/I-CUBE-HUAWEI/Drivers/BSP/Components/lps22hh\lps22hh_reg.c ****         break;
 1541              		.loc 1 371 14 is_stmt 0 view .LVU450
 1542 00b4 0223     		movs	r3, #2
 1543 00b6 2370     		strb	r3, [r4]
 372:D:/fchai/work/i-cube/I-CUBE-HUAWEI/Drivers/BSP/Components/lps22hh\lps22hh_reg.c ****       case LPS22HH_25_Hz:
 1544              		.loc 1 372 9 is_stmt 1 view .LVU451
 1545 00b8 D9E7     		b	.L38
 1546              	.L54:
 368:D:/fchai/work/i-cube/I-CUBE-HUAWEI/Drivers/BSP/Components/lps22hh\lps22hh_reg.c ****         break;
 1547              		.loc 1 368 9 view .LVU452
 368:D:/fchai/work/i-cube/I-CUBE-HUAWEI/Drivers/BSP/Components/lps22hh\lps22hh_reg.c ****         break;
 1548              		.loc 1 368 14 is_stmt 0 view .LVU453
 1549 00ba 0123     		movs	r3, #1
 1550 00bc 2370     		strb	r3, [r4]
 369:D:/fchai/work/i-cube/I-CUBE-HUAWEI/Drivers/BSP/Components/lps22hh\lps22hh_reg.c ****       case LPS22HH_10_Hz:
 1551              		.loc 1 369 9 is_stmt 1 view .LVU454
 1552 00be D6E7     		b	.L38
 1553              		.cfi_endproc
 1554              	.LFE15:
 1556              		.section	.text.lps22hh_pressure_ref_set,"ax",%progbits
 1557              		.align	1
 1558              		.p2align 2,,3
 1559              		.global	lps22hh_pressure_ref_set
 1560              		.syntax unified
 1561              		.thumb
 1562              		.thumb_func
 1563              		.fpu fpv4-sp-d16
 1565              	lps22hh_pressure_ref_set:
 1566              	.LVL118:
 1567              	.LFB16:
 410:D:/fchai/work/i-cube/I-CUBE-HUAWEI/Drivers/BSP/Components/lps22hh\lps22hh_reg.c **** 
 411:D:/fchai/work/i-cube/I-CUBE-HUAWEI/Drivers/BSP/Components/lps22hh\lps22hh_reg.c **** /**
 412:D:/fchai/work/i-cube/I-CUBE-HUAWEI/Drivers/BSP/Components/lps22hh\lps22hh_reg.c ****   * @brief  The Reference pressure value is a 16-bit data
 413:D:/fchai/work/i-cube/I-CUBE-HUAWEI/Drivers/BSP/Components/lps22hh\lps22hh_reg.c ****   *         expressed as 2s complement. The value is used
ARM GAS  T:\msys\tmp\ccdfMMY7.s 			page 40


 414:D:/fchai/work/i-cube/I-CUBE-HUAWEI/Drivers/BSP/Components/lps22hh\lps22hh_reg.c ****   *         when AUTOZERO or AUTORIFP function is enabled.[set]
 415:D:/fchai/work/i-cube/I-CUBE-HUAWEI/Drivers/BSP/Components/lps22hh\lps22hh_reg.c ****   *
 416:D:/fchai/work/i-cube/I-CUBE-HUAWEI/Drivers/BSP/Components/lps22hh\lps22hh_reg.c ****   * @param  ctx      read / write interface definitions
 417:D:/fchai/work/i-cube/I-CUBE-HUAWEI/Drivers/BSP/Components/lps22hh\lps22hh_reg.c ****   * @param  buff     buffer that contains data to write
 418:D:/fchai/work/i-cube/I-CUBE-HUAWEI/Drivers/BSP/Components/lps22hh\lps22hh_reg.c ****   * @retval          interface status (MANDATORY: return 0 -> no Error)
 419:D:/fchai/work/i-cube/I-CUBE-HUAWEI/Drivers/BSP/Components/lps22hh\lps22hh_reg.c ****   *
 420:D:/fchai/work/i-cube/I-CUBE-HUAWEI/Drivers/BSP/Components/lps22hh\lps22hh_reg.c ****   */
 421:D:/fchai/work/i-cube/I-CUBE-HUAWEI/Drivers/BSP/Components/lps22hh\lps22hh_reg.c **** int32_t lps22hh_pressure_ref_set(stmdev_ctx_t *ctx, uint8_t *buff)
 422:D:/fchai/work/i-cube/I-CUBE-HUAWEI/Drivers/BSP/Components/lps22hh\lps22hh_reg.c **** {
 1568              		.loc 1 422 1 view -0
 1569              		.cfi_startproc
 1570              		@ args = 0, pretend = 0, frame = 0
 1571              		@ frame_needed = 0, uses_anonymous_args = 0
 1572              		@ link register save eliminated.
 423:D:/fchai/work/i-cube/I-CUBE-HUAWEI/Drivers/BSP/Components/lps22hh\lps22hh_reg.c ****   int32_t ret;
 1573              		.loc 1 423 3 view .LVU456
 424:D:/fchai/work/i-cube/I-CUBE-HUAWEI/Drivers/BSP/Components/lps22hh\lps22hh_reg.c ****   ret = lps22hh_write_reg(ctx, LPS22HH_REF_P_L, buff, 2);
 1574              		.loc 1 424 3 view .LVU457
 422:D:/fchai/work/i-cube/I-CUBE-HUAWEI/Drivers/BSP/Components/lps22hh\lps22hh_reg.c ****   int32_t ret;
 1575              		.loc 1 422 1 is_stmt 0 view .LVU458
 1576 0000 10B4     		push	{r4}
 1577              	.LCFI41:
 1578              		.cfi_def_cfa_offset 4
 1579              		.cfi_offset 4, -4
 1580              	.LBB298:
 1581              	.LBB299:
  71:D:/fchai/work/i-cube/I-CUBE-HUAWEI/Drivers/BSP/Components/lps22hh\lps22hh_reg.c ****   return ret;
 1582              		.loc 1 71 9 view .LVU459
 1583 0002 0468     		ldr	r4, [r0]
 1584 0004 8068     		ldr	r0, [r0, #8]
 1585              	.LVL119:
  71:D:/fchai/work/i-cube/I-CUBE-HUAWEI/Drivers/BSP/Components/lps22hh\lps22hh_reg.c ****   return ret;
 1586              		.loc 1 71 9 view .LVU460
 1587              	.LBE299:
 1588              	.LBE298:
 422:D:/fchai/work/i-cube/I-CUBE-HUAWEI/Drivers/BSP/Components/lps22hh\lps22hh_reg.c ****   int32_t ret;
 1589              		.loc 1 422 1 view .LVU461
 1590 0006 0A46     		mov	r2, r1
 1591              	.LVL120:
 1592              	.LBB302:
 1593              	.LBI298:
  67:D:/fchai/work/i-cube/I-CUBE-HUAWEI/Drivers/BSP/Components/lps22hh\lps22hh_reg.c ****                            uint16_t len)
 1594              		.loc 1 67 9 is_stmt 1 view .LVU462
 1595              	.LBB300:
  70:D:/fchai/work/i-cube/I-CUBE-HUAWEI/Drivers/BSP/Components/lps22hh\lps22hh_reg.c ****   ret = ctx->write_reg(ctx->handle, reg, data, len);
 1596              		.loc 1 70 3 view .LVU463
  71:D:/fchai/work/i-cube/I-CUBE-HUAWEI/Drivers/BSP/Components/lps22hh\lps22hh_reg.c ****   return ret;
 1597              		.loc 1 71 3 view .LVU464
  71:D:/fchai/work/i-cube/I-CUBE-HUAWEI/Drivers/BSP/Components/lps22hh\lps22hh_reg.c ****   return ret;
 1598              		.loc 1 71 9 is_stmt 0 view .LVU465
 1599 0008 A446     		mov	ip, r4
 1600 000a 0223     		movs	r3, #2
 1601              	.LBE300:
 1602              	.LBE302:
 425:D:/fchai/work/i-cube/I-CUBE-HUAWEI/Drivers/BSP/Components/lps22hh\lps22hh_reg.c ****   return ret;
 426:D:/fchai/work/i-cube/I-CUBE-HUAWEI/Drivers/BSP/Components/lps22hh\lps22hh_reg.c **** }
 1603              		.loc 1 426 1 view .LVU466
ARM GAS  T:\msys\tmp\ccdfMMY7.s 			page 41


 1604 000c 5DF8044B 		ldr	r4, [sp], #4
 1605              	.LCFI42:
 1606              		.cfi_restore 4
 1607              		.cfi_def_cfa_offset 0
 1608              	.LBB303:
 1609              	.LBB301:
  71:D:/fchai/work/i-cube/I-CUBE-HUAWEI/Drivers/BSP/Components/lps22hh\lps22hh_reg.c ****   return ret;
 1610              		.loc 1 71 9 view .LVU467
 1611 0010 1521     		movs	r1, #21
 1612              	.LVL121:
  71:D:/fchai/work/i-cube/I-CUBE-HUAWEI/Drivers/BSP/Components/lps22hh\lps22hh_reg.c ****   return ret;
 1613              		.loc 1 71 9 view .LVU468
 1614 0012 6047     		bx	ip
 1615              	.LVL122:
  71:D:/fchai/work/i-cube/I-CUBE-HUAWEI/Drivers/BSP/Components/lps22hh\lps22hh_reg.c ****   return ret;
 1616              		.loc 1 71 9 view .LVU469
 1617              	.LBE301:
 1618              	.LBE303:
 1619              		.cfi_endproc
 1620              	.LFE16:
 1622              		.section	.text.lps22hh_pressure_ref_get,"ax",%progbits
 1623              		.align	1
 1624              		.p2align 2,,3
 1625              		.global	lps22hh_pressure_ref_get
 1626              		.syntax unified
 1627              		.thumb
 1628              		.thumb_func
 1629              		.fpu fpv4-sp-d16
 1631              	lps22hh_pressure_ref_get:
 1632              	.LVL123:
 1633              	.LFB17:
 427:D:/fchai/work/i-cube/I-CUBE-HUAWEI/Drivers/BSP/Components/lps22hh\lps22hh_reg.c **** 
 428:D:/fchai/work/i-cube/I-CUBE-HUAWEI/Drivers/BSP/Components/lps22hh\lps22hh_reg.c **** /**
 429:D:/fchai/work/i-cube/I-CUBE-HUAWEI/Drivers/BSP/Components/lps22hh\lps22hh_reg.c ****   * @brief  The Reference pressure value is a 16-bit
 430:D:/fchai/work/i-cube/I-CUBE-HUAWEI/Drivers/BSP/Components/lps22hh\lps22hh_reg.c ****   *         data expressed as 2s complement.
 431:D:/fchai/work/i-cube/I-CUBE-HUAWEI/Drivers/BSP/Components/lps22hh\lps22hh_reg.c ****   *         The value is used when AUTOZERO or AUTORIFP
 432:D:/fchai/work/i-cube/I-CUBE-HUAWEI/Drivers/BSP/Components/lps22hh\lps22hh_reg.c ****   *         function is enabled.[get]
 433:D:/fchai/work/i-cube/I-CUBE-HUAWEI/Drivers/BSP/Components/lps22hh\lps22hh_reg.c ****   *
 434:D:/fchai/work/i-cube/I-CUBE-HUAWEI/Drivers/BSP/Components/lps22hh\lps22hh_reg.c ****   * @param  ctx      read / write interface definitions
 435:D:/fchai/work/i-cube/I-CUBE-HUAWEI/Drivers/BSP/Components/lps22hh\lps22hh_reg.c ****   * @param  buff     buffer that stores data read
 436:D:/fchai/work/i-cube/I-CUBE-HUAWEI/Drivers/BSP/Components/lps22hh\lps22hh_reg.c ****   * @retval          interface status (MANDATORY: return 0 -> no Error)
 437:D:/fchai/work/i-cube/I-CUBE-HUAWEI/Drivers/BSP/Components/lps22hh\lps22hh_reg.c ****   *
 438:D:/fchai/work/i-cube/I-CUBE-HUAWEI/Drivers/BSP/Components/lps22hh\lps22hh_reg.c ****   */
 439:D:/fchai/work/i-cube/I-CUBE-HUAWEI/Drivers/BSP/Components/lps22hh\lps22hh_reg.c **** int32_t lps22hh_pressure_ref_get(stmdev_ctx_t *ctx, uint8_t *buff)
 440:D:/fchai/work/i-cube/I-CUBE-HUAWEI/Drivers/BSP/Components/lps22hh\lps22hh_reg.c **** {
 1634              		.loc 1 440 1 is_stmt 1 view -0
 1635              		.cfi_startproc
 1636              		@ args = 0, pretend = 0, frame = 0
 1637              		@ frame_needed = 0, uses_anonymous_args = 0
 1638              		@ link register save eliminated.
 441:D:/fchai/work/i-cube/I-CUBE-HUAWEI/Drivers/BSP/Components/lps22hh\lps22hh_reg.c ****   int32_t ret;
 1639              		.loc 1 441 3 view .LVU471
 442:D:/fchai/work/i-cube/I-CUBE-HUAWEI/Drivers/BSP/Components/lps22hh\lps22hh_reg.c ****   ret =  lps22hh_read_reg(ctx, LPS22HH_REF_P_L, buff, 2);
 1640              		.loc 1 442 3 view .LVU472
 440:D:/fchai/work/i-cube/I-CUBE-HUAWEI/Drivers/BSP/Components/lps22hh\lps22hh_reg.c ****   int32_t ret;
 1641              		.loc 1 440 1 is_stmt 0 view .LVU473
 1642 0000 10B4     		push	{r4}
ARM GAS  T:\msys\tmp\ccdfMMY7.s 			page 42


 1643              	.LCFI43:
 1644              		.cfi_def_cfa_offset 4
 1645              		.cfi_offset 4, -4
 1646              	.LBB304:
 1647              	.LBB305:
  53:D:/fchai/work/i-cube/I-CUBE-HUAWEI/Drivers/BSP/Components/lps22hh\lps22hh_reg.c ****   return ret;
 1648              		.loc 1 53 9 view .LVU474
 1649 0002 D0E90140 		ldrd	r4, r0, [r0, #4]
 1650              	.LVL124:
  53:D:/fchai/work/i-cube/I-CUBE-HUAWEI/Drivers/BSP/Components/lps22hh\lps22hh_reg.c ****   return ret;
 1651              		.loc 1 53 9 view .LVU475
 1652              	.LBE305:
 1653              	.LBE304:
 440:D:/fchai/work/i-cube/I-CUBE-HUAWEI/Drivers/BSP/Components/lps22hh\lps22hh_reg.c ****   int32_t ret;
 1654              		.loc 1 440 1 view .LVU476
 1655 0006 0A46     		mov	r2, r1
 1656              	.LVL125:
 1657              	.LBB308:
 1658              	.LBI304:
  49:D:/fchai/work/i-cube/I-CUBE-HUAWEI/Drivers/BSP/Components/lps22hh\lps22hh_reg.c ****                          uint16_t len)
 1659              		.loc 1 49 9 is_stmt 1 view .LVU477
 1660              	.LBB306:
  52:D:/fchai/work/i-cube/I-CUBE-HUAWEI/Drivers/BSP/Components/lps22hh\lps22hh_reg.c ****   ret = ctx->read_reg(ctx->handle, reg, data, len);
 1661              		.loc 1 52 3 view .LVU478
  53:D:/fchai/work/i-cube/I-CUBE-HUAWEI/Drivers/BSP/Components/lps22hh\lps22hh_reg.c ****   return ret;
 1662              		.loc 1 53 3 view .LVU479
  53:D:/fchai/work/i-cube/I-CUBE-HUAWEI/Drivers/BSP/Components/lps22hh\lps22hh_reg.c ****   return ret;
 1663              		.loc 1 53 9 is_stmt 0 view .LVU480
 1664 0008 A446     		mov	ip, r4
 1665 000a 0223     		movs	r3, #2
 1666              	.LBE306:
 1667              	.LBE308:
 443:D:/fchai/work/i-cube/I-CUBE-HUAWEI/Drivers/BSP/Components/lps22hh\lps22hh_reg.c ****   return ret;
 444:D:/fchai/work/i-cube/I-CUBE-HUAWEI/Drivers/BSP/Components/lps22hh\lps22hh_reg.c **** }
 1668              		.loc 1 444 1 view .LVU481
 1669 000c 5DF8044B 		ldr	r4, [sp], #4
 1670              	.LCFI44:
 1671              		.cfi_restore 4
 1672              		.cfi_def_cfa_offset 0
 1673              	.LBB309:
 1674              	.LBB307:
  53:D:/fchai/work/i-cube/I-CUBE-HUAWEI/Drivers/BSP/Components/lps22hh\lps22hh_reg.c ****   return ret;
 1675              		.loc 1 53 9 view .LVU482
 1676 0010 1521     		movs	r1, #21
 1677              	.LVL126:
  53:D:/fchai/work/i-cube/I-CUBE-HUAWEI/Drivers/BSP/Components/lps22hh\lps22hh_reg.c ****   return ret;
 1678              		.loc 1 53 9 view .LVU483
 1679 0012 6047     		bx	ip
 1680              	.LVL127:
  53:D:/fchai/work/i-cube/I-CUBE-HUAWEI/Drivers/BSP/Components/lps22hh\lps22hh_reg.c ****   return ret;
 1681              		.loc 1 53 9 view .LVU484
 1682              	.LBE307:
 1683              	.LBE309:
 1684              		.cfi_endproc
 1685              	.LFE17:
 1687              		.section	.text.lps22hh_pressure_offset_set,"ax",%progbits
 1688              		.align	1
ARM GAS  T:\msys\tmp\ccdfMMY7.s 			page 43


 1689              		.p2align 2,,3
 1690              		.global	lps22hh_pressure_offset_set
 1691              		.syntax unified
 1692              		.thumb
 1693              		.thumb_func
 1694              		.fpu fpv4-sp-d16
 1696              	lps22hh_pressure_offset_set:
 1697              	.LVL128:
 1698              	.LFB18:
 445:D:/fchai/work/i-cube/I-CUBE-HUAWEI/Drivers/BSP/Components/lps22hh\lps22hh_reg.c **** 
 446:D:/fchai/work/i-cube/I-CUBE-HUAWEI/Drivers/BSP/Components/lps22hh\lps22hh_reg.c **** /**
 447:D:/fchai/work/i-cube/I-CUBE-HUAWEI/Drivers/BSP/Components/lps22hh\lps22hh_reg.c ****   * @brief  The pressure offset value is 16-bit data
 448:D:/fchai/work/i-cube/I-CUBE-HUAWEI/Drivers/BSP/Components/lps22hh\lps22hh_reg.c ****   *         that can be used to implement one-point
 449:D:/fchai/work/i-cube/I-CUBE-HUAWEI/Drivers/BSP/Components/lps22hh\lps22hh_reg.c ****   *         calibration (OPC) after soldering.[set]
 450:D:/fchai/work/i-cube/I-CUBE-HUAWEI/Drivers/BSP/Components/lps22hh\lps22hh_reg.c ****   *
 451:D:/fchai/work/i-cube/I-CUBE-HUAWEI/Drivers/BSP/Components/lps22hh\lps22hh_reg.c ****   * @param  ctx      read / write interface definitions
 452:D:/fchai/work/i-cube/I-CUBE-HUAWEI/Drivers/BSP/Components/lps22hh\lps22hh_reg.c ****   * @param  buff     buffer that contains data to write
 453:D:/fchai/work/i-cube/I-CUBE-HUAWEI/Drivers/BSP/Components/lps22hh\lps22hh_reg.c ****   * @retval          interface status (MANDATORY: return 0 -> no Error)
 454:D:/fchai/work/i-cube/I-CUBE-HUAWEI/Drivers/BSP/Components/lps22hh\lps22hh_reg.c ****   *
 455:D:/fchai/work/i-cube/I-CUBE-HUAWEI/Drivers/BSP/Components/lps22hh\lps22hh_reg.c ****   */
 456:D:/fchai/work/i-cube/I-CUBE-HUAWEI/Drivers/BSP/Components/lps22hh\lps22hh_reg.c **** int32_t lps22hh_pressure_offset_set(stmdev_ctx_t *ctx, uint8_t *buff)
 457:D:/fchai/work/i-cube/I-CUBE-HUAWEI/Drivers/BSP/Components/lps22hh\lps22hh_reg.c **** {
 1699              		.loc 1 457 1 is_stmt 1 view -0
 1700              		.cfi_startproc
 1701              		@ args = 0, pretend = 0, frame = 0
 1702              		@ frame_needed = 0, uses_anonymous_args = 0
 1703              		@ link register save eliminated.
 458:D:/fchai/work/i-cube/I-CUBE-HUAWEI/Drivers/BSP/Components/lps22hh\lps22hh_reg.c ****   int32_t ret;
 1704              		.loc 1 458 3 view .LVU486
 459:D:/fchai/work/i-cube/I-CUBE-HUAWEI/Drivers/BSP/Components/lps22hh\lps22hh_reg.c ****   ret =  lps22hh_write_reg(ctx, LPS22HH_RPDS_L, buff, 2);
 1705              		.loc 1 459 3 view .LVU487
 457:D:/fchai/work/i-cube/I-CUBE-HUAWEI/Drivers/BSP/Components/lps22hh\lps22hh_reg.c ****   int32_t ret;
 1706              		.loc 1 457 1 is_stmt 0 view .LVU488
 1707 0000 10B4     		push	{r4}
 1708              	.LCFI45:
 1709              		.cfi_def_cfa_offset 4
 1710              		.cfi_offset 4, -4
 1711              	.LBB310:
 1712              	.LBB311:
  71:D:/fchai/work/i-cube/I-CUBE-HUAWEI/Drivers/BSP/Components/lps22hh\lps22hh_reg.c ****   return ret;
 1713              		.loc 1 71 9 view .LVU489
 1714 0002 0468     		ldr	r4, [r0]
 1715 0004 8068     		ldr	r0, [r0, #8]
 1716              	.LVL129:
  71:D:/fchai/work/i-cube/I-CUBE-HUAWEI/Drivers/BSP/Components/lps22hh\lps22hh_reg.c ****   return ret;
 1717              		.loc 1 71 9 view .LVU490
 1718              	.LBE311:
 1719              	.LBE310:
 457:D:/fchai/work/i-cube/I-CUBE-HUAWEI/Drivers/BSP/Components/lps22hh\lps22hh_reg.c ****   int32_t ret;
 1720              		.loc 1 457 1 view .LVU491
 1721 0006 0A46     		mov	r2, r1
 1722              	.LVL130:
 1723              	.LBB314:
 1724              	.LBI310:
  67:D:/fchai/work/i-cube/I-CUBE-HUAWEI/Drivers/BSP/Components/lps22hh\lps22hh_reg.c ****                            uint16_t len)
 1725              		.loc 1 67 9 is_stmt 1 view .LVU492
 1726              	.LBB312:
ARM GAS  T:\msys\tmp\ccdfMMY7.s 			page 44


  70:D:/fchai/work/i-cube/I-CUBE-HUAWEI/Drivers/BSP/Components/lps22hh\lps22hh_reg.c ****   ret = ctx->write_reg(ctx->handle, reg, data, len);
 1727              		.loc 1 70 3 view .LVU493
  71:D:/fchai/work/i-cube/I-CUBE-HUAWEI/Drivers/BSP/Components/lps22hh\lps22hh_reg.c ****   return ret;
 1728              		.loc 1 71 3 view .LVU494
  71:D:/fchai/work/i-cube/I-CUBE-HUAWEI/Drivers/BSP/Components/lps22hh\lps22hh_reg.c ****   return ret;
 1729              		.loc 1 71 9 is_stmt 0 view .LVU495
 1730 0008 A446     		mov	ip, r4
 1731 000a 0223     		movs	r3, #2
 1732              	.LBE312:
 1733              	.LBE314:
 460:D:/fchai/work/i-cube/I-CUBE-HUAWEI/Drivers/BSP/Components/lps22hh\lps22hh_reg.c ****   return ret;
 461:D:/fchai/work/i-cube/I-CUBE-HUAWEI/Drivers/BSP/Components/lps22hh\lps22hh_reg.c **** }
 1734              		.loc 1 461 1 view .LVU496
 1735 000c 5DF8044B 		ldr	r4, [sp], #4
 1736              	.LCFI46:
 1737              		.cfi_restore 4
 1738              		.cfi_def_cfa_offset 0
 1739              	.LBB315:
 1740              	.LBB313:
  71:D:/fchai/work/i-cube/I-CUBE-HUAWEI/Drivers/BSP/Components/lps22hh\lps22hh_reg.c ****   return ret;
 1741              		.loc 1 71 9 view .LVU497
 1742 0010 1821     		movs	r1, #24
 1743              	.LVL131:
  71:D:/fchai/work/i-cube/I-CUBE-HUAWEI/Drivers/BSP/Components/lps22hh\lps22hh_reg.c ****   return ret;
 1744              		.loc 1 71 9 view .LVU498
 1745 0012 6047     		bx	ip
 1746              	.LVL132:
  71:D:/fchai/work/i-cube/I-CUBE-HUAWEI/Drivers/BSP/Components/lps22hh\lps22hh_reg.c ****   return ret;
 1747              		.loc 1 71 9 view .LVU499
 1748              	.LBE313:
 1749              	.LBE315:
 1750              		.cfi_endproc
 1751              	.LFE18:
 1753              		.section	.text.lps22hh_pressure_offset_get,"ax",%progbits
 1754              		.align	1
 1755              		.p2align 2,,3
 1756              		.global	lps22hh_pressure_offset_get
 1757              		.syntax unified
 1758              		.thumb
 1759              		.thumb_func
 1760              		.fpu fpv4-sp-d16
 1762              	lps22hh_pressure_offset_get:
 1763              	.LVL133:
 1764              	.LFB19:
 462:D:/fchai/work/i-cube/I-CUBE-HUAWEI/Drivers/BSP/Components/lps22hh\lps22hh_reg.c **** 
 463:D:/fchai/work/i-cube/I-CUBE-HUAWEI/Drivers/BSP/Components/lps22hh\lps22hh_reg.c **** /**
 464:D:/fchai/work/i-cube/I-CUBE-HUAWEI/Drivers/BSP/Components/lps22hh\lps22hh_reg.c ****   * @brief  The pressure offset value is 16-bit
 465:D:/fchai/work/i-cube/I-CUBE-HUAWEI/Drivers/BSP/Components/lps22hh\lps22hh_reg.c ****   *         data that can be used to implement
 466:D:/fchai/work/i-cube/I-CUBE-HUAWEI/Drivers/BSP/Components/lps22hh\lps22hh_reg.c ****   *         one-point calibration (OPC) after
 467:D:/fchai/work/i-cube/I-CUBE-HUAWEI/Drivers/BSP/Components/lps22hh\lps22hh_reg.c ****   *         soldering.[get]
 468:D:/fchai/work/i-cube/I-CUBE-HUAWEI/Drivers/BSP/Components/lps22hh\lps22hh_reg.c ****   *
 469:D:/fchai/work/i-cube/I-CUBE-HUAWEI/Drivers/BSP/Components/lps22hh\lps22hh_reg.c ****   * @param  ctx      read / write interface definitions
 470:D:/fchai/work/i-cube/I-CUBE-HUAWEI/Drivers/BSP/Components/lps22hh\lps22hh_reg.c ****   * @param  buff     buffer that stores data read
 471:D:/fchai/work/i-cube/I-CUBE-HUAWEI/Drivers/BSP/Components/lps22hh\lps22hh_reg.c ****   * @retval          interface status (MANDATORY: return 0 -> no Error)
 472:D:/fchai/work/i-cube/I-CUBE-HUAWEI/Drivers/BSP/Components/lps22hh\lps22hh_reg.c ****   *
 473:D:/fchai/work/i-cube/I-CUBE-HUAWEI/Drivers/BSP/Components/lps22hh\lps22hh_reg.c ****   */
 474:D:/fchai/work/i-cube/I-CUBE-HUAWEI/Drivers/BSP/Components/lps22hh\lps22hh_reg.c **** int32_t lps22hh_pressure_offset_get(stmdev_ctx_t *ctx, uint8_t *buff)
ARM GAS  T:\msys\tmp\ccdfMMY7.s 			page 45


 475:D:/fchai/work/i-cube/I-CUBE-HUAWEI/Drivers/BSP/Components/lps22hh\lps22hh_reg.c **** {
 1765              		.loc 1 475 1 is_stmt 1 view -0
 1766              		.cfi_startproc
 1767              		@ args = 0, pretend = 0, frame = 0
 1768              		@ frame_needed = 0, uses_anonymous_args = 0
 1769              		@ link register save eliminated.
 476:D:/fchai/work/i-cube/I-CUBE-HUAWEI/Drivers/BSP/Components/lps22hh\lps22hh_reg.c ****   int32_t ret;
 1770              		.loc 1 476 3 view .LVU501
 477:D:/fchai/work/i-cube/I-CUBE-HUAWEI/Drivers/BSP/Components/lps22hh\lps22hh_reg.c ****   ret =  lps22hh_read_reg(ctx, LPS22HH_RPDS_L, buff, 2);
 1771              		.loc 1 477 3 view .LVU502
 475:D:/fchai/work/i-cube/I-CUBE-HUAWEI/Drivers/BSP/Components/lps22hh\lps22hh_reg.c ****   int32_t ret;
 1772              		.loc 1 475 1 is_stmt 0 view .LVU503
 1773 0000 10B4     		push	{r4}
 1774              	.LCFI47:
 1775              		.cfi_def_cfa_offset 4
 1776              		.cfi_offset 4, -4
 1777              	.LBB316:
 1778              	.LBB317:
  53:D:/fchai/work/i-cube/I-CUBE-HUAWEI/Drivers/BSP/Components/lps22hh\lps22hh_reg.c ****   return ret;
 1779              		.loc 1 53 9 view .LVU504
 1780 0002 D0E90140 		ldrd	r4, r0, [r0, #4]
 1781              	.LVL134:
  53:D:/fchai/work/i-cube/I-CUBE-HUAWEI/Drivers/BSP/Components/lps22hh\lps22hh_reg.c ****   return ret;
 1782              		.loc 1 53 9 view .LVU505
 1783              	.LBE317:
 1784              	.LBE316:
 475:D:/fchai/work/i-cube/I-CUBE-HUAWEI/Drivers/BSP/Components/lps22hh\lps22hh_reg.c ****   int32_t ret;
 1785              		.loc 1 475 1 view .LVU506
 1786 0006 0A46     		mov	r2, r1
 1787              	.LVL135:
 1788              	.LBB320:
 1789              	.LBI316:
  49:D:/fchai/work/i-cube/I-CUBE-HUAWEI/Drivers/BSP/Components/lps22hh\lps22hh_reg.c ****                          uint16_t len)
 1790              		.loc 1 49 9 is_stmt 1 view .LVU507
 1791              	.LBB318:
  52:D:/fchai/work/i-cube/I-CUBE-HUAWEI/Drivers/BSP/Components/lps22hh\lps22hh_reg.c ****   ret = ctx->read_reg(ctx->handle, reg, data, len);
 1792              		.loc 1 52 3 view .LVU508
  53:D:/fchai/work/i-cube/I-CUBE-HUAWEI/Drivers/BSP/Components/lps22hh\lps22hh_reg.c ****   return ret;
 1793              		.loc 1 53 3 view .LVU509
  53:D:/fchai/work/i-cube/I-CUBE-HUAWEI/Drivers/BSP/Components/lps22hh\lps22hh_reg.c ****   return ret;
 1794              		.loc 1 53 9 is_stmt 0 view .LVU510
 1795 0008 A446     		mov	ip, r4
 1796 000a 0223     		movs	r3, #2
 1797              	.LBE318:
 1798              	.LBE320:
 478:D:/fchai/work/i-cube/I-CUBE-HUAWEI/Drivers/BSP/Components/lps22hh\lps22hh_reg.c ****   return ret;
 479:D:/fchai/work/i-cube/I-CUBE-HUAWEI/Drivers/BSP/Components/lps22hh\lps22hh_reg.c **** }
 1799              		.loc 1 479 1 view .LVU511
 1800 000c 5DF8044B 		ldr	r4, [sp], #4
 1801              	.LCFI48:
 1802              		.cfi_restore 4
 1803              		.cfi_def_cfa_offset 0
 1804              	.LBB321:
 1805              	.LBB319:
  53:D:/fchai/work/i-cube/I-CUBE-HUAWEI/Drivers/BSP/Components/lps22hh\lps22hh_reg.c ****   return ret;
 1806              		.loc 1 53 9 view .LVU512
 1807 0010 1821     		movs	r1, #24
ARM GAS  T:\msys\tmp\ccdfMMY7.s 			page 46


 1808              	.LVL136:
  53:D:/fchai/work/i-cube/I-CUBE-HUAWEI/Drivers/BSP/Components/lps22hh\lps22hh_reg.c ****   return ret;
 1809              		.loc 1 53 9 view .LVU513
 1810 0012 6047     		bx	ip
 1811              	.LVL137:
  53:D:/fchai/work/i-cube/I-CUBE-HUAWEI/Drivers/BSP/Components/lps22hh\lps22hh_reg.c ****   return ret;
 1812              		.loc 1 53 9 view .LVU514
 1813              	.LBE319:
 1814              	.LBE321:
 1815              		.cfi_endproc
 1816              	.LFE19:
 1818              		.section	.text.lps22hh_all_sources_get,"ax",%progbits
 1819              		.align	1
 1820              		.p2align 2,,3
 1821              		.global	lps22hh_all_sources_get
 1822              		.syntax unified
 1823              		.thumb
 1824              		.thumb_func
 1825              		.fpu fpv4-sp-d16
 1827              	lps22hh_all_sources_get:
 1828              	.LVL138:
 1829              	.LFB20:
 480:D:/fchai/work/i-cube/I-CUBE-HUAWEI/Drivers/BSP/Components/lps22hh\lps22hh_reg.c **** 
 481:D:/fchai/work/i-cube/I-CUBE-HUAWEI/Drivers/BSP/Components/lps22hh\lps22hh_reg.c **** /**
 482:D:/fchai/work/i-cube/I-CUBE-HUAWEI/Drivers/BSP/Components/lps22hh\lps22hh_reg.c ****   * @brief  Read all the interrupt/status flag of the device.[get]
 483:D:/fchai/work/i-cube/I-CUBE-HUAWEI/Drivers/BSP/Components/lps22hh\lps22hh_reg.c ****   *
 484:D:/fchai/work/i-cube/I-CUBE-HUAWEI/Drivers/BSP/Components/lps22hh\lps22hh_reg.c ****   * @param  ctx      read / write interface definitions
 485:D:/fchai/work/i-cube/I-CUBE-HUAWEI/Drivers/BSP/Components/lps22hh\lps22hh_reg.c ****   * @param  val      registers STATUS,FIFO_STATUS2,INT_SOURCE
 486:D:/fchai/work/i-cube/I-CUBE-HUAWEI/Drivers/BSP/Components/lps22hh\lps22hh_reg.c ****   * @retval          interface status (MANDATORY: return 0 -> no Error)
 487:D:/fchai/work/i-cube/I-CUBE-HUAWEI/Drivers/BSP/Components/lps22hh\lps22hh_reg.c ****   *
 488:D:/fchai/work/i-cube/I-CUBE-HUAWEI/Drivers/BSP/Components/lps22hh\lps22hh_reg.c ****   */
 489:D:/fchai/work/i-cube/I-CUBE-HUAWEI/Drivers/BSP/Components/lps22hh\lps22hh_reg.c **** int32_t lps22hh_all_sources_get(stmdev_ctx_t *ctx, lps22hh_all_sources_t *val)
 490:D:/fchai/work/i-cube/I-CUBE-HUAWEI/Drivers/BSP/Components/lps22hh\lps22hh_reg.c **** {
 1830              		.loc 1 490 1 is_stmt 1 view -0
 1831              		.cfi_startproc
 1832              		@ args = 0, pretend = 0, frame = 0
 1833              		@ frame_needed = 0, uses_anonymous_args = 0
 491:D:/fchai/work/i-cube/I-CUBE-HUAWEI/Drivers/BSP/Components/lps22hh\lps22hh_reg.c ****   int32_t ret;
 1834              		.loc 1 491 3 view .LVU516
 492:D:/fchai/work/i-cube/I-CUBE-HUAWEI/Drivers/BSP/Components/lps22hh\lps22hh_reg.c **** 
 493:D:/fchai/work/i-cube/I-CUBE-HUAWEI/Drivers/BSP/Components/lps22hh\lps22hh_reg.c ****   ret = lps22hh_read_reg(ctx, LPS22HH_INT_SOURCE,
 1835              		.loc 1 493 3 view .LVU517
 490:D:/fchai/work/i-cube/I-CUBE-HUAWEI/Drivers/BSP/Components/lps22hh\lps22hh_reg.c ****   int32_t ret;
 1836              		.loc 1 490 1 is_stmt 0 view .LVU518
 1837 0000 70B5     		push	{r4, r5, r6, lr}
 1838              	.LCFI49:
 1839              		.cfi_def_cfa_offset 16
 1840              		.cfi_offset 4, -16
 1841              		.cfi_offset 5, -12
 1842              		.cfi_offset 6, -8
 1843              		.cfi_offset 14, -4
 1844              	.LBB322:
 1845              	.LBB323:
  53:D:/fchai/work/i-cube/I-CUBE-HUAWEI/Drivers/BSP/Components/lps22hh\lps22hh_reg.c ****   return ret;
 1846              		.loc 1 53 9 view .LVU519
 1847 0002 0A46     		mov	r2, r1
 1848              	.LBE323:
ARM GAS  T:\msys\tmp\ccdfMMY7.s 			page 47


 1849              	.LBE322:
 490:D:/fchai/work/i-cube/I-CUBE-HUAWEI/Drivers/BSP/Components/lps22hh\lps22hh_reg.c ****   int32_t ret;
 1850              		.loc 1 490 1 view .LVU520
 1851 0004 0446     		mov	r4, r0
 1852              	.LVL139:
 490:D:/fchai/work/i-cube/I-CUBE-HUAWEI/Drivers/BSP/Components/lps22hh\lps22hh_reg.c ****   int32_t ret;
 1853              		.loc 1 490 1 view .LVU521
 1854 0006 0D46     		mov	r5, r1
 1855              	.LVL140:
 1856              	.LBB325:
 1857              	.LBI322:
  49:D:/fchai/work/i-cube/I-CUBE-HUAWEI/Drivers/BSP/Components/lps22hh\lps22hh_reg.c ****                          uint16_t len)
 1858              		.loc 1 49 9 is_stmt 1 view .LVU522
 1859              	.LBB324:
  52:D:/fchai/work/i-cube/I-CUBE-HUAWEI/Drivers/BSP/Components/lps22hh\lps22hh_reg.c ****   ret = ctx->read_reg(ctx->handle, reg, data, len);
 1860              		.loc 1 52 3 view .LVU523
  53:D:/fchai/work/i-cube/I-CUBE-HUAWEI/Drivers/BSP/Components/lps22hh\lps22hh_reg.c ****   return ret;
 1861              		.loc 1 53 3 view .LVU524
  53:D:/fchai/work/i-cube/I-CUBE-HUAWEI/Drivers/BSP/Components/lps22hh\lps22hh_reg.c ****   return ret;
 1862              		.loc 1 53 9 is_stmt 0 view .LVU525
 1863 0008 D0E90160 		ldrd	r6, r0, [r0, #4]
 1864              	.LVL141:
  53:D:/fchai/work/i-cube/I-CUBE-HUAWEI/Drivers/BSP/Components/lps22hh\lps22hh_reg.c ****   return ret;
 1865              		.loc 1 53 9 view .LVU526
 1866 000c 0123     		movs	r3, #1
 1867 000e 2421     		movs	r1, #36
 1868              	.LVL142:
  53:D:/fchai/work/i-cube/I-CUBE-HUAWEI/Drivers/BSP/Components/lps22hh\lps22hh_reg.c ****   return ret;
 1869              		.loc 1 53 9 view .LVU527
 1870 0010 B047     		blx	r6
 1871              	.LVL143:
  54:D:/fchai/work/i-cube/I-CUBE-HUAWEI/Drivers/BSP/Components/lps22hh\lps22hh_reg.c **** }
 1872              		.loc 1 54 3 is_stmt 1 view .LVU528
  54:D:/fchai/work/i-cube/I-CUBE-HUAWEI/Drivers/BSP/Components/lps22hh\lps22hh_reg.c **** }
 1873              		.loc 1 54 3 is_stmt 0 view .LVU529
 1874              	.LBE324:
 1875              	.LBE325:
 494:D:/fchai/work/i-cube/I-CUBE-HUAWEI/Drivers/BSP/Components/lps22hh\lps22hh_reg.c ****                          (uint8_t*) &(val->int_source), 1);
 495:D:/fchai/work/i-cube/I-CUBE-HUAWEI/Drivers/BSP/Components/lps22hh\lps22hh_reg.c ****   if (ret == 0) {
 1876              		.loc 1 495 3 is_stmt 1 view .LVU530
 1877              		.loc 1 495 6 is_stmt 0 view .LVU531
 1878 0012 78B9     		cbnz	r0, .L65
 496:D:/fchai/work/i-cube/I-CUBE-HUAWEI/Drivers/BSP/Components/lps22hh\lps22hh_reg.c ****     ret = lps22hh_read_reg(ctx, LPS22HH_FIFO_STATUS2,
 1879              		.loc 1 496 5 is_stmt 1 view .LVU532
 1880              	.LVL144:
 1881              	.LBB326:
 1882              	.LBI326:
  49:D:/fchai/work/i-cube/I-CUBE-HUAWEI/Drivers/BSP/Components/lps22hh\lps22hh_reg.c ****                          uint16_t len)
 1883              		.loc 1 49 9 view .LVU533
 1884              	.LBB327:
  52:D:/fchai/work/i-cube/I-CUBE-HUAWEI/Drivers/BSP/Components/lps22hh\lps22hh_reg.c ****   ret = ctx->read_reg(ctx->handle, reg, data, len);
 1885              		.loc 1 52 3 view .LVU534
  53:D:/fchai/work/i-cube/I-CUBE-HUAWEI/Drivers/BSP/Components/lps22hh\lps22hh_reg.c ****   return ret;
 1886              		.loc 1 53 3 view .LVU535
  53:D:/fchai/work/i-cube/I-CUBE-HUAWEI/Drivers/BSP/Components/lps22hh\lps22hh_reg.c ****   return ret;
 1887              		.loc 1 53 9 is_stmt 0 view .LVU536
 1888 0014 0123     		movs	r3, #1
ARM GAS  T:\msys\tmp\ccdfMMY7.s 			page 48


 1889 0016 D4E90160 		ldrd	r6, r0, [r4, #4]
 1890              	.LVL145:
  53:D:/fchai/work/i-cube/I-CUBE-HUAWEI/Drivers/BSP/Components/lps22hh\lps22hh_reg.c ****   return ret;
 1891              		.loc 1 53 9 view .LVU537
 1892 001a EA18     		adds	r2, r5, r3
 1893              	.LVL146:
  53:D:/fchai/work/i-cube/I-CUBE-HUAWEI/Drivers/BSP/Components/lps22hh\lps22hh_reg.c ****   return ret;
 1894              		.loc 1 53 9 view .LVU538
 1895 001c 2621     		movs	r1, #38
 1896 001e B047     		blx	r6
 1897              	.LVL147:
  54:D:/fchai/work/i-cube/I-CUBE-HUAWEI/Drivers/BSP/Components/lps22hh\lps22hh_reg.c **** }
 1898              		.loc 1 54 3 is_stmt 1 view .LVU539
  54:D:/fchai/work/i-cube/I-CUBE-HUAWEI/Drivers/BSP/Components/lps22hh\lps22hh_reg.c **** }
 1899              		.loc 1 54 3 is_stmt 0 view .LVU540
 1900              	.LBE327:
 1901              	.LBE326:
 497:D:/fchai/work/i-cube/I-CUBE-HUAWEI/Drivers/BSP/Components/lps22hh\lps22hh_reg.c ****                            (uint8_t*) &(val->fifo_status2), 1);
 498:D:/fchai/work/i-cube/I-CUBE-HUAWEI/Drivers/BSP/Components/lps22hh\lps22hh_reg.c ****   }
 499:D:/fchai/work/i-cube/I-CUBE-HUAWEI/Drivers/BSP/Components/lps22hh\lps22hh_reg.c ****   if (ret == 0) {
 1902              		.loc 1 499 3 is_stmt 1 view .LVU541
 1903              		.loc 1 499 6 is_stmt 0 view .LVU542
 1904 0020 40B9     		cbnz	r0, .L65
 500:D:/fchai/work/i-cube/I-CUBE-HUAWEI/Drivers/BSP/Components/lps22hh\lps22hh_reg.c ****     ret = lps22hh_read_reg(ctx, LPS22HH_STATUS,
 1905              		.loc 1 500 5 is_stmt 1 view .LVU543
 1906              	.LVL148:
 1907              	.LBB328:
 1908              	.LBI328:
  49:D:/fchai/work/i-cube/I-CUBE-HUAWEI/Drivers/BSP/Components/lps22hh\lps22hh_reg.c ****                          uint16_t len)
 1909              		.loc 1 49 9 view .LVU544
 1910              	.LBB329:
  52:D:/fchai/work/i-cube/I-CUBE-HUAWEI/Drivers/BSP/Components/lps22hh\lps22hh_reg.c ****   ret = ctx->read_reg(ctx->handle, reg, data, len);
 1911              		.loc 1 52 3 view .LVU545
  53:D:/fchai/work/i-cube/I-CUBE-HUAWEI/Drivers/BSP/Components/lps22hh\lps22hh_reg.c ****   return ret;
 1912              		.loc 1 53 3 view .LVU546
  53:D:/fchai/work/i-cube/I-CUBE-HUAWEI/Drivers/BSP/Components/lps22hh\lps22hh_reg.c ****   return ret;
 1913              		.loc 1 53 9 is_stmt 0 view .LVU547
 1914 0022 AA1C     		adds	r2, r5, #2
 1915              	.LVL149:
  53:D:/fchai/work/i-cube/I-CUBE-HUAWEI/Drivers/BSP/Components/lps22hh\lps22hh_reg.c ****   return ret;
 1916              		.loc 1 53 9 view .LVU548
 1917 0024 D4E90150 		ldrd	r5, r0, [r4, #4]
 1918              	.LVL150:
  53:D:/fchai/work/i-cube/I-CUBE-HUAWEI/Drivers/BSP/Components/lps22hh\lps22hh_reg.c ****   return ret;
 1919              		.loc 1 53 9 view .LVU549
 1920 0028 0123     		movs	r3, #1
 1921 002a AC46     		mov	ip, r5
 1922 002c 2721     		movs	r1, #39
 1923              	.LBE329:
 1924              	.LBE328:
 501:D:/fchai/work/i-cube/I-CUBE-HUAWEI/Drivers/BSP/Components/lps22hh\lps22hh_reg.c ****                            (uint8_t*) &(val->status), 1);
 502:D:/fchai/work/i-cube/I-CUBE-HUAWEI/Drivers/BSP/Components/lps22hh\lps22hh_reg.c ****   }
 503:D:/fchai/work/i-cube/I-CUBE-HUAWEI/Drivers/BSP/Components/lps22hh\lps22hh_reg.c ****   return ret;
 504:D:/fchai/work/i-cube/I-CUBE-HUAWEI/Drivers/BSP/Components/lps22hh\lps22hh_reg.c **** }
 1925              		.loc 1 504 1 view .LVU550
 1926 002e BDE87040 		pop	{r4, r5, r6, lr}
 1927              	.LCFI50:
ARM GAS  T:\msys\tmp\ccdfMMY7.s 			page 49


 1928              		.cfi_remember_state
 1929              		.cfi_restore 14
 1930              		.cfi_restore 6
 1931              		.cfi_restore 5
 1932              		.cfi_restore 4
 1933              		.cfi_def_cfa_offset 0
 1934              	.LVL151:
 1935              	.LBB331:
 1936              	.LBB330:
  53:D:/fchai/work/i-cube/I-CUBE-HUAWEI/Drivers/BSP/Components/lps22hh\lps22hh_reg.c ****   return ret;
 1937              		.loc 1 53 9 view .LVU551
 1938 0032 6047     		bx	ip
 1939              	.LVL152:
 1940              	.L65:
 1941              	.LCFI51:
 1942              		.cfi_restore_state
  53:D:/fchai/work/i-cube/I-CUBE-HUAWEI/Drivers/BSP/Components/lps22hh\lps22hh_reg.c ****   return ret;
 1943              		.loc 1 53 9 view .LVU552
 1944              	.LBE330:
 1945              	.LBE331:
 1946              		.loc 1 504 1 view .LVU553
 1947 0034 70BD     		pop	{r4, r5, r6, pc}
 1948              		.loc 1 504 1 view .LVU554
 1949              		.cfi_endproc
 1950              	.LFE20:
 1952 0036 00BF     		.section	.text.lps22hh_status_reg_get,"ax",%progbits
 1953              		.align	1
 1954              		.p2align 2,,3
 1955              		.global	lps22hh_status_reg_get
 1956              		.syntax unified
 1957              		.thumb
 1958              		.thumb_func
 1959              		.fpu fpv4-sp-d16
 1961              	lps22hh_status_reg_get:
 1962              	.LVL153:
 1963              	.LFB21:
 505:D:/fchai/work/i-cube/I-CUBE-HUAWEI/Drivers/BSP/Components/lps22hh\lps22hh_reg.c **** 
 506:D:/fchai/work/i-cube/I-CUBE-HUAWEI/Drivers/BSP/Components/lps22hh\lps22hh_reg.c **** /**
 507:D:/fchai/work/i-cube/I-CUBE-HUAWEI/Drivers/BSP/Components/lps22hh\lps22hh_reg.c ****   * @brief  The STATUS_REG register is read by the primary interface.[get]
 508:D:/fchai/work/i-cube/I-CUBE-HUAWEI/Drivers/BSP/Components/lps22hh\lps22hh_reg.c ****   *
 509:D:/fchai/work/i-cube/I-CUBE-HUAWEI/Drivers/BSP/Components/lps22hh\lps22hh_reg.c ****   * @param  ctx      read / write interface definitions
 510:D:/fchai/work/i-cube/I-CUBE-HUAWEI/Drivers/BSP/Components/lps22hh\lps22hh_reg.c ****   * @param  val      structure of registers from STATUS to STATUS_REG
 511:D:/fchai/work/i-cube/I-CUBE-HUAWEI/Drivers/BSP/Components/lps22hh\lps22hh_reg.c ****   * @retval          interface status (MANDATORY: return 0 -> no Error)
 512:D:/fchai/work/i-cube/I-CUBE-HUAWEI/Drivers/BSP/Components/lps22hh\lps22hh_reg.c ****   *
 513:D:/fchai/work/i-cube/I-CUBE-HUAWEI/Drivers/BSP/Components/lps22hh\lps22hh_reg.c ****   */
 514:D:/fchai/work/i-cube/I-CUBE-HUAWEI/Drivers/BSP/Components/lps22hh\lps22hh_reg.c **** int32_t lps22hh_status_reg_get(stmdev_ctx_t *ctx, lps22hh_status_t *val)
 515:D:/fchai/work/i-cube/I-CUBE-HUAWEI/Drivers/BSP/Components/lps22hh\lps22hh_reg.c **** {
 1964              		.loc 1 515 1 is_stmt 1 view -0
 1965              		.cfi_startproc
 1966              		@ args = 0, pretend = 0, frame = 0
 1967              		@ frame_needed = 0, uses_anonymous_args = 0
 1968              		@ link register save eliminated.
 516:D:/fchai/work/i-cube/I-CUBE-HUAWEI/Drivers/BSP/Components/lps22hh\lps22hh_reg.c ****   int32_t ret;
 1969              		.loc 1 516 3 view .LVU556
 517:D:/fchai/work/i-cube/I-CUBE-HUAWEI/Drivers/BSP/Components/lps22hh\lps22hh_reg.c ****   ret =  lps22hh_read_reg(ctx, LPS22HH_STATUS, (uint8_t*) val, 1);
 1970              		.loc 1 517 3 view .LVU557
 515:D:/fchai/work/i-cube/I-CUBE-HUAWEI/Drivers/BSP/Components/lps22hh\lps22hh_reg.c ****   int32_t ret;
ARM GAS  T:\msys\tmp\ccdfMMY7.s 			page 50


 1971              		.loc 1 515 1 is_stmt 0 view .LVU558
 1972 0000 10B4     		push	{r4}
 1973              	.LCFI52:
 1974              		.cfi_def_cfa_offset 4
 1975              		.cfi_offset 4, -4
 1976              	.LBB332:
 1977              	.LBB333:
  53:D:/fchai/work/i-cube/I-CUBE-HUAWEI/Drivers/BSP/Components/lps22hh\lps22hh_reg.c ****   return ret;
 1978              		.loc 1 53 9 view .LVU559
 1979 0002 D0E90140 		ldrd	r4, r0, [r0, #4]
 1980              	.LVL154:
  53:D:/fchai/work/i-cube/I-CUBE-HUAWEI/Drivers/BSP/Components/lps22hh\lps22hh_reg.c ****   return ret;
 1981              		.loc 1 53 9 view .LVU560
 1982              	.LBE333:
 1983              	.LBE332:
 515:D:/fchai/work/i-cube/I-CUBE-HUAWEI/Drivers/BSP/Components/lps22hh\lps22hh_reg.c ****   int32_t ret;
 1984              		.loc 1 515 1 view .LVU561
 1985 0006 0A46     		mov	r2, r1
 1986              	.LVL155:
 1987              	.LBB336:
 1988              	.LBI332:
  49:D:/fchai/work/i-cube/I-CUBE-HUAWEI/Drivers/BSP/Components/lps22hh\lps22hh_reg.c ****                          uint16_t len)
 1989              		.loc 1 49 9 is_stmt 1 view .LVU562
 1990              	.LBB334:
  52:D:/fchai/work/i-cube/I-CUBE-HUAWEI/Drivers/BSP/Components/lps22hh\lps22hh_reg.c ****   ret = ctx->read_reg(ctx->handle, reg, data, len);
 1991              		.loc 1 52 3 view .LVU563
  53:D:/fchai/work/i-cube/I-CUBE-HUAWEI/Drivers/BSP/Components/lps22hh\lps22hh_reg.c ****   return ret;
 1992              		.loc 1 53 3 view .LVU564
  53:D:/fchai/work/i-cube/I-CUBE-HUAWEI/Drivers/BSP/Components/lps22hh\lps22hh_reg.c ****   return ret;
 1993              		.loc 1 53 9 is_stmt 0 view .LVU565
 1994 0008 A446     		mov	ip, r4
 1995 000a 0123     		movs	r3, #1
 1996              	.LBE334:
 1997              	.LBE336:
 518:D:/fchai/work/i-cube/I-CUBE-HUAWEI/Drivers/BSP/Components/lps22hh\lps22hh_reg.c ****   return ret;
 519:D:/fchai/work/i-cube/I-CUBE-HUAWEI/Drivers/BSP/Components/lps22hh\lps22hh_reg.c **** }
 1998              		.loc 1 519 1 view .LVU566
 1999 000c 5DF8044B 		ldr	r4, [sp], #4
 2000              	.LCFI53:
 2001              		.cfi_restore 4
 2002              		.cfi_def_cfa_offset 0
 2003              	.LBB337:
 2004              	.LBB335:
  53:D:/fchai/work/i-cube/I-CUBE-HUAWEI/Drivers/BSP/Components/lps22hh\lps22hh_reg.c ****   return ret;
 2005              		.loc 1 53 9 view .LVU567
 2006 0010 2721     		movs	r1, #39
 2007              	.LVL156:
  53:D:/fchai/work/i-cube/I-CUBE-HUAWEI/Drivers/BSP/Components/lps22hh\lps22hh_reg.c ****   return ret;
 2008              		.loc 1 53 9 view .LVU568
 2009 0012 6047     		bx	ip
 2010              	.LVL157:
  53:D:/fchai/work/i-cube/I-CUBE-HUAWEI/Drivers/BSP/Components/lps22hh\lps22hh_reg.c ****   return ret;
 2011              		.loc 1 53 9 view .LVU569
 2012              	.LBE335:
 2013              	.LBE337:
 2014              		.cfi_endproc
 2015              	.LFE21:
ARM GAS  T:\msys\tmp\ccdfMMY7.s 			page 51


 2017              		.section	.text.lps22hh_press_flag_data_ready_get,"ax",%progbits
 2018              		.align	1
 2019              		.p2align 2,,3
 2020              		.global	lps22hh_press_flag_data_ready_get
 2021              		.syntax unified
 2022              		.thumb
 2023              		.thumb_func
 2024              		.fpu fpv4-sp-d16
 2026              	lps22hh_press_flag_data_ready_get:
 2027              	.LVL158:
 2028              	.LFB22:
 520:D:/fchai/work/i-cube/I-CUBE-HUAWEI/Drivers/BSP/Components/lps22hh\lps22hh_reg.c **** 
 521:D:/fchai/work/i-cube/I-CUBE-HUAWEI/Drivers/BSP/Components/lps22hh\lps22hh_reg.c **** /**
 522:D:/fchai/work/i-cube/I-CUBE-HUAWEI/Drivers/BSP/Components/lps22hh\lps22hh_reg.c ****   * @brief  Pressure new data available.[get]
 523:D:/fchai/work/i-cube/I-CUBE-HUAWEI/Drivers/BSP/Components/lps22hh\lps22hh_reg.c ****   *
 524:D:/fchai/work/i-cube/I-CUBE-HUAWEI/Drivers/BSP/Components/lps22hh\lps22hh_reg.c ****   * @param  ctx      read / write interface definitions
 525:D:/fchai/work/i-cube/I-CUBE-HUAWEI/Drivers/BSP/Components/lps22hh\lps22hh_reg.c ****   * @param  val      change the values of p_da in reg STATUS
 526:D:/fchai/work/i-cube/I-CUBE-HUAWEI/Drivers/BSP/Components/lps22hh\lps22hh_reg.c ****   * @retval          interface status (MANDATORY: return 0 -> no Error)
 527:D:/fchai/work/i-cube/I-CUBE-HUAWEI/Drivers/BSP/Components/lps22hh\lps22hh_reg.c ****   *
 528:D:/fchai/work/i-cube/I-CUBE-HUAWEI/Drivers/BSP/Components/lps22hh\lps22hh_reg.c ****   */
 529:D:/fchai/work/i-cube/I-CUBE-HUAWEI/Drivers/BSP/Components/lps22hh\lps22hh_reg.c **** int32_t lps22hh_press_flag_data_ready_get(stmdev_ctx_t *ctx, uint8_t *val)
 530:D:/fchai/work/i-cube/I-CUBE-HUAWEI/Drivers/BSP/Components/lps22hh\lps22hh_reg.c **** {
 2029              		.loc 1 530 1 is_stmt 1 view -0
 2030              		.cfi_startproc
 2031              		@ args = 0, pretend = 0, frame = 8
 2032              		@ frame_needed = 0, uses_anonymous_args = 0
 531:D:/fchai/work/i-cube/I-CUBE-HUAWEI/Drivers/BSP/Components/lps22hh\lps22hh_reg.c ****   lps22hh_status_t reg;
 2033              		.loc 1 531 3 view .LVU571
 532:D:/fchai/work/i-cube/I-CUBE-HUAWEI/Drivers/BSP/Components/lps22hh\lps22hh_reg.c ****   int32_t ret;
 2034              		.loc 1 532 3 view .LVU572
 533:D:/fchai/work/i-cube/I-CUBE-HUAWEI/Drivers/BSP/Components/lps22hh\lps22hh_reg.c **** 
 534:D:/fchai/work/i-cube/I-CUBE-HUAWEI/Drivers/BSP/Components/lps22hh\lps22hh_reg.c ****   ret = lps22hh_read_reg(ctx, LPS22HH_STATUS, (uint8_t*) &reg, 1);
 2035              		.loc 1 534 3 view .LVU573
 530:D:/fchai/work/i-cube/I-CUBE-HUAWEI/Drivers/BSP/Components/lps22hh\lps22hh_reg.c ****   lps22hh_status_t reg;
 2036              		.loc 1 530 1 is_stmt 0 view .LVU574
 2037 0000 30B5     		push	{r4, r5, lr}
 2038              	.LCFI54:
 2039              		.cfi_def_cfa_offset 12
 2040              		.cfi_offset 4, -12
 2041              		.cfi_offset 5, -8
 2042              		.cfi_offset 14, -4
 2043 0002 83B0     		sub	sp, sp, #12
 2044              	.LCFI55:
 2045              		.cfi_def_cfa_offset 24
 2046              	.LVL159:
 2047              	.LBB338:
 2048              	.LBI338:
  49:D:/fchai/work/i-cube/I-CUBE-HUAWEI/Drivers/BSP/Components/lps22hh\lps22hh_reg.c ****                          uint16_t len)
 2049              		.loc 1 49 9 is_stmt 1 view .LVU575
 2050              	.LBB339:
  52:D:/fchai/work/i-cube/I-CUBE-HUAWEI/Drivers/BSP/Components/lps22hh\lps22hh_reg.c ****   ret = ctx->read_reg(ctx->handle, reg, data, len);
 2051              		.loc 1 52 3 view .LVU576
  53:D:/fchai/work/i-cube/I-CUBE-HUAWEI/Drivers/BSP/Components/lps22hh\lps22hh_reg.c ****   return ret;
 2052              		.loc 1 53 3 view .LVU577
 2053              	.LBE339:
 2054              	.LBE338:
 530:D:/fchai/work/i-cube/I-CUBE-HUAWEI/Drivers/BSP/Components/lps22hh\lps22hh_reg.c ****   lps22hh_status_t reg;
ARM GAS  T:\msys\tmp\ccdfMMY7.s 			page 52


 2055              		.loc 1 530 1 is_stmt 0 view .LVU578
 2056 0004 0C46     		mov	r4, r1
 2057              	.LBB341:
 2058              	.LBB340:
  53:D:/fchai/work/i-cube/I-CUBE-HUAWEI/Drivers/BSP/Components/lps22hh\lps22hh_reg.c ****   return ret;
 2059              		.loc 1 53 9 view .LVU579
 2060 0006 D0E90150 		ldrd	r5, r0, [r0, #4]
 2061              	.LVL160:
  53:D:/fchai/work/i-cube/I-CUBE-HUAWEI/Drivers/BSP/Components/lps22hh\lps22hh_reg.c ****   return ret;
 2062              		.loc 1 53 9 view .LVU580
 2063 000a 0123     		movs	r3, #1
 2064 000c 01AA     		add	r2, sp, #4
 2065              	.LVL161:
  53:D:/fchai/work/i-cube/I-CUBE-HUAWEI/Drivers/BSP/Components/lps22hh\lps22hh_reg.c ****   return ret;
 2066              		.loc 1 53 9 view .LVU581
 2067 000e 2721     		movs	r1, #39
 2068              	.LVL162:
  53:D:/fchai/work/i-cube/I-CUBE-HUAWEI/Drivers/BSP/Components/lps22hh\lps22hh_reg.c ****   return ret;
 2069              		.loc 1 53 9 view .LVU582
 2070 0010 A847     		blx	r5
 2071              	.LVL163:
  54:D:/fchai/work/i-cube/I-CUBE-HUAWEI/Drivers/BSP/Components/lps22hh\lps22hh_reg.c **** }
 2072              		.loc 1 54 3 is_stmt 1 view .LVU583
  54:D:/fchai/work/i-cube/I-CUBE-HUAWEI/Drivers/BSP/Components/lps22hh\lps22hh_reg.c **** }
 2073              		.loc 1 54 3 is_stmt 0 view .LVU584
 2074              	.LBE340:
 2075              	.LBE341:
 535:D:/fchai/work/i-cube/I-CUBE-HUAWEI/Drivers/BSP/Components/lps22hh\lps22hh_reg.c ****   *val = reg.p_da;
 2076              		.loc 1 535 3 is_stmt 1 view .LVU585
 2077              		.loc 1 535 13 is_stmt 0 view .LVU586
 2078 0012 9DF80430 		ldrb	r3, [sp, #4]	@ zero_extendqisi2
 2079 0016 C3F30003 		ubfx	r3, r3, #0, #1
 2080              		.loc 1 535 8 view .LVU587
 2081 001a 2370     		strb	r3, [r4]
 536:D:/fchai/work/i-cube/I-CUBE-HUAWEI/Drivers/BSP/Components/lps22hh\lps22hh_reg.c **** 
 537:D:/fchai/work/i-cube/I-CUBE-HUAWEI/Drivers/BSP/Components/lps22hh\lps22hh_reg.c ****   return ret;
 2082              		.loc 1 537 3 is_stmt 1 view .LVU588
 538:D:/fchai/work/i-cube/I-CUBE-HUAWEI/Drivers/BSP/Components/lps22hh\lps22hh_reg.c **** }
 2083              		.loc 1 538 1 is_stmt 0 view .LVU589
 2084 001c 03B0     		add	sp, sp, #12
 2085              	.LCFI56:
 2086              		.cfi_def_cfa_offset 12
 2087              		@ sp needed
 2088 001e 30BD     		pop	{r4, r5, pc}
 2089              		.loc 1 538 1 view .LVU590
 2090              		.cfi_endproc
 2091              	.LFE22:
 2093              		.section	.text.lps22hh_temp_flag_data_ready_get,"ax",%progbits
 2094              		.align	1
 2095              		.p2align 2,,3
 2096              		.global	lps22hh_temp_flag_data_ready_get
 2097              		.syntax unified
 2098              		.thumb
 2099              		.thumb_func
 2100              		.fpu fpv4-sp-d16
 2102              	lps22hh_temp_flag_data_ready_get:
 2103              	.LVL164:
ARM GAS  T:\msys\tmp\ccdfMMY7.s 			page 53


 2104              	.LFB23:
 539:D:/fchai/work/i-cube/I-CUBE-HUAWEI/Drivers/BSP/Components/lps22hh\lps22hh_reg.c **** 
 540:D:/fchai/work/i-cube/I-CUBE-HUAWEI/Drivers/BSP/Components/lps22hh\lps22hh_reg.c **** /**
 541:D:/fchai/work/i-cube/I-CUBE-HUAWEI/Drivers/BSP/Components/lps22hh\lps22hh_reg.c ****   * @brief  Temperature data available.[get]
 542:D:/fchai/work/i-cube/I-CUBE-HUAWEI/Drivers/BSP/Components/lps22hh\lps22hh_reg.c ****   *
 543:D:/fchai/work/i-cube/I-CUBE-HUAWEI/Drivers/BSP/Components/lps22hh\lps22hh_reg.c ****   * @param  ctx      read / write interface definitions
 544:D:/fchai/work/i-cube/I-CUBE-HUAWEI/Drivers/BSP/Components/lps22hh\lps22hh_reg.c ****   * @param  val      change the values of t_da in reg STATUS
 545:D:/fchai/work/i-cube/I-CUBE-HUAWEI/Drivers/BSP/Components/lps22hh\lps22hh_reg.c ****   * @retval          interface status (MANDATORY: return 0 -> no Error)
 546:D:/fchai/work/i-cube/I-CUBE-HUAWEI/Drivers/BSP/Components/lps22hh\lps22hh_reg.c ****   *
 547:D:/fchai/work/i-cube/I-CUBE-HUAWEI/Drivers/BSP/Components/lps22hh\lps22hh_reg.c ****   */
 548:D:/fchai/work/i-cube/I-CUBE-HUAWEI/Drivers/BSP/Components/lps22hh\lps22hh_reg.c **** int32_t lps22hh_temp_flag_data_ready_get(stmdev_ctx_t *ctx, uint8_t *val)
 549:D:/fchai/work/i-cube/I-CUBE-HUAWEI/Drivers/BSP/Components/lps22hh\lps22hh_reg.c **** {
 2105              		.loc 1 549 1 is_stmt 1 view -0
 2106              		.cfi_startproc
 2107              		@ args = 0, pretend = 0, frame = 8
 2108              		@ frame_needed = 0, uses_anonymous_args = 0
 550:D:/fchai/work/i-cube/I-CUBE-HUAWEI/Drivers/BSP/Components/lps22hh\lps22hh_reg.c ****   lps22hh_status_t reg;
 2109              		.loc 1 550 3 view .LVU592
 551:D:/fchai/work/i-cube/I-CUBE-HUAWEI/Drivers/BSP/Components/lps22hh\lps22hh_reg.c ****   int32_t ret;
 2110              		.loc 1 551 3 view .LVU593
 552:D:/fchai/work/i-cube/I-CUBE-HUAWEI/Drivers/BSP/Components/lps22hh\lps22hh_reg.c **** 
 553:D:/fchai/work/i-cube/I-CUBE-HUAWEI/Drivers/BSP/Components/lps22hh\lps22hh_reg.c ****   ret = lps22hh_read_reg(ctx, LPS22HH_STATUS, (uint8_t*) &reg, 1);
 2111              		.loc 1 553 3 view .LVU594
 549:D:/fchai/work/i-cube/I-CUBE-HUAWEI/Drivers/BSP/Components/lps22hh\lps22hh_reg.c ****   lps22hh_status_t reg;
 2112              		.loc 1 549 1 is_stmt 0 view .LVU595
 2113 0000 30B5     		push	{r4, r5, lr}
 2114              	.LCFI57:
 2115              		.cfi_def_cfa_offset 12
 2116              		.cfi_offset 4, -12
 2117              		.cfi_offset 5, -8
 2118              		.cfi_offset 14, -4
 2119 0002 83B0     		sub	sp, sp, #12
 2120              	.LCFI58:
 2121              		.cfi_def_cfa_offset 24
 2122              	.LVL165:
 2123              	.LBB342:
 2124              	.LBI342:
  49:D:/fchai/work/i-cube/I-CUBE-HUAWEI/Drivers/BSP/Components/lps22hh\lps22hh_reg.c ****                          uint16_t len)
 2125              		.loc 1 49 9 is_stmt 1 view .LVU596
 2126              	.LBB343:
  52:D:/fchai/work/i-cube/I-CUBE-HUAWEI/Drivers/BSP/Components/lps22hh\lps22hh_reg.c ****   ret = ctx->read_reg(ctx->handle, reg, data, len);
 2127              		.loc 1 52 3 view .LVU597
  53:D:/fchai/work/i-cube/I-CUBE-HUAWEI/Drivers/BSP/Components/lps22hh\lps22hh_reg.c ****   return ret;
 2128              		.loc 1 53 3 view .LVU598
 2129              	.LBE343:
 2130              	.LBE342:
 549:D:/fchai/work/i-cube/I-CUBE-HUAWEI/Drivers/BSP/Components/lps22hh\lps22hh_reg.c ****   lps22hh_status_t reg;
 2131              		.loc 1 549 1 is_stmt 0 view .LVU599
 2132 0004 0C46     		mov	r4, r1
 2133              	.LBB345:
 2134              	.LBB344:
  53:D:/fchai/work/i-cube/I-CUBE-HUAWEI/Drivers/BSP/Components/lps22hh\lps22hh_reg.c ****   return ret;
 2135              		.loc 1 53 9 view .LVU600
 2136 0006 D0E90150 		ldrd	r5, r0, [r0, #4]
 2137              	.LVL166:
  53:D:/fchai/work/i-cube/I-CUBE-HUAWEI/Drivers/BSP/Components/lps22hh\lps22hh_reg.c ****   return ret;
 2138              		.loc 1 53 9 view .LVU601
ARM GAS  T:\msys\tmp\ccdfMMY7.s 			page 54


 2139 000a 0123     		movs	r3, #1
 2140 000c 01AA     		add	r2, sp, #4
 2141              	.LVL167:
  53:D:/fchai/work/i-cube/I-CUBE-HUAWEI/Drivers/BSP/Components/lps22hh\lps22hh_reg.c ****   return ret;
 2142              		.loc 1 53 9 view .LVU602
 2143 000e 2721     		movs	r1, #39
 2144              	.LVL168:
  53:D:/fchai/work/i-cube/I-CUBE-HUAWEI/Drivers/BSP/Components/lps22hh\lps22hh_reg.c ****   return ret;
 2145              		.loc 1 53 9 view .LVU603
 2146 0010 A847     		blx	r5
 2147              	.LVL169:
  54:D:/fchai/work/i-cube/I-CUBE-HUAWEI/Drivers/BSP/Components/lps22hh\lps22hh_reg.c **** }
 2148              		.loc 1 54 3 is_stmt 1 view .LVU604
  54:D:/fchai/work/i-cube/I-CUBE-HUAWEI/Drivers/BSP/Components/lps22hh\lps22hh_reg.c **** }
 2149              		.loc 1 54 3 is_stmt 0 view .LVU605
 2150              	.LBE344:
 2151              	.LBE345:
 554:D:/fchai/work/i-cube/I-CUBE-HUAWEI/Drivers/BSP/Components/lps22hh\lps22hh_reg.c ****   *val = reg.t_da;
 2152              		.loc 1 554 3 is_stmt 1 view .LVU606
 2153              		.loc 1 554 13 is_stmt 0 view .LVU607
 2154 0012 9DF80430 		ldrb	r3, [sp, #4]	@ zero_extendqisi2
 2155 0016 C3F34003 		ubfx	r3, r3, #1, #1
 2156              		.loc 1 554 8 view .LVU608
 2157 001a 2370     		strb	r3, [r4]
 555:D:/fchai/work/i-cube/I-CUBE-HUAWEI/Drivers/BSP/Components/lps22hh\lps22hh_reg.c **** 
 556:D:/fchai/work/i-cube/I-CUBE-HUAWEI/Drivers/BSP/Components/lps22hh\lps22hh_reg.c ****   return ret;
 2158              		.loc 1 556 3 is_stmt 1 view .LVU609
 557:D:/fchai/work/i-cube/I-CUBE-HUAWEI/Drivers/BSP/Components/lps22hh\lps22hh_reg.c **** }
 2159              		.loc 1 557 1 is_stmt 0 view .LVU610
 2160 001c 03B0     		add	sp, sp, #12
 2161              	.LCFI59:
 2162              		.cfi_def_cfa_offset 12
 2163              		@ sp needed
 2164 001e 30BD     		pop	{r4, r5, pc}
 2165              		.loc 1 557 1 view .LVU611
 2166              		.cfi_endproc
 2167              	.LFE23:
 2169              		.section	.text.lps22hh_pressure_raw_get,"ax",%progbits
 2170              		.align	1
 2171              		.p2align 2,,3
 2172              		.global	lps22hh_pressure_raw_get
 2173              		.syntax unified
 2174              		.thumb
 2175              		.thumb_func
 2176              		.fpu fpv4-sp-d16
 2178              	lps22hh_pressure_raw_get:
 2179              	.LVL170:
 2180              	.LFB24:
 558:D:/fchai/work/i-cube/I-CUBE-HUAWEI/Drivers/BSP/Components/lps22hh\lps22hh_reg.c **** 
 559:D:/fchai/work/i-cube/I-CUBE-HUAWEI/Drivers/BSP/Components/lps22hh\lps22hh_reg.c **** /**
 560:D:/fchai/work/i-cube/I-CUBE-HUAWEI/Drivers/BSP/Components/lps22hh\lps22hh_reg.c ****   * @}
 561:D:/fchai/work/i-cube/I-CUBE-HUAWEI/Drivers/BSP/Components/lps22hh\lps22hh_reg.c ****   *
 562:D:/fchai/work/i-cube/I-CUBE-HUAWEI/Drivers/BSP/Components/lps22hh\lps22hh_reg.c ****   */
 563:D:/fchai/work/i-cube/I-CUBE-HUAWEI/Drivers/BSP/Components/lps22hh\lps22hh_reg.c **** 
 564:D:/fchai/work/i-cube/I-CUBE-HUAWEI/Drivers/BSP/Components/lps22hh\lps22hh_reg.c **** /**
 565:D:/fchai/work/i-cube/I-CUBE-HUAWEI/Drivers/BSP/Components/lps22hh\lps22hh_reg.c ****   * @defgroup  LPS22HH_Data_Output
 566:D:/fchai/work/i-cube/I-CUBE-HUAWEI/Drivers/BSP/Components/lps22hh\lps22hh_reg.c ****   * @brief     This section groups all the data output functions.
ARM GAS  T:\msys\tmp\ccdfMMY7.s 			page 55


 567:D:/fchai/work/i-cube/I-CUBE-HUAWEI/Drivers/BSP/Components/lps22hh\lps22hh_reg.c ****   * @{
 568:D:/fchai/work/i-cube/I-CUBE-HUAWEI/Drivers/BSP/Components/lps22hh\lps22hh_reg.c ****   *
 569:D:/fchai/work/i-cube/I-CUBE-HUAWEI/Drivers/BSP/Components/lps22hh\lps22hh_reg.c ****   */
 570:D:/fchai/work/i-cube/I-CUBE-HUAWEI/Drivers/BSP/Components/lps22hh\lps22hh_reg.c **** 
 571:D:/fchai/work/i-cube/I-CUBE-HUAWEI/Drivers/BSP/Components/lps22hh\lps22hh_reg.c **** /**
 572:D:/fchai/work/i-cube/I-CUBE-HUAWEI/Drivers/BSP/Components/lps22hh\lps22hh_reg.c ****   * @brief  Pressure output value.[get]
 573:D:/fchai/work/i-cube/I-CUBE-HUAWEI/Drivers/BSP/Components/lps22hh\lps22hh_reg.c ****   *
 574:D:/fchai/work/i-cube/I-CUBE-HUAWEI/Drivers/BSP/Components/lps22hh\lps22hh_reg.c ****   * @param  ctx      read / write interface definitions
 575:D:/fchai/work/i-cube/I-CUBE-HUAWEI/Drivers/BSP/Components/lps22hh\lps22hh_reg.c ****   * @param  buff     buffer that stores data read
 576:D:/fchai/work/i-cube/I-CUBE-HUAWEI/Drivers/BSP/Components/lps22hh\lps22hh_reg.c ****   * @retval          interface status (MANDATORY: return 0 -> no Error)
 577:D:/fchai/work/i-cube/I-CUBE-HUAWEI/Drivers/BSP/Components/lps22hh\lps22hh_reg.c ****   *
 578:D:/fchai/work/i-cube/I-CUBE-HUAWEI/Drivers/BSP/Components/lps22hh\lps22hh_reg.c ****   */
 579:D:/fchai/work/i-cube/I-CUBE-HUAWEI/Drivers/BSP/Components/lps22hh\lps22hh_reg.c **** int32_t lps22hh_pressure_raw_get(stmdev_ctx_t *ctx, uint8_t *buff)
 580:D:/fchai/work/i-cube/I-CUBE-HUAWEI/Drivers/BSP/Components/lps22hh\lps22hh_reg.c **** {
 2181              		.loc 1 580 1 is_stmt 1 view -0
 2182              		.cfi_startproc
 2183              		@ args = 0, pretend = 0, frame = 0
 2184              		@ frame_needed = 0, uses_anonymous_args = 0
 2185              		@ link register save eliminated.
 581:D:/fchai/work/i-cube/I-CUBE-HUAWEI/Drivers/BSP/Components/lps22hh\lps22hh_reg.c ****   int32_t ret;
 2186              		.loc 1 581 3 view .LVU613
 582:D:/fchai/work/i-cube/I-CUBE-HUAWEI/Drivers/BSP/Components/lps22hh\lps22hh_reg.c ****   ret =  lps22hh_read_reg(ctx, LPS22HH_PRESS_OUT_XL, buff, 3);
 2187              		.loc 1 582 3 view .LVU614
 580:D:/fchai/work/i-cube/I-CUBE-HUAWEI/Drivers/BSP/Components/lps22hh\lps22hh_reg.c ****   int32_t ret;
 2188              		.loc 1 580 1 is_stmt 0 view .LVU615
 2189 0000 10B4     		push	{r4}
 2190              	.LCFI60:
 2191              		.cfi_def_cfa_offset 4
 2192              		.cfi_offset 4, -4
 2193              	.LBB346:
 2194              	.LBB347:
  53:D:/fchai/work/i-cube/I-CUBE-HUAWEI/Drivers/BSP/Components/lps22hh\lps22hh_reg.c ****   return ret;
 2195              		.loc 1 53 9 view .LVU616
 2196 0002 D0E90140 		ldrd	r4, r0, [r0, #4]
 2197              	.LVL171:
  53:D:/fchai/work/i-cube/I-CUBE-HUAWEI/Drivers/BSP/Components/lps22hh\lps22hh_reg.c ****   return ret;
 2198              		.loc 1 53 9 view .LVU617
 2199              	.LBE347:
 2200              	.LBE346:
 580:D:/fchai/work/i-cube/I-CUBE-HUAWEI/Drivers/BSP/Components/lps22hh\lps22hh_reg.c ****   int32_t ret;
 2201              		.loc 1 580 1 view .LVU618
 2202 0006 0A46     		mov	r2, r1
 2203              	.LVL172:
 2204              	.LBB350:
 2205              	.LBI346:
  49:D:/fchai/work/i-cube/I-CUBE-HUAWEI/Drivers/BSP/Components/lps22hh\lps22hh_reg.c ****                          uint16_t len)
 2206              		.loc 1 49 9 is_stmt 1 view .LVU619
 2207              	.LBB348:
  52:D:/fchai/work/i-cube/I-CUBE-HUAWEI/Drivers/BSP/Components/lps22hh\lps22hh_reg.c ****   ret = ctx->read_reg(ctx->handle, reg, data, len);
 2208              		.loc 1 52 3 view .LVU620
  53:D:/fchai/work/i-cube/I-CUBE-HUAWEI/Drivers/BSP/Components/lps22hh\lps22hh_reg.c ****   return ret;
 2209              		.loc 1 53 3 view .LVU621
  53:D:/fchai/work/i-cube/I-CUBE-HUAWEI/Drivers/BSP/Components/lps22hh\lps22hh_reg.c ****   return ret;
 2210              		.loc 1 53 9 is_stmt 0 view .LVU622
 2211 0008 A446     		mov	ip, r4
 2212 000a 0323     		movs	r3, #3
 2213              	.LBE348:
ARM GAS  T:\msys\tmp\ccdfMMY7.s 			page 56


 2214              	.LBE350:
 583:D:/fchai/work/i-cube/I-CUBE-HUAWEI/Drivers/BSP/Components/lps22hh\lps22hh_reg.c ****   return ret;
 584:D:/fchai/work/i-cube/I-CUBE-HUAWEI/Drivers/BSP/Components/lps22hh\lps22hh_reg.c **** }
 2215              		.loc 1 584 1 view .LVU623
 2216 000c 5DF8044B 		ldr	r4, [sp], #4
 2217              	.LCFI61:
 2218              		.cfi_restore 4
 2219              		.cfi_def_cfa_offset 0
 2220              	.LBB351:
 2221              	.LBB349:
  53:D:/fchai/work/i-cube/I-CUBE-HUAWEI/Drivers/BSP/Components/lps22hh\lps22hh_reg.c ****   return ret;
 2222              		.loc 1 53 9 view .LVU624
 2223 0010 2821     		movs	r1, #40
 2224              	.LVL173:
  53:D:/fchai/work/i-cube/I-CUBE-HUAWEI/Drivers/BSP/Components/lps22hh\lps22hh_reg.c ****   return ret;
 2225              		.loc 1 53 9 view .LVU625
 2226 0012 6047     		bx	ip
 2227              	.LVL174:
  53:D:/fchai/work/i-cube/I-CUBE-HUAWEI/Drivers/BSP/Components/lps22hh\lps22hh_reg.c ****   return ret;
 2228              		.loc 1 53 9 view .LVU626
 2229              	.LBE349:
 2230              	.LBE351:
 2231              		.cfi_endproc
 2232              	.LFE24:
 2234              		.section	.text.lps22hh_temperature_raw_get,"ax",%progbits
 2235              		.align	1
 2236              		.p2align 2,,3
 2237              		.global	lps22hh_temperature_raw_get
 2238              		.syntax unified
 2239              		.thumb
 2240              		.thumb_func
 2241              		.fpu fpv4-sp-d16
 2243              	lps22hh_temperature_raw_get:
 2244              	.LVL175:
 2245              	.LFB25:
 585:D:/fchai/work/i-cube/I-CUBE-HUAWEI/Drivers/BSP/Components/lps22hh\lps22hh_reg.c **** 
 586:D:/fchai/work/i-cube/I-CUBE-HUAWEI/Drivers/BSP/Components/lps22hh\lps22hh_reg.c **** /**
 587:D:/fchai/work/i-cube/I-CUBE-HUAWEI/Drivers/BSP/Components/lps22hh\lps22hh_reg.c ****   * @brief  Temperature output value.[get]
 588:D:/fchai/work/i-cube/I-CUBE-HUAWEI/Drivers/BSP/Components/lps22hh\lps22hh_reg.c ****   *
 589:D:/fchai/work/i-cube/I-CUBE-HUAWEI/Drivers/BSP/Components/lps22hh\lps22hh_reg.c ****   * @param  ctx      read / write interface definitions
 590:D:/fchai/work/i-cube/I-CUBE-HUAWEI/Drivers/BSP/Components/lps22hh\lps22hh_reg.c ****   * @param  buff     buffer that stores data read
 591:D:/fchai/work/i-cube/I-CUBE-HUAWEI/Drivers/BSP/Components/lps22hh\lps22hh_reg.c ****   * @retval          interface status (MANDATORY: return 0 -> no Error)
 592:D:/fchai/work/i-cube/I-CUBE-HUAWEI/Drivers/BSP/Components/lps22hh\lps22hh_reg.c ****   *
 593:D:/fchai/work/i-cube/I-CUBE-HUAWEI/Drivers/BSP/Components/lps22hh\lps22hh_reg.c ****   */
 594:D:/fchai/work/i-cube/I-CUBE-HUAWEI/Drivers/BSP/Components/lps22hh\lps22hh_reg.c **** int32_t lps22hh_temperature_raw_get(stmdev_ctx_t *ctx, uint8_t *buff)
 595:D:/fchai/work/i-cube/I-CUBE-HUAWEI/Drivers/BSP/Components/lps22hh\lps22hh_reg.c **** {
 2246              		.loc 1 595 1 is_stmt 1 view -0
 2247              		.cfi_startproc
 2248              		@ args = 0, pretend = 0, frame = 0
 2249              		@ frame_needed = 0, uses_anonymous_args = 0
 2250              		@ link register save eliminated.
 596:D:/fchai/work/i-cube/I-CUBE-HUAWEI/Drivers/BSP/Components/lps22hh\lps22hh_reg.c ****   int32_t ret;
 2251              		.loc 1 596 3 view .LVU628
 597:D:/fchai/work/i-cube/I-CUBE-HUAWEI/Drivers/BSP/Components/lps22hh\lps22hh_reg.c ****   ret =  lps22hh_read_reg(ctx, LPS22HH_TEMP_OUT_L, buff, 2);
 2252              		.loc 1 597 3 view .LVU629
 595:D:/fchai/work/i-cube/I-CUBE-HUAWEI/Drivers/BSP/Components/lps22hh\lps22hh_reg.c ****   int32_t ret;
 2253              		.loc 1 595 1 is_stmt 0 view .LVU630
ARM GAS  T:\msys\tmp\ccdfMMY7.s 			page 57


 2254 0000 10B4     		push	{r4}
 2255              	.LCFI62:
 2256              		.cfi_def_cfa_offset 4
 2257              		.cfi_offset 4, -4
 2258              	.LBB352:
 2259              	.LBB353:
  53:D:/fchai/work/i-cube/I-CUBE-HUAWEI/Drivers/BSP/Components/lps22hh\lps22hh_reg.c ****   return ret;
 2260              		.loc 1 53 9 view .LVU631
 2261 0002 D0E90140 		ldrd	r4, r0, [r0, #4]
 2262              	.LVL176:
  53:D:/fchai/work/i-cube/I-CUBE-HUAWEI/Drivers/BSP/Components/lps22hh\lps22hh_reg.c ****   return ret;
 2263              		.loc 1 53 9 view .LVU632
 2264              	.LBE353:
 2265              	.LBE352:
 595:D:/fchai/work/i-cube/I-CUBE-HUAWEI/Drivers/BSP/Components/lps22hh\lps22hh_reg.c ****   int32_t ret;
 2266              		.loc 1 595 1 view .LVU633
 2267 0006 0A46     		mov	r2, r1
 2268              	.LVL177:
 2269              	.LBB356:
 2270              	.LBI352:
  49:D:/fchai/work/i-cube/I-CUBE-HUAWEI/Drivers/BSP/Components/lps22hh\lps22hh_reg.c ****                          uint16_t len)
 2271              		.loc 1 49 9 is_stmt 1 view .LVU634
 2272              	.LBB354:
  52:D:/fchai/work/i-cube/I-CUBE-HUAWEI/Drivers/BSP/Components/lps22hh\lps22hh_reg.c ****   ret = ctx->read_reg(ctx->handle, reg, data, len);
 2273              		.loc 1 52 3 view .LVU635
  53:D:/fchai/work/i-cube/I-CUBE-HUAWEI/Drivers/BSP/Components/lps22hh\lps22hh_reg.c ****   return ret;
 2274              		.loc 1 53 3 view .LVU636
  53:D:/fchai/work/i-cube/I-CUBE-HUAWEI/Drivers/BSP/Components/lps22hh\lps22hh_reg.c ****   return ret;
 2275              		.loc 1 53 9 is_stmt 0 view .LVU637
 2276 0008 A446     		mov	ip, r4
 2277 000a 0223     		movs	r3, #2
 2278              	.LBE354:
 2279              	.LBE356:
 598:D:/fchai/work/i-cube/I-CUBE-HUAWEI/Drivers/BSP/Components/lps22hh\lps22hh_reg.c ****   return ret;
 599:D:/fchai/work/i-cube/I-CUBE-HUAWEI/Drivers/BSP/Components/lps22hh\lps22hh_reg.c **** }
 2280              		.loc 1 599 1 view .LVU638
 2281 000c 5DF8044B 		ldr	r4, [sp], #4
 2282              	.LCFI63:
 2283              		.cfi_restore 4
 2284              		.cfi_def_cfa_offset 0
 2285              	.LBB357:
 2286              	.LBB355:
  53:D:/fchai/work/i-cube/I-CUBE-HUAWEI/Drivers/BSP/Components/lps22hh\lps22hh_reg.c ****   return ret;
 2287              		.loc 1 53 9 view .LVU639
 2288 0010 2B21     		movs	r1, #43
 2289              	.LVL178:
  53:D:/fchai/work/i-cube/I-CUBE-HUAWEI/Drivers/BSP/Components/lps22hh\lps22hh_reg.c ****   return ret;
 2290              		.loc 1 53 9 view .LVU640
 2291 0012 6047     		bx	ip
 2292              	.LVL179:
  53:D:/fchai/work/i-cube/I-CUBE-HUAWEI/Drivers/BSP/Components/lps22hh\lps22hh_reg.c ****   return ret;
 2293              		.loc 1 53 9 view .LVU641
 2294              	.LBE355:
 2295              	.LBE357:
 2296              		.cfi_endproc
 2297              	.LFE25:
 2299              		.section	.text.lps22hh_fifo_pressure_raw_get,"ax",%progbits
ARM GAS  T:\msys\tmp\ccdfMMY7.s 			page 58


 2300              		.align	1
 2301              		.p2align 2,,3
 2302              		.global	lps22hh_fifo_pressure_raw_get
 2303              		.syntax unified
 2304              		.thumb
 2305              		.thumb_func
 2306              		.fpu fpv4-sp-d16
 2308              	lps22hh_fifo_pressure_raw_get:
 2309              	.LVL180:
 2310              	.LFB26:
 600:D:/fchai/work/i-cube/I-CUBE-HUAWEI/Drivers/BSP/Components/lps22hh\lps22hh_reg.c **** 
 601:D:/fchai/work/i-cube/I-CUBE-HUAWEI/Drivers/BSP/Components/lps22hh\lps22hh_reg.c **** /**
 602:D:/fchai/work/i-cube/I-CUBE-HUAWEI/Drivers/BSP/Components/lps22hh\lps22hh_reg.c ****   * @brief  Pressure output from FIFO value.[get]
 603:D:/fchai/work/i-cube/I-CUBE-HUAWEI/Drivers/BSP/Components/lps22hh\lps22hh_reg.c ****   *
 604:D:/fchai/work/i-cube/I-CUBE-HUAWEI/Drivers/BSP/Components/lps22hh\lps22hh_reg.c ****   * @param  ctx      read / write interface definitions
 605:D:/fchai/work/i-cube/I-CUBE-HUAWEI/Drivers/BSP/Components/lps22hh\lps22hh_reg.c ****   * @param  buff     buffer that stores data read
 606:D:/fchai/work/i-cube/I-CUBE-HUAWEI/Drivers/BSP/Components/lps22hh\lps22hh_reg.c ****   * @retval          interface status (MANDATORY: return 0 -> no Error)
 607:D:/fchai/work/i-cube/I-CUBE-HUAWEI/Drivers/BSP/Components/lps22hh\lps22hh_reg.c ****   *
 608:D:/fchai/work/i-cube/I-CUBE-HUAWEI/Drivers/BSP/Components/lps22hh\lps22hh_reg.c ****   */
 609:D:/fchai/work/i-cube/I-CUBE-HUAWEI/Drivers/BSP/Components/lps22hh\lps22hh_reg.c **** int32_t lps22hh_fifo_pressure_raw_get(stmdev_ctx_t *ctx, uint8_t *buff)
 610:D:/fchai/work/i-cube/I-CUBE-HUAWEI/Drivers/BSP/Components/lps22hh\lps22hh_reg.c **** {
 2311              		.loc 1 610 1 is_stmt 1 view -0
 2312              		.cfi_startproc
 2313              		@ args = 0, pretend = 0, frame = 0
 2314              		@ frame_needed = 0, uses_anonymous_args = 0
 2315              		@ link register save eliminated.
 611:D:/fchai/work/i-cube/I-CUBE-HUAWEI/Drivers/BSP/Components/lps22hh\lps22hh_reg.c ****   int32_t ret;
 2316              		.loc 1 611 3 view .LVU643
 612:D:/fchai/work/i-cube/I-CUBE-HUAWEI/Drivers/BSP/Components/lps22hh\lps22hh_reg.c ****   ret =  lps22hh_read_reg(ctx, LPS22HH_FIFO_DATA_OUT_PRESS_XL, buff, 3);
 2317              		.loc 1 612 3 view .LVU644
 610:D:/fchai/work/i-cube/I-CUBE-HUAWEI/Drivers/BSP/Components/lps22hh\lps22hh_reg.c ****   int32_t ret;
 2318              		.loc 1 610 1 is_stmt 0 view .LVU645
 2319 0000 10B4     		push	{r4}
 2320              	.LCFI64:
 2321              		.cfi_def_cfa_offset 4
 2322              		.cfi_offset 4, -4
 2323              	.LBB358:
 2324              	.LBB359:
  53:D:/fchai/work/i-cube/I-CUBE-HUAWEI/Drivers/BSP/Components/lps22hh\lps22hh_reg.c ****   return ret;
 2325              		.loc 1 53 9 view .LVU646
 2326 0002 D0E90140 		ldrd	r4, r0, [r0, #4]
 2327              	.LVL181:
  53:D:/fchai/work/i-cube/I-CUBE-HUAWEI/Drivers/BSP/Components/lps22hh\lps22hh_reg.c ****   return ret;
 2328              		.loc 1 53 9 view .LVU647
 2329              	.LBE359:
 2330              	.LBE358:
 610:D:/fchai/work/i-cube/I-CUBE-HUAWEI/Drivers/BSP/Components/lps22hh\lps22hh_reg.c ****   int32_t ret;
 2331              		.loc 1 610 1 view .LVU648
 2332 0006 0A46     		mov	r2, r1
 2333              	.LVL182:
 2334              	.LBB362:
 2335              	.LBI358:
  49:D:/fchai/work/i-cube/I-CUBE-HUAWEI/Drivers/BSP/Components/lps22hh\lps22hh_reg.c ****                          uint16_t len)
 2336              		.loc 1 49 9 is_stmt 1 view .LVU649
 2337              	.LBB360:
  52:D:/fchai/work/i-cube/I-CUBE-HUAWEI/Drivers/BSP/Components/lps22hh\lps22hh_reg.c ****   ret = ctx->read_reg(ctx->handle, reg, data, len);
 2338              		.loc 1 52 3 view .LVU650
ARM GAS  T:\msys\tmp\ccdfMMY7.s 			page 59


  53:D:/fchai/work/i-cube/I-CUBE-HUAWEI/Drivers/BSP/Components/lps22hh\lps22hh_reg.c ****   return ret;
 2339              		.loc 1 53 3 view .LVU651
  53:D:/fchai/work/i-cube/I-CUBE-HUAWEI/Drivers/BSP/Components/lps22hh\lps22hh_reg.c ****   return ret;
 2340              		.loc 1 53 9 is_stmt 0 view .LVU652
 2341 0008 A446     		mov	ip, r4
 2342 000a 0323     		movs	r3, #3
 2343              	.LBE360:
 2344              	.LBE362:
 613:D:/fchai/work/i-cube/I-CUBE-HUAWEI/Drivers/BSP/Components/lps22hh\lps22hh_reg.c ****   return ret;
 614:D:/fchai/work/i-cube/I-CUBE-HUAWEI/Drivers/BSP/Components/lps22hh\lps22hh_reg.c **** }
 2345              		.loc 1 614 1 view .LVU653
 2346 000c 5DF8044B 		ldr	r4, [sp], #4
 2347              	.LCFI65:
 2348              		.cfi_restore 4
 2349              		.cfi_def_cfa_offset 0
 2350              	.LBB363:
 2351              	.LBB361:
  53:D:/fchai/work/i-cube/I-CUBE-HUAWEI/Drivers/BSP/Components/lps22hh\lps22hh_reg.c ****   return ret;
 2352              		.loc 1 53 9 view .LVU654
 2353 0010 7821     		movs	r1, #120
 2354              	.LVL183:
  53:D:/fchai/work/i-cube/I-CUBE-HUAWEI/Drivers/BSP/Components/lps22hh\lps22hh_reg.c ****   return ret;
 2355              		.loc 1 53 9 view .LVU655
 2356 0012 6047     		bx	ip
 2357              	.LVL184:
  53:D:/fchai/work/i-cube/I-CUBE-HUAWEI/Drivers/BSP/Components/lps22hh\lps22hh_reg.c ****   return ret;
 2358              		.loc 1 53 9 view .LVU656
 2359              	.LBE361:
 2360              	.LBE363:
 2361              		.cfi_endproc
 2362              	.LFE26:
 2364              		.section	.text.lps22hh_fifo_temperature_raw_get,"ax",%progbits
 2365              		.align	1
 2366              		.p2align 2,,3
 2367              		.global	lps22hh_fifo_temperature_raw_get
 2368              		.syntax unified
 2369              		.thumb
 2370              		.thumb_func
 2371              		.fpu fpv4-sp-d16
 2373              	lps22hh_fifo_temperature_raw_get:
 2374              	.LVL185:
 2375              	.LFB27:
 615:D:/fchai/work/i-cube/I-CUBE-HUAWEI/Drivers/BSP/Components/lps22hh\lps22hh_reg.c **** 
 616:D:/fchai/work/i-cube/I-CUBE-HUAWEI/Drivers/BSP/Components/lps22hh\lps22hh_reg.c **** /**
 617:D:/fchai/work/i-cube/I-CUBE-HUAWEI/Drivers/BSP/Components/lps22hh\lps22hh_reg.c ****   * @brief  Temperature output from FIFO value.[get]
 618:D:/fchai/work/i-cube/I-CUBE-HUAWEI/Drivers/BSP/Components/lps22hh\lps22hh_reg.c ****   *
 619:D:/fchai/work/i-cube/I-CUBE-HUAWEI/Drivers/BSP/Components/lps22hh\lps22hh_reg.c ****   * @param  ctx      read / write interface definitions
 620:D:/fchai/work/i-cube/I-CUBE-HUAWEI/Drivers/BSP/Components/lps22hh\lps22hh_reg.c ****   * @param  buff     buffer that stores data read
 621:D:/fchai/work/i-cube/I-CUBE-HUAWEI/Drivers/BSP/Components/lps22hh\lps22hh_reg.c ****   * @retval          interface status (MANDATORY: return 0 -> no Error)
 622:D:/fchai/work/i-cube/I-CUBE-HUAWEI/Drivers/BSP/Components/lps22hh\lps22hh_reg.c ****   *
 623:D:/fchai/work/i-cube/I-CUBE-HUAWEI/Drivers/BSP/Components/lps22hh\lps22hh_reg.c ****   */
 624:D:/fchai/work/i-cube/I-CUBE-HUAWEI/Drivers/BSP/Components/lps22hh\lps22hh_reg.c **** int32_t lps22hh_fifo_temperature_raw_get(stmdev_ctx_t *ctx, uint8_t *buff)
 625:D:/fchai/work/i-cube/I-CUBE-HUAWEI/Drivers/BSP/Components/lps22hh\lps22hh_reg.c **** {
 2376              		.loc 1 625 1 is_stmt 1 view -0
 2377              		.cfi_startproc
 2378              		@ args = 0, pretend = 0, frame = 0
 2379              		@ frame_needed = 0, uses_anonymous_args = 0
ARM GAS  T:\msys\tmp\ccdfMMY7.s 			page 60


 2380              		@ link register save eliminated.
 626:D:/fchai/work/i-cube/I-CUBE-HUAWEI/Drivers/BSP/Components/lps22hh\lps22hh_reg.c ****   int32_t ret;
 2381              		.loc 1 626 3 view .LVU658
 627:D:/fchai/work/i-cube/I-CUBE-HUAWEI/Drivers/BSP/Components/lps22hh\lps22hh_reg.c ****   ret =  lps22hh_read_reg(ctx, LPS22HH_FIFO_DATA_OUT_TEMP_L, buff, 2);
 2382              		.loc 1 627 3 view .LVU659
 625:D:/fchai/work/i-cube/I-CUBE-HUAWEI/Drivers/BSP/Components/lps22hh\lps22hh_reg.c ****   int32_t ret;
 2383              		.loc 1 625 1 is_stmt 0 view .LVU660
 2384 0000 10B4     		push	{r4}
 2385              	.LCFI66:
 2386              		.cfi_def_cfa_offset 4
 2387              		.cfi_offset 4, -4
 2388              	.LBB364:
 2389              	.LBB365:
  53:D:/fchai/work/i-cube/I-CUBE-HUAWEI/Drivers/BSP/Components/lps22hh\lps22hh_reg.c ****   return ret;
 2390              		.loc 1 53 9 view .LVU661
 2391 0002 D0E90140 		ldrd	r4, r0, [r0, #4]
 2392              	.LVL186:
  53:D:/fchai/work/i-cube/I-CUBE-HUAWEI/Drivers/BSP/Components/lps22hh\lps22hh_reg.c ****   return ret;
 2393              		.loc 1 53 9 view .LVU662
 2394              	.LBE365:
 2395              	.LBE364:
 625:D:/fchai/work/i-cube/I-CUBE-HUAWEI/Drivers/BSP/Components/lps22hh\lps22hh_reg.c ****   int32_t ret;
 2396              		.loc 1 625 1 view .LVU663
 2397 0006 0A46     		mov	r2, r1
 2398              	.LVL187:
 2399              	.LBB368:
 2400              	.LBI364:
  49:D:/fchai/work/i-cube/I-CUBE-HUAWEI/Drivers/BSP/Components/lps22hh\lps22hh_reg.c ****                          uint16_t len)
 2401              		.loc 1 49 9 is_stmt 1 view .LVU664
 2402              	.LBB366:
  52:D:/fchai/work/i-cube/I-CUBE-HUAWEI/Drivers/BSP/Components/lps22hh\lps22hh_reg.c ****   ret = ctx->read_reg(ctx->handle, reg, data, len);
 2403              		.loc 1 52 3 view .LVU665
  53:D:/fchai/work/i-cube/I-CUBE-HUAWEI/Drivers/BSP/Components/lps22hh\lps22hh_reg.c ****   return ret;
 2404              		.loc 1 53 3 view .LVU666
  53:D:/fchai/work/i-cube/I-CUBE-HUAWEI/Drivers/BSP/Components/lps22hh\lps22hh_reg.c ****   return ret;
 2405              		.loc 1 53 9 is_stmt 0 view .LVU667
 2406 0008 A446     		mov	ip, r4
 2407 000a 0223     		movs	r3, #2
 2408              	.LBE366:
 2409              	.LBE368:
 628:D:/fchai/work/i-cube/I-CUBE-HUAWEI/Drivers/BSP/Components/lps22hh\lps22hh_reg.c ****   return ret;
 629:D:/fchai/work/i-cube/I-CUBE-HUAWEI/Drivers/BSP/Components/lps22hh\lps22hh_reg.c **** }
 2410              		.loc 1 629 1 view .LVU668
 2411 000c 5DF8044B 		ldr	r4, [sp], #4
 2412              	.LCFI67:
 2413              		.cfi_restore 4
 2414              		.cfi_def_cfa_offset 0
 2415              	.LBB369:
 2416              	.LBB367:
  53:D:/fchai/work/i-cube/I-CUBE-HUAWEI/Drivers/BSP/Components/lps22hh\lps22hh_reg.c ****   return ret;
 2417              		.loc 1 53 9 view .LVU669
 2418 0010 7B21     		movs	r1, #123
 2419              	.LVL188:
  53:D:/fchai/work/i-cube/I-CUBE-HUAWEI/Drivers/BSP/Components/lps22hh\lps22hh_reg.c ****   return ret;
 2420              		.loc 1 53 9 view .LVU670
 2421 0012 6047     		bx	ip
 2422              	.LVL189:
ARM GAS  T:\msys\tmp\ccdfMMY7.s 			page 61


  53:D:/fchai/work/i-cube/I-CUBE-HUAWEI/Drivers/BSP/Components/lps22hh\lps22hh_reg.c ****   return ret;
 2423              		.loc 1 53 9 view .LVU671
 2424              	.LBE367:
 2425              	.LBE369:
 2426              		.cfi_endproc
 2427              	.LFE27:
 2429              		.section	.text.lps22hh_device_id_get,"ax",%progbits
 2430              		.align	1
 2431              		.p2align 2,,3
 2432              		.global	lps22hh_device_id_get
 2433              		.syntax unified
 2434              		.thumb
 2435              		.thumb_func
 2436              		.fpu fpv4-sp-d16
 2438              	lps22hh_device_id_get:
 2439              	.LVL190:
 2440              	.LFB28:
 630:D:/fchai/work/i-cube/I-CUBE-HUAWEI/Drivers/BSP/Components/lps22hh\lps22hh_reg.c **** 
 631:D:/fchai/work/i-cube/I-CUBE-HUAWEI/Drivers/BSP/Components/lps22hh\lps22hh_reg.c **** /**
 632:D:/fchai/work/i-cube/I-CUBE-HUAWEI/Drivers/BSP/Components/lps22hh\lps22hh_reg.c ****   * @}
 633:D:/fchai/work/i-cube/I-CUBE-HUAWEI/Drivers/BSP/Components/lps22hh\lps22hh_reg.c ****   *
 634:D:/fchai/work/i-cube/I-CUBE-HUAWEI/Drivers/BSP/Components/lps22hh\lps22hh_reg.c ****   */
 635:D:/fchai/work/i-cube/I-CUBE-HUAWEI/Drivers/BSP/Components/lps22hh\lps22hh_reg.c **** 
 636:D:/fchai/work/i-cube/I-CUBE-HUAWEI/Drivers/BSP/Components/lps22hh\lps22hh_reg.c **** /**
 637:D:/fchai/work/i-cube/I-CUBE-HUAWEI/Drivers/BSP/Components/lps22hh\lps22hh_reg.c ****   * @defgroup  LPS22HH_Common
 638:D:/fchai/work/i-cube/I-CUBE-HUAWEI/Drivers/BSP/Components/lps22hh\lps22hh_reg.c ****   * @brief     This section groups common useful functions.
 639:D:/fchai/work/i-cube/I-CUBE-HUAWEI/Drivers/BSP/Components/lps22hh\lps22hh_reg.c ****   * @{
 640:D:/fchai/work/i-cube/I-CUBE-HUAWEI/Drivers/BSP/Components/lps22hh\lps22hh_reg.c ****   *
 641:D:/fchai/work/i-cube/I-CUBE-HUAWEI/Drivers/BSP/Components/lps22hh\lps22hh_reg.c ****   */
 642:D:/fchai/work/i-cube/I-CUBE-HUAWEI/Drivers/BSP/Components/lps22hh\lps22hh_reg.c **** 
 643:D:/fchai/work/i-cube/I-CUBE-HUAWEI/Drivers/BSP/Components/lps22hh\lps22hh_reg.c **** /**
 644:D:/fchai/work/i-cube/I-CUBE-HUAWEI/Drivers/BSP/Components/lps22hh\lps22hh_reg.c ****   * @brief  DeviceWhoamI[get]
 645:D:/fchai/work/i-cube/I-CUBE-HUAWEI/Drivers/BSP/Components/lps22hh\lps22hh_reg.c ****   *
 646:D:/fchai/work/i-cube/I-CUBE-HUAWEI/Drivers/BSP/Components/lps22hh\lps22hh_reg.c ****   * @param  ctx      read / write interface definitions
 647:D:/fchai/work/i-cube/I-CUBE-HUAWEI/Drivers/BSP/Components/lps22hh\lps22hh_reg.c ****   * @param  buff     buffer that stores data read
 648:D:/fchai/work/i-cube/I-CUBE-HUAWEI/Drivers/BSP/Components/lps22hh\lps22hh_reg.c ****   * @retval          interface status (MANDATORY: return 0 -> no Error)
 649:D:/fchai/work/i-cube/I-CUBE-HUAWEI/Drivers/BSP/Components/lps22hh\lps22hh_reg.c ****   *
 650:D:/fchai/work/i-cube/I-CUBE-HUAWEI/Drivers/BSP/Components/lps22hh\lps22hh_reg.c ****   */
 651:D:/fchai/work/i-cube/I-CUBE-HUAWEI/Drivers/BSP/Components/lps22hh\lps22hh_reg.c **** int32_t lps22hh_device_id_get(stmdev_ctx_t *ctx, uint8_t *buff)
 652:D:/fchai/work/i-cube/I-CUBE-HUAWEI/Drivers/BSP/Components/lps22hh\lps22hh_reg.c **** {
 2441              		.loc 1 652 1 is_stmt 1 view -0
 2442              		.cfi_startproc
 2443              		@ args = 0, pretend = 0, frame = 0
 2444              		@ frame_needed = 0, uses_anonymous_args = 0
 2445              		@ link register save eliminated.
 653:D:/fchai/work/i-cube/I-CUBE-HUAWEI/Drivers/BSP/Components/lps22hh\lps22hh_reg.c ****   int32_t ret;
 2446              		.loc 1 653 3 view .LVU673
 654:D:/fchai/work/i-cube/I-CUBE-HUAWEI/Drivers/BSP/Components/lps22hh\lps22hh_reg.c ****   ret =  lps22hh_read_reg(ctx, LPS22HH_WHO_AM_I, buff, 1);
 2447              		.loc 1 654 3 view .LVU674
 652:D:/fchai/work/i-cube/I-CUBE-HUAWEI/Drivers/BSP/Components/lps22hh\lps22hh_reg.c ****   int32_t ret;
 2448              		.loc 1 652 1 is_stmt 0 view .LVU675
 2449 0000 10B4     		push	{r4}
 2450              	.LCFI68:
 2451              		.cfi_def_cfa_offset 4
 2452              		.cfi_offset 4, -4
 2453              	.LBB370:
 2454              	.LBB371:
ARM GAS  T:\msys\tmp\ccdfMMY7.s 			page 62


  53:D:/fchai/work/i-cube/I-CUBE-HUAWEI/Drivers/BSP/Components/lps22hh\lps22hh_reg.c ****   return ret;
 2455              		.loc 1 53 9 view .LVU676
 2456 0002 D0E90140 		ldrd	r4, r0, [r0, #4]
 2457              	.LVL191:
  53:D:/fchai/work/i-cube/I-CUBE-HUAWEI/Drivers/BSP/Components/lps22hh\lps22hh_reg.c ****   return ret;
 2458              		.loc 1 53 9 view .LVU677
 2459              	.LBE371:
 2460              	.LBE370:
 652:D:/fchai/work/i-cube/I-CUBE-HUAWEI/Drivers/BSP/Components/lps22hh\lps22hh_reg.c ****   int32_t ret;
 2461              		.loc 1 652 1 view .LVU678
 2462 0006 0A46     		mov	r2, r1
 2463              	.LVL192:
 2464              	.LBB374:
 2465              	.LBI370:
  49:D:/fchai/work/i-cube/I-CUBE-HUAWEI/Drivers/BSP/Components/lps22hh\lps22hh_reg.c ****                          uint16_t len)
 2466              		.loc 1 49 9 is_stmt 1 view .LVU679
 2467              	.LBB372:
  52:D:/fchai/work/i-cube/I-CUBE-HUAWEI/Drivers/BSP/Components/lps22hh\lps22hh_reg.c ****   ret = ctx->read_reg(ctx->handle, reg, data, len);
 2468              		.loc 1 52 3 view .LVU680
  53:D:/fchai/work/i-cube/I-CUBE-HUAWEI/Drivers/BSP/Components/lps22hh\lps22hh_reg.c ****   return ret;
 2469              		.loc 1 53 3 view .LVU681
  53:D:/fchai/work/i-cube/I-CUBE-HUAWEI/Drivers/BSP/Components/lps22hh\lps22hh_reg.c ****   return ret;
 2470              		.loc 1 53 9 is_stmt 0 view .LVU682
 2471 0008 A446     		mov	ip, r4
 2472 000a 0123     		movs	r3, #1
 2473              	.LBE372:
 2474              	.LBE374:
 655:D:/fchai/work/i-cube/I-CUBE-HUAWEI/Drivers/BSP/Components/lps22hh\lps22hh_reg.c ****   return ret;
 656:D:/fchai/work/i-cube/I-CUBE-HUAWEI/Drivers/BSP/Components/lps22hh\lps22hh_reg.c **** }
 2475              		.loc 1 656 1 view .LVU683
 2476 000c 5DF8044B 		ldr	r4, [sp], #4
 2477              	.LCFI69:
 2478              		.cfi_restore 4
 2479              		.cfi_def_cfa_offset 0
 2480              	.LBB375:
 2481              	.LBB373:
  53:D:/fchai/work/i-cube/I-CUBE-HUAWEI/Drivers/BSP/Components/lps22hh\lps22hh_reg.c ****   return ret;
 2482              		.loc 1 53 9 view .LVU684
 2483 0010 0F21     		movs	r1, #15
 2484              	.LVL193:
  53:D:/fchai/work/i-cube/I-CUBE-HUAWEI/Drivers/BSP/Components/lps22hh\lps22hh_reg.c ****   return ret;
 2485              		.loc 1 53 9 view .LVU685
 2486 0012 6047     		bx	ip
 2487              	.LVL194:
  53:D:/fchai/work/i-cube/I-CUBE-HUAWEI/Drivers/BSP/Components/lps22hh\lps22hh_reg.c ****   return ret;
 2488              		.loc 1 53 9 view .LVU686
 2489              	.LBE373:
 2490              	.LBE375:
 2491              		.cfi_endproc
 2492              	.LFE28:
 2494              		.section	.text.lps22hh_reset_set,"ax",%progbits
 2495              		.align	1
 2496              		.p2align 2,,3
 2497              		.global	lps22hh_reset_set
 2498              		.syntax unified
 2499              		.thumb
 2500              		.thumb_func
ARM GAS  T:\msys\tmp\ccdfMMY7.s 			page 63


 2501              		.fpu fpv4-sp-d16
 2503              	lps22hh_reset_set:
 2504              	.LVL195:
 2505              	.LFB29:
 657:D:/fchai/work/i-cube/I-CUBE-HUAWEI/Drivers/BSP/Components/lps22hh\lps22hh_reg.c **** 
 658:D:/fchai/work/i-cube/I-CUBE-HUAWEI/Drivers/BSP/Components/lps22hh\lps22hh_reg.c **** /**
 659:D:/fchai/work/i-cube/I-CUBE-HUAWEI/Drivers/BSP/Components/lps22hh\lps22hh_reg.c ****   * @brief  Software reset. Restore the default values
 660:D:/fchai/work/i-cube/I-CUBE-HUAWEI/Drivers/BSP/Components/lps22hh\lps22hh_reg.c ****   *         in user registers.[set]
 661:D:/fchai/work/i-cube/I-CUBE-HUAWEI/Drivers/BSP/Components/lps22hh\lps22hh_reg.c ****   *
 662:D:/fchai/work/i-cube/I-CUBE-HUAWEI/Drivers/BSP/Components/lps22hh\lps22hh_reg.c ****   * @param  ctx      read / write interface definitions
 663:D:/fchai/work/i-cube/I-CUBE-HUAWEI/Drivers/BSP/Components/lps22hh\lps22hh_reg.c ****   * @param  val      change the values of swreset in reg CTRL_REG2
 664:D:/fchai/work/i-cube/I-CUBE-HUAWEI/Drivers/BSP/Components/lps22hh\lps22hh_reg.c ****   * @retval          interface status (MANDATORY: return 0 -> no Error)
 665:D:/fchai/work/i-cube/I-CUBE-HUAWEI/Drivers/BSP/Components/lps22hh\lps22hh_reg.c ****   *
 666:D:/fchai/work/i-cube/I-CUBE-HUAWEI/Drivers/BSP/Components/lps22hh\lps22hh_reg.c ****   */
 667:D:/fchai/work/i-cube/I-CUBE-HUAWEI/Drivers/BSP/Components/lps22hh\lps22hh_reg.c **** int32_t lps22hh_reset_set(stmdev_ctx_t *ctx, uint8_t val)
 668:D:/fchai/work/i-cube/I-CUBE-HUAWEI/Drivers/BSP/Components/lps22hh\lps22hh_reg.c **** {
 2506              		.loc 1 668 1 is_stmt 1 view -0
 2507              		.cfi_startproc
 2508              		@ args = 0, pretend = 0, frame = 8
 2509              		@ frame_needed = 0, uses_anonymous_args = 0
 669:D:/fchai/work/i-cube/I-CUBE-HUAWEI/Drivers/BSP/Components/lps22hh\lps22hh_reg.c ****   lps22hh_ctrl_reg2_t reg;
 2510              		.loc 1 669 3 view .LVU688
 670:D:/fchai/work/i-cube/I-CUBE-HUAWEI/Drivers/BSP/Components/lps22hh\lps22hh_reg.c ****   int32_t ret;
 2511              		.loc 1 670 3 view .LVU689
 671:D:/fchai/work/i-cube/I-CUBE-HUAWEI/Drivers/BSP/Components/lps22hh\lps22hh_reg.c **** 
 672:D:/fchai/work/i-cube/I-CUBE-HUAWEI/Drivers/BSP/Components/lps22hh\lps22hh_reg.c ****   ret = lps22hh_read_reg(ctx, LPS22HH_CTRL_REG2, (uint8_t*) &reg, 1);
 2512              		.loc 1 672 3 view .LVU690
 668:D:/fchai/work/i-cube/I-CUBE-HUAWEI/Drivers/BSP/Components/lps22hh\lps22hh_reg.c ****   lps22hh_ctrl_reg2_t reg;
 2513              		.loc 1 668 1 is_stmt 0 view .LVU691
 2514 0000 70B5     		push	{r4, r5, r6, lr}
 2515              	.LCFI70:
 2516              		.cfi_def_cfa_offset 16
 2517              		.cfi_offset 4, -16
 2518              		.cfi_offset 5, -12
 2519              		.cfi_offset 6, -8
 2520              		.cfi_offset 14, -4
 2521 0002 82B0     		sub	sp, sp, #8
 2522              	.LCFI71:
 2523              		.cfi_def_cfa_offset 24
 668:D:/fchai/work/i-cube/I-CUBE-HUAWEI/Drivers/BSP/Components/lps22hh\lps22hh_reg.c ****   lps22hh_ctrl_reg2_t reg;
 2524              		.loc 1 668 1 view .LVU692
 2525 0004 0446     		mov	r4, r0
 2526              	.LVL196:
 2527              	.LBB376:
 2528              	.LBI376:
  49:D:/fchai/work/i-cube/I-CUBE-HUAWEI/Drivers/BSP/Components/lps22hh\lps22hh_reg.c ****                          uint16_t len)
 2529              		.loc 1 49 9 is_stmt 1 view .LVU693
 2530              	.LBB377:
  52:D:/fchai/work/i-cube/I-CUBE-HUAWEI/Drivers/BSP/Components/lps22hh\lps22hh_reg.c ****   ret = ctx->read_reg(ctx->handle, reg, data, len);
 2531              		.loc 1 52 3 view .LVU694
  53:D:/fchai/work/i-cube/I-CUBE-HUAWEI/Drivers/BSP/Components/lps22hh\lps22hh_reg.c ****   return ret;
 2532              		.loc 1 53 3 view .LVU695
 2533              	.LBE377:
 2534              	.LBE376:
 668:D:/fchai/work/i-cube/I-CUBE-HUAWEI/Drivers/BSP/Components/lps22hh\lps22hh_reg.c ****   lps22hh_ctrl_reg2_t reg;
 2535              		.loc 1 668 1 is_stmt 0 view .LVU696
 2536 0006 0D46     		mov	r5, r1
ARM GAS  T:\msys\tmp\ccdfMMY7.s 			page 64


 2537              	.LBB379:
 2538              	.LBB378:
  53:D:/fchai/work/i-cube/I-CUBE-HUAWEI/Drivers/BSP/Components/lps22hh\lps22hh_reg.c ****   return ret;
 2539              		.loc 1 53 9 view .LVU697
 2540 0008 D0E90160 		ldrd	r6, r0, [r0, #4]
 2541              	.LVL197:
  53:D:/fchai/work/i-cube/I-CUBE-HUAWEI/Drivers/BSP/Components/lps22hh\lps22hh_reg.c ****   return ret;
 2542              		.loc 1 53 9 view .LVU698
 2543 000c 01AA     		add	r2, sp, #4
 2544              	.LVL198:
  53:D:/fchai/work/i-cube/I-CUBE-HUAWEI/Drivers/BSP/Components/lps22hh\lps22hh_reg.c ****   return ret;
 2545              		.loc 1 53 9 view .LVU699
 2546 000e 0123     		movs	r3, #1
 2547 0010 1121     		movs	r1, #17
 2548              	.LVL199:
  53:D:/fchai/work/i-cube/I-CUBE-HUAWEI/Drivers/BSP/Components/lps22hh\lps22hh_reg.c ****   return ret;
 2549              		.loc 1 53 9 view .LVU700
 2550 0012 B047     		blx	r6
 2551              	.LVL200:
  54:D:/fchai/work/i-cube/I-CUBE-HUAWEI/Drivers/BSP/Components/lps22hh\lps22hh_reg.c **** }
 2552              		.loc 1 54 3 is_stmt 1 view .LVU701
  54:D:/fchai/work/i-cube/I-CUBE-HUAWEI/Drivers/BSP/Components/lps22hh\lps22hh_reg.c **** }
 2553              		.loc 1 54 3 is_stmt 0 view .LVU702
 2554              	.LBE378:
 2555              	.LBE379:
 673:D:/fchai/work/i-cube/I-CUBE-HUAWEI/Drivers/BSP/Components/lps22hh\lps22hh_reg.c ****   if (ret == 0) {
 2556              		.loc 1 673 3 is_stmt 1 view .LVU703
 2557              		.loc 1 673 6 is_stmt 0 view .LVU704
 2558 0014 58B9     		cbnz	r0, .L84
 674:D:/fchai/work/i-cube/I-CUBE-HUAWEI/Drivers/BSP/Components/lps22hh\lps22hh_reg.c ****     reg.swreset = val;
 2559              		.loc 1 674 5 is_stmt 1 view .LVU705
 2560              		.loc 1 674 17 is_stmt 0 view .LVU706
 2561 0016 9DF80430 		ldrb	r3, [sp, #4]	@ zero_extendqisi2
 2562              	.LBB380:
 2563              	.LBB381:
  71:D:/fchai/work/i-cube/I-CUBE-HUAWEI/Drivers/BSP/Components/lps22hh\lps22hh_reg.c ****   return ret;
 2564              		.loc 1 71 9 view .LVU707
 2565 001a 2668     		ldr	r6, [r4]
 2566 001c A068     		ldr	r0, [r4, #8]
 2567              	.LVL201:
  71:D:/fchai/work/i-cube/I-CUBE-HUAWEI/Drivers/BSP/Components/lps22hh\lps22hh_reg.c ****   return ret;
 2568              		.loc 1 71 9 view .LVU708
 2569              	.LBE381:
 2570              	.LBE380:
 2571              		.loc 1 674 17 view .LVU709
 2572 001e 65F38203 		bfi	r3, r5, #2, #1
 2573 0022 8DF80430 		strb	r3, [sp, #4]
 675:D:/fchai/work/i-cube/I-CUBE-HUAWEI/Drivers/BSP/Components/lps22hh\lps22hh_reg.c ****     ret = lps22hh_write_reg(ctx, LPS22HH_CTRL_REG2, (uint8_t*) &reg, 1);
 2574              		.loc 1 675 5 is_stmt 1 view .LVU710
 2575              	.LVL202:
 2576              	.LBB383:
 2577              	.LBI380:
  67:D:/fchai/work/i-cube/I-CUBE-HUAWEI/Drivers/BSP/Components/lps22hh\lps22hh_reg.c ****                            uint16_t len)
 2578              		.loc 1 67 9 view .LVU711
 2579              	.LBB382:
  70:D:/fchai/work/i-cube/I-CUBE-HUAWEI/Drivers/BSP/Components/lps22hh\lps22hh_reg.c ****   ret = ctx->write_reg(ctx->handle, reg, data, len);
 2580              		.loc 1 70 3 view .LVU712
ARM GAS  T:\msys\tmp\ccdfMMY7.s 			page 65


  71:D:/fchai/work/i-cube/I-CUBE-HUAWEI/Drivers/BSP/Components/lps22hh\lps22hh_reg.c ****   return ret;
 2581              		.loc 1 71 3 view .LVU713
  71:D:/fchai/work/i-cube/I-CUBE-HUAWEI/Drivers/BSP/Components/lps22hh\lps22hh_reg.c ****   return ret;
 2582              		.loc 1 71 9 is_stmt 0 view .LVU714
 2583 0026 01AA     		add	r2, sp, #4
 2584              	.LVL203:
  71:D:/fchai/work/i-cube/I-CUBE-HUAWEI/Drivers/BSP/Components/lps22hh\lps22hh_reg.c ****   return ret;
 2585              		.loc 1 71 9 view .LVU715
 2586 0028 0123     		movs	r3, #1
 2587 002a 1121     		movs	r1, #17
 2588 002c B047     		blx	r6
 2589              	.LVL204:
  72:D:/fchai/work/i-cube/I-CUBE-HUAWEI/Drivers/BSP/Components/lps22hh\lps22hh_reg.c **** }
 2590              		.loc 1 72 3 is_stmt 1 view .LVU716
  72:D:/fchai/work/i-cube/I-CUBE-HUAWEI/Drivers/BSP/Components/lps22hh\lps22hh_reg.c **** }
 2591              		.loc 1 72 3 is_stmt 0 view .LVU717
 2592              	.LBE382:
 2593              	.LBE383:
 676:D:/fchai/work/i-cube/I-CUBE-HUAWEI/Drivers/BSP/Components/lps22hh\lps22hh_reg.c ****   }
 677:D:/fchai/work/i-cube/I-CUBE-HUAWEI/Drivers/BSP/Components/lps22hh\lps22hh_reg.c ****   return ret;
 2594              		.loc 1 677 3 is_stmt 1 view .LVU718
 2595              	.L84:
 678:D:/fchai/work/i-cube/I-CUBE-HUAWEI/Drivers/BSP/Components/lps22hh\lps22hh_reg.c **** }
 2596              		.loc 1 678 1 is_stmt 0 view .LVU719
 2597 002e 02B0     		add	sp, sp, #8
 2598              	.LCFI72:
 2599              		.cfi_def_cfa_offset 16
 2600              		@ sp needed
 2601 0030 70BD     		pop	{r4, r5, r6, pc}
 2602              		.loc 1 678 1 view .LVU720
 2603              		.cfi_endproc
 2604              	.LFE29:
 2606 0032 00BF     		.section	.text.lps22hh_reset_get,"ax",%progbits
 2607              		.align	1
 2608              		.p2align 2,,3
 2609              		.global	lps22hh_reset_get
 2610              		.syntax unified
 2611              		.thumb
 2612              		.thumb_func
 2613              		.fpu fpv4-sp-d16
 2615              	lps22hh_reset_get:
 2616              	.LVL205:
 2617              	.LFB30:
 679:D:/fchai/work/i-cube/I-CUBE-HUAWEI/Drivers/BSP/Components/lps22hh\lps22hh_reg.c **** 
 680:D:/fchai/work/i-cube/I-CUBE-HUAWEI/Drivers/BSP/Components/lps22hh\lps22hh_reg.c **** /**
 681:D:/fchai/work/i-cube/I-CUBE-HUAWEI/Drivers/BSP/Components/lps22hh\lps22hh_reg.c ****   * @brief   Software reset. Restore the default values
 682:D:/fchai/work/i-cube/I-CUBE-HUAWEI/Drivers/BSP/Components/lps22hh\lps22hh_reg.c ****   *          in user registers.[get]
 683:D:/fchai/work/i-cube/I-CUBE-HUAWEI/Drivers/BSP/Components/lps22hh\lps22hh_reg.c ****   *
 684:D:/fchai/work/i-cube/I-CUBE-HUAWEI/Drivers/BSP/Components/lps22hh\lps22hh_reg.c ****   * @param  ctx      read / write interface definitions
 685:D:/fchai/work/i-cube/I-CUBE-HUAWEI/Drivers/BSP/Components/lps22hh\lps22hh_reg.c ****   * @param  val      change the values of swreset in reg CTRL_REG2
 686:D:/fchai/work/i-cube/I-CUBE-HUAWEI/Drivers/BSP/Components/lps22hh\lps22hh_reg.c ****   * @retval          interface status (MANDATORY: return 0 -> no Error)
 687:D:/fchai/work/i-cube/I-CUBE-HUAWEI/Drivers/BSP/Components/lps22hh\lps22hh_reg.c ****   *
 688:D:/fchai/work/i-cube/I-CUBE-HUAWEI/Drivers/BSP/Components/lps22hh\lps22hh_reg.c ****   */
 689:D:/fchai/work/i-cube/I-CUBE-HUAWEI/Drivers/BSP/Components/lps22hh\lps22hh_reg.c **** int32_t lps22hh_reset_get(stmdev_ctx_t *ctx, uint8_t *val)
 690:D:/fchai/work/i-cube/I-CUBE-HUAWEI/Drivers/BSP/Components/lps22hh\lps22hh_reg.c **** {
 2618              		.loc 1 690 1 is_stmt 1 view -0
 2619              		.cfi_startproc
ARM GAS  T:\msys\tmp\ccdfMMY7.s 			page 66


 2620              		@ args = 0, pretend = 0, frame = 8
 2621              		@ frame_needed = 0, uses_anonymous_args = 0
 691:D:/fchai/work/i-cube/I-CUBE-HUAWEI/Drivers/BSP/Components/lps22hh\lps22hh_reg.c ****   lps22hh_ctrl_reg2_t reg;
 2622              		.loc 1 691 3 view .LVU722
 692:D:/fchai/work/i-cube/I-CUBE-HUAWEI/Drivers/BSP/Components/lps22hh\lps22hh_reg.c ****   int32_t ret;
 2623              		.loc 1 692 3 view .LVU723
 693:D:/fchai/work/i-cube/I-CUBE-HUAWEI/Drivers/BSP/Components/lps22hh\lps22hh_reg.c **** 
 694:D:/fchai/work/i-cube/I-CUBE-HUAWEI/Drivers/BSP/Components/lps22hh\lps22hh_reg.c ****   ret = lps22hh_read_reg(ctx, LPS22HH_CTRL_REG2, (uint8_t*) &reg, 1);
 2624              		.loc 1 694 3 view .LVU724
 690:D:/fchai/work/i-cube/I-CUBE-HUAWEI/Drivers/BSP/Components/lps22hh\lps22hh_reg.c ****   lps22hh_ctrl_reg2_t reg;
 2625              		.loc 1 690 1 is_stmt 0 view .LVU725
 2626 0000 30B5     		push	{r4, r5, lr}
 2627              	.LCFI73:
 2628              		.cfi_def_cfa_offset 12
 2629              		.cfi_offset 4, -12
 2630              		.cfi_offset 5, -8
 2631              		.cfi_offset 14, -4
 2632 0002 83B0     		sub	sp, sp, #12
 2633              	.LCFI74:
 2634              		.cfi_def_cfa_offset 24
 2635              	.LVL206:
 2636              	.LBB384:
 2637              	.LBI384:
  49:D:/fchai/work/i-cube/I-CUBE-HUAWEI/Drivers/BSP/Components/lps22hh\lps22hh_reg.c ****                          uint16_t len)
 2638              		.loc 1 49 9 is_stmt 1 view .LVU726
 2639              	.LBB385:
  52:D:/fchai/work/i-cube/I-CUBE-HUAWEI/Drivers/BSP/Components/lps22hh\lps22hh_reg.c ****   ret = ctx->read_reg(ctx->handle, reg, data, len);
 2640              		.loc 1 52 3 view .LVU727
  53:D:/fchai/work/i-cube/I-CUBE-HUAWEI/Drivers/BSP/Components/lps22hh\lps22hh_reg.c ****   return ret;
 2641              		.loc 1 53 3 view .LVU728
 2642              	.LBE385:
 2643              	.LBE384:
 690:D:/fchai/work/i-cube/I-CUBE-HUAWEI/Drivers/BSP/Components/lps22hh\lps22hh_reg.c ****   lps22hh_ctrl_reg2_t reg;
 2644              		.loc 1 690 1 is_stmt 0 view .LVU729
 2645 0004 0C46     		mov	r4, r1
 2646              	.LBB387:
 2647              	.LBB386:
  53:D:/fchai/work/i-cube/I-CUBE-HUAWEI/Drivers/BSP/Components/lps22hh\lps22hh_reg.c ****   return ret;
 2648              		.loc 1 53 9 view .LVU730
 2649 0006 D0E90150 		ldrd	r5, r0, [r0, #4]
 2650              	.LVL207:
  53:D:/fchai/work/i-cube/I-CUBE-HUAWEI/Drivers/BSP/Components/lps22hh\lps22hh_reg.c ****   return ret;
 2651              		.loc 1 53 9 view .LVU731
 2652 000a 0123     		movs	r3, #1
 2653 000c 01AA     		add	r2, sp, #4
 2654              	.LVL208:
  53:D:/fchai/work/i-cube/I-CUBE-HUAWEI/Drivers/BSP/Components/lps22hh\lps22hh_reg.c ****   return ret;
 2655              		.loc 1 53 9 view .LVU732
 2656 000e 1121     		movs	r1, #17
 2657              	.LVL209:
  53:D:/fchai/work/i-cube/I-CUBE-HUAWEI/Drivers/BSP/Components/lps22hh\lps22hh_reg.c ****   return ret;
 2658              		.loc 1 53 9 view .LVU733
 2659 0010 A847     		blx	r5
 2660              	.LVL210:
  54:D:/fchai/work/i-cube/I-CUBE-HUAWEI/Drivers/BSP/Components/lps22hh\lps22hh_reg.c **** }
 2661              		.loc 1 54 3 is_stmt 1 view .LVU734
  54:D:/fchai/work/i-cube/I-CUBE-HUAWEI/Drivers/BSP/Components/lps22hh\lps22hh_reg.c **** }
ARM GAS  T:\msys\tmp\ccdfMMY7.s 			page 67


 2662              		.loc 1 54 3 is_stmt 0 view .LVU735
 2663              	.LBE386:
 2664              	.LBE387:
 695:D:/fchai/work/i-cube/I-CUBE-HUAWEI/Drivers/BSP/Components/lps22hh\lps22hh_reg.c ****   *val = reg.swreset;
 2665              		.loc 1 695 3 is_stmt 1 view .LVU736
 2666              		.loc 1 695 13 is_stmt 0 view .LVU737
 2667 0012 9DF80430 		ldrb	r3, [sp, #4]	@ zero_extendqisi2
 2668 0016 C3F38003 		ubfx	r3, r3, #2, #1
 2669              		.loc 1 695 8 view .LVU738
 2670 001a 2370     		strb	r3, [r4]
 696:D:/fchai/work/i-cube/I-CUBE-HUAWEI/Drivers/BSP/Components/lps22hh\lps22hh_reg.c **** 
 697:D:/fchai/work/i-cube/I-CUBE-HUAWEI/Drivers/BSP/Components/lps22hh\lps22hh_reg.c ****   return ret;
 2671              		.loc 1 697 3 is_stmt 1 view .LVU739
 698:D:/fchai/work/i-cube/I-CUBE-HUAWEI/Drivers/BSP/Components/lps22hh\lps22hh_reg.c **** }
 2672              		.loc 1 698 1 is_stmt 0 view .LVU740
 2673 001c 03B0     		add	sp, sp, #12
 2674              	.LCFI75:
 2675              		.cfi_def_cfa_offset 12
 2676              		@ sp needed
 2677 001e 30BD     		pop	{r4, r5, pc}
 2678              		.loc 1 698 1 view .LVU741
 2679              		.cfi_endproc
 2680              	.LFE30:
 2682              		.section	.text.lps22hh_auto_increment_set,"ax",%progbits
 2683              		.align	1
 2684              		.p2align 2,,3
 2685              		.global	lps22hh_auto_increment_set
 2686              		.syntax unified
 2687              		.thumb
 2688              		.thumb_func
 2689              		.fpu fpv4-sp-d16
 2691              	lps22hh_auto_increment_set:
 2692              	.LVL211:
 2693              	.LFB31:
 699:D:/fchai/work/i-cube/I-CUBE-HUAWEI/Drivers/BSP/Components/lps22hh\lps22hh_reg.c **** 
 700:D:/fchai/work/i-cube/I-CUBE-HUAWEI/Drivers/BSP/Components/lps22hh\lps22hh_reg.c **** /**
 701:D:/fchai/work/i-cube/I-CUBE-HUAWEI/Drivers/BSP/Components/lps22hh\lps22hh_reg.c ****   * @brief  Register address automatically
 702:D:/fchai/work/i-cube/I-CUBE-HUAWEI/Drivers/BSP/Components/lps22hh\lps22hh_reg.c ****   *         incremented during a multiple byte access
 703:D:/fchai/work/i-cube/I-CUBE-HUAWEI/Drivers/BSP/Components/lps22hh\lps22hh_reg.c ****   *         with a serial interface.[set]
 704:D:/fchai/work/i-cube/I-CUBE-HUAWEI/Drivers/BSP/Components/lps22hh\lps22hh_reg.c ****   *
 705:D:/fchai/work/i-cube/I-CUBE-HUAWEI/Drivers/BSP/Components/lps22hh\lps22hh_reg.c ****   * @param  ctx      read / write interface definitions
 706:D:/fchai/work/i-cube/I-CUBE-HUAWEI/Drivers/BSP/Components/lps22hh\lps22hh_reg.c ****   * @param  val      change the values of if_add_inc in reg CTRL_REG2
 707:D:/fchai/work/i-cube/I-CUBE-HUAWEI/Drivers/BSP/Components/lps22hh\lps22hh_reg.c ****   * @retval          interface status (MANDATORY: return 0 -> no Error)
 708:D:/fchai/work/i-cube/I-CUBE-HUAWEI/Drivers/BSP/Components/lps22hh\lps22hh_reg.c ****   *
 709:D:/fchai/work/i-cube/I-CUBE-HUAWEI/Drivers/BSP/Components/lps22hh\lps22hh_reg.c ****   */
 710:D:/fchai/work/i-cube/I-CUBE-HUAWEI/Drivers/BSP/Components/lps22hh\lps22hh_reg.c **** int32_t lps22hh_auto_increment_set(stmdev_ctx_t *ctx, uint8_t val)
 711:D:/fchai/work/i-cube/I-CUBE-HUAWEI/Drivers/BSP/Components/lps22hh\lps22hh_reg.c **** {
 2694              		.loc 1 711 1 is_stmt 1 view -0
 2695              		.cfi_startproc
 2696              		@ args = 0, pretend = 0, frame = 8
 2697              		@ frame_needed = 0, uses_anonymous_args = 0
 712:D:/fchai/work/i-cube/I-CUBE-HUAWEI/Drivers/BSP/Components/lps22hh\lps22hh_reg.c ****   lps22hh_ctrl_reg2_t reg;
 2698              		.loc 1 712 3 view .LVU743
 713:D:/fchai/work/i-cube/I-CUBE-HUAWEI/Drivers/BSP/Components/lps22hh\lps22hh_reg.c ****   int32_t ret;
 2699              		.loc 1 713 3 view .LVU744
 714:D:/fchai/work/i-cube/I-CUBE-HUAWEI/Drivers/BSP/Components/lps22hh\lps22hh_reg.c **** 
 715:D:/fchai/work/i-cube/I-CUBE-HUAWEI/Drivers/BSP/Components/lps22hh\lps22hh_reg.c ****   ret = lps22hh_read_reg(ctx, LPS22HH_CTRL_REG2, (uint8_t*) &reg, 1);
ARM GAS  T:\msys\tmp\ccdfMMY7.s 			page 68


 2700              		.loc 1 715 3 view .LVU745
 711:D:/fchai/work/i-cube/I-CUBE-HUAWEI/Drivers/BSP/Components/lps22hh\lps22hh_reg.c ****   lps22hh_ctrl_reg2_t reg;
 2701              		.loc 1 711 1 is_stmt 0 view .LVU746
 2702 0000 70B5     		push	{r4, r5, r6, lr}
 2703              	.LCFI76:
 2704              		.cfi_def_cfa_offset 16
 2705              		.cfi_offset 4, -16
 2706              		.cfi_offset 5, -12
 2707              		.cfi_offset 6, -8
 2708              		.cfi_offset 14, -4
 2709 0002 82B0     		sub	sp, sp, #8
 2710              	.LCFI77:
 2711              		.cfi_def_cfa_offset 24
 711:D:/fchai/work/i-cube/I-CUBE-HUAWEI/Drivers/BSP/Components/lps22hh\lps22hh_reg.c ****   lps22hh_ctrl_reg2_t reg;
 2712              		.loc 1 711 1 view .LVU747
 2713 0004 0446     		mov	r4, r0
 2714              	.LVL212:
 2715              	.LBB388:
 2716              	.LBI388:
  49:D:/fchai/work/i-cube/I-CUBE-HUAWEI/Drivers/BSP/Components/lps22hh\lps22hh_reg.c ****                          uint16_t len)
 2717              		.loc 1 49 9 is_stmt 1 view .LVU748
 2718              	.LBB389:
  52:D:/fchai/work/i-cube/I-CUBE-HUAWEI/Drivers/BSP/Components/lps22hh\lps22hh_reg.c ****   ret = ctx->read_reg(ctx->handle, reg, data, len);
 2719              		.loc 1 52 3 view .LVU749
  53:D:/fchai/work/i-cube/I-CUBE-HUAWEI/Drivers/BSP/Components/lps22hh\lps22hh_reg.c ****   return ret;
 2720              		.loc 1 53 3 view .LVU750
 2721              	.LBE389:
 2722              	.LBE388:
 711:D:/fchai/work/i-cube/I-CUBE-HUAWEI/Drivers/BSP/Components/lps22hh\lps22hh_reg.c ****   lps22hh_ctrl_reg2_t reg;
 2723              		.loc 1 711 1 is_stmt 0 view .LVU751
 2724 0006 0D46     		mov	r5, r1
 2725              	.LBB391:
 2726              	.LBB390:
  53:D:/fchai/work/i-cube/I-CUBE-HUAWEI/Drivers/BSP/Components/lps22hh\lps22hh_reg.c ****   return ret;
 2727              		.loc 1 53 9 view .LVU752
 2728 0008 D0E90160 		ldrd	r6, r0, [r0, #4]
 2729              	.LVL213:
  53:D:/fchai/work/i-cube/I-CUBE-HUAWEI/Drivers/BSP/Components/lps22hh\lps22hh_reg.c ****   return ret;
 2730              		.loc 1 53 9 view .LVU753
 2731 000c 01AA     		add	r2, sp, #4
 2732              	.LVL214:
  53:D:/fchai/work/i-cube/I-CUBE-HUAWEI/Drivers/BSP/Components/lps22hh\lps22hh_reg.c ****   return ret;
 2733              		.loc 1 53 9 view .LVU754
 2734 000e 0123     		movs	r3, #1
 2735 0010 1121     		movs	r1, #17
 2736              	.LVL215:
  53:D:/fchai/work/i-cube/I-CUBE-HUAWEI/Drivers/BSP/Components/lps22hh\lps22hh_reg.c ****   return ret;
 2737              		.loc 1 53 9 view .LVU755
 2738 0012 B047     		blx	r6
 2739              	.LVL216:
  54:D:/fchai/work/i-cube/I-CUBE-HUAWEI/Drivers/BSP/Components/lps22hh\lps22hh_reg.c **** }
 2740              		.loc 1 54 3 is_stmt 1 view .LVU756
  54:D:/fchai/work/i-cube/I-CUBE-HUAWEI/Drivers/BSP/Components/lps22hh\lps22hh_reg.c **** }
 2741              		.loc 1 54 3 is_stmt 0 view .LVU757
 2742              	.LBE390:
 2743              	.LBE391:
 716:D:/fchai/work/i-cube/I-CUBE-HUAWEI/Drivers/BSP/Components/lps22hh\lps22hh_reg.c ****   if (ret == 0) {
ARM GAS  T:\msys\tmp\ccdfMMY7.s 			page 69


 2744              		.loc 1 716 3 is_stmt 1 view .LVU758
 2745              		.loc 1 716 6 is_stmt 0 view .LVU759
 2746 0014 58B9     		cbnz	r0, .L89
