ARM GAS  T:\msys\tmp\cc7XUJLO.s 			page 1


   1              		.cpu cortex-m4
   2              		.eabi_attribute 27, 1
   3              		.eabi_attribute 28, 1
   4              		.eabi_attribute 20, 1
   5              		.eabi_attribute 21, 1
   6              		.eabi_attribute 23, 3
   7              		.eabi_attribute 24, 1
   8              		.eabi_attribute 25, 1
   9              		.eabi_attribute 26, 1
  10              		.eabi_attribute 30, 2
  11              		.eabi_attribute 34, 1
  12              		.eabi_attribute 18, 4
  13              		.file	"lps22hh.c"
  14              		.text
  15              	.Ltext0:
  16              		.cfi_sections	.debug_frame
  17              		.section	.text.LPS22HH_GetCapabilities,"ax",%progbits
  18              		.align	1
  19              		.p2align 2,,3
  20              		.global	LPS22HH_GetCapabilities
  21              		.arch armv7e-m
  22              		.syntax unified
  23              		.thumb
  24              		.thumb_func
  25              		.fpu fpv4-sp-d16
  27              	LPS22HH_GetCapabilities:
  28              	.LVL0:
  29              	.LFB4:
  30              		.file 1 "D:/fchai/work/i-cube/I-CUBE-HUAWEI/Drivers/BSP/Components/lps22hh/lps22hh.c"
   1:D:/fchai/work/i-cube/I-CUBE-HUAWEI/Drivers/BSP/Components/lps22hh\lps22hh.c **** /**
   2:D:/fchai/work/i-cube/I-CUBE-HUAWEI/Drivers/BSP/Components/lps22hh\lps22hh.c ****  ******************************************************************************
   3:D:/fchai/work/i-cube/I-CUBE-HUAWEI/Drivers/BSP/Components/lps22hh\lps22hh.c ****  * @file    lps22hh.c
   4:D:/fchai/work/i-cube/I-CUBE-HUAWEI/Drivers/BSP/Components/lps22hh\lps22hh.c ****  * @author  MEMS Software Solutions Team
   5:D:/fchai/work/i-cube/I-CUBE-HUAWEI/Drivers/BSP/Components/lps22hh\lps22hh.c ****  * @brief   LPS22HH driver file
   6:D:/fchai/work/i-cube/I-CUBE-HUAWEI/Drivers/BSP/Components/lps22hh\lps22hh.c ****  ******************************************************************************
   7:D:/fchai/work/i-cube/I-CUBE-HUAWEI/Drivers/BSP/Components/lps22hh\lps22hh.c ****  * @attention
   8:D:/fchai/work/i-cube/I-CUBE-HUAWEI/Drivers/BSP/Components/lps22hh\lps22hh.c ****  *
   9:D:/fchai/work/i-cube/I-CUBE-HUAWEI/Drivers/BSP/Components/lps22hh\lps22hh.c ****  * <h2><center>&copy; Copyright (c) 2019 STMicroelectronics.
  10:D:/fchai/work/i-cube/I-CUBE-HUAWEI/Drivers/BSP/Components/lps22hh\lps22hh.c ****  * All rights reserved.</center></h2>
  11:D:/fchai/work/i-cube/I-CUBE-HUAWEI/Drivers/BSP/Components/lps22hh\lps22hh.c ****  *
  12:D:/fchai/work/i-cube/I-CUBE-HUAWEI/Drivers/BSP/Components/lps22hh\lps22hh.c ****  * This software component is licensed by ST under BSD 3-Clause license,
  13:D:/fchai/work/i-cube/I-CUBE-HUAWEI/Drivers/BSP/Components/lps22hh\lps22hh.c ****  * the "License"; You may not use this file except in compliance with the
  14:D:/fchai/work/i-cube/I-CUBE-HUAWEI/Drivers/BSP/Components/lps22hh\lps22hh.c ****  * License. You may obtain a copy of the License at:
  15:D:/fchai/work/i-cube/I-CUBE-HUAWEI/Drivers/BSP/Components/lps22hh\lps22hh.c ****  *                        opensource.org/licenses/BSD-3-Clause
  16:D:/fchai/work/i-cube/I-CUBE-HUAWEI/Drivers/BSP/Components/lps22hh\lps22hh.c ****  *
  17:D:/fchai/work/i-cube/I-CUBE-HUAWEI/Drivers/BSP/Components/lps22hh\lps22hh.c ****  ******************************************************************************
  18:D:/fchai/work/i-cube/I-CUBE-HUAWEI/Drivers/BSP/Components/lps22hh\lps22hh.c ****  */
  19:D:/fchai/work/i-cube/I-CUBE-HUAWEI/Drivers/BSP/Components/lps22hh\lps22hh.c **** 
  20:D:/fchai/work/i-cube/I-CUBE-HUAWEI/Drivers/BSP/Components/lps22hh\lps22hh.c **** /* Includes ------------------------------------------------------------------*/
  21:D:/fchai/work/i-cube/I-CUBE-HUAWEI/Drivers/BSP/Components/lps22hh\lps22hh.c **** #include "lps22hh.h"
  22:D:/fchai/work/i-cube/I-CUBE-HUAWEI/Drivers/BSP/Components/lps22hh\lps22hh.c **** 
  23:D:/fchai/work/i-cube/I-CUBE-HUAWEI/Drivers/BSP/Components/lps22hh\lps22hh.c **** /** @addtogroup BSP BSP
  24:D:/fchai/work/i-cube/I-CUBE-HUAWEI/Drivers/BSP/Components/lps22hh\lps22hh.c ****  * @{
  25:D:/fchai/work/i-cube/I-CUBE-HUAWEI/Drivers/BSP/Components/lps22hh\lps22hh.c ****  */
  26:D:/fchai/work/i-cube/I-CUBE-HUAWEI/Drivers/BSP/Components/lps22hh\lps22hh.c **** 
  27:D:/fchai/work/i-cube/I-CUBE-HUAWEI/Drivers/BSP/Components/lps22hh\lps22hh.c **** /** @addtogroup Component Component
  28:D:/fchai/work/i-cube/I-CUBE-HUAWEI/Drivers/BSP/Components/lps22hh\lps22hh.c ****  * @{
ARM GAS  T:\msys\tmp\cc7XUJLO.s 			page 2


  29:D:/fchai/work/i-cube/I-CUBE-HUAWEI/Drivers/BSP/Components/lps22hh\lps22hh.c ****  */
  30:D:/fchai/work/i-cube/I-CUBE-HUAWEI/Drivers/BSP/Components/lps22hh\lps22hh.c **** 
  31:D:/fchai/work/i-cube/I-CUBE-HUAWEI/Drivers/BSP/Components/lps22hh\lps22hh.c **** /** @defgroup LPS22HH LPS22HH
  32:D:/fchai/work/i-cube/I-CUBE-HUAWEI/Drivers/BSP/Components/lps22hh\lps22hh.c ****  * @{
  33:D:/fchai/work/i-cube/I-CUBE-HUAWEI/Drivers/BSP/Components/lps22hh\lps22hh.c ****  */
  34:D:/fchai/work/i-cube/I-CUBE-HUAWEI/Drivers/BSP/Components/lps22hh\lps22hh.c **** 
  35:D:/fchai/work/i-cube/I-CUBE-HUAWEI/Drivers/BSP/Components/lps22hh\lps22hh.c **** /** @defgroup LPS22HH_Exported_Variables LPS22HH Exported Variables
  36:D:/fchai/work/i-cube/I-CUBE-HUAWEI/Drivers/BSP/Components/lps22hh\lps22hh.c ****  * @{
  37:D:/fchai/work/i-cube/I-CUBE-HUAWEI/Drivers/BSP/Components/lps22hh\lps22hh.c ****  */
  38:D:/fchai/work/i-cube/I-CUBE-HUAWEI/Drivers/BSP/Components/lps22hh\lps22hh.c **** 
  39:D:/fchai/work/i-cube/I-CUBE-HUAWEI/Drivers/BSP/Components/lps22hh\lps22hh.c **** LPS22HH_CommonDrv_t LPS22HH_COMMON_Driver =
  40:D:/fchai/work/i-cube/I-CUBE-HUAWEI/Drivers/BSP/Components/lps22hh\lps22hh.c **** {
  41:D:/fchai/work/i-cube/I-CUBE-HUAWEI/Drivers/BSP/Components/lps22hh\lps22hh.c ****   LPS22HH_Init,
  42:D:/fchai/work/i-cube/I-CUBE-HUAWEI/Drivers/BSP/Components/lps22hh\lps22hh.c ****   LPS22HH_DeInit,
  43:D:/fchai/work/i-cube/I-CUBE-HUAWEI/Drivers/BSP/Components/lps22hh\lps22hh.c ****   LPS22HH_ReadID,
  44:D:/fchai/work/i-cube/I-CUBE-HUAWEI/Drivers/BSP/Components/lps22hh\lps22hh.c ****   LPS22HH_GetCapabilities,
  45:D:/fchai/work/i-cube/I-CUBE-HUAWEI/Drivers/BSP/Components/lps22hh\lps22hh.c **** };
  46:D:/fchai/work/i-cube/I-CUBE-HUAWEI/Drivers/BSP/Components/lps22hh\lps22hh.c **** 
  47:D:/fchai/work/i-cube/I-CUBE-HUAWEI/Drivers/BSP/Components/lps22hh\lps22hh.c **** LPS22HH_PRESS_Drv_t LPS22HH_PRESS_Driver =
  48:D:/fchai/work/i-cube/I-CUBE-HUAWEI/Drivers/BSP/Components/lps22hh\lps22hh.c **** {
  49:D:/fchai/work/i-cube/I-CUBE-HUAWEI/Drivers/BSP/Components/lps22hh\lps22hh.c ****   LPS22HH_PRESS_Enable,
  50:D:/fchai/work/i-cube/I-CUBE-HUAWEI/Drivers/BSP/Components/lps22hh\lps22hh.c ****   LPS22HH_PRESS_Disable,
  51:D:/fchai/work/i-cube/I-CUBE-HUAWEI/Drivers/BSP/Components/lps22hh\lps22hh.c ****   LPS22HH_PRESS_GetOutputDataRate,
  52:D:/fchai/work/i-cube/I-CUBE-HUAWEI/Drivers/BSP/Components/lps22hh\lps22hh.c ****   LPS22HH_PRESS_SetOutputDataRate,
  53:D:/fchai/work/i-cube/I-CUBE-HUAWEI/Drivers/BSP/Components/lps22hh\lps22hh.c ****   LPS22HH_PRESS_GetPressure,
  54:D:/fchai/work/i-cube/I-CUBE-HUAWEI/Drivers/BSP/Components/lps22hh\lps22hh.c **** };
  55:D:/fchai/work/i-cube/I-CUBE-HUAWEI/Drivers/BSP/Components/lps22hh\lps22hh.c **** 
  56:D:/fchai/work/i-cube/I-CUBE-HUAWEI/Drivers/BSP/Components/lps22hh\lps22hh.c **** LPS22HH_TEMP_Drv_t LPS22HH_TEMP_Driver =
  57:D:/fchai/work/i-cube/I-CUBE-HUAWEI/Drivers/BSP/Components/lps22hh\lps22hh.c **** {
  58:D:/fchai/work/i-cube/I-CUBE-HUAWEI/Drivers/BSP/Components/lps22hh\lps22hh.c ****   LPS22HH_TEMP_Enable,
  59:D:/fchai/work/i-cube/I-CUBE-HUAWEI/Drivers/BSP/Components/lps22hh\lps22hh.c ****   LPS22HH_TEMP_Disable,
  60:D:/fchai/work/i-cube/I-CUBE-HUAWEI/Drivers/BSP/Components/lps22hh\lps22hh.c ****   LPS22HH_TEMP_GetOutputDataRate,
  61:D:/fchai/work/i-cube/I-CUBE-HUAWEI/Drivers/BSP/Components/lps22hh\lps22hh.c ****   LPS22HH_TEMP_SetOutputDataRate,
  62:D:/fchai/work/i-cube/I-CUBE-HUAWEI/Drivers/BSP/Components/lps22hh\lps22hh.c ****   LPS22HH_TEMP_GetTemperature,
  63:D:/fchai/work/i-cube/I-CUBE-HUAWEI/Drivers/BSP/Components/lps22hh\lps22hh.c **** };
  64:D:/fchai/work/i-cube/I-CUBE-HUAWEI/Drivers/BSP/Components/lps22hh\lps22hh.c **** 
  65:D:/fchai/work/i-cube/I-CUBE-HUAWEI/Drivers/BSP/Components/lps22hh\lps22hh.c **** /**
  66:D:/fchai/work/i-cube/I-CUBE-HUAWEI/Drivers/BSP/Components/lps22hh\lps22hh.c ****  * @}
  67:D:/fchai/work/i-cube/I-CUBE-HUAWEI/Drivers/BSP/Components/lps22hh\lps22hh.c ****  */
  68:D:/fchai/work/i-cube/I-CUBE-HUAWEI/Drivers/BSP/Components/lps22hh\lps22hh.c **** 
  69:D:/fchai/work/i-cube/I-CUBE-HUAWEI/Drivers/BSP/Components/lps22hh\lps22hh.c **** /** @defgroup LPS22HH_Private_Function_Prototypes LPS22HH Private Function Prototypes
  70:D:/fchai/work/i-cube/I-CUBE-HUAWEI/Drivers/BSP/Components/lps22hh\lps22hh.c ****  * @{
  71:D:/fchai/work/i-cube/I-CUBE-HUAWEI/Drivers/BSP/Components/lps22hh\lps22hh.c ****  */
  72:D:/fchai/work/i-cube/I-CUBE-HUAWEI/Drivers/BSP/Components/lps22hh\lps22hh.c **** 
  73:D:/fchai/work/i-cube/I-CUBE-HUAWEI/Drivers/BSP/Components/lps22hh\lps22hh.c **** static int32_t ReadRegWrap(void *Handle, uint8_t Reg, uint8_t *pData, uint16_t Length);
  74:D:/fchai/work/i-cube/I-CUBE-HUAWEI/Drivers/BSP/Components/lps22hh\lps22hh.c **** static int32_t WriteRegWrap(void *Handle, uint8_t Reg, uint8_t *pData, uint16_t Length);
  75:D:/fchai/work/i-cube/I-CUBE-HUAWEI/Drivers/BSP/Components/lps22hh\lps22hh.c **** static int32_t LPS22HH_GetOutputDataRate(LPS22HH_Object_t *pObj, float *Odr);
  76:D:/fchai/work/i-cube/I-CUBE-HUAWEI/Drivers/BSP/Components/lps22hh\lps22hh.c **** static int32_t LPS22HH_SetOutputDataRate_When_Enabled(LPS22HH_Object_t *pObj, float Odr);
  77:D:/fchai/work/i-cube/I-CUBE-HUAWEI/Drivers/BSP/Components/lps22hh\lps22hh.c **** static int32_t LPS22HH_SetOutputDataRate_When_Disabled(LPS22HH_Object_t *pObj, float Odr);
  78:D:/fchai/work/i-cube/I-CUBE-HUAWEI/Drivers/BSP/Components/lps22hh\lps22hh.c **** static int32_t LPS22HH_Initialize(LPS22HH_Object_t *pObj);
  79:D:/fchai/work/i-cube/I-CUBE-HUAWEI/Drivers/BSP/Components/lps22hh\lps22hh.c **** 
  80:D:/fchai/work/i-cube/I-CUBE-HUAWEI/Drivers/BSP/Components/lps22hh\lps22hh.c **** /**
  81:D:/fchai/work/i-cube/I-CUBE-HUAWEI/Drivers/BSP/Components/lps22hh\lps22hh.c ****  * @}
  82:D:/fchai/work/i-cube/I-CUBE-HUAWEI/Drivers/BSP/Components/lps22hh\lps22hh.c ****  */
  83:D:/fchai/work/i-cube/I-CUBE-HUAWEI/Drivers/BSP/Components/lps22hh\lps22hh.c **** 
  84:D:/fchai/work/i-cube/I-CUBE-HUAWEI/Drivers/BSP/Components/lps22hh\lps22hh.c **** /** @defgroup LPS22HH_Exported_Functions LPS22HH Exported Functions
  85:D:/fchai/work/i-cube/I-CUBE-HUAWEI/Drivers/BSP/Components/lps22hh\lps22hh.c ****  * @{
ARM GAS  T:\msys\tmp\cc7XUJLO.s 			page 3


  86:D:/fchai/work/i-cube/I-CUBE-HUAWEI/Drivers/BSP/Components/lps22hh\lps22hh.c ****  */
  87:D:/fchai/work/i-cube/I-CUBE-HUAWEI/Drivers/BSP/Components/lps22hh\lps22hh.c **** 
  88:D:/fchai/work/i-cube/I-CUBE-HUAWEI/Drivers/BSP/Components/lps22hh\lps22hh.c **** /**
  89:D:/fchai/work/i-cube/I-CUBE-HUAWEI/Drivers/BSP/Components/lps22hh\lps22hh.c ****  * @brief  Register Component Bus IO operations
  90:D:/fchai/work/i-cube/I-CUBE-HUAWEI/Drivers/BSP/Components/lps22hh\lps22hh.c ****  * @param  pObj the device pObj
  91:D:/fchai/work/i-cube/I-CUBE-HUAWEI/Drivers/BSP/Components/lps22hh\lps22hh.c ****  * @retval 0 in case of success, an error code otherwise
  92:D:/fchai/work/i-cube/I-CUBE-HUAWEI/Drivers/BSP/Components/lps22hh\lps22hh.c ****  */
  93:D:/fchai/work/i-cube/I-CUBE-HUAWEI/Drivers/BSP/Components/lps22hh\lps22hh.c **** int32_t LPS22HH_RegisterBusIO(LPS22HH_Object_t *pObj, LPS22HH_IO_t *pIO)
  94:D:/fchai/work/i-cube/I-CUBE-HUAWEI/Drivers/BSP/Components/lps22hh\lps22hh.c **** {
  95:D:/fchai/work/i-cube/I-CUBE-HUAWEI/Drivers/BSP/Components/lps22hh\lps22hh.c ****   int32_t ret = LPS22HH_OK;
  96:D:/fchai/work/i-cube/I-CUBE-HUAWEI/Drivers/BSP/Components/lps22hh\lps22hh.c **** 
  97:D:/fchai/work/i-cube/I-CUBE-HUAWEI/Drivers/BSP/Components/lps22hh\lps22hh.c ****   if (pObj == NULL)
  98:D:/fchai/work/i-cube/I-CUBE-HUAWEI/Drivers/BSP/Components/lps22hh\lps22hh.c ****   {
  99:D:/fchai/work/i-cube/I-CUBE-HUAWEI/Drivers/BSP/Components/lps22hh\lps22hh.c ****     ret = LPS22HH_ERROR;
 100:D:/fchai/work/i-cube/I-CUBE-HUAWEI/Drivers/BSP/Components/lps22hh\lps22hh.c ****   }
 101:D:/fchai/work/i-cube/I-CUBE-HUAWEI/Drivers/BSP/Components/lps22hh\lps22hh.c ****   else
 102:D:/fchai/work/i-cube/I-CUBE-HUAWEI/Drivers/BSP/Components/lps22hh\lps22hh.c ****   {
 103:D:/fchai/work/i-cube/I-CUBE-HUAWEI/Drivers/BSP/Components/lps22hh\lps22hh.c ****     pObj->IO.Init      = pIO->Init;
 104:D:/fchai/work/i-cube/I-CUBE-HUAWEI/Drivers/BSP/Components/lps22hh\lps22hh.c ****     pObj->IO.DeInit    = pIO->DeInit;
 105:D:/fchai/work/i-cube/I-CUBE-HUAWEI/Drivers/BSP/Components/lps22hh\lps22hh.c ****     pObj->IO.BusType   = pIO->BusType;
 106:D:/fchai/work/i-cube/I-CUBE-HUAWEI/Drivers/BSP/Components/lps22hh\lps22hh.c ****     pObj->IO.Address   = pIO->Address;
 107:D:/fchai/work/i-cube/I-CUBE-HUAWEI/Drivers/BSP/Components/lps22hh\lps22hh.c ****     pObj->IO.WriteReg  = pIO->WriteReg;
 108:D:/fchai/work/i-cube/I-CUBE-HUAWEI/Drivers/BSP/Components/lps22hh\lps22hh.c ****     pObj->IO.ReadReg   = pIO->ReadReg;
 109:D:/fchai/work/i-cube/I-CUBE-HUAWEI/Drivers/BSP/Components/lps22hh\lps22hh.c ****     pObj->IO.GetTick   = pIO->GetTick;
 110:D:/fchai/work/i-cube/I-CUBE-HUAWEI/Drivers/BSP/Components/lps22hh\lps22hh.c **** 
 111:D:/fchai/work/i-cube/I-CUBE-HUAWEI/Drivers/BSP/Components/lps22hh\lps22hh.c ****     pObj->Ctx.read_reg  = ReadRegWrap;
 112:D:/fchai/work/i-cube/I-CUBE-HUAWEI/Drivers/BSP/Components/lps22hh\lps22hh.c ****     pObj->Ctx.write_reg = WriteRegWrap;
 113:D:/fchai/work/i-cube/I-CUBE-HUAWEI/Drivers/BSP/Components/lps22hh\lps22hh.c ****     pObj->Ctx.handle   = pObj;
 114:D:/fchai/work/i-cube/I-CUBE-HUAWEI/Drivers/BSP/Components/lps22hh\lps22hh.c **** 
 115:D:/fchai/work/i-cube/I-CUBE-HUAWEI/Drivers/BSP/Components/lps22hh\lps22hh.c ****     if (pObj->IO.Init == NULL)
 116:D:/fchai/work/i-cube/I-CUBE-HUAWEI/Drivers/BSP/Components/lps22hh\lps22hh.c ****     {
 117:D:/fchai/work/i-cube/I-CUBE-HUAWEI/Drivers/BSP/Components/lps22hh\lps22hh.c ****       ret = LPS22HH_ERROR;
 118:D:/fchai/work/i-cube/I-CUBE-HUAWEI/Drivers/BSP/Components/lps22hh\lps22hh.c ****     }
 119:D:/fchai/work/i-cube/I-CUBE-HUAWEI/Drivers/BSP/Components/lps22hh\lps22hh.c ****     else if (pObj->IO.Init() != LPS22HH_OK)
 120:D:/fchai/work/i-cube/I-CUBE-HUAWEI/Drivers/BSP/Components/lps22hh\lps22hh.c ****     {
 121:D:/fchai/work/i-cube/I-CUBE-HUAWEI/Drivers/BSP/Components/lps22hh\lps22hh.c ****       ret = LPS22HH_ERROR;
 122:D:/fchai/work/i-cube/I-CUBE-HUAWEI/Drivers/BSP/Components/lps22hh\lps22hh.c ****     }
 123:D:/fchai/work/i-cube/I-CUBE-HUAWEI/Drivers/BSP/Components/lps22hh\lps22hh.c ****     else
 124:D:/fchai/work/i-cube/I-CUBE-HUAWEI/Drivers/BSP/Components/lps22hh\lps22hh.c ****     {
 125:D:/fchai/work/i-cube/I-CUBE-HUAWEI/Drivers/BSP/Components/lps22hh\lps22hh.c ****       if (pObj->IO.BusType == LPS22HH_SPI_3WIRES_BUS) /* SPI 3-Wires */
 126:D:/fchai/work/i-cube/I-CUBE-HUAWEI/Drivers/BSP/Components/lps22hh\lps22hh.c ****       {
 127:D:/fchai/work/i-cube/I-CUBE-HUAWEI/Drivers/BSP/Components/lps22hh\lps22hh.c ****         /* Enable the SPI 3-Wires support only the first time */
 128:D:/fchai/work/i-cube/I-CUBE-HUAWEI/Drivers/BSP/Components/lps22hh\lps22hh.c ****         if (pObj->is_initialized == 0U)
 129:D:/fchai/work/i-cube/I-CUBE-HUAWEI/Drivers/BSP/Components/lps22hh\lps22hh.c ****         {
 130:D:/fchai/work/i-cube/I-CUBE-HUAWEI/Drivers/BSP/Components/lps22hh\lps22hh.c ****           /* Enable SPI 3-Wires on the component */
 131:D:/fchai/work/i-cube/I-CUBE-HUAWEI/Drivers/BSP/Components/lps22hh\lps22hh.c ****           uint8_t data = 0x01;
 132:D:/fchai/work/i-cube/I-CUBE-HUAWEI/Drivers/BSP/Components/lps22hh\lps22hh.c **** 
 133:D:/fchai/work/i-cube/I-CUBE-HUAWEI/Drivers/BSP/Components/lps22hh\lps22hh.c ****           if (LPS22HH_Write_Reg(pObj, LPS22HH_CTRL_REG1, data) != LPS22HH_OK)
 134:D:/fchai/work/i-cube/I-CUBE-HUAWEI/Drivers/BSP/Components/lps22hh\lps22hh.c ****           {
 135:D:/fchai/work/i-cube/I-CUBE-HUAWEI/Drivers/BSP/Components/lps22hh\lps22hh.c ****             ret = LPS22HH_ERROR;
 136:D:/fchai/work/i-cube/I-CUBE-HUAWEI/Drivers/BSP/Components/lps22hh\lps22hh.c ****           }
 137:D:/fchai/work/i-cube/I-CUBE-HUAWEI/Drivers/BSP/Components/lps22hh\lps22hh.c ****         }
 138:D:/fchai/work/i-cube/I-CUBE-HUAWEI/Drivers/BSP/Components/lps22hh\lps22hh.c ****       }
 139:D:/fchai/work/i-cube/I-CUBE-HUAWEI/Drivers/BSP/Components/lps22hh\lps22hh.c ****     }
 140:D:/fchai/work/i-cube/I-CUBE-HUAWEI/Drivers/BSP/Components/lps22hh\lps22hh.c ****   }
 141:D:/fchai/work/i-cube/I-CUBE-HUAWEI/Drivers/BSP/Components/lps22hh\lps22hh.c **** 
 142:D:/fchai/work/i-cube/I-CUBE-HUAWEI/Drivers/BSP/Components/lps22hh\lps22hh.c ****   return ret;
ARM GAS  T:\msys\tmp\cc7XUJLO.s 			page 4


 143:D:/fchai/work/i-cube/I-CUBE-HUAWEI/Drivers/BSP/Components/lps22hh\lps22hh.c **** }
 144:D:/fchai/work/i-cube/I-CUBE-HUAWEI/Drivers/BSP/Components/lps22hh\lps22hh.c **** 
 145:D:/fchai/work/i-cube/I-CUBE-HUAWEI/Drivers/BSP/Components/lps22hh\lps22hh.c **** /**
 146:D:/fchai/work/i-cube/I-CUBE-HUAWEI/Drivers/BSP/Components/lps22hh\lps22hh.c ****  * @brief  Initialize the LPS22HH sensor
 147:D:/fchai/work/i-cube/I-CUBE-HUAWEI/Drivers/BSP/Components/lps22hh\lps22hh.c ****  * @param  pObj the device pObj
 148:D:/fchai/work/i-cube/I-CUBE-HUAWEI/Drivers/BSP/Components/lps22hh\lps22hh.c ****  * @retval 0 in case of success, an error code otherwise
 149:D:/fchai/work/i-cube/I-CUBE-HUAWEI/Drivers/BSP/Components/lps22hh\lps22hh.c ****  */
 150:D:/fchai/work/i-cube/I-CUBE-HUAWEI/Drivers/BSP/Components/lps22hh\lps22hh.c **** int32_t LPS22HH_Init(LPS22HH_Object_t *pObj)
 151:D:/fchai/work/i-cube/I-CUBE-HUAWEI/Drivers/BSP/Components/lps22hh\lps22hh.c **** {
 152:D:/fchai/work/i-cube/I-CUBE-HUAWEI/Drivers/BSP/Components/lps22hh\lps22hh.c ****   if (pObj->is_initialized == 0U)
 153:D:/fchai/work/i-cube/I-CUBE-HUAWEI/Drivers/BSP/Components/lps22hh\lps22hh.c ****   {
 154:D:/fchai/work/i-cube/I-CUBE-HUAWEI/Drivers/BSP/Components/lps22hh\lps22hh.c ****     if (LPS22HH_Initialize(pObj) != LPS22HH_OK)
 155:D:/fchai/work/i-cube/I-CUBE-HUAWEI/Drivers/BSP/Components/lps22hh\lps22hh.c ****     {
 156:D:/fchai/work/i-cube/I-CUBE-HUAWEI/Drivers/BSP/Components/lps22hh\lps22hh.c ****       return LPS22HH_ERROR;
 157:D:/fchai/work/i-cube/I-CUBE-HUAWEI/Drivers/BSP/Components/lps22hh\lps22hh.c ****     }
 158:D:/fchai/work/i-cube/I-CUBE-HUAWEI/Drivers/BSP/Components/lps22hh\lps22hh.c ****   }
 159:D:/fchai/work/i-cube/I-CUBE-HUAWEI/Drivers/BSP/Components/lps22hh\lps22hh.c **** 
 160:D:/fchai/work/i-cube/I-CUBE-HUAWEI/Drivers/BSP/Components/lps22hh\lps22hh.c ****   pObj->is_initialized = 1U;
 161:D:/fchai/work/i-cube/I-CUBE-HUAWEI/Drivers/BSP/Components/lps22hh\lps22hh.c **** 
 162:D:/fchai/work/i-cube/I-CUBE-HUAWEI/Drivers/BSP/Components/lps22hh\lps22hh.c ****   return LPS22HH_OK;
 163:D:/fchai/work/i-cube/I-CUBE-HUAWEI/Drivers/BSP/Components/lps22hh\lps22hh.c **** }
 164:D:/fchai/work/i-cube/I-CUBE-HUAWEI/Drivers/BSP/Components/lps22hh\lps22hh.c **** 
 165:D:/fchai/work/i-cube/I-CUBE-HUAWEI/Drivers/BSP/Components/lps22hh\lps22hh.c **** /**
 166:D:/fchai/work/i-cube/I-CUBE-HUAWEI/Drivers/BSP/Components/lps22hh\lps22hh.c ****  * @brief  Deinitialize the LPS22HH sensor
 167:D:/fchai/work/i-cube/I-CUBE-HUAWEI/Drivers/BSP/Components/lps22hh\lps22hh.c ****  * @param  pObj the device pObj
 168:D:/fchai/work/i-cube/I-CUBE-HUAWEI/Drivers/BSP/Components/lps22hh\lps22hh.c ****  * @retval 0 in case of success, an error code otherwise
 169:D:/fchai/work/i-cube/I-CUBE-HUAWEI/Drivers/BSP/Components/lps22hh\lps22hh.c ****  */
 170:D:/fchai/work/i-cube/I-CUBE-HUAWEI/Drivers/BSP/Components/lps22hh\lps22hh.c **** int32_t LPS22HH_DeInit(LPS22HH_Object_t *pObj)
 171:D:/fchai/work/i-cube/I-CUBE-HUAWEI/Drivers/BSP/Components/lps22hh\lps22hh.c **** {
 172:D:/fchai/work/i-cube/I-CUBE-HUAWEI/Drivers/BSP/Components/lps22hh\lps22hh.c ****   if (pObj->is_initialized == 1U)
 173:D:/fchai/work/i-cube/I-CUBE-HUAWEI/Drivers/BSP/Components/lps22hh\lps22hh.c ****   {
 174:D:/fchai/work/i-cube/I-CUBE-HUAWEI/Drivers/BSP/Components/lps22hh\lps22hh.c ****     if (LPS22HH_PRESS_Disable(pObj) != LPS22HH_OK)
 175:D:/fchai/work/i-cube/I-CUBE-HUAWEI/Drivers/BSP/Components/lps22hh\lps22hh.c ****     {
 176:D:/fchai/work/i-cube/I-CUBE-HUAWEI/Drivers/BSP/Components/lps22hh\lps22hh.c ****       return LPS22HH_ERROR;
 177:D:/fchai/work/i-cube/I-CUBE-HUAWEI/Drivers/BSP/Components/lps22hh\lps22hh.c ****     }
 178:D:/fchai/work/i-cube/I-CUBE-HUAWEI/Drivers/BSP/Components/lps22hh\lps22hh.c **** 
 179:D:/fchai/work/i-cube/I-CUBE-HUAWEI/Drivers/BSP/Components/lps22hh\lps22hh.c ****     if (LPS22HH_TEMP_Disable(pObj) != LPS22HH_OK)
 180:D:/fchai/work/i-cube/I-CUBE-HUAWEI/Drivers/BSP/Components/lps22hh\lps22hh.c ****     {
 181:D:/fchai/work/i-cube/I-CUBE-HUAWEI/Drivers/BSP/Components/lps22hh\lps22hh.c ****       return LPS22HH_ERROR;
 182:D:/fchai/work/i-cube/I-CUBE-HUAWEI/Drivers/BSP/Components/lps22hh\lps22hh.c ****     }
 183:D:/fchai/work/i-cube/I-CUBE-HUAWEI/Drivers/BSP/Components/lps22hh\lps22hh.c ****   }
 184:D:/fchai/work/i-cube/I-CUBE-HUAWEI/Drivers/BSP/Components/lps22hh\lps22hh.c **** 
 185:D:/fchai/work/i-cube/I-CUBE-HUAWEI/Drivers/BSP/Components/lps22hh\lps22hh.c ****   pObj->is_initialized = 0;
 186:D:/fchai/work/i-cube/I-CUBE-HUAWEI/Drivers/BSP/Components/lps22hh\lps22hh.c **** 
 187:D:/fchai/work/i-cube/I-CUBE-HUAWEI/Drivers/BSP/Components/lps22hh\lps22hh.c ****   return LPS22HH_OK;
 188:D:/fchai/work/i-cube/I-CUBE-HUAWEI/Drivers/BSP/Components/lps22hh\lps22hh.c **** }
 189:D:/fchai/work/i-cube/I-CUBE-HUAWEI/Drivers/BSP/Components/lps22hh\lps22hh.c **** 
 190:D:/fchai/work/i-cube/I-CUBE-HUAWEI/Drivers/BSP/Components/lps22hh\lps22hh.c **** /**
 191:D:/fchai/work/i-cube/I-CUBE-HUAWEI/Drivers/BSP/Components/lps22hh\lps22hh.c ****  * @brief  Get WHO_AM_I value
 192:D:/fchai/work/i-cube/I-CUBE-HUAWEI/Drivers/BSP/Components/lps22hh\lps22hh.c ****  * @param  pObj the device pObj
 193:D:/fchai/work/i-cube/I-CUBE-HUAWEI/Drivers/BSP/Components/lps22hh\lps22hh.c ****  * @param  Id the WHO_AM_I value
 194:D:/fchai/work/i-cube/I-CUBE-HUAWEI/Drivers/BSP/Components/lps22hh\lps22hh.c ****  * @retval 0 in case of success, an error code otherwise
 195:D:/fchai/work/i-cube/I-CUBE-HUAWEI/Drivers/BSP/Components/lps22hh\lps22hh.c ****  */
 196:D:/fchai/work/i-cube/I-CUBE-HUAWEI/Drivers/BSP/Components/lps22hh\lps22hh.c **** int32_t LPS22HH_ReadID(LPS22HH_Object_t *pObj, uint8_t *Id)
 197:D:/fchai/work/i-cube/I-CUBE-HUAWEI/Drivers/BSP/Components/lps22hh\lps22hh.c **** {
 198:D:/fchai/work/i-cube/I-CUBE-HUAWEI/Drivers/BSP/Components/lps22hh\lps22hh.c ****   if (lps22hh_device_id_get(&(pObj->Ctx), Id) != LPS22HH_OK)
 199:D:/fchai/work/i-cube/I-CUBE-HUAWEI/Drivers/BSP/Components/lps22hh\lps22hh.c ****   {
ARM GAS  T:\msys\tmp\cc7XUJLO.s 			page 5


 200:D:/fchai/work/i-cube/I-CUBE-HUAWEI/Drivers/BSP/Components/lps22hh\lps22hh.c ****     return LPS22HH_ERROR;
 201:D:/fchai/work/i-cube/I-CUBE-HUAWEI/Drivers/BSP/Components/lps22hh\lps22hh.c ****   }
 202:D:/fchai/work/i-cube/I-CUBE-HUAWEI/Drivers/BSP/Components/lps22hh\lps22hh.c **** 
 203:D:/fchai/work/i-cube/I-CUBE-HUAWEI/Drivers/BSP/Components/lps22hh\lps22hh.c ****   return LPS22HH_OK;
 204:D:/fchai/work/i-cube/I-CUBE-HUAWEI/Drivers/BSP/Components/lps22hh\lps22hh.c **** }
 205:D:/fchai/work/i-cube/I-CUBE-HUAWEI/Drivers/BSP/Components/lps22hh\lps22hh.c **** 
 206:D:/fchai/work/i-cube/I-CUBE-HUAWEI/Drivers/BSP/Components/lps22hh\lps22hh.c **** /**
 207:D:/fchai/work/i-cube/I-CUBE-HUAWEI/Drivers/BSP/Components/lps22hh\lps22hh.c ****  * @brief  Get LPS22HH sensor capabilities
 208:D:/fchai/work/i-cube/I-CUBE-HUAWEI/Drivers/BSP/Components/lps22hh\lps22hh.c ****  * @param  pObj Component object pointer
 209:D:/fchai/work/i-cube/I-CUBE-HUAWEI/Drivers/BSP/Components/lps22hh\lps22hh.c ****  * @param  Capabilities pointer to LPS22HH sensor capabilities
 210:D:/fchai/work/i-cube/I-CUBE-HUAWEI/Drivers/BSP/Components/lps22hh\lps22hh.c ****  * @retval 0 in case of success, an error code otherwise
 211:D:/fchai/work/i-cube/I-CUBE-HUAWEI/Drivers/BSP/Components/lps22hh\lps22hh.c ****  */
 212:D:/fchai/work/i-cube/I-CUBE-HUAWEI/Drivers/BSP/Components/lps22hh\lps22hh.c **** int32_t LPS22HH_GetCapabilities(LPS22HH_Object_t *pObj, LPS22HH_Capabilities_t *Capabilities)
 213:D:/fchai/work/i-cube/I-CUBE-HUAWEI/Drivers/BSP/Components/lps22hh\lps22hh.c **** {
  31              		.loc 1 213 1 view -0
  32              		.cfi_startproc
  33              		@ args = 0, pretend = 0, frame = 0
  34              		@ frame_needed = 0, uses_anonymous_args = 0
  35              		@ link register save eliminated.
 214:D:/fchai/work/i-cube/I-CUBE-HUAWEI/Drivers/BSP/Components/lps22hh\lps22hh.c ****   /* Prevent unused argument(s) compilation warning */
 215:D:/fchai/work/i-cube/I-CUBE-HUAWEI/Drivers/BSP/Components/lps22hh\lps22hh.c ****   (void)(pObj);
  36              		.loc 1 215 3 view .LVU1
 216:D:/fchai/work/i-cube/I-CUBE-HUAWEI/Drivers/BSP/Components/lps22hh\lps22hh.c **** 
 217:D:/fchai/work/i-cube/I-CUBE-HUAWEI/Drivers/BSP/Components/lps22hh\lps22hh.c ****   Capabilities->Humidity    = 0;
  37              		.loc 1 217 3 view .LVU2
 218:D:/fchai/work/i-cube/I-CUBE-HUAWEI/Drivers/BSP/Components/lps22hh\lps22hh.c ****   Capabilities->Pressure    = 1;
  38              		.loc 1 218 3 view .LVU3
 219:D:/fchai/work/i-cube/I-CUBE-HUAWEI/Drivers/BSP/Components/lps22hh\lps22hh.c ****   Capabilities->Temperature = 1;
  39              		.loc 1 219 3 view .LVU4
 220:D:/fchai/work/i-cube/I-CUBE-HUAWEI/Drivers/BSP/Components/lps22hh\lps22hh.c ****   Capabilities->LowPower    = 0;
  40              		.loc 1 220 3 view .LVU5
 221:D:/fchai/work/i-cube/I-CUBE-HUAWEI/Drivers/BSP/Components/lps22hh\lps22hh.c ****   Capabilities->HumMaxOdr   = 0.0f;
  41              		.loc 1 221 3 view .LVU6
 222:D:/fchai/work/i-cube/I-CUBE-HUAWEI/Drivers/BSP/Components/lps22hh\lps22hh.c ****   Capabilities->TempMaxOdr  = 200.0f;
  42              		.loc 1 222 3 view .LVU7
 223:D:/fchai/work/i-cube/I-CUBE-HUAWEI/Drivers/BSP/Components/lps22hh\lps22hh.c ****   Capabilities->PressMaxOdr = 200.0f;
  43              		.loc 1 223 3 view .LVU8
 221:D:/fchai/work/i-cube/I-CUBE-HUAWEI/Drivers/BSP/Components/lps22hh\lps22hh.c ****   Capabilities->HumMaxOdr   = 0.0f;
  44              		.loc 1 221 29 is_stmt 0 view .LVU9
  45 0000 0022     		movs	r2, #0
 222:D:/fchai/work/i-cube/I-CUBE-HUAWEI/Drivers/BSP/Components/lps22hh\lps22hh.c ****   Capabilities->TempMaxOdr  = 200.0f;
  46              		.loc 1 222 29 view .LVU10
  47 0002 044B     		ldr	r3, .L3
 221:D:/fchai/work/i-cube/I-CUBE-HUAWEI/Drivers/BSP/Components/lps22hh\lps22hh.c ****   Capabilities->HumMaxOdr   = 0.0f;
  48              		.loc 1 221 29 view .LVU11
  49 0004 4A60     		str	r2, [r1, #4]	@ float
 219:D:/fchai/work/i-cube/I-CUBE-HUAWEI/Drivers/BSP/Components/lps22hh\lps22hh.c ****   Capabilities->LowPower    = 0;
  50              		.loc 1 219 29 view .LVU12
  51 0006 40F20112 		movw	r2, #257
  52 000a 0A60     		str	r2, [r1]
 222:D:/fchai/work/i-cube/I-CUBE-HUAWEI/Drivers/BSP/Components/lps22hh\lps22hh.c ****   Capabilities->TempMaxOdr  = 200.0f;
  53              		.loc 1 222 29 view .LVU13
  54 000c 8B60     		str	r3, [r1, #8]	@ float
  55              		.loc 1 223 29 view .LVU14
  56 000e CB60     		str	r3, [r1, #12]	@ float
 224:D:/fchai/work/i-cube/I-CUBE-HUAWEI/Drivers/BSP/Components/lps22hh\lps22hh.c ****   return LPS22HH_OK;
  57              		.loc 1 224 3 is_stmt 1 view .LVU15
ARM GAS  T:\msys\tmp\cc7XUJLO.s 			page 6


 225:D:/fchai/work/i-cube/I-CUBE-HUAWEI/Drivers/BSP/Components/lps22hh\lps22hh.c **** }
  58              		.loc 1 225 1 is_stmt 0 view .LVU16
  59 0010 0020     		movs	r0, #0
  60              	.LVL1:
  61              		.loc 1 225 1 view .LVU17
  62 0012 7047     		bx	lr
  63              	.L4:
  64              		.align	2
  65              	.L3:
  66 0014 00004843 		.word	1128792064
  67              		.cfi_endproc
  68              	.LFE4:
  70              		.section	.text.ReadRegWrap,"ax",%progbits
  71              		.align	1
  72              		.p2align 2,,3
  73              		.syntax unified
  74              		.thumb
  75              		.thumb_func
  76              		.fpu fpv4-sp-d16
  78              	ReadRegWrap:
  79              	.LVL2:
  80              	.LFB40:
 226:D:/fchai/work/i-cube/I-CUBE-HUAWEI/Drivers/BSP/Components/lps22hh\lps22hh.c **** 
 227:D:/fchai/work/i-cube/I-CUBE-HUAWEI/Drivers/BSP/Components/lps22hh\lps22hh.c **** /**
 228:D:/fchai/work/i-cube/I-CUBE-HUAWEI/Drivers/BSP/Components/lps22hh\lps22hh.c ****  * @brief  Get the LPS22HH initialization status
 229:D:/fchai/work/i-cube/I-CUBE-HUAWEI/Drivers/BSP/Components/lps22hh\lps22hh.c ****  * @param  pObj the device pObj
 230:D:/fchai/work/i-cube/I-CUBE-HUAWEI/Drivers/BSP/Components/lps22hh\lps22hh.c ****  * @param  Status 1 if initialized, 0 otherwise
 231:D:/fchai/work/i-cube/I-CUBE-HUAWEI/Drivers/BSP/Components/lps22hh\lps22hh.c ****  * @retval 0 in case of success, an error code otherwise
 232:D:/fchai/work/i-cube/I-CUBE-HUAWEI/Drivers/BSP/Components/lps22hh\lps22hh.c ****  */
 233:D:/fchai/work/i-cube/I-CUBE-HUAWEI/Drivers/BSP/Components/lps22hh\lps22hh.c **** int32_t LPS22HH_Get_Init_Status(LPS22HH_Object_t *pObj, uint8_t *Status)
 234:D:/fchai/work/i-cube/I-CUBE-HUAWEI/Drivers/BSP/Components/lps22hh\lps22hh.c **** {
 235:D:/fchai/work/i-cube/I-CUBE-HUAWEI/Drivers/BSP/Components/lps22hh\lps22hh.c ****   if (pObj == NULL)
 236:D:/fchai/work/i-cube/I-CUBE-HUAWEI/Drivers/BSP/Components/lps22hh\lps22hh.c ****   {
 237:D:/fchai/work/i-cube/I-CUBE-HUAWEI/Drivers/BSP/Components/lps22hh\lps22hh.c ****     return LPS22HH_ERROR;
 238:D:/fchai/work/i-cube/I-CUBE-HUAWEI/Drivers/BSP/Components/lps22hh\lps22hh.c ****   }
 239:D:/fchai/work/i-cube/I-CUBE-HUAWEI/Drivers/BSP/Components/lps22hh\lps22hh.c **** 
 240:D:/fchai/work/i-cube/I-CUBE-HUAWEI/Drivers/BSP/Components/lps22hh\lps22hh.c ****   *Status = pObj->is_initialized;
 241:D:/fchai/work/i-cube/I-CUBE-HUAWEI/Drivers/BSP/Components/lps22hh\lps22hh.c **** 
 242:D:/fchai/work/i-cube/I-CUBE-HUAWEI/Drivers/BSP/Components/lps22hh\lps22hh.c ****   return LPS22HH_OK;
 243:D:/fchai/work/i-cube/I-CUBE-HUAWEI/Drivers/BSP/Components/lps22hh\lps22hh.c **** }
 244:D:/fchai/work/i-cube/I-CUBE-HUAWEI/Drivers/BSP/Components/lps22hh\lps22hh.c **** 
 245:D:/fchai/work/i-cube/I-CUBE-HUAWEI/Drivers/BSP/Components/lps22hh\lps22hh.c **** /**
 246:D:/fchai/work/i-cube/I-CUBE-HUAWEI/Drivers/BSP/Components/lps22hh\lps22hh.c ****  * @brief  Enable the LPS22HH pressure sensor
 247:D:/fchai/work/i-cube/I-CUBE-HUAWEI/Drivers/BSP/Components/lps22hh\lps22hh.c ****  * @param  pObj the device pObj
 248:D:/fchai/work/i-cube/I-CUBE-HUAWEI/Drivers/BSP/Components/lps22hh\lps22hh.c ****  * @retval 0 in case of success, an error code otherwise
 249:D:/fchai/work/i-cube/I-CUBE-HUAWEI/Drivers/BSP/Components/lps22hh\lps22hh.c ****  */
 250:D:/fchai/work/i-cube/I-CUBE-HUAWEI/Drivers/BSP/Components/lps22hh\lps22hh.c **** int32_t LPS22HH_PRESS_Enable(LPS22HH_Object_t *pObj)
 251:D:/fchai/work/i-cube/I-CUBE-HUAWEI/Drivers/BSP/Components/lps22hh\lps22hh.c **** {
 252:D:/fchai/work/i-cube/I-CUBE-HUAWEI/Drivers/BSP/Components/lps22hh\lps22hh.c ****   /* Check if the component is already enabled */
 253:D:/fchai/work/i-cube/I-CUBE-HUAWEI/Drivers/BSP/Components/lps22hh\lps22hh.c ****   if (pObj->press_is_enabled == 1U)
 254:D:/fchai/work/i-cube/I-CUBE-HUAWEI/Drivers/BSP/Components/lps22hh\lps22hh.c ****   {
 255:D:/fchai/work/i-cube/I-CUBE-HUAWEI/Drivers/BSP/Components/lps22hh\lps22hh.c ****     return LPS22HH_OK;
 256:D:/fchai/work/i-cube/I-CUBE-HUAWEI/Drivers/BSP/Components/lps22hh\lps22hh.c ****   }
 257:D:/fchai/work/i-cube/I-CUBE-HUAWEI/Drivers/BSP/Components/lps22hh\lps22hh.c **** 
 258:D:/fchai/work/i-cube/I-CUBE-HUAWEI/Drivers/BSP/Components/lps22hh\lps22hh.c ****   /* Output data rate selection. */
 259:D:/fchai/work/i-cube/I-CUBE-HUAWEI/Drivers/BSP/Components/lps22hh\lps22hh.c ****   if (lps22hh_data_rate_set(&(pObj->Ctx), pObj->last_odr) != LPS22HH_OK)
 260:D:/fchai/work/i-cube/I-CUBE-HUAWEI/Drivers/BSP/Components/lps22hh\lps22hh.c ****   {
ARM GAS  T:\msys\tmp\cc7XUJLO.s 			page 7


 261:D:/fchai/work/i-cube/I-CUBE-HUAWEI/Drivers/BSP/Components/lps22hh\lps22hh.c ****     return LPS22HH_ERROR;
 262:D:/fchai/work/i-cube/I-CUBE-HUAWEI/Drivers/BSP/Components/lps22hh\lps22hh.c ****   }
 263:D:/fchai/work/i-cube/I-CUBE-HUAWEI/Drivers/BSP/Components/lps22hh\lps22hh.c **** 
 264:D:/fchai/work/i-cube/I-CUBE-HUAWEI/Drivers/BSP/Components/lps22hh\lps22hh.c ****   pObj->press_is_enabled = 1;
 265:D:/fchai/work/i-cube/I-CUBE-HUAWEI/Drivers/BSP/Components/lps22hh\lps22hh.c **** 
 266:D:/fchai/work/i-cube/I-CUBE-HUAWEI/Drivers/BSP/Components/lps22hh\lps22hh.c ****   return LPS22HH_OK;
 267:D:/fchai/work/i-cube/I-CUBE-HUAWEI/Drivers/BSP/Components/lps22hh\lps22hh.c **** }
 268:D:/fchai/work/i-cube/I-CUBE-HUAWEI/Drivers/BSP/Components/lps22hh\lps22hh.c **** 
 269:D:/fchai/work/i-cube/I-CUBE-HUAWEI/Drivers/BSP/Components/lps22hh\lps22hh.c **** /**
 270:D:/fchai/work/i-cube/I-CUBE-HUAWEI/Drivers/BSP/Components/lps22hh\lps22hh.c ****  * @brief  Disable the LPS22HH pressure sensor
 271:D:/fchai/work/i-cube/I-CUBE-HUAWEI/Drivers/BSP/Components/lps22hh\lps22hh.c ****  * @param  pObj the device pObj
 272:D:/fchai/work/i-cube/I-CUBE-HUAWEI/Drivers/BSP/Components/lps22hh\lps22hh.c ****  * @retval 0 in case of success, an error code otherwise
 273:D:/fchai/work/i-cube/I-CUBE-HUAWEI/Drivers/BSP/Components/lps22hh\lps22hh.c ****  */
 274:D:/fchai/work/i-cube/I-CUBE-HUAWEI/Drivers/BSP/Components/lps22hh\lps22hh.c **** int32_t LPS22HH_PRESS_Disable(LPS22HH_Object_t *pObj)
 275:D:/fchai/work/i-cube/I-CUBE-HUAWEI/Drivers/BSP/Components/lps22hh\lps22hh.c **** {
 276:D:/fchai/work/i-cube/I-CUBE-HUAWEI/Drivers/BSP/Components/lps22hh\lps22hh.c ****   /* Check if the component is already disabled */
 277:D:/fchai/work/i-cube/I-CUBE-HUAWEI/Drivers/BSP/Components/lps22hh\lps22hh.c ****   if (pObj->press_is_enabled == 0U)
 278:D:/fchai/work/i-cube/I-CUBE-HUAWEI/Drivers/BSP/Components/lps22hh\lps22hh.c ****   {
 279:D:/fchai/work/i-cube/I-CUBE-HUAWEI/Drivers/BSP/Components/lps22hh\lps22hh.c ****     return LPS22HH_OK;
 280:D:/fchai/work/i-cube/I-CUBE-HUAWEI/Drivers/BSP/Components/lps22hh\lps22hh.c ****   }
 281:D:/fchai/work/i-cube/I-CUBE-HUAWEI/Drivers/BSP/Components/lps22hh\lps22hh.c **** 
 282:D:/fchai/work/i-cube/I-CUBE-HUAWEI/Drivers/BSP/Components/lps22hh\lps22hh.c ****   /* Check if the LPS22HH temperature sensor is still enable. */
 283:D:/fchai/work/i-cube/I-CUBE-HUAWEI/Drivers/BSP/Components/lps22hh\lps22hh.c ****   /* If yes, skip the disable function, if not call disable function */
 284:D:/fchai/work/i-cube/I-CUBE-HUAWEI/Drivers/BSP/Components/lps22hh\lps22hh.c ****   if (pObj->temp_is_enabled == 0U)
 285:D:/fchai/work/i-cube/I-CUBE-HUAWEI/Drivers/BSP/Components/lps22hh\lps22hh.c ****   {
 286:D:/fchai/work/i-cube/I-CUBE-HUAWEI/Drivers/BSP/Components/lps22hh\lps22hh.c ****     /* Get current output data rate. */
 287:D:/fchai/work/i-cube/I-CUBE-HUAWEI/Drivers/BSP/Components/lps22hh\lps22hh.c ****     if (lps22hh_data_rate_get(&(pObj->Ctx), &pObj->last_odr) != LPS22HH_OK)
 288:D:/fchai/work/i-cube/I-CUBE-HUAWEI/Drivers/BSP/Components/lps22hh\lps22hh.c ****     {
 289:D:/fchai/work/i-cube/I-CUBE-HUAWEI/Drivers/BSP/Components/lps22hh\lps22hh.c ****       return LPS22HH_ERROR;
 290:D:/fchai/work/i-cube/I-CUBE-HUAWEI/Drivers/BSP/Components/lps22hh\lps22hh.c ****     }
 291:D:/fchai/work/i-cube/I-CUBE-HUAWEI/Drivers/BSP/Components/lps22hh\lps22hh.c **** 
 292:D:/fchai/work/i-cube/I-CUBE-HUAWEI/Drivers/BSP/Components/lps22hh\lps22hh.c ****     /* Output data rate selection - power down. */
 293:D:/fchai/work/i-cube/I-CUBE-HUAWEI/Drivers/BSP/Components/lps22hh\lps22hh.c ****     if (lps22hh_data_rate_set(&(pObj->Ctx), LPS22HH_POWER_DOWN) != LPS22HH_OK)
 294:D:/fchai/work/i-cube/I-CUBE-HUAWEI/Drivers/BSP/Components/lps22hh\lps22hh.c ****     {
 295:D:/fchai/work/i-cube/I-CUBE-HUAWEI/Drivers/BSP/Components/lps22hh\lps22hh.c ****       return LPS22HH_ERROR;
 296:D:/fchai/work/i-cube/I-CUBE-HUAWEI/Drivers/BSP/Components/lps22hh\lps22hh.c ****     }
 297:D:/fchai/work/i-cube/I-CUBE-HUAWEI/Drivers/BSP/Components/lps22hh\lps22hh.c ****   }
 298:D:/fchai/work/i-cube/I-CUBE-HUAWEI/Drivers/BSP/Components/lps22hh\lps22hh.c **** 
 299:D:/fchai/work/i-cube/I-CUBE-HUAWEI/Drivers/BSP/Components/lps22hh\lps22hh.c ****   pObj->press_is_enabled = 0;
 300:D:/fchai/work/i-cube/I-CUBE-HUAWEI/Drivers/BSP/Components/lps22hh\lps22hh.c **** 
 301:D:/fchai/work/i-cube/I-CUBE-HUAWEI/Drivers/BSP/Components/lps22hh\lps22hh.c ****   return LPS22HH_OK;
 302:D:/fchai/work/i-cube/I-CUBE-HUAWEI/Drivers/BSP/Components/lps22hh\lps22hh.c **** }
 303:D:/fchai/work/i-cube/I-CUBE-HUAWEI/Drivers/BSP/Components/lps22hh\lps22hh.c **** 
 304:D:/fchai/work/i-cube/I-CUBE-HUAWEI/Drivers/BSP/Components/lps22hh\lps22hh.c **** /**
 305:D:/fchai/work/i-cube/I-CUBE-HUAWEI/Drivers/BSP/Components/lps22hh\lps22hh.c ****  * @brief  Get the LPS22HH pressure sensor output data rate
 306:D:/fchai/work/i-cube/I-CUBE-HUAWEI/Drivers/BSP/Components/lps22hh\lps22hh.c ****  * @param  pObj the device pObj
 307:D:/fchai/work/i-cube/I-CUBE-HUAWEI/Drivers/BSP/Components/lps22hh\lps22hh.c ****  * @param  Odr pointer where the output data rate is written
 308:D:/fchai/work/i-cube/I-CUBE-HUAWEI/Drivers/BSP/Components/lps22hh\lps22hh.c ****  * @retval 0 in case of success, an error code otherwise
 309:D:/fchai/work/i-cube/I-CUBE-HUAWEI/Drivers/BSP/Components/lps22hh\lps22hh.c ****  */
 310:D:/fchai/work/i-cube/I-CUBE-HUAWEI/Drivers/BSP/Components/lps22hh\lps22hh.c **** int32_t LPS22HH_PRESS_GetOutputDataRate(LPS22HH_Object_t *pObj, float *Odr)
 311:D:/fchai/work/i-cube/I-CUBE-HUAWEI/Drivers/BSP/Components/lps22hh\lps22hh.c **** {
 312:D:/fchai/work/i-cube/I-CUBE-HUAWEI/Drivers/BSP/Components/lps22hh\lps22hh.c ****   return LPS22HH_GetOutputDataRate(pObj, Odr);
 313:D:/fchai/work/i-cube/I-CUBE-HUAWEI/Drivers/BSP/Components/lps22hh\lps22hh.c **** }
 314:D:/fchai/work/i-cube/I-CUBE-HUAWEI/Drivers/BSP/Components/lps22hh\lps22hh.c **** 
 315:D:/fchai/work/i-cube/I-CUBE-HUAWEI/Drivers/BSP/Components/lps22hh\lps22hh.c **** /**
 316:D:/fchai/work/i-cube/I-CUBE-HUAWEI/Drivers/BSP/Components/lps22hh\lps22hh.c ****  * @brief  Set the LPS22HH pressure sensor output data rate
 317:D:/fchai/work/i-cube/I-CUBE-HUAWEI/Drivers/BSP/Components/lps22hh\lps22hh.c ****  * @param  pObj the device pObj
ARM GAS  T:\msys\tmp\cc7XUJLO.s 			page 8


 318:D:/fchai/work/i-cube/I-CUBE-HUAWEI/Drivers/BSP/Components/lps22hh\lps22hh.c ****  * @param  Odr the output data rate value to be set
 319:D:/fchai/work/i-cube/I-CUBE-HUAWEI/Drivers/BSP/Components/lps22hh\lps22hh.c ****  * @retval 0 in case of success, an error code otherwise
 320:D:/fchai/work/i-cube/I-CUBE-HUAWEI/Drivers/BSP/Components/lps22hh\lps22hh.c ****  */
 321:D:/fchai/work/i-cube/I-CUBE-HUAWEI/Drivers/BSP/Components/lps22hh\lps22hh.c **** int32_t LPS22HH_PRESS_SetOutputDataRate(LPS22HH_Object_t *pObj, float Odr)
 322:D:/fchai/work/i-cube/I-CUBE-HUAWEI/Drivers/BSP/Components/lps22hh\lps22hh.c **** {
 323:D:/fchai/work/i-cube/I-CUBE-HUAWEI/Drivers/BSP/Components/lps22hh\lps22hh.c ****   /* Check if the component is enabled */
 324:D:/fchai/work/i-cube/I-CUBE-HUAWEI/Drivers/BSP/Components/lps22hh\lps22hh.c ****   if (pObj->press_is_enabled == 1U)
 325:D:/fchai/work/i-cube/I-CUBE-HUAWEI/Drivers/BSP/Components/lps22hh\lps22hh.c ****   {
 326:D:/fchai/work/i-cube/I-CUBE-HUAWEI/Drivers/BSP/Components/lps22hh\lps22hh.c ****     return LPS22HH_SetOutputDataRate_When_Enabled(pObj, Odr);
 327:D:/fchai/work/i-cube/I-CUBE-HUAWEI/Drivers/BSP/Components/lps22hh\lps22hh.c ****   }
 328:D:/fchai/work/i-cube/I-CUBE-HUAWEI/Drivers/BSP/Components/lps22hh\lps22hh.c ****   else
 329:D:/fchai/work/i-cube/I-CUBE-HUAWEI/Drivers/BSP/Components/lps22hh\lps22hh.c ****   {
 330:D:/fchai/work/i-cube/I-CUBE-HUAWEI/Drivers/BSP/Components/lps22hh\lps22hh.c ****     return LPS22HH_SetOutputDataRate_When_Disabled(pObj, Odr);
 331:D:/fchai/work/i-cube/I-CUBE-HUAWEI/Drivers/BSP/Components/lps22hh\lps22hh.c ****   }
 332:D:/fchai/work/i-cube/I-CUBE-HUAWEI/Drivers/BSP/Components/lps22hh\lps22hh.c **** }
 333:D:/fchai/work/i-cube/I-CUBE-HUAWEI/Drivers/BSP/Components/lps22hh\lps22hh.c **** 
 334:D:/fchai/work/i-cube/I-CUBE-HUAWEI/Drivers/BSP/Components/lps22hh\lps22hh.c **** /**
 335:D:/fchai/work/i-cube/I-CUBE-HUAWEI/Drivers/BSP/Components/lps22hh\lps22hh.c ****  * @brief  Get the LPS22HH pressure value
 336:D:/fchai/work/i-cube/I-CUBE-HUAWEI/Drivers/BSP/Components/lps22hh\lps22hh.c ****  * @param  pObj the device pObj
 337:D:/fchai/work/i-cube/I-CUBE-HUAWEI/Drivers/BSP/Components/lps22hh\lps22hh.c ****  * @param  Value pointer where the pressure value is written
 338:D:/fchai/work/i-cube/I-CUBE-HUAWEI/Drivers/BSP/Components/lps22hh\lps22hh.c ****  * @retval 0 in case of success, an error code otherwise
 339:D:/fchai/work/i-cube/I-CUBE-HUAWEI/Drivers/BSP/Components/lps22hh\lps22hh.c ****  */
 340:D:/fchai/work/i-cube/I-CUBE-HUAWEI/Drivers/BSP/Components/lps22hh\lps22hh.c **** int32_t LPS22HH_PRESS_GetPressure(LPS22HH_Object_t *pObj, float *Value)
 341:D:/fchai/work/i-cube/I-CUBE-HUAWEI/Drivers/BSP/Components/lps22hh\lps22hh.c **** {
 342:D:/fchai/work/i-cube/I-CUBE-HUAWEI/Drivers/BSP/Components/lps22hh\lps22hh.c ****   lps22hh_axis1bit32_t data_raw_pressure;
 343:D:/fchai/work/i-cube/I-CUBE-HUAWEI/Drivers/BSP/Components/lps22hh\lps22hh.c **** 
 344:D:/fchai/work/i-cube/I-CUBE-HUAWEI/Drivers/BSP/Components/lps22hh\lps22hh.c ****   (void)memset(data_raw_pressure.u8bit, 0x00, sizeof(int32_t));
 345:D:/fchai/work/i-cube/I-CUBE-HUAWEI/Drivers/BSP/Components/lps22hh\lps22hh.c ****   if (lps22hh_pressure_raw_get(&(pObj->Ctx), data_raw_pressure.u8bit) != LPS22HH_OK)
 346:D:/fchai/work/i-cube/I-CUBE-HUAWEI/Drivers/BSP/Components/lps22hh\lps22hh.c ****   {
 347:D:/fchai/work/i-cube/I-CUBE-HUAWEI/Drivers/BSP/Components/lps22hh\lps22hh.c ****     return LPS22HH_ERROR;
 348:D:/fchai/work/i-cube/I-CUBE-HUAWEI/Drivers/BSP/Components/lps22hh\lps22hh.c ****   }
 349:D:/fchai/work/i-cube/I-CUBE-HUAWEI/Drivers/BSP/Components/lps22hh\lps22hh.c **** 
 350:D:/fchai/work/i-cube/I-CUBE-HUAWEI/Drivers/BSP/Components/lps22hh\lps22hh.c ****   *Value = lps22hh_from_lsb_to_hpa(data_raw_pressure.i32bit);
 351:D:/fchai/work/i-cube/I-CUBE-HUAWEI/Drivers/BSP/Components/lps22hh\lps22hh.c **** 
 352:D:/fchai/work/i-cube/I-CUBE-HUAWEI/Drivers/BSP/Components/lps22hh\lps22hh.c ****   return LPS22HH_OK;
 353:D:/fchai/work/i-cube/I-CUBE-HUAWEI/Drivers/BSP/Components/lps22hh\lps22hh.c **** }
 354:D:/fchai/work/i-cube/I-CUBE-HUAWEI/Drivers/BSP/Components/lps22hh\lps22hh.c **** 
 355:D:/fchai/work/i-cube/I-CUBE-HUAWEI/Drivers/BSP/Components/lps22hh\lps22hh.c **** /**
 356:D:/fchai/work/i-cube/I-CUBE-HUAWEI/Drivers/BSP/Components/lps22hh\lps22hh.c ****  * @brief  Get the LPS22HH pressure data ready bit value
 357:D:/fchai/work/i-cube/I-CUBE-HUAWEI/Drivers/BSP/Components/lps22hh\lps22hh.c ****  * @param  pObj the device pObj
 358:D:/fchai/work/i-cube/I-CUBE-HUAWEI/Drivers/BSP/Components/lps22hh\lps22hh.c ****  * @param  Status the status of data ready bit
 359:D:/fchai/work/i-cube/I-CUBE-HUAWEI/Drivers/BSP/Components/lps22hh\lps22hh.c ****  * @retval 0 in case of success, an error code otherwise
 360:D:/fchai/work/i-cube/I-CUBE-HUAWEI/Drivers/BSP/Components/lps22hh\lps22hh.c ****  */
 361:D:/fchai/work/i-cube/I-CUBE-HUAWEI/Drivers/BSP/Components/lps22hh\lps22hh.c **** int32_t LPS22HH_PRESS_Get_DRDY_Status(LPS22HH_Object_t *pObj, uint8_t *Status)
 362:D:/fchai/work/i-cube/I-CUBE-HUAWEI/Drivers/BSP/Components/lps22hh\lps22hh.c **** {
 363:D:/fchai/work/i-cube/I-CUBE-HUAWEI/Drivers/BSP/Components/lps22hh\lps22hh.c ****   if (lps22hh_press_flag_data_ready_get(&(pObj->Ctx), Status) != LPS22HH_OK)
 364:D:/fchai/work/i-cube/I-CUBE-HUAWEI/Drivers/BSP/Components/lps22hh\lps22hh.c ****   {
 365:D:/fchai/work/i-cube/I-CUBE-HUAWEI/Drivers/BSP/Components/lps22hh\lps22hh.c ****     return LPS22HH_ERROR;
 366:D:/fchai/work/i-cube/I-CUBE-HUAWEI/Drivers/BSP/Components/lps22hh\lps22hh.c ****   }
 367:D:/fchai/work/i-cube/I-CUBE-HUAWEI/Drivers/BSP/Components/lps22hh\lps22hh.c **** 
 368:D:/fchai/work/i-cube/I-CUBE-HUAWEI/Drivers/BSP/Components/lps22hh\lps22hh.c ****   return LPS22HH_OK;
 369:D:/fchai/work/i-cube/I-CUBE-HUAWEI/Drivers/BSP/Components/lps22hh\lps22hh.c **** }
 370:D:/fchai/work/i-cube/I-CUBE-HUAWEI/Drivers/BSP/Components/lps22hh\lps22hh.c **** 
 371:D:/fchai/work/i-cube/I-CUBE-HUAWEI/Drivers/BSP/Components/lps22hh\lps22hh.c **** /**
 372:D:/fchai/work/i-cube/I-CUBE-HUAWEI/Drivers/BSP/Components/lps22hh\lps22hh.c ****  * @brief  Enable the LPS22HH temperature sensor
 373:D:/fchai/work/i-cube/I-CUBE-HUAWEI/Drivers/BSP/Components/lps22hh\lps22hh.c ****  * @param  pObj the device pObj
 374:D:/fchai/work/i-cube/I-CUBE-HUAWEI/Drivers/BSP/Components/lps22hh\lps22hh.c ****  * @retval 0 in case of success, an error code otherwise
ARM GAS  T:\msys\tmp\cc7XUJLO.s 			page 9


 375:D:/fchai/work/i-cube/I-CUBE-HUAWEI/Drivers/BSP/Components/lps22hh\lps22hh.c ****  */
 376:D:/fchai/work/i-cube/I-CUBE-HUAWEI/Drivers/BSP/Components/lps22hh\lps22hh.c **** int32_t LPS22HH_TEMP_Enable(LPS22HH_Object_t *pObj)
 377:D:/fchai/work/i-cube/I-CUBE-HUAWEI/Drivers/BSP/Components/lps22hh\lps22hh.c **** {
 378:D:/fchai/work/i-cube/I-CUBE-HUAWEI/Drivers/BSP/Components/lps22hh\lps22hh.c ****   /* Check if the component is already enabled */
 379:D:/fchai/work/i-cube/I-CUBE-HUAWEI/Drivers/BSP/Components/lps22hh\lps22hh.c ****   if (pObj->temp_is_enabled == 1U)
 380:D:/fchai/work/i-cube/I-CUBE-HUAWEI/Drivers/BSP/Components/lps22hh\lps22hh.c ****   {
 381:D:/fchai/work/i-cube/I-CUBE-HUAWEI/Drivers/BSP/Components/lps22hh\lps22hh.c ****     return LPS22HH_OK;
 382:D:/fchai/work/i-cube/I-CUBE-HUAWEI/Drivers/BSP/Components/lps22hh\lps22hh.c ****   }
 383:D:/fchai/work/i-cube/I-CUBE-HUAWEI/Drivers/BSP/Components/lps22hh\lps22hh.c **** 
 384:D:/fchai/work/i-cube/I-CUBE-HUAWEI/Drivers/BSP/Components/lps22hh\lps22hh.c ****   /* Output data rate selection. */
 385:D:/fchai/work/i-cube/I-CUBE-HUAWEI/Drivers/BSP/Components/lps22hh\lps22hh.c ****   if (lps22hh_data_rate_set(&(pObj->Ctx), pObj->last_odr) != LPS22HH_OK)
 386:D:/fchai/work/i-cube/I-CUBE-HUAWEI/Drivers/BSP/Components/lps22hh\lps22hh.c ****   {
 387:D:/fchai/work/i-cube/I-CUBE-HUAWEI/Drivers/BSP/Components/lps22hh\lps22hh.c ****     return LPS22HH_ERROR;
 388:D:/fchai/work/i-cube/I-CUBE-HUAWEI/Drivers/BSP/Components/lps22hh\lps22hh.c ****   }
 389:D:/fchai/work/i-cube/I-CUBE-HUAWEI/Drivers/BSP/Components/lps22hh\lps22hh.c **** 
 390:D:/fchai/work/i-cube/I-CUBE-HUAWEI/Drivers/BSP/Components/lps22hh\lps22hh.c ****   pObj->temp_is_enabled = 1;
 391:D:/fchai/work/i-cube/I-CUBE-HUAWEI/Drivers/BSP/Components/lps22hh\lps22hh.c **** 
 392:D:/fchai/work/i-cube/I-CUBE-HUAWEI/Drivers/BSP/Components/lps22hh\lps22hh.c ****   return LPS22HH_OK;
 393:D:/fchai/work/i-cube/I-CUBE-HUAWEI/Drivers/BSP/Components/lps22hh\lps22hh.c **** }
 394:D:/fchai/work/i-cube/I-CUBE-HUAWEI/Drivers/BSP/Components/lps22hh\lps22hh.c **** 
 395:D:/fchai/work/i-cube/I-CUBE-HUAWEI/Drivers/BSP/Components/lps22hh\lps22hh.c **** /**
 396:D:/fchai/work/i-cube/I-CUBE-HUAWEI/Drivers/BSP/Components/lps22hh\lps22hh.c ****  * @brief  Disable the LPS22HH temperature sensor
 397:D:/fchai/work/i-cube/I-CUBE-HUAWEI/Drivers/BSP/Components/lps22hh\lps22hh.c ****  * @param  pObj the device pObj
 398:D:/fchai/work/i-cube/I-CUBE-HUAWEI/Drivers/BSP/Components/lps22hh\lps22hh.c ****  * @retval 0 in case of success, an error code otherwise
 399:D:/fchai/work/i-cube/I-CUBE-HUAWEI/Drivers/BSP/Components/lps22hh\lps22hh.c ****  */
 400:D:/fchai/work/i-cube/I-CUBE-HUAWEI/Drivers/BSP/Components/lps22hh\lps22hh.c **** int32_t LPS22HH_TEMP_Disable(LPS22HH_Object_t *pObj)
 401:D:/fchai/work/i-cube/I-CUBE-HUAWEI/Drivers/BSP/Components/lps22hh\lps22hh.c **** {
 402:D:/fchai/work/i-cube/I-CUBE-HUAWEI/Drivers/BSP/Components/lps22hh\lps22hh.c ****   /* Check if the component is already disabled */
 403:D:/fchai/work/i-cube/I-CUBE-HUAWEI/Drivers/BSP/Components/lps22hh\lps22hh.c ****   if (pObj->temp_is_enabled == 0U)
 404:D:/fchai/work/i-cube/I-CUBE-HUAWEI/Drivers/BSP/Components/lps22hh\lps22hh.c ****   {
 405:D:/fchai/work/i-cube/I-CUBE-HUAWEI/Drivers/BSP/Components/lps22hh\lps22hh.c ****     return LPS22HH_OK;
 406:D:/fchai/work/i-cube/I-CUBE-HUAWEI/Drivers/BSP/Components/lps22hh\lps22hh.c ****   }
 407:D:/fchai/work/i-cube/I-CUBE-HUAWEI/Drivers/BSP/Components/lps22hh\lps22hh.c **** 
 408:D:/fchai/work/i-cube/I-CUBE-HUAWEI/Drivers/BSP/Components/lps22hh\lps22hh.c ****   /* Check if the LPS22HH pressure sensor is still enable. */
 409:D:/fchai/work/i-cube/I-CUBE-HUAWEI/Drivers/BSP/Components/lps22hh\lps22hh.c ****   /* If yes, skip the disable function, if not call disable function */
 410:D:/fchai/work/i-cube/I-CUBE-HUAWEI/Drivers/BSP/Components/lps22hh\lps22hh.c ****   if (pObj->press_is_enabled == 0U)
 411:D:/fchai/work/i-cube/I-CUBE-HUAWEI/Drivers/BSP/Components/lps22hh\lps22hh.c ****   {
 412:D:/fchai/work/i-cube/I-CUBE-HUAWEI/Drivers/BSP/Components/lps22hh\lps22hh.c ****     /* Get current output data rate. */
 413:D:/fchai/work/i-cube/I-CUBE-HUAWEI/Drivers/BSP/Components/lps22hh\lps22hh.c ****     if (lps22hh_data_rate_get(&(pObj->Ctx), &pObj->last_odr) != LPS22HH_OK)
 414:D:/fchai/work/i-cube/I-CUBE-HUAWEI/Drivers/BSP/Components/lps22hh\lps22hh.c ****     {
 415:D:/fchai/work/i-cube/I-CUBE-HUAWEI/Drivers/BSP/Components/lps22hh\lps22hh.c ****       return LPS22HH_ERROR;
 416:D:/fchai/work/i-cube/I-CUBE-HUAWEI/Drivers/BSP/Components/lps22hh\lps22hh.c ****     }
 417:D:/fchai/work/i-cube/I-CUBE-HUAWEI/Drivers/BSP/Components/lps22hh\lps22hh.c **** 
 418:D:/fchai/work/i-cube/I-CUBE-HUAWEI/Drivers/BSP/Components/lps22hh\lps22hh.c ****     /* Output data rate selection - power down. */
 419:D:/fchai/work/i-cube/I-CUBE-HUAWEI/Drivers/BSP/Components/lps22hh\lps22hh.c ****     if (lps22hh_data_rate_set(&(pObj->Ctx), LPS22HH_POWER_DOWN) != LPS22HH_OK)
 420:D:/fchai/work/i-cube/I-CUBE-HUAWEI/Drivers/BSP/Components/lps22hh\lps22hh.c ****     {
 421:D:/fchai/work/i-cube/I-CUBE-HUAWEI/Drivers/BSP/Components/lps22hh\lps22hh.c ****       return LPS22HH_ERROR;
 422:D:/fchai/work/i-cube/I-CUBE-HUAWEI/Drivers/BSP/Components/lps22hh\lps22hh.c ****     }
 423:D:/fchai/work/i-cube/I-CUBE-HUAWEI/Drivers/BSP/Components/lps22hh\lps22hh.c ****   }
 424:D:/fchai/work/i-cube/I-CUBE-HUAWEI/Drivers/BSP/Components/lps22hh\lps22hh.c **** 
 425:D:/fchai/work/i-cube/I-CUBE-HUAWEI/Drivers/BSP/Components/lps22hh\lps22hh.c ****   pObj->temp_is_enabled = 0;
 426:D:/fchai/work/i-cube/I-CUBE-HUAWEI/Drivers/BSP/Components/lps22hh\lps22hh.c **** 
 427:D:/fchai/work/i-cube/I-CUBE-HUAWEI/Drivers/BSP/Components/lps22hh\lps22hh.c ****   return LPS22HH_OK;
 428:D:/fchai/work/i-cube/I-CUBE-HUAWEI/Drivers/BSP/Components/lps22hh\lps22hh.c **** }
 429:D:/fchai/work/i-cube/I-CUBE-HUAWEI/Drivers/BSP/Components/lps22hh\lps22hh.c **** 
 430:D:/fchai/work/i-cube/I-CUBE-HUAWEI/Drivers/BSP/Components/lps22hh\lps22hh.c **** /**
 431:D:/fchai/work/i-cube/I-CUBE-HUAWEI/Drivers/BSP/Components/lps22hh\lps22hh.c ****  * @brief  Get the LPS22HH temperature sensor output data rate
ARM GAS  T:\msys\tmp\cc7XUJLO.s 			page 10


 432:D:/fchai/work/i-cube/I-CUBE-HUAWEI/Drivers/BSP/Components/lps22hh\lps22hh.c ****  * @param  pObj the device pObj
 433:D:/fchai/work/i-cube/I-CUBE-HUAWEI/Drivers/BSP/Components/lps22hh\lps22hh.c ****  * @param  Odr pointer where the output data rate is written
 434:D:/fchai/work/i-cube/I-CUBE-HUAWEI/Drivers/BSP/Components/lps22hh\lps22hh.c ****  * @retval 0 in case of success, an error code otherwise
 435:D:/fchai/work/i-cube/I-CUBE-HUAWEI/Drivers/BSP/Components/lps22hh\lps22hh.c ****  */
 436:D:/fchai/work/i-cube/I-CUBE-HUAWEI/Drivers/BSP/Components/lps22hh\lps22hh.c **** int32_t LPS22HH_TEMP_GetOutputDataRate(LPS22HH_Object_t *pObj, float *Odr)
 437:D:/fchai/work/i-cube/I-CUBE-HUAWEI/Drivers/BSP/Components/lps22hh\lps22hh.c **** {
 438:D:/fchai/work/i-cube/I-CUBE-HUAWEI/Drivers/BSP/Components/lps22hh\lps22hh.c ****   return LPS22HH_GetOutputDataRate(pObj, Odr);
 439:D:/fchai/work/i-cube/I-CUBE-HUAWEI/Drivers/BSP/Components/lps22hh\lps22hh.c **** }
 440:D:/fchai/work/i-cube/I-CUBE-HUAWEI/Drivers/BSP/Components/lps22hh\lps22hh.c **** 
 441:D:/fchai/work/i-cube/I-CUBE-HUAWEI/Drivers/BSP/Components/lps22hh\lps22hh.c **** /**
 442:D:/fchai/work/i-cube/I-CUBE-HUAWEI/Drivers/BSP/Components/lps22hh\lps22hh.c ****  * @brief  Set the LPS22HH temperature sensor output data rate
 443:D:/fchai/work/i-cube/I-CUBE-HUAWEI/Drivers/BSP/Components/lps22hh\lps22hh.c ****  * @param  pObj the device pObj
 444:D:/fchai/work/i-cube/I-CUBE-HUAWEI/Drivers/BSP/Components/lps22hh\lps22hh.c ****  * @param  Odr the output data rate value to be set
 445:D:/fchai/work/i-cube/I-CUBE-HUAWEI/Drivers/BSP/Components/lps22hh\lps22hh.c ****  * @retval 0 in case of success, an error code otherwise
 446:D:/fchai/work/i-cube/I-CUBE-HUAWEI/Drivers/BSP/Components/lps22hh\lps22hh.c ****  */
 447:D:/fchai/work/i-cube/I-CUBE-HUAWEI/Drivers/BSP/Components/lps22hh\lps22hh.c **** int32_t LPS22HH_TEMP_SetOutputDataRate(LPS22HH_Object_t *pObj, float Odr)
 448:D:/fchai/work/i-cube/I-CUBE-HUAWEI/Drivers/BSP/Components/lps22hh\lps22hh.c **** {
 449:D:/fchai/work/i-cube/I-CUBE-HUAWEI/Drivers/BSP/Components/lps22hh\lps22hh.c ****   /* Check if the component is enabled */
 450:D:/fchai/work/i-cube/I-CUBE-HUAWEI/Drivers/BSP/Components/lps22hh\lps22hh.c ****   if (pObj->temp_is_enabled == 1U)
 451:D:/fchai/work/i-cube/I-CUBE-HUAWEI/Drivers/BSP/Components/lps22hh\lps22hh.c ****   {
 452:D:/fchai/work/i-cube/I-CUBE-HUAWEI/Drivers/BSP/Components/lps22hh\lps22hh.c ****     return LPS22HH_SetOutputDataRate_When_Enabled(pObj, Odr);
 453:D:/fchai/work/i-cube/I-CUBE-HUAWEI/Drivers/BSP/Components/lps22hh\lps22hh.c ****   }
 454:D:/fchai/work/i-cube/I-CUBE-HUAWEI/Drivers/BSP/Components/lps22hh\lps22hh.c ****   else
 455:D:/fchai/work/i-cube/I-CUBE-HUAWEI/Drivers/BSP/Components/lps22hh\lps22hh.c ****   {
 456:D:/fchai/work/i-cube/I-CUBE-HUAWEI/Drivers/BSP/Components/lps22hh\lps22hh.c ****     return LPS22HH_SetOutputDataRate_When_Disabled(pObj, Odr);
 457:D:/fchai/work/i-cube/I-CUBE-HUAWEI/Drivers/BSP/Components/lps22hh\lps22hh.c ****   }
 458:D:/fchai/work/i-cube/I-CUBE-HUAWEI/Drivers/BSP/Components/lps22hh\lps22hh.c **** }
 459:D:/fchai/work/i-cube/I-CUBE-HUAWEI/Drivers/BSP/Components/lps22hh\lps22hh.c **** 
 460:D:/fchai/work/i-cube/I-CUBE-HUAWEI/Drivers/BSP/Components/lps22hh\lps22hh.c **** /**
 461:D:/fchai/work/i-cube/I-CUBE-HUAWEI/Drivers/BSP/Components/lps22hh\lps22hh.c ****  * @brief  Get the LPS22HH temperature value
 462:D:/fchai/work/i-cube/I-CUBE-HUAWEI/Drivers/BSP/Components/lps22hh\lps22hh.c ****  * @param  pObj the device pObj
 463:D:/fchai/work/i-cube/I-CUBE-HUAWEI/Drivers/BSP/Components/lps22hh\lps22hh.c ****  * @param  Value pointer where the temperature value is written
 464:D:/fchai/work/i-cube/I-CUBE-HUAWEI/Drivers/BSP/Components/lps22hh\lps22hh.c ****  * @retval 0 in case of success, an error code otherwise
 465:D:/fchai/work/i-cube/I-CUBE-HUAWEI/Drivers/BSP/Components/lps22hh\lps22hh.c ****  */
 466:D:/fchai/work/i-cube/I-CUBE-HUAWEI/Drivers/BSP/Components/lps22hh\lps22hh.c **** int32_t LPS22HH_TEMP_GetTemperature(LPS22HH_Object_t *pObj, float *Value)
 467:D:/fchai/work/i-cube/I-CUBE-HUAWEI/Drivers/BSP/Components/lps22hh\lps22hh.c **** {
 468:D:/fchai/work/i-cube/I-CUBE-HUAWEI/Drivers/BSP/Components/lps22hh\lps22hh.c ****   lps22hh_axis1bit16_t data_raw_temperature;
 469:D:/fchai/work/i-cube/I-CUBE-HUAWEI/Drivers/BSP/Components/lps22hh\lps22hh.c **** 
 470:D:/fchai/work/i-cube/I-CUBE-HUAWEI/Drivers/BSP/Components/lps22hh\lps22hh.c ****   (void)memset(data_raw_temperature.u8bit, 0x00, sizeof(int16_t));
 471:D:/fchai/work/i-cube/I-CUBE-HUAWEI/Drivers/BSP/Components/lps22hh\lps22hh.c ****   if (lps22hh_temperature_raw_get(&(pObj->Ctx), data_raw_temperature.u8bit) != LPS22HH_OK)
 472:D:/fchai/work/i-cube/I-CUBE-HUAWEI/Drivers/BSP/Components/lps22hh\lps22hh.c ****   {
 473:D:/fchai/work/i-cube/I-CUBE-HUAWEI/Drivers/BSP/Components/lps22hh\lps22hh.c ****     return LPS22HH_ERROR;
 474:D:/fchai/work/i-cube/I-CUBE-HUAWEI/Drivers/BSP/Components/lps22hh\lps22hh.c ****   }
 475:D:/fchai/work/i-cube/I-CUBE-HUAWEI/Drivers/BSP/Components/lps22hh\lps22hh.c **** 
 476:D:/fchai/work/i-cube/I-CUBE-HUAWEI/Drivers/BSP/Components/lps22hh\lps22hh.c ****   *Value = lps22hh_from_lsb_to_celsius(data_raw_temperature.i16bit);
 477:D:/fchai/work/i-cube/I-CUBE-HUAWEI/Drivers/BSP/Components/lps22hh\lps22hh.c **** 
 478:D:/fchai/work/i-cube/I-CUBE-HUAWEI/Drivers/BSP/Components/lps22hh\lps22hh.c ****   return LPS22HH_OK;
 479:D:/fchai/work/i-cube/I-CUBE-HUAWEI/Drivers/BSP/Components/lps22hh\lps22hh.c **** }
 480:D:/fchai/work/i-cube/I-CUBE-HUAWEI/Drivers/BSP/Components/lps22hh\lps22hh.c **** 
 481:D:/fchai/work/i-cube/I-CUBE-HUAWEI/Drivers/BSP/Components/lps22hh\lps22hh.c **** /**
 482:D:/fchai/work/i-cube/I-CUBE-HUAWEI/Drivers/BSP/Components/lps22hh\lps22hh.c ****  * @brief  Get the LPS22HH temperature data ready bit value
 483:D:/fchai/work/i-cube/I-CUBE-HUAWEI/Drivers/BSP/Components/lps22hh\lps22hh.c ****  * @param  pObj the device pObj
 484:D:/fchai/work/i-cube/I-CUBE-HUAWEI/Drivers/BSP/Components/lps22hh\lps22hh.c ****  * @param  Status the status of data ready bit
 485:D:/fchai/work/i-cube/I-CUBE-HUAWEI/Drivers/BSP/Components/lps22hh\lps22hh.c ****  * @retval 0 in case of success, an error code otherwise
 486:D:/fchai/work/i-cube/I-CUBE-HUAWEI/Drivers/BSP/Components/lps22hh\lps22hh.c ****  */
 487:D:/fchai/work/i-cube/I-CUBE-HUAWEI/Drivers/BSP/Components/lps22hh\lps22hh.c **** int32_t LPS22HH_TEMP_Get_DRDY_Status(LPS22HH_Object_t *pObj, uint8_t *Status)
 488:D:/fchai/work/i-cube/I-CUBE-HUAWEI/Drivers/BSP/Components/lps22hh\lps22hh.c **** {
ARM GAS  T:\msys\tmp\cc7XUJLO.s 			page 11


 489:D:/fchai/work/i-cube/I-CUBE-HUAWEI/Drivers/BSP/Components/lps22hh\lps22hh.c ****   if (lps22hh_temp_flag_data_ready_get(&(pObj->Ctx), Status) != LPS22HH_OK)
 490:D:/fchai/work/i-cube/I-CUBE-HUAWEI/Drivers/BSP/Components/lps22hh\lps22hh.c ****   {
 491:D:/fchai/work/i-cube/I-CUBE-HUAWEI/Drivers/BSP/Components/lps22hh\lps22hh.c ****     return LPS22HH_ERROR;
 492:D:/fchai/work/i-cube/I-CUBE-HUAWEI/Drivers/BSP/Components/lps22hh\lps22hh.c ****   }
 493:D:/fchai/work/i-cube/I-CUBE-HUAWEI/Drivers/BSP/Components/lps22hh\lps22hh.c **** 
 494:D:/fchai/work/i-cube/I-CUBE-HUAWEI/Drivers/BSP/Components/lps22hh\lps22hh.c ****   return LPS22HH_OK;
 495:D:/fchai/work/i-cube/I-CUBE-HUAWEI/Drivers/BSP/Components/lps22hh\lps22hh.c **** }
 496:D:/fchai/work/i-cube/I-CUBE-HUAWEI/Drivers/BSP/Components/lps22hh\lps22hh.c **** 
 497:D:/fchai/work/i-cube/I-CUBE-HUAWEI/Drivers/BSP/Components/lps22hh\lps22hh.c **** /**
 498:D:/fchai/work/i-cube/I-CUBE-HUAWEI/Drivers/BSP/Components/lps22hh\lps22hh.c ****  * @brief  Get the LPS22HH register value
 499:D:/fchai/work/i-cube/I-CUBE-HUAWEI/Drivers/BSP/Components/lps22hh\lps22hh.c ****  * @param  pObj the device pObj
 500:D:/fchai/work/i-cube/I-CUBE-HUAWEI/Drivers/BSP/Components/lps22hh\lps22hh.c ****  * @param  Reg address to be written
 501:D:/fchai/work/i-cube/I-CUBE-HUAWEI/Drivers/BSP/Components/lps22hh\lps22hh.c ****  * @param  Data value to be written
 502:D:/fchai/work/i-cube/I-CUBE-HUAWEI/Drivers/BSP/Components/lps22hh\lps22hh.c ****  * @retval 0 in case of success, an error code otherwise
 503:D:/fchai/work/i-cube/I-CUBE-HUAWEI/Drivers/BSP/Components/lps22hh\lps22hh.c ****  */
 504:D:/fchai/work/i-cube/I-CUBE-HUAWEI/Drivers/BSP/Components/lps22hh\lps22hh.c **** int32_t LPS22HH_Read_Reg(LPS22HH_Object_t *pObj, uint8_t Reg, uint8_t *Data)
 505:D:/fchai/work/i-cube/I-CUBE-HUAWEI/Drivers/BSP/Components/lps22hh\lps22hh.c **** {
 506:D:/fchai/work/i-cube/I-CUBE-HUAWEI/Drivers/BSP/Components/lps22hh\lps22hh.c ****   if (lps22hh_read_reg(&(pObj->Ctx), Reg, Data, 1) != LPS22HH_OK)
 507:D:/fchai/work/i-cube/I-CUBE-HUAWEI/Drivers/BSP/Components/lps22hh\lps22hh.c ****   {
 508:D:/fchai/work/i-cube/I-CUBE-HUAWEI/Drivers/BSP/Components/lps22hh\lps22hh.c ****     return LPS22HH_ERROR;
 509:D:/fchai/work/i-cube/I-CUBE-HUAWEI/Drivers/BSP/Components/lps22hh\lps22hh.c ****   }
 510:D:/fchai/work/i-cube/I-CUBE-HUAWEI/Drivers/BSP/Components/lps22hh\lps22hh.c **** 
 511:D:/fchai/work/i-cube/I-CUBE-HUAWEI/Drivers/BSP/Components/lps22hh\lps22hh.c ****   return LPS22HH_OK;
 512:D:/fchai/work/i-cube/I-CUBE-HUAWEI/Drivers/BSP/Components/lps22hh\lps22hh.c **** }
 513:D:/fchai/work/i-cube/I-CUBE-HUAWEI/Drivers/BSP/Components/lps22hh\lps22hh.c **** 
 514:D:/fchai/work/i-cube/I-CUBE-HUAWEI/Drivers/BSP/Components/lps22hh\lps22hh.c **** /**
 515:D:/fchai/work/i-cube/I-CUBE-HUAWEI/Drivers/BSP/Components/lps22hh\lps22hh.c ****  * @brief  Set the LPS22HH register value
 516:D:/fchai/work/i-cube/I-CUBE-HUAWEI/Drivers/BSP/Components/lps22hh\lps22hh.c ****  * @param  pObj the device pObj
 517:D:/fchai/work/i-cube/I-CUBE-HUAWEI/Drivers/BSP/Components/lps22hh\lps22hh.c ****  * @param  Reg address to be written
 518:D:/fchai/work/i-cube/I-CUBE-HUAWEI/Drivers/BSP/Components/lps22hh\lps22hh.c ****  * @param  Data value to be written
 519:D:/fchai/work/i-cube/I-CUBE-HUAWEI/Drivers/BSP/Components/lps22hh\lps22hh.c ****  * @retval 0 in case of success, an error code otherwise
 520:D:/fchai/work/i-cube/I-CUBE-HUAWEI/Drivers/BSP/Components/lps22hh\lps22hh.c ****  */
 521:D:/fchai/work/i-cube/I-CUBE-HUAWEI/Drivers/BSP/Components/lps22hh\lps22hh.c **** int32_t LPS22HH_Write_Reg(LPS22HH_Object_t *pObj, uint8_t Reg, uint8_t Data)
 522:D:/fchai/work/i-cube/I-CUBE-HUAWEI/Drivers/BSP/Components/lps22hh\lps22hh.c **** {
 523:D:/fchai/work/i-cube/I-CUBE-HUAWEI/Drivers/BSP/Components/lps22hh\lps22hh.c ****   if (lps22hh_write_reg(&(pObj->Ctx), Reg, &Data, 1) != LPS22HH_OK)
 524:D:/fchai/work/i-cube/I-CUBE-HUAWEI/Drivers/BSP/Components/lps22hh\lps22hh.c ****   {
 525:D:/fchai/work/i-cube/I-CUBE-HUAWEI/Drivers/BSP/Components/lps22hh\lps22hh.c ****     return LPS22HH_ERROR;
 526:D:/fchai/work/i-cube/I-CUBE-HUAWEI/Drivers/BSP/Components/lps22hh\lps22hh.c ****   }
 527:D:/fchai/work/i-cube/I-CUBE-HUAWEI/Drivers/BSP/Components/lps22hh\lps22hh.c **** 
 528:D:/fchai/work/i-cube/I-CUBE-HUAWEI/Drivers/BSP/Components/lps22hh\lps22hh.c ****   return LPS22HH_OK;
 529:D:/fchai/work/i-cube/I-CUBE-HUAWEI/Drivers/BSP/Components/lps22hh\lps22hh.c **** }
 530:D:/fchai/work/i-cube/I-CUBE-HUAWEI/Drivers/BSP/Components/lps22hh\lps22hh.c **** 
 531:D:/fchai/work/i-cube/I-CUBE-HUAWEI/Drivers/BSP/Components/lps22hh\lps22hh.c **** /**
 532:D:/fchai/work/i-cube/I-CUBE-HUAWEI/Drivers/BSP/Components/lps22hh\lps22hh.c ****  * @}
 533:D:/fchai/work/i-cube/I-CUBE-HUAWEI/Drivers/BSP/Components/lps22hh\lps22hh.c ****  */
 534:D:/fchai/work/i-cube/I-CUBE-HUAWEI/Drivers/BSP/Components/lps22hh\lps22hh.c **** 
 535:D:/fchai/work/i-cube/I-CUBE-HUAWEI/Drivers/BSP/Components/lps22hh\lps22hh.c **** /** @defgroup LPS22HH_Private_Functions LPS22HH Private Functions
 536:D:/fchai/work/i-cube/I-CUBE-HUAWEI/Drivers/BSP/Components/lps22hh\lps22hh.c ****  * @{
 537:D:/fchai/work/i-cube/I-CUBE-HUAWEI/Drivers/BSP/Components/lps22hh\lps22hh.c ****  */
 538:D:/fchai/work/i-cube/I-CUBE-HUAWEI/Drivers/BSP/Components/lps22hh\lps22hh.c **** 
 539:D:/fchai/work/i-cube/I-CUBE-HUAWEI/Drivers/BSP/Components/lps22hh\lps22hh.c **** /**
 540:D:/fchai/work/i-cube/I-CUBE-HUAWEI/Drivers/BSP/Components/lps22hh\lps22hh.c ****  * @brief  Get the LPS22HH FIFO get temp data
 541:D:/fchai/work/i-cube/I-CUBE-HUAWEI/Drivers/BSP/Components/lps22hh\lps22hh.c ****  * @param  pObj the device pObj
 542:D:/fchai/work/i-cube/I-CUBE-HUAWEI/Drivers/BSP/Components/lps22hh\lps22hh.c ****  * @param  Status the status of data ready bit
 543:D:/fchai/work/i-cube/I-CUBE-HUAWEI/Drivers/BSP/Components/lps22hh\lps22hh.c ****  * @retval 0 in case of success, an error code otherwise
 544:D:/fchai/work/i-cube/I-CUBE-HUAWEI/Drivers/BSP/Components/lps22hh\lps22hh.c ****  */
 545:D:/fchai/work/i-cube/I-CUBE-HUAWEI/Drivers/BSP/Components/lps22hh\lps22hh.c **** int32_t LPS22HH_Get_Temp(LPS22HH_Object_t *pObj, float *Data)
ARM GAS  T:\msys\tmp\cc7XUJLO.s 			page 12


 546:D:/fchai/work/i-cube/I-CUBE-HUAWEI/Drivers/BSP/Components/lps22hh\lps22hh.c **** {
 547:D:/fchai/work/i-cube/I-CUBE-HUAWEI/Drivers/BSP/Components/lps22hh\lps22hh.c ****   uint8_t buffer[2];
 548:D:/fchai/work/i-cube/I-CUBE-HUAWEI/Drivers/BSP/Components/lps22hh\lps22hh.c ****   uint32_t tmp = 0;
 549:D:/fchai/work/i-cube/I-CUBE-HUAWEI/Drivers/BSP/Components/lps22hh\lps22hh.c **** 
 550:D:/fchai/work/i-cube/I-CUBE-HUAWEI/Drivers/BSP/Components/lps22hh\lps22hh.c ****   /* Read data from LPS22HH. */
 551:D:/fchai/work/i-cube/I-CUBE-HUAWEI/Drivers/BSP/Components/lps22hh\lps22hh.c ****   if (lps22hh_temperature_raw_get(&(pObj->Ctx), buffer) != LPS22HH_OK)
 552:D:/fchai/work/i-cube/I-CUBE-HUAWEI/Drivers/BSP/Components/lps22hh\lps22hh.c ****   {
 553:D:/fchai/work/i-cube/I-CUBE-HUAWEI/Drivers/BSP/Components/lps22hh\lps22hh.c ****     return LPS22HH_ERROR;
 554:D:/fchai/work/i-cube/I-CUBE-HUAWEI/Drivers/BSP/Components/lps22hh\lps22hh.c ****   }
 555:D:/fchai/work/i-cube/I-CUBE-HUAWEI/Drivers/BSP/Components/lps22hh\lps22hh.c **** 
 556:D:/fchai/work/i-cube/I-CUBE-HUAWEI/Drivers/BSP/Components/lps22hh\lps22hh.c ****   /* Build the raw tmp */
 557:D:/fchai/work/i-cube/I-CUBE-HUAWEI/Drivers/BSP/Components/lps22hh\lps22hh.c ****   tmp = (((uint16_t)buffer[1]) << 8) + (uint16_t)buffer[0];
 558:D:/fchai/work/i-cube/I-CUBE-HUAWEI/Drivers/BSP/Components/lps22hh\lps22hh.c **** 
 559:D:/fchai/work/i-cube/I-CUBE-HUAWEI/Drivers/BSP/Components/lps22hh\lps22hh.c ****   *Data = ((float)tmp) / 100.0f;
 560:D:/fchai/work/i-cube/I-CUBE-HUAWEI/Drivers/BSP/Components/lps22hh\lps22hh.c **** 
 561:D:/fchai/work/i-cube/I-CUBE-HUAWEI/Drivers/BSP/Components/lps22hh\lps22hh.c ****   return LPS22HH_OK;
 562:D:/fchai/work/i-cube/I-CUBE-HUAWEI/Drivers/BSP/Components/lps22hh\lps22hh.c **** }
 563:D:/fchai/work/i-cube/I-CUBE-HUAWEI/Drivers/BSP/Components/lps22hh\lps22hh.c **** 
 564:D:/fchai/work/i-cube/I-CUBE-HUAWEI/Drivers/BSP/Components/lps22hh\lps22hh.c **** /**
 565:D:/fchai/work/i-cube/I-CUBE-HUAWEI/Drivers/BSP/Components/lps22hh\lps22hh.c ****  * @brief  Get output data rate
 566:D:/fchai/work/i-cube/I-CUBE-HUAWEI/Drivers/BSP/Components/lps22hh\lps22hh.c ****  * @param  pObj the device pObj
 567:D:/fchai/work/i-cube/I-CUBE-HUAWEI/Drivers/BSP/Components/lps22hh\lps22hh.c ****  * @param  Odr the output data rate value
 568:D:/fchai/work/i-cube/I-CUBE-HUAWEI/Drivers/BSP/Components/lps22hh\lps22hh.c ****  * @retval 0 in case of success, an error code otherwise
 569:D:/fchai/work/i-cube/I-CUBE-HUAWEI/Drivers/BSP/Components/lps22hh\lps22hh.c ****  */
 570:D:/fchai/work/i-cube/I-CUBE-HUAWEI/Drivers/BSP/Components/lps22hh\lps22hh.c **** static int32_t LPS22HH_GetOutputDataRate(LPS22HH_Object_t *pObj, float *Odr)
 571:D:/fchai/work/i-cube/I-CUBE-HUAWEI/Drivers/BSP/Components/lps22hh\lps22hh.c **** {
 572:D:/fchai/work/i-cube/I-CUBE-HUAWEI/Drivers/BSP/Components/lps22hh\lps22hh.c ****   int32_t ret = LPS22HH_OK;
 573:D:/fchai/work/i-cube/I-CUBE-HUAWEI/Drivers/BSP/Components/lps22hh\lps22hh.c ****   lps22hh_odr_t odr_low_level;
 574:D:/fchai/work/i-cube/I-CUBE-HUAWEI/Drivers/BSP/Components/lps22hh\lps22hh.c **** 
 575:D:/fchai/work/i-cube/I-CUBE-HUAWEI/Drivers/BSP/Components/lps22hh\lps22hh.c ****   if (lps22hh_data_rate_get(&(pObj->Ctx), &odr_low_level) != LPS22HH_OK)
 576:D:/fchai/work/i-cube/I-CUBE-HUAWEI/Drivers/BSP/Components/lps22hh\lps22hh.c ****   {
 577:D:/fchai/work/i-cube/I-CUBE-HUAWEI/Drivers/BSP/Components/lps22hh\lps22hh.c ****     return LPS22HH_ERROR;
 578:D:/fchai/work/i-cube/I-CUBE-HUAWEI/Drivers/BSP/Components/lps22hh\lps22hh.c ****   }
 579:D:/fchai/work/i-cube/I-CUBE-HUAWEI/Drivers/BSP/Components/lps22hh\lps22hh.c **** 
 580:D:/fchai/work/i-cube/I-CUBE-HUAWEI/Drivers/BSP/Components/lps22hh\lps22hh.c ****   switch (odr_low_level)
 581:D:/fchai/work/i-cube/I-CUBE-HUAWEI/Drivers/BSP/Components/lps22hh\lps22hh.c ****   {
 582:D:/fchai/work/i-cube/I-CUBE-HUAWEI/Drivers/BSP/Components/lps22hh\lps22hh.c ****     case LPS22HH_POWER_DOWN:
 583:D:/fchai/work/i-cube/I-CUBE-HUAWEI/Drivers/BSP/Components/lps22hh\lps22hh.c ****       *Odr = 0.0f;
 584:D:/fchai/work/i-cube/I-CUBE-HUAWEI/Drivers/BSP/Components/lps22hh\lps22hh.c ****       break;
 585:D:/fchai/work/i-cube/I-CUBE-HUAWEI/Drivers/BSP/Components/lps22hh\lps22hh.c **** 
 586:D:/fchai/work/i-cube/I-CUBE-HUAWEI/Drivers/BSP/Components/lps22hh\lps22hh.c ****     case LPS22HH_1_Hz:
 587:D:/fchai/work/i-cube/I-CUBE-HUAWEI/Drivers/BSP/Components/lps22hh\lps22hh.c ****       *Odr = 1.0f;
 588:D:/fchai/work/i-cube/I-CUBE-HUAWEI/Drivers/BSP/Components/lps22hh\lps22hh.c ****       break;
 589:D:/fchai/work/i-cube/I-CUBE-HUAWEI/Drivers/BSP/Components/lps22hh\lps22hh.c **** 
 590:D:/fchai/work/i-cube/I-CUBE-HUAWEI/Drivers/BSP/Components/lps22hh\lps22hh.c ****     case LPS22HH_10_Hz:
 591:D:/fchai/work/i-cube/I-CUBE-HUAWEI/Drivers/BSP/Components/lps22hh\lps22hh.c ****       *Odr = 10.0f;
 592:D:/fchai/work/i-cube/I-CUBE-HUAWEI/Drivers/BSP/Components/lps22hh\lps22hh.c ****       break;
 593:D:/fchai/work/i-cube/I-CUBE-HUAWEI/Drivers/BSP/Components/lps22hh\lps22hh.c **** 
 594:D:/fchai/work/i-cube/I-CUBE-HUAWEI/Drivers/BSP/Components/lps22hh\lps22hh.c ****     case LPS22HH_25_Hz:
 595:D:/fchai/work/i-cube/I-CUBE-HUAWEI/Drivers/BSP/Components/lps22hh\lps22hh.c ****       *Odr = 25.0f;
 596:D:/fchai/work/i-cube/I-CUBE-HUAWEI/Drivers/BSP/Components/lps22hh\lps22hh.c ****       break;
 597:D:/fchai/work/i-cube/I-CUBE-HUAWEI/Drivers/BSP/Components/lps22hh\lps22hh.c **** 
 598:D:/fchai/work/i-cube/I-CUBE-HUAWEI/Drivers/BSP/Components/lps22hh\lps22hh.c ****     case LPS22HH_50_Hz:
 599:D:/fchai/work/i-cube/I-CUBE-HUAWEI/Drivers/BSP/Components/lps22hh\lps22hh.c ****       *Odr = 50.0f;
 600:D:/fchai/work/i-cube/I-CUBE-HUAWEI/Drivers/BSP/Components/lps22hh\lps22hh.c ****       break;
 601:D:/fchai/work/i-cube/I-CUBE-HUAWEI/Drivers/BSP/Components/lps22hh\lps22hh.c **** 
 602:D:/fchai/work/i-cube/I-CUBE-HUAWEI/Drivers/BSP/Components/lps22hh\lps22hh.c ****     case LPS22HH_75_Hz:
ARM GAS  T:\msys\tmp\cc7XUJLO.s 			page 13


 603:D:/fchai/work/i-cube/I-CUBE-HUAWEI/Drivers/BSP/Components/lps22hh\lps22hh.c ****       *Odr = 75.0f;
 604:D:/fchai/work/i-cube/I-CUBE-HUAWEI/Drivers/BSP/Components/lps22hh\lps22hh.c ****       break;
 605:D:/fchai/work/i-cube/I-CUBE-HUAWEI/Drivers/BSP/Components/lps22hh\lps22hh.c **** 
 606:D:/fchai/work/i-cube/I-CUBE-HUAWEI/Drivers/BSP/Components/lps22hh\lps22hh.c ****     case LPS22HH_100_Hz:
 607:D:/fchai/work/i-cube/I-CUBE-HUAWEI/Drivers/BSP/Components/lps22hh\lps22hh.c ****       *Odr = 100.0f;
 608:D:/fchai/work/i-cube/I-CUBE-HUAWEI/Drivers/BSP/Components/lps22hh\lps22hh.c ****       break;
 609:D:/fchai/work/i-cube/I-CUBE-HUAWEI/Drivers/BSP/Components/lps22hh\lps22hh.c **** 
 610:D:/fchai/work/i-cube/I-CUBE-HUAWEI/Drivers/BSP/Components/lps22hh\lps22hh.c ****     case LPS22HH_200_Hz:
 611:D:/fchai/work/i-cube/I-CUBE-HUAWEI/Drivers/BSP/Components/lps22hh\lps22hh.c ****       *Odr = 200.0f;
 612:D:/fchai/work/i-cube/I-CUBE-HUAWEI/Drivers/BSP/Components/lps22hh\lps22hh.c ****       break;
 613:D:/fchai/work/i-cube/I-CUBE-HUAWEI/Drivers/BSP/Components/lps22hh\lps22hh.c **** 
 614:D:/fchai/work/i-cube/I-CUBE-HUAWEI/Drivers/BSP/Components/lps22hh\lps22hh.c ****     default:
 615:D:/fchai/work/i-cube/I-CUBE-HUAWEI/Drivers/BSP/Components/lps22hh\lps22hh.c ****       ret = LPS22HH_ERROR;
 616:D:/fchai/work/i-cube/I-CUBE-HUAWEI/Drivers/BSP/Components/lps22hh\lps22hh.c ****       break;
 617:D:/fchai/work/i-cube/I-CUBE-HUAWEI/Drivers/BSP/Components/lps22hh\lps22hh.c ****   }
 618:D:/fchai/work/i-cube/I-CUBE-HUAWEI/Drivers/BSP/Components/lps22hh\lps22hh.c **** 
 619:D:/fchai/work/i-cube/I-CUBE-HUAWEI/Drivers/BSP/Components/lps22hh\lps22hh.c ****   return ret;
 620:D:/fchai/work/i-cube/I-CUBE-HUAWEI/Drivers/BSP/Components/lps22hh\lps22hh.c **** }
 621:D:/fchai/work/i-cube/I-CUBE-HUAWEI/Drivers/BSP/Components/lps22hh\lps22hh.c **** 
 622:D:/fchai/work/i-cube/I-CUBE-HUAWEI/Drivers/BSP/Components/lps22hh\lps22hh.c **** /**
 623:D:/fchai/work/i-cube/I-CUBE-HUAWEI/Drivers/BSP/Components/lps22hh\lps22hh.c ****  * @brief  Set output data rate
 624:D:/fchai/work/i-cube/I-CUBE-HUAWEI/Drivers/BSP/Components/lps22hh\lps22hh.c ****  * @param  pObj the device pObj
 625:D:/fchai/work/i-cube/I-CUBE-HUAWEI/Drivers/BSP/Components/lps22hh\lps22hh.c ****  * @param  Odr the output data rate value to be set
 626:D:/fchai/work/i-cube/I-CUBE-HUAWEI/Drivers/BSP/Components/lps22hh\lps22hh.c ****  * @retval 0 in case of success, an error code otherwise
 627:D:/fchai/work/i-cube/I-CUBE-HUAWEI/Drivers/BSP/Components/lps22hh\lps22hh.c ****  */
 628:D:/fchai/work/i-cube/I-CUBE-HUAWEI/Drivers/BSP/Components/lps22hh\lps22hh.c **** static int32_t LPS22HH_SetOutputDataRate_When_Enabled(LPS22HH_Object_t *pObj, float Odr)
 629:D:/fchai/work/i-cube/I-CUBE-HUAWEI/Drivers/BSP/Components/lps22hh\lps22hh.c **** {
 630:D:/fchai/work/i-cube/I-CUBE-HUAWEI/Drivers/BSP/Components/lps22hh\lps22hh.c ****   lps22hh_odr_t new_odr;
 631:D:/fchai/work/i-cube/I-CUBE-HUAWEI/Drivers/BSP/Components/lps22hh\lps22hh.c **** 
 632:D:/fchai/work/i-cube/I-CUBE-HUAWEI/Drivers/BSP/Components/lps22hh\lps22hh.c ****   new_odr = (Odr <=   1.0f) ? LPS22HH_1_Hz
 633:D:/fchai/work/i-cube/I-CUBE-HUAWEI/Drivers/BSP/Components/lps22hh\lps22hh.c ****           : (Odr <=  10.0f) ? LPS22HH_10_Hz
 634:D:/fchai/work/i-cube/I-CUBE-HUAWEI/Drivers/BSP/Components/lps22hh\lps22hh.c ****           : (Odr <=  25.0f) ? LPS22HH_25_Hz
 635:D:/fchai/work/i-cube/I-CUBE-HUAWEI/Drivers/BSP/Components/lps22hh\lps22hh.c ****           : (Odr <=  50.0f) ? LPS22HH_50_Hz
 636:D:/fchai/work/i-cube/I-CUBE-HUAWEI/Drivers/BSP/Components/lps22hh\lps22hh.c ****           : (Odr <=  75.0f) ? LPS22HH_75_Hz
 637:D:/fchai/work/i-cube/I-CUBE-HUAWEI/Drivers/BSP/Components/lps22hh\lps22hh.c ****           : (Odr <= 100.0f) ? LPS22HH_100_Hz
 638:D:/fchai/work/i-cube/I-CUBE-HUAWEI/Drivers/BSP/Components/lps22hh\lps22hh.c ****           :                   LPS22HH_200_Hz;
 639:D:/fchai/work/i-cube/I-CUBE-HUAWEI/Drivers/BSP/Components/lps22hh\lps22hh.c **** 
 640:D:/fchai/work/i-cube/I-CUBE-HUAWEI/Drivers/BSP/Components/lps22hh\lps22hh.c ****   if (lps22hh_data_rate_set(&(pObj->Ctx), new_odr) != LPS22HH_OK)
 641:D:/fchai/work/i-cube/I-CUBE-HUAWEI/Drivers/BSP/Components/lps22hh\lps22hh.c ****   {
 642:D:/fchai/work/i-cube/I-CUBE-HUAWEI/Drivers/BSP/Components/lps22hh\lps22hh.c ****     return LPS22HH_ERROR;
 643:D:/fchai/work/i-cube/I-CUBE-HUAWEI/Drivers/BSP/Components/lps22hh\lps22hh.c ****   }
 644:D:/fchai/work/i-cube/I-CUBE-HUAWEI/Drivers/BSP/Components/lps22hh\lps22hh.c **** 
 645:D:/fchai/work/i-cube/I-CUBE-HUAWEI/Drivers/BSP/Components/lps22hh\lps22hh.c ****   if (lps22hh_data_rate_get(&(pObj->Ctx), &pObj->last_odr) != LPS22HH_OK)
 646:D:/fchai/work/i-cube/I-CUBE-HUAWEI/Drivers/BSP/Components/lps22hh\lps22hh.c ****   {
 647:D:/fchai/work/i-cube/I-CUBE-HUAWEI/Drivers/BSP/Components/lps22hh\lps22hh.c ****     return LPS22HH_ERROR;
 648:D:/fchai/work/i-cube/I-CUBE-HUAWEI/Drivers/BSP/Components/lps22hh\lps22hh.c ****   }
 649:D:/fchai/work/i-cube/I-CUBE-HUAWEI/Drivers/BSP/Components/lps22hh\lps22hh.c **** 
 650:D:/fchai/work/i-cube/I-CUBE-HUAWEI/Drivers/BSP/Components/lps22hh\lps22hh.c ****   return LPS22HH_OK;
 651:D:/fchai/work/i-cube/I-CUBE-HUAWEI/Drivers/BSP/Components/lps22hh\lps22hh.c **** }
 652:D:/fchai/work/i-cube/I-CUBE-HUAWEI/Drivers/BSP/Components/lps22hh\lps22hh.c **** 
 653:D:/fchai/work/i-cube/I-CUBE-HUAWEI/Drivers/BSP/Components/lps22hh\lps22hh.c **** /**
 654:D:/fchai/work/i-cube/I-CUBE-HUAWEI/Drivers/BSP/Components/lps22hh\lps22hh.c ****  * @brief  Set output data rate when disabled
 655:D:/fchai/work/i-cube/I-CUBE-HUAWEI/Drivers/BSP/Components/lps22hh\lps22hh.c ****  * @param  pObj the device pObj
 656:D:/fchai/work/i-cube/I-CUBE-HUAWEI/Drivers/BSP/Components/lps22hh\lps22hh.c ****  * @param  Odr the output data rate value to be set
 657:D:/fchai/work/i-cube/I-CUBE-HUAWEI/Drivers/BSP/Components/lps22hh\lps22hh.c ****  * @retval 0 in case of success, an error code otherwise
 658:D:/fchai/work/i-cube/I-CUBE-HUAWEI/Drivers/BSP/Components/lps22hh\lps22hh.c ****  */
 659:D:/fchai/work/i-cube/I-CUBE-HUAWEI/Drivers/BSP/Components/lps22hh\lps22hh.c **** static int32_t LPS22HH_SetOutputDataRate_When_Disabled(LPS22HH_Object_t *pObj, float Odr)
ARM GAS  T:\msys\tmp\cc7XUJLO.s 			page 14


 660:D:/fchai/work/i-cube/I-CUBE-HUAWEI/Drivers/BSP/Components/lps22hh\lps22hh.c **** {
 661:D:/fchai/work/i-cube/I-CUBE-HUAWEI/Drivers/BSP/Components/lps22hh\lps22hh.c ****   pObj->last_odr = (Odr <=   1.0f) ? LPS22HH_1_Hz
 662:D:/fchai/work/i-cube/I-CUBE-HUAWEI/Drivers/BSP/Components/lps22hh\lps22hh.c ****                  : (Odr <=  10.0f) ? LPS22HH_10_Hz
 663:D:/fchai/work/i-cube/I-CUBE-HUAWEI/Drivers/BSP/Components/lps22hh\lps22hh.c ****                  : (Odr <=  25.0f) ? LPS22HH_25_Hz
 664:D:/fchai/work/i-cube/I-CUBE-HUAWEI/Drivers/BSP/Components/lps22hh\lps22hh.c ****                  : (Odr <=  50.0f) ? LPS22HH_50_Hz
 665:D:/fchai/work/i-cube/I-CUBE-HUAWEI/Drivers/BSP/Components/lps22hh\lps22hh.c ****                  : (Odr <=  75.0f) ? LPS22HH_75_Hz
 666:D:/fchai/work/i-cube/I-CUBE-HUAWEI/Drivers/BSP/Components/lps22hh\lps22hh.c ****                  : (Odr <= 100.0f) ? LPS22HH_100_Hz
 667:D:/fchai/work/i-cube/I-CUBE-HUAWEI/Drivers/BSP/Components/lps22hh\lps22hh.c ****                  :                   LPS22HH_200_Hz;
 668:D:/fchai/work/i-cube/I-CUBE-HUAWEI/Drivers/BSP/Components/lps22hh\lps22hh.c **** 
 669:D:/fchai/work/i-cube/I-CUBE-HUAWEI/Drivers/BSP/Components/lps22hh\lps22hh.c ****   return LPS22HH_OK;
 670:D:/fchai/work/i-cube/I-CUBE-HUAWEI/Drivers/BSP/Components/lps22hh\lps22hh.c **** }
 671:D:/fchai/work/i-cube/I-CUBE-HUAWEI/Drivers/BSP/Components/lps22hh\lps22hh.c **** 
 672:D:/fchai/work/i-cube/I-CUBE-HUAWEI/Drivers/BSP/Components/lps22hh\lps22hh.c **** /**
 673:D:/fchai/work/i-cube/I-CUBE-HUAWEI/Drivers/BSP/Components/lps22hh\lps22hh.c ****  * @brief  Initialize the LPS22HH sensor
 674:D:/fchai/work/i-cube/I-CUBE-HUAWEI/Drivers/BSP/Components/lps22hh\lps22hh.c ****  * @param  pObj the device pObj
 675:D:/fchai/work/i-cube/I-CUBE-HUAWEI/Drivers/BSP/Components/lps22hh\lps22hh.c ****  * @retval 0 in case of success, an error code otherwise
 676:D:/fchai/work/i-cube/I-CUBE-HUAWEI/Drivers/BSP/Components/lps22hh\lps22hh.c ****  */
 677:D:/fchai/work/i-cube/I-CUBE-HUAWEI/Drivers/BSP/Components/lps22hh\lps22hh.c **** static int32_t LPS22HH_Initialize(LPS22HH_Object_t *pObj)
 678:D:/fchai/work/i-cube/I-CUBE-HUAWEI/Drivers/BSP/Components/lps22hh\lps22hh.c **** {
 679:D:/fchai/work/i-cube/I-CUBE-HUAWEI/Drivers/BSP/Components/lps22hh\lps22hh.c ****   /* Disable MIPI I3C(SM) interface */
 680:D:/fchai/work/i-cube/I-CUBE-HUAWEI/Drivers/BSP/Components/lps22hh\lps22hh.c ****   if (lps22hh_i3c_interface_set(&(pObj->Ctx), LPS22HH_I3C_DISABLE) != LPS22HH_OK)
 681:D:/fchai/work/i-cube/I-CUBE-HUAWEI/Drivers/BSP/Components/lps22hh\lps22hh.c ****   {
 682:D:/fchai/work/i-cube/I-CUBE-HUAWEI/Drivers/BSP/Components/lps22hh\lps22hh.c ****     return LPS22HH_ERROR;
 683:D:/fchai/work/i-cube/I-CUBE-HUAWEI/Drivers/BSP/Components/lps22hh\lps22hh.c ****   }
 684:D:/fchai/work/i-cube/I-CUBE-HUAWEI/Drivers/BSP/Components/lps22hh\lps22hh.c **** 
 685:D:/fchai/work/i-cube/I-CUBE-HUAWEI/Drivers/BSP/Components/lps22hh\lps22hh.c ****   /* Power down the device, set Low Noise Enable (bit 5), clear One Shot (bit 4) */
 686:D:/fchai/work/i-cube/I-CUBE-HUAWEI/Drivers/BSP/Components/lps22hh\lps22hh.c ****   if (lps22hh_data_rate_set(&(pObj->Ctx), (lps22hh_odr_t)(LPS22HH_POWER_DOWN | 0x10)) != LPS22HH_OK
 687:D:/fchai/work/i-cube/I-CUBE-HUAWEI/Drivers/BSP/Components/lps22hh\lps22hh.c ****   {
 688:D:/fchai/work/i-cube/I-CUBE-HUAWEI/Drivers/BSP/Components/lps22hh\lps22hh.c ****     return LPS22HH_ERROR;
 689:D:/fchai/work/i-cube/I-CUBE-HUAWEI/Drivers/BSP/Components/lps22hh\lps22hh.c ****   }
 690:D:/fchai/work/i-cube/I-CUBE-HUAWEI/Drivers/BSP/Components/lps22hh\lps22hh.c **** 
 691:D:/fchai/work/i-cube/I-CUBE-HUAWEI/Drivers/BSP/Components/lps22hh\lps22hh.c ****   /* Disable low-pass filter on LPS22HH pressure data */
 692:D:/fchai/work/i-cube/I-CUBE-HUAWEI/Drivers/BSP/Components/lps22hh\lps22hh.c ****   if (lps22hh_lp_bandwidth_set(&(pObj->Ctx), LPS22HH_LPF_ODR_DIV_2) != LPS22HH_OK)
 693:D:/fchai/work/i-cube/I-CUBE-HUAWEI/Drivers/BSP/Components/lps22hh\lps22hh.c ****   {
 694:D:/fchai/work/i-cube/I-CUBE-HUAWEI/Drivers/BSP/Components/lps22hh\lps22hh.c ****     return LPS22HH_ERROR;
 695:D:/fchai/work/i-cube/I-CUBE-HUAWEI/Drivers/BSP/Components/lps22hh\lps22hh.c ****   }
 696:D:/fchai/work/i-cube/I-CUBE-HUAWEI/Drivers/BSP/Components/lps22hh\lps22hh.c **** 
 697:D:/fchai/work/i-cube/I-CUBE-HUAWEI/Drivers/BSP/Components/lps22hh\lps22hh.c ****   /* Set block data update mode */
 698:D:/fchai/work/i-cube/I-CUBE-HUAWEI/Drivers/BSP/Components/lps22hh\lps22hh.c ****   if (lps22hh_block_data_update_set(&(pObj->Ctx), PROPERTY_ENABLE) != LPS22HH_OK)
 699:D:/fchai/work/i-cube/I-CUBE-HUAWEI/Drivers/BSP/Components/lps22hh\lps22hh.c ****   {
 700:D:/fchai/work/i-cube/I-CUBE-HUAWEI/Drivers/BSP/Components/lps22hh\lps22hh.c ****     return LPS22HH_ERROR;
 701:D:/fchai/work/i-cube/I-CUBE-HUAWEI/Drivers/BSP/Components/lps22hh\lps22hh.c ****   }
 702:D:/fchai/work/i-cube/I-CUBE-HUAWEI/Drivers/BSP/Components/lps22hh\lps22hh.c **** 
 703:D:/fchai/work/i-cube/I-CUBE-HUAWEI/Drivers/BSP/Components/lps22hh\lps22hh.c ****   /* Set autoincrement for multi-byte read/write */
 704:D:/fchai/work/i-cube/I-CUBE-HUAWEI/Drivers/BSP/Components/lps22hh\lps22hh.c ****   if (lps22hh_auto_increment_set(&(pObj->Ctx), PROPERTY_ENABLE) != LPS22HH_OK)
 705:D:/fchai/work/i-cube/I-CUBE-HUAWEI/Drivers/BSP/Components/lps22hh\lps22hh.c ****   {
 706:D:/fchai/work/i-cube/I-CUBE-HUAWEI/Drivers/BSP/Components/lps22hh\lps22hh.c ****     return LPS22HH_ERROR;
 707:D:/fchai/work/i-cube/I-CUBE-HUAWEI/Drivers/BSP/Components/lps22hh\lps22hh.c ****   }
 708:D:/fchai/work/i-cube/I-CUBE-HUAWEI/Drivers/BSP/Components/lps22hh\lps22hh.c **** 
 709:D:/fchai/work/i-cube/I-CUBE-HUAWEI/Drivers/BSP/Components/lps22hh\lps22hh.c ****   pObj->last_odr = LPS22HH_25_Hz;
 710:D:/fchai/work/i-cube/I-CUBE-HUAWEI/Drivers/BSP/Components/lps22hh\lps22hh.c **** 
 711:D:/fchai/work/i-cube/I-CUBE-HUAWEI/Drivers/BSP/Components/lps22hh\lps22hh.c ****   return LPS22HH_OK;
 712:D:/fchai/work/i-cube/I-CUBE-HUAWEI/Drivers/BSP/Components/lps22hh\lps22hh.c **** }
 713:D:/fchai/work/i-cube/I-CUBE-HUAWEI/Drivers/BSP/Components/lps22hh\lps22hh.c **** 
 714:D:/fchai/work/i-cube/I-CUBE-HUAWEI/Drivers/BSP/Components/lps22hh\lps22hh.c **** /**
 715:D:/fchai/work/i-cube/I-CUBE-HUAWEI/Drivers/BSP/Components/lps22hh\lps22hh.c ****  * @brief  Get the LPS22HH FIFO data level
 716:D:/fchai/work/i-cube/I-CUBE-HUAWEI/Drivers/BSP/Components/lps22hh\lps22hh.c ****  * @param  pObj the device pObj
ARM GAS  T:\msys\tmp\cc7XUJLO.s 			page 15


 717:D:/fchai/work/i-cube/I-CUBE-HUAWEI/Drivers/BSP/Components/lps22hh\lps22hh.c ****  * @param  Status the status of data ready bit
 718:D:/fchai/work/i-cube/I-CUBE-HUAWEI/Drivers/BSP/Components/lps22hh\lps22hh.c ****  * @retval 0 in case of success, an error code otherwise
 719:D:/fchai/work/i-cube/I-CUBE-HUAWEI/Drivers/BSP/Components/lps22hh\lps22hh.c ****  */
 720:D:/fchai/work/i-cube/I-CUBE-HUAWEI/Drivers/BSP/Components/lps22hh\lps22hh.c **** int32_t LPS22HH_FIFO_Get_Data(LPS22HH_Object_t *pObj, float *Press, float *Temp)
 721:D:/fchai/work/i-cube/I-CUBE-HUAWEI/Drivers/BSP/Components/lps22hh\lps22hh.c **** {
 722:D:/fchai/work/i-cube/I-CUBE-HUAWEI/Drivers/BSP/Components/lps22hh\lps22hh.c ****   lps22hh_axis1bit32_t data_raw_pressure;
 723:D:/fchai/work/i-cube/I-CUBE-HUAWEI/Drivers/BSP/Components/lps22hh\lps22hh.c ****   lps22hh_axis1bit16_t data_raw_temperature;
 724:D:/fchai/work/i-cube/I-CUBE-HUAWEI/Drivers/BSP/Components/lps22hh\lps22hh.c **** 
 725:D:/fchai/work/i-cube/I-CUBE-HUAWEI/Drivers/BSP/Components/lps22hh\lps22hh.c ****   (void)memset(data_raw_pressure.u8bit, 0x00, sizeof(int32_t));
 726:D:/fchai/work/i-cube/I-CUBE-HUAWEI/Drivers/BSP/Components/lps22hh\lps22hh.c ****   if (lps22hh_fifo_pressure_raw_get(&(pObj->Ctx), data_raw_pressure.u8bit) != LPS22HH_OK)
 727:D:/fchai/work/i-cube/I-CUBE-HUAWEI/Drivers/BSP/Components/lps22hh\lps22hh.c ****   {
 728:D:/fchai/work/i-cube/I-CUBE-HUAWEI/Drivers/BSP/Components/lps22hh\lps22hh.c **** 	return LPS22HH_ERROR;
 729:D:/fchai/work/i-cube/I-CUBE-HUAWEI/Drivers/BSP/Components/lps22hh\lps22hh.c ****   }
 730:D:/fchai/work/i-cube/I-CUBE-HUAWEI/Drivers/BSP/Components/lps22hh\lps22hh.c **** 
 731:D:/fchai/work/i-cube/I-CUBE-HUAWEI/Drivers/BSP/Components/lps22hh\lps22hh.c ****   *Press = lps22hh_from_lsb_to_hpa(data_raw_pressure.i32bit);
 732:D:/fchai/work/i-cube/I-CUBE-HUAWEI/Drivers/BSP/Components/lps22hh\lps22hh.c **** 
 733:D:/fchai/work/i-cube/I-CUBE-HUAWEI/Drivers/BSP/Components/lps22hh\lps22hh.c ****   (void)memset(data_raw_temperature.u8bit, 0x00, sizeof(int16_t));
 734:D:/fchai/work/i-cube/I-CUBE-HUAWEI/Drivers/BSP/Components/lps22hh\lps22hh.c ****   if (lps22hh_fifo_temperature_raw_get(&(pObj->Ctx), data_raw_temperature.u8bit) != LPS22HH_OK)
 735:D:/fchai/work/i-cube/I-CUBE-HUAWEI/Drivers/BSP/Components/lps22hh\lps22hh.c ****   {
 736:D:/fchai/work/i-cube/I-CUBE-HUAWEI/Drivers/BSP/Components/lps22hh\lps22hh.c ****     return LPS22HH_ERROR;
 737:D:/fchai/work/i-cube/I-CUBE-HUAWEI/Drivers/BSP/Components/lps22hh\lps22hh.c ****   }
 738:D:/fchai/work/i-cube/I-CUBE-HUAWEI/Drivers/BSP/Components/lps22hh\lps22hh.c **** 
 739:D:/fchai/work/i-cube/I-CUBE-HUAWEI/Drivers/BSP/Components/lps22hh\lps22hh.c ****   *Temp = lps22hh_from_lsb_to_celsius(data_raw_temperature.i16bit);
 740:D:/fchai/work/i-cube/I-CUBE-HUAWEI/Drivers/BSP/Components/lps22hh\lps22hh.c **** 
 741:D:/fchai/work/i-cube/I-CUBE-HUAWEI/Drivers/BSP/Components/lps22hh\lps22hh.c ****   return LPS22HH_OK;
 742:D:/fchai/work/i-cube/I-CUBE-HUAWEI/Drivers/BSP/Components/lps22hh\lps22hh.c **** }
 743:D:/fchai/work/i-cube/I-CUBE-HUAWEI/Drivers/BSP/Components/lps22hh\lps22hh.c **** 
 744:D:/fchai/work/i-cube/I-CUBE-HUAWEI/Drivers/BSP/Components/lps22hh\lps22hh.c **** /**
 745:D:/fchai/work/i-cube/I-CUBE-HUAWEI/Drivers/BSP/Components/lps22hh\lps22hh.c ****  * @brief  Get the LPS22HH FIFO threshold
 746:D:/fchai/work/i-cube/I-CUBE-HUAWEI/Drivers/BSP/Components/lps22hh\lps22hh.c ****  * @param  pObj the device pObj
 747:D:/fchai/work/i-cube/I-CUBE-HUAWEI/Drivers/BSP/Components/lps22hh\lps22hh.c ****  * @param  Status the status of data ready bit
 748:D:/fchai/work/i-cube/I-CUBE-HUAWEI/Drivers/BSP/Components/lps22hh\lps22hh.c ****  * @retval 0 in case of success, an error code otherwise
 749:D:/fchai/work/i-cube/I-CUBE-HUAWEI/Drivers/BSP/Components/lps22hh\lps22hh.c ****  */
 750:D:/fchai/work/i-cube/I-CUBE-HUAWEI/Drivers/BSP/Components/lps22hh\lps22hh.c **** int32_t LPS22HH_FIFO_Get_FTh_Status(LPS22HH_Object_t *pObj, uint8_t *Status)
 751:D:/fchai/work/i-cube/I-CUBE-HUAWEI/Drivers/BSP/Components/lps22hh\lps22hh.c **** {
 752:D:/fchai/work/i-cube/I-CUBE-HUAWEI/Drivers/BSP/Components/lps22hh\lps22hh.c ****   if (lps22hh_fifo_wtm_flag_get(&(pObj->Ctx), Status) != LPS22HH_OK)
 753:D:/fchai/work/i-cube/I-CUBE-HUAWEI/Drivers/BSP/Components/lps22hh\lps22hh.c ****   {
 754:D:/fchai/work/i-cube/I-CUBE-HUAWEI/Drivers/BSP/Components/lps22hh\lps22hh.c ****     return LPS22HH_ERROR;
 755:D:/fchai/work/i-cube/I-CUBE-HUAWEI/Drivers/BSP/Components/lps22hh\lps22hh.c ****   }
 756:D:/fchai/work/i-cube/I-CUBE-HUAWEI/Drivers/BSP/Components/lps22hh\lps22hh.c **** 
 757:D:/fchai/work/i-cube/I-CUBE-HUAWEI/Drivers/BSP/Components/lps22hh\lps22hh.c ****   return LPS22HH_OK;
 758:D:/fchai/work/i-cube/I-CUBE-HUAWEI/Drivers/BSP/Components/lps22hh\lps22hh.c **** }
 759:D:/fchai/work/i-cube/I-CUBE-HUAWEI/Drivers/BSP/Components/lps22hh\lps22hh.c **** 
 760:D:/fchai/work/i-cube/I-CUBE-HUAWEI/Drivers/BSP/Components/lps22hh\lps22hh.c **** /**
 761:D:/fchai/work/i-cube/I-CUBE-HUAWEI/Drivers/BSP/Components/lps22hh\lps22hh.c ****  * @brief  Get the LPS22HH FIFO full status
 762:D:/fchai/work/i-cube/I-CUBE-HUAWEI/Drivers/BSP/Components/lps22hh\lps22hh.c ****  * @param  pObj the device pObj
 763:D:/fchai/work/i-cube/I-CUBE-HUAWEI/Drivers/BSP/Components/lps22hh\lps22hh.c ****  * @param  Status the status of data ready bit
 764:D:/fchai/work/i-cube/I-CUBE-HUAWEI/Drivers/BSP/Components/lps22hh\lps22hh.c ****  * @retval 0 in case of success, an error code otherwise
 765:D:/fchai/work/i-cube/I-CUBE-HUAWEI/Drivers/BSP/Components/lps22hh\lps22hh.c ****  */
 766:D:/fchai/work/i-cube/I-CUBE-HUAWEI/Drivers/BSP/Components/lps22hh\lps22hh.c **** int32_t LPS22HH_FIFO_Get_Full_Status(LPS22HH_Object_t *pObj, uint8_t *Status)
 767:D:/fchai/work/i-cube/I-CUBE-HUAWEI/Drivers/BSP/Components/lps22hh\lps22hh.c **** {
 768:D:/fchai/work/i-cube/I-CUBE-HUAWEI/Drivers/BSP/Components/lps22hh\lps22hh.c ****   if (lps22hh_fifo_full_flag_get(&(pObj->Ctx), Status) != LPS22HH_OK)
 769:D:/fchai/work/i-cube/I-CUBE-HUAWEI/Drivers/BSP/Components/lps22hh\lps22hh.c ****   {
 770:D:/fchai/work/i-cube/I-CUBE-HUAWEI/Drivers/BSP/Components/lps22hh\lps22hh.c ****     return LPS22HH_ERROR;
 771:D:/fchai/work/i-cube/I-CUBE-HUAWEI/Drivers/BSP/Components/lps22hh\lps22hh.c ****   }
 772:D:/fchai/work/i-cube/I-CUBE-HUAWEI/Drivers/BSP/Components/lps22hh\lps22hh.c **** 
 773:D:/fchai/work/i-cube/I-CUBE-HUAWEI/Drivers/BSP/Components/lps22hh\lps22hh.c ****   return LPS22HH_OK;
ARM GAS  T:\msys\tmp\cc7XUJLO.s 			page 16


 774:D:/fchai/work/i-cube/I-CUBE-HUAWEI/Drivers/BSP/Components/lps22hh\lps22hh.c **** }
 775:D:/fchai/work/i-cube/I-CUBE-HUAWEI/Drivers/BSP/Components/lps22hh\lps22hh.c **** 
 776:D:/fchai/work/i-cube/I-CUBE-HUAWEI/Drivers/BSP/Components/lps22hh\lps22hh.c **** /**
 777:D:/fchai/work/i-cube/I-CUBE-HUAWEI/Drivers/BSP/Components/lps22hh\lps22hh.c ****  * @brief  Get the LPS22HH FIFO OVR status
 778:D:/fchai/work/i-cube/I-CUBE-HUAWEI/Drivers/BSP/Components/lps22hh\lps22hh.c ****  * @param  pObj the device pObj
 779:D:/fchai/work/i-cube/I-CUBE-HUAWEI/Drivers/BSP/Components/lps22hh\lps22hh.c ****  * @param  Status the status of data ready bit
 780:D:/fchai/work/i-cube/I-CUBE-HUAWEI/Drivers/BSP/Components/lps22hh\lps22hh.c ****  * @retval 0 in case of success, an error code otherwise
 781:D:/fchai/work/i-cube/I-CUBE-HUAWEI/Drivers/BSP/Components/lps22hh\lps22hh.c ****  */
 782:D:/fchai/work/i-cube/I-CUBE-HUAWEI/Drivers/BSP/Components/lps22hh\lps22hh.c **** int32_t LPS22HH_FIFO_Get_Ovr_Status(LPS22HH_Object_t *pObj, uint8_t *Status)
 783:D:/fchai/work/i-cube/I-CUBE-HUAWEI/Drivers/BSP/Components/lps22hh\lps22hh.c **** {
 784:D:/fchai/work/i-cube/I-CUBE-HUAWEI/Drivers/BSP/Components/lps22hh\lps22hh.c ****   if (lps22hh_fifo_ovr_flag_get(&(pObj->Ctx), Status) != LPS22HH_OK)
 785:D:/fchai/work/i-cube/I-CUBE-HUAWEI/Drivers/BSP/Components/lps22hh\lps22hh.c ****   {
 786:D:/fchai/work/i-cube/I-CUBE-HUAWEI/Drivers/BSP/Components/lps22hh\lps22hh.c ****     return LPS22HH_ERROR;
 787:D:/fchai/work/i-cube/I-CUBE-HUAWEI/Drivers/BSP/Components/lps22hh\lps22hh.c ****   }
 788:D:/fchai/work/i-cube/I-CUBE-HUAWEI/Drivers/BSP/Components/lps22hh\lps22hh.c **** 
 789:D:/fchai/work/i-cube/I-CUBE-HUAWEI/Drivers/BSP/Components/lps22hh\lps22hh.c ****   return LPS22HH_OK;
 790:D:/fchai/work/i-cube/I-CUBE-HUAWEI/Drivers/BSP/Components/lps22hh\lps22hh.c **** }
 791:D:/fchai/work/i-cube/I-CUBE-HUAWEI/Drivers/BSP/Components/lps22hh\lps22hh.c **** 
 792:D:/fchai/work/i-cube/I-CUBE-HUAWEI/Drivers/BSP/Components/lps22hh\lps22hh.c **** /**
 793:D:/fchai/work/i-cube/I-CUBE-HUAWEI/Drivers/BSP/Components/lps22hh\lps22hh.c ****  * @brief  Get the LPS22HH FIFO data level
 794:D:/fchai/work/i-cube/I-CUBE-HUAWEI/Drivers/BSP/Components/lps22hh\lps22hh.c ****  * @param  pObj the device pObj
 795:D:/fchai/work/i-cube/I-CUBE-HUAWEI/Drivers/BSP/Components/lps22hh\lps22hh.c ****  * @param  Status the status of data ready bit
 796:D:/fchai/work/i-cube/I-CUBE-HUAWEI/Drivers/BSP/Components/lps22hh\lps22hh.c ****  * @retval 0 in case of success, an error code otherwise
 797:D:/fchai/work/i-cube/I-CUBE-HUAWEI/Drivers/BSP/Components/lps22hh\lps22hh.c ****  */
 798:D:/fchai/work/i-cube/I-CUBE-HUAWEI/Drivers/BSP/Components/lps22hh\lps22hh.c **** int32_t LPS22HH_FIFO_Get_Level(LPS22HH_Object_t *pObj, uint8_t *Status)
 799:D:/fchai/work/i-cube/I-CUBE-HUAWEI/Drivers/BSP/Components/lps22hh\lps22hh.c **** {
 800:D:/fchai/work/i-cube/I-CUBE-HUAWEI/Drivers/BSP/Components/lps22hh\lps22hh.c ****   if (lps22hh_fifo_data_level_get(&(pObj->Ctx), Status) != LPS22HH_OK)
 801:D:/fchai/work/i-cube/I-CUBE-HUAWEI/Drivers/BSP/Components/lps22hh\lps22hh.c ****   {
 802:D:/fchai/work/i-cube/I-CUBE-HUAWEI/Drivers/BSP/Components/lps22hh\lps22hh.c ****     return LPS22HH_ERROR;
 803:D:/fchai/work/i-cube/I-CUBE-HUAWEI/Drivers/BSP/Components/lps22hh\lps22hh.c ****   }
 804:D:/fchai/work/i-cube/I-CUBE-HUAWEI/Drivers/BSP/Components/lps22hh\lps22hh.c **** 
 805:D:/fchai/work/i-cube/I-CUBE-HUAWEI/Drivers/BSP/Components/lps22hh\lps22hh.c ****   return LPS22HH_OK;
 806:D:/fchai/work/i-cube/I-CUBE-HUAWEI/Drivers/BSP/Components/lps22hh\lps22hh.c **** }
 807:D:/fchai/work/i-cube/I-CUBE-HUAWEI/Drivers/BSP/Components/lps22hh\lps22hh.c **** 
 808:D:/fchai/work/i-cube/I-CUBE-HUAWEI/Drivers/BSP/Components/lps22hh\lps22hh.c **** /**
 809:D:/fchai/work/i-cube/I-CUBE-HUAWEI/Drivers/BSP/Components/lps22hh\lps22hh.c ****  * @brief  Reset the FIFO interrupt
 810:D:/fchai/work/i-cube/I-CUBE-HUAWEI/Drivers/BSP/Components/lps22hh\lps22hh.c ****  * @param  pObj the device pObj
 811:D:/fchai/work/i-cube/I-CUBE-HUAWEI/Drivers/BSP/Components/lps22hh\lps22hh.c ****  * @param  interrupt The FIFO interrupt to be reset; values: 0 = FTH; 1 = FULL; 2 = OVR
 812:D:/fchai/work/i-cube/I-CUBE-HUAWEI/Drivers/BSP/Components/lps22hh\lps22hh.c ****  * @retval 0 in case of success, an error code otherwise
 813:D:/fchai/work/i-cube/I-CUBE-HUAWEI/Drivers/BSP/Components/lps22hh\lps22hh.c ****  */
 814:D:/fchai/work/i-cube/I-CUBE-HUAWEI/Drivers/BSP/Components/lps22hh\lps22hh.c **** int32_t LPS22HH_FIFO_Reset_Interrupt(LPS22HH_Object_t *pObj, uint8_t interrupt)
 815:D:/fchai/work/i-cube/I-CUBE-HUAWEI/Drivers/BSP/Components/lps22hh\lps22hh.c **** {
 816:D:/fchai/work/i-cube/I-CUBE-HUAWEI/Drivers/BSP/Components/lps22hh\lps22hh.c ****   switch (interrupt)
 817:D:/fchai/work/i-cube/I-CUBE-HUAWEI/Drivers/BSP/Components/lps22hh\lps22hh.c ****   {
 818:D:/fchai/work/i-cube/I-CUBE-HUAWEI/Drivers/BSP/Components/lps22hh\lps22hh.c ****     case 0:
 819:D:/fchai/work/i-cube/I-CUBE-HUAWEI/Drivers/BSP/Components/lps22hh\lps22hh.c ****       if (lps22hh_fifo_threshold_on_int_set(&(pObj->Ctx), PROPERTY_DISABLE) != LPS22HH_OK)
 820:D:/fchai/work/i-cube/I-CUBE-HUAWEI/Drivers/BSP/Components/lps22hh\lps22hh.c ****       {
 821:D:/fchai/work/i-cube/I-CUBE-HUAWEI/Drivers/BSP/Components/lps22hh\lps22hh.c ****         return LPS22HH_ERROR;
 822:D:/fchai/work/i-cube/I-CUBE-HUAWEI/Drivers/BSP/Components/lps22hh\lps22hh.c ****       }
 823:D:/fchai/work/i-cube/I-CUBE-HUAWEI/Drivers/BSP/Components/lps22hh\lps22hh.c ****       break;
 824:D:/fchai/work/i-cube/I-CUBE-HUAWEI/Drivers/BSP/Components/lps22hh\lps22hh.c ****     case 1:
 825:D:/fchai/work/i-cube/I-CUBE-HUAWEI/Drivers/BSP/Components/lps22hh\lps22hh.c ****       if (lps22hh_fifo_full_on_int_set(&(pObj->Ctx), PROPERTY_DISABLE) != LPS22HH_OK)
 826:D:/fchai/work/i-cube/I-CUBE-HUAWEI/Drivers/BSP/Components/lps22hh\lps22hh.c ****       {
 827:D:/fchai/work/i-cube/I-CUBE-HUAWEI/Drivers/BSP/Components/lps22hh\lps22hh.c ****         return LPS22HH_ERROR;
 828:D:/fchai/work/i-cube/I-CUBE-HUAWEI/Drivers/BSP/Components/lps22hh\lps22hh.c ****       }
 829:D:/fchai/work/i-cube/I-CUBE-HUAWEI/Drivers/BSP/Components/lps22hh\lps22hh.c ****       break;
 830:D:/fchai/work/i-cube/I-CUBE-HUAWEI/Drivers/BSP/Components/lps22hh\lps22hh.c ****     case 2:
ARM GAS  T:\msys\tmp\cc7XUJLO.s 			page 17


 831:D:/fchai/work/i-cube/I-CUBE-HUAWEI/Drivers/BSP/Components/lps22hh\lps22hh.c ****       if (lps22hh_fifo_ovr_on_int_set(&(pObj->Ctx), PROPERTY_DISABLE) != LPS22HH_OK)
 832:D:/fchai/work/i-cube/I-CUBE-HUAWEI/Drivers/BSP/Components/lps22hh\lps22hh.c ****       {
 833:D:/fchai/work/i-cube/I-CUBE-HUAWEI/Drivers/BSP/Components/lps22hh\lps22hh.c ****         return LPS22HH_ERROR;
 834:D:/fchai/work/i-cube/I-CUBE-HUAWEI/Drivers/BSP/Components/lps22hh\lps22hh.c ****       }
 835:D:/fchai/work/i-cube/I-CUBE-HUAWEI/Drivers/BSP/Components/lps22hh\lps22hh.c ****       break;
 836:D:/fchai/work/i-cube/I-CUBE-HUAWEI/Drivers/BSP/Components/lps22hh\lps22hh.c ****     default:
 837:D:/fchai/work/i-cube/I-CUBE-HUAWEI/Drivers/BSP/Components/lps22hh\lps22hh.c ****       return LPS22HH_ERROR;
 838:D:/fchai/work/i-cube/I-CUBE-HUAWEI/Drivers/BSP/Components/lps22hh\lps22hh.c ****   }
 839:D:/fchai/work/i-cube/I-CUBE-HUAWEI/Drivers/BSP/Components/lps22hh\lps22hh.c **** 
 840:D:/fchai/work/i-cube/I-CUBE-HUAWEI/Drivers/BSP/Components/lps22hh\lps22hh.c ****   return LPS22HH_OK;
 841:D:/fchai/work/i-cube/I-CUBE-HUAWEI/Drivers/BSP/Components/lps22hh\lps22hh.c **** }
 842:D:/fchai/work/i-cube/I-CUBE-HUAWEI/Drivers/BSP/Components/lps22hh\lps22hh.c **** 
 843:D:/fchai/work/i-cube/I-CUBE-HUAWEI/Drivers/BSP/Components/lps22hh\lps22hh.c **** /**
 844:D:/fchai/work/i-cube/I-CUBE-HUAWEI/Drivers/BSP/Components/lps22hh\lps22hh.c ****  * @brief  Set the FIFO interrupt
 845:D:/fchai/work/i-cube/I-CUBE-HUAWEI/Drivers/BSP/Components/lps22hh\lps22hh.c ****  * @param  pObj the device pObj
 846:D:/fchai/work/i-cube/I-CUBE-HUAWEI/Drivers/BSP/Components/lps22hh\lps22hh.c ****  * @param  interrupt The FIFO interrupt to be reset; values: 0 = FTH; 1 = FULL; 2 = OVR
 847:D:/fchai/work/i-cube/I-CUBE-HUAWEI/Drivers/BSP/Components/lps22hh\lps22hh.c ****  * @retval 0 in case of success, an error code otherwise
 848:D:/fchai/work/i-cube/I-CUBE-HUAWEI/Drivers/BSP/Components/lps22hh\lps22hh.c ****  */
 849:D:/fchai/work/i-cube/I-CUBE-HUAWEI/Drivers/BSP/Components/lps22hh\lps22hh.c **** int32_t LPS22HH_FIFO_Set_Interrupt(LPS22HH_Object_t *pObj, uint8_t interrupt)
 850:D:/fchai/work/i-cube/I-CUBE-HUAWEI/Drivers/BSP/Components/lps22hh\lps22hh.c **** {
 851:D:/fchai/work/i-cube/I-CUBE-HUAWEI/Drivers/BSP/Components/lps22hh\lps22hh.c ****   switch (interrupt)
 852:D:/fchai/work/i-cube/I-CUBE-HUAWEI/Drivers/BSP/Components/lps22hh\lps22hh.c ****   {
 853:D:/fchai/work/i-cube/I-CUBE-HUAWEI/Drivers/BSP/Components/lps22hh\lps22hh.c ****     case 0:
 854:D:/fchai/work/i-cube/I-CUBE-HUAWEI/Drivers/BSP/Components/lps22hh\lps22hh.c ****       if (lps22hh_fifo_threshold_on_int_set(&(pObj->Ctx), PROPERTY_ENABLE) != LPS22HH_OK)
 855:D:/fchai/work/i-cube/I-CUBE-HUAWEI/Drivers/BSP/Components/lps22hh\lps22hh.c ****       {
 856:D:/fchai/work/i-cube/I-CUBE-HUAWEI/Drivers/BSP/Components/lps22hh\lps22hh.c ****         return LPS22HH_ERROR;
 857:D:/fchai/work/i-cube/I-CUBE-HUAWEI/Drivers/BSP/Components/lps22hh\lps22hh.c ****       }
 858:D:/fchai/work/i-cube/I-CUBE-HUAWEI/Drivers/BSP/Components/lps22hh\lps22hh.c ****       break;
 859:D:/fchai/work/i-cube/I-CUBE-HUAWEI/Drivers/BSP/Components/lps22hh\lps22hh.c ****     case 1:
 860:D:/fchai/work/i-cube/I-CUBE-HUAWEI/Drivers/BSP/Components/lps22hh\lps22hh.c ****       if (lps22hh_fifo_full_on_int_set(&(pObj->Ctx), PROPERTY_ENABLE) != LPS22HH_OK)
 861:D:/fchai/work/i-cube/I-CUBE-HUAWEI/Drivers/BSP/Components/lps22hh\lps22hh.c ****       {
 862:D:/fchai/work/i-cube/I-CUBE-HUAWEI/Drivers/BSP/Components/lps22hh\lps22hh.c ****         return LPS22HH_ERROR;
 863:D:/fchai/work/i-cube/I-CUBE-HUAWEI/Drivers/BSP/Components/lps22hh\lps22hh.c ****       }
 864:D:/fchai/work/i-cube/I-CUBE-HUAWEI/Drivers/BSP/Components/lps22hh\lps22hh.c ****       break;
 865:D:/fchai/work/i-cube/I-CUBE-HUAWEI/Drivers/BSP/Components/lps22hh\lps22hh.c ****     case 2:
 866:D:/fchai/work/i-cube/I-CUBE-HUAWEI/Drivers/BSP/Components/lps22hh\lps22hh.c ****       if (lps22hh_fifo_ovr_on_int_set(&(pObj->Ctx), PROPERTY_ENABLE) != LPS22HH_OK)
 867:D:/fchai/work/i-cube/I-CUBE-HUAWEI/Drivers/BSP/Components/lps22hh\lps22hh.c ****       {
 868:D:/fchai/work/i-cube/I-CUBE-HUAWEI/Drivers/BSP/Components/lps22hh\lps22hh.c ****         return LPS22HH_ERROR;
 869:D:/fchai/work/i-cube/I-CUBE-HUAWEI/Drivers/BSP/Components/lps22hh\lps22hh.c ****       }
 870:D:/fchai/work/i-cube/I-CUBE-HUAWEI/Drivers/BSP/Components/lps22hh\lps22hh.c ****       break;
 871:D:/fchai/work/i-cube/I-CUBE-HUAWEI/Drivers/BSP/Components/lps22hh\lps22hh.c ****     default:
 872:D:/fchai/work/i-cube/I-CUBE-HUAWEI/Drivers/BSP/Components/lps22hh\lps22hh.c ****       return LPS22HH_ERROR;
 873:D:/fchai/work/i-cube/I-CUBE-HUAWEI/Drivers/BSP/Components/lps22hh\lps22hh.c ****   }
 874:D:/fchai/work/i-cube/I-CUBE-HUAWEI/Drivers/BSP/Components/lps22hh\lps22hh.c **** 
 875:D:/fchai/work/i-cube/I-CUBE-HUAWEI/Drivers/BSP/Components/lps22hh\lps22hh.c ****   return LPS22HH_OK;
 876:D:/fchai/work/i-cube/I-CUBE-HUAWEI/Drivers/BSP/Components/lps22hh\lps22hh.c **** }
 877:D:/fchai/work/i-cube/I-CUBE-HUAWEI/Drivers/BSP/Components/lps22hh\lps22hh.c **** 
 878:D:/fchai/work/i-cube/I-CUBE-HUAWEI/Drivers/BSP/Components/lps22hh\lps22hh.c **** /**
 879:D:/fchai/work/i-cube/I-CUBE-HUAWEI/Drivers/BSP/Components/lps22hh\lps22hh.c ****  * @brief  Set the FIFO mode
 880:D:/fchai/work/i-cube/I-CUBE-HUAWEI/Drivers/BSP/Components/lps22hh\lps22hh.c ****  * @param  pObj the device pObj
 881:D:/fchai/work/i-cube/I-CUBE-HUAWEI/Drivers/BSP/Components/lps22hh\lps22hh.c ****  * @param  Mode the FIFO mode to be set
 882:D:/fchai/work/i-cube/I-CUBE-HUAWEI/Drivers/BSP/Components/lps22hh\lps22hh.c ****  * @retval 0 in case of success, an error code otherwise
 883:D:/fchai/work/i-cube/I-CUBE-HUAWEI/Drivers/BSP/Components/lps22hh\lps22hh.c ****  */
 884:D:/fchai/work/i-cube/I-CUBE-HUAWEI/Drivers/BSP/Components/lps22hh\lps22hh.c **** int32_t LPS22HH_FIFO_Set_Mode(LPS22HH_Object_t *pObj, uint8_t Mode)
 885:D:/fchai/work/i-cube/I-CUBE-HUAWEI/Drivers/BSP/Components/lps22hh\lps22hh.c **** {
 886:D:/fchai/work/i-cube/I-CUBE-HUAWEI/Drivers/BSP/Components/lps22hh\lps22hh.c ****   /* Verify that the passed parameter contains one of the valid values */
 887:D:/fchai/work/i-cube/I-CUBE-HUAWEI/Drivers/BSP/Components/lps22hh\lps22hh.c ****   switch ((lps22hh_f_mode_t)Mode)
ARM GAS  T:\msys\tmp\cc7XUJLO.s 			page 18


 888:D:/fchai/work/i-cube/I-CUBE-HUAWEI/Drivers/BSP/Components/lps22hh\lps22hh.c ****   {
 889:D:/fchai/work/i-cube/I-CUBE-HUAWEI/Drivers/BSP/Components/lps22hh\lps22hh.c ****     case LPS22HH_BYPASS_MODE:
 890:D:/fchai/work/i-cube/I-CUBE-HUAWEI/Drivers/BSP/Components/lps22hh\lps22hh.c ****     case LPS22HH_FIFO_MODE:
 891:D:/fchai/work/i-cube/I-CUBE-HUAWEI/Drivers/BSP/Components/lps22hh\lps22hh.c ****     case LPS22HH_STREAM_MODE:
 892:D:/fchai/work/i-cube/I-CUBE-HUAWEI/Drivers/BSP/Components/lps22hh\lps22hh.c ****     case LPS22HH_STREAM_TO_FIFO_MODE:
 893:D:/fchai/work/i-cube/I-CUBE-HUAWEI/Drivers/BSP/Components/lps22hh\lps22hh.c ****     case LPS22HH_BYPASS_TO_STREAM_MODE:
 894:D:/fchai/work/i-cube/I-CUBE-HUAWEI/Drivers/BSP/Components/lps22hh\lps22hh.c ****     case LPS22HH_BYPASS_TO_FIFO_MODE:
 895:D:/fchai/work/i-cube/I-CUBE-HUAWEI/Drivers/BSP/Components/lps22hh\lps22hh.c ****       break;
 896:D:/fchai/work/i-cube/I-CUBE-HUAWEI/Drivers/BSP/Components/lps22hh\lps22hh.c ****     default:
 897:D:/fchai/work/i-cube/I-CUBE-HUAWEI/Drivers/BSP/Components/lps22hh\lps22hh.c ****       return LPS22HH_ERROR;
 898:D:/fchai/work/i-cube/I-CUBE-HUAWEI/Drivers/BSP/Components/lps22hh\lps22hh.c ****   }
 899:D:/fchai/work/i-cube/I-CUBE-HUAWEI/Drivers/BSP/Components/lps22hh\lps22hh.c **** 
 900:D:/fchai/work/i-cube/I-CUBE-HUAWEI/Drivers/BSP/Components/lps22hh\lps22hh.c ****   if (lps22hh_fifo_mode_set(&(pObj->Ctx), (lps22hh_f_mode_t)Mode) != LPS22HH_OK)
 901:D:/fchai/work/i-cube/I-CUBE-HUAWEI/Drivers/BSP/Components/lps22hh\lps22hh.c ****   {
 902:D:/fchai/work/i-cube/I-CUBE-HUAWEI/Drivers/BSP/Components/lps22hh\lps22hh.c ****     return LPS22HH_ERROR;
 903:D:/fchai/work/i-cube/I-CUBE-HUAWEI/Drivers/BSP/Components/lps22hh\lps22hh.c ****   }
 904:D:/fchai/work/i-cube/I-CUBE-HUAWEI/Drivers/BSP/Components/lps22hh\lps22hh.c **** 
 905:D:/fchai/work/i-cube/I-CUBE-HUAWEI/Drivers/BSP/Components/lps22hh\lps22hh.c ****   return LPS22HH_OK;
 906:D:/fchai/work/i-cube/I-CUBE-HUAWEI/Drivers/BSP/Components/lps22hh\lps22hh.c **** }
 907:D:/fchai/work/i-cube/I-CUBE-HUAWEI/Drivers/BSP/Components/lps22hh\lps22hh.c **** 
 908:D:/fchai/work/i-cube/I-CUBE-HUAWEI/Drivers/BSP/Components/lps22hh\lps22hh.c **** /**
 909:D:/fchai/work/i-cube/I-CUBE-HUAWEI/Drivers/BSP/Components/lps22hh\lps22hh.c ****  * @brief  Set the LPS22HH FIFO data level
 910:D:/fchai/work/i-cube/I-CUBE-HUAWEI/Drivers/BSP/Components/lps22hh\lps22hh.c ****  * @param  pObj the device pObj
 911:D:/fchai/work/i-cube/I-CUBE-HUAWEI/Drivers/BSP/Components/lps22hh\lps22hh.c ****  * @param  Status the status of data ready bit
 912:D:/fchai/work/i-cube/I-CUBE-HUAWEI/Drivers/BSP/Components/lps22hh\lps22hh.c ****  * @retval 0 in case of success, an error code otherwise
 913:D:/fchai/work/i-cube/I-CUBE-HUAWEI/Drivers/BSP/Components/lps22hh\lps22hh.c ****  */
 914:D:/fchai/work/i-cube/I-CUBE-HUAWEI/Drivers/BSP/Components/lps22hh\lps22hh.c **** int32_t LPS22HH_FIFO_Set_Watermark_Level(LPS22HH_Object_t *pObj, uint8_t Watermark)
 915:D:/fchai/work/i-cube/I-CUBE-HUAWEI/Drivers/BSP/Components/lps22hh\lps22hh.c **** {
 916:D:/fchai/work/i-cube/I-CUBE-HUAWEI/Drivers/BSP/Components/lps22hh\lps22hh.c ****   if (lps22hh_fifo_watermark_set(&(pObj->Ctx), Watermark) != LPS22HH_OK)
 917:D:/fchai/work/i-cube/I-CUBE-HUAWEI/Drivers/BSP/Components/lps22hh\lps22hh.c ****   {
 918:D:/fchai/work/i-cube/I-CUBE-HUAWEI/Drivers/BSP/Components/lps22hh\lps22hh.c ****     return LPS22HH_ERROR;
 919:D:/fchai/work/i-cube/I-CUBE-HUAWEI/Drivers/BSP/Components/lps22hh\lps22hh.c ****   }
 920:D:/fchai/work/i-cube/I-CUBE-HUAWEI/Drivers/BSP/Components/lps22hh\lps22hh.c **** 
 921:D:/fchai/work/i-cube/I-CUBE-HUAWEI/Drivers/BSP/Components/lps22hh\lps22hh.c ****   return LPS22HH_OK;
 922:D:/fchai/work/i-cube/I-CUBE-HUAWEI/Drivers/BSP/Components/lps22hh\lps22hh.c **** }
 923:D:/fchai/work/i-cube/I-CUBE-HUAWEI/Drivers/BSP/Components/lps22hh\lps22hh.c **** 
 924:D:/fchai/work/i-cube/I-CUBE-HUAWEI/Drivers/BSP/Components/lps22hh\lps22hh.c **** /**
 925:D:/fchai/work/i-cube/I-CUBE-HUAWEI/Drivers/BSP/Components/lps22hh\lps22hh.c ****  * @brief  Set the LPS22HH stop on watermark function
 926:D:/fchai/work/i-cube/I-CUBE-HUAWEI/Drivers/BSP/Components/lps22hh\lps22hh.c ****  * @param  pObj the device pObj
 927:D:/fchai/work/i-cube/I-CUBE-HUAWEI/Drivers/BSP/Components/lps22hh\lps22hh.c ****  * @param  Stop the state of stop on watermark function
 928:D:/fchai/work/i-cube/I-CUBE-HUAWEI/Drivers/BSP/Components/lps22hh\lps22hh.c ****  * @retval 0 in case of success, an error code otherwise
 929:D:/fchai/work/i-cube/I-CUBE-HUAWEI/Drivers/BSP/Components/lps22hh\lps22hh.c ****  */
 930:D:/fchai/work/i-cube/I-CUBE-HUAWEI/Drivers/BSP/Components/lps22hh\lps22hh.c **** int32_t LPS22HH_FIFO_Stop_On_Watermark(LPS22HH_Object_t *pObj, uint8_t Stop)
 931:D:/fchai/work/i-cube/I-CUBE-HUAWEI/Drivers/BSP/Components/lps22hh\lps22hh.c **** {
 932:D:/fchai/work/i-cube/I-CUBE-HUAWEI/Drivers/BSP/Components/lps22hh\lps22hh.c ****   if (lps22hh_fifo_stop_on_wtm_set(&(pObj->Ctx), Stop) != LPS22HH_OK)
 933:D:/fchai/work/i-cube/I-CUBE-HUAWEI/Drivers/BSP/Components/lps22hh\lps22hh.c ****   {
 934:D:/fchai/work/i-cube/I-CUBE-HUAWEI/Drivers/BSP/Components/lps22hh\lps22hh.c ****     return LPS22HH_ERROR;
 935:D:/fchai/work/i-cube/I-CUBE-HUAWEI/Drivers/BSP/Components/lps22hh\lps22hh.c ****   }
 936:D:/fchai/work/i-cube/I-CUBE-HUAWEI/Drivers/BSP/Components/lps22hh\lps22hh.c **** 
 937:D:/fchai/work/i-cube/I-CUBE-HUAWEI/Drivers/BSP/Components/lps22hh\lps22hh.c ****   return LPS22HH_OK;
 938:D:/fchai/work/i-cube/I-CUBE-HUAWEI/Drivers/BSP/Components/lps22hh\lps22hh.c **** }
 939:D:/fchai/work/i-cube/I-CUBE-HUAWEI/Drivers/BSP/Components/lps22hh\lps22hh.c **** 
 940:D:/fchai/work/i-cube/I-CUBE-HUAWEI/Drivers/BSP/Components/lps22hh\lps22hh.c **** /**
 941:D:/fchai/work/i-cube/I-CUBE-HUAWEI/Drivers/BSP/Components/lps22hh\lps22hh.c ****  * @brief  Set the LPS22HH One Shot Mode
 942:D:/fchai/work/i-cube/I-CUBE-HUAWEI/Drivers/BSP/Components/lps22hh\lps22hh.c ****  * @param  pObj the device pObj
 943:D:/fchai/work/i-cube/I-CUBE-HUAWEI/Drivers/BSP/Components/lps22hh\lps22hh.c ****  * @retval 0 in case of success, an error code otherwise
 944:D:/fchai/work/i-cube/I-CUBE-HUAWEI/Drivers/BSP/Components/lps22hh\lps22hh.c ****  */
ARM GAS  T:\msys\tmp\cc7XUJLO.s 			page 19


 945:D:/fchai/work/i-cube/I-CUBE-HUAWEI/Drivers/BSP/Components/lps22hh\lps22hh.c **** int32_t LPS22HH_Set_One_Shot(LPS22HH_Object_t *pObj)
 946:D:/fchai/work/i-cube/I-CUBE-HUAWEI/Drivers/BSP/Components/lps22hh\lps22hh.c **** {
 947:D:/fchai/work/i-cube/I-CUBE-HUAWEI/Drivers/BSP/Components/lps22hh\lps22hh.c ****   /* Start One Shot Measurement */
 948:D:/fchai/work/i-cube/I-CUBE-HUAWEI/Drivers/BSP/Components/lps22hh\lps22hh.c ****   if(lps22hh_data_rate_set(&(pObj->Ctx), LPS22HH_ONE_SHOOT) != LPS22HH_OK)
 949:D:/fchai/work/i-cube/I-CUBE-HUAWEI/Drivers/BSP/Components/lps22hh\lps22hh.c ****   {
 950:D:/fchai/work/i-cube/I-CUBE-HUAWEI/Drivers/BSP/Components/lps22hh\lps22hh.c ****     return LPS22HH_ERROR;
 951:D:/fchai/work/i-cube/I-CUBE-HUAWEI/Drivers/BSP/Components/lps22hh\lps22hh.c ****   }
 952:D:/fchai/work/i-cube/I-CUBE-HUAWEI/Drivers/BSP/Components/lps22hh\lps22hh.c **** 
 953:D:/fchai/work/i-cube/I-CUBE-HUAWEI/Drivers/BSP/Components/lps22hh\lps22hh.c ****   return LPS22HH_OK;
 954:D:/fchai/work/i-cube/I-CUBE-HUAWEI/Drivers/BSP/Components/lps22hh\lps22hh.c **** }
 955:D:/fchai/work/i-cube/I-CUBE-HUAWEI/Drivers/BSP/Components/lps22hh\lps22hh.c **** 
 956:D:/fchai/work/i-cube/I-CUBE-HUAWEI/Drivers/BSP/Components/lps22hh\lps22hh.c **** /**
 957:D:/fchai/work/i-cube/I-CUBE-HUAWEI/Drivers/BSP/Components/lps22hh\lps22hh.c ****  * @brief  Get the LPS22HH One Shot Status
 958:D:/fchai/work/i-cube/I-CUBE-HUAWEI/Drivers/BSP/Components/lps22hh\lps22hh.c ****  * @param  pObj the device pObj
 959:D:/fchai/work/i-cube/I-CUBE-HUAWEI/Drivers/BSP/Components/lps22hh\lps22hh.c ****  * @param  Status pointer to the one shot status (1 means measurements available, 0 means measureme
 960:D:/fchai/work/i-cube/I-CUBE-HUAWEI/Drivers/BSP/Components/lps22hh\lps22hh.c ****  * @retval 0 in case of success, an error code otherwise
 961:D:/fchai/work/i-cube/I-CUBE-HUAWEI/Drivers/BSP/Components/lps22hh\lps22hh.c ****  */
 962:D:/fchai/work/i-cube/I-CUBE-HUAWEI/Drivers/BSP/Components/lps22hh\lps22hh.c **** int32_t LPS22HH_Get_One_Shot_Status(LPS22HH_Object_t *pObj, uint8_t *Status)
 963:D:/fchai/work/i-cube/I-CUBE-HUAWEI/Drivers/BSP/Components/lps22hh\lps22hh.c **** {
 964:D:/fchai/work/i-cube/I-CUBE-HUAWEI/Drivers/BSP/Components/lps22hh\lps22hh.c ****   uint8_t p_da;
 965:D:/fchai/work/i-cube/I-CUBE-HUAWEI/Drivers/BSP/Components/lps22hh\lps22hh.c ****   uint8_t t_da;
 966:D:/fchai/work/i-cube/I-CUBE-HUAWEI/Drivers/BSP/Components/lps22hh\lps22hh.c **** 
 967:D:/fchai/work/i-cube/I-CUBE-HUAWEI/Drivers/BSP/Components/lps22hh\lps22hh.c ****   /* Get DataReady for pressure */
 968:D:/fchai/work/i-cube/I-CUBE-HUAWEI/Drivers/BSP/Components/lps22hh\lps22hh.c ****   if(lps22hh_press_flag_data_ready_get(&(pObj->Ctx), &p_da) != LPS22HH_OK)
 969:D:/fchai/work/i-cube/I-CUBE-HUAWEI/Drivers/BSP/Components/lps22hh\lps22hh.c ****   {
 970:D:/fchai/work/i-cube/I-CUBE-HUAWEI/Drivers/BSP/Components/lps22hh\lps22hh.c ****     return LPS22HH_ERROR;
 971:D:/fchai/work/i-cube/I-CUBE-HUAWEI/Drivers/BSP/Components/lps22hh\lps22hh.c ****   }
 972:D:/fchai/work/i-cube/I-CUBE-HUAWEI/Drivers/BSP/Components/lps22hh\lps22hh.c **** 
 973:D:/fchai/work/i-cube/I-CUBE-HUAWEI/Drivers/BSP/Components/lps22hh\lps22hh.c ****   /* Get DataReady for temperature */
 974:D:/fchai/work/i-cube/I-CUBE-HUAWEI/Drivers/BSP/Components/lps22hh\lps22hh.c ****   if(lps22hh_temp_flag_data_ready_get(&(pObj->Ctx), &t_da) != LPS22HH_OK)
 975:D:/fchai/work/i-cube/I-CUBE-HUAWEI/Drivers/BSP/Components/lps22hh\lps22hh.c ****   {
 976:D:/fchai/work/i-cube/I-CUBE-HUAWEI/Drivers/BSP/Components/lps22hh\lps22hh.c ****     return LPS22HH_ERROR;
 977:D:/fchai/work/i-cube/I-CUBE-HUAWEI/Drivers/BSP/Components/lps22hh\lps22hh.c ****   }
 978:D:/fchai/work/i-cube/I-CUBE-HUAWEI/Drivers/BSP/Components/lps22hh\lps22hh.c **** 
 979:D:/fchai/work/i-cube/I-CUBE-HUAWEI/Drivers/BSP/Components/lps22hh\lps22hh.c ****   if(p_da && t_da)
 980:D:/fchai/work/i-cube/I-CUBE-HUAWEI/Drivers/BSP/Components/lps22hh\lps22hh.c ****   {
 981:D:/fchai/work/i-cube/I-CUBE-HUAWEI/Drivers/BSP/Components/lps22hh\lps22hh.c ****     *Status = 1;
 982:D:/fchai/work/i-cube/I-CUBE-HUAWEI/Drivers/BSP/Components/lps22hh\lps22hh.c ****   }
 983:D:/fchai/work/i-cube/I-CUBE-HUAWEI/Drivers/BSP/Components/lps22hh\lps22hh.c ****   else
 984:D:/fchai/work/i-cube/I-CUBE-HUAWEI/Drivers/BSP/Components/lps22hh\lps22hh.c ****   {
 985:D:/fchai/work/i-cube/I-CUBE-HUAWEI/Drivers/BSP/Components/lps22hh\lps22hh.c ****     *Status = 0;
 986:D:/fchai/work/i-cube/I-CUBE-HUAWEI/Drivers/BSP/Components/lps22hh\lps22hh.c ****   }
 987:D:/fchai/work/i-cube/I-CUBE-HUAWEI/Drivers/BSP/Components/lps22hh\lps22hh.c **** 
 988:D:/fchai/work/i-cube/I-CUBE-HUAWEI/Drivers/BSP/Components/lps22hh\lps22hh.c ****   return LPS22HH_OK;
 989:D:/fchai/work/i-cube/I-CUBE-HUAWEI/Drivers/BSP/Components/lps22hh\lps22hh.c **** }
 990:D:/fchai/work/i-cube/I-CUBE-HUAWEI/Drivers/BSP/Components/lps22hh\lps22hh.c **** 
 991:D:/fchai/work/i-cube/I-CUBE-HUAWEI/Drivers/BSP/Components/lps22hh\lps22hh.c **** /**
 992:D:/fchai/work/i-cube/I-CUBE-HUAWEI/Drivers/BSP/Components/lps22hh\lps22hh.c ****  * @brief  Enable LPS22HH DRDY interrupt mode
 993:D:/fchai/work/i-cube/I-CUBE-HUAWEI/Drivers/BSP/Components/lps22hh\lps22hh.c ****  * @param  pObj the device pObj
 994:D:/fchai/work/i-cube/I-CUBE-HUAWEI/Drivers/BSP/Components/lps22hh\lps22hh.c ****  * @retval 0 in case of success, an error code otherwise
 995:D:/fchai/work/i-cube/I-CUBE-HUAWEI/Drivers/BSP/Components/lps22hh\lps22hh.c ****  */
 996:D:/fchai/work/i-cube/I-CUBE-HUAWEI/Drivers/BSP/Components/lps22hh\lps22hh.c **** int32_t LPS22HH_Enable_DRDY_Interrupt(LPS22HH_Object_t *pObj)
 997:D:/fchai/work/i-cube/I-CUBE-HUAWEI/Drivers/BSP/Components/lps22hh\lps22hh.c **** {
 998:D:/fchai/work/i-cube/I-CUBE-HUAWEI/Drivers/BSP/Components/lps22hh\lps22hh.c ****   lps22hh_ctrl_reg3_t ctrl1_reg3;
 999:D:/fchai/work/i-cube/I-CUBE-HUAWEI/Drivers/BSP/Components/lps22hh\lps22hh.c **** 
1000:D:/fchai/work/i-cube/I-CUBE-HUAWEI/Drivers/BSP/Components/lps22hh\lps22hh.c ****   /* Enable Interrupt DRDY on INT1 */
1001:D:/fchai/work/i-cube/I-CUBE-HUAWEI/Drivers/BSP/Components/lps22hh\lps22hh.c ****   if(lps22hh_pin_int_route_get(&(pObj->Ctx), &ctrl1_reg3) != LPS22HH_OK)
ARM GAS  T:\msys\tmp\cc7XUJLO.s 			page 20


1002:D:/fchai/work/i-cube/I-CUBE-HUAWEI/Drivers/BSP/Components/lps22hh\lps22hh.c ****   {
1003:D:/fchai/work/i-cube/I-CUBE-HUAWEI/Drivers/BSP/Components/lps22hh\lps22hh.c ****     return LPS22HH_ERROR;
1004:D:/fchai/work/i-cube/I-CUBE-HUAWEI/Drivers/BSP/Components/lps22hh\lps22hh.c ****   }
1005:D:/fchai/work/i-cube/I-CUBE-HUAWEI/Drivers/BSP/Components/lps22hh\lps22hh.c ****   ctrl1_reg3.drdy = 1;
1006:D:/fchai/work/i-cube/I-CUBE-HUAWEI/Drivers/BSP/Components/lps22hh\lps22hh.c ****   if(lps22hh_pin_int_route_set(&(pObj->Ctx), &ctrl1_reg3) != LPS22HH_OK)
1007:D:/fchai/work/i-cube/I-CUBE-HUAWEI/Drivers/BSP/Components/lps22hh\lps22hh.c ****   {
1008:D:/fchai/work/i-cube/I-CUBE-HUAWEI/Drivers/BSP/Components/lps22hh\lps22hh.c ****     return LPS22HH_ERROR;
1009:D:/fchai/work/i-cube/I-CUBE-HUAWEI/Drivers/BSP/Components/lps22hh\lps22hh.c ****   }
1010:D:/fchai/work/i-cube/I-CUBE-HUAWEI/Drivers/BSP/Components/lps22hh\lps22hh.c **** 
1011:D:/fchai/work/i-cube/I-CUBE-HUAWEI/Drivers/BSP/Components/lps22hh\lps22hh.c ****   return LPS22HH_OK;
1012:D:/fchai/work/i-cube/I-CUBE-HUAWEI/Drivers/BSP/Components/lps22hh\lps22hh.c **** }
1013:D:/fchai/work/i-cube/I-CUBE-HUAWEI/Drivers/BSP/Components/lps22hh\lps22hh.c **** 
1014:D:/fchai/work/i-cube/I-CUBE-HUAWEI/Drivers/BSP/Components/lps22hh\lps22hh.c **** /**
1015:D:/fchai/work/i-cube/I-CUBE-HUAWEI/Drivers/BSP/Components/lps22hh\lps22hh.c ****  * @brief  Set the LPS22HH power mode
1016:D:/fchai/work/i-cube/I-CUBE-HUAWEI/Drivers/BSP/Components/lps22hh\lps22hh.c ****  * @param  pObj the device pObj
1017:D:/fchai/work/i-cube/I-CUBE-HUAWEI/Drivers/BSP/Components/lps22hh\lps22hh.c ****  * @param  powerMode mode to be set
1018:D:/fchai/work/i-cube/I-CUBE-HUAWEI/Drivers/BSP/Components/lps22hh\lps22hh.c ****  * @retval 0 in case of success, an error code otherwise
1019:D:/fchai/work/i-cube/I-CUBE-HUAWEI/Drivers/BSP/Components/lps22hh\lps22hh.c ****  */
1020:D:/fchai/work/i-cube/I-CUBE-HUAWEI/Drivers/BSP/Components/lps22hh\lps22hh.c **** int32_t LPS22HH_Set_Power_Mode(LPS22HH_Object_t *pObj, uint8_t powerMode)
1021:D:/fchai/work/i-cube/I-CUBE-HUAWEI/Drivers/BSP/Components/lps22hh\lps22hh.c **** {
1022:D:/fchai/work/i-cube/I-CUBE-HUAWEI/Drivers/BSP/Components/lps22hh\lps22hh.c ****   lps22hh_ctrl_reg2_t ctrl_reg2;
1023:D:/fchai/work/i-cube/I-CUBE-HUAWEI/Drivers/BSP/Components/lps22hh\lps22hh.c **** 
1024:D:/fchai/work/i-cube/I-CUBE-HUAWEI/Drivers/BSP/Components/lps22hh\lps22hh.c ****   if(lps22hh_read_reg(&(pObj->Ctx), LPS22HH_CTRL_REG2, (uint8_t*)&ctrl_reg2, 1) != LPS22HH_OK)
1025:D:/fchai/work/i-cube/I-CUBE-HUAWEI/Drivers/BSP/Components/lps22hh\lps22hh.c ****   {
1026:D:/fchai/work/i-cube/I-CUBE-HUAWEI/Drivers/BSP/Components/lps22hh\lps22hh.c ****     return LPS22HH_ERROR;
1027:D:/fchai/work/i-cube/I-CUBE-HUAWEI/Drivers/BSP/Components/lps22hh\lps22hh.c ****   }
1028:D:/fchai/work/i-cube/I-CUBE-HUAWEI/Drivers/BSP/Components/lps22hh\lps22hh.c **** 
1029:D:/fchai/work/i-cube/I-CUBE-HUAWEI/Drivers/BSP/Components/lps22hh\lps22hh.c ****   if(powerMode == 1)
1030:D:/fchai/work/i-cube/I-CUBE-HUAWEI/Drivers/BSP/Components/lps22hh\lps22hh.c ****   {
1031:D:/fchai/work/i-cube/I-CUBE-HUAWEI/Drivers/BSP/Components/lps22hh\lps22hh.c ****     ctrl_reg2.low_noise_en = LPS22HH_LOW_NOISE_EN;
1032:D:/fchai/work/i-cube/I-CUBE-HUAWEI/Drivers/BSP/Components/lps22hh\lps22hh.c ****   }
1033:D:/fchai/work/i-cube/I-CUBE-HUAWEI/Drivers/BSP/Components/lps22hh\lps22hh.c ****   else
1034:D:/fchai/work/i-cube/I-CUBE-HUAWEI/Drivers/BSP/Components/lps22hh\lps22hh.c ****   {
1035:D:/fchai/work/i-cube/I-CUBE-HUAWEI/Drivers/BSP/Components/lps22hh\lps22hh.c ****     ctrl_reg2.low_noise_en = LPS22HH_LOW_NOISE_DIS;
1036:D:/fchai/work/i-cube/I-CUBE-HUAWEI/Drivers/BSP/Components/lps22hh\lps22hh.c ****   }
1037:D:/fchai/work/i-cube/I-CUBE-HUAWEI/Drivers/BSP/Components/lps22hh\lps22hh.c **** 
1038:D:/fchai/work/i-cube/I-CUBE-HUAWEI/Drivers/BSP/Components/lps22hh\lps22hh.c ****   if(lps22hh_write_reg(&(pObj->Ctx), LPS22HH_CTRL_REG2, (uint8_t*)&ctrl_reg2, 1) != LPS22HH_OK)
1039:D:/fchai/work/i-cube/I-CUBE-HUAWEI/Drivers/BSP/Components/lps22hh\lps22hh.c ****   {
1040:D:/fchai/work/i-cube/I-CUBE-HUAWEI/Drivers/BSP/Components/lps22hh\lps22hh.c ****     return LPS22HH_ERROR;
1041:D:/fchai/work/i-cube/I-CUBE-HUAWEI/Drivers/BSP/Components/lps22hh\lps22hh.c ****   }
1042:D:/fchai/work/i-cube/I-CUBE-HUAWEI/Drivers/BSP/Components/lps22hh\lps22hh.c **** 
1043:D:/fchai/work/i-cube/I-CUBE-HUAWEI/Drivers/BSP/Components/lps22hh\lps22hh.c ****   return LPS22HH_OK;
1044:D:/fchai/work/i-cube/I-CUBE-HUAWEI/Drivers/BSP/Components/lps22hh\lps22hh.c **** }
1045:D:/fchai/work/i-cube/I-CUBE-HUAWEI/Drivers/BSP/Components/lps22hh\lps22hh.c **** 
1046:D:/fchai/work/i-cube/I-CUBE-HUAWEI/Drivers/BSP/Components/lps22hh\lps22hh.c **** /**
1047:D:/fchai/work/i-cube/I-CUBE-HUAWEI/Drivers/BSP/Components/lps22hh\lps22hh.c ****  * @brief  Set the LPS22HH filter mode
1048:D:/fchai/work/i-cube/I-CUBE-HUAWEI/Drivers/BSP/Components/lps22hh\lps22hh.c ****  * @param  pObj the device pObj
1049:D:/fchai/work/i-cube/I-CUBE-HUAWEI/Drivers/BSP/Components/lps22hh\lps22hh.c ****  * @param  filterMode to be set
1050:D:/fchai/work/i-cube/I-CUBE-HUAWEI/Drivers/BSP/Components/lps22hh\lps22hh.c ****  * @retval 0 in case of success, an error code otherwise
1051:D:/fchai/work/i-cube/I-CUBE-HUAWEI/Drivers/BSP/Components/lps22hh\lps22hh.c ****  */
1052:D:/fchai/work/i-cube/I-CUBE-HUAWEI/Drivers/BSP/Components/lps22hh\lps22hh.c **** int32_t LPS22HH_Set_Filter_Mode(LPS22HH_Object_t *pObj, uint8_t filterMode)
1053:D:/fchai/work/i-cube/I-CUBE-HUAWEI/Drivers/BSP/Components/lps22hh\lps22hh.c **** {
1054:D:/fchai/work/i-cube/I-CUBE-HUAWEI/Drivers/BSP/Components/lps22hh\lps22hh.c ****   if(lps22hh_lp_bandwidth_set(&(pObj->Ctx), (lps22hh_lpfp_cfg_t)filterMode) != LPS22HH_OK)
1055:D:/fchai/work/i-cube/I-CUBE-HUAWEI/Drivers/BSP/Components/lps22hh\lps22hh.c ****   {
1056:D:/fchai/work/i-cube/I-CUBE-HUAWEI/Drivers/BSP/Components/lps22hh\lps22hh.c ****     return LPS22HH_ERROR;
1057:D:/fchai/work/i-cube/I-CUBE-HUAWEI/Drivers/BSP/Components/lps22hh\lps22hh.c ****   }
1058:D:/fchai/work/i-cube/I-CUBE-HUAWEI/Drivers/BSP/Components/lps22hh\lps22hh.c ****   return LPS22HH_OK;
ARM GAS  T:\msys\tmp\cc7XUJLO.s 			page 21


1059:D:/fchai/work/i-cube/I-CUBE-HUAWEI/Drivers/BSP/Components/lps22hh\lps22hh.c **** }
1060:D:/fchai/work/i-cube/I-CUBE-HUAWEI/Drivers/BSP/Components/lps22hh\lps22hh.c **** 
1061:D:/fchai/work/i-cube/I-CUBE-HUAWEI/Drivers/BSP/Components/lps22hh\lps22hh.c **** /**
1062:D:/fchai/work/i-cube/I-CUBE-HUAWEI/Drivers/BSP/Components/lps22hh\lps22hh.c ****  * @brief  Wrap Read register component function to Bus IO function
1063:D:/fchai/work/i-cube/I-CUBE-HUAWEI/Drivers/BSP/Components/lps22hh\lps22hh.c ****  * @param  Handle the device handler
1064:D:/fchai/work/i-cube/I-CUBE-HUAWEI/Drivers/BSP/Components/lps22hh\lps22hh.c ****  * @param  Reg the register address
1065:D:/fchai/work/i-cube/I-CUBE-HUAWEI/Drivers/BSP/Components/lps22hh\lps22hh.c ****  * @param  pData the stored data pointer
1066:D:/fchai/work/i-cube/I-CUBE-HUAWEI/Drivers/BSP/Components/lps22hh\lps22hh.c ****  * @param  Length the length
1067:D:/fchai/work/i-cube/I-CUBE-HUAWEI/Drivers/BSP/Components/lps22hh\lps22hh.c ****  * @retval 0 in case of success, an error code otherwise
1068:D:/fchai/work/i-cube/I-CUBE-HUAWEI/Drivers/BSP/Components/lps22hh\lps22hh.c ****  */
1069:D:/fchai/work/i-cube/I-CUBE-HUAWEI/Drivers/BSP/Components/lps22hh\lps22hh.c **** static int32_t ReadRegWrap(void *Handle, uint8_t Reg, uint8_t *pData, uint16_t Length)
1070:D:/fchai/work/i-cube/I-CUBE-HUAWEI/Drivers/BSP/Components/lps22hh\lps22hh.c **** {
  81              		.loc 1 1070 1 is_stmt 1 view -0
  82              		.cfi_startproc
  83              		@ args = 0, pretend = 0, frame = 0
  84              		@ frame_needed = 0, uses_anonymous_args = 0
  85              		@ link register save eliminated.
1071:D:/fchai/work/i-cube/I-CUBE-HUAWEI/Drivers/BSP/Components/lps22hh\lps22hh.c ****   LPS22HH_Object_t *pObj = (LPS22HH_Object_t *)Handle;
  86              		.loc 1 1071 3 view .LVU19
1072:D:/fchai/work/i-cube/I-CUBE-HUAWEI/Drivers/BSP/Components/lps22hh\lps22hh.c **** 
1073:D:/fchai/work/i-cube/I-CUBE-HUAWEI/Drivers/BSP/Components/lps22hh\lps22hh.c ****   return pObj->IO.ReadReg(pObj->IO.Address, Reg, pData, Length);
  87              		.loc 1 1073 3 view .LVU20
1070:D:/fchai/work/i-cube/I-CUBE-HUAWEI/Drivers/BSP/Components/lps22hh\lps22hh.c ****   LPS22HH_Object_t *pObj = (LPS22HH_Object_t *)Handle;
  88              		.loc 1 1070 1 is_stmt 0 view .LVU21
  89 0000 10B4     		push	{r4}
  90              	.LCFI0:
  91              		.cfi_def_cfa_offset 4
  92              		.cfi_offset 4, -4
  93              		.loc 1 1073 10 view .LVU22
  94 0002 4469     		ldr	r4, [r0, #20]
  95 0004 007B     		ldrb	r0, [r0, #12]	@ zero_extendqisi2
  96              	.LVL3:
  97              		.loc 1 1073 10 view .LVU23
  98 0006 A446     		mov	ip, r4
1074:D:/fchai/work/i-cube/I-CUBE-HUAWEI/Drivers/BSP/Components/lps22hh\lps22hh.c **** }
  99              		.loc 1 1074 1 view .LVU24
 100 0008 5DF8044B 		ldr	r4, [sp], #4
 101              	.LCFI1:
 102              		.cfi_restore 4
 103              		.cfi_def_cfa_offset 0
1073:D:/fchai/work/i-cube/I-CUBE-HUAWEI/Drivers/BSP/Components/lps22hh\lps22hh.c **** }
 104              		.loc 1 1073 10 view .LVU25
 105 000c 6047     		bx	ip
 106              	.LVL4:
1073:D:/fchai/work/i-cube/I-CUBE-HUAWEI/Drivers/BSP/Components/lps22hh\lps22hh.c **** }
 107              		.loc 1 1073 10 view .LVU26
 108              		.cfi_endproc
 109              	.LFE40:
 111 000e 00BF     		.section	.text.WriteRegWrap,"ax",%progbits
 112              		.align	1
 113              		.p2align 2,,3
 114              		.syntax unified
 115              		.thumb
 116              		.thumb_func
 117              		.fpu fpv4-sp-d16
 119              	WriteRegWrap:
 120              	.LVL5:
ARM GAS  T:\msys\tmp\cc7XUJLO.s 			page 22


 121              	.LFB41:
1075:D:/fchai/work/i-cube/I-CUBE-HUAWEI/Drivers/BSP/Components/lps22hh\lps22hh.c **** 
1076:D:/fchai/work/i-cube/I-CUBE-HUAWEI/Drivers/BSP/Components/lps22hh\lps22hh.c **** /**
1077:D:/fchai/work/i-cube/I-CUBE-HUAWEI/Drivers/BSP/Components/lps22hh\lps22hh.c ****  * @brief  Wrap Write register component function to Bus IO function
1078:D:/fchai/work/i-cube/I-CUBE-HUAWEI/Drivers/BSP/Components/lps22hh\lps22hh.c ****  * @param  Handle the device handler
1079:D:/fchai/work/i-cube/I-CUBE-HUAWEI/Drivers/BSP/Components/lps22hh\lps22hh.c ****  * @param  Reg the register address
1080:D:/fchai/work/i-cube/I-CUBE-HUAWEI/Drivers/BSP/Components/lps22hh\lps22hh.c ****  * @param  pData the stored data pointer
1081:D:/fchai/work/i-cube/I-CUBE-HUAWEI/Drivers/BSP/Components/lps22hh\lps22hh.c ****  * @param  Length the length
1082:D:/fchai/work/i-cube/I-CUBE-HUAWEI/Drivers/BSP/Components/lps22hh\lps22hh.c ****  * @retval 0 in case of success, an error code otherwise
1083:D:/fchai/work/i-cube/I-CUBE-HUAWEI/Drivers/BSP/Components/lps22hh\lps22hh.c ****  */
1084:D:/fchai/work/i-cube/I-CUBE-HUAWEI/Drivers/BSP/Components/lps22hh\lps22hh.c **** static int32_t WriteRegWrap(void *Handle, uint8_t Reg, uint8_t *pData, uint16_t Length)
1085:D:/fchai/work/i-cube/I-CUBE-HUAWEI/Drivers/BSP/Components/lps22hh\lps22hh.c **** {
 122              		.loc 1 1085 1 is_stmt 1 view -0
 123              		.cfi_startproc
 124              		@ args = 0, pretend = 0, frame = 0
 125              		@ frame_needed = 0, uses_anonymous_args = 0
 126              		@ link register save eliminated.
1086:D:/fchai/work/i-cube/I-CUBE-HUAWEI/Drivers/BSP/Components/lps22hh\lps22hh.c ****   LPS22HH_Object_t *pObj = (LPS22HH_Object_t *)Handle;
 127              		.loc 1 1086 3 view .LVU28
1087:D:/fchai/work/i-cube/I-CUBE-HUAWEI/Drivers/BSP/Components/lps22hh\lps22hh.c **** 
1088:D:/fchai/work/i-cube/I-CUBE-HUAWEI/Drivers/BSP/Components/lps22hh\lps22hh.c ****   return pObj->IO.WriteReg(pObj->IO.Address, Reg, pData, Length);
 128              		.loc 1 1088 3 view .LVU29
1085:D:/fchai/work/i-cube/I-CUBE-HUAWEI/Drivers/BSP/Components/lps22hh\lps22hh.c ****   LPS22HH_Object_t *pObj = (LPS22HH_Object_t *)Handle;
 129              		.loc 1 1085 1 is_stmt 0 view .LVU30
 130 0000 10B4     		push	{r4}
 131              	.LCFI2:
 132              		.cfi_def_cfa_offset 4
 133              		.cfi_offset 4, -4
 134              		.loc 1 1088 10 view .LVU31
 135 0002 0469     		ldr	r4, [r0, #16]
 136 0004 007B     		ldrb	r0, [r0, #12]	@ zero_extendqisi2
 137              	.LVL6:
 138              		.loc 1 1088 10 view .LVU32
 139 0006 A446     		mov	ip, r4
1089:D:/fchai/work/i-cube/I-CUBE-HUAWEI/Drivers/BSP/Components/lps22hh\lps22hh.c **** }
 140              		.loc 1 1089 1 view .LVU33
 141 0008 5DF8044B 		ldr	r4, [sp], #4
 142              	.LCFI3:
 143              		.cfi_restore 4
 144              		.cfi_def_cfa_offset 0
1088:D:/fchai/work/i-cube/I-CUBE-HUAWEI/Drivers/BSP/Components/lps22hh\lps22hh.c **** }
 145              		.loc 1 1088 10 view .LVU34
 146 000c 6047     		bx	ip
 147              	.LVL7:
1088:D:/fchai/work/i-cube/I-CUBE-HUAWEI/Drivers/BSP/Components/lps22hh\lps22hh.c **** }
 148              		.loc 1 1088 10 view .LVU35
 149              		.cfi_endproc
 150              	.LFE41:
 152 000e 00BF     		.section	.text.LPS22HH_Init,"ax",%progbits
 153              		.align	1
 154              		.p2align 2,,3
 155              		.global	LPS22HH_Init
 156              		.syntax unified
 157              		.thumb
 158              		.thumb_func
 159              		.fpu fpv4-sp-d16
 161              	LPS22HH_Init:
ARM GAS  T:\msys\tmp\cc7XUJLO.s 			page 23


 162              	.LVL8:
 163              	.LFB1:
 151:D:/fchai/work/i-cube/I-CUBE-HUAWEI/Drivers/BSP/Components/lps22hh\lps22hh.c ****   if (pObj->is_initialized == 0U)
 164              		.loc 1 151 1 is_stmt 1 view -0
 165              		.cfi_startproc
 166              		@ args = 0, pretend = 0, frame = 0
 167              		@ frame_needed = 0, uses_anonymous_args = 0
 152:D:/fchai/work/i-cube/I-CUBE-HUAWEI/Drivers/BSP/Components/lps22hh\lps22hh.c ****   {
 168              		.loc 1 152 3 view .LVU37
 151:D:/fchai/work/i-cube/I-CUBE-HUAWEI/Drivers/BSP/Components/lps22hh\lps22hh.c ****   if (pObj->is_initialized == 0U)
 169              		.loc 1 151 1 is_stmt 0 view .LVU38
 170 0000 38B5     		push	{r3, r4, r5, lr}
 171              	.LCFI4:
 172              		.cfi_def_cfa_offset 16
 173              		.cfi_offset 3, -16
 174              		.cfi_offset 4, -12
 175              		.cfi_offset 5, -8
 176              		.cfi_offset 14, -4
 152:D:/fchai/work/i-cube/I-CUBE-HUAWEI/Drivers/BSP/Components/lps22hh\lps22hh.c ****   {
 177              		.loc 1 152 6 view .LVU39
 178 0002 90F82830 		ldrb	r3, [r0, #40]	@ zero_extendqisi2
 151:D:/fchai/work/i-cube/I-CUBE-HUAWEI/Drivers/BSP/Components/lps22hh\lps22hh.c ****   if (pObj->is_initialized == 0U)
 179              		.loc 1 151 1 view .LVU40
 180 0006 0446     		mov	r4, r0
 152:D:/fchai/work/i-cube/I-CUBE-HUAWEI/Drivers/BSP/Components/lps22hh\lps22hh.c ****   {
 181              		.loc 1 152 6 view .LVU41
 182 0008 23B1     		cbz	r3, .L15
 183              	.LVL9:
 184              	.L10:
 160:D:/fchai/work/i-cube/I-CUBE-HUAWEI/Drivers/BSP/Components/lps22hh\lps22hh.c **** 
 185              		.loc 1 160 3 is_stmt 1 view .LVU42
 160:D:/fchai/work/i-cube/I-CUBE-HUAWEI/Drivers/BSP/Components/lps22hh\lps22hh.c **** 
 186              		.loc 1 160 24 is_stmt 0 view .LVU43
 187 000a 0123     		movs	r3, #1
 188 000c 84F82830 		strb	r3, [r4, #40]
 162:D:/fchai/work/i-cube/I-CUBE-HUAWEI/Drivers/BSP/Components/lps22hh\lps22hh.c **** }
 189              		.loc 1 162 3 is_stmt 1 view .LVU44
 162:D:/fchai/work/i-cube/I-CUBE-HUAWEI/Drivers/BSP/Components/lps22hh\lps22hh.c **** }
 190              		.loc 1 162 10 is_stmt 0 view .LVU45
 191 0010 0020     		movs	r0, #0
 163:D:/fchai/work/i-cube/I-CUBE-HUAWEI/Drivers/BSP/Components/lps22hh\lps22hh.c **** 
 192              		.loc 1 163 1 view .LVU46
 193 0012 38BD     		pop	{r3, r4, r5, pc}
 194              	.LVL10:
 195              	.L15:
 154:D:/fchai/work/i-cube/I-CUBE-HUAWEI/Drivers/BSP/Components/lps22hh\lps22hh.c ****     {
 196              		.loc 1 154 5 is_stmt 1 view .LVU47
 197              	.LBB15:
 198              	.LBI15:
 677:D:/fchai/work/i-cube/I-CUBE-HUAWEI/Drivers/BSP/Components/lps22hh\lps22hh.c **** {
 199              		.loc 1 677 16 view .LVU48
 200              	.LBB16:
 680:D:/fchai/work/i-cube/I-CUBE-HUAWEI/Drivers/BSP/Components/lps22hh\lps22hh.c ****   {
 201              		.loc 1 680 3 view .LVU49
 680:D:/fchai/work/i-cube/I-CUBE-HUAWEI/Drivers/BSP/Components/lps22hh\lps22hh.c ****   {
 202              		.loc 1 680 7 is_stmt 0 view .LVU50
 203 0014 00F11C05 		add	r5, r0, #28
ARM GAS  T:\msys\tmp\cc7XUJLO.s 			page 24


 204 0018 2846     		mov	r0, r5
 205              	.LVL11:
 680:D:/fchai/work/i-cube/I-CUBE-HUAWEI/Drivers/BSP/Components/lps22hh\lps22hh.c ****   {
 206              		.loc 1 680 7 view .LVU51
 207 001a 1121     		movs	r1, #17
 208 001c FFF7FEFF 		bl	lps22hh_i3c_interface_set
 209              	.LVL12:
 680:D:/fchai/work/i-cube/I-CUBE-HUAWEI/Drivers/BSP/Components/lps22hh\lps22hh.c ****   {
 210              		.loc 1 680 6 view .LVU52
 211 0020 B8B9     		cbnz	r0, .L13
 686:D:/fchai/work/i-cube/I-CUBE-HUAWEI/Drivers/BSP/Components/lps22hh\lps22hh.c ****   {
 212              		.loc 1 686 3 is_stmt 1 view .LVU53
 686:D:/fchai/work/i-cube/I-CUBE-HUAWEI/Drivers/BSP/Components/lps22hh\lps22hh.c ****   {
 213              		.loc 1 686 7 is_stmt 0 view .LVU54
 214 0022 1021     		movs	r1, #16
 215 0024 2846     		mov	r0, r5
 216 0026 FFF7FEFF 		bl	lps22hh_data_rate_set
 217              	.LVL13:
 686:D:/fchai/work/i-cube/I-CUBE-HUAWEI/Drivers/BSP/Components/lps22hh\lps22hh.c ****   {
 218              		.loc 1 686 6 view .LVU55
 219 002a 0146     		mov	r1, r0
 220 002c 88B9     		cbnz	r0, .L13
 692:D:/fchai/work/i-cube/I-CUBE-HUAWEI/Drivers/BSP/Components/lps22hh\lps22hh.c ****   {
 221              		.loc 1 692 3 is_stmt 1 view .LVU56
 692:D:/fchai/work/i-cube/I-CUBE-HUAWEI/Drivers/BSP/Components/lps22hh\lps22hh.c ****   {
 222              		.loc 1 692 7 is_stmt 0 view .LVU57
 223 002e 2846     		mov	r0, r5
 224 0030 FFF7FEFF 		bl	lps22hh_lp_bandwidth_set
 225              	.LVL14:
 692:D:/fchai/work/i-cube/I-CUBE-HUAWEI/Drivers/BSP/Components/lps22hh\lps22hh.c ****   {
 226              		.loc 1 692 6 view .LVU58
 227 0034 68B9     		cbnz	r0, .L13
 698:D:/fchai/work/i-cube/I-CUBE-HUAWEI/Drivers/BSP/Components/lps22hh\lps22hh.c ****   {
 228              		.loc 1 698 3 is_stmt 1 view .LVU59
 698:D:/fchai/work/i-cube/I-CUBE-HUAWEI/Drivers/BSP/Components/lps22hh\lps22hh.c ****   {
 229              		.loc 1 698 7 is_stmt 0 view .LVU60
 230 0036 0121     		movs	r1, #1
 231 0038 2846     		mov	r0, r5
 232 003a FFF7FEFF 		bl	lps22hh_block_data_update_set
 233              	.LVL15:
 698:D:/fchai/work/i-cube/I-CUBE-HUAWEI/Drivers/BSP/Components/lps22hh\lps22hh.c ****   {
 234              		.loc 1 698 6 view .LVU61
 235 003e 40B9     		cbnz	r0, .L13
 704:D:/fchai/work/i-cube/I-CUBE-HUAWEI/Drivers/BSP/Components/lps22hh\lps22hh.c ****   {
 236              		.loc 1 704 3 is_stmt 1 view .LVU62
 704:D:/fchai/work/i-cube/I-CUBE-HUAWEI/Drivers/BSP/Components/lps22hh\lps22hh.c ****   {
 237              		.loc 1 704 7 is_stmt 0 view .LVU63
 238 0040 2846     		mov	r0, r5
 239 0042 0121     		movs	r1, #1
 240 0044 FFF7FEFF 		bl	lps22hh_auto_increment_set
 241              	.LVL16:
 704:D:/fchai/work/i-cube/I-CUBE-HUAWEI/Drivers/BSP/Components/lps22hh\lps22hh.c ****   {
 242              		.loc 1 704 6 view .LVU64
 243 0048 18B9     		cbnz	r0, .L13
 709:D:/fchai/work/i-cube/I-CUBE-HUAWEI/Drivers/BSP/Components/lps22hh\lps22hh.c **** 
 244              		.loc 1 709 3 is_stmt 1 view .LVU65
 709:D:/fchai/work/i-cube/I-CUBE-HUAWEI/Drivers/BSP/Components/lps22hh\lps22hh.c **** 
ARM GAS  T:\msys\tmp\cc7XUJLO.s 			page 25


 245              		.loc 1 709 18 is_stmt 0 view .LVU66
 246 004a 0323     		movs	r3, #3
 247 004c 84F82B30 		strb	r3, [r4, #43]
 711:D:/fchai/work/i-cube/I-CUBE-HUAWEI/Drivers/BSP/Components/lps22hh\lps22hh.c **** }
 248              		.loc 1 711 3 is_stmt 1 view .LVU67
 249              	.LVL17:
 711:D:/fchai/work/i-cube/I-CUBE-HUAWEI/Drivers/BSP/Components/lps22hh\lps22hh.c **** }
 250              		.loc 1 711 3 is_stmt 0 view .LVU68
 251 0050 DBE7     		b	.L10
 252              	.LVL18:
 253              	.L13:
 711:D:/fchai/work/i-cube/I-CUBE-HUAWEI/Drivers/BSP/Components/lps22hh\lps22hh.c **** }
 254              		.loc 1 711 3 view .LVU69
 255              	.LBE16:
 256              	.LBE15:
 156:D:/fchai/work/i-cube/I-CUBE-HUAWEI/Drivers/BSP/Components/lps22hh\lps22hh.c ****     }
 257              		.loc 1 156 14 view .LVU70
 258 0052 4FF0FF30 		mov	r0, #-1
 163:D:/fchai/work/i-cube/I-CUBE-HUAWEI/Drivers/BSP/Components/lps22hh\lps22hh.c **** 
 259              		.loc 1 163 1 view .LVU71
 260 0056 38BD     		pop	{r3, r4, r5, pc}
 163:D:/fchai/work/i-cube/I-CUBE-HUAWEI/Drivers/BSP/Components/lps22hh\lps22hh.c **** 
 261              		.loc 1 163 1 view .LVU72
 262              		.cfi_endproc
 263              	.LFE1:
 265              		.section	.text.LPS22HH_ReadID,"ax",%progbits
 266              		.align	1
 267              		.p2align 2,,3
 268              		.global	LPS22HH_ReadID
 269              		.syntax unified
 270              		.thumb
 271              		.thumb_func
 272              		.fpu fpv4-sp-d16
 274              	LPS22HH_ReadID:
 275              	.LVL19:
 276              	.LFB3:
 197:D:/fchai/work/i-cube/I-CUBE-HUAWEI/Drivers/BSP/Components/lps22hh\lps22hh.c ****   if (lps22hh_device_id_get(&(pObj->Ctx), Id) != LPS22HH_OK)
 277              		.loc 1 197 1 is_stmt 1 view -0
 278              		.cfi_startproc
 279              		@ args = 0, pretend = 0, frame = 0
 280              		@ frame_needed = 0, uses_anonymous_args = 0
 198:D:/fchai/work/i-cube/I-CUBE-HUAWEI/Drivers/BSP/Components/lps22hh\lps22hh.c ****   {
 281              		.loc 1 198 3 view .LVU74
 197:D:/fchai/work/i-cube/I-CUBE-HUAWEI/Drivers/BSP/Components/lps22hh\lps22hh.c ****   if (lps22hh_device_id_get(&(pObj->Ctx), Id) != LPS22HH_OK)
 282              		.loc 1 197 1 is_stmt 0 view .LVU75
 283 0000 08B5     		push	{r3, lr}
 284              	.LCFI5:
 285              		.cfi_def_cfa_offset 8
 286              		.cfi_offset 3, -8
 287              		.cfi_offset 14, -4
 198:D:/fchai/work/i-cube/I-CUBE-HUAWEI/Drivers/BSP/Components/lps22hh\lps22hh.c ****   {
 288              		.loc 1 198 7 view .LVU76
 289 0002 1C30     		adds	r0, r0, #28
 290              	.LVL20:
 198:D:/fchai/work/i-cube/I-CUBE-HUAWEI/Drivers/BSP/Components/lps22hh\lps22hh.c ****   {
 291              		.loc 1 198 7 view .LVU77
 292 0004 FFF7FEFF 		bl	lps22hh_device_id_get
ARM GAS  T:\msys\tmp\cc7XUJLO.s 			page 26


 293              	.LVL21:
 198:D:/fchai/work/i-cube/I-CUBE-HUAWEI/Drivers/BSP/Components/lps22hh\lps22hh.c ****   {
 294              		.loc 1 198 6 view .LVU78
 295 0008 0038     		subs	r0, r0, #0
 296 000a 18BF     		it	ne
 297 000c 0120     		movne	r0, #1
 204:D:/fchai/work/i-cube/I-CUBE-HUAWEI/Drivers/BSP/Components/lps22hh\lps22hh.c **** 
 298              		.loc 1 204 1 view .LVU79
 299 000e 4042     		rsbs	r0, r0, #0
 300 0010 08BD     		pop	{r3, pc}
 301              		.cfi_endproc
 302              	.LFE3:
 304 0012 00BF     		.section	.text.LPS22HH_GetOutputDataRate,"ax",%progbits
 305              		.align	1
 306              		.p2align 2,,3
 307              		.syntax unified
 308              		.thumb
 309              		.thumb_func
 310              		.fpu fpv4-sp-d16
 312              	LPS22HH_GetOutputDataRate:
 313              	.LVL22:
 314              	.LFB21:
 571:D:/fchai/work/i-cube/I-CUBE-HUAWEI/Drivers/BSP/Components/lps22hh\lps22hh.c ****   int32_t ret = LPS22HH_OK;
 315              		.loc 1 571 1 is_stmt 1 view -0
 316              		.cfi_startproc
 317              		@ args = 0, pretend = 0, frame = 8
 318              		@ frame_needed = 0, uses_anonymous_args = 0
 572:D:/fchai/work/i-cube/I-CUBE-HUAWEI/Drivers/BSP/Components/lps22hh\lps22hh.c ****   lps22hh_odr_t odr_low_level;
 319              		.loc 1 572 3 view .LVU81
 573:D:/fchai/work/i-cube/I-CUBE-HUAWEI/Drivers/BSP/Components/lps22hh\lps22hh.c **** 
 320              		.loc 1 573 3 view .LVU82
 575:D:/fchai/work/i-cube/I-CUBE-HUAWEI/Drivers/BSP/Components/lps22hh\lps22hh.c ****   {
 321              		.loc 1 575 3 view .LVU83
 571:D:/fchai/work/i-cube/I-CUBE-HUAWEI/Drivers/BSP/Components/lps22hh\lps22hh.c ****   int32_t ret = LPS22HH_OK;
 322              		.loc 1 571 1 is_stmt 0 view .LVU84
 323 0000 10B5     		push	{r4, lr}
 324              	.LCFI6:
 325              		.cfi_def_cfa_offset 8
 326              		.cfi_offset 4, -8
 327              		.cfi_offset 14, -4
 328 0002 82B0     		sub	sp, sp, #8
 329              	.LCFI7:
 330              		.cfi_def_cfa_offset 16
 571:D:/fchai/work/i-cube/I-CUBE-HUAWEI/Drivers/BSP/Components/lps22hh\lps22hh.c ****   int32_t ret = LPS22HH_OK;
 331              		.loc 1 571 1 view .LVU85
 332 0004 0C46     		mov	r4, r1
 575:D:/fchai/work/i-cube/I-CUBE-HUAWEI/Drivers/BSP/Components/lps22hh\lps22hh.c ****   {
 333              		.loc 1 575 7 view .LVU86
 334 0006 1C30     		adds	r0, r0, #28
 335              	.LVL23:
 575:D:/fchai/work/i-cube/I-CUBE-HUAWEI/Drivers/BSP/Components/lps22hh\lps22hh.c ****   {
 336              		.loc 1 575 7 view .LVU87
 337 0008 0DF10701 		add	r1, sp, #7
 338              	.LVL24:
 575:D:/fchai/work/i-cube/I-CUBE-HUAWEI/Drivers/BSP/Components/lps22hh\lps22hh.c ****   {
 339              		.loc 1 575 7 view .LVU88
 340 000c FFF7FEFF 		bl	lps22hh_data_rate_get
ARM GAS  T:\msys\tmp\cc7XUJLO.s 			page 27


 341              	.LVL25:
 575:D:/fchai/work/i-cube/I-CUBE-HUAWEI/Drivers/BSP/Components/lps22hh\lps22hh.c ****   {
 342              		.loc 1 575 6 view .LVU89
 343 0010 0028     		cmp	r0, #0
 344 0012 2AD1     		bne	.L30
 580:D:/fchai/work/i-cube/I-CUBE-HUAWEI/Drivers/BSP/Components/lps22hh\lps22hh.c ****   {
 345              		.loc 1 580 3 is_stmt 1 view .LVU90
 346 0014 9DF80730 		ldrb	r3, [sp, #7]	@ zero_extendqisi2
 347 0018 072B     		cmp	r3, #7
 348 001a 26D8     		bhi	.L30
 349 001c DFE803F0 		tbb	[pc, r3]
 350              	.L21:
 351 0020 08       		.byte	(.L28-.L21)/2
 352 0021 0C       		.byte	(.L27-.L21)/2
 353 0022 11       		.byte	(.L26-.L21)/2
 354 0023 15       		.byte	(.L25-.L21)/2
 355 0024 19       		.byte	(.L24-.L21)/2
 356 0025 1D       		.byte	(.L23-.L21)/2
 357 0026 21       		.byte	(.L22-.L21)/2
 358 0027 04       		.byte	(.L20-.L21)/2
 359              		.p2align 1
 360              	.L20:
 611:D:/fchai/work/i-cube/I-CUBE-HUAWEI/Drivers/BSP/Components/lps22hh\lps22hh.c ****       break;
 361              		.loc 1 611 7 view .LVU91
 611:D:/fchai/work/i-cube/I-CUBE-HUAWEI/Drivers/BSP/Components/lps22hh\lps22hh.c ****       break;
 362              		.loc 1 611 12 is_stmt 0 view .LVU92
 363 0028 114B     		ldr	r3, .L32
 364 002a 2360     		str	r3, [r4]	@ float
 612:D:/fchai/work/i-cube/I-CUBE-HUAWEI/Drivers/BSP/Components/lps22hh\lps22hh.c **** 
 365              		.loc 1 612 7 is_stmt 1 view .LVU93
 366              	.LVL26:
 367              	.L18:
 620:D:/fchai/work/i-cube/I-CUBE-HUAWEI/Drivers/BSP/Components/lps22hh\lps22hh.c **** 
 368              		.loc 1 620 1 is_stmt 0 view .LVU94
 369 002c 02B0     		add	sp, sp, #8
 370              	.LCFI8:
 371              		.cfi_remember_state
 372              		.cfi_def_cfa_offset 8
 373              		@ sp needed
 374 002e 10BD     		pop	{r4, pc}
 375              	.LVL27:
 376              	.L28:
 377              	.LCFI9:
 378              		.cfi_restore_state
 583:D:/fchai/work/i-cube/I-CUBE-HUAWEI/Drivers/BSP/Components/lps22hh\lps22hh.c ****       break;
 379              		.loc 1 583 7 is_stmt 1 view .LVU95
 583:D:/fchai/work/i-cube/I-CUBE-HUAWEI/Drivers/BSP/Components/lps22hh\lps22hh.c ****       break;
 380              		.loc 1 583 12 is_stmt 0 view .LVU96
 381 0030 0023     		movs	r3, #0
 382 0032 2360     		str	r3, [r4]	@ float
 584:D:/fchai/work/i-cube/I-CUBE-HUAWEI/Drivers/BSP/Components/lps22hh\lps22hh.c **** 
 383              		.loc 1 584 7 is_stmt 1 view .LVU97
 620:D:/fchai/work/i-cube/I-CUBE-HUAWEI/Drivers/BSP/Components/lps22hh\lps22hh.c **** 
 384              		.loc 1 620 1 is_stmt 0 view .LVU98
 385 0034 02B0     		add	sp, sp, #8
 386              	.LCFI10:
 387              		.cfi_remember_state
ARM GAS  T:\msys\tmp\cc7XUJLO.s 			page 28


 388              		.cfi_def_cfa_offset 8
 389              		@ sp needed
 390 0036 10BD     		pop	{r4, pc}
 391              	.LVL28:
 392              	.L27:
 393              	.LCFI11:
 394              		.cfi_restore_state
 587:D:/fchai/work/i-cube/I-CUBE-HUAWEI/Drivers/BSP/Components/lps22hh\lps22hh.c ****       break;
 395              		.loc 1 587 7 is_stmt 1 view .LVU99
 587:D:/fchai/work/i-cube/I-CUBE-HUAWEI/Drivers/BSP/Components/lps22hh\lps22hh.c ****       break;
 396              		.loc 1 587 12 is_stmt 0 view .LVU100
 397 0038 4FF07E53 		mov	r3, #1065353216
 398 003c 2360     		str	r3, [r4]	@ float
 588:D:/fchai/work/i-cube/I-CUBE-HUAWEI/Drivers/BSP/Components/lps22hh\lps22hh.c **** 
 399              		.loc 1 588 7 is_stmt 1 view .LVU101
 620:D:/fchai/work/i-cube/I-CUBE-HUAWEI/Drivers/BSP/Components/lps22hh\lps22hh.c **** 
 400              		.loc 1 620 1 is_stmt 0 view .LVU102
 401 003e 02B0     		add	sp, sp, #8
 402              	.LCFI12:
 403              		.cfi_remember_state
 404              		.cfi_def_cfa_offset 8
 405              		@ sp needed
 406 0040 10BD     		pop	{r4, pc}
 407              	.LVL29:
 408              	.L26:
 409              	.LCFI13:
 410              		.cfi_restore_state
 591:D:/fchai/work/i-cube/I-CUBE-HUAWEI/Drivers/BSP/Components/lps22hh\lps22hh.c ****       break;
 411              		.loc 1 591 7 is_stmt 1 view .LVU103
 591:D:/fchai/work/i-cube/I-CUBE-HUAWEI/Drivers/BSP/Components/lps22hh\lps22hh.c ****       break;
 412              		.loc 1 591 12 is_stmt 0 view .LVU104
 413 0042 0C4B     		ldr	r3, .L32+4
 414 0044 2360     		str	r3, [r4]	@ float
 592:D:/fchai/work/i-cube/I-CUBE-HUAWEI/Drivers/BSP/Components/lps22hh\lps22hh.c **** 
 415              		.loc 1 592 7 is_stmt 1 view .LVU105
 620:D:/fchai/work/i-cube/I-CUBE-HUAWEI/Drivers/BSP/Components/lps22hh\lps22hh.c **** 
 416              		.loc 1 620 1 is_stmt 0 view .LVU106
 417 0046 02B0     		add	sp, sp, #8
 418              	.LCFI14:
 419              		.cfi_remember_state
 420              		.cfi_def_cfa_offset 8
 421              		@ sp needed
 422 0048 10BD     		pop	{r4, pc}
 423              	.LVL30:
 424              	.L25:
 425              	.LCFI15:
 426              		.cfi_restore_state
 595:D:/fchai/work/i-cube/I-CUBE-HUAWEI/Drivers/BSP/Components/lps22hh\lps22hh.c ****       break;
 427              		.loc 1 595 7 is_stmt 1 view .LVU107
 595:D:/fchai/work/i-cube/I-CUBE-HUAWEI/Drivers/BSP/Components/lps22hh\lps22hh.c ****       break;
 428              		.loc 1 595 12 is_stmt 0 view .LVU108
 429 004a 0B4B     		ldr	r3, .L32+8
 430 004c 2360     		str	r3, [r4]	@ float
 596:D:/fchai/work/i-cube/I-CUBE-HUAWEI/Drivers/BSP/Components/lps22hh\lps22hh.c **** 
 431              		.loc 1 596 7 is_stmt 1 view .LVU109
 620:D:/fchai/work/i-cube/I-CUBE-HUAWEI/Drivers/BSP/Components/lps22hh\lps22hh.c **** 
 432              		.loc 1 620 1 is_stmt 0 view .LVU110
ARM GAS  T:\msys\tmp\cc7XUJLO.s 			page 29


 433 004e 02B0     		add	sp, sp, #8
 434              	.LCFI16:
 435              		.cfi_remember_state
 436              		.cfi_def_cfa_offset 8
 437              		@ sp needed
 438 0050 10BD     		pop	{r4, pc}
 439              	.LVL31:
 440              	.L24:
 441              	.LCFI17:
 442              		.cfi_restore_state
 599:D:/fchai/work/i-cube/I-CUBE-HUAWEI/Drivers/BSP/Components/lps22hh\lps22hh.c ****       break;
 443              		.loc 1 599 7 is_stmt 1 view .LVU111
 599:D:/fchai/work/i-cube/I-CUBE-HUAWEI/Drivers/BSP/Components/lps22hh\lps22hh.c ****       break;
 444              		.loc 1 599 12 is_stmt 0 view .LVU112
 445 0052 0A4B     		ldr	r3, .L32+12
 446 0054 2360     		str	r3, [r4]	@ float
 600:D:/fchai/work/i-cube/I-CUBE-HUAWEI/Drivers/BSP/Components/lps22hh\lps22hh.c **** 
 447              		.loc 1 600 7 is_stmt 1 view .LVU113
 620:D:/fchai/work/i-cube/I-CUBE-HUAWEI/Drivers/BSP/Components/lps22hh\lps22hh.c **** 
 448              		.loc 1 620 1 is_stmt 0 view .LVU114
 449 0056 02B0     		add	sp, sp, #8
 450              	.LCFI18:
 451              		.cfi_remember_state
 452              		.cfi_def_cfa_offset 8
 453              		@ sp needed
 454 0058 10BD     		pop	{r4, pc}
 455              	.LVL32:
 456              	.L23:
 457              	.LCFI19:
 458              		.cfi_restore_state
 603:D:/fchai/work/i-cube/I-CUBE-HUAWEI/Drivers/BSP/Components/lps22hh\lps22hh.c ****       break;
 459              		.loc 1 603 7 is_stmt 1 view .LVU115
 603:D:/fchai/work/i-cube/I-CUBE-HUAWEI/Drivers/BSP/Components/lps22hh\lps22hh.c ****       break;
 460              		.loc 1 603 12 is_stmt 0 view .LVU116
 461 005a 094B     		ldr	r3, .L32+16
 462 005c 2360     		str	r3, [r4]	@ float
 604:D:/fchai/work/i-cube/I-CUBE-HUAWEI/Drivers/BSP/Components/lps22hh\lps22hh.c **** 
 463              		.loc 1 604 7 is_stmt 1 view .LVU117
 620:D:/fchai/work/i-cube/I-CUBE-HUAWEI/Drivers/BSP/Components/lps22hh\lps22hh.c **** 
 464              		.loc 1 620 1 is_stmt 0 view .LVU118
 465 005e 02B0     		add	sp, sp, #8
 466              	.LCFI20:
 467              		.cfi_remember_state
 468              		.cfi_def_cfa_offset 8
 469              		@ sp needed
 470 0060 10BD     		pop	{r4, pc}
 471              	.LVL33:
 472              	.L22:
 473              	.LCFI21:
 474              		.cfi_restore_state
 607:D:/fchai/work/i-cube/I-CUBE-HUAWEI/Drivers/BSP/Components/lps22hh\lps22hh.c ****       break;
 475              		.loc 1 607 7 is_stmt 1 view .LVU119
 607:D:/fchai/work/i-cube/I-CUBE-HUAWEI/Drivers/BSP/Components/lps22hh\lps22hh.c ****       break;
 476              		.loc 1 607 12 is_stmt 0 view .LVU120
 477 0062 084B     		ldr	r3, .L32+20
 478 0064 2360     		str	r3, [r4]	@ float
 608:D:/fchai/work/i-cube/I-CUBE-HUAWEI/Drivers/BSP/Components/lps22hh\lps22hh.c **** 
ARM GAS  T:\msys\tmp\cc7XUJLO.s 			page 30


 479              		.loc 1 608 7 is_stmt 1 view .LVU121
 620:D:/fchai/work/i-cube/I-CUBE-HUAWEI/Drivers/BSP/Components/lps22hh\lps22hh.c **** 
 480              		.loc 1 620 1 is_stmt 0 view .LVU122
 481 0066 02B0     		add	sp, sp, #8
 482              	.LCFI22:
 483              		.cfi_remember_state
 484              		.cfi_def_cfa_offset 8
 485              		@ sp needed
 486 0068 10BD     		pop	{r4, pc}
 487              	.LVL34:
 488              	.L30:
 489              	.LCFI23:
 490              		.cfi_restore_state
 580:D:/fchai/work/i-cube/I-CUBE-HUAWEI/Drivers/BSP/Components/lps22hh\lps22hh.c ****   {
 491              		.loc 1 580 3 view .LVU123
 492 006a 4FF0FF30 		mov	r0, #-1
 493              	.LVL35:
 580:D:/fchai/work/i-cube/I-CUBE-HUAWEI/Drivers/BSP/Components/lps22hh\lps22hh.c ****   {
 494              		.loc 1 580 3 view .LVU124
 495 006e DDE7     		b	.L18
 496              	.L33:
 497              		.align	2
 498              	.L32:
 499 0070 00004843 		.word	1128792064
 500 0074 00002041 		.word	1092616192
 501 0078 0000C841 		.word	1103626240
 502 007c 00004842 		.word	1112014848
 503 0080 00009642 		.word	1117126656
 504 0084 0000C842 		.word	1120403456
 505              		.cfi_endproc
 506              	.LFE21:
 508              		.section	.text.LPS22HH_PRESS_GetOutputDataRate,"ax",%progbits
 509              		.align	1
 510              		.p2align 2,,3
 511              		.global	LPS22HH_PRESS_GetOutputDataRate
 512              		.syntax unified
 513              		.thumb
 514              		.thumb_func
 515              		.fpu fpv4-sp-d16
 517              	LPS22HH_PRESS_GetOutputDataRate:
 518              	.LVL36:
 519              	.LFB8:
 311:D:/fchai/work/i-cube/I-CUBE-HUAWEI/Drivers/BSP/Components/lps22hh\lps22hh.c ****   return LPS22HH_GetOutputDataRate(pObj, Odr);
 520              		.loc 1 311 1 is_stmt 1 view -0
 521              		.cfi_startproc
 522              		@ args = 0, pretend = 0, frame = 0
 523              		@ frame_needed = 0, uses_anonymous_args = 0
 524              		@ link register save eliminated.
 312:D:/fchai/work/i-cube/I-CUBE-HUAWEI/Drivers/BSP/Components/lps22hh\lps22hh.c **** }
 525              		.loc 1 312 3 view .LVU126
 312:D:/fchai/work/i-cube/I-CUBE-HUAWEI/Drivers/BSP/Components/lps22hh\lps22hh.c **** }
 526              		.loc 1 312 10 is_stmt 0 view .LVU127
 527 0000 FFF7FEBF 		b	LPS22HH_GetOutputDataRate
 528              	.LVL37:
 312:D:/fchai/work/i-cube/I-CUBE-HUAWEI/Drivers/BSP/Components/lps22hh\lps22hh.c **** }
 529              		.loc 1 312 10 view .LVU128
 530              		.cfi_endproc
ARM GAS  T:\msys\tmp\cc7XUJLO.s 			page 31


 531              	.LFE8:
 533              		.section	.text.LPS22HH_SetOutputDataRate_When_Enabled,"ax",%progbits
 534              		.align	1
 535              		.p2align 2,,3
 536              		.syntax unified
 537              		.thumb
 538              		.thumb_func
 539              		.fpu fpv4-sp-d16
 541              	LPS22HH_SetOutputDataRate_When_Enabled:
 542              	.LVL38:
 543              	.LFB22:
 629:D:/fchai/work/i-cube/I-CUBE-HUAWEI/Drivers/BSP/Components/lps22hh\lps22hh.c ****   lps22hh_odr_t new_odr;
 544              		.loc 1 629 1 is_stmt 1 view -0
 545              		.cfi_startproc
 546              		@ args = 0, pretend = 0, frame = 0
 547              		@ frame_needed = 0, uses_anonymous_args = 0
 630:D:/fchai/work/i-cube/I-CUBE-HUAWEI/Drivers/BSP/Components/lps22hh\lps22hh.c **** 
 548              		.loc 1 630 3 view .LVU130
 632:D:/fchai/work/i-cube/I-CUBE-HUAWEI/Drivers/BSP/Components/lps22hh\lps22hh.c ****           : (Odr <=  10.0f) ? LPS22HH_10_Hz
 549              		.loc 1 632 3 view .LVU131
 633:D:/fchai/work/i-cube/I-CUBE-HUAWEI/Drivers/BSP/Components/lps22hh\lps22hh.c ****           : (Odr <=  25.0f) ? LPS22HH_25_Hz
 550              		.loc 1 633 11 is_stmt 0 view .LVU132
 551 0000 F7EE007A 		vmov.f32	s15, #1.0e+0
 552 0004 B4EEE70A 		vcmpe.f32	s0, s15
 553 0008 F1EE10FA 		vmrs	APSR_nzcv, FPSCR
 629:D:/fchai/work/i-cube/I-CUBE-HUAWEI/Drivers/BSP/Components/lps22hh\lps22hh.c ****   lps22hh_odr_t new_odr;
 554              		.loc 1 629 1 view .LVU133
 555 000c 38B5     		push	{r3, r4, r5, lr}
 556              	.LCFI24:
 557              		.cfi_def_cfa_offset 16
 558              		.cfi_offset 3, -16
 559              		.cfi_offset 4, -12
 560              		.cfi_offset 5, -8
 561              		.cfi_offset 14, -4
 629:D:/fchai/work/i-cube/I-CUBE-HUAWEI/Drivers/BSP/Components/lps22hh\lps22hh.c ****   lps22hh_odr_t new_odr;
 562              		.loc 1 629 1 view .LVU134
 563 000e 0446     		mov	r4, r0
 633:D:/fchai/work/i-cube/I-CUBE-HUAWEI/Drivers/BSP/Components/lps22hh\lps22hh.c ****           : (Odr <=  25.0f) ? LPS22HH_25_Hz
 564              		.loc 1 633 11 view .LVU135
 565 0010 2ED9     		bls	.L38
 633:D:/fchai/work/i-cube/I-CUBE-HUAWEI/Drivers/BSP/Components/lps22hh\lps22hh.c ****           : (Odr <=  25.0f) ? LPS22HH_25_Hz
 566              		.loc 1 633 11 discriminator 2 view .LVU136
 567 0012 F2EE047A 		vmov.f32	s15, #1.0e+1
 568 0016 B4EEE70A 		vcmpe.f32	s0, s15
 569 001a F1EE10FA 		vmrs	APSR_nzcv, FPSCR
 570 001e 10D8     		bhi	.L46
 633:D:/fchai/work/i-cube/I-CUBE-HUAWEI/Drivers/BSP/Components/lps22hh\lps22hh.c ****           : (Odr <=  25.0f) ? LPS22HH_25_Hz
 571              		.loc 1 633 11 view .LVU137
 572 0020 0221     		movs	r1, #2
 573              	.L36:
 574              	.LVL39:
 640:D:/fchai/work/i-cube/I-CUBE-HUAWEI/Drivers/BSP/Components/lps22hh\lps22hh.c ****   {
 575              		.loc 1 640 3 is_stmt 1 view .LVU138
 640:D:/fchai/work/i-cube/I-CUBE-HUAWEI/Drivers/BSP/Components/lps22hh\lps22hh.c ****   {
 576              		.loc 1 640 7 is_stmt 0 view .LVU139
 577 0022 04F11C05 		add	r5, r4, #28
 578 0026 2846     		mov	r0, r5
ARM GAS  T:\msys\tmp\cc7XUJLO.s 			page 32


 579              	.LVL40:
 640:D:/fchai/work/i-cube/I-CUBE-HUAWEI/Drivers/BSP/Components/lps22hh\lps22hh.c ****   {
 580              		.loc 1 640 7 view .LVU140
 581 0028 FFF7FEFF 		bl	lps22hh_data_rate_set
 582              	.LVL41:
 640:D:/fchai/work/i-cube/I-CUBE-HUAWEI/Drivers/BSP/Components/lps22hh\lps22hh.c ****   {
 583              		.loc 1 640 6 view .LVU141
 584 002c 80BB     		cbnz	r0, .L44
 645:D:/fchai/work/i-cube/I-CUBE-HUAWEI/Drivers/BSP/Components/lps22hh\lps22hh.c ****   {
 585              		.loc 1 645 3 is_stmt 1 view .LVU142
 645:D:/fchai/work/i-cube/I-CUBE-HUAWEI/Drivers/BSP/Components/lps22hh\lps22hh.c ****   {
 586              		.loc 1 645 7 is_stmt 0 view .LVU143
 587 002e 04F12B01 		add	r1, r4, #43
 588 0032 2846     		mov	r0, r5
 589 0034 FFF7FEFF 		bl	lps22hh_data_rate_get
 590              	.LVL42:
 645:D:/fchai/work/i-cube/I-CUBE-HUAWEI/Drivers/BSP/Components/lps22hh\lps22hh.c ****   {
 591              		.loc 1 645 6 view .LVU144
 592 0038 0038     		subs	r0, r0, #0
 593 003a 18BF     		it	ne
 594 003c 0120     		movne	r0, #1
 595 003e 4042     		rsbs	r0, r0, #0
 651:D:/fchai/work/i-cube/I-CUBE-HUAWEI/Drivers/BSP/Components/lps22hh\lps22hh.c **** 
 596              		.loc 1 651 1 view .LVU145
 597 0040 38BD     		pop	{r3, r4, r5, pc}
 598              	.LVL43:
 599              	.L46:
 633:D:/fchai/work/i-cube/I-CUBE-HUAWEI/Drivers/BSP/Components/lps22hh\lps22hh.c ****           : (Odr <=  25.0f) ? LPS22HH_25_Hz
 600              		.loc 1 633 11 discriminator 4 view .LVU146
 601 0042 F3EE097A 		vmov.f32	s15, #2.5e+1
 602 0046 B4EEE70A 		vcmpe.f32	s0, s15
 603 004a F1EE10FA 		vmrs	APSR_nzcv, FPSCR
 604 004e 11D9     		bls	.L40
 633:D:/fchai/work/i-cube/I-CUBE-HUAWEI/Drivers/BSP/Components/lps22hh\lps22hh.c ****           : (Odr <=  25.0f) ? LPS22HH_25_Hz
 605              		.loc 1 633 11 discriminator 7 view .LVU147
 606 0050 DFED117A 		vldr.32	s15, .L48
 607 0054 B4EEE70A 		vcmpe.f32	s0, s15
 608 0058 F1EE10FA 		vmrs	APSR_nzcv, FPSCR
 609 005c 0CD9     		bls	.L41
 633:D:/fchai/work/i-cube/I-CUBE-HUAWEI/Drivers/BSP/Components/lps22hh\lps22hh.c ****           : (Odr <=  25.0f) ? LPS22HH_25_Hz
 610              		.loc 1 633 11 discriminator 10 view .LVU148
 611 005e DFED0F7A 		vldr.32	s15, .L48+4
 612 0062 B4EEE70A 		vcmpe.f32	s0, s15
 613 0066 F1EE10FA 		vmrs	APSR_nzcv, FPSCR
 614 006a 07D8     		bhi	.L47
 633:D:/fchai/work/i-cube/I-CUBE-HUAWEI/Drivers/BSP/Components/lps22hh\lps22hh.c ****           : (Odr <=  25.0f) ? LPS22HH_25_Hz
 615              		.loc 1 633 11 view .LVU149
 616 006c 0521     		movs	r1, #5
 617 006e D8E7     		b	.L36
 618              	.L38:
 633:D:/fchai/work/i-cube/I-CUBE-HUAWEI/Drivers/BSP/Components/lps22hh\lps22hh.c ****           : (Odr <=  25.0f) ? LPS22HH_25_Hz
 619              		.loc 1 633 11 view .LVU150
 620 0070 0121     		movs	r1, #1
 621 0072 D6E7     		b	.L36
 622              	.L40:
 633:D:/fchai/work/i-cube/I-CUBE-HUAWEI/Drivers/BSP/Components/lps22hh\lps22hh.c ****           : (Odr <=  25.0f) ? LPS22HH_25_Hz
 623              		.loc 1 633 11 view .LVU151
ARM GAS  T:\msys\tmp\cc7XUJLO.s 			page 33


 624 0074 0321     		movs	r1, #3
 625 0076 D4E7     		b	.L36
 626              	.L41:
 627 0078 0421     		movs	r1, #4
 628 007a D2E7     		b	.L36
 629              	.L47:
 633:D:/fchai/work/i-cube/I-CUBE-HUAWEI/Drivers/BSP/Components/lps22hh\lps22hh.c ****           : (Odr <=  25.0f) ? LPS22HH_25_Hz
 630              		.loc 1 633 11 discriminator 13 view .LVU152
 631 007c DFED087A 		vldr.32	s15, .L48+8
 632 0080 B4EEE70A 		vcmpe.f32	s0, s15
 633 0084 F1EE10FA 		vmrs	APSR_nzcv, FPSCR
 634 0088 94BF     		ite	ls
 635 008a 0621     		movls	r1, #6
 636 008c 0721     		movhi	r1, #7
 637 008e C8E7     		b	.L36
 638              	.LVL44:
 639              	.L44:
 642:D:/fchai/work/i-cube/I-CUBE-HUAWEI/Drivers/BSP/Components/lps22hh\lps22hh.c ****   }
 640              		.loc 1 642 12 view .LVU153
 641 0090 4FF0FF30 		mov	r0, #-1
 651:D:/fchai/work/i-cube/I-CUBE-HUAWEI/Drivers/BSP/Components/lps22hh\lps22hh.c **** 
 642              		.loc 1 651 1 view .LVU154
 643 0094 38BD     		pop	{r3, r4, r5, pc}
 644              	.LVL45:
 645              	.L49:
 651:D:/fchai/work/i-cube/I-CUBE-HUAWEI/Drivers/BSP/Components/lps22hh\lps22hh.c **** 
 646              		.loc 1 651 1 view .LVU155
 647 0096 00BF     		.align	2
 648              	.L48:
 649 0098 00004842 		.word	1112014848
 650 009c 00009642 		.word	1117126656
 651 00a0 0000C842 		.word	1120403456
 652              		.cfi_endproc
 653              	.LFE22:
 655              		.section	.text.LPS22HH_PRESS_SetOutputDataRate,"ax",%progbits
 656              		.align	1
 657              		.p2align 2,,3
 658              		.global	LPS22HH_PRESS_SetOutputDataRate
 659              		.syntax unified
 660              		.thumb
 661              		.thumb_func
 662              		.fpu fpv4-sp-d16
 664              	LPS22HH_PRESS_SetOutputDataRate:
 665              	.LVL46:
 666              	.LFB9:
 322:D:/fchai/work/i-cube/I-CUBE-HUAWEI/Drivers/BSP/Components/lps22hh\lps22hh.c ****   /* Check if the component is enabled */
 667              		.loc 1 322 1 is_stmt 1 view -0
 668              		.cfi_startproc
 669              		@ args = 0, pretend = 0, frame = 0
 670              		@ frame_needed = 0, uses_anonymous_args = 0
 671              		@ link register save eliminated.
 324:D:/fchai/work/i-cube/I-CUBE-HUAWEI/Drivers/BSP/Components/lps22hh\lps22hh.c ****   {
 672              		.loc 1 324 3 view .LVU157
 324:D:/fchai/work/i-cube/I-CUBE-HUAWEI/Drivers/BSP/Components/lps22hh\lps22hh.c ****   {
 673              		.loc 1 324 6 is_stmt 0 view .LVU158
 674 0000 90F82920 		ldrb	r2, [r0, #41]	@ zero_extendqisi2
 675 0004 012A     		cmp	r2, #1
ARM GAS  T:\msys\tmp\cc7XUJLO.s 			page 34


 322:D:/fchai/work/i-cube/I-CUBE-HUAWEI/Drivers/BSP/Components/lps22hh\lps22hh.c ****   /* Check if the component is enabled */
 676              		.loc 1 322 1 view .LVU159
 677 0006 0346     		mov	r3, r0
 324:D:/fchai/work/i-cube/I-CUBE-HUAWEI/Drivers/BSP/Components/lps22hh\lps22hh.c ****   {
 678              		.loc 1 324 6 view .LVU160
 679 0008 2ED0     		beq	.L59
 330:D:/fchai/work/i-cube/I-CUBE-HUAWEI/Drivers/BSP/Components/lps22hh\lps22hh.c ****   }
 680              		.loc 1 330 5 is_stmt 1 view .LVU161
 681              	.LVL47:
 682              	.LBB17:
 683              	.LBI17:
 659:D:/fchai/work/i-cube/I-CUBE-HUAWEI/Drivers/BSP/Components/lps22hh\lps22hh.c **** {
 684              		.loc 1 659 16 view .LVU162
 685              	.LBB18:
 661:D:/fchai/work/i-cube/I-CUBE-HUAWEI/Drivers/BSP/Components/lps22hh\lps22hh.c ****                  : (Odr <=  10.0f) ? LPS22HH_10_Hz
 686              		.loc 1 661 3 view .LVU163
 662:D:/fchai/work/i-cube/I-CUBE-HUAWEI/Drivers/BSP/Components/lps22hh\lps22hh.c ****                  : (Odr <=  25.0f) ? LPS22HH_25_Hz
 687              		.loc 1 662 18 is_stmt 0 view .LVU164
 688 000a B7EE007A 		vmov.f32	s14, #1.0e+0
 689 000e B4EEC70A 		vcmpe.f32	s0, s14
 690 0012 F1EE10FA 		vmrs	APSR_nzcv, FPSCR
 691 0016 1DD9     		bls	.L53
 692 0018 B2EE047A 		vmov.f32	s14, #1.0e+1
 693 001c B4EEC70A 		vcmpe.f32	s0, s14
 694 0020 F1EE10FA 		vmrs	APSR_nzcv, FPSCR
 695 0024 1BD9     		bls	.L54
 696 0026 B3EE097A 		vmov.f32	s14, #2.5e+1
 697 002a B4EEC70A 		vcmpe.f32	s0, s14
 698 002e F1EE10FA 		vmrs	APSR_nzcv, FPSCR
 699 0032 1BD9     		bls	.L55
 700 0034 9FED167A 		vldr.32	s14, .L61
 701 0038 B4EEC70A 		vcmpe.f32	s0, s14
 702 003c F1EE10FA 		vmrs	APSR_nzcv, FPSCR
 703 0040 19D9     		bls	.L56
 704 0042 9FED147A 		vldr.32	s14, .L61+4
 705 0046 B4EEC70A 		vcmpe.f32	s0, s14
 706 004a F1EE10FA 		vmrs	APSR_nzcv, FPSCR
 707 004e 14D8     		bhi	.L60
 708 0050 0522     		movs	r2, #5
 709 0052 00E0     		b	.L52
 710              	.L53:
 711 0054 0122     		movs	r2, #1
 712              	.L52:
 661:D:/fchai/work/i-cube/I-CUBE-HUAWEI/Drivers/BSP/Components/lps22hh\lps22hh.c ****                  : (Odr <=  10.0f) ? LPS22HH_10_Hz
 713              		.loc 1 661 18 view .LVU165
 714 0056 83F82B20 		strb	r2, [r3, #43]
 669:D:/fchai/work/i-cube/I-CUBE-HUAWEI/Drivers/BSP/Components/lps22hh\lps22hh.c **** }
 715              		.loc 1 669 3 is_stmt 1 view .LVU166
 716              	.LVL48:
 669:D:/fchai/work/i-cube/I-CUBE-HUAWEI/Drivers/BSP/Components/lps22hh\lps22hh.c **** }
 717              		.loc 1 669 3 is_stmt 0 view .LVU167
 718              	.LBE18:
 719              	.LBE17:
 332:D:/fchai/work/i-cube/I-CUBE-HUAWEI/Drivers/BSP/Components/lps22hh\lps22hh.c **** 
 720              		.loc 1 332 1 view .LVU168
 721 005a 0020     		movs	r0, #0
 722              	.LVL49:
ARM GAS  T:\msys\tmp\cc7XUJLO.s 			page 35


 332:D:/fchai/work/i-cube/I-CUBE-HUAWEI/Drivers/BSP/Components/lps22hh\lps22hh.c **** 
 723              		.loc 1 332 1 view .LVU169
 724 005c 7047     		bx	lr
 725              	.LVL50:
 726              	.L54:
 727              	.LBB22:
 728              	.LBB19:
 662:D:/fchai/work/i-cube/I-CUBE-HUAWEI/Drivers/BSP/Components/lps22hh\lps22hh.c ****                  : (Odr <=  25.0f) ? LPS22HH_25_Hz
 729              		.loc 1 662 18 view .LVU170
 730 005e 0222     		movs	r2, #2
 661:D:/fchai/work/i-cube/I-CUBE-HUAWEI/Drivers/BSP/Components/lps22hh\lps22hh.c ****                  : (Odr <=  10.0f) ? LPS22HH_10_Hz
 731              		.loc 1 661 18 view .LVU171
 732 0060 83F82B20 		strb	r2, [r3, #43]
 669:D:/fchai/work/i-cube/I-CUBE-HUAWEI/Drivers/BSP/Components/lps22hh\lps22hh.c **** }
 733              		.loc 1 669 3 is_stmt 1 view .LVU172
 734              	.LVL51:
 669:D:/fchai/work/i-cube/I-CUBE-HUAWEI/Drivers/BSP/Components/lps22hh\lps22hh.c **** }
 735              		.loc 1 669 3 is_stmt 0 view .LVU173
 736              	.LBE19:
 737              	.LBE22:
 332:D:/fchai/work/i-cube/I-CUBE-HUAWEI/Drivers/BSP/Components/lps22hh\lps22hh.c **** 
 738              		.loc 1 332 1 view .LVU174
 739 0064 0020     		movs	r0, #0
 740              	.LVL52:
 332:D:/fchai/work/i-cube/I-CUBE-HUAWEI/Drivers/BSP/Components/lps22hh\lps22hh.c **** 
 741              		.loc 1 332 1 view .LVU175
 742 0066 7047     		bx	lr
 743              	.LVL53:
 744              	.L59:
 326:D:/fchai/work/i-cube/I-CUBE-HUAWEI/Drivers/BSP/Components/lps22hh\lps22hh.c ****   }
 745              		.loc 1 326 5 is_stmt 1 view .LVU176
 326:D:/fchai/work/i-cube/I-CUBE-HUAWEI/Drivers/BSP/Components/lps22hh\lps22hh.c ****   }
 746              		.loc 1 326 12 is_stmt 0 view .LVU177
 747 0068 FFF7FEBF 		b	LPS22HH_SetOutputDataRate_When_Enabled
 748              	.LVL54:
 749              	.L55:
 750              	.LBB23:
 751              	.LBB20:
 662:D:/fchai/work/i-cube/I-CUBE-HUAWEI/Drivers/BSP/Components/lps22hh\lps22hh.c ****                  : (Odr <=  25.0f) ? LPS22HH_25_Hz
 752              		.loc 1 662 18 view .LVU178
 753 006c 0322     		movs	r2, #3
 661:D:/fchai/work/i-cube/I-CUBE-HUAWEI/Drivers/BSP/Components/lps22hh\lps22hh.c ****                  : (Odr <=  10.0f) ? LPS22HH_10_Hz
 754              		.loc 1 661 18 view .LVU179
 755 006e 83F82B20 		strb	r2, [r3, #43]
 669:D:/fchai/work/i-cube/I-CUBE-HUAWEI/Drivers/BSP/Components/lps22hh\lps22hh.c **** }
 756              		.loc 1 669 3 is_stmt 1 view .LVU180
 757              	.LVL55:
 669:D:/fchai/work/i-cube/I-CUBE-HUAWEI/Drivers/BSP/Components/lps22hh\lps22hh.c **** }
 758              		.loc 1 669 3 is_stmt 0 view .LVU181
 759              	.LBE20:
 760              	.LBE23:
 332:D:/fchai/work/i-cube/I-CUBE-HUAWEI/Drivers/BSP/Components/lps22hh\lps22hh.c **** 
 761              		.loc 1 332 1 view .LVU182
 762 0072 0020     		movs	r0, #0
 763              	.LVL56:
 332:D:/fchai/work/i-cube/I-CUBE-HUAWEI/Drivers/BSP/Components/lps22hh\lps22hh.c **** 
 764              		.loc 1 332 1 view .LVU183
ARM GAS  T:\msys\tmp\cc7XUJLO.s 			page 36


 765 0074 7047     		bx	lr
 766              	.LVL57:
 767              	.L56:
 768              	.LBB24:
 769              	.LBB21:
 662:D:/fchai/work/i-cube/I-CUBE-HUAWEI/Drivers/BSP/Components/lps22hh\lps22hh.c ****                  : (Odr <=  25.0f) ? LPS22HH_25_Hz
 770              		.loc 1 662 18 view .LVU184
 771 0076 0422     		movs	r2, #4
 772 0078 EDE7     		b	.L52
 773              	.L60:
 774 007a 9FED077A 		vldr.32	s14, .L61+8
 775 007e B4EEC70A 		vcmpe.f32	s0, s14
 776 0082 F1EE10FA 		vmrs	APSR_nzcv, FPSCR
 777 0086 94BF     		ite	ls
 778 0088 0622     		movls	r2, #6
 779 008a 0722     		movhi	r2, #7
 780 008c E3E7     		b	.L52
 781              	.L62:
 782 008e 00BF     		.align	2
 783              	.L61:
 784 0090 00004842 		.word	1112014848
 785 0094 00009642 		.word	1117126656
 786 0098 0000C842 		.word	1120403456
 787              	.LBE21:
 788              	.LBE24:
 789              		.cfi_endproc
 790              	.LFE9:
 792              		.section	.text.LPS22HH_TEMP_SetOutputDataRate,"ax",%progbits
 793              		.align	1
 794              		.p2align 2,,3
 795              		.global	LPS22HH_TEMP_SetOutputDataRate
 796              		.syntax unified
 797              		.thumb
 798              		.thumb_func
 799              		.fpu fpv4-sp-d16
 801              	LPS22HH_TEMP_SetOutputDataRate:
 802              	.LVL58:
 803              	.LFB15:
 448:D:/fchai/work/i-cube/I-CUBE-HUAWEI/Drivers/BSP/Components/lps22hh\lps22hh.c ****   /* Check if the component is enabled */
 804              		.loc 1 448 1 is_stmt 1 view -0
 805              		.cfi_startproc
 806              		@ args = 0, pretend = 0, frame = 0
 807              		@ frame_needed = 0, uses_anonymous_args = 0
 808              		@ link register save eliminated.
 450:D:/fchai/work/i-cube/I-CUBE-HUAWEI/Drivers/BSP/Components/lps22hh\lps22hh.c ****   {
 809              		.loc 1 450 3 view .LVU186
 450:D:/fchai/work/i-cube/I-CUBE-HUAWEI/Drivers/BSP/Components/lps22hh\lps22hh.c ****   {
 810              		.loc 1 450 6 is_stmt 0 view .LVU187
 811 0000 90F82A20 		ldrb	r2, [r0, #42]	@ zero_extendqisi2
 812 0004 012A     		cmp	r2, #1
 448:D:/fchai/work/i-cube/I-CUBE-HUAWEI/Drivers/BSP/Components/lps22hh\lps22hh.c ****   /* Check if the component is enabled */
 813              		.loc 1 448 1 view .LVU188
 814 0006 0346     		mov	r3, r0
 450:D:/fchai/work/i-cube/I-CUBE-HUAWEI/Drivers/BSP/Components/lps22hh\lps22hh.c ****   {
 815              		.loc 1 450 6 view .LVU189
 816 0008 2ED0     		beq	.L72
 456:D:/fchai/work/i-cube/I-CUBE-HUAWEI/Drivers/BSP/Components/lps22hh\lps22hh.c ****   }
ARM GAS  T:\msys\tmp\cc7XUJLO.s 			page 37


 817              		.loc 1 456 5 is_stmt 1 view .LVU190
 818              	.LVL59:
 819              	.LBB25:
 820              	.LBI25:
 659:D:/fchai/work/i-cube/I-CUBE-HUAWEI/Drivers/BSP/Components/lps22hh\lps22hh.c **** {
 821              		.loc 1 659 16 view .LVU191
 822              	.LBB26:
 661:D:/fchai/work/i-cube/I-CUBE-HUAWEI/Drivers/BSP/Components/lps22hh\lps22hh.c ****                  : (Odr <=  10.0f) ? LPS22HH_10_Hz
 823              		.loc 1 661 3 view .LVU192
 662:D:/fchai/work/i-cube/I-CUBE-HUAWEI/Drivers/BSP/Components/lps22hh\lps22hh.c ****                  : (Odr <=  25.0f) ? LPS22HH_25_Hz
 824              		.loc 1 662 18 is_stmt 0 view .LVU193
 825 000a B7EE007A 		vmov.f32	s14, #1.0e+0
 826 000e B4EEC70A 		vcmpe.f32	s0, s14
 827 0012 F1EE10FA 		vmrs	APSR_nzcv, FPSCR
 828 0016 1DD9     		bls	.L66
 829 0018 B2EE047A 		vmov.f32	s14, #1.0e+1
 830 001c B4EEC70A 		vcmpe.f32	s0, s14
 831 0020 F1EE10FA 		vmrs	APSR_nzcv, FPSCR
 832 0024 1BD9     		bls	.L67
 833 0026 B3EE097A 		vmov.f32	s14, #2.5e+1
 834 002a B4EEC70A 		vcmpe.f32	s0, s14
 835 002e F1EE10FA 		vmrs	APSR_nzcv, FPSCR
 836 0032 1BD9     		bls	.L68
 837 0034 9FED167A 		vldr.32	s14, .L74
 838 0038 B4EEC70A 		vcmpe.f32	s0, s14
 839 003c F1EE10FA 		vmrs	APSR_nzcv, FPSCR
 840 0040 19D9     		bls	.L69
 841 0042 9FED147A 		vldr.32	s14, .L74+4
 842 0046 B4EEC70A 		vcmpe.f32	s0, s14
 843 004a F1EE10FA 		vmrs	APSR_nzcv, FPSCR
 844 004e 14D8     		bhi	.L73
 845 0050 0522     		movs	r2, #5
 846 0052 00E0     		b	.L65
 847              	.L66:
 848 0054 0122     		movs	r2, #1
 849              	.L65:
 661:D:/fchai/work/i-cube/I-CUBE-HUAWEI/Drivers/BSP/Components/lps22hh\lps22hh.c ****                  : (Odr <=  10.0f) ? LPS22HH_10_Hz
 850              		.loc 1 661 18 view .LVU194
 851 0056 83F82B20 		strb	r2, [r3, #43]
 669:D:/fchai/work/i-cube/I-CUBE-HUAWEI/Drivers/BSP/Components/lps22hh\lps22hh.c **** }
 852              		.loc 1 669 3 is_stmt 1 view .LVU195
 853              	.LVL60:
 669:D:/fchai/work/i-cube/I-CUBE-HUAWEI/Drivers/BSP/Components/lps22hh\lps22hh.c **** }
 854              		.loc 1 669 3 is_stmt 0 view .LVU196
 855              	.LBE26:
 856              	.LBE25:
 458:D:/fchai/work/i-cube/I-CUBE-HUAWEI/Drivers/BSP/Components/lps22hh\lps22hh.c **** 
 857              		.loc 1 458 1 view .LVU197
 858 005a 0020     		movs	r0, #0
 859              	.LVL61:
 458:D:/fchai/work/i-cube/I-CUBE-HUAWEI/Drivers/BSP/Components/lps22hh\lps22hh.c **** 
 860              		.loc 1 458 1 view .LVU198
 861 005c 7047     		bx	lr
 862              	.LVL62:
 863              	.L67:
 864              	.LBB30:
 865              	.LBB27:
ARM GAS  T:\msys\tmp\cc7XUJLO.s 			page 38


 662:D:/fchai/work/i-cube/I-CUBE-HUAWEI/Drivers/BSP/Components/lps22hh\lps22hh.c ****                  : (Odr <=  25.0f) ? LPS22HH_25_Hz
 866              		.loc 1 662 18 view .LVU199
 867 005e 0222     		movs	r2, #2
 661:D:/fchai/work/i-cube/I-CUBE-HUAWEI/Drivers/BSP/Components/lps22hh\lps22hh.c ****                  : (Odr <=  10.0f) ? LPS22HH_10_Hz
 868              		.loc 1 661 18 view .LVU200
 869 0060 83F82B20 		strb	r2, [r3, #43]
 669:D:/fchai/work/i-cube/I-CUBE-HUAWEI/Drivers/BSP/Components/lps22hh\lps22hh.c **** }
 870              		.loc 1 669 3 is_stmt 1 view .LVU201
 871              	.LVL63:
 669:D:/fchai/work/i-cube/I-CUBE-HUAWEI/Drivers/BSP/Components/lps22hh\lps22hh.c **** }
 872              		.loc 1 669 3 is_stmt 0 view .LVU202
 873              	.LBE27:
 874              	.LBE30:
 458:D:/fchai/work/i-cube/I-CUBE-HUAWEI/Drivers/BSP/Components/lps22hh\lps22hh.c **** 
 875              		.loc 1 458 1 view .LVU203
 876 0064 0020     		movs	r0, #0
 877              	.LVL64:
 458:D:/fchai/work/i-cube/I-CUBE-HUAWEI/Drivers/BSP/Components/lps22hh\lps22hh.c **** 
 878              		.loc 1 458 1 view .LVU204
 879 0066 7047     		bx	lr
 880              	.LVL65:
 881              	.L72:
 452:D:/fchai/work/i-cube/I-CUBE-HUAWEI/Drivers/BSP/Components/lps22hh\lps22hh.c ****   }
 882              		.loc 1 452 5 is_stmt 1 view .LVU205
 452:D:/fchai/work/i-cube/I-CUBE-HUAWEI/Drivers/BSP/Components/lps22hh\lps22hh.c ****   }
 883              		.loc 1 452 12 is_stmt 0 view .LVU206
 884 0068 FFF7FEBF 		b	LPS22HH_SetOutputDataRate_When_Enabled
 885              	.LVL66:
 886              	.L68:
 887              	.LBB31:
 888              	.LBB28:
 662:D:/fchai/work/i-cube/I-CUBE-HUAWEI/Drivers/BSP/Components/lps22hh\lps22hh.c ****                  : (Odr <=  25.0f) ? LPS22HH_25_Hz
 889              		.loc 1 662 18 view .LVU207
 890 006c 0322     		movs	r2, #3
 661:D:/fchai/work/i-cube/I-CUBE-HUAWEI/Drivers/BSP/Components/lps22hh\lps22hh.c ****                  : (Odr <=  10.0f) ? LPS22HH_10_Hz
 891              		.loc 1 661 18 view .LVU208
 892 006e 83F82B20 		strb	r2, [r3, #43]
 669:D:/fchai/work/i-cube/I-CUBE-HUAWEI/Drivers/BSP/Components/lps22hh\lps22hh.c **** }
 893              		.loc 1 669 3 is_stmt 1 view .LVU209
 894              	.LVL67:
 669:D:/fchai/work/i-cube/I-CUBE-HUAWEI/Drivers/BSP/Components/lps22hh\lps22hh.c **** }
 895              		.loc 1 669 3 is_stmt 0 view .LVU210
 896              	.LBE28:
 897              	.LBE31:
 458:D:/fchai/work/i-cube/I-CUBE-HUAWEI/Drivers/BSP/Components/lps22hh\lps22hh.c **** 
 898              		.loc 1 458 1 view .LVU211
 899 0072 0020     		movs	r0, #0
 900              	.LVL68:
 458:D:/fchai/work/i-cube/I-CUBE-HUAWEI/Drivers/BSP/Components/lps22hh\lps22hh.c **** 
 901              		.loc 1 458 1 view .LVU212
 902 0074 7047     		bx	lr
 903              	.LVL69:
 904              	.L69:
 905              	.LBB32:
 906              	.LBB29:
 662:D:/fchai/work/i-cube/I-CUBE-HUAWEI/Drivers/BSP/Components/lps22hh\lps22hh.c ****                  : (Odr <=  25.0f) ? LPS22HH_25_Hz
 907              		.loc 1 662 18 view .LVU213
ARM GAS  T:\msys\tmp\cc7XUJLO.s 			page 39


 908 0076 0422     		movs	r2, #4
 909 0078 EDE7     		b	.L65
 910              	.L73:
 911 007a 9FED077A 		vldr.32	s14, .L74+8
 912 007e B4EEC70A 		vcmpe.f32	s0, s14
 913 0082 F1EE10FA 		vmrs	APSR_nzcv, FPSCR
 914 0086 94BF     		ite	ls
 915 0088 0622     		movls	r2, #6
 916 008a 0722     		movhi	r2, #7
 917 008c E3E7     		b	.L65
 918              	.L75:
 919 008e 00BF     		.align	2
 920              	.L74:
 921 0090 00004842 		.word	1112014848
 922 0094 00009642 		.word	1117126656
 923 0098 0000C842 		.word	1120403456
 924              	.LBE29:
 925              	.LBE32:
 926              		.cfi_endproc
 927              	.LFE15:
 929              		.section	.text.LPS22HH_PRESS_GetPressure,"ax",%progbits
 930              		.align	1
 931              		.p2align 2,,3
 932              		.global	LPS22HH_PRESS_GetPressure
 933              		.syntax unified
 934              		.thumb
 935              		.thumb_func
 936              		.fpu fpv4-sp-d16
 938              	LPS22HH_PRESS_GetPressure:
 939              	.LVL70:
 940              	.LFB10:
 341:D:/fchai/work/i-cube/I-CUBE-HUAWEI/Drivers/BSP/Components/lps22hh\lps22hh.c ****   lps22hh_axis1bit32_t data_raw_pressure;
 941              		.loc 1 341 1 is_stmt 1 view -0
 942              		.cfi_startproc
 943              		@ args = 0, pretend = 0, frame = 8
 944              		@ frame_needed = 0, uses_anonymous_args = 0
 342:D:/fchai/work/i-cube/I-CUBE-HUAWEI/Drivers/BSP/Components/lps22hh\lps22hh.c **** 
 945              		.loc 1 342 3 view .LVU215
 344:D:/fchai/work/i-cube/I-CUBE-HUAWEI/Drivers/BSP/Components/lps22hh\lps22hh.c ****   if (lps22hh_pressure_raw_get(&(pObj->Ctx), data_raw_pressure.u8bit) != LPS22HH_OK)
 946              		.loc 1 344 3 view .LVU216
 341:D:/fchai/work/i-cube/I-CUBE-HUAWEI/Drivers/BSP/Components/lps22hh\lps22hh.c ****   lps22hh_axis1bit32_t data_raw_pressure;
 947              		.loc 1 341 1 is_stmt 0 view .LVU217
 948 0000 30B5     		push	{r4, r5, lr}
 949              	.LCFI25:
 950              		.cfi_def_cfa_offset 12
 951              		.cfi_offset 4, -12
 952              		.cfi_offset 5, -8
 953              		.cfi_offset 14, -4
 954 0002 83B0     		sub	sp, sp, #12
 955              	.LCFI26:
 956              		.cfi_def_cfa_offset 24
 341:D:/fchai/work/i-cube/I-CUBE-HUAWEI/Drivers/BSP/Components/lps22hh\lps22hh.c ****   lps22hh_axis1bit32_t data_raw_pressure;
 957              		.loc 1 341 1 view .LVU218
 958 0004 0D46     		mov	r5, r1
 344:D:/fchai/work/i-cube/I-CUBE-HUAWEI/Drivers/BSP/Components/lps22hh\lps22hh.c ****   if (lps22hh_pressure_raw_get(&(pObj->Ctx), data_raw_pressure.u8bit) != LPS22HH_OK)
 959              		.loc 1 344 9 view .LVU219
 960 0006 0022     		movs	r2, #0
ARM GAS  T:\msys\tmp\cc7XUJLO.s 			page 40


 345:D:/fchai/work/i-cube/I-CUBE-HUAWEI/Drivers/BSP/Components/lps22hh\lps22hh.c ****   {
 961              		.loc 1 345 7 view .LVU220
 962 0008 1C30     		adds	r0, r0, #28
 963              	.LVL71:
 345:D:/fchai/work/i-cube/I-CUBE-HUAWEI/Drivers/BSP/Components/lps22hh\lps22hh.c ****   {
 964              		.loc 1 345 7 view .LVU221
 965 000a 01A9     		add	r1, sp, #4
 966              	.LVL72:
 344:D:/fchai/work/i-cube/I-CUBE-HUAWEI/Drivers/BSP/Components/lps22hh\lps22hh.c ****   if (lps22hh_pressure_raw_get(&(pObj->Ctx), data_raw_pressure.u8bit) != LPS22HH_OK)
 967              		.loc 1 344 9 view .LVU222
 968 000c 0192     		str	r2, [sp, #4]
 345:D:/fchai/work/i-cube/I-CUBE-HUAWEI/Drivers/BSP/Components/lps22hh\lps22hh.c ****   {
 969              		.loc 1 345 3 is_stmt 1 view .LVU223
 345:D:/fchai/work/i-cube/I-CUBE-HUAWEI/Drivers/BSP/Components/lps22hh\lps22hh.c ****   {
 970              		.loc 1 345 7 is_stmt 0 view .LVU224
 971 000e FFF7FEFF 		bl	lps22hh_pressure_raw_get
 972              	.LVL73:
 345:D:/fchai/work/i-cube/I-CUBE-HUAWEI/Drivers/BSP/Components/lps22hh\lps22hh.c ****   {
 973              		.loc 1 345 6 view .LVU225
 974 0012 40B9     		cbnz	r0, .L78
 350:D:/fchai/work/i-cube/I-CUBE-HUAWEI/Drivers/BSP/Components/lps22hh\lps22hh.c **** 
 975              		.loc 1 350 3 is_stmt 1 view .LVU226
 976 0014 0446     		mov	r4, r0
 350:D:/fchai/work/i-cube/I-CUBE-HUAWEI/Drivers/BSP/Components/lps22hh\lps22hh.c **** 
 977              		.loc 1 350 12 is_stmt 0 view .LVU227
 978 0016 0198     		ldr	r0, [sp, #4]
 979 0018 FFF7FEFF 		bl	lps22hh_from_lsb_to_hpa
 980              	.LVL74:
 350:D:/fchai/work/i-cube/I-CUBE-HUAWEI/Drivers/BSP/Components/lps22hh\lps22hh.c **** 
 981              		.loc 1 350 10 view .LVU228
 982 001c 85ED000A 		vstr.32	s0, [r5]
 352:D:/fchai/work/i-cube/I-CUBE-HUAWEI/Drivers/BSP/Components/lps22hh\lps22hh.c **** }
 983              		.loc 1 352 3 is_stmt 1 view .LVU229
 984              	.L76:
 353:D:/fchai/work/i-cube/I-CUBE-HUAWEI/Drivers/BSP/Components/lps22hh\lps22hh.c **** 
 985              		.loc 1 353 1 is_stmt 0 view .LVU230
 986 0020 2046     		mov	r0, r4
 987 0022 03B0     		add	sp, sp, #12
 988              	.LCFI27:
 989              		.cfi_remember_state
 990              		.cfi_def_cfa_offset 12
 991              		@ sp needed
 992 0024 30BD     		pop	{r4, r5, pc}
 993              	.LVL75:
 994              	.L78:
 995              	.LCFI28:
 996              		.cfi_restore_state
 347:D:/fchai/work/i-cube/I-CUBE-HUAWEI/Drivers/BSP/Components/lps22hh\lps22hh.c ****   }
 997              		.loc 1 347 12 view .LVU231
 998 0026 4FF0FF34 		mov	r4, #-1
 999 002a F9E7     		b	.L76
 1000              		.cfi_endproc
 1001              	.LFE10:
 1003              		.section	.text.LPS22HH_TEMP_GetTemperature,"ax",%progbits
 1004              		.align	1
 1005              		.p2align 2,,3
 1006              		.global	LPS22HH_TEMP_GetTemperature
ARM GAS  T:\msys\tmp\cc7XUJLO.s 			page 41


 1007              		.syntax unified
 1008              		.thumb
 1009              		.thumb_func
 1010              		.fpu fpv4-sp-d16
 1012              	LPS22HH_TEMP_GetTemperature:
 1013              	.LVL76:
 1014              	.LFB16:
 467:D:/fchai/work/i-cube/I-CUBE-HUAWEI/Drivers/BSP/Components/lps22hh\lps22hh.c ****   lps22hh_axis1bit16_t data_raw_temperature;
 1015              		.loc 1 467 1 is_stmt 1 view -0
 1016              		.cfi_startproc
 1017              		@ args = 0, pretend = 0, frame = 8
 1018              		@ frame_needed = 0, uses_anonymous_args = 0
 468:D:/fchai/work/i-cube/I-CUBE-HUAWEI/Drivers/BSP/Components/lps22hh\lps22hh.c **** 
 1019              		.loc 1 468 3 view .LVU233
 470:D:/fchai/work/i-cube/I-CUBE-HUAWEI/Drivers/BSP/Components/lps22hh\lps22hh.c ****   if (lps22hh_temperature_raw_get(&(pObj->Ctx), data_raw_temperature.u8bit) != LPS22HH_OK)
 1020              		.loc 1 470 3 view .LVU234
 467:D:/fchai/work/i-cube/I-CUBE-HUAWEI/Drivers/BSP/Components/lps22hh\lps22hh.c ****   lps22hh_axis1bit16_t data_raw_temperature;
 1021              		.loc 1 467 1 is_stmt 0 view .LVU235
 1022 0000 30B5     		push	{r4, r5, lr}
 1023              	.LCFI29:
 1024              		.cfi_def_cfa_offset 12
 1025              		.cfi_offset 4, -12
 1026              		.cfi_offset 5, -8
 1027              		.cfi_offset 14, -4
 1028 0002 83B0     		sub	sp, sp, #12
 1029              	.LCFI30:
 1030              		.cfi_def_cfa_offset 24
 467:D:/fchai/work/i-cube/I-CUBE-HUAWEI/Drivers/BSP/Components/lps22hh\lps22hh.c ****   lps22hh_axis1bit16_t data_raw_temperature;
 1031              		.loc 1 467 1 view .LVU236
 1032 0004 0D46     		mov	r5, r1
 470:D:/fchai/work/i-cube/I-CUBE-HUAWEI/Drivers/BSP/Components/lps22hh\lps22hh.c ****   if (lps22hh_temperature_raw_get(&(pObj->Ctx), data_raw_temperature.u8bit) != LPS22HH_OK)
 1033              		.loc 1 470 9 view .LVU237
 1034 0006 0022     		movs	r2, #0
 471:D:/fchai/work/i-cube/I-CUBE-HUAWEI/Drivers/BSP/Components/lps22hh\lps22hh.c ****   {
 1035              		.loc 1 471 7 view .LVU238
 1036 0008 1C30     		adds	r0, r0, #28
 1037              	.LVL77:
 471:D:/fchai/work/i-cube/I-CUBE-HUAWEI/Drivers/BSP/Components/lps22hh\lps22hh.c ****   {
 1038              		.loc 1 471 7 view .LVU239
 1039 000a 01A9     		add	r1, sp, #4
 1040              	.LVL78:
 470:D:/fchai/work/i-cube/I-CUBE-HUAWEI/Drivers/BSP/Components/lps22hh\lps22hh.c ****   if (lps22hh_temperature_raw_get(&(pObj->Ctx), data_raw_temperature.u8bit) != LPS22HH_OK)
 1041              		.loc 1 470 9 view .LVU240
 1042 000c ADF80420 		strh	r2, [sp, #4]	@ movhi
 471:D:/fchai/work/i-cube/I-CUBE-HUAWEI/Drivers/BSP/Components/lps22hh\lps22hh.c ****   {
 1043              		.loc 1 471 3 is_stmt 1 view .LVU241
 471:D:/fchai/work/i-cube/I-CUBE-HUAWEI/Drivers/BSP/Components/lps22hh\lps22hh.c ****   {
 1044              		.loc 1 471 7 is_stmt 0 view .LVU242
 1045 0010 FFF7FEFF 		bl	lps22hh_temperature_raw_get
 1046              	.LVL79:
 471:D:/fchai/work/i-cube/I-CUBE-HUAWEI/Drivers/BSP/Components/lps22hh\lps22hh.c ****   {
 1047              		.loc 1 471 6 view .LVU243
 1048 0014 48B9     		cbnz	r0, .L82
 476:D:/fchai/work/i-cube/I-CUBE-HUAWEI/Drivers/BSP/Components/lps22hh\lps22hh.c **** 
 1049              		.loc 1 476 3 is_stmt 1 view .LVU244
 1050 0016 0446     		mov	r4, r0
 476:D:/fchai/work/i-cube/I-CUBE-HUAWEI/Drivers/BSP/Components/lps22hh\lps22hh.c **** 
ARM GAS  T:\msys\tmp\cc7XUJLO.s 			page 42


 1051              		.loc 1 476 12 is_stmt 0 view .LVU245
 1052 0018 BDF90400 		ldrsh	r0, [sp, #4]
 1053 001c FFF7FEFF 		bl	lps22hh_from_lsb_to_celsius
 1054              	.LVL80:
 476:D:/fchai/work/i-cube/I-CUBE-HUAWEI/Drivers/BSP/Components/lps22hh\lps22hh.c **** 
 1055              		.loc 1 476 10 view .LVU246
 1056 0020 85ED000A 		vstr.32	s0, [r5]
 478:D:/fchai/work/i-cube/I-CUBE-HUAWEI/Drivers/BSP/Components/lps22hh\lps22hh.c **** }
 1057              		.loc 1 478 3 is_stmt 1 view .LVU247
 1058              	.L80:
 479:D:/fchai/work/i-cube/I-CUBE-HUAWEI/Drivers/BSP/Components/lps22hh\lps22hh.c **** 
 1059              		.loc 1 479 1 is_stmt 0 view .LVU248
 1060 0024 2046     		mov	r0, r4
 1061 0026 03B0     		add	sp, sp, #12
 1062              	.LCFI31:
 1063              		.cfi_remember_state
 1064              		.cfi_def_cfa_offset 12
 1065              		@ sp needed
 1066 0028 30BD     		pop	{r4, r5, pc}
 1067              	.LVL81:
 1068              	.L82:
 1069              	.LCFI32:
 1070              		.cfi_restore_state
 473:D:/fchai/work/i-cube/I-CUBE-HUAWEI/Drivers/BSP/Components/lps22hh\lps22hh.c ****   }
 1071              		.loc 1 473 12 view .LVU249
 1072 002a 4FF0FF34 		mov	r4, #-1
 1073 002e F9E7     		b	.L80
 1074              		.cfi_endproc
 1075              	.LFE16:
 1077              		.section	.text.LPS22HH_PRESS_Enable,"ax",%progbits
 1078              		.align	1
 1079              		.p2align 2,,3
 1080              		.global	LPS22HH_PRESS_Enable
 1081              		.syntax unified
 1082              		.thumb
 1083              		.thumb_func
 1084              		.fpu fpv4-sp-d16
 1086              	LPS22HH_PRESS_Enable:
 1087              	.LVL82:
 1088              	.LFB6:
 251:D:/fchai/work/i-cube/I-CUBE-HUAWEI/Drivers/BSP/Components/lps22hh\lps22hh.c ****   /* Check if the component is already enabled */
 1089              		.loc 1 251 1 is_stmt 1 view -0
 1090              		.cfi_startproc
 1091              		@ args = 0, pretend = 0, frame = 0
 1092              		@ frame_needed = 0, uses_anonymous_args = 0
 253:D:/fchai/work/i-cube/I-CUBE-HUAWEI/Drivers/BSP/Components/lps22hh\lps22hh.c ****   {
 1093              		.loc 1 253 3 view .LVU251
 253:D:/fchai/work/i-cube/I-CUBE-HUAWEI/Drivers/BSP/Components/lps22hh\lps22hh.c ****   {
 1094              		.loc 1 253 6 is_stmt 0 view .LVU252
 1095 0000 90F82930 		ldrb	r3, [r0, #41]	@ zero_extendqisi2
 1096 0004 012B     		cmp	r3, #1
 1097 0006 0BD0     		beq	.L86
 1098              	.LVL83:
 1099              	.LBB35:
 1100              	.LBI35:
 250:D:/fchai/work/i-cube/I-CUBE-HUAWEI/Drivers/BSP/Components/lps22hh\lps22hh.c **** {
 1101              		.loc 1 250 9 is_stmt 1 view .LVU253
ARM GAS  T:\msys\tmp\cc7XUJLO.s 			page 43


 1102              	.LBB36:
 259:D:/fchai/work/i-cube/I-CUBE-HUAWEI/Drivers/BSP/Components/lps22hh\lps22hh.c ****   {
 1103              		.loc 1 259 3 view .LVU254
 1104              	.LBE36:
 1105              	.LBE35:
 251:D:/fchai/work/i-cube/I-CUBE-HUAWEI/Drivers/BSP/Components/lps22hh\lps22hh.c ****   /* Check if the component is already enabled */
 1106              		.loc 1 251 1 is_stmt 0 view .LVU255
 1107 0008 10B5     		push	{r4, lr}
 1108              	.LCFI33:
 1109              		.cfi_def_cfa_offset 8
 1110              		.cfi_offset 4, -8
 1111              		.cfi_offset 14, -4
 1112 000a 0446     		mov	r4, r0
 1113              	.LBB39:
 1114              	.LBB37:
 259:D:/fchai/work/i-cube/I-CUBE-HUAWEI/Drivers/BSP/Components/lps22hh\lps22hh.c ****   {
 1115              		.loc 1 259 7 view .LVU256
 1116 000c 90F82B10 		ldrb	r1, [r0, #43]	@ zero_extendqisi2
 1117 0010 1C30     		adds	r0, r0, #28
 1118              	.LVL84:
 259:D:/fchai/work/i-cube/I-CUBE-HUAWEI/Drivers/BSP/Components/lps22hh\lps22hh.c ****   {
 1119              		.loc 1 259 7 view .LVU257
 1120 0012 FFF7FEFF 		bl	lps22hh_data_rate_set
 1121              	.LVL85:
 259:D:/fchai/work/i-cube/I-CUBE-HUAWEI/Drivers/BSP/Components/lps22hh\lps22hh.c ****   {
 1122              		.loc 1 259 6 view .LVU258
 1123 0016 28B9     		cbnz	r0, .L87
 264:D:/fchai/work/i-cube/I-CUBE-HUAWEI/Drivers/BSP/Components/lps22hh\lps22hh.c **** 
 1124              		.loc 1 264 3 is_stmt 1 view .LVU259
 264:D:/fchai/work/i-cube/I-CUBE-HUAWEI/Drivers/BSP/Components/lps22hh\lps22hh.c **** 
 1125              		.loc 1 264 26 is_stmt 0 view .LVU260
 1126 0018 0123     		movs	r3, #1
 1127 001a 84F82930 		strb	r3, [r4, #41]
 266:D:/fchai/work/i-cube/I-CUBE-HUAWEI/Drivers/BSP/Components/lps22hh\lps22hh.c **** }
 1128              		.loc 1 266 3 is_stmt 1 view .LVU261
 1129              	.LBE37:
 1130              	.LBE39:
 267:D:/fchai/work/i-cube/I-CUBE-HUAWEI/Drivers/BSP/Components/lps22hh\lps22hh.c **** 
 1131              		.loc 1 267 1 is_stmt 0 view .LVU262
 1132 001e 10BD     		pop	{r4, pc}
 1133              	.LVL86:
 1134              	.L86:
 1135              	.LCFI34:
 1136              		.cfi_def_cfa_offset 0
 1137              		.cfi_restore 4
 1138              		.cfi_restore 14
 255:D:/fchai/work/i-cube/I-CUBE-HUAWEI/Drivers/BSP/Components/lps22hh\lps22hh.c ****   }
 1139              		.loc 1 255 12 view .LVU263
 1140 0020 0020     		movs	r0, #0
 1141              	.LVL87:
 267:D:/fchai/work/i-cube/I-CUBE-HUAWEI/Drivers/BSP/Components/lps22hh\lps22hh.c **** 
 1142              		.loc 1 267 1 view .LVU264
 1143 0022 7047     		bx	lr
 1144              	.LVL88:
 1145              	.L87:
 1146              	.LCFI35:
 1147              		.cfi_def_cfa_offset 8
ARM GAS  T:\msys\tmp\cc7XUJLO.s 			page 44


 1148              		.cfi_offset 4, -8
 1149              		.cfi_offset 14, -4
 1150              	.LBB40:
 1151              	.LBB38:
 261:D:/fchai/work/i-cube/I-CUBE-HUAWEI/Drivers/BSP/Components/lps22hh\lps22hh.c ****   }
 1152              		.loc 1 261 12 view .LVU265
 1153 0024 4FF0FF30 		mov	r0, #-1
 1154              	.LVL89:
 261:D:/fchai/work/i-cube/I-CUBE-HUAWEI/Drivers/BSP/Components/lps22hh\lps22hh.c ****   }
 1155              		.loc 1 261 12 view .LVU266
 1156              	.LBE38:
 1157              	.LBE40:
 267:D:/fchai/work/i-cube/I-CUBE-HUAWEI/Drivers/BSP/Components/lps22hh\lps22hh.c **** 
 1158              		.loc 1 267 1 view .LVU267
 1159 0028 10BD     		pop	{r4, pc}
 267:D:/fchai/work/i-cube/I-CUBE-HUAWEI/Drivers/BSP/Components/lps22hh\lps22hh.c **** 
 1160              		.loc 1 267 1 view .LVU268
 1161              		.cfi_endproc
 1162              	.LFE6:
 1164 002a 00BF     		.section	.text.LPS22HH_TEMP_Enable,"ax",%progbits
 1165              		.align	1
 1166              		.p2align 2,,3
 1167              		.global	LPS22HH_TEMP_Enable
 1168              		.syntax unified
 1169              		.thumb
 1170              		.thumb_func
 1171              		.fpu fpv4-sp-d16
 1173              	LPS22HH_TEMP_Enable:
 1174              	.LVL90:
 1175              	.LFB12:
 377:D:/fchai/work/i-cube/I-CUBE-HUAWEI/Drivers/BSP/Components/lps22hh\lps22hh.c ****   /* Check if the component is already enabled */
 1176              		.loc 1 377 1 is_stmt 1 view -0
 1177              		.cfi_startproc
 1178              		@ args = 0, pretend = 0, frame = 0
 1179              		@ frame_needed = 0, uses_anonymous_args = 0
 379:D:/fchai/work/i-cube/I-CUBE-HUAWEI/Drivers/BSP/Components/lps22hh\lps22hh.c ****   {
 1180              		.loc 1 379 3 view .LVU270
 379:D:/fchai/work/i-cube/I-CUBE-HUAWEI/Drivers/BSP/Components/lps22hh\lps22hh.c ****   {
 1181              		.loc 1 379 6 is_stmt 0 view .LVU271
 1182 0000 90F82A30 		ldrb	r3, [r0, #42]	@ zero_extendqisi2
 1183 0004 012B     		cmp	r3, #1
 1184 0006 0BD0     		beq	.L94
 1185              	.LVL91:
 1186              	.LBB43:
 1187              	.LBI43:
 376:D:/fchai/work/i-cube/I-CUBE-HUAWEI/Drivers/BSP/Components/lps22hh\lps22hh.c **** {
 1188              		.loc 1 376 9 is_stmt 1 view .LVU272
 1189              	.LBB44:
 385:D:/fchai/work/i-cube/I-CUBE-HUAWEI/Drivers/BSP/Components/lps22hh\lps22hh.c ****   {
 1190              		.loc 1 385 3 view .LVU273
 1191              	.LBE44:
 1192              	.LBE43:
 377:D:/fchai/work/i-cube/I-CUBE-HUAWEI/Drivers/BSP/Components/lps22hh\lps22hh.c ****   /* Check if the component is already enabled */
 1193              		.loc 1 377 1 is_stmt 0 view .LVU274
 1194 0008 10B5     		push	{r4, lr}
 1195              	.LCFI36:
 1196              		.cfi_def_cfa_offset 8
ARM GAS  T:\msys\tmp\cc7XUJLO.s 			page 45


 1197              		.cfi_offset 4, -8
 1198              		.cfi_offset 14, -4
 1199 000a 0446     		mov	r4, r0
 1200              	.LBB47:
 1201              	.LBB45:
 385:D:/fchai/work/i-cube/I-CUBE-HUAWEI/Drivers/BSP/Components/lps22hh\lps22hh.c ****   {
 1202              		.loc 1 385 7 view .LVU275
 1203 000c 90F82B10 		ldrb	r1, [r0, #43]	@ zero_extendqisi2
 1204 0010 1C30     		adds	r0, r0, #28
 1205              	.LVL92:
 385:D:/fchai/work/i-cube/I-CUBE-HUAWEI/Drivers/BSP/Components/lps22hh\lps22hh.c ****   {
 1206              		.loc 1 385 7 view .LVU276
 1207 0012 FFF7FEFF 		bl	lps22hh_data_rate_set
 1208              	.LVL93:
 385:D:/fchai/work/i-cube/I-CUBE-HUAWEI/Drivers/BSP/Components/lps22hh\lps22hh.c ****   {
 1209              		.loc 1 385 6 view .LVU277
 1210 0016 28B9     		cbnz	r0, .L95
 390:D:/fchai/work/i-cube/I-CUBE-HUAWEI/Drivers/BSP/Components/lps22hh\lps22hh.c **** 
 1211              		.loc 1 390 3 is_stmt 1 view .LVU278
 390:D:/fchai/work/i-cube/I-CUBE-HUAWEI/Drivers/BSP/Components/lps22hh\lps22hh.c **** 
 1212              		.loc 1 390 25 is_stmt 0 view .LVU279
 1213 0018 0123     		movs	r3, #1
 1214 001a 84F82A30 		strb	r3, [r4, #42]
 392:D:/fchai/work/i-cube/I-CUBE-HUAWEI/Drivers/BSP/Components/lps22hh\lps22hh.c **** }
 1215              		.loc 1 392 3 is_stmt 1 view .LVU280
 1216              	.LBE45:
 1217              	.LBE47:
 393:D:/fchai/work/i-cube/I-CUBE-HUAWEI/Drivers/BSP/Components/lps22hh\lps22hh.c **** 
 1218              		.loc 1 393 1 is_stmt 0 view .LVU281
 1219 001e 10BD     		pop	{r4, pc}
 1220              	.LVL94:
 1221              	.L94:
 1222              	.LCFI37:
 1223              		.cfi_def_cfa_offset 0
 1224              		.cfi_restore 4
 1225              		.cfi_restore 14
 381:D:/fchai/work/i-cube/I-CUBE-HUAWEI/Drivers/BSP/Components/lps22hh\lps22hh.c ****   }
 1226              		.loc 1 381 12 view .LVU282
 1227 0020 0020     		movs	r0, #0
 1228              	.LVL95:
 393:D:/fchai/work/i-cube/I-CUBE-HUAWEI/Drivers/BSP/Components/lps22hh\lps22hh.c **** 
 1229              		.loc 1 393 1 view .LVU283
 1230 0022 7047     		bx	lr
 1231              	.LVL96:
 1232              	.L95:
 1233              	.LCFI38:
 1234              		.cfi_def_cfa_offset 8
 1235              		.cfi_offset 4, -8
 1236              		.cfi_offset 14, -4
 1237              	.LBB48:
 1238              	.LBB46:
 387:D:/fchai/work/i-cube/I-CUBE-HUAWEI/Drivers/BSP/Components/lps22hh\lps22hh.c ****   }
 1239              		.loc 1 387 12 view .LVU284
 1240 0024 4FF0FF30 		mov	r0, #-1
 1241              	.LVL97:
 387:D:/fchai/work/i-cube/I-CUBE-HUAWEI/Drivers/BSP/Components/lps22hh\lps22hh.c ****   }
 1242              		.loc 1 387 12 view .LVU285
ARM GAS  T:\msys\tmp\cc7XUJLO.s 			page 46


 1243              	.LBE46:
 1244              	.LBE48:
 393:D:/fchai/work/i-cube/I-CUBE-HUAWEI/Drivers/BSP/Components/lps22hh\lps22hh.c **** 
 1245              		.loc 1 393 1 view .LVU286
 1246 0028 10BD     		pop	{r4, pc}
 393:D:/fchai/work/i-cube/I-CUBE-HUAWEI/Drivers/BSP/Components/lps22hh\lps22hh.c **** 
 1247              		.loc 1 393 1 view .LVU287
 1248              		.cfi_endproc
 1249              	.LFE12:
 1251 002a 00BF     		.section	.text.LPS22HH_PRESS_Disable.part.0,"ax",%progbits
 1252              		.align	1
 1253              		.p2align 2,,3
 1254              		.syntax unified
 1255              		.thumb
 1256              		.thumb_func
 1257              		.fpu fpv4-sp-d16
 1259              	LPS22HH_PRESS_Disable.part.0:
 1260              	.LVL98:
 1261              	.LFB45:
 274:D:/fchai/work/i-cube/I-CUBE-HUAWEI/Drivers/BSP/Components/lps22hh\lps22hh.c **** {
 1262              		.loc 1 274 9 is_stmt 1 view -0
 1263              		.cfi_startproc
 1264              		@ args = 0, pretend = 0, frame = 0
 1265              		@ frame_needed = 0, uses_anonymous_args = 0
 284:D:/fchai/work/i-cube/I-CUBE-HUAWEI/Drivers/BSP/Components/lps22hh\lps22hh.c ****   {
 1266              		.loc 1 284 3 view .LVU289
 274:D:/fchai/work/i-cube/I-CUBE-HUAWEI/Drivers/BSP/Components/lps22hh\lps22hh.c **** {
 1267              		.loc 1 274 9 is_stmt 0 view .LVU290
 1268 0000 38B5     		push	{r3, r4, r5, lr}
 1269              	.LCFI39:
 1270              		.cfi_def_cfa_offset 16
 1271              		.cfi_offset 3, -16
 1272              		.cfi_offset 4, -12
 1273              		.cfi_offset 5, -8
 1274              		.cfi_offset 14, -4
 284:D:/fchai/work/i-cube/I-CUBE-HUAWEI/Drivers/BSP/Components/lps22hh\lps22hh.c ****   {
 1275              		.loc 1 284 6 view .LVU291
 1276 0002 90F82A30 		ldrb	r3, [r0, #42]	@ zero_extendqisi2
 274:D:/fchai/work/i-cube/I-CUBE-HUAWEI/Drivers/BSP/Components/lps22hh\lps22hh.c **** {
 1277              		.loc 1 274 9 view .LVU292
 1278 0006 0446     		mov	r4, r0
 284:D:/fchai/work/i-cube/I-CUBE-HUAWEI/Drivers/BSP/Components/lps22hh\lps22hh.c ****   {
 1279              		.loc 1 284 6 view .LVU293
 1280 0008 1BB1     		cbz	r3, .L101
 1281              	.LVL99:
 1282              	.L105:
 299:D:/fchai/work/i-cube/I-CUBE-HUAWEI/Drivers/BSP/Components/lps22hh\lps22hh.c **** 
 1283              		.loc 1 299 3 is_stmt 1 view .LVU294
 299:D:/fchai/work/i-cube/I-CUBE-HUAWEI/Drivers/BSP/Components/lps22hh\lps22hh.c **** 
 1284              		.loc 1 299 26 is_stmt 0 view .LVU295
 1285 000a 0020     		movs	r0, #0
 1286 000c 84F82900 		strb	r0, [r4, #41]
 301:D:/fchai/work/i-cube/I-CUBE-HUAWEI/Drivers/BSP/Components/lps22hh\lps22hh.c **** }
 1287              		.loc 1 301 3 is_stmt 1 view .LVU296
 302:D:/fchai/work/i-cube/I-CUBE-HUAWEI/Drivers/BSP/Components/lps22hh\lps22hh.c **** 
 1288              		.loc 1 302 1 is_stmt 0 view .LVU297
 1289 0010 38BD     		pop	{r3, r4, r5, pc}
ARM GAS  T:\msys\tmp\cc7XUJLO.s 			page 47


 1290              	.LVL100:
 1291              	.L101:
 287:D:/fchai/work/i-cube/I-CUBE-HUAWEI/Drivers/BSP/Components/lps22hh\lps22hh.c ****     {
 1292              		.loc 1 287 5 is_stmt 1 view .LVU298
 287:D:/fchai/work/i-cube/I-CUBE-HUAWEI/Drivers/BSP/Components/lps22hh\lps22hh.c ****     {
 1293              		.loc 1 287 9 is_stmt 0 view .LVU299
 1294 0012 00F11C05 		add	r5, r0, #28
 1295 0016 04F12B01 		add	r1, r4, #43
 1296 001a 2846     		mov	r0, r5
 1297              	.LVL101:
 287:D:/fchai/work/i-cube/I-CUBE-HUAWEI/Drivers/BSP/Components/lps22hh\lps22hh.c ****     {
 1298              		.loc 1 287 9 view .LVU300
 1299 001c FFF7FEFF 		bl	lps22hh_data_rate_get
 1300              	.LVL102:
 287:D:/fchai/work/i-cube/I-CUBE-HUAWEI/Drivers/BSP/Components/lps22hh\lps22hh.c ****     {
 1301              		.loc 1 287 8 view .LVU301
 1302 0020 0146     		mov	r1, r0
 1303 0022 20B9     		cbnz	r0, .L104
 293:D:/fchai/work/i-cube/I-CUBE-HUAWEI/Drivers/BSP/Components/lps22hh\lps22hh.c ****     {
 1304              		.loc 1 293 5 is_stmt 1 view .LVU302
 293:D:/fchai/work/i-cube/I-CUBE-HUAWEI/Drivers/BSP/Components/lps22hh\lps22hh.c ****     {
 1305              		.loc 1 293 9 is_stmt 0 view .LVU303
 1306 0024 2846     		mov	r0, r5
 1307 0026 FFF7FEFF 		bl	lps22hh_data_rate_set
 1308              	.LVL103:
 293:D:/fchai/work/i-cube/I-CUBE-HUAWEI/Drivers/BSP/Components/lps22hh\lps22hh.c ****     {
 1309              		.loc 1 293 8 view .LVU304
 1310 002a 0028     		cmp	r0, #0
 1311 002c EDD0     		beq	.L105
 1312              	.L104:
 289:D:/fchai/work/i-cube/I-CUBE-HUAWEI/Drivers/BSP/Components/lps22hh\lps22hh.c ****     }
 1313              		.loc 1 289 14 view .LVU305
 1314 002e 4FF0FF30 		mov	r0, #-1
 302:D:/fchai/work/i-cube/I-CUBE-HUAWEI/Drivers/BSP/Components/lps22hh\lps22hh.c **** 
 1315              		.loc 1 302 1 view .LVU306
 1316 0032 38BD     		pop	{r3, r4, r5, pc}
 302:D:/fchai/work/i-cube/I-CUBE-HUAWEI/Drivers/BSP/Components/lps22hh\lps22hh.c **** 
 1317              		.loc 1 302 1 view .LVU307
 1318              		.cfi_endproc
 1319              	.LFE45:
 1321              		.section	.text.LPS22HH_PRESS_Disable,"ax",%progbits
 1322              		.align	1
 1323              		.p2align 2,,3
 1324              		.global	LPS22HH_PRESS_Disable
 1325              		.syntax unified
 1326              		.thumb
 1327              		.thumb_func
 1328              		.fpu fpv4-sp-d16
 1330              	LPS22HH_PRESS_Disable:
 1331              	.LVL104:
 1332              	.LFB7:
 275:D:/fchai/work/i-cube/I-CUBE-HUAWEI/Drivers/BSP/Components/lps22hh\lps22hh.c ****   /* Check if the component is already disabled */
 1333              		.loc 1 275 1 is_stmt 1 view -0
 1334              		.cfi_startproc
 1335              		@ args = 0, pretend = 0, frame = 0
 1336              		@ frame_needed = 0, uses_anonymous_args = 0
 1337              		@ link register save eliminated.
ARM GAS  T:\msys\tmp\cc7XUJLO.s 			page 48


 277:D:/fchai/work/i-cube/I-CUBE-HUAWEI/Drivers/BSP/Components/lps22hh\lps22hh.c ****   {
 1338              		.loc 1 277 3 view .LVU309
 277:D:/fchai/work/i-cube/I-CUBE-HUAWEI/Drivers/BSP/Components/lps22hh\lps22hh.c ****   {
 1339              		.loc 1 277 6 is_stmt 0 view .LVU310
 1340 0000 90F82930 		ldrb	r3, [r0, #41]	@ zero_extendqisi2
 1341 0004 0BB1     		cbz	r3, .L108
 1342 0006 FFF7FEBF 		b	LPS22HH_PRESS_Disable.part.0
 1343              	.LVL105:
 1344              	.L108:
 302:D:/fchai/work/i-cube/I-CUBE-HUAWEI/Drivers/BSP/Components/lps22hh\lps22hh.c **** 
 1345              		.loc 1 302 1 view .LVU311
 1346 000a 1846     		mov	r0, r3
 1347              	.LVL106:
 302:D:/fchai/work/i-cube/I-CUBE-HUAWEI/Drivers/BSP/Components/lps22hh\lps22hh.c **** 
 1348              		.loc 1 302 1 view .LVU312
 1349 000c 7047     		bx	lr
 1350              		.cfi_endproc
 1351              	.LFE7:
 1353 000e 00BF     		.section	.text.LPS22HH_TEMP_Disable.part.0,"ax",%progbits
 1354              		.align	1
 1355              		.p2align 2,,3
 1356              		.syntax unified
 1357              		.thumb
 1358              		.thumb_func
 1359              		.fpu fpv4-sp-d16
 1361              	LPS22HH_TEMP_Disable.part.0:
 1362              	.LVL107:
 1363              	.LFB46:
 400:D:/fchai/work/i-cube/I-CUBE-HUAWEI/Drivers/BSP/Components/lps22hh\lps22hh.c **** {
 1364              		.loc 1 400 9 is_stmt 1 view -0
 1365              		.cfi_startproc
 1366              		@ args = 0, pretend = 0, frame = 0
 1367              		@ frame_needed = 0, uses_anonymous_args = 0
 410:D:/fchai/work/i-cube/I-CUBE-HUAWEI/Drivers/BSP/Components/lps22hh\lps22hh.c ****   {
 1368              		.loc 1 410 3 view .LVU314
 400:D:/fchai/work/i-cube/I-CUBE-HUAWEI/Drivers/BSP/Components/lps22hh\lps22hh.c **** {
 1369              		.loc 1 400 9 is_stmt 0 view .LVU315
 1370 0000 38B5     		push	{r3, r4, r5, lr}
 1371              	.LCFI40:
 1372              		.cfi_def_cfa_offset 16
 1373              		.cfi_offset 3, -16
 1374              		.cfi_offset 4, -12
 1375              		.cfi_offset 5, -8
 1376              		.cfi_offset 14, -4
 410:D:/fchai/work/i-cube/I-CUBE-HUAWEI/Drivers/BSP/Components/lps22hh\lps22hh.c ****   {
 1377              		.loc 1 410 6 view .LVU316
 1378 0002 90F82930 		ldrb	r3, [r0, #41]	@ zero_extendqisi2
 400:D:/fchai/work/i-cube/I-CUBE-HUAWEI/Drivers/BSP/Components/lps22hh\lps22hh.c **** {
 1379              		.loc 1 400 9 view .LVU317
 1380 0006 0446     		mov	r4, r0
 410:D:/fchai/work/i-cube/I-CUBE-HUAWEI/Drivers/BSP/Components/lps22hh\lps22hh.c ****   {
 1381              		.loc 1 410 6 view .LVU318
 1382 0008 1BB1     		cbz	r3, .L110
 1383              	.LVL108:
 1384              	.L114:
 425:D:/fchai/work/i-cube/I-CUBE-HUAWEI/Drivers/BSP/Components/lps22hh\lps22hh.c **** 
 1385              		.loc 1 425 3 is_stmt 1 view .LVU319
ARM GAS  T:\msys\tmp\cc7XUJLO.s 			page 49


 425:D:/fchai/work/i-cube/I-CUBE-HUAWEI/Drivers/BSP/Components/lps22hh\lps22hh.c **** 
 1386              		.loc 1 425 25 is_stmt 0 view .LVU320
 1387 000a 0020     		movs	r0, #0
 1388 000c 84F82A00 		strb	r0, [r4, #42]
 427:D:/fchai/work/i-cube/I-CUBE-HUAWEI/Drivers/BSP/Components/lps22hh\lps22hh.c **** }
 1389              		.loc 1 427 3 is_stmt 1 view .LVU321
 428:D:/fchai/work/i-cube/I-CUBE-HUAWEI/Drivers/BSP/Components/lps22hh\lps22hh.c **** 
 1390              		.loc 1 428 1 is_stmt 0 view .LVU322
 1391 0010 38BD     		pop	{r3, r4, r5, pc}
 1392              	.LVL109:
 1393              	.L110:
 413:D:/fchai/work/i-cube/I-CUBE-HUAWEI/Drivers/BSP/Components/lps22hh\lps22hh.c ****     {
 1394              		.loc 1 413 5 is_stmt 1 view .LVU323
 413:D:/fchai/work/i-cube/I-CUBE-HUAWEI/Drivers/BSP/Components/lps22hh\lps22hh.c ****     {
 1395              		.loc 1 413 9 is_stmt 0 view .LVU324
 1396 0012 00F11C05 		add	r5, r0, #28
 1397 0016 04F12B01 		add	r1, r4, #43
 1398 001a 2846     		mov	r0, r5
 1399              	.LVL110:
 413:D:/fchai/work/i-cube/I-CUBE-HUAWEI/Drivers/BSP/Components/lps22hh\lps22hh.c ****     {
 1400              		.loc 1 413 9 view .LVU325
 1401 001c FFF7FEFF 		bl	lps22hh_data_rate_get
 1402              	.LVL111:
 413:D:/fchai/work/i-cube/I-CUBE-HUAWEI/Drivers/BSP/Components/lps22hh\lps22hh.c ****     {
 1403              		.loc 1 413 8 view .LVU326
 1404 0020 0146     		mov	r1, r0
 1405 0022 20B9     		cbnz	r0, .L113
 419:D:/fchai/work/i-cube/I-CUBE-HUAWEI/Drivers/BSP/Components/lps22hh\lps22hh.c ****     {
 1406              		.loc 1 419 5 is_stmt 1 view .LVU327
 419:D:/fchai/work/i-cube/I-CUBE-HUAWEI/Drivers/BSP/Components/lps22hh\lps22hh.c ****     {
 1407              		.loc 1 419 9 is_stmt 0 view .LVU328
 1408 0024 2846     		mov	r0, r5
 1409 0026 FFF7FEFF 		bl	lps22hh_data_rate_set
 1410              	.LVL112:
 419:D:/fchai/work/i-cube/I-CUBE-HUAWEI/Drivers/BSP/Components/lps22hh\lps22hh.c ****     {
 1411              		.loc 1 419 8 view .LVU329
 1412 002a 0028     		cmp	r0, #0
 1413 002c EDD0     		beq	.L114
 1414              	.L113:
 415:D:/fchai/work/i-cube/I-CUBE-HUAWEI/Drivers/BSP/Components/lps22hh\lps22hh.c ****     }
 1415              		.loc 1 415 14 view .LVU330
 1416 002e 4FF0FF30 		mov	r0, #-1
 428:D:/fchai/work/i-cube/I-CUBE-HUAWEI/Drivers/BSP/Components/lps22hh\lps22hh.c **** 
 1417              		.loc 1 428 1 view .LVU331
 1418 0032 38BD     		pop	{r3, r4, r5, pc}
 428:D:/fchai/work/i-cube/I-CUBE-HUAWEI/Drivers/BSP/Components/lps22hh\lps22hh.c **** 
 1419              		.loc 1 428 1 view .LVU332
 1420              		.cfi_endproc
 1421              	.LFE46:
 1423              		.section	.text.LPS22HH_TEMP_Disable,"ax",%progbits
 1424              		.align	1
 1425              		.p2align 2,,3
 1426              		.global	LPS22HH_TEMP_Disable
 1427              		.syntax unified
 1428              		.thumb
 1429              		.thumb_func
 1430              		.fpu fpv4-sp-d16
ARM GAS  T:\msys\tmp\cc7XUJLO.s 			page 50


 1432              	LPS22HH_TEMP_Disable:
 1433              	.LVL113:
 1434              	.LFB13:
 401:D:/fchai/work/i-cube/I-CUBE-HUAWEI/Drivers/BSP/Components/lps22hh\lps22hh.c ****   /* Check if the component is already disabled */
 1435              		.loc 1 401 1 is_stmt 1 view -0
 1436              		.cfi_startproc
 1437              		@ args = 0, pretend = 0, frame = 0
 1438              		@ frame_needed = 0, uses_anonymous_args = 0
 1439              		@ link register save eliminated.
 403:D:/fchai/work/i-cube/I-CUBE-HUAWEI/Drivers/BSP/Components/lps22hh\lps22hh.c ****   {
 1440              		.loc 1 403 3 view .LVU334
 403:D:/fchai/work/i-cube/I-CUBE-HUAWEI/Drivers/BSP/Components/lps22hh\lps22hh.c ****   {
 1441              		.loc 1 403 6 is_stmt 0 view .LVU335
 1442 0000 90F82A30 		ldrb	r3, [r0, #42]	@ zero_extendqisi2
 1443 0004 0BB1     		cbz	r3, .L117
 1444 0006 FFF7FEBF 		b	LPS22HH_TEMP_Disable.part.0
 1445              	.LVL114:
 1446              	.L117:
 428:D:/fchai/work/i-cube/I-CUBE-HUAWEI/Drivers/BSP/Components/lps22hh\lps22hh.c **** 
 1447              		.loc 1 428 1 view .LVU336
 1448 000a 1846     		mov	r0, r3
 1449              	.LVL115:
 428:D:/fchai/work/i-cube/I-CUBE-HUAWEI/Drivers/BSP/Components/lps22hh\lps22hh.c **** 
 1450              		.loc 1 428 1 view .LVU337
 1451 000c 7047     		bx	lr
 1452              		.cfi_endproc
 1453              	.LFE13:
 1455 000e 00BF     		.section	.text.LPS22HH_DeInit,"ax",%progbits
 1456              		.align	1
 1457              		.p2align 2,,3
 1458              		.global	LPS22HH_DeInit
 1459              		.syntax unified
 1460              		.thumb
 1461              		.thumb_func
 1462              		.fpu fpv4-sp-d16
 1464              	LPS22HH_DeInit:
 1465              	.LVL116:
 1466              	.LFB2:
 171:D:/fchai/work/i-cube/I-CUBE-HUAWEI/Drivers/BSP/Components/lps22hh\lps22hh.c ****   if (pObj->is_initialized == 1U)
 1467              		.loc 1 171 1 is_stmt 1 view -0
 1468              		.cfi_startproc
 1469              		@ args = 0, pretend = 0, frame = 0
 1470              		@ frame_needed = 0, uses_anonymous_args = 0
 172:D:/fchai/work/i-cube/I-CUBE-HUAWEI/Drivers/BSP/Components/lps22hh\lps22hh.c ****   {
 1471              		.loc 1 172 3 view .LVU339
 171:D:/fchai/work/i-cube/I-CUBE-HUAWEI/Drivers/BSP/Components/lps22hh\lps22hh.c ****   if (pObj->is_initialized == 1U)
 1472              		.loc 1 171 1 is_stmt 0 view .LVU340
 1473 0000 10B5     		push	{r4, lr}
 1474              	.LCFI41:
 1475              		.cfi_def_cfa_offset 8
 1476              		.cfi_offset 4, -8
 1477              		.cfi_offset 14, -4
 172:D:/fchai/work/i-cube/I-CUBE-HUAWEI/Drivers/BSP/Components/lps22hh\lps22hh.c ****   {
 1478              		.loc 1 172 6 view .LVU341
 1479 0002 90F82830 		ldrb	r3, [r0, #40]	@ zero_extendqisi2
 1480 0006 012B     		cmp	r3, #1
 171:D:/fchai/work/i-cube/I-CUBE-HUAWEI/Drivers/BSP/Components/lps22hh\lps22hh.c ****   if (pObj->is_initialized == 1U)
ARM GAS  T:\msys\tmp\cc7XUJLO.s 			page 51


 1481              		.loc 1 171 1 view .LVU342
 1482 0008 0446     		mov	r4, r0
 172:D:/fchai/work/i-cube/I-CUBE-HUAWEI/Drivers/BSP/Components/lps22hh\lps22hh.c ****   {
 1483              		.loc 1 172 6 view .LVU343
 1484 000a 03D0     		beq	.L119
 1485              	.LVL117:
 1486              	.L122:
 185:D:/fchai/work/i-cube/I-CUBE-HUAWEI/Drivers/BSP/Components/lps22hh\lps22hh.c **** 
 1487              		.loc 1 185 3 is_stmt 1 view .LVU344
 185:D:/fchai/work/i-cube/I-CUBE-HUAWEI/Drivers/BSP/Components/lps22hh\lps22hh.c **** 
 1488              		.loc 1 185 24 is_stmt 0 view .LVU345
 1489 000c 0020     		movs	r0, #0
 1490 000e 84F82800 		strb	r0, [r4, #40]
 187:D:/fchai/work/i-cube/I-CUBE-HUAWEI/Drivers/BSP/Components/lps22hh\lps22hh.c **** }
 1491              		.loc 1 187 3 is_stmt 1 view .LVU346
 188:D:/fchai/work/i-cube/I-CUBE-HUAWEI/Drivers/BSP/Components/lps22hh\lps22hh.c **** 
 1492              		.loc 1 188 1 is_stmt 0 view .LVU347
 1493 0012 10BD     		pop	{r4, pc}
 1494              	.LVL118:
 1495              	.L119:
 174:D:/fchai/work/i-cube/I-CUBE-HUAWEI/Drivers/BSP/Components/lps22hh\lps22hh.c ****     {
 1496              		.loc 1 174 5 is_stmt 1 view .LVU348
 1497              	.LBB49:
 1498              	.LBI49:
 274:D:/fchai/work/i-cube/I-CUBE-HUAWEI/Drivers/BSP/Components/lps22hh\lps22hh.c **** {
 1499              		.loc 1 274 9 view .LVU349
 1500              	.LBB50:
 277:D:/fchai/work/i-cube/I-CUBE-HUAWEI/Drivers/BSP/Components/lps22hh\lps22hh.c ****   {
 1501              		.loc 1 277 3 view .LVU350
 277:D:/fchai/work/i-cube/I-CUBE-HUAWEI/Drivers/BSP/Components/lps22hh\lps22hh.c ****   {
 1502              		.loc 1 277 6 is_stmt 0 view .LVU351
 1503 0014 90F82930 		ldrb	r3, [r0, #41]	@ zero_extendqisi2
 1504 0018 13B1     		cbz	r3, .L124
 1505 001a FFF7FEFF 		bl	LPS22HH_PRESS_Disable.part.0
 1506              	.LVL119:
 277:D:/fchai/work/i-cube/I-CUBE-HUAWEI/Drivers/BSP/Components/lps22hh\lps22hh.c ****   {
 1507              		.loc 1 277 6 view .LVU352
 1508              	.LBE50:
 1509              	.LBE49:
 174:D:/fchai/work/i-cube/I-CUBE-HUAWEI/Drivers/BSP/Components/lps22hh\lps22hh.c ****     {
 1510              		.loc 1 174 8 view .LVU353
 1511 001e 40B9     		cbnz	r0, .L125
 1512              	.L124:
 179:D:/fchai/work/i-cube/I-CUBE-HUAWEI/Drivers/BSP/Components/lps22hh\lps22hh.c ****     {
 1513              		.loc 1 179 5 is_stmt 1 view .LVU354
 1514              	.LVL120:
 1515              	.LBB51:
 1516              	.LBI51:
 400:D:/fchai/work/i-cube/I-CUBE-HUAWEI/Drivers/BSP/Components/lps22hh\lps22hh.c **** {
 1517              		.loc 1 400 9 view .LVU355
 1518              	.LBB52:
 403:D:/fchai/work/i-cube/I-CUBE-HUAWEI/Drivers/BSP/Components/lps22hh\lps22hh.c ****   {
 1519              		.loc 1 403 3 view .LVU356
 403:D:/fchai/work/i-cube/I-CUBE-HUAWEI/Drivers/BSP/Components/lps22hh\lps22hh.c ****   {
 1520              		.loc 1 403 6 is_stmt 0 view .LVU357
 1521 0020 94F82A30 		ldrb	r3, [r4, #42]	@ zero_extendqisi2
 1522 0024 002B     		cmp	r3, #0
ARM GAS  T:\msys\tmp\cc7XUJLO.s 			page 52


 1523 0026 F1D0     		beq	.L122
 1524 0028 2046     		mov	r0, r4
 1525 002a FFF7FEFF 		bl	LPS22HH_TEMP_Disable.part.0
 1526              	.LVL121:
 403:D:/fchai/work/i-cube/I-CUBE-HUAWEI/Drivers/BSP/Components/lps22hh\lps22hh.c ****   {
 1527              		.loc 1 403 6 view .LVU358
 1528              	.LBE52:
 1529              	.LBE51:
 179:D:/fchai/work/i-cube/I-CUBE-HUAWEI/Drivers/BSP/Components/lps22hh\lps22hh.c ****     {
 1530              		.loc 1 179 8 view .LVU359
 1531 002e 0028     		cmp	r0, #0
 1532 0030 ECD0     		beq	.L122
 1533              	.L125:
 176:D:/fchai/work/i-cube/I-CUBE-HUAWEI/Drivers/BSP/Components/lps22hh\lps22hh.c ****     }
 1534              		.loc 1 176 14 view .LVU360
 1535 0032 4FF0FF30 		mov	r0, #-1
 188:D:/fchai/work/i-cube/I-CUBE-HUAWEI/Drivers/BSP/Components/lps22hh\lps22hh.c **** 
 1536              		.loc 1 188 1 view .LVU361
 1537 0036 10BD     		pop	{r4, pc}
 188:D:/fchai/work/i-cube/I-CUBE-HUAWEI/Drivers/BSP/Components/lps22hh\lps22hh.c **** 
 1538              		.loc 1 188 1 view .LVU362
 1539              		.cfi_endproc
 1540              	.LFE2:
 1542              		.section	.text.LPS22HH_TEMP_GetOutputDataRate,"ax",%progbits
 1543              		.align	1
 1544              		.p2align 2,,3
 1545              		.global	LPS22HH_TEMP_GetOutputDataRate
 1546              		.syntax unified
 1547              		.thumb
 1548              		.thumb_func
 1549              		.fpu fpv4-sp-d16
 1551              	LPS22HH_TEMP_GetOutputDataRate:
 1552              	.LFB48:
 1553              		.cfi_startproc
 1554              		@ args = 0, pretend = 0, frame = 0
 1555              		@ frame_needed = 0, uses_anonymous_args = 0
 1556              		@ link register save eliminated.
 1557 0000 FFF7FEBF 		b	LPS22HH_GetOutputDataRate
 1558              		.cfi_endproc
 1559              	.LFE48:
 1561              		.section	.text.LPS22HH_RegisterBusIO,"ax",%progbits
 1562              		.align	1
 1563              		.p2align 2,,3
 1564              		.global	LPS22HH_RegisterBusIO
 1565              		.syntax unified
 1566              		.thumb
 1567              		.thumb_func
 1568              		.fpu fpv4-sp-d16
 1570              	LPS22HH_RegisterBusIO:
 1571              	.LVL122:
 1572              	.LFB0:
  94:D:/fchai/work/i-cube/I-CUBE-HUAWEI/Drivers/BSP/Components/lps22hh\lps22hh.c ****   int32_t ret = LPS22HH_OK;
 1573              		.loc 1 94 1 is_stmt 1 view -0
 1574              		.cfi_startproc
 1575              		@ args = 0, pretend = 0, frame = 8
 1576              		@ frame_needed = 0, uses_anonymous_args = 0
  95:D:/fchai/work/i-cube/I-CUBE-HUAWEI/Drivers/BSP/Components/lps22hh\lps22hh.c **** 
ARM GAS  T:\msys\tmp\cc7XUJLO.s 			page 53


 1577              		.loc 1 95 3 view .LVU364
  97:D:/fchai/work/i-cube/I-CUBE-HUAWEI/Drivers/BSP/Components/lps22hh\lps22hh.c ****   {
 1578              		.loc 1 97 3 view .LVU365
  97:D:/fchai/work/i-cube/I-CUBE-HUAWEI/Drivers/BSP/Components/lps22hh\lps22hh.c ****   {
 1579              		.loc 1 97 6 is_stmt 0 view .LVU366
 1580 0000 0028     		cmp	r0, #0
 1581 0002 34D0     		beq	.L146
 103:D:/fchai/work/i-cube/I-CUBE-HUAWEI/Drivers/BSP/Components/lps22hh\lps22hh.c ****     pObj->IO.DeInit    = pIO->DeInit;
 1582              		.loc 1 103 5 is_stmt 1 view .LVU367
  94:D:/fchai/work/i-cube/I-CUBE-HUAWEI/Drivers/BSP/Components/lps22hh\lps22hh.c ****   int32_t ret = LPS22HH_OK;
 1583              		.loc 1 94 1 is_stmt 0 view .LVU368
 1584 0004 30B5     		push	{r4, r5, lr}
 1585              	.LCFI42:
 1586              		.cfi_def_cfa_offset 12
 1587              		.cfi_offset 4, -12
 1588              		.cfi_offset 5, -8
 1589              		.cfi_offset 14, -4
 1590 0006 0446     		mov	r4, r0
 104:D:/fchai/work/i-cube/I-CUBE-HUAWEI/Drivers/BSP/Components/lps22hh\lps22hh.c ****     pObj->IO.BusType   = pIO->BusType;
 1591              		.loc 1 104 29 view .LVU369
 1592 0008 D1E90030 		ldrd	r3, r0, [r1]
 1593              	.LVL123:
 105:D:/fchai/work/i-cube/I-CUBE-HUAWEI/Drivers/BSP/Components/lps22hh\lps22hh.c ****     pObj->IO.Address   = pIO->Address;
 1594              		.loc 1 105 29 view .LVU370
 1595 000c 8A68     		ldr	r2, [r1, #8]
 105:D:/fchai/work/i-cube/I-CUBE-HUAWEI/Drivers/BSP/Components/lps22hh\lps22hh.c ****     pObj->IO.Address   = pIO->Address;
 1596              		.loc 1 105 24 view .LVU371
 1597 000e A260     		str	r2, [r4, #8]
 104:D:/fchai/work/i-cube/I-CUBE-HUAWEI/Drivers/BSP/Components/lps22hh\lps22hh.c ****     pObj->IO.BusType   = pIO->BusType;
 1598              		.loc 1 104 24 view .LVU372
 1599 0010 C4E90030 		strd	r3, r0, [r4]
 105:D:/fchai/work/i-cube/I-CUBE-HUAWEI/Drivers/BSP/Components/lps22hh\lps22hh.c ****     pObj->IO.Address   = pIO->Address;
 1600              		.loc 1 105 5 is_stmt 1 view .LVU373
 106:D:/fchai/work/i-cube/I-CUBE-HUAWEI/Drivers/BSP/Components/lps22hh\lps22hh.c ****     pObj->IO.WriteReg  = pIO->WriteReg;
 1601              		.loc 1 106 5 view .LVU374
 106:D:/fchai/work/i-cube/I-CUBE-HUAWEI/Drivers/BSP/Components/lps22hh\lps22hh.c ****     pObj->IO.WriteReg  = pIO->WriteReg;
 1602              		.loc 1 106 29 is_stmt 0 view .LVU375
 1603 0014 0A7B     		ldrb	r2, [r1, #12]	@ zero_extendqisi2
 106:D:/fchai/work/i-cube/I-CUBE-HUAWEI/Drivers/BSP/Components/lps22hh\lps22hh.c ****     pObj->IO.WriteReg  = pIO->WriteReg;
 1604              		.loc 1 106 24 view .LVU376
 1605 0016 2273     		strb	r2, [r4, #12]
 107:D:/fchai/work/i-cube/I-CUBE-HUAWEI/Drivers/BSP/Components/lps22hh\lps22hh.c ****     pObj->IO.ReadReg   = pIO->ReadReg;
 1606              		.loc 1 107 5 is_stmt 1 view .LVU377
 108:D:/fchai/work/i-cube/I-CUBE-HUAWEI/Drivers/BSP/Components/lps22hh\lps22hh.c ****     pObj->IO.GetTick   = pIO->GetTick;
 1607              		.loc 1 108 29 is_stmt 0 view .LVU378
 1608 0018 D1E90425 		ldrd	r2, r5, [r1, #16]
 109:D:/fchai/work/i-cube/I-CUBE-HUAWEI/Drivers/BSP/Components/lps22hh\lps22hh.c **** 
 1609              		.loc 1 109 29 view .LVU379
 1610 001c 8869     		ldr	r0, [r1, #24]
 111:D:/fchai/work/i-cube/I-CUBE-HUAWEI/Drivers/BSP/Components/lps22hh\lps22hh.c ****     pObj->Ctx.write_reg = WriteRegWrap;
 1611              		.loc 1 111 25 view .LVU380
 1612 001e 1549     		ldr	r1, .L148
 1613              	.LVL124:
 107:D:/fchai/work/i-cube/I-CUBE-HUAWEI/Drivers/BSP/Components/lps22hh\lps22hh.c ****     pObj->IO.ReadReg   = pIO->ReadReg;
 1614              		.loc 1 107 24 view .LVU381
 1615 0020 2261     		str	r2, [r4, #16]
 108:D:/fchai/work/i-cube/I-CUBE-HUAWEI/Drivers/BSP/Components/lps22hh\lps22hh.c ****     pObj->IO.GetTick   = pIO->GetTick;
ARM GAS  T:\msys\tmp\cc7XUJLO.s 			page 54


 1616              		.loc 1 108 5 is_stmt 1 view .LVU382
 112:D:/fchai/work/i-cube/I-CUBE-HUAWEI/Drivers/BSP/Components/lps22hh\lps22hh.c ****     pObj->Ctx.handle   = pObj;
 1617              		.loc 1 112 25 is_stmt 0 view .LVU383
 1618 0022 154A     		ldr	r2, .L148+4
 1619 0024 E261     		str	r2, [r4, #28]
 109:D:/fchai/work/i-cube/I-CUBE-HUAWEI/Drivers/BSP/Components/lps22hh\lps22hh.c **** 
 1620              		.loc 1 109 24 view .LVU384
 1621 0026 C4E90550 		strd	r5, r0, [r4, #20]
 111:D:/fchai/work/i-cube/I-CUBE-HUAWEI/Drivers/BSP/Components/lps22hh\lps22hh.c ****     pObj->Ctx.write_reg = WriteRegWrap;
 1622              		.loc 1 111 5 is_stmt 1 view .LVU385
 111:D:/fchai/work/i-cube/I-CUBE-HUAWEI/Drivers/BSP/Components/lps22hh\lps22hh.c ****     pObj->Ctx.write_reg = WriteRegWrap;
 1623              		.loc 1 111 25 is_stmt 0 view .LVU386
 1624 002a C4E90814 		strd	r1, r4, [r4, #32]
 112:D:/fchai/work/i-cube/I-CUBE-HUAWEI/Drivers/BSP/Components/lps22hh\lps22hh.c ****     pObj->Ctx.handle   = pObj;
 1625              		.loc 1 112 5 is_stmt 1 view .LVU387
 113:D:/fchai/work/i-cube/I-CUBE-HUAWEI/Drivers/BSP/Components/lps22hh\lps22hh.c **** 
 1626              		.loc 1 113 5 view .LVU388
 115:D:/fchai/work/i-cube/I-CUBE-HUAWEI/Drivers/BSP/Components/lps22hh\lps22hh.c ****     {
 1627              		.loc 1 115 5 view .LVU389
  94:D:/fchai/work/i-cube/I-CUBE-HUAWEI/Drivers/BSP/Components/lps22hh\lps22hh.c ****   int32_t ret = LPS22HH_OK;
 1628              		.loc 1 94 1 is_stmt 0 view .LVU390
 1629 002e 83B0     		sub	sp, sp, #12
 1630              	.LCFI43:
 1631              		.cfi_def_cfa_offset 24
 115:D:/fchai/work/i-cube/I-CUBE-HUAWEI/Drivers/BSP/Components/lps22hh\lps22hh.c ****     {
 1632              		.loc 1 115 8 view .LVU391
 1633 0030 D3B1     		cbz	r3, .L138
 119:D:/fchai/work/i-cube/I-CUBE-HUAWEI/Drivers/BSP/Components/lps22hh\lps22hh.c ****     {
 1634              		.loc 1 119 10 is_stmt 1 view .LVU392
 119:D:/fchai/work/i-cube/I-CUBE-HUAWEI/Drivers/BSP/Components/lps22hh\lps22hh.c ****     {
 1635              		.loc 1 119 14 is_stmt 0 view .LVU393
 1636 0032 9847     		blx	r3
 1637              	.LVL125:
 119:D:/fchai/work/i-cube/I-CUBE-HUAWEI/Drivers/BSP/Components/lps22hh\lps22hh.c ****     {
 1638              		.loc 1 119 13 view .LVU394
 1639 0034 C0B9     		cbnz	r0, .L138
 125:D:/fchai/work/i-cube/I-CUBE-HUAWEI/Drivers/BSP/Components/lps22hh\lps22hh.c ****       {
 1640              		.loc 1 125 7 is_stmt 1 view .LVU395
 125:D:/fchai/work/i-cube/I-CUBE-HUAWEI/Drivers/BSP/Components/lps22hh\lps22hh.c ****       {
 1641              		.loc 1 125 10 is_stmt 0 view .LVU396
 1642 0036 A368     		ldr	r3, [r4, #8]
 1643 0038 022B     		cmp	r3, #2
 1644 003a 01D0     		beq	.L147
 1645              	.L135:
 143:D:/fchai/work/i-cube/I-CUBE-HUAWEI/Drivers/BSP/Components/lps22hh\lps22hh.c **** 
 1646              		.loc 1 143 1 view .LVU397
 1647 003c 03B0     		add	sp, sp, #12
 1648              	.LCFI44:
 1649              		.cfi_remember_state
 1650              		.cfi_def_cfa_offset 12
 1651              		@ sp needed
 1652 003e 30BD     		pop	{r4, r5, pc}
 1653              	.LVL126:
 1654              	.L147:
 1655              	.LCFI45:
 1656              		.cfi_restore_state
 128:D:/fchai/work/i-cube/I-CUBE-HUAWEI/Drivers/BSP/Components/lps22hh\lps22hh.c ****         {
ARM GAS  T:\msys\tmp\cc7XUJLO.s 			page 55


 1657              		.loc 1 128 9 is_stmt 1 view .LVU398
 128:D:/fchai/work/i-cube/I-CUBE-HUAWEI/Drivers/BSP/Components/lps22hh\lps22hh.c ****         {
 1658              		.loc 1 128 12 is_stmt 0 view .LVU399
 1659 0040 94F82830 		ldrb	r3, [r4, #40]	@ zero_extendqisi2
 1660 0044 002B     		cmp	r3, #0
 1661 0046 F9D1     		bne	.L135
 1662              	.LBB53:
 131:D:/fchai/work/i-cube/I-CUBE-HUAWEI/Drivers/BSP/Components/lps22hh\lps22hh.c **** 
 1663              		.loc 1 131 11 is_stmt 1 view .LVU400
 1664              	.LVL127:
 133:D:/fchai/work/i-cube/I-CUBE-HUAWEI/Drivers/BSP/Components/lps22hh\lps22hh.c ****           {
 1665              		.loc 1 133 11 view .LVU401
 133:D:/fchai/work/i-cube/I-CUBE-HUAWEI/Drivers/BSP/Components/lps22hh\lps22hh.c ****           {
 1666              		.loc 1 133 11 is_stmt 0 view .LVU402
 1667 0048 0123     		movs	r3, #1
 1668              	.LBB54:
 1669              	.LBB55:
 523:D:/fchai/work/i-cube/I-CUBE-HUAWEI/Drivers/BSP/Components/lps22hh\lps22hh.c ****   {
 1670              		.loc 1 523 7 view .LVU403
 1671 004a 04F11C00 		add	r0, r4, #28
 1672 004e 0DF10702 		add	r2, sp, #7
 1673 0052 1021     		movs	r1, #16
 1674 0054 8DF80730 		strb	r3, [sp, #7]
 1675              	.LVL128:
 523:D:/fchai/work/i-cube/I-CUBE-HUAWEI/Drivers/BSP/Components/lps22hh\lps22hh.c ****   {
 1676              		.loc 1 523 7 view .LVU404
 1677              	.LBE55:
 1678              	.LBI54:
 521:D:/fchai/work/i-cube/I-CUBE-HUAWEI/Drivers/BSP/Components/lps22hh\lps22hh.c **** {
 1679              		.loc 1 521 9 is_stmt 1 view .LVU405
 1680              	.LBB56:
 523:D:/fchai/work/i-cube/I-CUBE-HUAWEI/Drivers/BSP/Components/lps22hh\lps22hh.c ****   {
 1681              		.loc 1 523 3 view .LVU406
 523:D:/fchai/work/i-cube/I-CUBE-HUAWEI/Drivers/BSP/Components/lps22hh\lps22hh.c ****   {
 1682              		.loc 1 523 7 is_stmt 0 view .LVU407
 1683 0058 FFF7FEFF 		bl	lps22hh_write_reg
 1684              	.LVL129:
 523:D:/fchai/work/i-cube/I-CUBE-HUAWEI/Drivers/BSP/Components/lps22hh\lps22hh.c ****   {
 1685              		.loc 1 523 7 view .LVU408
 1686              	.LBE56:
 1687              	.LBE54:
 135:D:/fchai/work/i-cube/I-CUBE-HUAWEI/Drivers/BSP/Components/lps22hh\lps22hh.c ****           }
 1688              		.loc 1 135 17 view .LVU409
 1689 005c 0028     		cmp	r0, #0
 1690 005e 18BF     		it	ne
 1691 0060 4FF0FF30 		movne	r0, #-1
 1692              	.LBE53:
 143:D:/fchai/work/i-cube/I-CUBE-HUAWEI/Drivers/BSP/Components/lps22hh\lps22hh.c **** 
 1693              		.loc 1 143 1 view .LVU410
 1694 0064 03B0     		add	sp, sp, #12
 1695              	.LCFI46:
 1696              		.cfi_remember_state
 1697              		.cfi_def_cfa_offset 12
 1698              		@ sp needed
 1699 0066 30BD     		pop	{r4, r5, pc}
 1700              	.LVL130:
 1701              	.L138:
ARM GAS  T:\msys\tmp\cc7XUJLO.s 			page 56


 1702              	.LCFI47:
 1703              		.cfi_restore_state
  99:D:/fchai/work/i-cube/I-CUBE-HUAWEI/Drivers/BSP/Components/lps22hh\lps22hh.c ****   }
 1704              		.loc 1 99 9 view .LVU411
 1705 0068 4FF0FF30 		mov	r0, #-1
 1706 006c E6E7     		b	.L135
 1707              	.LVL131:
 1708              	.L146:
 1709              	.LCFI48:
 1710              		.cfi_def_cfa_offset 0
 1711              		.cfi_restore 4
 1712              		.cfi_restore 5
 1713              		.cfi_restore 14
  99:D:/fchai/work/i-cube/I-CUBE-HUAWEI/Drivers/BSP/Components/lps22hh\lps22hh.c ****   }
 1714              		.loc 1 99 9 view .LVU412
 1715 006e 4FF0FF30 		mov	r0, #-1
 1716              	.LVL132:
 143:D:/fchai/work/i-cube/I-CUBE-HUAWEI/Drivers/BSP/Components/lps22hh\lps22hh.c **** 
 1717              		.loc 1 143 1 view .LVU413
 1718 0072 7047     		bx	lr
 1719              	.L149:
 1720              		.align	2
 1721              	.L148:
 1722 0074 00000000 		.word	ReadRegWrap
 1723 0078 00000000 		.word	WriteRegWrap
 1724              		.cfi_endproc
 1725              	.LFE0:
 1727              		.section	.text.LPS22HH_Get_Init_Status,"ax",%progbits
 1728              		.align	1
 1729              		.p2align 2,,3
 1730              		.global	LPS22HH_Get_Init_Status
 1731              		.syntax unified
 1732              		.thumb
 1733              		.thumb_func
 1734              		.fpu fpv4-sp-d16
 1736              	LPS22HH_Get_Init_Status:
 1737              	.LVL133:
 1738              	.LFB5:
 234:D:/fchai/work/i-cube/I-CUBE-HUAWEI/Drivers/BSP/Components/lps22hh\lps22hh.c ****   if (pObj == NULL)
 1739              		.loc 1 234 1 is_stmt 1 view -0
 1740              		.cfi_startproc
 1741              		@ args = 0, pretend = 0, frame = 0
 1742              		@ frame_needed = 0, uses_anonymous_args = 0
 1743              		@ link register save eliminated.
 235:D:/fchai/work/i-cube/I-CUBE-HUAWEI/Drivers/BSP/Components/lps22hh\lps22hh.c ****   {
 1744              		.loc 1 235 3 view .LVU415
 235:D:/fchai/work/i-cube/I-CUBE-HUAWEI/Drivers/BSP/Components/lps22hh\lps22hh.c ****   {
 1745              		.loc 1 235 6 is_stmt 0 view .LVU416
 1746 0000 20B1     		cbz	r0, .L152
 240:D:/fchai/work/i-cube/I-CUBE-HUAWEI/Drivers/BSP/Components/lps22hh\lps22hh.c **** 
 1747              		.loc 1 240 3 is_stmt 1 view .LVU417
 240:D:/fchai/work/i-cube/I-CUBE-HUAWEI/Drivers/BSP/Components/lps22hh\lps22hh.c **** 
 1748              		.loc 1 240 17 is_stmt 0 view .LVU418
 1749 0002 90F82830 		ldrb	r3, [r0, #40]	@ zero_extendqisi2
 240:D:/fchai/work/i-cube/I-CUBE-HUAWEI/Drivers/BSP/Components/lps22hh\lps22hh.c **** 
 1750              		.loc 1 240 11 view .LVU419
 1751 0006 0B70     		strb	r3, [r1]
ARM GAS  T:\msys\tmp\cc7XUJLO.s 			page 57


 242:D:/fchai/work/i-cube/I-CUBE-HUAWEI/Drivers/BSP/Components/lps22hh\lps22hh.c **** }
 1752              		.loc 1 242 3 is_stmt 1 view .LVU420
 242:D:/fchai/work/i-cube/I-CUBE-HUAWEI/Drivers/BSP/Components/lps22hh\lps22hh.c **** }
 1753              		.loc 1 242 10 is_stmt 0 view .LVU421
 1754 0008 0020     		movs	r0, #0
 1755              	.LVL134:
 242:D:/fchai/work/i-cube/I-CUBE-HUAWEI/Drivers/BSP/Components/lps22hh\lps22hh.c **** }
 1756              		.loc 1 242 10 view .LVU422
 1757 000a 7047     		bx	lr
 1758              	.LVL135:
 1759              	.L152:
 237:D:/fchai/work/i-cube/I-CUBE-HUAWEI/Drivers/BSP/Components/lps22hh\lps22hh.c ****   }
 1760              		.loc 1 237 12 view .LVU423
 1761 000c 4FF0FF30 		mov	r0, #-1
 1762              	.LVL136:
 243:D:/fchai/work/i-cube/I-CUBE-HUAWEI/Drivers/BSP/Components/lps22hh\lps22hh.c **** 
 1763              		.loc 1 243 1 view .LVU424
 1764 0010 7047     		bx	lr
 1765              		.cfi_endproc
 1766              	.LFE5:
 1768 0012 00BF     		.section	.text.LPS22HH_PRESS_Get_DRDY_Status,"ax",%progbits
 1769              		.align	1
 1770              		.p2align 2,,3
 1771              		.global	LPS22HH_PRESS_Get_DRDY_Status
 1772              		.syntax unified
 1773              		.thumb
 1774              		.thumb_func
 1775              		.fpu fpv4-sp-d16
 1777              	LPS22HH_PRESS_Get_DRDY_Status:
 1778              	.LVL137:
 1779              	.LFB11:
 362:D:/fchai/work/i-cube/I-CUBE-HUAWEI/Drivers/BSP/Components/lps22hh\lps22hh.c ****   if (lps22hh_press_flag_data_ready_get(&(pObj->Ctx), Status) != LPS22HH_OK)
 1780              		.loc 1 362 1 is_stmt 1 view -0
 1781              		.cfi_startproc
 1782              		@ args = 0, pretend = 0, frame = 0
 1783              		@ frame_needed = 0, uses_anonymous_args = 0
 363:D:/fchai/work/i-cube/I-CUBE-HUAWEI/Drivers/BSP/Components/lps22hh\lps22hh.c ****   {
 1784              		.loc 1 363 3 view .LVU426
 362:D:/fchai/work/i-cube/I-CUBE-HUAWEI/Drivers/BSP/Components/lps22hh\lps22hh.c ****   if (lps22hh_press_flag_data_ready_get(&(pObj->Ctx), Status) != LPS22HH_OK)
 1785              		.loc 1 362 1 is_stmt 0 view .LVU427
 1786 0000 08B5     		push	{r3, lr}
 1787              	.LCFI49:
 1788              		.cfi_def_cfa_offset 8
 1789              		.cfi_offset 3, -8
 1790              		.cfi_offset 14, -4
 363:D:/fchai/work/i-cube/I-CUBE-HUAWEI/Drivers/BSP/Components/lps22hh\lps22hh.c ****   {
 1791              		.loc 1 363 7 view .LVU428
 1792 0002 1C30     		adds	r0, r0, #28
 1793              	.LVL138:
 363:D:/fchai/work/i-cube/I-CUBE-HUAWEI/Drivers/BSP/Components/lps22hh\lps22hh.c ****   {
 1794              		.loc 1 363 7 view .LVU429
 1795 0004 FFF7FEFF 		bl	lps22hh_press_flag_data_ready_get
 1796              	.LVL139:
 363:D:/fchai/work/i-cube/I-CUBE-HUAWEI/Drivers/BSP/Components/lps22hh\lps22hh.c ****   {
 1797              		.loc 1 363 6 view .LVU430
 1798 0008 0038     		subs	r0, r0, #0
 1799 000a 18BF     		it	ne
ARM GAS  T:\msys\tmp\cc7XUJLO.s 			page 58


 1800 000c 0120     		movne	r0, #1
 369:D:/fchai/work/i-cube/I-CUBE-HUAWEI/Drivers/BSP/Components/lps22hh\lps22hh.c **** 
 1801              		.loc 1 369 1 view .LVU431
 1802 000e 4042     		rsbs	r0, r0, #0
 1803 0010 08BD     		pop	{r3, pc}
 1804              		.cfi_endproc
 1805              	.LFE11:
 1807 0012 00BF     		.section	.text.LPS22HH_TEMP_Get_DRDY_Status,"ax",%progbits
 1808              		.align	1
 1809              		.p2align 2,,3
 1810              		.global	LPS22HH_TEMP_Get_DRDY_Status
 1811              		.syntax unified
 1812              		.thumb
 1813              		.thumb_func
 1814              		.fpu fpv4-sp-d16
 1816              	LPS22HH_TEMP_Get_DRDY_Status:
 1817              	.LVL140:
 1818              	.LFB17:
 488:D:/fchai/work/i-cube/I-CUBE-HUAWEI/Drivers/BSP/Components/lps22hh\lps22hh.c ****   if (lps22hh_temp_flag_data_ready_get(&(pObj->Ctx), Status) != LPS22HH_OK)
 1819              		.loc 1 488 1 is_stmt 1 view -0
 1820              		.cfi_startproc
 1821              		@ args = 0, pretend = 0, frame = 0
 1822              		@ frame_needed = 0, uses_anonymous_args = 0
 489:D:/fchai/work/i-cube/I-CUBE-HUAWEI/Drivers/BSP/Components/lps22hh\lps22hh.c ****   {
 1823              		.loc 1 489 3 view .LVU433
 488:D:/fchai/work/i-cube/I-CUBE-HUAWEI/Drivers/BSP/Components/lps22hh\lps22hh.c ****   if (lps22hh_temp_flag_data_ready_get(&(pObj->Ctx), Status) != LPS22HH_OK)
 1824              		.loc 1 488 1 is_stmt 0 view .LVU434
 1825 0000 08B5     		push	{r3, lr}
 1826              	.LCFI50:
 1827              		.cfi_def_cfa_offset 8
 1828              		.cfi_offset 3, -8
 1829              		.cfi_offset 14, -4
 489:D:/fchai/work/i-cube/I-CUBE-HUAWEI/Drivers/BSP/Components/lps22hh\lps22hh.c ****   {
 1830              		.loc 1 489 7 view .LVU435
 1831 0002 1C30     		adds	r0, r0, #28
 1832              	.LVL141:
 489:D:/fchai/work/i-cube/I-CUBE-HUAWEI/Drivers/BSP/Components/lps22hh\lps22hh.c ****   {
 1833              		.loc 1 489 7 view .LVU436
 1834 0004 FFF7FEFF 		bl	lps22hh_temp_flag_data_ready_get
 1835              	.LVL142:
 489:D:/fchai/work/i-cube/I-CUBE-HUAWEI/Drivers/BSP/Components/lps22hh\lps22hh.c ****   {
 1836              		.loc 1 489 6 view .LVU437
 1837 0008 0038     		subs	r0, r0, #0
 1838 000a 18BF     		it	ne
 1839 000c 0120     		movne	r0, #1
 495:D:/fchai/work/i-cube/I-CUBE-HUAWEI/Drivers/BSP/Components/lps22hh\lps22hh.c **** 
 1840              		.loc 1 495 1 view .LVU438
 1841 000e 4042     		rsbs	r0, r0, #0
 1842 0010 08BD     		pop	{r3, pc}
 1843              		.cfi_endproc
 1844              	.LFE17:
 1846 0012 00BF     		.section	.text.LPS22HH_Read_Reg,"ax",%progbits
 1847              		.align	1
 1848              		.p2align 2,,3
 1849              		.global	LPS22HH_Read_Reg
 1850              		.syntax unified
 1851              		.thumb
ARM GAS  T:\msys\tmp\cc7XUJLO.s 			page 59


 1852              		.thumb_func
 1853              		.fpu fpv4-sp-d16
 1855              	LPS22HH_Read_Reg:
 1856              	.LVL143:
 1857              	.LFB18:
 505:D:/fchai/work/i-cube/I-CUBE-HUAWEI/Drivers/BSP/Components/lps22hh\lps22hh.c ****   if (lps22hh_read_reg(&(pObj->Ctx), Reg, Data, 1) != LPS22HH_OK)
 1858              		.loc 1 505 1 is_stmt 1 view -0
 1859              		.cfi_startproc
 1860              		@ args = 0, pretend = 0, frame = 0
 1861              		@ frame_needed = 0, uses_anonymous_args = 0
 506:D:/fchai/work/i-cube/I-CUBE-HUAWEI/Drivers/BSP/Components/lps22hh\lps22hh.c ****   {
 1862              		.loc 1 506 3 view .LVU440
 505:D:/fchai/work/i-cube/I-CUBE-HUAWEI/Drivers/BSP/Components/lps22hh\lps22hh.c ****   if (lps22hh_read_reg(&(pObj->Ctx), Reg, Data, 1) != LPS22HH_OK)
 1863              		.loc 1 505 1 is_stmt 0 view .LVU441
 1864 0000 08B5     		push	{r3, lr}
 1865              	.LCFI51:
 1866              		.cfi_def_cfa_offset 8
 1867              		.cfi_offset 3, -8
 1868              		.cfi_offset 14, -4
 506:D:/fchai/work/i-cube/I-CUBE-HUAWEI/Drivers/BSP/Components/lps22hh\lps22hh.c ****   {
 1869              		.loc 1 506 7 view .LVU442
 1870 0002 1C30     		adds	r0, r0, #28
 1871              	.LVL144:
 506:D:/fchai/work/i-cube/I-CUBE-HUAWEI/Drivers/BSP/Components/lps22hh\lps22hh.c ****   {
 1872              		.loc 1 506 7 view .LVU443
 1873 0004 0123     		movs	r3, #1
 1874 0006 FFF7FEFF 		bl	lps22hh_read_reg
 1875              	.LVL145:
 506:D:/fchai/work/i-cube/I-CUBE-HUAWEI/Drivers/BSP/Components/lps22hh\lps22hh.c ****   {
 1876              		.loc 1 506 6 view .LVU444
 1877 000a 0038     		subs	r0, r0, #0
 1878 000c 18BF     		it	ne
 1879 000e 0120     		movne	r0, #1
 512:D:/fchai/work/i-cube/I-CUBE-HUAWEI/Drivers/BSP/Components/lps22hh\lps22hh.c **** 
 1880              		.loc 1 512 1 view .LVU445
 1881 0010 4042     		rsbs	r0, r0, #0
 1882 0012 08BD     		pop	{r3, pc}
 1883              		.cfi_endproc
 1884              	.LFE18:
 1886              		.section	.text.LPS22HH_Write_Reg,"ax",%progbits
 1887              		.align	1
 1888              		.p2align 2,,3
 1889              		.global	LPS22HH_Write_Reg
 1890              		.syntax unified
 1891              		.thumb
 1892              		.thumb_func
 1893              		.fpu fpv4-sp-d16
 1895              	LPS22HH_Write_Reg:
 1896              	.LVL146:
 1897              	.LFB19:
 522:D:/fchai/work/i-cube/I-CUBE-HUAWEI/Drivers/BSP/Components/lps22hh\lps22hh.c ****   if (lps22hh_write_reg(&(pObj->Ctx), Reg, &Data, 1) != LPS22HH_OK)
 1898              		.loc 1 522 1 is_stmt 1 view -0
 1899              		.cfi_startproc
 1900              		@ args = 0, pretend = 0, frame = 8
 1901              		@ frame_needed = 0, uses_anonymous_args = 0
 523:D:/fchai/work/i-cube/I-CUBE-HUAWEI/Drivers/BSP/Components/lps22hh\lps22hh.c ****   {
 1902              		.loc 1 523 3 view .LVU447
ARM GAS  T:\msys\tmp\cc7XUJLO.s 			page 60


 522:D:/fchai/work/i-cube/I-CUBE-HUAWEI/Drivers/BSP/Components/lps22hh\lps22hh.c ****   if (lps22hh_write_reg(&(pObj->Ctx), Reg, &Data, 1) != LPS22HH_OK)
 1903              		.loc 1 522 1 is_stmt 0 view .LVU448
 1904 0000 10B5     		push	{r4, lr}
 1905              	.LCFI52:
 1906              		.cfi_def_cfa_offset 8
 1907              		.cfi_offset 4, -8
 1908              		.cfi_offset 14, -4
 1909 0002 82B0     		sub	sp, sp, #8
 1910              	.LCFI53:
 1911              		.cfi_def_cfa_offset 16
 522:D:/fchai/work/i-cube/I-CUBE-HUAWEI/Drivers/BSP/Components/lps22hh\lps22hh.c ****   if (lps22hh_write_reg(&(pObj->Ctx), Reg, &Data, 1) != LPS22HH_OK)
 1912              		.loc 1 522 1 view .LVU449
 1913 0004 1446     		mov	r4, r2
 523:D:/fchai/work/i-cube/I-CUBE-HUAWEI/Drivers/BSP/Components/lps22hh\lps22hh.c ****   {
 1914              		.loc 1 523 7 view .LVU450
 1915 0006 0123     		movs	r3, #1
 1916 0008 0DF10702 		add	r2, sp, #7
 1917              	.LVL147:
 523:D:/fchai/work/i-cube/I-CUBE-HUAWEI/Drivers/BSP/Components/lps22hh\lps22hh.c ****   {
 1918              		.loc 1 523 7 view .LVU451
 1919 000c 1C30     		adds	r0, r0, #28
 1920              	.LVL148:
 522:D:/fchai/work/i-cube/I-CUBE-HUAWEI/Drivers/BSP/Components/lps22hh\lps22hh.c ****   if (lps22hh_write_reg(&(pObj->Ctx), Reg, &Data, 1) != LPS22HH_OK)
 1921              		.loc 1 522 1 view .LVU452
 1922 000e 8DF80740 		strb	r4, [sp, #7]
 523:D:/fchai/work/i-cube/I-CUBE-HUAWEI/Drivers/BSP/Components/lps22hh\lps22hh.c ****   {
 1923              		.loc 1 523 7 view .LVU453
 1924 0012 FFF7FEFF 		bl	lps22hh_write_reg
 1925              	.LVL149:
 523:D:/fchai/work/i-cube/I-CUBE-HUAWEI/Drivers/BSP/Components/lps22hh\lps22hh.c ****   {
 1926              		.loc 1 523 6 view .LVU454
 1927 0016 0038     		subs	r0, r0, #0
 1928 0018 18BF     		it	ne
 1929 001a 0120     		movne	r0, #1
 529:D:/fchai/work/i-cube/I-CUBE-HUAWEI/Drivers/BSP/Components/lps22hh\lps22hh.c **** 
 1930              		.loc 1 529 1 view .LVU455
 1931 001c 4042     		rsbs	r0, r0, #0
 1932 001e 02B0     		add	sp, sp, #8
 1933              	.LCFI54:
 1934              		.cfi_def_cfa_offset 8
 1935              		@ sp needed
 1936 0020 10BD     		pop	{r4, pc}
 1937              		.cfi_endproc
 1938              	.LFE19:
 1940 0022 00BF     		.section	.text.LPS22HH_Get_Temp,"ax",%progbits
 1941              		.align	1
 1942              		.p2align 2,,3
 1943              		.global	LPS22HH_Get_Temp
 1944              		.syntax unified
 1945              		.thumb
 1946              		.thumb_func
 1947              		.fpu fpv4-sp-d16
 1949              	LPS22HH_Get_Temp:
 1950              	.LVL150:
 1951              	.LFB20:
 546:D:/fchai/work/i-cube/I-CUBE-HUAWEI/Drivers/BSP/Components/lps22hh\lps22hh.c ****   uint8_t buffer[2];
 1952              		.loc 1 546 1 is_stmt 1 view -0
ARM GAS  T:\msys\tmp\cc7XUJLO.s 			page 61


 1953              		.cfi_startproc
 1954              		@ args = 0, pretend = 0, frame = 8
 1955              		@ frame_needed = 0, uses_anonymous_args = 0
 547:D:/fchai/work/i-cube/I-CUBE-HUAWEI/Drivers/BSP/Components/lps22hh\lps22hh.c ****   uint32_t tmp = 0;
 1956              		.loc 1 547 3 view .LVU457
 548:D:/fchai/work/i-cube/I-CUBE-HUAWEI/Drivers/BSP/Components/lps22hh\lps22hh.c **** 
 1957              		.loc 1 548 3 view .LVU458
 551:D:/fchai/work/i-cube/I-CUBE-HUAWEI/Drivers/BSP/Components/lps22hh\lps22hh.c ****   {
 1958              		.loc 1 551 3 view .LVU459
 546:D:/fchai/work/i-cube/I-CUBE-HUAWEI/Drivers/BSP/Components/lps22hh\lps22hh.c ****   uint8_t buffer[2];
 1959              		.loc 1 546 1 is_stmt 0 view .LVU460
 1960 0000 10B5     		push	{r4, lr}
 1961              	.LCFI55:
 1962              		.cfi_def_cfa_offset 8
 1963              		.cfi_offset 4, -8
 1964              		.cfi_offset 14, -4
 1965 0002 82B0     		sub	sp, sp, #8
 1966              	.LCFI56:
 1967              		.cfi_def_cfa_offset 16
 546:D:/fchai/work/i-cube/I-CUBE-HUAWEI/Drivers/BSP/Components/lps22hh\lps22hh.c ****   uint8_t buffer[2];
 1968              		.loc 1 546 1 view .LVU461
 1969 0004 0C46     		mov	r4, r1
 551:D:/fchai/work/i-cube/I-CUBE-HUAWEI/Drivers/BSP/Components/lps22hh\lps22hh.c ****   {
 1970              		.loc 1 551 7 view .LVU462
 1971 0006 1C30     		adds	r0, r0, #28
 1972              	.LVL151:
 551:D:/fchai/work/i-cube/I-CUBE-HUAWEI/Drivers/BSP/Components/lps22hh\lps22hh.c ****   {
 1973              		.loc 1 551 7 view .LVU463
 1974 0008 01A9     		add	r1, sp, #4
 1975              	.LVL152:
 551:D:/fchai/work/i-cube/I-CUBE-HUAWEI/Drivers/BSP/Components/lps22hh\lps22hh.c ****   {
 1976              		.loc 1 551 7 view .LVU464
 1977 000a FFF7FEFF 		bl	lps22hh_temperature_raw_get
 1978              	.LVL153:
 551:D:/fchai/work/i-cube/I-CUBE-HUAWEI/Drivers/BSP/Components/lps22hh\lps22hh.c ****   {
 1979              		.loc 1 551 6 view .LVU465
 1980 000e 88B9     		cbnz	r0, .L163
 557:D:/fchai/work/i-cube/I-CUBE-HUAWEI/Drivers/BSP/Components/lps22hh\lps22hh.c **** 
 1981              		.loc 1 557 3 is_stmt 1 view .LVU466
 1982              	.LVL154:
 559:D:/fchai/work/i-cube/I-CUBE-HUAWEI/Drivers/BSP/Components/lps22hh\lps22hh.c **** 
 1983              		.loc 1 559 3 view .LVU467
 557:D:/fchai/work/i-cube/I-CUBE-HUAWEI/Drivers/BSP/Components/lps22hh\lps22hh.c **** 
 1984              		.loc 1 557 11 is_stmt 0 view .LVU468
 1985 0010 9DF80520 		ldrb	r2, [sp, #5]	@ zero_extendqisi2
 557:D:/fchai/work/i-cube/I-CUBE-HUAWEI/Drivers/BSP/Components/lps22hh\lps22hh.c **** 
 1986              		.loc 1 557 40 view .LVU469
 1987 0014 9DF80430 		ldrb	r3, [sp, #4]	@ zero_extendqisi2
 559:D:/fchai/work/i-cube/I-CUBE-HUAWEI/Drivers/BSP/Components/lps22hh\lps22hh.c **** 
 1988              		.loc 1 559 24 view .LVU470
 1989 0018 DFED086A 		vldr.32	s13, .L165
 557:D:/fchai/work/i-cube/I-CUBE-HUAWEI/Drivers/BSP/Components/lps22hh\lps22hh.c **** 
 1990              		.loc 1 557 38 view .LVU471
 1991 001c 03EB0223 		add	r3, r3, r2, lsl #8
 559:D:/fchai/work/i-cube/I-CUBE-HUAWEI/Drivers/BSP/Components/lps22hh\lps22hh.c **** 
 1992              		.loc 1 559 12 view .LVU472
 1993 0020 07EE903A 		vmov	s15, r3	@ int
ARM GAS  T:\msys\tmp\cc7XUJLO.s 			page 62


 1994 0024 F8EEE77A 		vcvt.f32.s32	s15, s15
 559:D:/fchai/work/i-cube/I-CUBE-HUAWEI/Drivers/BSP/Components/lps22hh\lps22hh.c **** 
 1995              		.loc 1 559 24 view .LVU473
 1996 0028 87EEA67A 		vdiv.f32	s14, s15, s13
 559:D:/fchai/work/i-cube/I-CUBE-HUAWEI/Drivers/BSP/Components/lps22hh\lps22hh.c **** 
 1997              		.loc 1 559 9 view .LVU474
 1998 002c 84ED007A 		vstr.32	s14, [r4]
 561:D:/fchai/work/i-cube/I-CUBE-HUAWEI/Drivers/BSP/Components/lps22hh\lps22hh.c **** }
 1999              		.loc 1 561 3 is_stmt 1 view .LVU475
 2000              	.LVL155:
 2001              	.L161:
 562:D:/fchai/work/i-cube/I-CUBE-HUAWEI/Drivers/BSP/Components/lps22hh\lps22hh.c **** 
 2002              		.loc 1 562 1 is_stmt 0 view .LVU476
 2003 0030 02B0     		add	sp, sp, #8
 2004              	.LCFI57:
 2005              		.cfi_remember_state
 2006              		.cfi_def_cfa_offset 8
 2007              		@ sp needed
 2008 0032 10BD     		pop	{r4, pc}
 2009              	.LVL156:
 2010              	.L163:
 2011              	.LCFI58:
 2012              		.cfi_restore_state
 553:D:/fchai/work/i-cube/I-CUBE-HUAWEI/Drivers/BSP/Components/lps22hh\lps22hh.c ****   }
 2013              		.loc 1 553 12 view .LVU477
 2014 0034 4FF0FF30 		mov	r0, #-1
 2015 0038 FAE7     		b	.L161
 2016              	.L166:
 2017 003a 00BF     		.align	2
 2018              	.L165:
 2019 003c 0000C842 		.word	1120403456
 2020              		.cfi_endproc
 2021              	.LFE20:
 2023              		.section	.text.LPS22HH_FIFO_Get_Data,"ax",%progbits
 2024              		.align	1
 2025              		.p2align 2,,3
 2026              		.global	LPS22HH_FIFO_Get_Data
 2027              		.syntax unified
 2028              		.thumb
 2029              		.thumb_func
 2030              		.fpu fpv4-sp-d16
 2032              	LPS22HH_FIFO_Get_Data:
 2033              	.LVL157:
 2034              	.LFB25:
 721:D:/fchai/work/i-cube/I-CUBE-HUAWEI/Drivers/BSP/Components/lps22hh\lps22hh.c ****   lps22hh_axis1bit32_t data_raw_pressure;
 2035              		.loc 1 721 1 is_stmt 1 view -0
 2036              		.cfi_startproc
 2037              		@ args = 0, pretend = 0, frame = 8
 2038              		@ frame_needed = 0, uses_anonymous_args = 0
 722:D:/fchai/work/i-cube/I-CUBE-HUAWEI/Drivers/BSP/Components/lps22hh\lps22hh.c ****   lps22hh_axis1bit16_t data_raw_temperature;
 2039              		.loc 1 722 3 view .LVU479
 723:D:/fchai/work/i-cube/I-CUBE-HUAWEI/Drivers/BSP/Components/lps22hh\lps22hh.c **** 
 2040              		.loc 1 723 3 view .LVU480
 725:D:/fchai/work/i-cube/I-CUBE-HUAWEI/Drivers/BSP/Components/lps22hh\lps22hh.c ****   if (lps22hh_fifo_pressure_raw_get(&(pObj->Ctx), data_raw_pressure.u8bit) != LPS22HH_OK)
 2041              		.loc 1 725 3 view .LVU481
 721:D:/fchai/work/i-cube/I-CUBE-HUAWEI/Drivers/BSP/Components/lps22hh\lps22hh.c ****   lps22hh_axis1bit32_t data_raw_pressure;
 2042              		.loc 1 721 1 is_stmt 0 view .LVU482
ARM GAS  T:\msys\tmp\cc7XUJLO.s 			page 63


 2043 0000 F0B5     		push	{r4, r5, r6, r7, lr}
 2044              	.LCFI59:
 2045              		.cfi_def_cfa_offset 20
 2046              		.cfi_offset 4, -20
 2047              		.cfi_offset 5, -16
 2048              		.cfi_offset 6, -12
 2049              		.cfi_offset 7, -8
 2050              		.cfi_offset 14, -4
 726:D:/fchai/work/i-cube/I-CUBE-HUAWEI/Drivers/BSP/Components/lps22hh\lps22hh.c ****   {
 2051              		.loc 1 726 7 view .LVU483
 2052 0002 00F11C05 		add	r5, r0, #28
 721:D:/fchai/work/i-cube/I-CUBE-HUAWEI/Drivers/BSP/Components/lps22hh\lps22hh.c ****   lps22hh_axis1bit32_t data_raw_pressure;
 2053              		.loc 1 721 1 view .LVU484
 2054 0006 83B0     		sub	sp, sp, #12
 2055              	.LCFI60:
 2056              		.cfi_def_cfa_offset 32
 721:D:/fchai/work/i-cube/I-CUBE-HUAWEI/Drivers/BSP/Components/lps22hh\lps22hh.c ****   lps22hh_axis1bit32_t data_raw_pressure;
 2057              		.loc 1 721 1 view .LVU485
 2058 0008 0E46     		mov	r6, r1
 725:D:/fchai/work/i-cube/I-CUBE-HUAWEI/Drivers/BSP/Components/lps22hh\lps22hh.c ****   if (lps22hh_fifo_pressure_raw_get(&(pObj->Ctx), data_raw_pressure.u8bit) != LPS22HH_OK)
 2059              		.loc 1 725 9 view .LVU486
 2060 000a 0024     		movs	r4, #0
 726:D:/fchai/work/i-cube/I-CUBE-HUAWEI/Drivers/BSP/Components/lps22hh\lps22hh.c ****   {
 2061              		.loc 1 726 7 view .LVU487
 2062 000c 2846     		mov	r0, r5
 2063              	.LVL158:
 726:D:/fchai/work/i-cube/I-CUBE-HUAWEI/Drivers/BSP/Components/lps22hh\lps22hh.c ****   {
 2064              		.loc 1 726 7 view .LVU488
 2065 000e 01A9     		add	r1, sp, #4
 2066              	.LVL159:
 721:D:/fchai/work/i-cube/I-CUBE-HUAWEI/Drivers/BSP/Components/lps22hh\lps22hh.c ****   lps22hh_axis1bit32_t data_raw_pressure;
 2067              		.loc 1 721 1 view .LVU489
 2068 0010 1746     		mov	r7, r2
 725:D:/fchai/work/i-cube/I-CUBE-HUAWEI/Drivers/BSP/Components/lps22hh\lps22hh.c ****   if (lps22hh_fifo_pressure_raw_get(&(pObj->Ctx), data_raw_pressure.u8bit) != LPS22HH_OK)
 2069              		.loc 1 725 9 view .LVU490
 2070 0012 0194     		str	r4, [sp, #4]
 726:D:/fchai/work/i-cube/I-CUBE-HUAWEI/Drivers/BSP/Components/lps22hh\lps22hh.c ****   {
 2071              		.loc 1 726 3 is_stmt 1 view .LVU491
 726:D:/fchai/work/i-cube/I-CUBE-HUAWEI/Drivers/BSP/Components/lps22hh\lps22hh.c ****   {
 2072              		.loc 1 726 7 is_stmt 0 view .LVU492
 2073 0014 FFF7FEFF 		bl	lps22hh_fifo_pressure_raw_get
 2074              	.LVL160:
 726:D:/fchai/work/i-cube/I-CUBE-HUAWEI/Drivers/BSP/Components/lps22hh\lps22hh.c ****   {
 2075              		.loc 1 726 6 view .LVU493
 2076 0018 B0B9     		cbnz	r0, .L170
 731:D:/fchai/work/i-cube/I-CUBE-HUAWEI/Drivers/BSP/Components/lps22hh\lps22hh.c **** 
 2077              		.loc 1 731 3 is_stmt 1 view .LVU494
 2078 001a 0446     		mov	r4, r0
 731:D:/fchai/work/i-cube/I-CUBE-HUAWEI/Drivers/BSP/Components/lps22hh\lps22hh.c **** 
 2079              		.loc 1 731 12 is_stmt 0 view .LVU495
 2080 001c 0198     		ldr	r0, [sp, #4]
 2081 001e FFF7FEFF 		bl	lps22hh_from_lsb_to_hpa
 2082              	.LVL161:
 734:D:/fchai/work/i-cube/I-CUBE-HUAWEI/Drivers/BSP/Components/lps22hh\lps22hh.c ****   {
 2083              		.loc 1 734 7 view .LVU496
 2084 0022 2846     		mov	r0, r5
 731:D:/fchai/work/i-cube/I-CUBE-HUAWEI/Drivers/BSP/Components/lps22hh\lps22hh.c **** 
ARM GAS  T:\msys\tmp\cc7XUJLO.s 			page 64


 2085              		.loc 1 731 10 view .LVU497
 2086 0024 86ED000A 		vstr.32	s0, [r6]
 733:D:/fchai/work/i-cube/I-CUBE-HUAWEI/Drivers/BSP/Components/lps22hh\lps22hh.c ****   if (lps22hh_fifo_temperature_raw_get(&(pObj->Ctx), data_raw_temperature.u8bit) != LPS22HH_OK)
 2087              		.loc 1 733 3 is_stmt 1 view .LVU498
 734:D:/fchai/work/i-cube/I-CUBE-HUAWEI/Drivers/BSP/Components/lps22hh\lps22hh.c ****   {
 2088              		.loc 1 734 7 is_stmt 0 view .LVU499
 2089 0028 6946     		mov	r1, sp
 733:D:/fchai/work/i-cube/I-CUBE-HUAWEI/Drivers/BSP/Components/lps22hh\lps22hh.c ****   if (lps22hh_fifo_temperature_raw_get(&(pObj->Ctx), data_raw_temperature.u8bit) != LPS22HH_OK)
 2090              		.loc 1 733 9 view .LVU500
 2091 002a ADF80040 		strh	r4, [sp]	@ movhi
 734:D:/fchai/work/i-cube/I-CUBE-HUAWEI/Drivers/BSP/Components/lps22hh\lps22hh.c ****   {
 2092              		.loc 1 734 3 is_stmt 1 view .LVU501
 734:D:/fchai/work/i-cube/I-CUBE-HUAWEI/Drivers/BSP/Components/lps22hh\lps22hh.c ****   {
 2093              		.loc 1 734 7 is_stmt 0 view .LVU502
 2094 002e FFF7FEFF 		bl	lps22hh_fifo_temperature_raw_get
 2095              	.LVL162:
 734:D:/fchai/work/i-cube/I-CUBE-HUAWEI/Drivers/BSP/Components/lps22hh\lps22hh.c ****   {
 2096              		.loc 1 734 6 view .LVU503
 2097 0032 0446     		mov	r4, r0
 2098 0034 40B9     		cbnz	r0, .L170
 739:D:/fchai/work/i-cube/I-CUBE-HUAWEI/Drivers/BSP/Components/lps22hh\lps22hh.c **** 
 2099              		.loc 1 739 3 is_stmt 1 view .LVU504
 739:D:/fchai/work/i-cube/I-CUBE-HUAWEI/Drivers/BSP/Components/lps22hh\lps22hh.c **** 
 2100              		.loc 1 739 11 is_stmt 0 view .LVU505
 2101 0036 BDF90000 		ldrsh	r0, [sp]
 2102 003a FFF7FEFF 		bl	lps22hh_from_lsb_to_celsius
 2103              	.LVL163:
 739:D:/fchai/work/i-cube/I-CUBE-HUAWEI/Drivers/BSP/Components/lps22hh\lps22hh.c **** 
 2104              		.loc 1 739 9 view .LVU506
 2105 003e 87ED000A 		vstr.32	s0, [r7]
 741:D:/fchai/work/i-cube/I-CUBE-HUAWEI/Drivers/BSP/Components/lps22hh\lps22hh.c **** }
 2106              		.loc 1 741 3 is_stmt 1 view .LVU507
 2107              	.L167:
 742:D:/fchai/work/i-cube/I-CUBE-HUAWEI/Drivers/BSP/Components/lps22hh\lps22hh.c **** 
 2108              		.loc 1 742 1 is_stmt 0 view .LVU508
 2109 0042 2046     		mov	r0, r4
 2110 0044 03B0     		add	sp, sp, #12
 2111              	.LCFI61:
 2112              		.cfi_remember_state
 2113              		.cfi_def_cfa_offset 20
 2114              		@ sp needed
 2115 0046 F0BD     		pop	{r4, r5, r6, r7, pc}
 2116              	.LVL164:
 2117              	.L170:
 2118              	.LCFI62:
 2119              		.cfi_restore_state
 728:D:/fchai/work/i-cube/I-CUBE-HUAWEI/Drivers/BSP/Components/lps22hh\lps22hh.c ****   }
 2120              		.loc 1 728 9 view .LVU509
 2121 0048 4FF0FF34 		mov	r4, #-1
 2122 004c F9E7     		b	.L167
 2123              		.cfi_endproc
 2124              	.LFE25:
 2126 004e 00BF     		.section	.text.LPS22HH_FIFO_Get_FTh_Status,"ax",%progbits
 2127              		.align	1
 2128              		.p2align 2,,3
 2129              		.global	LPS22HH_FIFO_Get_FTh_Status
 2130              		.syntax unified
ARM GAS  T:\msys\tmp\cc7XUJLO.s 			page 65


 2131              		.thumb
 2132              		.thumb_func
 2133              		.fpu fpv4-sp-d16
 2135              	LPS22HH_FIFO_Get_FTh_Status:
 2136              	.LVL165:
 2137              	.LFB26:
 751:D:/fchai/work/i-cube/I-CUBE-HUAWEI/Drivers/BSP/Components/lps22hh\lps22hh.c ****   if (lps22hh_fifo_wtm_flag_get(&(pObj->Ctx), Status) != LPS22HH_OK)
 2138              		.loc 1 751 1 is_stmt 1 view -0
 2139              		.cfi_startproc
 2140              		@ args = 0, pretend = 0, frame = 0
 2141              		@ frame_needed = 0, uses_anonymous_args = 0
 752:D:/fchai/work/i-cube/I-CUBE-HUAWEI/Drivers/BSP/Components/lps22hh\lps22hh.c ****   {
 2142              		.loc 1 752 3 view .LVU511
 751:D:/fchai/work/i-cube/I-CUBE-HUAWEI/Drivers/BSP/Components/lps22hh\lps22hh.c ****   if (lps22hh_fifo_wtm_flag_get(&(pObj->Ctx), Status) != LPS22HH_OK)
 2143              		.loc 1 751 1 is_stmt 0 view .LVU512
 2144 0000 08B5     		push	{r3, lr}
 2145              	.LCFI63:
 2146              		.cfi_def_cfa_offset 8
 2147              		.cfi_offset 3, -8
 2148              		.cfi_offset 14, -4
 752:D:/fchai/work/i-cube/I-CUBE-HUAWEI/Drivers/BSP/Components/lps22hh\lps22hh.c ****   {
 2149              		.loc 1 752 7 view .LVU513
 2150 0002 1C30     		adds	r0, r0, #28
 2151              	.LVL166:
 752:D:/fchai/work/i-cube/I-CUBE-HUAWEI/Drivers/BSP/Components/lps22hh\lps22hh.c ****   {
 2152              		.loc 1 752 7 view .LVU514
 2153 0004 FFF7FEFF 		bl	lps22hh_fifo_wtm_flag_get
 2154              	.LVL167:
 752:D:/fchai/work/i-cube/I-CUBE-HUAWEI/Drivers/BSP/Components/lps22hh\lps22hh.c ****   {
 2155              		.loc 1 752 6 view .LVU515
 2156 0008 0038     		subs	r0, r0, #0
 2157 000a 18BF     		it	ne
 2158 000c 0120     		movne	r0, #1
 758:D:/fchai/work/i-cube/I-CUBE-HUAWEI/Drivers/BSP/Components/lps22hh\lps22hh.c **** 
 2159              		.loc 1 758 1 view .LVU516
 2160 000e 4042     		rsbs	r0, r0, #0
 2161 0010 08BD     		pop	{r3, pc}
 2162              		.cfi_endproc
 2163              	.LFE26:
 2165 0012 00BF     		.section	.text.LPS22HH_FIFO_Get_Full_Status,"ax",%progbits
 2166              		.align	1
 2167              		.p2align 2,,3
 2168              		.global	LPS22HH_FIFO_Get_Full_Status
 2169              		.syntax unified
 2170              		.thumb
 2171              		.thumb_func
 2172              		.fpu fpv4-sp-d16
 2174              	LPS22HH_FIFO_Get_Full_Status:
 2175              	.LVL168:
 2176              	.LFB27:
 767:D:/fchai/work/i-cube/I-CUBE-HUAWEI/Drivers/BSP/Components/lps22hh\lps22hh.c ****   if (lps22hh_fifo_full_flag_get(&(pObj->Ctx), Status) != LPS22HH_OK)
 2177              		.loc 1 767 1 is_stmt 1 view -0
 2178              		.cfi_startproc
 2179              		@ args = 0, pretend = 0, frame = 0
 2180              		@ frame_needed = 0, uses_anonymous_args = 0
 768:D:/fchai/work/i-cube/I-CUBE-HUAWEI/Drivers/BSP/Components/lps22hh\lps22hh.c ****   {
 2181              		.loc 1 768 3 view .LVU518
ARM GAS  T:\msys\tmp\cc7XUJLO.s 			page 66


 767:D:/fchai/work/i-cube/I-CUBE-HUAWEI/Drivers/BSP/Components/lps22hh\lps22hh.c ****   if (lps22hh_fifo_full_flag_get(&(pObj->Ctx), Status) != LPS22HH_OK)
 2182              		.loc 1 767 1 is_stmt 0 view .LVU519
 2183 0000 08B5     		push	{r3, lr}
 2184              	.LCFI64:
 2185              		.cfi_def_cfa_offset 8
 2186              		.cfi_offset 3, -8
 2187              		.cfi_offset 14, -4
 768:D:/fchai/work/i-cube/I-CUBE-HUAWEI/Drivers/BSP/Components/lps22hh\lps22hh.c ****   {
 2188              		.loc 1 768 7 view .LVU520
 2189 0002 1C30     		adds	r0, r0, #28
 2190              	.LVL169:
 768:D:/fchai/work/i-cube/I-CUBE-HUAWEI/Drivers/BSP/Components/lps22hh\lps22hh.c ****   {
 2191              		.loc 1 768 7 view .LVU521
 2192 0004 FFF7FEFF 		bl	lps22hh_fifo_full_flag_get
 2193              	.LVL170:
 768:D:/fchai/work/i-cube/I-CUBE-HUAWEI/Drivers/BSP/Components/lps22hh\lps22hh.c ****   {
 2194              		.loc 1 768 6 view .LVU522
 2195 0008 0038     		subs	r0, r0, #0
 2196 000a 18BF     		it	ne
 2197 000c 0120     		movne	r0, #1
 774:D:/fchai/work/i-cube/I-CUBE-HUAWEI/Drivers/BSP/Components/lps22hh\lps22hh.c **** 
 2198              		.loc 1 774 1 view .LVU523
 2199 000e 4042     		rsbs	r0, r0, #0
 2200 0010 08BD     		pop	{r3, pc}
 2201              		.cfi_endproc
 2202              	.LFE27:
 2204 0012 00BF     		.section	.text.LPS22HH_FIFO_Get_Ovr_Status,"ax",%progbits
 2205              		.align	1
 2206              		.p2align 2,,3
 2207              		.global	LPS22HH_FIFO_Get_Ovr_Status
 2208              		.syntax unified
 2209              		.thumb
 2210              		.thumb_func
 2211              		.fpu fpv4-sp-d16
 2213              	LPS22HH_FIFO_Get_Ovr_Status:
 2214              	.LVL171:
 2215              	.LFB28:
 783:D:/fchai/work/i-cube/I-CUBE-HUAWEI/Drivers/BSP/Components/lps22hh\lps22hh.c ****   if (lps22hh_fifo_ovr_flag_get(&(pObj->Ctx), Status) != LPS22HH_OK)
 2216              		.loc 1 783 1 is_stmt 1 view -0
 2217              		.cfi_startproc
 2218              		@ args = 0, pretend = 0, frame = 0
 2219              		@ frame_needed = 0, uses_anonymous_args = 0
 784:D:/fchai/work/i-cube/I-CUBE-HUAWEI/Drivers/BSP/Components/lps22hh\lps22hh.c ****   {
 2220              		.loc 1 784 3 view .LVU525
 783:D:/fchai/work/i-cube/I-CUBE-HUAWEI/Drivers/BSP/Components/lps22hh\lps22hh.c ****   if (lps22hh_fifo_ovr_flag_get(&(pObj->Ctx), Status) != LPS22HH_OK)
 2221              		.loc 1 783 1 is_stmt 0 view .LVU526
 2222 0000 08B5     		push	{r3, lr}
 2223              	.LCFI65:
 2224              		.cfi_def_cfa_offset 8
 2225              		.cfi_offset 3, -8
 2226              		.cfi_offset 14, -4
 784:D:/fchai/work/i-cube/I-CUBE-HUAWEI/Drivers/BSP/Components/lps22hh\lps22hh.c ****   {
 2227              		.loc 1 784 7 view .LVU527
 2228 0002 1C30     		adds	r0, r0, #28
 2229              	.LVL172:
 784:D:/fchai/work/i-cube/I-CUBE-HUAWEI/Drivers/BSP/Components/lps22hh\lps22hh.c ****   {
 2230              		.loc 1 784 7 view .LVU528
ARM GAS  T:\msys\tmp\cc7XUJLO.s 			page 67


 2231 0004 FFF7FEFF 		bl	lps22hh_fifo_ovr_flag_get
 2232              	.LVL173:
 784:D:/fchai/work/i-cube/I-CUBE-HUAWEI/Drivers/BSP/Components/lps22hh\lps22hh.c ****   {
 2233              		.loc 1 784 6 view .LVU529
 2234 0008 0038     		subs	r0, r0, #0
 2235 000a 18BF     		it	ne
 2236 000c 0120     		movne	r0, #1
 790:D:/fchai/work/i-cube/I-CUBE-HUAWEI/Drivers/BSP/Components/lps22hh\lps22hh.c **** 
 2237              		.loc 1 790 1 view .LVU530
 2238 000e 4042     		rsbs	r0, r0, #0
 2239 0010 08BD     		pop	{r3, pc}
 2240              		.cfi_endproc
 2241              	.LFE28:
 2243 0012 00BF     		.section	.text.LPS22HH_FIFO_Get_Level,"ax",%progbits
 2244              		.align	1
 2245              		.p2align 2,,3
 2246              		.global	LPS22HH_FIFO_Get_Level
 2247              		.syntax unified
 2248              		.thumb
 2249              		.thumb_func
 2250              		.fpu fpv4-sp-d16
 2252              	LPS22HH_FIFO_Get_Level:
 2253              	.LVL174:
 2254              	.LFB29:
 799:D:/fchai/work/i-cube/I-CUBE-HUAWEI/Drivers/BSP/Components/lps22hh\lps22hh.c ****   if (lps22hh_fifo_data_level_get(&(pObj->Ctx), Status) != LPS22HH_OK)
 2255              		.loc 1 799 1 is_stmt 1 view -0
 2256              		.cfi_startproc
 2257              		@ args = 0, pretend = 0, frame = 0
 2258              		@ frame_needed = 0, uses_anonymous_args = 0
 800:D:/fchai/work/i-cube/I-CUBE-HUAWEI/Drivers/BSP/Components/lps22hh\lps22hh.c ****   {
 2259              		.loc 1 800 3 view .LVU532
 799:D:/fchai/work/i-cube/I-CUBE-HUAWEI/Drivers/BSP/Components/lps22hh\lps22hh.c ****   if (lps22hh_fifo_data_level_get(&(pObj->Ctx), Status) != LPS22HH_OK)
 2260              		.loc 1 799 1 is_stmt 0 view .LVU533
 2261 0000 08B5     		push	{r3, lr}
 2262              	.LCFI66:
 2263              		.cfi_def_cfa_offset 8
 2264              		.cfi_offset 3, -8
 2265              		.cfi_offset 14, -4
 800:D:/fchai/work/i-cube/I-CUBE-HUAWEI/Drivers/BSP/Components/lps22hh\lps22hh.c ****   {
 2266              		.loc 1 800 7 view .LVU534
 2267 0002 1C30     		adds	r0, r0, #28
 2268              	.LVL175:
 800:D:/fchai/work/i-cube/I-CUBE-HUAWEI/Drivers/BSP/Components/lps22hh\lps22hh.c ****   {
 2269              		.loc 1 800 7 view .LVU535
 2270 0004 FFF7FEFF 		bl	lps22hh_fifo_data_level_get
 2271              	.LVL176:
 800:D:/fchai/work/i-cube/I-CUBE-HUAWEI/Drivers/BSP/Components/lps22hh\lps22hh.c ****   {
 2272              		.loc 1 800 6 view .LVU536
 2273 0008 0038     		subs	r0, r0, #0
 2274 000a 18BF     		it	ne
 2275 000c 0120     		movne	r0, #1
 806:D:/fchai/work/i-cube/I-CUBE-HUAWEI/Drivers/BSP/Components/lps22hh\lps22hh.c **** 
 2276              		.loc 1 806 1 view .LVU537
 2277 000e 4042     		rsbs	r0, r0, #0
 2278 0010 08BD     		pop	{r3, pc}
 2279              		.cfi_endproc
 2280              	.LFE29:
ARM GAS  T:\msys\tmp\cc7XUJLO.s 			page 68


 2282 0012 00BF     		.section	.text.LPS22HH_FIFO_Reset_Interrupt,"ax",%progbits
 2283              		.align	1
 2284              		.p2align 2,,3
 2285              		.global	LPS22HH_FIFO_Reset_Interrupt
 2286              		.syntax unified
 2287              		.thumb
 2288              		.thumb_func
 2289              		.fpu fpv4-sp-d16
 2291              	LPS22HH_FIFO_Reset_Interrupt:
 2292              	.LVL177:
 2293              	.LFB30:
 815:D:/fchai/work/i-cube/I-CUBE-HUAWEI/Drivers/BSP/Components/lps22hh\lps22hh.c ****   switch (interrupt)
 2294              		.loc 1 815 1 is_stmt 1 view -0
 2295              		.cfi_startproc
 2296              		@ args = 0, pretend = 0, frame = 0
 2297              		@ frame_needed = 0, uses_anonymous_args = 0
 816:D:/fchai/work/i-cube/I-CUBE-HUAWEI/Drivers/BSP/Components/lps22hh\lps22hh.c ****   {
 2298              		.loc 1 816 3 view .LVU539
 2299 0000 0129     		cmp	r1, #1
 815:D:/fchai/work/i-cube/I-CUBE-HUAWEI/Drivers/BSP/Components/lps22hh\lps22hh.c ****   switch (interrupt)
 2300              		.loc 1 815 1 is_stmt 0 view .LVU540
 2301 0002 08B5     		push	{r3, lr}
 2302              	.LCFI67:
 2303              		.cfi_def_cfa_offset 8
 2304              		.cfi_offset 3, -8
 2305              		.cfi_offset 14, -4
 816:D:/fchai/work/i-cube/I-CUBE-HUAWEI/Drivers/BSP/Components/lps22hh\lps22hh.c ****   {
 2306              		.loc 1 816 3 view .LVU541
 2307 0004 05D0     		beq	.L181
 2308 0006 0229     		cmp	r1, #2
 2309 0008 14D0     		beq	.L182
 2310 000a 59B1     		cbz	r1, .L186
 2311 000c 4FF0FF30 		mov	r0, #-1
 2312              	.LVL178:
 841:D:/fchai/work/i-cube/I-CUBE-HUAWEI/Drivers/BSP/Components/lps22hh\lps22hh.c **** 
 2313              		.loc 1 841 1 view .LVU542
 2314 0010 08BD     		pop	{r3, pc}
 2315              	.LVL179:
 2316              	.L181:
 825:D:/fchai/work/i-cube/I-CUBE-HUAWEI/Drivers/BSP/Components/lps22hh\lps22hh.c ****       {
 2317              		.loc 1 825 7 is_stmt 1 view .LVU543
 825:D:/fchai/work/i-cube/I-CUBE-HUAWEI/Drivers/BSP/Components/lps22hh\lps22hh.c ****       {
 2318              		.loc 1 825 11 is_stmt 0 view .LVU544
 2319 0012 0021     		movs	r1, #0
 2320              	.LVL180:
 825:D:/fchai/work/i-cube/I-CUBE-HUAWEI/Drivers/BSP/Components/lps22hh\lps22hh.c ****       {
 2321              		.loc 1 825 11 view .LVU545
 2322 0014 1C30     		adds	r0, r0, #28
 2323              	.LVL181:
 825:D:/fchai/work/i-cube/I-CUBE-HUAWEI/Drivers/BSP/Components/lps22hh\lps22hh.c ****       {
 2324              		.loc 1 825 11 view .LVU546
 2325 0016 FFF7FEFF 		bl	lps22hh_fifo_full_on_int_set
 2326              	.LVL182:
 825:D:/fchai/work/i-cube/I-CUBE-HUAWEI/Drivers/BSP/Components/lps22hh\lps22hh.c ****       {
 2327              		.loc 1 825 10 view .LVU547
 2328 001a 0038     		subs	r0, r0, #0
 2329 001c 18BF     		it	ne
ARM GAS  T:\msys\tmp\cc7XUJLO.s 			page 69


 2330 001e 0120     		movne	r0, #1
 2331 0020 4042     		rsbs	r0, r0, #0
 841:D:/fchai/work/i-cube/I-CUBE-HUAWEI/Drivers/BSP/Components/lps22hh\lps22hh.c **** 
 2332              		.loc 1 841 1 view .LVU548
 2333 0022 08BD     		pop	{r3, pc}
 2334              	.LVL183:
 2335              	.L186:
 819:D:/fchai/work/i-cube/I-CUBE-HUAWEI/Drivers/BSP/Components/lps22hh\lps22hh.c ****       {
 2336              		.loc 1 819 7 is_stmt 1 view .LVU549
 819:D:/fchai/work/i-cube/I-CUBE-HUAWEI/Drivers/BSP/Components/lps22hh\lps22hh.c ****       {
 2337              		.loc 1 819 11 is_stmt 0 view .LVU550
 2338 0024 1C30     		adds	r0, r0, #28
 2339              	.LVL184:
 819:D:/fchai/work/i-cube/I-CUBE-HUAWEI/Drivers/BSP/Components/lps22hh\lps22hh.c ****       {
 2340              		.loc 1 819 11 view .LVU551
 2341 0026 FFF7FEFF 		bl	lps22hh_fifo_threshold_on_int_set
 2342              	.LVL185:
 819:D:/fchai/work/i-cube/I-CUBE-HUAWEI/Drivers/BSP/Components/lps22hh\lps22hh.c ****       {
 2343              		.loc 1 819 10 view .LVU552
 2344 002a 0038     		subs	r0, r0, #0
 2345 002c 18BF     		it	ne
 2346 002e 0120     		movne	r0, #1
 2347 0030 4042     		rsbs	r0, r0, #0
 841:D:/fchai/work/i-cube/I-CUBE-HUAWEI/Drivers/BSP/Components/lps22hh\lps22hh.c **** 
 2348              		.loc 1 841 1 view .LVU553
 2349 0032 08BD     		pop	{r3, pc}
 2350              	.LVL186:
 2351              	.L182:
 831:D:/fchai/work/i-cube/I-CUBE-HUAWEI/Drivers/BSP/Components/lps22hh\lps22hh.c ****       {
 2352              		.loc 1 831 7 is_stmt 1 view .LVU554
 831:D:/fchai/work/i-cube/I-CUBE-HUAWEI/Drivers/BSP/Components/lps22hh\lps22hh.c ****       {
 2353              		.loc 1 831 11 is_stmt 0 view .LVU555
 2354 0034 0021     		movs	r1, #0
 2355              	.LVL187:
 831:D:/fchai/work/i-cube/I-CUBE-HUAWEI/Drivers/BSP/Components/lps22hh\lps22hh.c ****       {
 2356              		.loc 1 831 11 view .LVU556
 2357 0036 1C30     		adds	r0, r0, #28
 2358              	.LVL188:
 831:D:/fchai/work/i-cube/I-CUBE-HUAWEI/Drivers/BSP/Components/lps22hh\lps22hh.c ****       {
 2359              		.loc 1 831 11 view .LVU557
 2360 0038 FFF7FEFF 		bl	lps22hh_fifo_ovr_on_int_set
 2361              	.LVL189:
 831:D:/fchai/work/i-cube/I-CUBE-HUAWEI/Drivers/BSP/Components/lps22hh\lps22hh.c ****       {
 2362              		.loc 1 831 10 view .LVU558
 2363 003c 0038     		subs	r0, r0, #0
 2364 003e 18BF     		it	ne
 2365 0040 0120     		movne	r0, #1
 2366 0042 4042     		rsbs	r0, r0, #0
 841:D:/fchai/work/i-cube/I-CUBE-HUAWEI/Drivers/BSP/Components/lps22hh\lps22hh.c **** 
 2367              		.loc 1 841 1 view .LVU559
 2368 0044 08BD     		pop	{r3, pc}
 2369              		.cfi_endproc
 2370              	.LFE30:
 2372 0046 00BF     		.section	.text.LPS22HH_FIFO_Set_Interrupt,"ax",%progbits
 2373              		.align	1
 2374              		.p2align 2,,3
 2375              		.global	LPS22HH_FIFO_Set_Interrupt
ARM GAS  T:\msys\tmp\cc7XUJLO.s 			page 70


 2376              		.syntax unified
 2377              		.thumb
 2378              		.thumb_func
 2379              		.fpu fpv4-sp-d16
 2381              	LPS22HH_FIFO_Set_Interrupt:
 2382              	.LVL190:
 2383              	.LFB31:
 850:D:/fchai/work/i-cube/I-CUBE-HUAWEI/Drivers/BSP/Components/lps22hh\lps22hh.c ****   switch (interrupt)
 2384              		.loc 1 850 1 is_stmt 1 view -0
 2385              		.cfi_startproc
 2386              		@ args = 0, pretend = 0, frame = 0
 2387              		@ frame_needed = 0, uses_anonymous_args = 0
 851:D:/fchai/work/i-cube/I-CUBE-HUAWEI/Drivers/BSP/Components/lps22hh\lps22hh.c ****   {
 2388              		.loc 1 851 3 view .LVU561
 2389 0000 0129     		cmp	r1, #1
 850:D:/fchai/work/i-cube/I-CUBE-HUAWEI/Drivers/BSP/Components/lps22hh\lps22hh.c ****   switch (interrupt)
 2390              		.loc 1 850 1 is_stmt 0 view .LVU562
 2391 0002 08B5     		push	{r3, lr}
 2392              	.LCFI68:
 2393              		.cfi_def_cfa_offset 8
 2394              		.cfi_offset 3, -8
 2395              		.cfi_offset 14, -4
 851:D:/fchai/work/i-cube/I-CUBE-HUAWEI/Drivers/BSP/Components/lps22hh\lps22hh.c ****   {
 2396              		.loc 1 851 3 view .LVU563
 2397 0004 05D0     		beq	.L188
 2398 0006 0229     		cmp	r1, #2
 2399 0008 14D0     		beq	.L189
 2400 000a 51B1     		cbz	r1, .L193
 2401 000c 4FF0FF30 		mov	r0, #-1
 2402              	.LVL191:
 876:D:/fchai/work/i-cube/I-CUBE-HUAWEI/Drivers/BSP/Components/lps22hh\lps22hh.c **** 
 2403              		.loc 1 876 1 view .LVU564
 2404 0010 08BD     		pop	{r3, pc}
 2405              	.LVL192:
 2406              	.L188:
 860:D:/fchai/work/i-cube/I-CUBE-HUAWEI/Drivers/BSP/Components/lps22hh\lps22hh.c ****       {
 2407              		.loc 1 860 7 is_stmt 1 view .LVU565
 860:D:/fchai/work/i-cube/I-CUBE-HUAWEI/Drivers/BSP/Components/lps22hh\lps22hh.c ****       {
 2408              		.loc 1 860 11 is_stmt 0 view .LVU566
 2409 0012 1C30     		adds	r0, r0, #28
 2410              	.LVL193:
 860:D:/fchai/work/i-cube/I-CUBE-HUAWEI/Drivers/BSP/Components/lps22hh\lps22hh.c ****       {
 2411              		.loc 1 860 11 view .LVU567
 2412 0014 FFF7FEFF 		bl	lps22hh_fifo_full_on_int_set
 2413              	.LVL194:
 860:D:/fchai/work/i-cube/I-CUBE-HUAWEI/Drivers/BSP/Components/lps22hh\lps22hh.c ****       {
 2414              		.loc 1 860 10 view .LVU568
 2415 0018 0038     		subs	r0, r0, #0
 2416 001a 18BF     		it	ne
 2417 001c 0120     		movne	r0, #1
 2418 001e 4042     		rsbs	r0, r0, #0
 876:D:/fchai/work/i-cube/I-CUBE-HUAWEI/Drivers/BSP/Components/lps22hh\lps22hh.c **** 
 2419              		.loc 1 876 1 view .LVU569
 2420 0020 08BD     		pop	{r3, pc}
 2421              	.LVL195:
 2422              	.L193:
 854:D:/fchai/work/i-cube/I-CUBE-HUAWEI/Drivers/BSP/Components/lps22hh\lps22hh.c ****       {
ARM GAS  T:\msys\tmp\cc7XUJLO.s 			page 71


 2423              		.loc 1 854 7 is_stmt 1 view .LVU570
 854:D:/fchai/work/i-cube/I-CUBE-HUAWEI/Drivers/BSP/Components/lps22hh\lps22hh.c ****       {
 2424              		.loc 1 854 11 is_stmt 0 view .LVU571
 2425 0022 0121     		movs	r1, #1
 2426              	.LVL196:
 854:D:/fchai/work/i-cube/I-CUBE-HUAWEI/Drivers/BSP/Components/lps22hh\lps22hh.c ****       {
 2427              		.loc 1 854 11 view .LVU572
 2428 0024 1C30     		adds	r0, r0, #28
 2429              	.LVL197:
 854:D:/fchai/work/i-cube/I-CUBE-HUAWEI/Drivers/BSP/Components/lps22hh\lps22hh.c ****       {
 2430              		.loc 1 854 11 view .LVU573
 2431 0026 FFF7FEFF 		bl	lps22hh_fifo_threshold_on_int_set
 2432              	.LVL198:
 854:D:/fchai/work/i-cube/I-CUBE-HUAWEI/Drivers/BSP/Components/lps22hh\lps22hh.c ****       {
 2433              		.loc 1 854 10 view .LVU574
 2434 002a 0038     		subs	r0, r0, #0
 2435 002c 18BF     		it	ne
 2436 002e 0120     		movne	r0, #1
 2437 0030 4042     		rsbs	r0, r0, #0
 876:D:/fchai/work/i-cube/I-CUBE-HUAWEI/Drivers/BSP/Components/lps22hh\lps22hh.c **** 
 2438              		.loc 1 876 1 view .LVU575
 2439 0032 08BD     		pop	{r3, pc}
 2440              	.LVL199:
 2441              	.L189:
 866:D:/fchai/work/i-cube/I-CUBE-HUAWEI/Drivers/BSP/Components/lps22hh\lps22hh.c ****       {
 2442              		.loc 1 866 7 is_stmt 1 view .LVU576
 866:D:/fchai/work/i-cube/I-CUBE-HUAWEI/Drivers/BSP/Components/lps22hh\lps22hh.c ****       {
 2443              		.loc 1 866 11 is_stmt 0 view .LVU577
 2444 0034 0121     		movs	r1, #1
 2445              	.LVL200:
 866:D:/fchai/work/i-cube/I-CUBE-HUAWEI/Drivers/BSP/Components/lps22hh\lps22hh.c ****       {
 2446              		.loc 1 866 11 view .LVU578
 2447 0036 1C30     		adds	r0, r0, #28
 2448              	.LVL201:
 866:D:/fchai/work/i-cube/I-CUBE-HUAWEI/Drivers/BSP/Components/lps22hh\lps22hh.c ****       {
 2449              		.loc 1 866 11 view .LVU579
 2450 0038 FFF7FEFF 		bl	lps22hh_fifo_ovr_on_int_set
 2451              	.LVL202:
 866:D:/fchai/work/i-cube/I-CUBE-HUAWEI/Drivers/BSP/Components/lps22hh\lps22hh.c ****       {
 2452              		.loc 1 866 10 view .LVU580
 2453 003c 0038     		subs	r0, r0, #0
 2454 003e 18BF     		it	ne
 2455 0040 0120     		movne	r0, #1
 2456 0042 4042     		rsbs	r0, r0, #0
 876:D:/fchai/work/i-cube/I-CUBE-HUAWEI/Drivers/BSP/Components/lps22hh\lps22hh.c **** 
 2457              		.loc 1 876 1 view .LVU581
 2458 0044 08BD     		pop	{r3, pc}
 2459              		.cfi_endproc
 2460              	.LFE31:
 2462 0046 00BF     		.section	.text.LPS22HH_FIFO_Set_Mode,"ax",%progbits
 2463              		.align	1
 2464              		.p2align 2,,3
 2465              		.global	LPS22HH_FIFO_Set_Mode
 2466              		.syntax unified
 2467              		.thumb
 2468              		.thumb_func
 2469              		.fpu fpv4-sp-d16
ARM GAS  T:\msys\tmp\cc7XUJLO.s 			page 72


 2471              	LPS22HH_FIFO_Set_Mode:
 2472              	.LVL203:
 2473              	.LFB32:
 885:D:/fchai/work/i-cube/I-CUBE-HUAWEI/Drivers/BSP/Components/lps22hh\lps22hh.c ****   /* Verify that the passed parameter contains one of the valid values */
 2474              		.loc 1 885 1 is_stmt 1 view -0
 2475              		.cfi_startproc
 2476              		@ args = 0, pretend = 0, frame = 0
 2477              		@ frame_needed = 0, uses_anonymous_args = 0
 887:D:/fchai/work/i-cube/I-CUBE-HUAWEI/Drivers/BSP/Components/lps22hh\lps22hh.c ****   {
 2478              		.loc 1 887 3 view .LVU583
 2479 0000 0229     		cmp	r1, #2
 885:D:/fchai/work/i-cube/I-CUBE-HUAWEI/Drivers/BSP/Components/lps22hh\lps22hh.c ****   /* Verify that the passed parameter contains one of the valid values */
 2480              		.loc 1 885 1 is_stmt 0 view .LVU584
 2481 0002 08B5     		push	{r3, lr}
 2482              	.LCFI69:
 2483              		.cfi_def_cfa_offset 8
 2484              		.cfi_offset 3, -8
 2485              		.cfi_offset 14, -4
 887:D:/fchai/work/i-cube/I-CUBE-HUAWEI/Drivers/BSP/Components/lps22hh\lps22hh.c ****   {
 2486              		.loc 1 887 3 view .LVU585
 2487 0004 02D9     		bls	.L195
 2488 0006 4B1F     		subs	r3, r1, #5
 2489 0008 022B     		cmp	r3, #2
 2490 000a 07D8     		bhi	.L197
 2491              	.L195:
 895:D:/fchai/work/i-cube/I-CUBE-HUAWEI/Drivers/BSP/Components/lps22hh\lps22hh.c ****     default:
 2492              		.loc 1 895 7 is_stmt 1 view .LVU586
 900:D:/fchai/work/i-cube/I-CUBE-HUAWEI/Drivers/BSP/Components/lps22hh\lps22hh.c ****   {
 2493              		.loc 1 900 3 view .LVU587
 900:D:/fchai/work/i-cube/I-CUBE-HUAWEI/Drivers/BSP/Components/lps22hh\lps22hh.c ****   {
 2494              		.loc 1 900 7 is_stmt 0 view .LVU588
 2495 000c 1C30     		adds	r0, r0, #28
 2496              	.LVL204:
 900:D:/fchai/work/i-cube/I-CUBE-HUAWEI/Drivers/BSP/Components/lps22hh\lps22hh.c ****   {
 2497              		.loc 1 900 7 view .LVU589
 2498 000e FFF7FEFF 		bl	lps22hh_fifo_mode_set
 2499              	.LVL205:
 900:D:/fchai/work/i-cube/I-CUBE-HUAWEI/Drivers/BSP/Components/lps22hh\lps22hh.c ****   {
 2500              		.loc 1 900 6 view .LVU590
 2501 0012 0038     		subs	r0, r0, #0
 2502 0014 18BF     		it	ne
 2503 0016 0120     		movne	r0, #1
 2504 0018 4042     		rsbs	r0, r0, #0
 906:D:/fchai/work/i-cube/I-CUBE-HUAWEI/Drivers/BSP/Components/lps22hh\lps22hh.c **** 
 2505              		.loc 1 906 1 view .LVU591
 2506 001a 08BD     		pop	{r3, pc}
 2507              	.LVL206:
 2508              	.L197:
 887:D:/fchai/work/i-cube/I-CUBE-HUAWEI/Drivers/BSP/Components/lps22hh\lps22hh.c ****   {
 2509              		.loc 1 887 3 view .LVU592
 2510 001c 4FF0FF30 		mov	r0, #-1
 2511              	.LVL207:
 906:D:/fchai/work/i-cube/I-CUBE-HUAWEI/Drivers/BSP/Components/lps22hh\lps22hh.c **** 
 2512              		.loc 1 906 1 view .LVU593
 2513 0020 08BD     		pop	{r3, pc}
 2514              		.cfi_endproc
 2515              	.LFE32:
ARM GAS  T:\msys\tmp\cc7XUJLO.s 			page 73


 2517 0022 00BF     		.section	.text.LPS22HH_FIFO_Set_Watermark_Level,"ax",%progbits
 2518              		.align	1
 2519              		.p2align 2,,3
 2520              		.global	LPS22HH_FIFO_Set_Watermark_Level
 2521              		.syntax unified
 2522              		.thumb
 2523              		.thumb_func
 2524              		.fpu fpv4-sp-d16
 2526              	LPS22HH_FIFO_Set_Watermark_Level:
 2527              	.LVL208:
 2528              	.LFB33:
 915:D:/fchai/work/i-cube/I-CUBE-HUAWEI/Drivers/BSP/Components/lps22hh\lps22hh.c ****   if (lps22hh_fifo_watermark_set(&(pObj->Ctx), Watermark) != LPS22HH_OK)
 2529              		.loc 1 915 1 is_stmt 1 view -0
 2530              		.cfi_startproc
 2531              		@ args = 0, pretend = 0, frame = 0
 2532              		@ frame_needed = 0, uses_anonymous_args = 0
 916:D:/fchai/work/i-cube/I-CUBE-HUAWEI/Drivers/BSP/Components/lps22hh\lps22hh.c ****   {
 2533              		.loc 1 916 3 view .LVU595
 915:D:/fchai/work/i-cube/I-CUBE-HUAWEI/Drivers/BSP/Components/lps22hh\lps22hh.c ****   if (lps22hh_fifo_watermark_set(&(pObj->Ctx), Watermark) != LPS22HH_OK)
 2534              		.loc 1 915 1 is_stmt 0 view .LVU596
 2535 0000 08B5     		push	{r3, lr}
 2536              	.LCFI70:
 2537              		.cfi_def_cfa_offset 8
 2538              		.cfi_offset 3, -8
 2539              		.cfi_offset 14, -4
 916:D:/fchai/work/i-cube/I-CUBE-HUAWEI/Drivers/BSP/Components/lps22hh\lps22hh.c ****   {
 2540              		.loc 1 916 7 view .LVU597
 2541 0002 1C30     		adds	r0, r0, #28
 2542              	.LVL209:
 916:D:/fchai/work/i-cube/I-CUBE-HUAWEI/Drivers/BSP/Components/lps22hh\lps22hh.c ****   {
 2543              		.loc 1 916 7 view .LVU598
 2544 0004 FFF7FEFF 		bl	lps22hh_fifo_watermark_set
 2545              	.LVL210:
 916:D:/fchai/work/i-cube/I-CUBE-HUAWEI/Drivers/BSP/Components/lps22hh\lps22hh.c ****   {
 2546              		.loc 1 916 6 view .LVU599
 2547 0008 0038     		subs	r0, r0, #0
 2548 000a 18BF     		it	ne
 2549 000c 0120     		movne	r0, #1
 922:D:/fchai/work/i-cube/I-CUBE-HUAWEI/Drivers/BSP/Components/lps22hh\lps22hh.c **** 
 2550              		.loc 1 922 1 view .LVU600
 2551 000e 4042     		rsbs	r0, r0, #0
 2552 0010 08BD     		pop	{r3, pc}
 2553              		.cfi_endproc
 2554              	.LFE33:
 2556 0012 00BF     		.section	.text.LPS22HH_FIFO_Stop_On_Watermark,"ax",%progbits
 2557              		.align	1
 2558              		.p2align 2,,3
 2559              		.global	LPS22HH_FIFO_Stop_On_Watermark
 2560              		.syntax unified
 2561              		.thumb
 2562              		.thumb_func
 2563              		.fpu fpv4-sp-d16
 2565              	LPS22HH_FIFO_Stop_On_Watermark:
 2566              	.LVL211:
 2567              	.LFB34:
 931:D:/fchai/work/i-cube/I-CUBE-HUAWEI/Drivers/BSP/Components/lps22hh\lps22hh.c ****   if (lps22hh_fifo_stop_on_wtm_set(&(pObj->Ctx), Stop) != LPS22HH_OK)
 2568              		.loc 1 931 1 is_stmt 1 view -0
ARM GAS  T:\msys\tmp\cc7XUJLO.s 			page 74


 2569              		.cfi_startproc
 2570              		@ args = 0, pretend = 0, frame = 0
 2571              		@ frame_needed = 0, uses_anonymous_args = 0
 932:D:/fchai/work/i-cube/I-CUBE-HUAWEI/Drivers/BSP/Components/lps22hh\lps22hh.c ****   {
 2572              		.loc 1 932 3 view .LVU602
 931:D:/fchai/work/i-cube/I-CUBE-HUAWEI/Drivers/BSP/Components/lps22hh\lps22hh.c ****   if (lps22hh_fifo_stop_on_wtm_set(&(pObj->Ctx), Stop) != LPS22HH_OK)
 2573              		.loc 1 931 1 is_stmt 0 view .LVU603
 2574 0000 08B5     		push	{r3, lr}
 2575              	.LCFI71:
 2576              		.cfi_def_cfa_offset 8
 2577              		.cfi_offset 3, -8
 2578              		.cfi_offset 14, -4
 932:D:/fchai/work/i-cube/I-CUBE-HUAWEI/Drivers/BSP/Components/lps22hh\lps22hh.c ****   {
 2579              		.loc 1 932 7 view .LVU604
 2580 0002 1C30     		adds	r0, r0, #28
 2581              	.LVL212:
 932:D:/fchai/work/i-cube/I-CUBE-HUAWEI/Drivers/BSP/Components/lps22hh\lps22hh.c ****   {
 2582              		.loc 1 932 7 view .LVU605
 2583 0004 FFF7FEFF 		bl	lps22hh_fifo_stop_on_wtm_set
 2584              	.LVL213:
 932:D:/fchai/work/i-cube/I-CUBE-HUAWEI/Drivers/BSP/Components/lps22hh\lps22hh.c ****   {
 2585              		.loc 1 932 6 view .LVU606
 2586 0008 0038     		subs	r0, r0, #0
 2587 000a 18BF     		it	ne
 2588 000c 0120     		movne	r0, #1
 938:D:/fchai/work/i-cube/I-CUBE-HUAWEI/Drivers/BSP/Components/lps22hh\lps22hh.c **** 
 2589              		.loc 1 938 1 view .LVU607
 2590 000e 4042     		rsbs	r0, r0, #0
 2591 0010 08BD     		pop	{r3, pc}
 2592              		.cfi_endproc
 2593              	.LFE34:
 2595 0012 00BF     		.section	.text.LPS22HH_Set_One_Shot,"ax",%progbits
 2596              		.align	1
 2597              		.p2align 2,,3
 2598              		.global	LPS22HH_Set_One_Shot
 2599              		.syntax unified
 2600              		.thumb
 2601              		.thumb_func
 2602              		.fpu fpv4-sp-d16
 2604              	LPS22HH_Set_One_Shot:
 2605              	.LVL214:
 2606              	.LFB35:
 946:D:/fchai/work/i-cube/I-CUBE-HUAWEI/Drivers/BSP/Components/lps22hh\lps22hh.c ****   /* Start One Shot Measurement */
 2607              		.loc 1 946 1 is_stmt 1 view -0
 2608              		.cfi_startproc
 2609              		@ args = 0, pretend = 0, frame = 0
 2610              		@ frame_needed = 0, uses_anonymous_args = 0
 948:D:/fchai/work/i-cube/I-CUBE-HUAWEI/Drivers/BSP/Components/lps22hh\lps22hh.c ****   {
 2611              		.loc 1 948 3 view .LVU609
 946:D:/fchai/work/i-cube/I-CUBE-HUAWEI/Drivers/BSP/Components/lps22hh\lps22hh.c ****   /* Start One Shot Measurement */
 2612              		.loc 1 946 1 is_stmt 0 view .LVU610
 2613 0000 08B5     		push	{r3, lr}
 2614              	.LCFI72:
 2615              		.cfi_def_cfa_offset 8
 2616              		.cfi_offset 3, -8
 2617              		.cfi_offset 14, -4
 948:D:/fchai/work/i-cube/I-CUBE-HUAWEI/Drivers/BSP/Components/lps22hh\lps22hh.c ****   {
ARM GAS  T:\msys\tmp\cc7XUJLO.s 			page 75


 2618              		.loc 1 948 6 view .LVU611
 2619 0002 0821     		movs	r1, #8
 2620 0004 1C30     		adds	r0, r0, #28
 2621              	.LVL215:
 948:D:/fchai/work/i-cube/I-CUBE-HUAWEI/Drivers/BSP/Components/lps22hh\lps22hh.c ****   {
 2622              		.loc 1 948 6 view .LVU612
 2623 0006 FFF7FEFF 		bl	lps22hh_data_rate_set
 2624              	.LVL216:
 948:D:/fchai/work/i-cube/I-CUBE-HUAWEI/Drivers/BSP/Components/lps22hh\lps22hh.c ****   {
 2625              		.loc 1 948 5 view .LVU613
 2626 000a 0038     		subs	r0, r0, #0
 2627 000c 18BF     		it	ne
 2628 000e 0120     		movne	r0, #1
 954:D:/fchai/work/i-cube/I-CUBE-HUAWEI/Drivers/BSP/Components/lps22hh\lps22hh.c **** 
 2629              		.loc 1 954 1 view .LVU614
 2630 0010 4042     		rsbs	r0, r0, #0
 2631 0012 08BD     		pop	{r3, pc}
 2632              		.cfi_endproc
 2633              	.LFE35:
 2635              		.section	.text.LPS22HH_Get_One_Shot_Status,"ax",%progbits
 2636              		.align	1
 2637              		.p2align 2,,3
 2638              		.global	LPS22HH_Get_One_Shot_Status
 2639              		.syntax unified
 2640              		.thumb
 2641              		.thumb_func
 2642              		.fpu fpv4-sp-d16
 2644              	LPS22HH_Get_One_Shot_Status:
 2645              	.LVL217:
 2646              	.LFB36:
 963:D:/fchai/work/i-cube/I-CUBE-HUAWEI/Drivers/BSP/Components/lps22hh\lps22hh.c ****   uint8_t p_da;
 2647              		.loc 1 963 1 is_stmt 1 view -0
 2648              		.cfi_startproc
 2649              		@ args = 0, pretend = 0, frame = 8
 2650              		@ frame_needed = 0, uses_anonymous_args = 0
 964:D:/fchai/work/i-cube/I-CUBE-HUAWEI/Drivers/BSP/Components/lps22hh\lps22hh.c ****   uint8_t t_da;
 2651              		.loc 1 964 3 view .LVU616
 965:D:/fchai/work/i-cube/I-CUBE-HUAWEI/Drivers/BSP/Components/lps22hh\lps22hh.c **** 
 2652              		.loc 1 965 3 view .LVU617
 968:D:/fchai/work/i-cube/I-CUBE-HUAWEI/Drivers/BSP/Components/lps22hh\lps22hh.c ****   {
 2653              		.loc 1 968 3 view .LVU618
 963:D:/fchai/work/i-cube/I-CUBE-HUAWEI/Drivers/BSP/Components/lps22hh\lps22hh.c ****   uint8_t p_da;
 2654              		.loc 1 963 1 is_stmt 0 view .LVU619
 2655 0000 30B5     		push	{r4, r5, lr}
 2656              	.LCFI73:
 2657              		.cfi_def_cfa_offset 12
 2658              		.cfi_offset 4, -12
 2659              		.cfi_offset 5, -8
 2660              		.cfi_offset 14, -4
 968:D:/fchai/work/i-cube/I-CUBE-HUAWEI/Drivers/BSP/Components/lps22hh\lps22hh.c ****   {
 2661              		.loc 1 968 6 view .LVU620
 2662 0002 00F11C04 		add	r4, r0, #28
 963:D:/fchai/work/i-cube/I-CUBE-HUAWEI/Drivers/BSP/Components/lps22hh\lps22hh.c ****   uint8_t p_da;
 2663              		.loc 1 963 1 view .LVU621
 2664 0006 83B0     		sub	sp, sp, #12
 2665              	.LCFI74:
 2666              		.cfi_def_cfa_offset 24
ARM GAS  T:\msys\tmp\cc7XUJLO.s 			page 76


 963:D:/fchai/work/i-cube/I-CUBE-HUAWEI/Drivers/BSP/Components/lps22hh\lps22hh.c ****   uint8_t p_da;
 2667              		.loc 1 963 1 view .LVU622
 2668 0008 0D46     		mov	r5, r1
 968:D:/fchai/work/i-cube/I-CUBE-HUAWEI/Drivers/BSP/Components/lps22hh\lps22hh.c ****   {
 2669              		.loc 1 968 6 view .LVU623
 2670 000a 2046     		mov	r0, r4
 2671              	.LVL218:
 968:D:/fchai/work/i-cube/I-CUBE-HUAWEI/Drivers/BSP/Components/lps22hh\lps22hh.c ****   {
 2672              		.loc 1 968 6 view .LVU624
 2673 000c 0DF10601 		add	r1, sp, #6
 2674              	.LVL219:
 968:D:/fchai/work/i-cube/I-CUBE-HUAWEI/Drivers/BSP/Components/lps22hh\lps22hh.c ****   {
 2675              		.loc 1 968 6 view .LVU625
 2676 0010 FFF7FEFF 		bl	lps22hh_press_flag_data_ready_get
 2677              	.LVL220:
 968:D:/fchai/work/i-cube/I-CUBE-HUAWEI/Drivers/BSP/Components/lps22hh\lps22hh.c ****   {
 2678              		.loc 1 968 5 view .LVU626
 2679 0014 98B9     		cbnz	r0, .L208
 974:D:/fchai/work/i-cube/I-CUBE-HUAWEI/Drivers/BSP/Components/lps22hh\lps22hh.c ****   {
 2680              		.loc 1 974 3 is_stmt 1 view .LVU627
 974:D:/fchai/work/i-cube/I-CUBE-HUAWEI/Drivers/BSP/Components/lps22hh\lps22hh.c ****   {
 2681              		.loc 1 974 6 is_stmt 0 view .LVU628
 2682 0016 2046     		mov	r0, r4
 2683 0018 0DF10701 		add	r1, sp, #7
 2684 001c FFF7FEFF 		bl	lps22hh_temp_flag_data_ready_get
 2685              	.LVL221:
 974:D:/fchai/work/i-cube/I-CUBE-HUAWEI/Drivers/BSP/Components/lps22hh\lps22hh.c ****   {
 2686              		.loc 1 974 5 view .LVU629
 2687 0020 68B9     		cbnz	r0, .L208
 979:D:/fchai/work/i-cube/I-CUBE-HUAWEI/Drivers/BSP/Components/lps22hh\lps22hh.c ****   {
 2688              		.loc 1 979 3 is_stmt 1 view .LVU630
 979:D:/fchai/work/i-cube/I-CUBE-HUAWEI/Drivers/BSP/Components/lps22hh\lps22hh.c ****   {
 2689              		.loc 1 979 5 is_stmt 0 view .LVU631
 2690 0022 9DF80630 		ldrb	r3, [sp, #6]	@ zero_extendqisi2
 2691 0026 33B1     		cbz	r3, .L209
 979:D:/fchai/work/i-cube/I-CUBE-HUAWEI/Drivers/BSP/Components/lps22hh\lps22hh.c ****   {
 2692              		.loc 1 979 11 discriminator 1 view .LVU632
 2693 0028 9DF80730 		ldrb	r3, [sp, #7]	@ zero_extendqisi2
 2694 002c 1BB1     		cbz	r3, .L209
 981:D:/fchai/work/i-cube/I-CUBE-HUAWEI/Drivers/BSP/Components/lps22hh\lps22hh.c ****   }
 2695              		.loc 1 981 5 is_stmt 1 view .LVU633
 981:D:/fchai/work/i-cube/I-CUBE-HUAWEI/Drivers/BSP/Components/lps22hh\lps22hh.c ****   }
 2696              		.loc 1 981 13 is_stmt 0 view .LVU634
 2697 002e 0123     		movs	r3, #1
 2698 0030 2B70     		strb	r3, [r5]
 989:D:/fchai/work/i-cube/I-CUBE-HUAWEI/Drivers/BSP/Components/lps22hh\lps22hh.c **** 
 2699              		.loc 1 989 1 view .LVU635
 2700 0032 03B0     		add	sp, sp, #12
 2701              	.LCFI75:
 2702              		.cfi_remember_state
 2703              		.cfi_def_cfa_offset 12
 2704              		@ sp needed
 2705 0034 30BD     		pop	{r4, r5, pc}
 2706              	.LVL222:
 2707              	.L209:
 2708              	.LCFI76:
 2709              		.cfi_restore_state
ARM GAS  T:\msys\tmp\cc7XUJLO.s 			page 77


 985:D:/fchai/work/i-cube/I-CUBE-HUAWEI/Drivers/BSP/Components/lps22hh\lps22hh.c ****   }
 2710              		.loc 1 985 5 is_stmt 1 view .LVU636
 985:D:/fchai/work/i-cube/I-CUBE-HUAWEI/Drivers/BSP/Components/lps22hh\lps22hh.c ****   }
 2711              		.loc 1 985 13 is_stmt 0 view .LVU637
 2712 0036 0023     		movs	r3, #0
 2713 0038 2B70     		strb	r3, [r5]
 2714              	.L205:
 989:D:/fchai/work/i-cube/I-CUBE-HUAWEI/Drivers/BSP/Components/lps22hh\lps22hh.c **** 
 2715              		.loc 1 989 1 view .LVU638
 2716 003a 03B0     		add	sp, sp, #12
 2717              	.LCFI77:
 2718              		.cfi_remember_state
 2719              		.cfi_def_cfa_offset 12
 2720              		@ sp needed
 2721 003c 30BD     		pop	{r4, r5, pc}
 2722              	.LVL223:
 2723              	.L208:
 2724              	.LCFI78:
 2725              		.cfi_restore_state
 970:D:/fchai/work/i-cube/I-CUBE-HUAWEI/Drivers/BSP/Components/lps22hh\lps22hh.c ****   }
 2726              		.loc 1 970 12 view .LVU639
 2727 003e 4FF0FF30 		mov	r0, #-1
 2728 0042 FAE7     		b	.L205
 2729              		.cfi_endproc
 2730              	.LFE36:
 2732              		.section	.text.LPS22HH_Enable_DRDY_Interrupt,"ax",%progbits
 2733              		.align	1
 2734              		.p2align 2,,3
 2735              		.global	LPS22HH_Enable_DRDY_Interrupt
 2736              		.syntax unified
 2737              		.thumb
 2738              		.thumb_func
 2739              		.fpu fpv4-sp-d16
 2741              	LPS22HH_Enable_DRDY_Interrupt:
 2742              	.LVL224:
 2743              	.LFB37:
 997:D:/fchai/work/i-cube/I-CUBE-HUAWEI/Drivers/BSP/Components/lps22hh\lps22hh.c ****   lps22hh_ctrl_reg3_t ctrl1_reg3;
 2744              		.loc 1 997 1 is_stmt 1 view -0
 2745              		.cfi_startproc
 2746              		@ args = 0, pretend = 0, frame = 8
 2747              		@ frame_needed = 0, uses_anonymous_args = 0
 998:D:/fchai/work/i-cube/I-CUBE-HUAWEI/Drivers/BSP/Components/lps22hh\lps22hh.c **** 
 2748              		.loc 1 998 3 view .LVU641
1001:D:/fchai/work/i-cube/I-CUBE-HUAWEI/Drivers/BSP/Components/lps22hh\lps22hh.c ****   {
 2749              		.loc 1 1001 3 view .LVU642
 997:D:/fchai/work/i-cube/I-CUBE-HUAWEI/Drivers/BSP/Components/lps22hh\lps22hh.c ****   lps22hh_ctrl_reg3_t ctrl1_reg3;
 2750              		.loc 1 997 1 is_stmt 0 view .LVU643
 2751 0000 10B5     		push	{r4, lr}
 2752              	.LCFI79:
 2753              		.cfi_def_cfa_offset 8
 2754              		.cfi_offset 4, -8
 2755              		.cfi_offset 14, -4
1001:D:/fchai/work/i-cube/I-CUBE-HUAWEI/Drivers/BSP/Components/lps22hh\lps22hh.c ****   {
 2756              		.loc 1 1001 6 view .LVU644
 2757 0002 00F11C04 		add	r4, r0, #28
 997:D:/fchai/work/i-cube/I-CUBE-HUAWEI/Drivers/BSP/Components/lps22hh\lps22hh.c ****   lps22hh_ctrl_reg3_t ctrl1_reg3;
 2758              		.loc 1 997 1 view .LVU645
ARM GAS  T:\msys\tmp\cc7XUJLO.s 			page 78


 2759 0006 82B0     		sub	sp, sp, #8
 2760              	.LCFI80:
 2761              		.cfi_def_cfa_offset 16
1001:D:/fchai/work/i-cube/I-CUBE-HUAWEI/Drivers/BSP/Components/lps22hh\lps22hh.c ****   {
 2762              		.loc 1 1001 6 view .LVU646
 2763 0008 2046     		mov	r0, r4
 2764              	.LVL225:
1001:D:/fchai/work/i-cube/I-CUBE-HUAWEI/Drivers/BSP/Components/lps22hh\lps22hh.c ****   {
 2765              		.loc 1 1001 6 view .LVU647
 2766 000a 01A9     		add	r1, sp, #4
 2767 000c FFF7FEFF 		bl	lps22hh_pin_int_route_get
 2768              	.LVL226:
1001:D:/fchai/work/i-cube/I-CUBE-HUAWEI/Drivers/BSP/Components/lps22hh\lps22hh.c ****   {
 2769              		.loc 1 1001 5 view .LVU648
 2770 0010 78B9     		cbnz	r0, .L219
1005:D:/fchai/work/i-cube/I-CUBE-HUAWEI/Drivers/BSP/Components/lps22hh\lps22hh.c ****   if(lps22hh_pin_int_route_set(&(pObj->Ctx), &ctrl1_reg3) != LPS22HH_OK)
 2771              		.loc 1 1005 3 is_stmt 1 view .LVU649
1005:D:/fchai/work/i-cube/I-CUBE-HUAWEI/Drivers/BSP/Components/lps22hh\lps22hh.c ****   if(lps22hh_pin_int_route_set(&(pObj->Ctx), &ctrl1_reg3) != LPS22HH_OK)
 2772              		.loc 1 1005 19 is_stmt 0 view .LVU650
 2773 0012 9DF80430 		ldrb	r3, [sp, #4]	@ zero_extendqisi2
1006:D:/fchai/work/i-cube/I-CUBE-HUAWEI/Drivers/BSP/Components/lps22hh\lps22hh.c ****   {
 2774              		.loc 1 1006 6 view .LVU651
 2775 0016 01A9     		add	r1, sp, #4
1005:D:/fchai/work/i-cube/I-CUBE-HUAWEI/Drivers/BSP/Components/lps22hh\lps22hh.c ****   if(lps22hh_pin_int_route_set(&(pObj->Ctx), &ctrl1_reg3) != LPS22HH_OK)
 2776              		.loc 1 1005 19 view .LVU652
 2777 0018 43F00403 		orr	r3, r3, #4
1006:D:/fchai/work/i-cube/I-CUBE-HUAWEI/Drivers/BSP/Components/lps22hh\lps22hh.c ****   {
 2778              		.loc 1 1006 6 view .LVU653
 2779 001c 2046     		mov	r0, r4
1005:D:/fchai/work/i-cube/I-CUBE-HUAWEI/Drivers/BSP/Components/lps22hh\lps22hh.c ****   if(lps22hh_pin_int_route_set(&(pObj->Ctx), &ctrl1_reg3) != LPS22HH_OK)
 2780              		.loc 1 1005 19 view .LVU654
 2781 001e 8DF80430 		strb	r3, [sp, #4]
1006:D:/fchai/work/i-cube/I-CUBE-HUAWEI/Drivers/BSP/Components/lps22hh\lps22hh.c ****   {
 2782              		.loc 1 1006 3 is_stmt 1 view .LVU655
1006:D:/fchai/work/i-cube/I-CUBE-HUAWEI/Drivers/BSP/Components/lps22hh\lps22hh.c ****   {
 2783              		.loc 1 1006 6 is_stmt 0 view .LVU656
 2784 0022 FFF7FEFF 		bl	lps22hh_pin_int_route_set
 2785              	.LVL227:
1006:D:/fchai/work/i-cube/I-CUBE-HUAWEI/Drivers/BSP/Components/lps22hh\lps22hh.c ****   {
 2786              		.loc 1 1006 5 view .LVU657
 2787 0026 0038     		subs	r0, r0, #0
 2788 0028 18BF     		it	ne
 2789 002a 0120     		movne	r0, #1
 2790 002c 4042     		rsbs	r0, r0, #0
 2791              	.L217:
1012:D:/fchai/work/i-cube/I-CUBE-HUAWEI/Drivers/BSP/Components/lps22hh\lps22hh.c **** 
 2792              		.loc 1 1012 1 view .LVU658
 2793 002e 02B0     		add	sp, sp, #8
 2794              	.LCFI81:
 2795              		.cfi_remember_state
 2796              		.cfi_def_cfa_offset 8
 2797              		@ sp needed
 2798 0030 10BD     		pop	{r4, pc}
 2799              	.LVL228:
 2800              	.L219:
 2801              	.LCFI82:
 2802              		.cfi_restore_state
ARM GAS  T:\msys\tmp\cc7XUJLO.s 			page 79


1003:D:/fchai/work/i-cube/I-CUBE-HUAWEI/Drivers/BSP/Components/lps22hh\lps22hh.c ****   }
 2803              		.loc 1 1003 12 view .LVU659
 2804 0032 4FF0FF30 		mov	r0, #-1
 2805 0036 FAE7     		b	.L217
 2806              		.cfi_endproc
 2807              	.LFE37:
 2809              		.section	.text.LPS22HH_Set_Power_Mode,"ax",%progbits
 2810              		.align	1
 2811              		.p2align 2,,3
 2812              		.global	LPS22HH_Set_Power_Mode
 2813              		.syntax unified
 2814              		.thumb
 2815              		.thumb_func
 2816              		.fpu fpv4-sp-d16
 2818              	LPS22HH_Set_Power_Mode:
 2819              	.LVL229:
 2820              	.LFB38:
1021:D:/fchai/work/i-cube/I-CUBE-HUAWEI/Drivers/BSP/Components/lps22hh\lps22hh.c ****   lps22hh_ctrl_reg2_t ctrl_reg2;
 2821              		.loc 1 1021 1 is_stmt 1 view -0
 2822              		.cfi_startproc
 2823              		@ args = 0, pretend = 0, frame = 8
 2824              		@ frame_needed = 0, uses_anonymous_args = 0
1022:D:/fchai/work/i-cube/I-CUBE-HUAWEI/Drivers/BSP/Components/lps22hh\lps22hh.c **** 
 2825              		.loc 1 1022 3 view .LVU661
1024:D:/fchai/work/i-cube/I-CUBE-HUAWEI/Drivers/BSP/Components/lps22hh\lps22hh.c ****   {
 2826              		.loc 1 1024 3 view .LVU662
1021:D:/fchai/work/i-cube/I-CUBE-HUAWEI/Drivers/BSP/Components/lps22hh\lps22hh.c ****   lps22hh_ctrl_reg2_t ctrl_reg2;
 2827              		.loc 1 1021 1 is_stmt 0 view .LVU663
 2828 0000 70B5     		push	{r4, r5, r6, lr}
 2829              	.LCFI83:
 2830              		.cfi_def_cfa_offset 16
 2831              		.cfi_offset 4, -16
 2832              		.cfi_offset 5, -12
 2833              		.cfi_offset 6, -8
 2834              		.cfi_offset 14, -4
1024:D:/fchai/work/i-cube/I-CUBE-HUAWEI/Drivers/BSP/Components/lps22hh\lps22hh.c ****   {
 2835              		.loc 1 1024 6 view .LVU664
 2836 0002 00F11C05 		add	r5, r0, #28
1021:D:/fchai/work/i-cube/I-CUBE-HUAWEI/Drivers/BSP/Components/lps22hh\lps22hh.c ****   lps22hh_ctrl_reg2_t ctrl_reg2;
 2837              		.loc 1 1021 1 view .LVU665
 2838 0006 82B0     		sub	sp, sp, #8
 2839              	.LCFI84:
 2840              		.cfi_def_cfa_offset 24
1021:D:/fchai/work/i-cube/I-CUBE-HUAWEI/Drivers/BSP/Components/lps22hh\lps22hh.c ****   lps22hh_ctrl_reg2_t ctrl_reg2;
 2841              		.loc 1 1021 1 view .LVU666
 2842 0008 0C46     		mov	r4, r1
1024:D:/fchai/work/i-cube/I-CUBE-HUAWEI/Drivers/BSP/Components/lps22hh\lps22hh.c ****   {
 2843              		.loc 1 1024 6 view .LVU667
 2844 000a 2846     		mov	r0, r5
 2845              	.LVL230:
1024:D:/fchai/work/i-cube/I-CUBE-HUAWEI/Drivers/BSP/Components/lps22hh\lps22hh.c ****   {
 2846              		.loc 1 1024 6 view .LVU668
 2847 000c 01AA     		add	r2, sp, #4
 2848 000e 0123     		movs	r3, #1
 2849 0010 1121     		movs	r1, #17
 2850              	.LVL231:
1024:D:/fchai/work/i-cube/I-CUBE-HUAWEI/Drivers/BSP/Components/lps22hh\lps22hh.c ****   {
ARM GAS  T:\msys\tmp\cc7XUJLO.s 			page 80


 2851              		.loc 1 1024 6 view .LVU669
 2852 0012 FFF7FEFF 		bl	lps22hh_read_reg
 2853              	.LVL232:
1024:D:/fchai/work/i-cube/I-CUBE-HUAWEI/Drivers/BSP/Components/lps22hh\lps22hh.c ****   {
 2854              		.loc 1 1024 5 view .LVU670
 2855 0016 B0B9     		cbnz	r0, .L223
1029:D:/fchai/work/i-cube/I-CUBE-HUAWEI/Drivers/BSP/Components/lps22hh\lps22hh.c ****   {
 2856              		.loc 1 1029 3 is_stmt 1 view .LVU671
1029:D:/fchai/work/i-cube/I-CUBE-HUAWEI/Drivers/BSP/Components/lps22hh\lps22hh.c ****   {
 2857              		.loc 1 1029 5 is_stmt 0 view .LVU672
 2858 0018 A4F10104 		sub	r4, #1
 2859 001c 9DF80460 		ldrb	r6, [sp, #4]	@ zero_extendqisi2
 2860 0020 B4FA84F4 		clz	r4, r4
 2861 0024 6409     		lsrs	r4, r4, #5
1038:D:/fchai/work/i-cube/I-CUBE-HUAWEI/Drivers/BSP/Components/lps22hh\lps22hh.c ****   {
 2862              		.loc 1 1038 6 view .LVU673
 2863 0026 01AA     		add	r2, sp, #4
 2864 0028 2846     		mov	r0, r5
 2865 002a 64F34106 		bfi	r6, r4, #1, #1
 2866 002e 0123     		movs	r3, #1
 2867 0030 1121     		movs	r1, #17
 2868 0032 8DF80460 		strb	r6, [sp, #4]
1038:D:/fchai/work/i-cube/I-CUBE-HUAWEI/Drivers/BSP/Components/lps22hh\lps22hh.c ****   {
 2869              		.loc 1 1038 3 is_stmt 1 view .LVU674
1038:D:/fchai/work/i-cube/I-CUBE-HUAWEI/Drivers/BSP/Components/lps22hh\lps22hh.c ****   {
 2870              		.loc 1 1038 6 is_stmt 0 view .LVU675
 2871 0036 FFF7FEFF 		bl	lps22hh_write_reg
 2872              	.LVL233:
1038:D:/fchai/work/i-cube/I-CUBE-HUAWEI/Drivers/BSP/Components/lps22hh\lps22hh.c ****   {
 2873              		.loc 1 1038 5 view .LVU676
 2874 003a 0038     		subs	r0, r0, #0
 2875 003c 18BF     		it	ne
 2876 003e 0120     		movne	r0, #1
 2877 0040 4042     		rsbs	r0, r0, #0
 2878              	.L221:
1044:D:/fchai/work/i-cube/I-CUBE-HUAWEI/Drivers/BSP/Components/lps22hh\lps22hh.c **** 
 2879              		.loc 1 1044 1 view .LVU677
 2880 0042 02B0     		add	sp, sp, #8
 2881              	.LCFI85:
 2882              		.cfi_remember_state
 2883              		.cfi_def_cfa_offset 16
 2884              		@ sp needed
 2885 0044 70BD     		pop	{r4, r5, r6, pc}
 2886              	.LVL234:
 2887              	.L223:
 2888              	.LCFI86:
 2889              		.cfi_restore_state
1026:D:/fchai/work/i-cube/I-CUBE-HUAWEI/Drivers/BSP/Components/lps22hh\lps22hh.c ****   }
 2890              		.loc 1 1026 12 view .LVU678
 2891 0046 4FF0FF30 		mov	r0, #-1
 2892 004a FAE7     		b	.L221
 2893              		.cfi_endproc
 2894              	.LFE38:
 2896              		.section	.text.LPS22HH_Set_Filter_Mode,"ax",%progbits
 2897              		.align	1
 2898              		.p2align 2,,3
 2899              		.global	LPS22HH_Set_Filter_Mode
ARM GAS  T:\msys\tmp\cc7XUJLO.s 			page 81


 2900              		.syntax unified
 2901              		.thumb
 2902              		.thumb_func
 2903              		.fpu fpv4-sp-d16
 2905              	LPS22HH_Set_Filter_Mode:
 2906              	.LVL235:
 2907              	.LFB39:
1053:D:/fchai/work/i-cube/I-CUBE-HUAWEI/Drivers/BSP/Components/lps22hh\lps22hh.c ****   if(lps22hh_lp_bandwidth_set(&(pObj->Ctx), (lps22hh_lpfp_cfg_t)filterMode) != LPS22HH_OK)
 2908              		.loc 1 1053 1 is_stmt 1 view -0
 2909              		.cfi_startproc
 2910              		@ args = 0, pretend = 0, frame = 0
 2911              		@ frame_needed = 0, uses_anonymous_args = 0
1054:D:/fchai/work/i-cube/I-CUBE-HUAWEI/Drivers/BSP/Components/lps22hh\lps22hh.c ****   {
 2912              		.loc 1 1054 3 view .LVU680
1053:D:/fchai/work/i-cube/I-CUBE-HUAWEI/Drivers/BSP/Components/lps22hh\lps22hh.c ****   if(lps22hh_lp_bandwidth_set(&(pObj->Ctx), (lps22hh_lpfp_cfg_t)filterMode) != LPS22HH_OK)
 2913              		.loc 1 1053 1 is_stmt 0 view .LVU681
 2914 0000 08B5     		push	{r3, lr}
 2915              	.LCFI87:
 2916              		.cfi_def_cfa_offset 8
 2917              		.cfi_offset 3, -8
 2918              		.cfi_offset 14, -4
1054:D:/fchai/work/i-cube/I-CUBE-HUAWEI/Drivers/BSP/Components/lps22hh\lps22hh.c ****   {
 2919              		.loc 1 1054 6 view .LVU682
 2920 0002 1C30     		adds	r0, r0, #28
 2921              	.LVL236:
1054:D:/fchai/work/i-cube/I-CUBE-HUAWEI/Drivers/BSP/Components/lps22hh\lps22hh.c ****   {
 2922              		.loc 1 1054 6 view .LVU683
 2923 0004 FFF7FEFF 		bl	lps22hh_lp_bandwidth_set
 2924              	.LVL237:
1054:D:/fchai/work/i-cube/I-CUBE-HUAWEI/Drivers/BSP/Components/lps22hh\lps22hh.c ****   {
 2925              		.loc 1 1054 5 view .LVU684
 2926 0008 0038     		subs	r0, r0, #0
 2927 000a 18BF     		it	ne
 2928 000c 0120     		movne	r0, #1
1059:D:/fchai/work/i-cube/I-CUBE-HUAWEI/Drivers/BSP/Components/lps22hh\lps22hh.c **** 
 2929              		.loc 1 1059 1 view .LVU685
 2930 000e 4042     		rsbs	r0, r0, #0
 2931 0010 08BD     		pop	{r3, pc}
 2932              		.cfi_endproc
 2933              	.LFE39:
 2935              		.global	LPS22HH_TEMP_Driver
 2936              		.global	LPS22HH_PRESS_Driver
 2937              		.global	LPS22HH_COMMON_Driver
 2938 0012 00BF     		.section	.data.LPS22HH_COMMON_Driver,"aw"
 2939              		.align	2
 2942              	LPS22HH_COMMON_Driver:
 2943 0000 00000000 		.word	LPS22HH_Init
 2944 0004 00000000 		.word	LPS22HH_DeInit
 2945 0008 00000000 		.word	LPS22HH_ReadID
 2946 000c 00000000 		.word	LPS22HH_GetCapabilities
 2947              		.section	.data.LPS22HH_PRESS_Driver,"aw"
 2948              		.align	2
 2951              	LPS22HH_PRESS_Driver:
 2952 0000 00000000 		.word	LPS22HH_PRESS_Enable
 2953 0004 00000000 		.word	LPS22HH_PRESS_Disable
 2954 0008 00000000 		.word	LPS22HH_PRESS_GetOutputDataRate
 2955 000c 00000000 		.word	LPS22HH_PRESS_SetOutputDataRate
ARM GAS  T:\msys\tmp\cc7XUJLO.s 			page 82


 2956 0010 00000000 		.word	LPS22HH_PRESS_GetPressure
 2957              		.section	.data.LPS22HH_TEMP_Driver,"aw"
 2958              		.align	2
 2961              	LPS22HH_TEMP_Driver:
 2962 0000 00000000 		.word	LPS22HH_TEMP_Enable
 2963 0004 00000000 		.word	LPS22HH_TEMP_Disable
 2964 0008 00000000 		.word	LPS22HH_TEMP_GetOutputDataRate
 2965 000c 00000000 		.word	LPS22HH_TEMP_SetOutputDataRate
 2966 0010 00000000 		.word	LPS22HH_TEMP_GetTemperature
 2967              		.text
 2968              	.Letext0:
 2969              		.file 2 "t:\\msys\\3rd\\gcc-arm-none-eabi-9-2020-q2-update-win32\\arm-none-eabi\\include\\machine\
 2970              		.file 3 "t:\\msys\\3rd\\gcc-arm-none-eabi-9-2020-q2-update-win32\\arm-none-eabi\\include\\sys\\_st
 2971              		.file 4 "t:\\msys\\3rd\\gcc-arm-none-eabi-9-2020-q2-update-win32\\lib\\gcc\\arm-none-eabi\\9.3.1\\
 2972              		.file 5 "t:\\msys\\3rd\\gcc-arm-none-eabi-9-2020-q2-update-win32\\arm-none-eabi\\include\\sys\\_ty
 2973              		.file 6 "t:\\msys\\3rd\\gcc-arm-none-eabi-9-2020-q2-update-win32\\arm-none-eabi\\include\\sys\\ree
 2974              		.file 7 "t:\\msys\\3rd\\gcc-arm-none-eabi-9-2020-q2-update-win32\\arm-none-eabi\\include\\sys\\loc
 2975              		.file 8 "t:\\msys\\3rd\\gcc-arm-none-eabi-9-2020-q2-update-win32\\arm-none-eabi\\include\\math.h"
 2976              		.file 9 "D:/fchai/work/i-cube/I-CUBE-HUAWEI/Drivers/BSP/Components/lps22hh/lps22hh_reg.h"
 2977              		.file 10 "D:/fchai/work/i-cube/I-CUBE-HUAWEI/Drivers/BSP/Components/lps22hh/lps22hh.h"
ARM GAS  T:\msys\tmp\cc7XUJLO.s 			page 83


DEFINED SYMBOLS
                            *ABS*:00000000 lps22hh.c
T:\msys\tmp\cc7XUJLO.s:18     .text.LPS22HH_GetCapabilities:00000000 $t
T:\msys\tmp\cc7XUJLO.s:27     .text.LPS22HH_GetCapabilities:00000000 LPS22HH_GetCapabilities
T:\msys\tmp\cc7XUJLO.s:66     .text.LPS22HH_GetCapabilities:00000014 $d
T:\msys\tmp\cc7XUJLO.s:71     .text.ReadRegWrap:00000000 $t
T:\msys\tmp\cc7XUJLO.s:78     .text.ReadRegWrap:00000000 ReadRegWrap
T:\msys\tmp\cc7XUJLO.s:112    .text.WriteRegWrap:00000000 $t
T:\msys\tmp\cc7XUJLO.s:119    .text.WriteRegWrap:00000000 WriteRegWrap
T:\msys\tmp\cc7XUJLO.s:153    .text.LPS22HH_Init:00000000 $t
T:\msys\tmp\cc7XUJLO.s:161    .text.LPS22HH_Init:00000000 LPS22HH_Init
T:\msys\tmp\cc7XUJLO.s:266    .text.LPS22HH_ReadID:00000000 $t
T:\msys\tmp\cc7XUJLO.s:274    .text.LPS22HH_ReadID:00000000 LPS22HH_ReadID
T:\msys\tmp\cc7XUJLO.s:305    .text.LPS22HH_GetOutputDataRate:00000000 $t
T:\msys\tmp\cc7XUJLO.s:312    .text.LPS22HH_GetOutputDataRate:00000000 LPS22HH_GetOutputDataRate
T:\msys\tmp\cc7XUJLO.s:351    .text.LPS22HH_GetOutputDataRate:00000020 $d
T:\msys\tmp\cc7XUJLO.s:359    .text.LPS22HH_GetOutputDataRate:00000028 $t
T:\msys\tmp\cc7XUJLO.s:499    .text.LPS22HH_GetOutputDataRate:00000070 $d
T:\msys\tmp\cc7XUJLO.s:509    .text.LPS22HH_PRESS_GetOutputDataRate:00000000 $t
T:\msys\tmp\cc7XUJLO.s:517    .text.LPS22HH_PRESS_GetOutputDataRate:00000000 LPS22HH_PRESS_GetOutputDataRate
T:\msys\tmp\cc7XUJLO.s:534    .text.LPS22HH_SetOutputDataRate_When_Enabled:00000000 $t
T:\msys\tmp\cc7XUJLO.s:541    .text.LPS22HH_SetOutputDataRate_When_Enabled:00000000 LPS22HH_SetOutputDataRate_When_Enabled
T:\msys\tmp\cc7XUJLO.s:649    .text.LPS22HH_SetOutputDataRate_When_Enabled:00000098 $d
T:\msys\tmp\cc7XUJLO.s:656    .text.LPS22HH_PRESS_SetOutputDataRate:00000000 $t
T:\msys\tmp\cc7XUJLO.s:664    .text.LPS22HH_PRESS_SetOutputDataRate:00000000 LPS22HH_PRESS_SetOutputDataRate
T:\msys\tmp\cc7XUJLO.s:784    .text.LPS22HH_PRESS_SetOutputDataRate:00000090 $d
T:\msys\tmp\cc7XUJLO.s:793    .text.LPS22HH_TEMP_SetOutputDataRate:00000000 $t
T:\msys\tmp\cc7XUJLO.s:801    .text.LPS22HH_TEMP_SetOutputDataRate:00000000 LPS22HH_TEMP_SetOutputDataRate
T:\msys\tmp\cc7XUJLO.s:921    .text.LPS22HH_TEMP_SetOutputDataRate:00000090 $d
T:\msys\tmp\cc7XUJLO.s:930    .text.LPS22HH_PRESS_GetPressure:00000000 $t
T:\msys\tmp\cc7XUJLO.s:938    .text.LPS22HH_PRESS_GetPressure:00000000 LPS22HH_PRESS_GetPressure
T:\msys\tmp\cc7XUJLO.s:1004   .text.LPS22HH_TEMP_GetTemperature:00000000 $t
T:\msys\tmp\cc7XUJLO.s:1012   .text.LPS22HH_TEMP_GetTemperature:00000000 LPS22HH_TEMP_GetTemperature
T:\msys\tmp\cc7XUJLO.s:1078   .text.LPS22HH_PRESS_Enable:00000000 $t
T:\msys\tmp\cc7XUJLO.s:1086   .text.LPS22HH_PRESS_Enable:00000000 LPS22HH_PRESS_Enable
T:\msys\tmp\cc7XUJLO.s:1165   .text.LPS22HH_TEMP_Enable:00000000 $t
T:\msys\tmp\cc7XUJLO.s:1173   .text.LPS22HH_TEMP_Enable:00000000 LPS22HH_TEMP_Enable
T:\msys\tmp\cc7XUJLO.s:1252   .text.LPS22HH_PRESS_Disable.part.0:00000000 $t
T:\msys\tmp\cc7XUJLO.s:1259   .text.LPS22HH_PRESS_Disable.part.0:00000000 LPS22HH_PRESS_Disable.part.0
T:\msys\tmp\cc7XUJLO.s:1322   .text.LPS22HH_PRESS_Disable:00000000 $t
T:\msys\tmp\cc7XUJLO.s:1330   .text.LPS22HH_PRESS_Disable:00000000 LPS22HH_PRESS_Disable
T:\msys\tmp\cc7XUJLO.s:1354   .text.LPS22HH_TEMP_Disable.part.0:00000000 $t
T:\msys\tmp\cc7XUJLO.s:1361   .text.LPS22HH_TEMP_Disable.part.0:00000000 LPS22HH_TEMP_Disable.part.0
T:\msys\tmp\cc7XUJLO.s:1424   .text.LPS22HH_TEMP_Disable:00000000 $t
T:\msys\tmp\cc7XUJLO.s:1432   .text.LPS22HH_TEMP_Disable:00000000 LPS22HH_TEMP_Disable
T:\msys\tmp\cc7XUJLO.s:1456   .text.LPS22HH_DeInit:00000000 $t
T:\msys\tmp\cc7XUJLO.s:1464   .text.LPS22HH_DeInit:00000000 LPS22HH_DeInit
T:\msys\tmp\cc7XUJLO.s:1543   .text.LPS22HH_TEMP_GetOutputDataRate:00000000 $t
T:\msys\tmp\cc7XUJLO.s:1551   .text.LPS22HH_TEMP_GetOutputDataRate:00000000 LPS22HH_TEMP_GetOutputDataRate
T:\msys\tmp\cc7XUJLO.s:1562   .text.LPS22HH_RegisterBusIO:00000000 $t
T:\msys\tmp\cc7XUJLO.s:1570   .text.LPS22HH_RegisterBusIO:00000000 LPS22HH_RegisterBusIO
T:\msys\tmp\cc7XUJLO.s:1722   .text.LPS22HH_RegisterBusIO:00000074 $d
T:\msys\tmp\cc7XUJLO.s:1728   .text.LPS22HH_Get_Init_Status:00000000 $t
T:\msys\tmp\cc7XUJLO.s:1736   .text.LPS22HH_Get_Init_Status:00000000 LPS22HH_Get_Init_Status
T:\msys\tmp\cc7XUJLO.s:1769   .text.LPS22HH_PRESS_Get_DRDY_Status:00000000 $t
T:\msys\tmp\cc7XUJLO.s:1777   .text.LPS22HH_PRESS_Get_DRDY_Status:00000000 LPS22HH_PRESS_Get_DRDY_Status
T:\msys\tmp\cc7XUJLO.s:1808   .text.LPS22HH_TEMP_Get_DRDY_Status:00000000 $t
ARM GAS  T:\msys\tmp\cc7XUJLO.s 			page 84


T:\msys\tmp\cc7XUJLO.s:1816   .text.LPS22HH_TEMP_Get_DRDY_Status:00000000 LPS22HH_TEMP_Get_DRDY_Status
T:\msys\tmp\cc7XUJLO.s:1847   .text.LPS22HH_Read_Reg:00000000 $t
T:\msys\tmp\cc7XUJLO.s:1855   .text.LPS22HH_Read_Reg:00000000 LPS22HH_Read_Reg
T:\msys\tmp\cc7XUJLO.s:1887   .text.LPS22HH_Write_Reg:00000000 $t
T:\msys\tmp\cc7XUJLO.s:1895   .text.LPS22HH_Write_Reg:00000000 LPS22HH_Write_Reg
T:\msys\tmp\cc7XUJLO.s:1941   .text.LPS22HH_Get_Temp:00000000 $t
T:\msys\tmp\cc7XUJLO.s:1949   .text.LPS22HH_Get_Temp:00000000 LPS22HH_Get_Temp
T:\msys\tmp\cc7XUJLO.s:2019   .text.LPS22HH_Get_Temp:0000003c $d
T:\msys\tmp\cc7XUJLO.s:2024   .text.LPS22HH_FIFO_Get_Data:00000000 $t
T:\msys\tmp\cc7XUJLO.s:2032   .text.LPS22HH_FIFO_Get_Data:00000000 LPS22HH_FIFO_Get_Data
T:\msys\tmp\cc7XUJLO.s:2127   .text.LPS22HH_FIFO_Get_FTh_Status:00000000 $t
T:\msys\tmp\cc7XUJLO.s:2135   .text.LPS22HH_FIFO_Get_FTh_Status:00000000 LPS22HH_FIFO_Get_FTh_Status
T:\msys\tmp\cc7XUJLO.s:2166   .text.LPS22HH_FIFO_Get_Full_Status:00000000 $t
T:\msys\tmp\cc7XUJLO.s:2174   .text.LPS22HH_FIFO_Get_Full_Status:00000000 LPS22HH_FIFO_Get_Full_Status
T:\msys\tmp\cc7XUJLO.s:2205   .text.LPS22HH_FIFO_Get_Ovr_Status:00000000 $t
T:\msys\tmp\cc7XUJLO.s:2213   .text.LPS22HH_FIFO_Get_Ovr_Status:00000000 LPS22HH_FIFO_Get_Ovr_Status
T:\msys\tmp\cc7XUJLO.s:2244   .text.LPS22HH_FIFO_Get_Level:00000000 $t
T:\msys\tmp\cc7XUJLO.s:2252   .text.LPS22HH_FIFO_Get_Level:00000000 LPS22HH_FIFO_Get_Level
T:\msys\tmp\cc7XUJLO.s:2283   .text.LPS22HH_FIFO_Reset_Interrupt:00000000 $t
T:\msys\tmp\cc7XUJLO.s:2291   .text.LPS22HH_FIFO_Reset_Interrupt:00000000 LPS22HH_FIFO_Reset_Interrupt
T:\msys\tmp\cc7XUJLO.s:2373   .text.LPS22HH_FIFO_Set_Interrupt:00000000 $t
T:\msys\tmp\cc7XUJLO.s:2381   .text.LPS22HH_FIFO_Set_Interrupt:00000000 LPS22HH_FIFO_Set_Interrupt
T:\msys\tmp\cc7XUJLO.s:2463   .text.LPS22HH_FIFO_Set_Mode:00000000 $t
T:\msys\tmp\cc7XUJLO.s:2471   .text.LPS22HH_FIFO_Set_Mode:00000000 LPS22HH_FIFO_Set_Mode
T:\msys\tmp\cc7XUJLO.s:2518   .text.LPS22HH_FIFO_Set_Watermark_Level:00000000 $t
T:\msys\tmp\cc7XUJLO.s:2526   .text.LPS22HH_FIFO_Set_Watermark_Level:00000000 LPS22HH_FIFO_Set_Watermark_Level
T:\msys\tmp\cc7XUJLO.s:2557   .text.LPS22HH_FIFO_Stop_On_Watermark:00000000 $t
T:\msys\tmp\cc7XUJLO.s:2565   .text.LPS22HH_FIFO_Stop_On_Watermark:00000000 LPS22HH_FIFO_Stop_On_Watermark
T:\msys\tmp\cc7XUJLO.s:2596   .text.LPS22HH_Set_One_Shot:00000000 $t
T:\msys\tmp\cc7XUJLO.s:2604   .text.LPS22HH_Set_One_Shot:00000000 LPS22HH_Set_One_Shot
T:\msys\tmp\cc7XUJLO.s:2636   .text.LPS22HH_Get_One_Shot_Status:00000000 $t
T:\msys\tmp\cc7XUJLO.s:2644   .text.LPS22HH_Get_One_Shot_Status:00000000 LPS22HH_Get_One_Shot_Status
T:\msys\tmp\cc7XUJLO.s:2733   .text.LPS22HH_Enable_DRDY_Interrupt:00000000 $t
T:\msys\tmp\cc7XUJLO.s:2741   .text.LPS22HH_Enable_DRDY_Interrupt:00000000 LPS22HH_Enable_DRDY_Interrupt
T:\msys\tmp\cc7XUJLO.s:2810   .text.LPS22HH_Set_Power_Mode:00000000 $t
T:\msys\tmp\cc7XUJLO.s:2818   .text.LPS22HH_Set_Power_Mode:00000000 LPS22HH_Set_Power_Mode
T:\msys\tmp\cc7XUJLO.s:2897   .text.LPS22HH_Set_Filter_Mode:00000000 $t
T:\msys\tmp\cc7XUJLO.s:2905   .text.LPS22HH_Set_Filter_Mode:00000000 LPS22HH_Set_Filter_Mode
T:\msys\tmp\cc7XUJLO.s:2961   .data.LPS22HH_TEMP_Driver:00000000 LPS22HH_TEMP_Driver
T:\msys\tmp\cc7XUJLO.s:2951   .data.LPS22HH_PRESS_Driver:00000000 LPS22HH_PRESS_Driver
T:\msys\tmp\cc7XUJLO.s:2942   .data.LPS22HH_COMMON_Driver:00000000 LPS22HH_COMMON_Driver
T:\msys\tmp\cc7XUJLO.s:2939   .data.LPS22HH_COMMON_Driver:00000000 $d
T:\msys\tmp\cc7XUJLO.s:2948   .data.LPS22HH_PRESS_Driver:00000000 $d
T:\msys\tmp\cc7XUJLO.s:2958   .data.LPS22HH_TEMP_Driver:00000000 $d

UNDEFINED SYMBOLS
lps22hh_i3c_interface_set
lps22hh_data_rate_set
lps22hh_lp_bandwidth_set
lps22hh_block_data_update_set
lps22hh_auto_increment_set
lps22hh_device_id_get
lps22hh_data_rate_get
lps22hh_pressure_raw_get
lps22hh_from_lsb_to_hpa
lps22hh_temperature_raw_get
lps22hh_from_lsb_to_celsius
ARM GAS  T:\msys\tmp\cc7XUJLO.s 			page 85


lps22hh_write_reg
lps22hh_press_flag_data_ready_get
lps22hh_temp_flag_data_ready_get
lps22hh_read_reg
lps22hh_fifo_pressure_raw_get
lps22hh_fifo_temperature_raw_get
lps22hh_fifo_wtm_flag_get
lps22hh_fifo_full_flag_get
lps22hh_fifo_ovr_flag_get
lps22hh_fifo_data_level_get
lps22hh_fifo_full_on_int_set
lps22hh_fifo_threshold_on_int_set
lps22hh_fifo_ovr_on_int_set
lps22hh_fifo_mode_set
lps22hh_fifo_watermark_set
lps22hh_fifo_stop_on_wtm_set
lps22hh_pin_int_route_get
lps22hh_pin_int_route_set
