ARM GAS  T:\msys\tmp\ccdfMMY7.s 			page 1


   1              		.cpu cortex-m4
   2              		.eabi_attribute 27, 1
   3              		.eabi_attribute 28, 1
   4              		.eabi_attribute 20, 1
   5              		.eabi_attribute 21, 1
   6              		.eabi_attribute 23, 3
   7              		.eabi_attribute 24, 1
   8              		.eabi_attribute 25, 1
   9              		.eabi_attribute 26, 1
  10              		.eabi_attribute 30, 2
  11              		.eabi_attribute 34, 1
  12              		.eabi_attribute 18, 4
  13              		.file	"lps22hh_reg.c"
  14              		.text
  15              	.Ltext0:
  16              		.cfi_sections	.debug_frame
  17              		.section	.text.lps22hh_read_reg,"ax",%progbits
  18              		.align	1
  19              		.p2align 2,,3
  20              		.global	lps22hh_read_reg
  21              		.arch armv7e-m
  22              		.syntax unified
  23              		.thumb
  24              		.thumb_func
  25              		.fpu fpv4-sp-d16
  27              	lps22hh_read_reg:
  28              	.LVL0:
  29              	.LFB0:
  30              		.file 1 "D:/fchai/work/i-cube/I-CUBE-HUAWEI/Drivers/BSP/Components/lps22hh/lps22hh_reg.c"
   1:D:/fchai/work/i-cube/I-CUBE-HUAWEI/Drivers/BSP/Components/lps22hh\lps22hh_reg.c **** /*
   2:D:/fchai/work/i-cube/I-CUBE-HUAWEI/Drivers/BSP/Components/lps22hh\lps22hh_reg.c ****  ******************************************************************************
   3:D:/fchai/work/i-cube/I-CUBE-HUAWEI/Drivers/BSP/Components/lps22hh\lps22hh_reg.c ****  * @file    lps22hh_reg.c
   4:D:/fchai/work/i-cube/I-CUBE-HUAWEI/Drivers/BSP/Components/lps22hh\lps22hh_reg.c ****  * @author  Sensors Software Solution Team
   5:D:/fchai/work/i-cube/I-CUBE-HUAWEI/Drivers/BSP/Components/lps22hh\lps22hh_reg.c ****  * @brief   LPS22HH driver file
   6:D:/fchai/work/i-cube/I-CUBE-HUAWEI/Drivers/BSP/Components/lps22hh\lps22hh_reg.c ****  ******************************************************************************
   7:D:/fchai/work/i-cube/I-CUBE-HUAWEI/Drivers/BSP/Components/lps22hh\lps22hh_reg.c ****  * @attention
   8:D:/fchai/work/i-cube/I-CUBE-HUAWEI/Drivers/BSP/Components/lps22hh\lps22hh_reg.c ****  *
   9:D:/fchai/work/i-cube/I-CUBE-HUAWEI/Drivers/BSP/Components/lps22hh\lps22hh_reg.c ****  * <h2><center>&copy; Copyright (c) 2019 STMicroelectronics.
  10:D:/fchai/work/i-cube/I-CUBE-HUAWEI/Drivers/BSP/Components/lps22hh\lps22hh_reg.c ****  * All rights reserved.</center></h2>
  11:D:/fchai/work/i-cube/I-CUBE-HUAWEI/Drivers/BSP/Components/lps22hh\lps22hh_reg.c ****  *
  12:D:/fchai/work/i-cube/I-CUBE-HUAWEI/Drivers/BSP/Components/lps22hh\lps22hh_reg.c ****  * This software component is licensed by ST under BSD 3-Clause license,
  13:D:/fchai/work/i-cube/I-CUBE-HUAWEI/Drivers/BSP/Components/lps22hh\lps22hh_reg.c ****  * the "License"; You may not use this file except in compliance with the
  14:D:/fchai/work/i-cube/I-CUBE-HUAWEI/Drivers/BSP/Components/lps22hh\lps22hh_reg.c ****  * License. You may obtain a copy of the License at:
  15:D:/fchai/work/i-cube/I-CUBE-HUAWEI/Drivers/BSP/Components/lps22hh\lps22hh_reg.c ****  *                        opensource.org/licenses/BSD-3-Clause
  16:D:/fchai/work/i-cube/I-CUBE-HUAWEI/Drivers/BSP/Components/lps22hh\lps22hh_reg.c ****  *
  17:D:/fchai/work/i-cube/I-CUBE-HUAWEI/Drivers/BSP/Components/lps22hh\lps22hh_reg.c ****  ******************************************************************************
  18:D:/fchai/work/i-cube/I-CUBE-HUAWEI/Drivers/BSP/Components/lps22hh\lps22hh_reg.c ****  */
  19:D:/fchai/work/i-cube/I-CUBE-HUAWEI/Drivers/BSP/Components/lps22hh\lps22hh_reg.c **** 
  20:D:/fchai/work/i-cube/I-CUBE-HUAWEI/Drivers/BSP/Components/lps22hh\lps22hh_reg.c **** #include "lps22hh_reg.h"
  21:D:/fchai/work/i-cube/I-CUBE-HUAWEI/Drivers/BSP/Components/lps22hh\lps22hh_reg.c **** 
  22:D:/fchai/work/i-cube/I-CUBE-HUAWEI/Drivers/BSP/Components/lps22hh\lps22hh_reg.c **** /**
  23:D:/fchai/work/i-cube/I-CUBE-HUAWEI/Drivers/BSP/Components/lps22hh\lps22hh_reg.c ****   * @defgroup  LPS22HH
  24:D:/fchai/work/i-cube/I-CUBE-HUAWEI/Drivers/BSP/Components/lps22hh\lps22hh_reg.c ****   * @brief     This file provides a set of functions needed to drive the
  25:D:/fchai/work/i-cube/I-CUBE-HUAWEI/Drivers/BSP/Components/lps22hh\lps22hh_reg.c ****   *            lps22hh enhanced inertial module.
  26:D:/fchai/work/i-cube/I-CUBE-HUAWEI/Drivers/BSP/Components/lps22hh\lps22hh_reg.c ****   * @{
  27:D:/fchai/work/i-cube/I-CUBE-HUAWEI/Drivers/BSP/Components/lps22hh\lps22hh_reg.c ****   *
  28:D:/fchai/work/i-cube/I-CUBE-HUAWEI/Drivers/BSP/Components/lps22hh\lps22hh_reg.c ****   */
ARM GAS  T:\msys\tmp\ccdfMMY7.s 			page 2


  29:D:/fchai/work/i-cube/I-CUBE-HUAWEI/Drivers/BSP/Components/lps22hh\lps22hh_reg.c **** 
  30:D:/fchai/work/i-cube/I-CUBE-HUAWEI/Drivers/BSP/Components/lps22hh\lps22hh_reg.c **** /**
  31:D:/fchai/work/i-cube/I-CUBE-HUAWEI/Drivers/BSP/Components/lps22hh\lps22hh_reg.c ****   * @defgroup  LPS22HH_Interfaces_Functions
  32:D:/fchai/work/i-cube/I-CUBE-HUAWEI/Drivers/BSP/Components/lps22hh\lps22hh_reg.c ****   * @brief     This section provide a set of functions used to read and
  33:D:/fchai/work/i-cube/I-CUBE-HUAWEI/Drivers/BSP/Components/lps22hh\lps22hh_reg.c ****   *            write a generic register of the device.
  34:D:/fchai/work/i-cube/I-CUBE-HUAWEI/Drivers/BSP/Components/lps22hh\lps22hh_reg.c ****   *            MANDATORY: return 0 -> no Error.
  35:D:/fchai/work/i-cube/I-CUBE-HUAWEI/Drivers/BSP/Components/lps22hh\lps22hh_reg.c ****   * @{
  36:D:/fchai/work/i-cube/I-CUBE-HUAWEI/Drivers/BSP/Components/lps22hh\lps22hh_reg.c ****   *
  37:D:/fchai/work/i-cube/I-CUBE-HUAWEI/Drivers/BSP/Components/lps22hh\lps22hh_reg.c ****   */
  38:D:/fchai/work/i-cube/I-CUBE-HUAWEI/Drivers/BSP/Components/lps22hh\lps22hh_reg.c **** 
  39:D:/fchai/work/i-cube/I-CUBE-HUAWEI/Drivers/BSP/Components/lps22hh\lps22hh_reg.c **** /**
  40:D:/fchai/work/i-cube/I-CUBE-HUAWEI/Drivers/BSP/Components/lps22hh\lps22hh_reg.c ****   * @brief  Read generic device register
  41:D:/fchai/work/i-cube/I-CUBE-HUAWEI/Drivers/BSP/Components/lps22hh\lps22hh_reg.c ****   *
  42:D:/fchai/work/i-cube/I-CUBE-HUAWEI/Drivers/BSP/Components/lps22hh\lps22hh_reg.c ****   * @param  ctx   read / write interface definitions(ptr)
  43:D:/fchai/work/i-cube/I-CUBE-HUAWEI/Drivers/BSP/Components/lps22hh\lps22hh_reg.c ****   * @param  reg   register to read
  44:D:/fchai/work/i-cube/I-CUBE-HUAWEI/Drivers/BSP/Components/lps22hh\lps22hh_reg.c ****   * @param  data  pointer to buffer that store the data read(ptr)
  45:D:/fchai/work/i-cube/I-CUBE-HUAWEI/Drivers/BSP/Components/lps22hh\lps22hh_reg.c ****   * @param  len   number of consecutive register to read
  46:D:/fchai/work/i-cube/I-CUBE-HUAWEI/Drivers/BSP/Components/lps22hh\lps22hh_reg.c ****   * @retval       interface status (MANDATORY: return 0 -> no Error)
  47:D:/fchai/work/i-cube/I-CUBE-HUAWEI/Drivers/BSP/Components/lps22hh\lps22hh_reg.c ****   *
  48:D:/fchai/work/i-cube/I-CUBE-HUAWEI/Drivers/BSP/Components/lps22hh\lps22hh_reg.c ****   */
  49:D:/fchai/work/i-cube/I-CUBE-HUAWEI/Drivers/BSP/Components/lps22hh\lps22hh_reg.c **** int32_t lps22hh_read_reg(stmdev_ctx_t* ctx, uint8_t reg, uint8_t* data,
  50:D:/fchai/work/i-cube/I-CUBE-HUAWEI/Drivers/BSP/Components/lps22hh\lps22hh_reg.c ****                          uint16_t len)
  51:D:/fchai/work/i-cube/I-CUBE-HUAWEI/Drivers/BSP/Components/lps22hh\lps22hh_reg.c **** {
  31              		.loc 1 51 1 view -0
  32              		.cfi_startproc
  33              		@ args = 0, pretend = 0, frame = 0
  34              		@ frame_needed = 0, uses_anonymous_args = 0
  35              		@ link register save eliminated.
  52:D:/fchai/work/i-cube/I-CUBE-HUAWEI/Drivers/BSP/Components/lps22hh\lps22hh_reg.c ****   int32_t ret;
  36              		.loc 1 52 3 view .LVU1
  53:D:/fchai/work/i-cube/I-CUBE-HUAWEI/Drivers/BSP/Components/lps22hh\lps22hh_reg.c ****   ret = ctx->read_reg(ctx->handle, reg, data, len);
  37              		.loc 1 53 3 view .LVU2
  51:D:/fchai/work/i-cube/I-CUBE-HUAWEI/Drivers/BSP/Components/lps22hh\lps22hh_reg.c ****   int32_t ret;
  38              		.loc 1 51 1 is_stmt 0 view .LVU3
  39 0000 10B4     		push	{r4}
  40              	.LCFI0:
  41              		.cfi_def_cfa_offset 4
  42              		.cfi_offset 4, -4
  43              		.loc 1 53 9 view .LVU4
  44 0002 D0E90140 		ldrd	r4, r0, [r0, #4]
  45              	.LVL1:
  46              		.loc 1 53 9 view .LVU5
  47 0006 A446     		mov	ip, r4
  54:D:/fchai/work/i-cube/I-CUBE-HUAWEI/Drivers/BSP/Components/lps22hh\lps22hh_reg.c ****   return ret;
  55:D:/fchai/work/i-cube/I-CUBE-HUAWEI/Drivers/BSP/Components/lps22hh\lps22hh_reg.c **** }
  48              		.loc 1 55 1 view .LVU6
  49 0008 5DF8044B 		ldr	r4, [sp], #4
  50              	.LCFI1:
  51              		.cfi_restore 4
  52              		.cfi_def_cfa_offset 0
  53:D:/fchai/work/i-cube/I-CUBE-HUAWEI/Drivers/BSP/Components/lps22hh\lps22hh_reg.c ****   return ret;
  53              		.loc 1 53 9 view .LVU7
  54 000c 6047     		bx	ip
  55              	.LVL2:
  53:D:/fchai/work/i-cube/I-CUBE-HUAWEI/Drivers/BSP/Components/lps22hh\lps22hh_reg.c ****   return ret;
  56              		.loc 1 53 9 view .LVU8
  57              		.cfi_endproc
ARM GAS  T:\msys\tmp\ccdfMMY7.s 			page 3


  58              	.LFE0:
  60 000e 00BF     		.section	.text.lps22hh_write_reg,"ax",%progbits
  61              		.align	1
  62              		.p2align 2,,3
  63              		.global	lps22hh_write_reg
  64              		.syntax unified
  65              		.thumb
  66              		.thumb_func
  67              		.fpu fpv4-sp-d16
  69              	lps22hh_write_reg:
  70              	.LVL3:
  71              	.LFB1:
  56:D:/fchai/work/i-cube/I-CUBE-HUAWEI/Drivers/BSP/Components/lps22hh\lps22hh_reg.c **** 
  57:D:/fchai/work/i-cube/I-CUBE-HUAWEI/Drivers/BSP/Components/lps22hh\lps22hh_reg.c **** /**
  58:D:/fchai/work/i-cube/I-CUBE-HUAWEI/Drivers/BSP/Components/lps22hh\lps22hh_reg.c ****   * @brief  Write generic device register
  59:D:/fchai/work/i-cube/I-CUBE-HUAWEI/Drivers/BSP/Components/lps22hh\lps22hh_reg.c ****   *
  60:D:/fchai/work/i-cube/I-CUBE-HUAWEI/Drivers/BSP/Components/lps22hh\lps22hh_reg.c ****   * @param  ctx   read / write interface definitions(ptr)
  61:D:/fchai/work/i-cube/I-CUBE-HUAWEI/Drivers/BSP/Components/lps22hh\lps22hh_reg.c ****   * @param  reg   register to write
  62:D:/fchai/work/i-cube/I-CUBE-HUAWEI/Drivers/BSP/Components/lps22hh\lps22hh_reg.c ****   * @param  data  pointer to data to write in register reg(ptr)
  63:D:/fchai/work/i-cube/I-CUBE-HUAWEI/Drivers/BSP/Components/lps22hh\lps22hh_reg.c ****   * @param  len   number of consecutive register to write
  64:D:/fchai/work/i-cube/I-CUBE-HUAWEI/Drivers/BSP/Components/lps22hh\lps22hh_reg.c ****   * @retval       interface status (MANDATORY: return 0 -> no Error)
  65:D:/fchai/work/i-cube/I-CUBE-HUAWEI/Drivers/BSP/Components/lps22hh\lps22hh_reg.c ****   *
  66:D:/fchai/work/i-cube/I-CUBE-HUAWEI/Drivers/BSP/Components/lps22hh\lps22hh_reg.c ****   */
  67:D:/fchai/work/i-cube/I-CUBE-HUAWEI/Drivers/BSP/Components/lps22hh\lps22hh_reg.c **** int32_t lps22hh_write_reg(stmdev_ctx_t* ctx, uint8_t reg, uint8_t* data,
  68:D:/fchai/work/i-cube/I-CUBE-HUAWEI/Drivers/BSP/Components/lps22hh\lps22hh_reg.c ****                            uint16_t len)
  69:D:/fchai/work/i-cube/I-CUBE-HUAWEI/Drivers/BSP/Components/lps22hh\lps22hh_reg.c **** {
  72              		.loc 1 69 1 is_stmt 1 view -0
  73              		.cfi_startproc
  74              		@ args = 0, pretend = 0, frame = 0
  75              		@ frame_needed = 0, uses_anonymous_args = 0
  76              		@ link register save eliminated.
  70:D:/fchai/work/i-cube/I-CUBE-HUAWEI/Drivers/BSP/Components/lps22hh\lps22hh_reg.c ****   int32_t ret;
  77              		.loc 1 70 3 view .LVU10
  71:D:/fchai/work/i-cube/I-CUBE-HUAWEI/Drivers/BSP/Components/lps22hh\lps22hh_reg.c ****   ret = ctx->write_reg(ctx->handle, reg, data, len);
  78              		.loc 1 71 3 view .LVU11
  69:D:/fchai/work/i-cube/I-CUBE-HUAWEI/Drivers/BSP/Components/lps22hh\lps22hh_reg.c ****   int32_t ret;
  79              		.loc 1 69 1 is_stmt 0 view .LVU12
  80 0000 10B4     		push	{r4}
  81              	.LCFI2:
  82              		.cfi_def_cfa_offset 4
  83              		.cfi_offset 4, -4
  84              		.loc 1 71 9 view .LVU13
  85 0002 0468     		ldr	r4, [r0]
  86 0004 8068     		ldr	r0, [r0, #8]
  87              	.LVL4:
  88              		.loc 1 71 9 view .LVU14
  89 0006 A446     		mov	ip, r4
  72:D:/fchai/work/i-cube/I-CUBE-HUAWEI/Drivers/BSP/Components/lps22hh\lps22hh_reg.c ****   return ret;
  73:D:/fchai/work/i-cube/I-CUBE-HUAWEI/Drivers/BSP/Components/lps22hh\lps22hh_reg.c **** }
  90              		.loc 1 73 1 view .LVU15
  91 0008 5DF8044B 		ldr	r4, [sp], #4
  92              	.LCFI3:
  93              		.cfi_restore 4
  94              		.cfi_def_cfa_offset 0
  71:D:/fchai/work/i-cube/I-CUBE-HUAWEI/Drivers/BSP/Components/lps22hh\lps22hh_reg.c ****   return ret;
  95              		.loc 1 71 9 view .LVU16
  96 000c 6047     		bx	ip
ARM GAS  T:\msys\tmp\ccdfMMY7.s 			page 4


  97              	.LVL5:
  71:D:/fchai/work/i-cube/I-CUBE-HUAWEI/Drivers/BSP/Components/lps22hh\lps22hh_reg.c ****   return ret;
  98              		.loc 1 71 9 view .LVU17
  99              		.cfi_endproc
 100              	.LFE1:
 102 000e 00BF     		.section	.text.lps22hh_from_lsb_to_hpa,"ax",%progbits
 103              		.align	1
 104              		.p2align 2,,3
 105              		.global	lps22hh_from_lsb_to_hpa
 106              		.syntax unified
 107              		.thumb
 108              		.thumb_func
 109              		.fpu fpv4-sp-d16
 111              	lps22hh_from_lsb_to_hpa:
 112              	.LVL6:
 113              	.LFB2:
  74:D:/fchai/work/i-cube/I-CUBE-HUAWEI/Drivers/BSP/Components/lps22hh\lps22hh_reg.c **** 
  75:D:/fchai/work/i-cube/I-CUBE-HUAWEI/Drivers/BSP/Components/lps22hh\lps22hh_reg.c **** /**
  76:D:/fchai/work/i-cube/I-CUBE-HUAWEI/Drivers/BSP/Components/lps22hh\lps22hh_reg.c ****   * @}
  77:D:/fchai/work/i-cube/I-CUBE-HUAWEI/Drivers/BSP/Components/lps22hh\lps22hh_reg.c ****   *
  78:D:/fchai/work/i-cube/I-CUBE-HUAWEI/Drivers/BSP/Components/lps22hh\lps22hh_reg.c ****   */
  79:D:/fchai/work/i-cube/I-CUBE-HUAWEI/Drivers/BSP/Components/lps22hh\lps22hh_reg.c **** 
  80:D:/fchai/work/i-cube/I-CUBE-HUAWEI/Drivers/BSP/Components/lps22hh\lps22hh_reg.c **** /**
  81:D:/fchai/work/i-cube/I-CUBE-HUAWEI/Drivers/BSP/Components/lps22hh\lps22hh_reg.c ****   * @defgroup    LPS22HH_Sensitivity
  82:D:/fchai/work/i-cube/I-CUBE-HUAWEI/Drivers/BSP/Components/lps22hh\lps22hh_reg.c ****   * @brief       These functions convert raw-data into engineering units.
  83:D:/fchai/work/i-cube/I-CUBE-HUAWEI/Drivers/BSP/Components/lps22hh\lps22hh_reg.c ****   * @{
  84:D:/fchai/work/i-cube/I-CUBE-HUAWEI/Drivers/BSP/Components/lps22hh\lps22hh_reg.c ****   *
  85:D:/fchai/work/i-cube/I-CUBE-HUAWEI/Drivers/BSP/Components/lps22hh\lps22hh_reg.c ****   */
  86:D:/fchai/work/i-cube/I-CUBE-HUAWEI/Drivers/BSP/Components/lps22hh\lps22hh_reg.c **** float_t lps22hh_from_lsb_to_hpa(int32_t lsb)
  87:D:/fchai/work/i-cube/I-CUBE-HUAWEI/Drivers/BSP/Components/lps22hh\lps22hh_reg.c **** {
 114              		.loc 1 87 1 is_stmt 1 view -0
 115              		.cfi_startproc
 116              		@ args = 0, pretend = 0, frame = 0
 117              		@ frame_needed = 0, uses_anonymous_args = 0
 118              		@ link register save eliminated.
  88:D:/fchai/work/i-cube/I-CUBE-HUAWEI/Drivers/BSP/Components/lps22hh\lps22hh_reg.c ****   return ( (float_t) lsb / 4096.0f );
 119              		.loc 1 88 3 view .LVU19
  87:D:/fchai/work/i-cube/I-CUBE-HUAWEI/Drivers/BSP/Components/lps22hh\lps22hh_reg.c ****   return ( (float_t) lsb / 4096.0f );
 120              		.loc 1 87 1 is_stmt 0 view .LVU20
 121 0000 00EE100A 		vmov	s0, r0	@ int
  89:D:/fchai/work/i-cube/I-CUBE-HUAWEI/Drivers/BSP/Components/lps22hh\lps22hh_reg.c **** }
 122              		.loc 1 89 1 view .LVU21
 123 0004 BAEECA0A 		vcvt.f32.s32	s0, s0, #12
 124 0008 7047     		bx	lr
 125              		.cfi_endproc
 126              	.LFE2:
 128 000a 00BF     		.section	.text.lps22hh_from_lsb_to_celsius,"ax",%progbits
 129              		.align	1
 130              		.p2align 2,,3
 131              		.global	lps22hh_from_lsb_to_celsius
 132              		.syntax unified
 133              		.thumb
 134              		.thumb_func
 135              		.fpu fpv4-sp-d16
 137              	lps22hh_from_lsb_to_celsius:
 138              	.LVL7:
 139              	.LFB3:
ARM GAS  T:\msys\tmp\ccdfMMY7.s 			page 5


  90:D:/fchai/work/i-cube/I-CUBE-HUAWEI/Drivers/BSP/Components/lps22hh\lps22hh_reg.c **** 
  91:D:/fchai/work/i-cube/I-CUBE-HUAWEI/Drivers/BSP/Components/lps22hh\lps22hh_reg.c **** float_t lps22hh_from_lsb_to_celsius(int16_t lsb)
  92:D:/fchai/work/i-cube/I-CUBE-HUAWEI/Drivers/BSP/Components/lps22hh\lps22hh_reg.c **** {
 140              		.loc 1 92 1 is_stmt 1 view -0
 141              		.cfi_startproc
 142              		@ args = 0, pretend = 0, frame = 0
 143              		@ frame_needed = 0, uses_anonymous_args = 0
 144              		@ link register save eliminated.
  93:D:/fchai/work/i-cube/I-CUBE-HUAWEI/Drivers/BSP/Components/lps22hh\lps22hh_reg.c ****   return ( (float_t) lsb / 100.0f );
 145              		.loc 1 93 3 view .LVU23
 146              		.loc 1 93 12 is_stmt 0 view .LVU24
 147 0000 07EE900A 		vmov	s15, r0	@ int
 148 0004 B8EEE70A 		vcvt.f32.s32	s0, s15
 149              		.loc 1 93 26 view .LVU25
 150 0008 DFED027A 		vldr.32	s15, .L8
  94:D:/fchai/work/i-cube/I-CUBE-HUAWEI/Drivers/BSP/Components/lps22hh\lps22hh_reg.c **** }
 151              		.loc 1 94 1 view .LVU26
 152 000c 80EE270A 		vdiv.f32	s0, s0, s15
 153 0010 7047     		bx	lr
 154              	.L9:
 155 0012 00BF     		.align	2
 156              	.L8:
 157 0014 0000C842 		.word	1120403456
 158              		.cfi_endproc
 159              	.LFE3:
 161              		.section	.text.lps22hh_autozero_rst_set,"ax",%progbits
 162              		.align	1
 163              		.p2align 2,,3
 164              		.global	lps22hh_autozero_rst_set
 165              		.syntax unified
 166              		.thumb
 167              		.thumb_func
 168              		.fpu fpv4-sp-d16
 170              	lps22hh_autozero_rst_set:
 171              	.LVL8:
 172              	.LFB4:
  95:D:/fchai/work/i-cube/I-CUBE-HUAWEI/Drivers/BSP/Components/lps22hh\lps22hh_reg.c **** 
  96:D:/fchai/work/i-cube/I-CUBE-HUAWEI/Drivers/BSP/Components/lps22hh\lps22hh_reg.c **** /**
  97:D:/fchai/work/i-cube/I-CUBE-HUAWEI/Drivers/BSP/Components/lps22hh\lps22hh_reg.c ****   * @}
  98:D:/fchai/work/i-cube/I-CUBE-HUAWEI/Drivers/BSP/Components/lps22hh\lps22hh_reg.c ****   *
  99:D:/fchai/work/i-cube/I-CUBE-HUAWEI/Drivers/BSP/Components/lps22hh\lps22hh_reg.c ****   */
 100:D:/fchai/work/i-cube/I-CUBE-HUAWEI/Drivers/BSP/Components/lps22hh\lps22hh_reg.c **** 
 101:D:/fchai/work/i-cube/I-CUBE-HUAWEI/Drivers/BSP/Components/lps22hh\lps22hh_reg.c **** /**
 102:D:/fchai/work/i-cube/I-CUBE-HUAWEI/Drivers/BSP/Components/lps22hh\lps22hh_reg.c ****   * @defgroup  LPS22HH_Data_Generation
 103:D:/fchai/work/i-cube/I-CUBE-HUAWEI/Drivers/BSP/Components/lps22hh\lps22hh_reg.c ****   * @brief     This section groups all the functions concerning
 104:D:/fchai/work/i-cube/I-CUBE-HUAWEI/Drivers/BSP/Components/lps22hh\lps22hh_reg.c ****   *            data generation.
 105:D:/fchai/work/i-cube/I-CUBE-HUAWEI/Drivers/BSP/Components/lps22hh\lps22hh_reg.c ****   * @{
 106:D:/fchai/work/i-cube/I-CUBE-HUAWEI/Drivers/BSP/Components/lps22hh\lps22hh_reg.c ****   *
 107:D:/fchai/work/i-cube/I-CUBE-HUAWEI/Drivers/BSP/Components/lps22hh\lps22hh_reg.c ****   */
 108:D:/fchai/work/i-cube/I-CUBE-HUAWEI/Drivers/BSP/Components/lps22hh\lps22hh_reg.c **** 
 109:D:/fchai/work/i-cube/I-CUBE-HUAWEI/Drivers/BSP/Components/lps22hh\lps22hh_reg.c **** /**
 110:D:/fchai/work/i-cube/I-CUBE-HUAWEI/Drivers/BSP/Components/lps22hh\lps22hh_reg.c ****   * @brief  Reset Autozero function.[set]
 111:D:/fchai/work/i-cube/I-CUBE-HUAWEI/Drivers/BSP/Components/lps22hh\lps22hh_reg.c ****   *
 112:D:/fchai/work/i-cube/I-CUBE-HUAWEI/Drivers/BSP/Components/lps22hh\lps22hh_reg.c ****   * @param  ctx      read / write interface definitions
 113:D:/fchai/work/i-cube/I-CUBE-HUAWEI/Drivers/BSP/Components/lps22hh\lps22hh_reg.c ****   * @param  val      change the values of reset_az in reg INTERRUPT_CFG
 114:D:/fchai/work/i-cube/I-CUBE-HUAWEI/Drivers/BSP/Components/lps22hh\lps22hh_reg.c ****   * @retval          interface status (MANDATORY: return 0 -> no Error)
 115:D:/fchai/work/i-cube/I-CUBE-HUAWEI/Drivers/BSP/Components/lps22hh\lps22hh_reg.c ****   *
ARM GAS  T:\msys\tmp\ccdfMMY7.s 			page 6


 116:D:/fchai/work/i-cube/I-CUBE-HUAWEI/Drivers/BSP/Components/lps22hh\lps22hh_reg.c ****   */
 117:D:/fchai/work/i-cube/I-CUBE-HUAWEI/Drivers/BSP/Components/lps22hh\lps22hh_reg.c **** int32_t lps22hh_autozero_rst_set(stmdev_ctx_t *ctx, uint8_t val)
 118:D:/fchai/work/i-cube/I-CUBE-HUAWEI/Drivers/BSP/Components/lps22hh\lps22hh_reg.c **** {
 173              		.loc 1 118 1 is_stmt 1 view -0
 174              		.cfi_startproc
 175              		@ args = 0, pretend = 0, frame = 8
 176              		@ frame_needed = 0, uses_anonymous_args = 0
 119:D:/fchai/work/i-cube/I-CUBE-HUAWEI/Drivers/BSP/Components/lps22hh\lps22hh_reg.c ****   lps22hh_interrupt_cfg_t reg;
 177              		.loc 1 119 3 view .LVU28
 120:D:/fchai/work/i-cube/I-CUBE-HUAWEI/Drivers/BSP/Components/lps22hh\lps22hh_reg.c ****   int32_t ret;
 178              		.loc 1 120 3 view .LVU29
 121:D:/fchai/work/i-cube/I-CUBE-HUAWEI/Drivers/BSP/Components/lps22hh\lps22hh_reg.c **** 
 122:D:/fchai/work/i-cube/I-CUBE-HUAWEI/Drivers/BSP/Components/lps22hh\lps22hh_reg.c ****   ret = lps22hh_read_reg(ctx, LPS22HH_INTERRUPT_CFG, (uint8_t*) &reg, 1);
 179              		.loc 1 122 3 view .LVU30
 118:D:/fchai/work/i-cube/I-CUBE-HUAWEI/Drivers/BSP/Components/lps22hh\lps22hh_reg.c ****   lps22hh_interrupt_cfg_t reg;
 180              		.loc 1 118 1 is_stmt 0 view .LVU31
 181 0000 70B5     		push	{r4, r5, r6, lr}
 182              	.LCFI4:
 183              		.cfi_def_cfa_offset 16
 184              		.cfi_offset 4, -16
 185              		.cfi_offset 5, -12
 186              		.cfi_offset 6, -8
 187              		.cfi_offset 14, -4
 188 0002 82B0     		sub	sp, sp, #8
 189              	.LCFI5:
 190              		.cfi_def_cfa_offset 24
 118:D:/fchai/work/i-cube/I-CUBE-HUAWEI/Drivers/BSP/Components/lps22hh\lps22hh_reg.c ****   lps22hh_interrupt_cfg_t reg;
 191              		.loc 1 118 1 view .LVU32
 192 0004 0446     		mov	r4, r0
 193              	.LVL9:
 194              	.LBB212:
 195              	.LBI212:
  49:D:/fchai/work/i-cube/I-CUBE-HUAWEI/Drivers/BSP/Components/lps22hh\lps22hh_reg.c ****                          uint16_t len)
 196              		.loc 1 49 9 is_stmt 1 view .LVU33
 197              	.LBB213:
  52:D:/fchai/work/i-cube/I-CUBE-HUAWEI/Drivers/BSP/Components/lps22hh\lps22hh_reg.c ****   ret = ctx->read_reg(ctx->handle, reg, data, len);
 198              		.loc 1 52 3 view .LVU34
  53:D:/fchai/work/i-cube/I-CUBE-HUAWEI/Drivers/BSP/Components/lps22hh\lps22hh_reg.c ****   return ret;
 199              		.loc 1 53 3 view .LVU35
 200              	.LBE213:
 201              	.LBE212:
 118:D:/fchai/work/i-cube/I-CUBE-HUAWEI/Drivers/BSP/Components/lps22hh\lps22hh_reg.c ****   lps22hh_interrupt_cfg_t reg;
 202              		.loc 1 118 1 is_stmt 0 view .LVU36
 203 0006 0D46     		mov	r5, r1
 204              	.LBB215:
 205              	.LBB214:
  53:D:/fchai/work/i-cube/I-CUBE-HUAWEI/Drivers/BSP/Components/lps22hh\lps22hh_reg.c ****   return ret;
 206              		.loc 1 53 9 view .LVU37
 207 0008 D0E90160 		ldrd	r6, r0, [r0, #4]
 208              	.LVL10:
  53:D:/fchai/work/i-cube/I-CUBE-HUAWEI/Drivers/BSP/Components/lps22hh\lps22hh_reg.c ****   return ret;
 209              		.loc 1 53 9 view .LVU38
 210 000c 01AA     		add	r2, sp, #4
 211              	.LVL11:
  53:D:/fchai/work/i-cube/I-CUBE-HUAWEI/Drivers/BSP/Components/lps22hh\lps22hh_reg.c ****   return ret;
 212              		.loc 1 53 9 view .LVU39
 213 000e 0123     		movs	r3, #1
ARM GAS  T:\msys\tmp\ccdfMMY7.s 			page 7


 214 0010 0B21     		movs	r1, #11
 215              	.LVL12:
  53:D:/fchai/work/i-cube/I-CUBE-HUAWEI/Drivers/BSP/Components/lps22hh\lps22hh_reg.c ****   return ret;
 216              		.loc 1 53 9 view .LVU40
 217 0012 B047     		blx	r6
 218              	.LVL13:
  54:D:/fchai/work/i-cube/I-CUBE-HUAWEI/Drivers/BSP/Components/lps22hh\lps22hh_reg.c **** }
 219              		.loc 1 54 3 is_stmt 1 view .LVU41
  54:D:/fchai/work/i-cube/I-CUBE-HUAWEI/Drivers/BSP/Components/lps22hh\lps22hh_reg.c **** }
 220              		.loc 1 54 3 is_stmt 0 view .LVU42
 221              	.LBE214:
 222              	.LBE215:
 123:D:/fchai/work/i-cube/I-CUBE-HUAWEI/Drivers/BSP/Components/lps22hh\lps22hh_reg.c ****   if (ret == 0) {
 223              		.loc 1 123 3 is_stmt 1 view .LVU43
 224              		.loc 1 123 6 is_stmt 0 view .LVU44
 225 0014 58B9     		cbnz	r0, .L10
 124:D:/fchai/work/i-cube/I-CUBE-HUAWEI/Drivers/BSP/Components/lps22hh\lps22hh_reg.c ****     reg.reset_az = val;
 226              		.loc 1 124 5 is_stmt 1 view .LVU45
 227              		.loc 1 124 18 is_stmt 0 view .LVU46
 228 0016 9DF80430 		ldrb	r3, [sp, #4]	@ zero_extendqisi2
 229              	.LBB216:
 230              	.LBB217:
  71:D:/fchai/work/i-cube/I-CUBE-HUAWEI/Drivers/BSP/Components/lps22hh\lps22hh_reg.c ****   return ret;
 231              		.loc 1 71 9 view .LVU47
 232 001a 2668     		ldr	r6, [r4]
 233 001c A068     		ldr	r0, [r4, #8]
 234              	.LVL14:
  71:D:/fchai/work/i-cube/I-CUBE-HUAWEI/Drivers/BSP/Components/lps22hh\lps22hh_reg.c ****   return ret;
 235              		.loc 1 71 9 view .LVU48
 236              	.LBE217:
 237              	.LBE216:
 238              		.loc 1 124 18 view .LVU49
 239 001e 65F30413 		bfi	r3, r5, #4, #1
 240 0022 8DF80430 		strb	r3, [sp, #4]
 125:D:/fchai/work/i-cube/I-CUBE-HUAWEI/Drivers/BSP/Components/lps22hh\lps22hh_reg.c ****     ret = lps22hh_write_reg(ctx, LPS22HH_INTERRUPT_CFG, (uint8_t*) &reg, 1);
 241              		.loc 1 125 5 is_stmt 1 view .LVU50
 242              	.LVL15:
 243              	.LBB219:
 244              	.LBI216:
  67:D:/fchai/work/i-cube/I-CUBE-HUAWEI/Drivers/BSP/Components/lps22hh\lps22hh_reg.c ****                            uint16_t len)
 245              		.loc 1 67 9 view .LVU51
 246              	.LBB218:
  70:D:/fchai/work/i-cube/I-CUBE-HUAWEI/Drivers/BSP/Components/lps22hh\lps22hh_reg.c ****   ret = ctx->write_reg(ctx->handle, reg, data, len);
 247              		.loc 1 70 3 view .LVU52
  71:D:/fchai/work/i-cube/I-CUBE-HUAWEI/Drivers/BSP/Components/lps22hh\lps22hh_reg.c ****   return ret;
 248              		.loc 1 71 3 view .LVU53
  71:D:/fchai/work/i-cube/I-CUBE-HUAWEI/Drivers/BSP/Components/lps22hh\lps22hh_reg.c ****   return ret;
 249              		.loc 1 71 9 is_stmt 0 view .LVU54
 250 0026 01AA     		add	r2, sp, #4
 251              	.LVL16:
  71:D:/fchai/work/i-cube/I-CUBE-HUAWEI/Drivers/BSP/Components/lps22hh\lps22hh_reg.c ****   return ret;
 252              		.loc 1 71 9 view .LVU55
 253 0028 0123     		movs	r3, #1
 254 002a 0B21     		movs	r1, #11
 255 002c B047     		blx	r6
 256              	.LVL17:
  72:D:/fchai/work/i-cube/I-CUBE-HUAWEI/Drivers/BSP/Components/lps22hh\lps22hh_reg.c **** }
ARM GAS  T:\msys\tmp\ccdfMMY7.s 			page 8


 257              		.loc 1 72 3 is_stmt 1 view .LVU56
  72:D:/fchai/work/i-cube/I-CUBE-HUAWEI/Drivers/BSP/Components/lps22hh\lps22hh_reg.c **** }
 258              		.loc 1 72 3 is_stmt 0 view .LVU57
 259              	.LBE218:
 260              	.LBE219:
 126:D:/fchai/work/i-cube/I-CUBE-HUAWEI/Drivers/BSP/Components/lps22hh\lps22hh_reg.c ****   }
 127:D:/fchai/work/i-cube/I-CUBE-HUAWEI/Drivers/BSP/Components/lps22hh\lps22hh_reg.c ****   return ret;
 261              		.loc 1 127 3 is_stmt 1 view .LVU58
 262              	.L10:
 128:D:/fchai/work/i-cube/I-CUBE-HUAWEI/Drivers/BSP/Components/lps22hh\lps22hh_reg.c **** }
 263              		.loc 1 128 1 is_stmt 0 view .LVU59
 264 002e 02B0     		add	sp, sp, #8
 265              	.LCFI6:
 266              		.cfi_def_cfa_offset 16
 267              		@ sp needed
 268 0030 70BD     		pop	{r4, r5, r6, pc}
 269              		.loc 1 128 1 view .LVU60
 270              		.cfi_endproc
 271              	.LFE4:
 273 0032 00BF     		.section	.text.lps22hh_autozero_rst_get,"ax",%progbits
 274              		.align	1
 275              		.p2align 2,,3
 276              		.global	lps22hh_autozero_rst_get
 277              		.syntax unified
 278              		.thumb
 279              		.thumb_func
 280              		.fpu fpv4-sp-d16
 282              	lps22hh_autozero_rst_get:
 283              	.LVL18:
 284              	.LFB5:
 129:D:/fchai/work/i-cube/I-CUBE-HUAWEI/Drivers/BSP/Components/lps22hh\lps22hh_reg.c **** 
 130:D:/fchai/work/i-cube/I-CUBE-HUAWEI/Drivers/BSP/Components/lps22hh\lps22hh_reg.c **** /**
 131:D:/fchai/work/i-cube/I-CUBE-HUAWEI/Drivers/BSP/Components/lps22hh\lps22hh_reg.c ****   * @brief  Reset Autozero function.[get]
 132:D:/fchai/work/i-cube/I-CUBE-HUAWEI/Drivers/BSP/Components/lps22hh\lps22hh_reg.c ****   *
 133:D:/fchai/work/i-cube/I-CUBE-HUAWEI/Drivers/BSP/Components/lps22hh\lps22hh_reg.c ****   * @param  ctx      read / write interface definitions
 134:D:/fchai/work/i-cube/I-CUBE-HUAWEI/Drivers/BSP/Components/lps22hh\lps22hh_reg.c ****   * @param  val      change the values of reset_az in reg INTERRUPT_CFG
 135:D:/fchai/work/i-cube/I-CUBE-HUAWEI/Drivers/BSP/Components/lps22hh\lps22hh_reg.c ****   * @retval          interface status (MANDATORY: return 0 -> no Error)
 136:D:/fchai/work/i-cube/I-CUBE-HUAWEI/Drivers/BSP/Components/lps22hh\lps22hh_reg.c ****   *
 137:D:/fchai/work/i-cube/I-CUBE-HUAWEI/Drivers/BSP/Components/lps22hh\lps22hh_reg.c ****   */
 138:D:/fchai/work/i-cube/I-CUBE-HUAWEI/Drivers/BSP/Components/lps22hh\lps22hh_reg.c **** int32_t lps22hh_autozero_rst_get(stmdev_ctx_t *ctx, uint8_t *val)
 139:D:/fchai/work/i-cube/I-CUBE-HUAWEI/Drivers/BSP/Components/lps22hh\lps22hh_reg.c **** {
 285              		.loc 1 139 1 is_stmt 1 view -0
 286              		.cfi_startproc
 287              		@ args = 0, pretend = 0, frame = 8
 288              		@ frame_needed = 0, uses_anonymous_args = 0
 140:D:/fchai/work/i-cube/I-CUBE-HUAWEI/Drivers/BSP/Components/lps22hh\lps22hh_reg.c ****   lps22hh_interrupt_cfg_t reg;
 289              		.loc 1 140 3 view .LVU62
 141:D:/fchai/work/i-cube/I-CUBE-HUAWEI/Drivers/BSP/Components/lps22hh\lps22hh_reg.c ****   int32_t ret;
 290              		.loc 1 141 3 view .LVU63
 142:D:/fchai/work/i-cube/I-CUBE-HUAWEI/Drivers/BSP/Components/lps22hh\lps22hh_reg.c **** 
 143:D:/fchai/work/i-cube/I-CUBE-HUAWEI/Drivers/BSP/Components/lps22hh\lps22hh_reg.c ****   ret = lps22hh_read_reg(ctx, LPS22HH_INTERRUPT_CFG, (uint8_t*) &reg, 1);
 291              		.loc 1 143 3 view .LVU64
 139:D:/fchai/work/i-cube/I-CUBE-HUAWEI/Drivers/BSP/Components/lps22hh\lps22hh_reg.c ****   lps22hh_interrupt_cfg_t reg;
 292              		.loc 1 139 1 is_stmt 0 view .LVU65
 293 0000 30B5     		push	{r4, r5, lr}
 294              	.LCFI7:
 295              		.cfi_def_cfa_offset 12
ARM GAS  T:\msys\tmp\ccdfMMY7.s 			page 9


 296              		.cfi_offset 4, -12
 297              		.cfi_offset 5, -8
 298              		.cfi_offset 14, -4
 299 0002 83B0     		sub	sp, sp, #12
 300              	.LCFI8:
 301              		.cfi_def_cfa_offset 24
 302              	.LVL19:
 303              	.LBB220:
 304              	.LBI220:
  49:D:/fchai/work/i-cube/I-CUBE-HUAWEI/Drivers/BSP/Components/lps22hh\lps22hh_reg.c ****                          uint16_t len)
 305              		.loc 1 49 9 is_stmt 1 view .LVU66
 306              	.LBB221:
  52:D:/fchai/work/i-cube/I-CUBE-HUAWEI/Drivers/BSP/Components/lps22hh\lps22hh_reg.c ****   ret = ctx->read_reg(ctx->handle, reg, data, len);
 307              		.loc 1 52 3 view .LVU67
  53:D:/fchai/work/i-cube/I-CUBE-HUAWEI/Drivers/BSP/Components/lps22hh\lps22hh_reg.c ****   return ret;
 308              		.loc 1 53 3 view .LVU68
 309              	.LBE221:
 310              	.LBE220:
 139:D:/fchai/work/i-cube/I-CUBE-HUAWEI/Drivers/BSP/Components/lps22hh\lps22hh_reg.c ****   lps22hh_interrupt_cfg_t reg;
 311              		.loc 1 139 1 is_stmt 0 view .LVU69
 312 0004 0C46     		mov	r4, r1
 313              	.LBB223:
 314              	.LBB222:
  53:D:/fchai/work/i-cube/I-CUBE-HUAWEI/Drivers/BSP/Components/lps22hh\lps22hh_reg.c ****   return ret;
 315              		.loc 1 53 9 view .LVU70
 316 0006 D0E90150 		ldrd	r5, r0, [r0, #4]
 317              	.LVL20:
  53:D:/fchai/work/i-cube/I-CUBE-HUAWEI/Drivers/BSP/Components/lps22hh\lps22hh_reg.c ****   return ret;
 318              		.loc 1 53 9 view .LVU71
 319 000a 0123     		movs	r3, #1
 320 000c 01AA     		add	r2, sp, #4
 321              	.LVL21:
  53:D:/fchai/work/i-cube/I-CUBE-HUAWEI/Drivers/BSP/Components/lps22hh\lps22hh_reg.c ****   return ret;
 322              		.loc 1 53 9 view .LVU72
 323 000e 0B21     		movs	r1, #11
 324              	.LVL22:
  53:D:/fchai/work/i-cube/I-CUBE-HUAWEI/Drivers/BSP/Components/lps22hh\lps22hh_reg.c ****   return ret;
 325              		.loc 1 53 9 view .LVU73
 326 0010 A847     		blx	r5
 327              	.LVL23:
  54:D:/fchai/work/i-cube/I-CUBE-HUAWEI/Drivers/BSP/Components/lps22hh\lps22hh_reg.c **** }
 328              		.loc 1 54 3 is_stmt 1 view .LVU74
  54:D:/fchai/work/i-cube/I-CUBE-HUAWEI/Drivers/BSP/Components/lps22hh\lps22hh_reg.c **** }
 329              		.loc 1 54 3 is_stmt 0 view .LVU75
 330              	.LBE222:
 331              	.LBE223:
 144:D:/fchai/work/i-cube/I-CUBE-HUAWEI/Drivers/BSP/Components/lps22hh\lps22hh_reg.c ****   *val = reg.reset_az;
 332              		.loc 1 144 3 is_stmt 1 view .LVU76
 333              		.loc 1 144 13 is_stmt 0 view .LVU77
 334 0012 9DF80430 		ldrb	r3, [sp, #4]	@ zero_extendqisi2
 335 0016 C3F30013 		ubfx	r3, r3, #4, #1
 336              		.loc 1 144 8 view .LVU78
 337 001a 2370     		strb	r3, [r4]
 145:D:/fchai/work/i-cube/I-CUBE-HUAWEI/Drivers/BSP/Components/lps22hh\lps22hh_reg.c **** 
 146:D:/fchai/work/i-cube/I-CUBE-HUAWEI/Drivers/BSP/Components/lps22hh\lps22hh_reg.c ****   return ret;
 338              		.loc 1 146 3 is_stmt 1 view .LVU79
 147:D:/fchai/work/i-cube/I-CUBE-HUAWEI/Drivers/BSP/Components/lps22hh\lps22hh_reg.c **** }
ARM GAS  T:\msys\tmp\ccdfMMY7.s 			page 10


 339              		.loc 1 147 1 is_stmt 0 view .LVU80
 340 001c 03B0     		add	sp, sp, #12
 341              	.LCFI9:
 342              		.cfi_def_cfa_offset 12
 343              		@ sp needed
 344 001e 30BD     		pop	{r4, r5, pc}
 345              		.loc 1 147 1 view .LVU81
 346              		.cfi_endproc
 347              	.LFE5:
 349              		.section	.text.lps22hh_autozero_set,"ax",%progbits
 350              		.align	1
 351              		.p2align 2,,3
 352              		.global	lps22hh_autozero_set
 353              		.syntax unified
 354              		.thumb
 355              		.thumb_func
 356              		.fpu fpv4-sp-d16
 358              	lps22hh_autozero_set:
 359              	.LVL24:
 360              	.LFB6:
 148:D:/fchai/work/i-cube/I-CUBE-HUAWEI/Drivers/BSP/Components/lps22hh\lps22hh_reg.c **** 
 149:D:/fchai/work/i-cube/I-CUBE-HUAWEI/Drivers/BSP/Components/lps22hh\lps22hh_reg.c **** /**
 150:D:/fchai/work/i-cube/I-CUBE-HUAWEI/Drivers/BSP/Components/lps22hh\lps22hh_reg.c ****   * @brief  Enable Autozero function.[set]
 151:D:/fchai/work/i-cube/I-CUBE-HUAWEI/Drivers/BSP/Components/lps22hh\lps22hh_reg.c ****   *
 152:D:/fchai/work/i-cube/I-CUBE-HUAWEI/Drivers/BSP/Components/lps22hh\lps22hh_reg.c ****   * @param  ctx      read / write interface definitions
 153:D:/fchai/work/i-cube/I-CUBE-HUAWEI/Drivers/BSP/Components/lps22hh\lps22hh_reg.c ****   * @param  val      change the values of autozero in reg INTERRUPT_CFG
 154:D:/fchai/work/i-cube/I-CUBE-HUAWEI/Drivers/BSP/Components/lps22hh\lps22hh_reg.c ****   * @retval          interface status (MANDATORY: return 0 -> no Error)
 155:D:/fchai/work/i-cube/I-CUBE-HUAWEI/Drivers/BSP/Components/lps22hh\lps22hh_reg.c ****   *
 156:D:/fchai/work/i-cube/I-CUBE-HUAWEI/Drivers/BSP/Components/lps22hh\lps22hh_reg.c ****   */
 157:D:/fchai/work/i-cube/I-CUBE-HUAWEI/Drivers/BSP/Components/lps22hh\lps22hh_reg.c **** int32_t lps22hh_autozero_set(stmdev_ctx_t *ctx, uint8_t val)
 158:D:/fchai/work/i-cube/I-CUBE-HUAWEI/Drivers/BSP/Components/lps22hh\lps22hh_reg.c **** {
 361              		.loc 1 158 1 is_stmt 1 view -0
 362              		.cfi_startproc
 363              		@ args = 0, pretend = 0, frame = 8
 364              		@ frame_needed = 0, uses_anonymous_args = 0
 159:D:/fchai/work/i-cube/I-CUBE-HUAWEI/Drivers/BSP/Components/lps22hh\lps22hh_reg.c ****   lps22hh_interrupt_cfg_t reg;
 365              		.loc 1 159 3 view .LVU83
 160:D:/fchai/work/i-cube/I-CUBE-HUAWEI/Drivers/BSP/Components/lps22hh\lps22hh_reg.c ****   int32_t ret;
 366              		.loc 1 160 3 view .LVU84
 161:D:/fchai/work/i-cube/I-CUBE-HUAWEI/Drivers/BSP/Components/lps22hh\lps22hh_reg.c **** 
 162:D:/fchai/work/i-cube/I-CUBE-HUAWEI/Drivers/BSP/Components/lps22hh\lps22hh_reg.c ****   ret = lps22hh_read_reg(ctx, LPS22HH_INTERRUPT_CFG, (uint8_t*) &reg, 1);
 367              		.loc 1 162 3 view .LVU85
 158:D:/fchai/work/i-cube/I-CUBE-HUAWEI/Drivers/BSP/Components/lps22hh\lps22hh_reg.c ****   lps22hh_interrupt_cfg_t reg;
 368              		.loc 1 158 1 is_stmt 0 view .LVU86
 369 0000 70B5     		push	{r4, r5, r6, lr}
 370              	.LCFI10:
 371              		.cfi_def_cfa_offset 16
 372              		.cfi_offset 4, -16
 373              		.cfi_offset 5, -12
 374              		.cfi_offset 6, -8
 375              		.cfi_offset 14, -4
 376 0002 82B0     		sub	sp, sp, #8
 377              	.LCFI11:
 378              		.cfi_def_cfa_offset 24
 158:D:/fchai/work/i-cube/I-CUBE-HUAWEI/Drivers/BSP/Components/lps22hh\lps22hh_reg.c ****   lps22hh_interrupt_cfg_t reg;
 379              		.loc 1 158 1 view .LVU87
 380 0004 0446     		mov	r4, r0
ARM GAS  T:\msys\tmp\ccdfMMY7.s 			page 11


 381              	.LVL25:
 382              	.LBB224:
 383              	.LBI224:
  49:D:/fchai/work/i-cube/I-CUBE-HUAWEI/Drivers/BSP/Components/lps22hh\lps22hh_reg.c ****                          uint16_t len)
 384              		.loc 1 49 9 is_stmt 1 view .LVU88
 385              	.LBB225:
  52:D:/fchai/work/i-cube/I-CUBE-HUAWEI/Drivers/BSP/Components/lps22hh\lps22hh_reg.c ****   ret = ctx->read_reg(ctx->handle, reg, data, len);
 386              		.loc 1 52 3 view .LVU89
  53:D:/fchai/work/i-cube/I-CUBE-HUAWEI/Drivers/BSP/Components/lps22hh\lps22hh_reg.c ****   return ret;
 387              		.loc 1 53 3 view .LVU90
 388              	.LBE225:
 389              	.LBE224:
 158:D:/fchai/work/i-cube/I-CUBE-HUAWEI/Drivers/BSP/Components/lps22hh\lps22hh_reg.c ****   lps22hh_interrupt_cfg_t reg;
 390              		.loc 1 158 1 is_stmt 0 view .LVU91
 391 0006 0D46     		mov	r5, r1
 392              	.LBB227:
 393              	.LBB226:
  53:D:/fchai/work/i-cube/I-CUBE-HUAWEI/Drivers/BSP/Components/lps22hh\lps22hh_reg.c ****   return ret;
 394              		.loc 1 53 9 view .LVU92
 395 0008 D0E90160 		ldrd	r6, r0, [r0, #4]
 396              	.LVL26:
  53:D:/fchai/work/i-cube/I-CUBE-HUAWEI/Drivers/BSP/Components/lps22hh\lps22hh_reg.c ****   return ret;
 397              		.loc 1 53 9 view .LVU93
 398 000c 01AA     		add	r2, sp, #4
 399              	.LVL27:
  53:D:/fchai/work/i-cube/I-CUBE-HUAWEI/Drivers/BSP/Components/lps22hh\lps22hh_reg.c ****   return ret;
 400              		.loc 1 53 9 view .LVU94
 401 000e 0123     		movs	r3, #1
 402 0010 0B21     		movs	r1, #11
 403              	.LVL28:
  53:D:/fchai/work/i-cube/I-CUBE-HUAWEI/Drivers/BSP/Components/lps22hh\lps22hh_reg.c ****   return ret;
 404              		.loc 1 53 9 view .LVU95
 405 0012 B047     		blx	r6
 406              	.LVL29:
  54:D:/fchai/work/i-cube/I-CUBE-HUAWEI/Drivers/BSP/Components/lps22hh\lps22hh_reg.c **** }
 407              		.loc 1 54 3 is_stmt 1 view .LVU96
  54:D:/fchai/work/i-cube/I-CUBE-HUAWEI/Drivers/BSP/Components/lps22hh\lps22hh_reg.c **** }
 408              		.loc 1 54 3 is_stmt 0 view .LVU97
 409              	.LBE226:
 410              	.LBE227:
 163:D:/fchai/work/i-cube/I-CUBE-HUAWEI/Drivers/BSP/Components/lps22hh\lps22hh_reg.c ****   if (ret == 0) {
 411              		.loc 1 163 3 is_stmt 1 view .LVU98
 412              		.loc 1 163 6 is_stmt 0 view .LVU99
 413 0014 58B9     		cbnz	r0, .L15
 164:D:/fchai/work/i-cube/I-CUBE-HUAWEI/Drivers/BSP/Components/lps22hh\lps22hh_reg.c ****     reg.autozero = val;
 414              		.loc 1 164 5 is_stmt 1 view .LVU100
 415              		.loc 1 164 18 is_stmt 0 view .LVU101
 416 0016 9DF80430 		ldrb	r3, [sp, #4]	@ zero_extendqisi2
 417              	.LBB228:
 418              	.LBB229:
  71:D:/fchai/work/i-cube/I-CUBE-HUAWEI/Drivers/BSP/Components/lps22hh\lps22hh_reg.c ****   return ret;
 419              		.loc 1 71 9 view .LVU102
 420 001a 2668     		ldr	r6, [r4]
 421 001c A068     		ldr	r0, [r4, #8]
 422              	.LVL30:
  71:D:/fchai/work/i-cube/I-CUBE-HUAWEI/Drivers/BSP/Components/lps22hh\lps22hh_reg.c ****   return ret;
 423              		.loc 1 71 9 view .LVU103
ARM GAS  T:\msys\tmp\ccdfMMY7.s 			page 12


 424              	.LBE229:
 425              	.LBE228:
 426              		.loc 1 164 18 view .LVU104
 427 001e 65F34513 		bfi	r3, r5, #5, #1
 428 0022 8DF80430 		strb	r3, [sp, #4]
 165:D:/fchai/work/i-cube/I-CUBE-HUAWEI/Drivers/BSP/Components/lps22hh\lps22hh_reg.c ****     ret = lps22hh_write_reg(ctx, LPS22HH_INTERRUPT_CFG, (uint8_t*) &reg, 1);
 429              		.loc 1 165 5 is_stmt 1 view .LVU105
 430              	.LVL31:
 431              	.LBB231:
 432              	.LBI228:
  67:D:/fchai/work/i-cube/I-CUBE-HUAWEI/Drivers/BSP/Components/lps22hh\lps22hh_reg.c ****                            uint16_t len)
 433              		.loc 1 67 9 view .LVU106
 434              	.LBB230:
  70:D:/fchai/work/i-cube/I-CUBE-HUAWEI/Drivers/BSP/Components/lps22hh\lps22hh_reg.c ****   ret = ctx->write_reg(ctx->handle, reg, data, len);
 435              		.loc 1 70 3 view .LVU107
  71:D:/fchai/work/i-cube/I-CUBE-HUAWEI/Drivers/BSP/Components/lps22hh\lps22hh_reg.c ****   return ret;
 436              		.loc 1 71 3 view .LVU108
  71:D:/fchai/work/i-cube/I-CUBE-HUAWEI/Drivers/BSP/Components/lps22hh\lps22hh_reg.c ****   return ret;
 437              		.loc 1 71 9 is_stmt 0 view .LVU109
 438 0026 01AA     		add	r2, sp, #4
 439              	.LVL32:
  71:D:/fchai/work/i-cube/I-CUBE-HUAWEI/Drivers/BSP/Components/lps22hh\lps22hh_reg.c ****   return ret;
 440              		.loc 1 71 9 view .LVU110
 441 0028 0123     		movs	r3, #1
 442 002a 0B21     		movs	r1, #11
 443 002c B047     		blx	r6
 444              	.LVL33:
  72:D:/fchai/work/i-cube/I-CUBE-HUAWEI/Drivers/BSP/Components/lps22hh\lps22hh_reg.c **** }
 445              		.loc 1 72 3 is_stmt 1 view .LVU111
  72:D:/fchai/work/i-cube/I-CUBE-HUAWEI/Drivers/BSP/Components/lps22hh\lps22hh_reg.c **** }
 446              		.loc 1 72 3 is_stmt 0 view .LVU112
 447              	.LBE230:
 448              	.LBE231:
 166:D:/fchai/work/i-cube/I-CUBE-HUAWEI/Drivers/BSP/Components/lps22hh\lps22hh_reg.c ****   }
 167:D:/fchai/work/i-cube/I-CUBE-HUAWEI/Drivers/BSP/Components/lps22hh\lps22hh_reg.c ****   return ret;
 449              		.loc 1 167 3 is_stmt 1 view .LVU113
 450              	.L15:
 168:D:/fchai/work/i-cube/I-CUBE-HUAWEI/Drivers/BSP/Components/lps22hh\lps22hh_reg.c **** }
 451              		.loc 1 168 1 is_stmt 0 view .LVU114
 452 002e 02B0     		add	sp, sp, #8
 453              	.LCFI12:
 454              		.cfi_def_cfa_offset 16
 455              		@ sp needed
 456 0030 70BD     		pop	{r4, r5, r6, pc}
 457              		.loc 1 168 1 view .LVU115
 458              		.cfi_endproc
 459              	.LFE6:
 461 0032 00BF     		.section	.text.lps22hh_autozero_get,"ax",%progbits
 462              		.align	1
 463              		.p2align 2,,3
 464              		.global	lps22hh_autozero_get
 465              		.syntax unified
 466              		.thumb
 467              		.thumb_func
 468              		.fpu fpv4-sp-d16
 470              	lps22hh_autozero_get:
 471              	.LVL34:
ARM GAS  T:\msys\tmp\ccdfMMY7.s 			page 13


 472              	.LFB7:
 169:D:/fchai/work/i-cube/I-CUBE-HUAWEI/Drivers/BSP/Components/lps22hh\lps22hh_reg.c **** 
 170:D:/fchai/work/i-cube/I-CUBE-HUAWEI/Drivers/BSP/Components/lps22hh\lps22hh_reg.c **** /**
 171:D:/fchai/work/i-cube/I-CUBE-HUAWEI/Drivers/BSP/Components/lps22hh\lps22hh_reg.c ****   * @brief  Enable Autozero function.[get]
 172:D:/fchai/work/i-cube/I-CUBE-HUAWEI/Drivers/BSP/Components/lps22hh\lps22hh_reg.c ****   *
 173:D:/fchai/work/i-cube/I-CUBE-HUAWEI/Drivers/BSP/Components/lps22hh\lps22hh_reg.c ****   * @param  ctx      read / write interface definitions
 174:D:/fchai/work/i-cube/I-CUBE-HUAWEI/Drivers/BSP/Components/lps22hh\lps22hh_reg.c ****   * @param  val      change the values of autozero in reg INTERRUPT_CFG
 175:D:/fchai/work/i-cube/I-CUBE-HUAWEI/Drivers/BSP/Components/lps22hh\lps22hh_reg.c ****   * @retval          interface status (MANDATORY: return 0 -> no Error)
 176:D:/fchai/work/i-cube/I-CUBE-HUAWEI/Drivers/BSP/Components/lps22hh\lps22hh_reg.c ****   *
 177:D:/fchai/work/i-cube/I-CUBE-HUAWEI/Drivers/BSP/Components/lps22hh\lps22hh_reg.c ****   */
 178:D:/fchai/work/i-cube/I-CUBE-HUAWEI/Drivers/BSP/Components/lps22hh\lps22hh_reg.c **** int32_t lps22hh_autozero_get(stmdev_ctx_t *ctx, uint8_t *val)
 179:D:/fchai/work/i-cube/I-CUBE-HUAWEI/Drivers/BSP/Components/lps22hh\lps22hh_reg.c **** {
 473              		.loc 1 179 1 is_stmt 1 view -0
 474              		.cfi_startproc
 475              		@ args = 0, pretend = 0, frame = 8
 476              		@ frame_needed = 0, uses_anonymous_args = 0
 180:D:/fchai/work/i-cube/I-CUBE-HUAWEI/Drivers/BSP/Components/lps22hh\lps22hh_reg.c ****   lps22hh_interrupt_cfg_t reg;
 477              		.loc 1 180 3 view .LVU117
 181:D:/fchai/work/i-cube/I-CUBE-HUAWEI/Drivers/BSP/Components/lps22hh\lps22hh_reg.c ****   int32_t ret;
 478              		.loc 1 181 3 view .LVU118
 182:D:/fchai/work/i-cube/I-CUBE-HUAWEI/Drivers/BSP/Components/lps22hh\lps22hh_reg.c **** 
 183:D:/fchai/work/i-cube/I-CUBE-HUAWEI/Drivers/BSP/Components/lps22hh\lps22hh_reg.c ****   ret = lps22hh_read_reg(ctx, LPS22HH_INTERRUPT_CFG, (uint8_t*) &reg, 1);
 479              		.loc 1 183 3 view .LVU119
 179:D:/fchai/work/i-cube/I-CUBE-HUAWEI/Drivers/BSP/Components/lps22hh\lps22hh_reg.c ****   lps22hh_interrupt_cfg_t reg;
 480              		.loc 1 179 1 is_stmt 0 view .LVU120
 481 0000 30B5     		push	{r4, r5, lr}
 482              	.LCFI13:
 483              		.cfi_def_cfa_offset 12
 484              		.cfi_offset 4, -12
 485              		.cfi_offset 5, -8
 486              		.cfi_offset 14, -4
 487 0002 83B0     		sub	sp, sp, #12
 488              	.LCFI14:
 489              		.cfi_def_cfa_offset 24
 490              	.LVL35:
 491              	.LBB232:
 492              	.LBI232:
  49:D:/fchai/work/i-cube/I-CUBE-HUAWEI/Drivers/BSP/Components/lps22hh\lps22hh_reg.c ****                          uint16_t len)
 493              		.loc 1 49 9 is_stmt 1 view .LVU121
 494              	.LBB233:
  52:D:/fchai/work/i-cube/I-CUBE-HUAWEI/Drivers/BSP/Components/lps22hh\lps22hh_reg.c ****   ret = ctx->read_reg(ctx->handle, reg, data, len);
 495              		.loc 1 52 3 view .LVU122
  53:D:/fchai/work/i-cube/I-CUBE-HUAWEI/Drivers/BSP/Components/lps22hh\lps22hh_reg.c ****   return ret;
 496              		.loc 1 53 3 view .LVU123
 497              	.LBE233:
 498              	.LBE232:
 179:D:/fchai/work/i-cube/I-CUBE-HUAWEI/Drivers/BSP/Components/lps22hh\lps22hh_reg.c ****   lps22hh_interrupt_cfg_t reg;
 499              		.loc 1 179 1 is_stmt 0 view .LVU124
 500 0004 0C46     		mov	r4, r1
 501              	.LBB235:
 502              	.LBB234:
  53:D:/fchai/work/i-cube/I-CUBE-HUAWEI/Drivers/BSP/Components/lps22hh\lps22hh_reg.c ****   return ret;
 503              		.loc 1 53 9 view .LVU125
 504 0006 D0E90150 		ldrd	r5, r0, [r0, #4]
 505              	.LVL36:
  53:D:/fchai/work/i-cube/I-CUBE-HUAWEI/Drivers/BSP/Components/lps22hh\lps22hh_reg.c ****   return ret;
 506              		.loc 1 53 9 view .LVU126
ARM GAS  T:\msys\tmp\ccdfMMY7.s 			page 14


 507 000a 0123     		movs	r3, #1
 508 000c 01AA     		add	r2, sp, #4
 509              	.LVL37:
  53:D:/fchai/work/i-cube/I-CUBE-HUAWEI/Drivers/BSP/Components/lps22hh\lps22hh_reg.c ****   return ret;
 510              		.loc 1 53 9 view .LVU127
 511 000e 0B21     		movs	r1, #11
 512              	.LVL38:
  53:D:/fchai/work/i-cube/I-CUBE-HUAWEI/Drivers/BSP/Components/lps22hh\lps22hh_reg.c ****   return ret;
 513              		.loc 1 53 9 view .LVU128
 514 0010 A847     		blx	r5
 515              	.LVL39:
  54:D:/fchai/work/i-cube/I-CUBE-HUAWEI/Drivers/BSP/Components/lps22hh\lps22hh_reg.c **** }
 516              		.loc 1 54 3 is_stmt 1 view .LVU129
  54:D:/fchai/work/i-cube/I-CUBE-HUAWEI/Drivers/BSP/Components/lps22hh\lps22hh_reg.c **** }
 517              		.loc 1 54 3 is_stmt 0 view .LVU130
 518              	.LBE234:
 519              	.LBE235:
 184:D:/fchai/work/i-cube/I-CUBE-HUAWEI/Drivers/BSP/Components/lps22hh\lps22hh_reg.c ****   *val = reg.autozero;
 520              		.loc 1 184 3 is_stmt 1 view .LVU131
 521              		.loc 1 184 13 is_stmt 0 view .LVU132
 522 0012 9DF80430 		ldrb	r3, [sp, #4]	@ zero_extendqisi2
 523 0016 C3F34013 		ubfx	r3, r3, #5, #1
 524              		.loc 1 184 8 view .LVU133
 525 001a 2370     		strb	r3, [r4]
 185:D:/fchai/work/i-cube/I-CUBE-HUAWEI/Drivers/BSP/Components/lps22hh\lps22hh_reg.c **** 
 186:D:/fchai/work/i-cube/I-CUBE-HUAWEI/Drivers/BSP/Components/lps22hh\lps22hh_reg.c ****   return ret;
 526              		.loc 1 186 3 is_stmt 1 view .LVU134
 187:D:/fchai/work/i-cube/I-CUBE-HUAWEI/Drivers/BSP/Components/lps22hh\lps22hh_reg.c **** }
 527              		.loc 1 187 1 is_stmt 0 view .LVU135
 528 001c 03B0     		add	sp, sp, #12
 529              	.LCFI15:
 530              		.cfi_def_cfa_offset 12
 531              		@ sp needed
 532 001e 30BD     		pop	{r4, r5, pc}
 533              		.loc 1 187 1 view .LVU136
 534              		.cfi_endproc
 535              	.LFE7:
 537              		.section	.text.lps22hh_pressure_snap_rst_set,"ax",%progbits
 538              		.align	1
 539              		.p2align 2,,3
 540              		.global	lps22hh_pressure_snap_rst_set
 541              		.syntax unified
 542              		.thumb
 543              		.thumb_func
 544              		.fpu fpv4-sp-d16
 546              	lps22hh_pressure_snap_rst_set:
 547              	.LVL40:
 548              	.LFB8:
 188:D:/fchai/work/i-cube/I-CUBE-HUAWEI/Drivers/BSP/Components/lps22hh\lps22hh_reg.c **** 
 189:D:/fchai/work/i-cube/I-CUBE-HUAWEI/Drivers/BSP/Components/lps22hh\lps22hh_reg.c **** /**
 190:D:/fchai/work/i-cube/I-CUBE-HUAWEI/Drivers/BSP/Components/lps22hh\lps22hh_reg.c ****   * @brief  Reset AutoRifP function.[set]
 191:D:/fchai/work/i-cube/I-CUBE-HUAWEI/Drivers/BSP/Components/lps22hh\lps22hh_reg.c ****   *
 192:D:/fchai/work/i-cube/I-CUBE-HUAWEI/Drivers/BSP/Components/lps22hh\lps22hh_reg.c ****   * @param  ctx      read / write interface definitions
 193:D:/fchai/work/i-cube/I-CUBE-HUAWEI/Drivers/BSP/Components/lps22hh\lps22hh_reg.c ****   * @param  val      change the values of reset_arp in reg INTERRUPT_CFG
 194:D:/fchai/work/i-cube/I-CUBE-HUAWEI/Drivers/BSP/Components/lps22hh\lps22hh_reg.c ****   * @retval          interface status (MANDATORY: return 0 -> no Error)
 195:D:/fchai/work/i-cube/I-CUBE-HUAWEI/Drivers/BSP/Components/lps22hh\lps22hh_reg.c ****   *
 196:D:/fchai/work/i-cube/I-CUBE-HUAWEI/Drivers/BSP/Components/lps22hh\lps22hh_reg.c ****   */
ARM GAS  T:\msys\tmp\ccdfMMY7.s 			page 15


 197:D:/fchai/work/i-cube/I-CUBE-HUAWEI/Drivers/BSP/Components/lps22hh\lps22hh_reg.c **** int32_t lps22hh_pressure_snap_rst_set(stmdev_ctx_t *ctx, uint8_t val)
 198:D:/fchai/work/i-cube/I-CUBE-HUAWEI/Drivers/BSP/Components/lps22hh\lps22hh_reg.c **** {
 549              		.loc 1 198 1 is_stmt 1 view -0
 550              		.cfi_startproc
 551              		@ args = 0, pretend = 0, frame = 8
 552              		@ frame_needed = 0, uses_anonymous_args = 0
 199:D:/fchai/work/i-cube/I-CUBE-HUAWEI/Drivers/BSP/Components/lps22hh\lps22hh_reg.c ****   lps22hh_interrupt_cfg_t reg;
 553              		.loc 1 199 3 view .LVU138
 200:D:/fchai/work/i-cube/I-CUBE-HUAWEI/Drivers/BSP/Components/lps22hh\lps22hh_reg.c ****   int32_t ret;
 554              		.loc 1 200 3 view .LVU139
 201:D:/fchai/work/i-cube/I-CUBE-HUAWEI/Drivers/BSP/Components/lps22hh\lps22hh_reg.c **** 
 202:D:/fchai/work/i-cube/I-CUBE-HUAWEI/Drivers/BSP/Components/lps22hh\lps22hh_reg.c ****   ret = lps22hh_read_reg(ctx, LPS22HH_INTERRUPT_CFG, (uint8_t*) &reg, 1);
 555              		.loc 1 202 3 view .LVU140
 198:D:/fchai/work/i-cube/I-CUBE-HUAWEI/Drivers/BSP/Components/lps22hh\lps22hh_reg.c ****   lps22hh_interrupt_cfg_t reg;
 556              		.loc 1 198 1 is_stmt 0 view .LVU141
 557 0000 70B5     		push	{r4, r5, r6, lr}
 558              	.LCFI16:
 559              		.cfi_def_cfa_offset 16
 560              		.cfi_offset 4, -16
 561              		.cfi_offset 5, -12
 562              		.cfi_offset 6, -8
 563              		.cfi_offset 14, -4
 564 0002 82B0     		sub	sp, sp, #8
 565              	.LCFI17:
 566              		.cfi_def_cfa_offset 24
 198:D:/fchai/work/i-cube/I-CUBE-HUAWEI/Drivers/BSP/Components/lps22hh\lps22hh_reg.c ****   lps22hh_interrupt_cfg_t reg;
 567              		.loc 1 198 1 view .LVU142
 568 0004 0446     		mov	r4, r0
 569              	.LVL41:
 570              	.LBB236:
 571              	.LBI236:
  49:D:/fchai/work/i-cube/I-CUBE-HUAWEI/Drivers/BSP/Components/lps22hh\lps22hh_reg.c ****                          uint16_t len)
 572              		.loc 1 49 9 is_stmt 1 view .LVU143
 573              	.LBB237:
  52:D:/fchai/work/i-cube/I-CUBE-HUAWEI/Drivers/BSP/Components/lps22hh\lps22hh_reg.c ****   ret = ctx->read_reg(ctx->handle, reg, data, len);
 574              		.loc 1 52 3 view .LVU144
  53:D:/fchai/work/i-cube/I-CUBE-HUAWEI/Drivers/BSP/Components/lps22hh\lps22hh_reg.c ****   return ret;
 575              		.loc 1 53 3 view .LVU145
 576              	.LBE237:
 577              	.LBE236:
 198:D:/fchai/work/i-cube/I-CUBE-HUAWEI/Drivers/BSP/Components/lps22hh\lps22hh_reg.c ****   lps22hh_interrupt_cfg_t reg;
 578              		.loc 1 198 1 is_stmt 0 view .LVU146
 579 0006 0D46     		mov	r5, r1
 580              	.LBB239:
 581              	.LBB238:
  53:D:/fchai/work/i-cube/I-CUBE-HUAWEI/Drivers/BSP/Components/lps22hh\lps22hh_reg.c ****   return ret;
 582              		.loc 1 53 9 view .LVU147
 583 0008 D0E90160 		ldrd	r6, r0, [r0, #4]
 584              	.LVL42:
  53:D:/fchai/work/i-cube/I-CUBE-HUAWEI/Drivers/BSP/Components/lps22hh\lps22hh_reg.c ****   return ret;
 585              		.loc 1 53 9 view .LVU148
 586 000c 01AA     		add	r2, sp, #4
 587              	.LVL43:
  53:D:/fchai/work/i-cube/I-CUBE-HUAWEI/Drivers/BSP/Components/lps22hh\lps22hh_reg.c ****   return ret;
 588              		.loc 1 53 9 view .LVU149
 589 000e 0123     		movs	r3, #1
 590 0010 0B21     		movs	r1, #11
ARM GAS  T:\msys\tmp\ccdfMMY7.s 			page 16


 591              	.LVL44:
  53:D:/fchai/work/i-cube/I-CUBE-HUAWEI/Drivers/BSP/Components/lps22hh\lps22hh_reg.c ****   return ret;
 592              		.loc 1 53 9 view .LVU150
 593 0012 B047     		blx	r6
 594              	.LVL45:
  54:D:/fchai/work/i-cube/I-CUBE-HUAWEI/Drivers/BSP/Components/lps22hh\lps22hh_reg.c **** }
 595              		.loc 1 54 3 is_stmt 1 view .LVU151
  54:D:/fchai/work/i-cube/I-CUBE-HUAWEI/Drivers/BSP/Components/lps22hh\lps22hh_reg.c **** }
 596              		.loc 1 54 3 is_stmt 0 view .LVU152
 597              	.LBE238:
 598              	.LBE239:
 203:D:/fchai/work/i-cube/I-CUBE-HUAWEI/Drivers/BSP/Components/lps22hh\lps22hh_reg.c ****   if (ret == 0) {
 599              		.loc 1 203 3 is_stmt 1 view .LVU153
 600              		.loc 1 203 6 is_stmt 0 view .LVU154
 601 0014 58B9     		cbnz	r0, .L20
 204:D:/fchai/work/i-cube/I-CUBE-HUAWEI/Drivers/BSP/Components/lps22hh\lps22hh_reg.c ****     reg.reset_arp = val;
 602              		.loc 1 204 5 is_stmt 1 view .LVU155
 603              		.loc 1 204 19 is_stmt 0 view .LVU156
 604 0016 9DF80430 		ldrb	r3, [sp, #4]	@ zero_extendqisi2
 605              	.LBB240:
 606              	.LBB241:
  71:D:/fchai/work/i-cube/I-CUBE-HUAWEI/Drivers/BSP/Components/lps22hh\lps22hh_reg.c ****   return ret;
 607              		.loc 1 71 9 view .LVU157
 608 001a 2668     		ldr	r6, [r4]
 609 001c A068     		ldr	r0, [r4, #8]
 610              	.LVL46:
  71:D:/fchai/work/i-cube/I-CUBE-HUAWEI/Drivers/BSP/Components/lps22hh\lps22hh_reg.c ****   return ret;
 611              		.loc 1 71 9 view .LVU158
 612              	.LBE241:
 613              	.LBE240:
 614              		.loc 1 204 19 view .LVU159
 615 001e 65F38613 		bfi	r3, r5, #6, #1
 616 0022 8DF80430 		strb	r3, [sp, #4]
 205:D:/fchai/work/i-cube/I-CUBE-HUAWEI/Drivers/BSP/Components/lps22hh\lps22hh_reg.c ****     ret = lps22hh_write_reg(ctx, LPS22HH_INTERRUPT_CFG, (uint8_t*) &reg, 1);
 617              		.loc 1 205 5 is_stmt 1 view .LVU160
 618              	.LVL47:
 619              	.LBB243:
 620              	.LBI240:
  67:D:/fchai/work/i-cube/I-CUBE-HUAWEI/Drivers/BSP/Components/lps22hh\lps22hh_reg.c ****                            uint16_t len)
 621              		.loc 1 67 9 view .LVU161
 622              	.LBB242:
  70:D:/fchai/work/i-cube/I-CUBE-HUAWEI/Drivers/BSP/Components/lps22hh\lps22hh_reg.c ****   ret = ctx->write_reg(ctx->handle, reg, data, len);
 623              		.loc 1 70 3 view .LVU162
  71:D:/fchai/work/i-cube/I-CUBE-HUAWEI/Drivers/BSP/Components/lps22hh\lps22hh_reg.c ****   return ret;
 624              		.loc 1 71 3 view .LVU163
  71:D:/fchai/work/i-cube/I-CUBE-HUAWEI/Drivers/BSP/Components/lps22hh\lps22hh_reg.c ****   return ret;
 625              		.loc 1 71 9 is_stmt 0 view .LVU164
 626 0026 01AA     		add	r2, sp, #4
 627              	.LVL48:
  71:D:/fchai/work/i-cube/I-CUBE-HUAWEI/Drivers/BSP/Components/lps22hh\lps22hh_reg.c ****   return ret;
 628              		.loc 1 71 9 view .LVU165
 629 0028 0123     		movs	r3, #1
 630 002a 0B21     		movs	r1, #11
 631 002c B047     		blx	r6
 632              	.LVL49:
  72:D:/fchai/work/i-cube/I-CUBE-HUAWEI/Drivers/BSP/Components/lps22hh\lps22hh_reg.c **** }
 633              		.loc 1 72 3 is_stmt 1 view .LVU166
ARM GAS  T:\msys\tmp\ccdfMMY7.s 			page 17


  72:D:/fchai/work/i-cube/I-CUBE-HUAWEI/Drivers/BSP/Components/lps22hh\lps22hh_reg.c **** }
 634              		.loc 1 72 3 is_stmt 0 view .LVU167
 635              	.LBE242:
 636              	.LBE243:
 206:D:/fchai/work/i-cube/I-CUBE-HUAWEI/Drivers/BSP/Components/lps22hh\lps22hh_reg.c ****   }
 207:D:/fchai/work/i-cube/I-CUBE-HUAWEI/Drivers/BSP/Components/lps22hh\lps22hh_reg.c ****   return ret;
 637              		.loc 1 207 3 is_stmt 1 view .LVU168
 638              	.L20:
 208:D:/fchai/work/i-cube/I-CUBE-HUAWEI/Drivers/BSP/Components/lps22hh\lps22hh_reg.c **** }
 639              		.loc 1 208 1 is_stmt 0 view .LVU169
 640 002e 02B0     		add	sp, sp, #8
 641              	.LCFI18:
 642              		.cfi_def_cfa_offset 16
 643              		@ sp needed
 644 0030 70BD     		pop	{r4, r5, r6, pc}
 645              		.loc 1 208 1 view .LVU170
 646              		.cfi_endproc
 647              	.LFE8:
 649 0032 00BF     		.section	.text.lps22hh_pressure_snap_rst_get,"ax",%progbits
 650              		.align	1
 651              		.p2align 2,,3
 652              		.global	lps22hh_pressure_snap_rst_get
 653              		.syntax unified
 654              		.thumb
 655              		.thumb_func
 656              		.fpu fpv4-sp-d16
 658              	lps22hh_pressure_snap_rst_get:
 659              	.LVL50:
 660              	.LFB9:
 209:D:/fchai/work/i-cube/I-CUBE-HUAWEI/Drivers/BSP/Components/lps22hh\lps22hh_reg.c **** 
 210:D:/fchai/work/i-cube/I-CUBE-HUAWEI/Drivers/BSP/Components/lps22hh\lps22hh_reg.c **** /**
 211:D:/fchai/work/i-cube/I-CUBE-HUAWEI/Drivers/BSP/Components/lps22hh\lps22hh_reg.c ****   * @brief  Reset AutoRifP function.[get]
 212:D:/fchai/work/i-cube/I-CUBE-HUAWEI/Drivers/BSP/Components/lps22hh\lps22hh_reg.c ****   *
 213:D:/fchai/work/i-cube/I-CUBE-HUAWEI/Drivers/BSP/Components/lps22hh\lps22hh_reg.c ****   * @param  ctx      read / write interface definitions
 214:D:/fchai/work/i-cube/I-CUBE-HUAWEI/Drivers/BSP/Components/lps22hh\lps22hh_reg.c ****   * @param  val      change the values of reset_arp in reg INTERRUPT_CFG
 215:D:/fchai/work/i-cube/I-CUBE-HUAWEI/Drivers/BSP/Components/lps22hh\lps22hh_reg.c ****   * @retval          interface status (MANDATORY: return 0 -> no Error)
 216:D:/fchai/work/i-cube/I-CUBE-HUAWEI/Drivers/BSP/Components/lps22hh\lps22hh_reg.c ****   *
 217:D:/fchai/work/i-cube/I-CUBE-HUAWEI/Drivers/BSP/Components/lps22hh\lps22hh_reg.c ****   */
 218:D:/fchai/work/i-cube/I-CUBE-HUAWEI/Drivers/BSP/Components/lps22hh\lps22hh_reg.c **** int32_t lps22hh_pressure_snap_rst_get(stmdev_ctx_t *ctx, uint8_t *val)
 219:D:/fchai/work/i-cube/I-CUBE-HUAWEI/Drivers/BSP/Components/lps22hh\lps22hh_reg.c **** {
 661              		.loc 1 219 1 is_stmt 1 view -0
 662              		.cfi_startproc
 663              		@ args = 0, pretend = 0, frame = 8
 664              		@ frame_needed = 0, uses_anonymous_args = 0
 220:D:/fchai/work/i-cube/I-CUBE-HUAWEI/Drivers/BSP/Components/lps22hh\lps22hh_reg.c ****   lps22hh_interrupt_cfg_t reg;
 665              		.loc 1 220 3 view .LVU172
 221:D:/fchai/work/i-cube/I-CUBE-HUAWEI/Drivers/BSP/Components/lps22hh\lps22hh_reg.c ****   int32_t ret;
 666              		.loc 1 221 3 view .LVU173
 222:D:/fchai/work/i-cube/I-CUBE-HUAWEI/Drivers/BSP/Components/lps22hh\lps22hh_reg.c **** 
 223:D:/fchai/work/i-cube/I-CUBE-HUAWEI/Drivers/BSP/Components/lps22hh\lps22hh_reg.c ****   ret = lps22hh_read_reg(ctx, LPS22HH_INTERRUPT_CFG, (uint8_t*) &reg, 1);
 667              		.loc 1 223 3 view .LVU174
 219:D:/fchai/work/i-cube/I-CUBE-HUAWEI/Drivers/BSP/Components/lps22hh\lps22hh_reg.c ****   lps22hh_interrupt_cfg_t reg;
 668              		.loc 1 219 1 is_stmt 0 view .LVU175
 669 0000 30B5     		push	{r4, r5, lr}
 670              	.LCFI19:
 671              		.cfi_def_cfa_offset 12
 672              		.cfi_offset 4, -12
ARM GAS  T:\msys\tmp\ccdfMMY7.s 			page 18


 673              		.cfi_offset 5, -8
 674              		.cfi_offset 14, -4
 675 0002 83B0     		sub	sp, sp, #12
 676              	.LCFI20:
 677              		.cfi_def_cfa_offset 24
 678              	.LVL51:
 679              	.LBB244:
 680              	.LBI244:
  49:D:/fchai/work/i-cube/I-CUBE-HUAWEI/Drivers/BSP/Components/lps22hh\lps22hh_reg.c ****                          uint16_t len)
 681              		.loc 1 49 9 is_stmt 1 view .LVU176
 682              	.LBB245:
  52:D:/fchai/work/i-cube/I-CUBE-HUAWEI/Drivers/BSP/Components/lps22hh\lps22hh_reg.c ****   ret = ctx->read_reg(ctx->handle, reg, data, len);
 683              		.loc 1 52 3 view .LVU177
  53:D:/fchai/work/i-cube/I-CUBE-HUAWEI/Drivers/BSP/Components/lps22hh\lps22hh_reg.c ****   return ret;
 684              		.loc 1 53 3 view .LVU178
 685              	.LBE245:
 686              	.LBE244:
 219:D:/fchai/work/i-cube/I-CUBE-HUAWEI/Drivers/BSP/Components/lps22hh\lps22hh_reg.c ****   lps22hh_interrupt_cfg_t reg;
 687              		.loc 1 219 1 is_stmt 0 view .LVU179
 688 0004 0C46     		mov	r4, r1
 689              	.LBB247:
 690              	.LBB246:
  53:D:/fchai/work/i-cube/I-CUBE-HUAWEI/Drivers/BSP/Components/lps22hh\lps22hh_reg.c ****   return ret;
 691              		.loc 1 53 9 view .LVU180
 692 0006 D0E90150 		ldrd	r5, r0, [r0, #4]
 693              	.LVL52:
  53:D:/fchai/work/i-cube/I-CUBE-HUAWEI/Drivers/BSP/Components/lps22hh\lps22hh_reg.c ****   return ret;
 694              		.loc 1 53 9 view .LVU181
 695 000a 0123     		movs	r3, #1
 696 000c 01AA     		add	r2, sp, #4
 697              	.LVL53:
  53:D:/fchai/work/i-cube/I-CUBE-HUAWEI/Drivers/BSP/Components/lps22hh\lps22hh_reg.c ****   return ret;
 698              		.loc 1 53 9 view .LVU182
 699 000e 0B21     		movs	r1, #11
 700              	.LVL54:
  53:D:/fchai/work/i-cube/I-CUBE-HUAWEI/Drivers/BSP/Components/lps22hh\lps22hh_reg.c ****   return ret;
 701              		.loc 1 53 9 view .LVU183
 702 0010 A847     		blx	r5
 703              	.LVL55:
  54:D:/fchai/work/i-cube/I-CUBE-HUAWEI/Drivers/BSP/Components/lps22hh\lps22hh_reg.c **** }
 704              		.loc 1 54 3 is_stmt 1 view .LVU184
  54:D:/fchai/work/i-cube/I-CUBE-HUAWEI/Drivers/BSP/Components/lps22hh\lps22hh_reg.c **** }
 705              		.loc 1 54 3 is_stmt 0 view .LVU185
 706              	.LBE246:
 707              	.LBE247:
 224:D:/fchai/work/i-cube/I-CUBE-HUAWEI/Drivers/BSP/Components/lps22hh\lps22hh_reg.c ****   *val = reg.reset_arp;
 708              		.loc 1 224 3 is_stmt 1 view .LVU186
 709              		.loc 1 224 13 is_stmt 0 view .LVU187
 710 0012 9DF80430 		ldrb	r3, [sp, #4]	@ zero_extendqisi2
 711 0016 C3F38013 		ubfx	r3, r3, #6, #1
 712              		.loc 1 224 8 view .LVU188
 713 001a 2370     		strb	r3, [r4]
 225:D:/fchai/work/i-cube/I-CUBE-HUAWEI/Drivers/BSP/Components/lps22hh\lps22hh_reg.c **** 
 226:D:/fchai/work/i-cube/I-CUBE-HUAWEI/Drivers/BSP/Components/lps22hh\lps22hh_reg.c ****   return ret;
 714              		.loc 1 226 3 is_stmt 1 view .LVU189
 227:D:/fchai/work/i-cube/I-CUBE-HUAWEI/Drivers/BSP/Components/lps22hh\lps22hh_reg.c **** }
 715              		.loc 1 227 1 is_stmt 0 view .LVU190
ARM GAS  T:\msys\tmp\ccdfMMY7.s 			page 19


 716 001c 03B0     		add	sp, sp, #12
 717              	.LCFI21:
 718              		.cfi_def_cfa_offset 12
 719              		@ sp needed
 720 001e 30BD     		pop	{r4, r5, pc}
 721              		.loc 1 227 1 view .LVU191
 722              		.cfi_endproc
 723              	.LFE9:
 725              		.section	.text.lps22hh_pressure_snap_set,"ax",%progbits
 726              		.align	1
 727              		.p2align 2,,3
 728              		.global	lps22hh_pressure_snap_set
 729              		.syntax unified
 730              		.thumb
 731              		.thumb_func
 732              		.fpu fpv4-sp-d16
 734              	lps22hh_pressure_snap_set:
 735              	.LVL56:
 736              	.LFB10:
 228:D:/fchai/work/i-cube/I-CUBE-HUAWEI/Drivers/BSP/Components/lps22hh\lps22hh_reg.c **** 
 229:D:/fchai/work/i-cube/I-CUBE-HUAWEI/Drivers/BSP/Components/lps22hh\lps22hh_reg.c **** /**
 230:D:/fchai/work/i-cube/I-CUBE-HUAWEI/Drivers/BSP/Components/lps22hh\lps22hh_reg.c ****   * @brief  Enable AutoRefP function.[set]
 231:D:/fchai/work/i-cube/I-CUBE-HUAWEI/Drivers/BSP/Components/lps22hh\lps22hh_reg.c ****   *
 232:D:/fchai/work/i-cube/I-CUBE-HUAWEI/Drivers/BSP/Components/lps22hh\lps22hh_reg.c ****   * @param  ctx      read / write interface definitions
 233:D:/fchai/work/i-cube/I-CUBE-HUAWEI/Drivers/BSP/Components/lps22hh\lps22hh_reg.c ****   * @param  val      change the values of autorefp in reg INTERRUPT_CFG
 234:D:/fchai/work/i-cube/I-CUBE-HUAWEI/Drivers/BSP/Components/lps22hh\lps22hh_reg.c ****   * @retval          interface status (MANDATORY: return 0 -> no Error)
 235:D:/fchai/work/i-cube/I-CUBE-HUAWEI/Drivers/BSP/Components/lps22hh\lps22hh_reg.c ****   *
 236:D:/fchai/work/i-cube/I-CUBE-HUAWEI/Drivers/BSP/Components/lps22hh\lps22hh_reg.c ****   */
 237:D:/fchai/work/i-cube/I-CUBE-HUAWEI/Drivers/BSP/Components/lps22hh\lps22hh_reg.c **** int32_t lps22hh_pressure_snap_set(stmdev_ctx_t *ctx, uint8_t val)
 238:D:/fchai/work/i-cube/I-CUBE-HUAWEI/Drivers/BSP/Components/lps22hh\lps22hh_reg.c **** {
 737              		.loc 1 238 1 is_stmt 1 view -0
 738              		.cfi_startproc
 739              		@ args = 0, pretend = 0, frame = 8
 740              		@ frame_needed = 0, uses_anonymous_args = 0
 239:D:/fchai/work/i-cube/I-CUBE-HUAWEI/Drivers/BSP/Components/lps22hh\lps22hh_reg.c ****   lps22hh_interrupt_cfg_t reg;
 741              		.loc 1 239 3 view .LVU193
 240:D:/fchai/work/i-cube/I-CUBE-HUAWEI/Drivers/BSP/Components/lps22hh\lps22hh_reg.c ****   int32_t ret;
 742              		.loc 1 240 3 view .LVU194
 241:D:/fchai/work/i-cube/I-CUBE-HUAWEI/Drivers/BSP/Components/lps22hh\lps22hh_reg.c **** 
 242:D:/fchai/work/i-cube/I-CUBE-HUAWEI/Drivers/BSP/Components/lps22hh\lps22hh_reg.c ****   ret = lps22hh_read_reg(ctx, LPS22HH_INTERRUPT_CFG, (uint8_t*) &reg, 1);
 743              		.loc 1 242 3 view .LVU195
 238:D:/fchai/work/i-cube/I-CUBE-HUAWEI/Drivers/BSP/Components/lps22hh\lps22hh_reg.c ****   lps22hh_interrupt_cfg_t reg;
 744              		.loc 1 238 1 is_stmt 0 view .LVU196
 745 0000 70B5     		push	{r4, r5, r6, lr}
 746              	.LCFI22:
 747              		.cfi_def_cfa_offset 16
 748              		.cfi_offset 4, -16
 749              		.cfi_offset 5, -12
 750              		.cfi_offset 6, -8
 751              		.cfi_offset 14, -4
 752 0002 82B0     		sub	sp, sp, #8
 753              	.LCFI23:
 754              		.cfi_def_cfa_offset 24
 238:D:/fchai/work/i-cube/I-CUBE-HUAWEI/Drivers/BSP/Components/lps22hh\lps22hh_reg.c ****   lps22hh_interrupt_cfg_t reg;
 755              		.loc 1 238 1 view .LVU197
 756 0004 0446     		mov	r4, r0
 757              	.LVL57:
ARM GAS  T:\msys\tmp\ccdfMMY7.s 			page 20


 758              	.LBB248:
 759              	.LBI248:
  49:D:/fchai/work/i-cube/I-CUBE-HUAWEI/Drivers/BSP/Components/lps22hh\lps22hh_reg.c ****                          uint16_t len)
 760              		.loc 1 49 9 is_stmt 1 view .LVU198
 761              	.LBB249:
  52:D:/fchai/work/i-cube/I-CUBE-HUAWEI/Drivers/BSP/Components/lps22hh\lps22hh_reg.c ****   ret = ctx->read_reg(ctx->handle, reg, data, len);
 762              		.loc 1 52 3 view .LVU199
  53:D:/fchai/work/i-cube/I-CUBE-HUAWEI/Drivers/BSP/Components/lps22hh\lps22hh_reg.c ****   return ret;
 763              		.loc 1 53 3 view .LVU200
 764              	.LBE249:
 765              	.LBE248:
 238:D:/fchai/work/i-cube/I-CUBE-HUAWEI/Drivers/BSP/Components/lps22hh\lps22hh_reg.c ****   lps22hh_interrupt_cfg_t reg;
 766              		.loc 1 238 1 is_stmt 0 view .LVU201
 767 0006 0D46     		mov	r5, r1
 768              	.LBB251:
 769              	.LBB250:
  53:D:/fchai/work/i-cube/I-CUBE-HUAWEI/Drivers/BSP/Components/lps22hh\lps22hh_reg.c ****   return ret;
 770              		.loc 1 53 9 view .LVU202
 771 0008 D0E90160 		ldrd	r6, r0, [r0, #4]
 772              	.LVL58:
  53:D:/fchai/work/i-cube/I-CUBE-HUAWEI/Drivers/BSP/Components/lps22hh\lps22hh_reg.c ****   return ret;
 773              		.loc 1 53 9 view .LVU203
 774 000c 01AA     		add	r2, sp, #4
 775              	.LVL59:
  53:D:/fchai/work/i-cube/I-CUBE-HUAWEI/Drivers/BSP/Components/lps22hh\lps22hh_reg.c ****   return ret;
 776              		.loc 1 53 9 view .LVU204
 777 000e 0123     		movs	r3, #1
 778 0010 0B21     		movs	r1, #11
 779              	.LVL60:
  53:D:/fchai/work/i-cube/I-CUBE-HUAWEI/Drivers/BSP/Components/lps22hh\lps22hh_reg.c ****   return ret;
 780              		.loc 1 53 9 view .LVU205
 781 0012 B047     		blx	r6
 782              	.LVL61:
  54:D:/fchai/work/i-cube/I-CUBE-HUAWEI/Drivers/BSP/Components/lps22hh\lps22hh_reg.c **** }
 783              		.loc 1 54 3 is_stmt 1 view .LVU206
  54:D:/fchai/work/i-cube/I-CUBE-HUAWEI/Drivers/BSP/Components/lps22hh\lps22hh_reg.c **** }
 784              		.loc 1 54 3 is_stmt 0 view .LVU207
 785              	.LBE250:
 786              	.LBE251:
 243:D:/fchai/work/i-cube/I-CUBE-HUAWEI/Drivers/BSP/Components/lps22hh\lps22hh_reg.c ****   if (ret == 0) {
 787              		.loc 1 243 3 is_stmt 1 view .LVU208
 788              		.loc 1 243 6 is_stmt 0 view .LVU209
 789 0014 58B9     		cbnz	r0, .L25
 244:D:/fchai/work/i-cube/I-CUBE-HUAWEI/Drivers/BSP/Components/lps22hh\lps22hh_reg.c ****     reg.autorefp = val;
 790              		.loc 1 244 5 is_stmt 1 view .LVU210
 791              		.loc 1 244 18 is_stmt 0 view .LVU211
 792 0016 9DF80430 		ldrb	r3, [sp, #4]	@ zero_extendqisi2
 793              	.LBB252:
 794              	.LBB253:
  71:D:/fchai/work/i-cube/I-CUBE-HUAWEI/Drivers/BSP/Components/lps22hh\lps22hh_reg.c ****   return ret;
 795              		.loc 1 71 9 view .LVU212
 796 001a 2668     		ldr	r6, [r4]
 797 001c A068     		ldr	r0, [r4, #8]
 798              	.LVL62:
  71:D:/fchai/work/i-cube/I-CUBE-HUAWEI/Drivers/BSP/Components/lps22hh\lps22hh_reg.c ****   return ret;
 799              		.loc 1 71 9 view .LVU213
 800              	.LBE253:
ARM GAS  T:\msys\tmp\ccdfMMY7.s 			page 21


 801              	.LBE252:
 802              		.loc 1 244 18 view .LVU214
 803 001e 65F3C713 		bfi	r3, r5, #7, #1
 804 0022 8DF80430 		strb	r3, [sp, #4]
 245:D:/fchai/work/i-cube/I-CUBE-HUAWEI/Drivers/BSP/Components/lps22hh\lps22hh_reg.c ****     ret = lps22hh_write_reg(ctx, LPS22HH_INTERRUPT_CFG, (uint8_t*) &reg, 1);
 805              		.loc 1 245 5 is_stmt 1 view .LVU215
 806              	.LVL63:
 807              	.LBB255:
 808              	.LBI252:
  67:D:/fchai/work/i-cube/I-CUBE-HUAWEI/Drivers/BSP/Components/lps22hh\lps22hh_reg.c ****                            uint16_t len)
 809              		.loc 1 67 9 view .LVU216
 810              	.LBB254:
  70:D:/fchai/work/i-cube/I-CUBE-HUAWEI/Drivers/BSP/Components/lps22hh\lps22hh_reg.c ****   ret = ctx->write_reg(ctx->handle, reg, data, len);
 811              		.loc 1 70 3 view .LVU217
  71:D:/fchai/work/i-cube/I-CUBE-HUAWEI/Drivers/BSP/Components/lps22hh\lps22hh_reg.c ****   return ret;
 812              		.loc 1 71 3 view .LVU218
  71:D:/fchai/work/i-cube/I-CUBE-HUAWEI/Drivers/BSP/Components/lps22hh\lps22hh_reg.c ****   return ret;
 813              		.loc 1 71 9 is_stmt 0 view .LVU219
 814 0026 01AA     		add	r2, sp, #4
 815              	.LVL64:
  71:D:/fchai/work/i-cube/I-CUBE-HUAWEI/Drivers/BSP/Components/lps22hh\lps22hh_reg.c ****   return ret;
 816              		.loc 1 71 9 view .LVU220
 817 0028 0123     		movs	r3, #1
 818 002a 0B21     		movs	r1, #11
 819 002c B047     		blx	r6
 820              	.LVL65:
  72:D:/fchai/work/i-cube/I-CUBE-HUAWEI/Drivers/BSP/Components/lps22hh\lps22hh_reg.c **** }
 821              		.loc 1 72 3 is_stmt 1 view .LVU221
  72:D:/fchai/work/i-cube/I-CUBE-HUAWEI/Drivers/BSP/Components/lps22hh\lps22hh_reg.c **** }
 822              		.loc 1 72 3 is_stmt 0 view .LVU222
 823              	.LBE254:
 824              	.LBE255:
 246:D:/fchai/work/i-cube/I-CUBE-HUAWEI/Drivers/BSP/Components/lps22hh\lps22hh_reg.c ****   }
 247:D:/fchai/work/i-cube/I-CUBE-HUAWEI/Drivers/BSP/Components/lps22hh\lps22hh_reg.c ****   return ret;
 825              		.loc 1 247 3 is_stmt 1 view .LVU223
 826              	.L25:
 248:D:/fchai/work/i-cube/I-CUBE-HUAWEI/Drivers/BSP/Components/lps22hh\lps22hh_reg.c **** }
 827              		.loc 1 248 1 is_stmt 0 view .LVU224
 828 002e 02B0     		add	sp, sp, #8
 829              	.LCFI24:
 830              		.cfi_def_cfa_offset 16
 831              		@ sp needed
 832 0030 70BD     		pop	{r4, r5, r6, pc}
 833              		.loc 1 248 1 view .LVU225
 834              		.cfi_endproc
 835              	.LFE10:
 837 0032 00BF     		.section	.text.lps22hh_pressure_snap_get,"ax",%progbits
 838              		.align	1
 839              		.p2align 2,,3
 840              		.global	lps22hh_pressure_snap_get
 841              		.syntax unified
 842              		.thumb
 843              		.thumb_func
 844              		.fpu fpv4-sp-d16
 846              	lps22hh_pressure_snap_get:
 847              	.LVL66:
 848              	.LFB11:
ARM GAS  T:\msys\tmp\ccdfMMY7.s 			page 22


 249:D:/fchai/work/i-cube/I-CUBE-HUAWEI/Drivers/BSP/Components/lps22hh\lps22hh_reg.c **** 
 250:D:/fchai/work/i-cube/I-CUBE-HUAWEI/Drivers/BSP/Components/lps22hh\lps22hh_reg.c **** /**
 251:D:/fchai/work/i-cube/I-CUBE-HUAWEI/Drivers/BSP/Components/lps22hh\lps22hh_reg.c ****   * @brief  Enable AutoRefP function.[get]
 252:D:/fchai/work/i-cube/I-CUBE-HUAWEI/Drivers/BSP/Components/lps22hh\lps22hh_reg.c ****   *
 253:D:/fchai/work/i-cube/I-CUBE-HUAWEI/Drivers/BSP/Components/lps22hh\lps22hh_reg.c ****   * @param  ctx      read / write interface definitions
 254:D:/fchai/work/i-cube/I-CUBE-HUAWEI/Drivers/BSP/Components/lps22hh\lps22hh_reg.c ****   * @param  val      change the values of autorefp in reg INTERRUPT_CFG
 255:D:/fchai/work/i-cube/I-CUBE-HUAWEI/Drivers/BSP/Components/lps22hh\lps22hh_reg.c ****   * @retval          interface status (MANDATORY: return 0 -> no Error)
 256:D:/fchai/work/i-cube/I-CUBE-HUAWEI/Drivers/BSP/Components/lps22hh\lps22hh_reg.c ****   *
 257:D:/fchai/work/i-cube/I-CUBE-HUAWEI/Drivers/BSP/Components/lps22hh\lps22hh_reg.c ****   */
 258:D:/fchai/work/i-cube/I-CUBE-HUAWEI/Drivers/BSP/Components/lps22hh\lps22hh_reg.c **** int32_t lps22hh_pressure_snap_get(stmdev_ctx_t *ctx, uint8_t *val)
 259:D:/fchai/work/i-cube/I-CUBE-HUAWEI/Drivers/BSP/Components/lps22hh\lps22hh_reg.c **** {
 849              		.loc 1 259 1 is_stmt 1 view -0
 850              		.cfi_startproc
 851              		@ args = 0, pretend = 0, frame = 8
 852              		@ frame_needed = 0, uses_anonymous_args = 0
 260:D:/fchai/work/i-cube/I-CUBE-HUAWEI/Drivers/BSP/Components/lps22hh\lps22hh_reg.c ****   lps22hh_interrupt_cfg_t reg;
 853              		.loc 1 260 3 view .LVU227
 261:D:/fchai/work/i-cube/I-CUBE-HUAWEI/Drivers/BSP/Components/lps22hh\lps22hh_reg.c ****   int32_t ret;
 854              		.loc 1 261 3 view .LVU228
 262:D:/fchai/work/i-cube/I-CUBE-HUAWEI/Drivers/BSP/Components/lps22hh\lps22hh_reg.c **** 
 263:D:/fchai/work/i-cube/I-CUBE-HUAWEI/Drivers/BSP/Components/lps22hh\lps22hh_reg.c ****   ret = lps22hh_read_reg(ctx, LPS22HH_INTERRUPT_CFG, (uint8_t*) &reg, 1);
 855              		.loc 1 263 3 view .LVU229
 259:D:/fchai/work/i-cube/I-CUBE-HUAWEI/Drivers/BSP/Components/lps22hh\lps22hh_reg.c ****   lps22hh_interrupt_cfg_t reg;
 856              		.loc 1 259 1 is_stmt 0 view .LVU230
 857 0000 30B5     		push	{r4, r5, lr}
 858              	.LCFI25:
 859              		.cfi_def_cfa_offset 12
 860              		.cfi_offset 4, -12
 861              		.cfi_offset 5, -8
 862              		.cfi_offset 14, -4
 863 0002 83B0     		sub	sp, sp, #12
 864              	.LCFI26:
 865              		.cfi_def_cfa_offset 24
 866              	.LVL67:
 867              	.LBB256:
 868              	.LBI256:
  49:D:/fchai/work/i-cube/I-CUBE-HUAWEI/Drivers/BSP/Components/lps22hh\lps22hh_reg.c ****                          uint16_t len)
 869              		.loc 1 49 9 is_stmt 1 view .LVU231
 870              	.LBB257:
  52:D:/fchai/work/i-cube/I-CUBE-HUAWEI/Drivers/BSP/Components/lps22hh\lps22hh_reg.c ****   ret = ctx->read_reg(ctx->handle, reg, data, len);
 871              		.loc 1 52 3 view .LVU232
  53:D:/fchai/work/i-cube/I-CUBE-HUAWEI/Drivers/BSP/Components/lps22hh\lps22hh_reg.c ****   return ret;
 872              		.loc 1 53 3 view .LVU233
 873              	.LBE257:
 874              	.LBE256:
 259:D:/fchai/work/i-cube/I-CUBE-HUAWEI/Drivers/BSP/Components/lps22hh\lps22hh_reg.c ****   lps22hh_interrupt_cfg_t reg;
 875              		.loc 1 259 1 is_stmt 0 view .LVU234
 876 0004 0C46     		mov	r4, r1
 877              	.LBB259:
 878              	.LBB258:
  53:D:/fchai/work/i-cube/I-CUBE-HUAWEI/Drivers/BSP/Components/lps22hh\lps22hh_reg.c ****   return ret;
 879              		.loc 1 53 9 view .LVU235
 880 0006 D0E90150 		ldrd	r5, r0, [r0, #4]
 881              	.LVL68:
  53:D:/fchai/work/i-cube/I-CUBE-HUAWEI/Drivers/BSP/Components/lps22hh\lps22hh_reg.c ****   return ret;
 882              		.loc 1 53 9 view .LVU236
 883 000a 0123     		movs	r3, #1
ARM GAS  T:\msys\tmp\ccdfMMY7.s 			page 23


 884 000c 01AA     		add	r2, sp, #4
 885              	.LVL69:
  53:D:/fchai/work/i-cube/I-CUBE-HUAWEI/Drivers/BSP/Components/lps22hh\lps22hh_reg.c ****   return ret;
 886              		.loc 1 53 9 view .LVU237
 887 000e 0B21     		movs	r1, #11
 888              	.LVL70:
  53:D:/fchai/work/i-cube/I-CUBE-HUAWEI/Drivers/BSP/Components/lps22hh\lps22hh_reg.c ****   return ret;
 889              		.loc 1 53 9 view .LVU238
 890 0010 A847     		blx	r5
 891              	.LVL71:
  54:D:/fchai/work/i-cube/I-CUBE-HUAWEI/Drivers/BSP/Components/lps22hh\lps22hh_reg.c **** }
 892              		.loc 1 54 3 is_stmt 1 view .LVU239
  54:D:/fchai/work/i-cube/I-CUBE-HUAWEI/Drivers/BSP/Components/lps22hh\lps22hh_reg.c **** }
 893              		.loc 1 54 3 is_stmt 0 view .LVU240
 894              	.LBE258:
 895              	.LBE259:
 264:D:/fchai/work/i-cube/I-CUBE-HUAWEI/Drivers/BSP/Components/lps22hh\lps22hh_reg.c ****   *val = reg.autorefp;
 896              		.loc 1 264 3 is_stmt 1 view .LVU241
 897              		.loc 1 264 13 is_stmt 0 view .LVU242
 898 0012 9DF80430 		ldrb	r3, [sp, #4]	@ zero_extendqisi2
 899 0016 C3F3C013 		ubfx	r3, r3, #7, #1
 900              		.loc 1 264 8 view .LVU243
 901 001a 2370     		strb	r3, [r4]
 265:D:/fchai/work/i-cube/I-CUBE-HUAWEI/Drivers/BSP/Components/lps22hh\lps22hh_reg.c **** 
 266:D:/fchai/work/i-cube/I-CUBE-HUAWEI/Drivers/BSP/Components/lps22hh\lps22hh_reg.c ****   return ret;
 902              		.loc 1 266 3 is_stmt 1 view .LVU244
 267:D:/fchai/work/i-cube/I-CUBE-HUAWEI/Drivers/BSP/Components/lps22hh\lps22hh_reg.c **** }
 903              		.loc 1 267 1 is_stmt 0 view .LVU245
 904 001c 03B0     		add	sp, sp, #12
 905              	.LCFI27:
 906              		.cfi_def_cfa_offset 12
 907              		@ sp needed
 908 001e 30BD     		pop	{r4, r5, pc}
 909              		.loc 1 267 1 view .LVU246
 910              		.cfi_endproc
 911              	.LFE11:
 913              		.section	.text.lps22hh_block_data_update_set,"ax",%progbits
 914              		.align	1
 915              		.p2align 2,,3
 916              		.global	lps22hh_block_data_update_set
 917              		.syntax unified
 918              		.thumb
 919              		.thumb_func
 920              		.fpu fpv4-sp-d16
 922              	lps22hh_block_data_update_set:
 923              	.LVL72:
 924              	.LFB12:
 268:D:/fchai/work/i-cube/I-CUBE-HUAWEI/Drivers/BSP/Components/lps22hh\lps22hh_reg.c **** 
 269:D:/fchai/work/i-cube/I-CUBE-HUAWEI/Drivers/BSP/Components/lps22hh\lps22hh_reg.c **** /**
 270:D:/fchai/work/i-cube/I-CUBE-HUAWEI/Drivers/BSP/Components/lps22hh\lps22hh_reg.c ****   * @brief  Block Data Update.[set]
 271:D:/fchai/work/i-cube/I-CUBE-HUAWEI/Drivers/BSP/Components/lps22hh\lps22hh_reg.c ****   *
 272:D:/fchai/work/i-cube/I-CUBE-HUAWEI/Drivers/BSP/Components/lps22hh\lps22hh_reg.c ****   * @param  ctx      read / write interface definitions
 273:D:/fchai/work/i-cube/I-CUBE-HUAWEI/Drivers/BSP/Components/lps22hh\lps22hh_reg.c ****   * @param  val      change the values of bdu in reg CTRL_REG1
 274:D:/fchai/work/i-cube/I-CUBE-HUAWEI/Drivers/BSP/Components/lps22hh\lps22hh_reg.c ****   * @retval          interface status (MANDATORY: return 0 -> no Error)
 275:D:/fchai/work/i-cube/I-CUBE-HUAWEI/Drivers/BSP/Components/lps22hh\lps22hh_reg.c ****   *
 276:D:/fchai/work/i-cube/I-CUBE-HUAWEI/Drivers/BSP/Components/lps22hh\lps22hh_reg.c ****   */
 277:D:/fchai/work/i-cube/I-CUBE-HUAWEI/Drivers/BSP/Components/lps22hh\lps22hh_reg.c **** int32_t lps22hh_block_data_update_set(stmdev_ctx_t *ctx, uint8_t val)
ARM GAS  T:\msys\tmp\ccdfMMY7.s 			page 24


 278:D:/fchai/work/i-cube/I-CUBE-HUAWEI/Drivers/BSP/Components/lps22hh\lps22hh_reg.c **** {
 925              		.loc 1 278 1 is_stmt 1 view -0
 926              		.cfi_startproc
 927              		@ args = 0, pretend = 0, frame = 8
 928              		@ frame_needed = 0, uses_anonymous_args = 0
 279:D:/fchai/work/i-cube/I-CUBE-HUAWEI/Drivers/BSP/Components/lps22hh\lps22hh_reg.c ****   lps22hh_ctrl_reg1_t reg;
 929              		.loc 1 279 3 view .LVU248
 280:D:/fchai/work/i-cube/I-CUBE-HUAWEI/Drivers/BSP/Components/lps22hh\lps22hh_reg.c ****   int32_t ret;
 930              		.loc 1 280 3 view .LVU249
 281:D:/fchai/work/i-cube/I-CUBE-HUAWEI/Drivers/BSP/Components/lps22hh\lps22hh_reg.c **** 
 282:D:/fchai/work/i-cube/I-CUBE-HUAWEI/Drivers/BSP/Components/lps22hh\lps22hh_reg.c ****   ret = lps22hh_read_reg(ctx, LPS22HH_CTRL_REG1, (uint8_t*) &reg, 1);
 931              		.loc 1 282 3 view .LVU250
 278:D:/fchai/work/i-cube/I-CUBE-HUAWEI/Drivers/BSP/Components/lps22hh\lps22hh_reg.c ****   lps22hh_ctrl_reg1_t reg;
 932              		.loc 1 278 1 is_stmt 0 view .LVU251
 933 0000 70B5     		push	{r4, r5, r6, lr}
 934              	.LCFI28:
 935              		.cfi_def_cfa_offset 16
 936              		.cfi_offset 4, -16
 937              		.cfi_offset 5, -12
 938              		.cfi_offset 6, -8
 939              		.cfi_offset 14, -4
 940 0002 82B0     		sub	sp, sp, #8
 941              	.LCFI29:
 942              		.cfi_def_cfa_offset 24
 278:D:/fchai/work/i-cube/I-CUBE-HUAWEI/Drivers/BSP/Components/lps22hh\lps22hh_reg.c ****   lps22hh_ctrl_reg1_t reg;
 943              		.loc 1 278 1 view .LVU252
 944 0004 0446     		mov	r4, r0
 945              	.LVL73:
 946              	.LBB260:
 947              	.LBI260:
  49:D:/fchai/work/i-cube/I-CUBE-HUAWEI/Drivers/BSP/Components/lps22hh\lps22hh_reg.c ****                          uint16_t len)
 948              		.loc 1 49 9 is_stmt 1 view .LVU253
 949              	.LBB261:
  52:D:/fchai/work/i-cube/I-CUBE-HUAWEI/Drivers/BSP/Components/lps22hh\lps22hh_reg.c ****   ret = ctx->read_reg(ctx->handle, reg, data, len);
 950              		.loc 1 52 3 view .LVU254
  53:D:/fchai/work/i-cube/I-CUBE-HUAWEI/Drivers/BSP/Components/lps22hh\lps22hh_reg.c ****   return ret;
 951              		.loc 1 53 3 view .LVU255
 952              	.LBE261:
 953              	.LBE260:
 278:D:/fchai/work/i-cube/I-CUBE-HUAWEI/Drivers/BSP/Components/lps22hh\lps22hh_reg.c ****   lps22hh_ctrl_reg1_t reg;
 954              		.loc 1 278 1 is_stmt 0 view .LVU256
 955 0006 0D46     		mov	r5, r1
 956              	.LBB263:
 957              	.LBB262:
  53:D:/fchai/work/i-cube/I-CUBE-HUAWEI/Drivers/BSP/Components/lps22hh\lps22hh_reg.c ****   return ret;
 958              		.loc 1 53 9 view .LVU257
 959 0008 D0E90160 		ldrd	r6, r0, [r0, #4]
 960              	.LVL74:
  53:D:/fchai/work/i-cube/I-CUBE-HUAWEI/Drivers/BSP/Components/lps22hh\lps22hh_reg.c ****   return ret;
 961              		.loc 1 53 9 view .LVU258
 962 000c 01AA     		add	r2, sp, #4
 963              	.LVL75:
  53:D:/fchai/work/i-cube/I-CUBE-HUAWEI/Drivers/BSP/Components/lps22hh\lps22hh_reg.c ****   return ret;
 964              		.loc 1 53 9 view .LVU259
 965 000e 0123     		movs	r3, #1
 966 0010 1021     		movs	r1, #16
 967              	.LVL76:
ARM GAS  T:\msys\tmp\ccdfMMY7.s 			page 25


  53:D:/fchai/work/i-cube/I-CUBE-HUAWEI/Drivers/BSP/Components/lps22hh\lps22hh_reg.c ****   return ret;
 968              		.loc 1 53 9 view .LVU260
 969 0012 B047     		blx	r6
 970              	.LVL77:
  54:D:/fchai/work/i-cube/I-CUBE-HUAWEI/Drivers/BSP/Components/lps22hh\lps22hh_reg.c **** }
 971              		.loc 1 54 3 is_stmt 1 view .LVU261
  54:D:/fchai/work/i-cube/I-CUBE-HUAWEI/Drivers/BSP/Components/lps22hh\lps22hh_reg.c **** }
 972              		.loc 1 54 3 is_stmt 0 view .LVU262
 973              	.LBE262:
 974              	.LBE263:
 283:D:/fchai/work/i-cube/I-CUBE-HUAWEI/Drivers/BSP/Components/lps22hh\lps22hh_reg.c ****   if (ret == 0) {
 975              		.loc 1 283 3 is_stmt 1 view .LVU263
 976              		.loc 1 283 6 is_stmt 0 view .LVU264
 977 0014 58B9     		cbnz	r0, .L30
 284:D:/fchai/work/i-cube/I-CUBE-HUAWEI/Drivers/BSP/Components/lps22hh\lps22hh_reg.c ****     reg.bdu = val;
 978              		.loc 1 284 5 is_stmt 1 view .LVU265
 979              		.loc 1 284 13 is_stmt 0 view .LVU266
 980 0016 9DF80430 		ldrb	r3, [sp, #4]	@ zero_extendqisi2
 981              	.LBB264:
 982              	.LBB265:
  71:D:/fchai/work/i-cube/I-CUBE-HUAWEI/Drivers/BSP/Components/lps22hh\lps22hh_reg.c ****   return ret;
 983              		.loc 1 71 9 view .LVU267
 984 001a 2668     		ldr	r6, [r4]
 985 001c A068     		ldr	r0, [r4, #8]
 986              	.LVL78:
  71:D:/fchai/work/i-cube/I-CUBE-HUAWEI/Drivers/BSP/Components/lps22hh\lps22hh_reg.c ****   return ret;
 987              		.loc 1 71 9 view .LVU268
 988              	.LBE265:
 989              	.LBE264:
 990              		.loc 1 284 13 view .LVU269
 991 001e 65F34103 		bfi	r3, r5, #1, #1
 992 0022 8DF80430 		strb	r3, [sp, #4]
 285:D:/fchai/work/i-cube/I-CUBE-HUAWEI/Drivers/BSP/Components/lps22hh\lps22hh_reg.c ****     ret = lps22hh_write_reg(ctx, LPS22HH_CTRL_REG1, (uint8_t*) &reg, 1);
 993              		.loc 1 285 5 is_stmt 1 view .LVU270
 994              	.LVL79:
 995              	.LBB267:
 996              	.LBI264:
  67:D:/fchai/work/i-cube/I-CUBE-HUAWEI/Drivers/BSP/Components/lps22hh\lps22hh_reg.c ****                            uint16_t len)
 997              		.loc 1 67 9 view .LVU271
 998              	.LBB266:
  70:D:/fchai/work/i-cube/I-CUBE-HUAWEI/Drivers/BSP/Components/lps22hh\lps22hh_reg.c ****   ret = ctx->write_reg(ctx->handle, reg, data, len);
 999              		.loc 1 70 3 view .LVU272
  71:D:/fchai/work/i-cube/I-CUBE-HUAWEI/Drivers/BSP/Components/lps22hh\lps22hh_reg.c ****   return ret;
 1000              		.loc 1 71 3 view .LVU273
  71:D:/fchai/work/i-cube/I-CUBE-HUAWEI/Drivers/BSP/Components/lps22hh\lps22hh_reg.c ****   return ret;
 1001              		.loc 1 71 9 is_stmt 0 view .LVU274
 1002 0026 01AA     		add	r2, sp, #4
 1003              	.LVL80:
  71:D:/fchai/work/i-cube/I-CUBE-HUAWEI/Drivers/BSP/Components/lps22hh\lps22hh_reg.c ****   return ret;
 1004              		.loc 1 71 9 view .LVU275
 1005 0028 0123     		movs	r3, #1
 1006 002a 1021     		movs	r1, #16
 1007 002c B047     		blx	r6
 1008              	.LVL81:
  72:D:/fchai/work/i-cube/I-CUBE-HUAWEI/Drivers/BSP/Components/lps22hh\lps22hh_reg.c **** }
 1009              		.loc 1 72 3 is_stmt 1 view .LVU276
  72:D:/fchai/work/i-cube/I-CUBE-HUAWEI/Drivers/BSP/Components/lps22hh\lps22hh_reg.c **** }
ARM GAS  T:\msys\tmp\ccdfMMY7.s 			page 26


 1010              		.loc 1 72 3 is_stmt 0 view .LVU277
 1011              	.LBE266:
 1012              	.LBE267:
 286:D:/fchai/work/i-cube/I-CUBE-HUAWEI/Drivers/BSP/Components/lps22hh\lps22hh_reg.c ****   }
 287:D:/fchai/work/i-cube/I-CUBE-HUAWEI/Drivers/BSP/Components/lps22hh\lps22hh_reg.c ****   return ret;
 1013              		.loc 1 287 3 is_stmt 1 view .LVU278
 1014              	.L30:
 288:D:/fchai/work/i-cube/I-CUBE-HUAWEI/Drivers/BSP/Components/lps22hh\lps22hh_reg.c **** }
 1015              		.loc 1 288 1 is_stmt 0 view .LVU279
 1016 002e 02B0     		add	sp, sp, #8
 1017              	.LCFI30:
 1018              		.cfi_def_cfa_offset 16
 1019              		@ sp needed
 1020 0030 70BD     		pop	{r4, r5, r6, pc}
 1021              		.loc 1 288 1 view .LVU280
 1022              		.cfi_endproc
 1023              	.LFE12:
 1025 0032 00BF     		.section	.text.lps22hh_block_data_update_get,"ax",%progbits
 1026              		.align	1
 1027              		.p2align 2,,3
 1028              		.global	lps22hh_block_data_update_get
 1029              		.syntax unified
 1030              		.thumb
 1031              		.thumb_func
 1032              		.fpu fpv4-sp-d16
 1034              	lps22hh_block_data_update_get:
 1035              	.LVL82:
 1036              	.LFB13:
 289:D:/fchai/work/i-cube/I-CUBE-HUAWEI/Drivers/BSP/Components/lps22hh\lps22hh_reg.c **** 
 290:D:/fchai/work/i-cube/I-CUBE-HUAWEI/Drivers/BSP/Components/lps22hh\lps22hh_reg.c **** /**
 291:D:/fchai/work/i-cube/I-CUBE-HUAWEI/Drivers/BSP/Components/lps22hh\lps22hh_reg.c ****   * @brief  Block Data Update.[get]
 292:D:/fchai/work/i-cube/I-CUBE-HUAWEI/Drivers/BSP/Components/lps22hh\lps22hh_reg.c ****   *
 293:D:/fchai/work/i-cube/I-CUBE-HUAWEI/Drivers/BSP/Components/lps22hh\lps22hh_reg.c ****   * @param  ctx      read / write interface definitions
 294:D:/fchai/work/i-cube/I-CUBE-HUAWEI/Drivers/BSP/Components/lps22hh\lps22hh_reg.c ****   * @param  val      change the values of bdu in reg CTRL_REG1
 295:D:/fchai/work/i-cube/I-CUBE-HUAWEI/Drivers/BSP/Components/lps22hh\lps22hh_reg.c ****   * @retval          interface status (MANDATORY: return 0 -> no Error)
 296:D:/fchai/work/i-cube/I-CUBE-HUAWEI/Drivers/BSP/Components/lps22hh\lps22hh_reg.c ****   *
 297:D:/fchai/work/i-cube/I-CUBE-HUAWEI/Drivers/BSP/Components/lps22hh\lps22hh_reg.c ****   */
 298:D:/fchai/work/i-cube/I-CUBE-HUAWEI/Drivers/BSP/Components/lps22hh\lps22hh_reg.c **** int32_t lps22hh_block_data_update_get(stmdev_ctx_t *ctx, uint8_t *val)
 299:D:/fchai/work/i-cube/I-CUBE-HUAWEI/Drivers/BSP/Components/lps22hh\lps22hh_reg.c **** {
 1037              		.loc 1 299 1 is_stmt 1 view -0
 1038              		.cfi_startproc
 1039              		@ args = 0, pretend = 0, frame = 8
 1040              		@ frame_needed = 0, uses_anonymous_args = 0
 300:D:/fchai/work/i-cube/I-CUBE-HUAWEI/Drivers/BSP/Components/lps22hh\lps22hh_reg.c ****   lps22hh_ctrl_reg1_t reg;
 1041              		.loc 1 300 3 view .LVU282
 301:D:/fchai/work/i-cube/I-CUBE-HUAWEI/Drivers/BSP/Components/lps22hh\lps22hh_reg.c ****   int32_t ret;
 1042              		.loc 1 301 3 view .LVU283
 302:D:/fchai/work/i-cube/I-CUBE-HUAWEI/Drivers/BSP/Components/lps22hh\lps22hh_reg.c **** 
 303:D:/fchai/work/i-cube/I-CUBE-HUAWEI/Drivers/BSP/Components/lps22hh\lps22hh_reg.c ****   ret = lps22hh_read_reg(ctx, LPS22HH_CTRL_REG1, (uint8_t*) &reg, 1);
 1043              		.loc 1 303 3 view .LVU284
 299:D:/fchai/work/i-cube/I-CUBE-HUAWEI/Drivers/BSP/Components/lps22hh\lps22hh_reg.c ****   lps22hh_ctrl_reg1_t reg;
 1044              		.loc 1 299 1 is_stmt 0 view .LVU285
 1045 0000 30B5     		push	{r4, r5, lr}
 1046              	.LCFI31:
 1047              		.cfi_def_cfa_offset 12
 1048              		.cfi_offset 4, -12
 1049              		.cfi_offset 5, -8
ARM GAS  T:\msys\tmp\ccdfMMY7.s 			page 27


 1050              		.cfi_offset 14, -4
 1051 0002 83B0     		sub	sp, sp, #12
 1052              	.LCFI32:
 1053              		.cfi_def_cfa_offset 24
 1054              	.LVL83:
 1055              	.LBB268:
 1056              	.LBI268:
  49:D:/fchai/work/i-cube/I-CUBE-HUAWEI/Drivers/BSP/Components/lps22hh\lps22hh_reg.c ****                          uint16_t len)
 1057              		.loc 1 49 9 is_stmt 1 view .LVU286
 1058              	.LBB269:
  52:D:/fchai/work/i-cube/I-CUBE-HUAWEI/Drivers/BSP/Components/lps22hh\lps22hh_reg.c ****   ret = ctx->read_reg(ctx->handle, reg, data, len);
 1059              		.loc 1 52 3 view .LVU287
  53:D:/fchai/work/i-cube/I-CUBE-HUAWEI/Drivers/BSP/Components/lps22hh\lps22hh_reg.c ****   return ret;
 1060              		.loc 1 53 3 view .LVU288
 1061              	.LBE269:
 1062              	.LBE268:
 299:D:/fchai/work/i-cube/I-CUBE-HUAWEI/Drivers/BSP/Components/lps22hh\lps22hh_reg.c ****   lps22hh_ctrl_reg1_t reg;
 1063              		.loc 1 299 1 is_stmt 0 view .LVU289
 1064 0004 0C46     		mov	r4, r1
 1065              	.LBB271:
 1066              	.LBB270:
  53:D:/fchai/work/i-cube/I-CUBE-HUAWEI/Drivers/BSP/Components/lps22hh\lps22hh_reg.c ****   return ret;
 1067              		.loc 1 53 9 view .LVU290
 1068 0006 D0E90150 		ldrd	r5, r0, [r0, #4]
 1069              	.LVL84:
  53:D:/fchai/work/i-cube/I-CUBE-HUAWEI/Drivers/BSP/Components/lps22hh\lps22hh_reg.c ****   return ret;
 1070              		.loc 1 53 9 view .LVU291
 1071 000a 0123     		movs	r3, #1
 1072 000c 01AA     		add	r2, sp, #4
 1073              	.LVL85:
  53:D:/fchai/work/i-cube/I-CUBE-HUAWEI/Drivers/BSP/Components/lps22hh\lps22hh_reg.c ****   return ret;
 1074              		.loc 1 53 9 view .LVU292
 1075 000e 1021     		movs	r1, #16
 1076              	.LVL86:
  53:D:/fchai/work/i-cube/I-CUBE-HUAWEI/Drivers/BSP/Components/lps22hh\lps22hh_reg.c ****   return ret;
 1077              		.loc 1 53 9 view .LVU293
 1078 0010 A847     		blx	r5
 1079              	.LVL87:
  54:D:/fchai/work/i-cube/I-CUBE-HUAWEI/Drivers/BSP/Components/lps22hh\lps22hh_reg.c **** }
 1080              		.loc 1 54 3 is_stmt 1 view .LVU294
  54:D:/fchai/work/i-cube/I-CUBE-HUAWEI/Drivers/BSP/Components/lps22hh\lps22hh_reg.c **** }
 1081              		.loc 1 54 3 is_stmt 0 view .LVU295
 1082              	.LBE270:
 1083              	.LBE271:
 304:D:/fchai/work/i-cube/I-CUBE-HUAWEI/Drivers/BSP/Components/lps22hh\lps22hh_reg.c ****   *val = reg.bdu;
 1084              		.loc 1 304 3 is_stmt 1 view .LVU296
 1085              		.loc 1 304 13 is_stmt 0 view .LVU297
 1086 0012 9DF80430 		ldrb	r3, [sp, #4]	@ zero_extendqisi2
 1087 0016 C3F34003 		ubfx	r3, r3, #1, #1
 1088              		.loc 1 304 8 view .LVU298
 1089 001a 2370     		strb	r3, [r4]
 305:D:/fchai/work/i-cube/I-CUBE-HUAWEI/Drivers/BSP/Components/lps22hh\lps22hh_reg.c **** 
 306:D:/fchai/work/i-cube/I-CUBE-HUAWEI/Drivers/BSP/Components/lps22hh\lps22hh_reg.c ****   return ret;
 1090              		.loc 1 306 3 is_stmt 1 view .LVU299
 307:D:/fchai/work/i-cube/I-CUBE-HUAWEI/Drivers/BSP/Components/lps22hh\lps22hh_reg.c **** }
 1091              		.loc 1 307 1 is_stmt 0 view .LVU300
 1092 001c 03B0     		add	sp, sp, #12
ARM GAS  T:\msys\tmp\ccdfMMY7.s 			page 28


 1093              	.LCFI33:
 1094              		.cfi_def_cfa_offset 12
 1095              		@ sp needed
 1096 001e 30BD     		pop	{r4, r5, pc}
 1097              		.loc 1 307 1 view .LVU301
 1098              		.cfi_endproc
 1099              	.LFE13:
 1101              		.section	.text.lps22hh_data_rate_set,"ax",%progbits
 1102              		.align	1
 1103              		.p2align 2,,3
 1104              		.global	lps22hh_data_rate_set
 1105              		.syntax unified
 1106              		.thumb
 1107              		.thumb_func
 1108              		.fpu fpv4-sp-d16
 1110              	lps22hh_data_rate_set:
 1111              	.LVL88:
 1112              	.LFB14:
 308:D:/fchai/work/i-cube/I-CUBE-HUAWEI/Drivers/BSP/Components/lps22hh\lps22hh_reg.c **** 
 309:D:/fchai/work/i-cube/I-CUBE-HUAWEI/Drivers/BSP/Components/lps22hh\lps22hh_reg.c **** /**
 310:D:/fchai/work/i-cube/I-CUBE-HUAWEI/Drivers/BSP/Components/lps22hh\lps22hh_reg.c ****   * @brief  Output data rate selection.[set]
 311:D:/fchai/work/i-cube/I-CUBE-HUAWEI/Drivers/BSP/Components/lps22hh\lps22hh_reg.c ****   *
 312:D:/fchai/work/i-cube/I-CUBE-HUAWEI/Drivers/BSP/Components/lps22hh\lps22hh_reg.c ****   * @param  ctx      read / write interface definitions
 313:D:/fchai/work/i-cube/I-CUBE-HUAWEI/Drivers/BSP/Components/lps22hh\lps22hh_reg.c ****   * @param  val      change the values of odr in reg CTRL_REG1
 314:D:/fchai/work/i-cube/I-CUBE-HUAWEI/Drivers/BSP/Components/lps22hh\lps22hh_reg.c ****   * @retval          interface status (MANDATORY: return 0 -> no Error)
 315:D:/fchai/work/i-cube/I-CUBE-HUAWEI/Drivers/BSP/Components/lps22hh\lps22hh_reg.c ****   *
 316:D:/fchai/work/i-cube/I-CUBE-HUAWEI/Drivers/BSP/Components/lps22hh\lps22hh_reg.c ****   */
 317:D:/fchai/work/i-cube/I-CUBE-HUAWEI/Drivers/BSP/Components/lps22hh\lps22hh_reg.c **** int32_t lps22hh_data_rate_set(stmdev_ctx_t *ctx, lps22hh_odr_t val)
 318:D:/fchai/work/i-cube/I-CUBE-HUAWEI/Drivers/BSP/Components/lps22hh\lps22hh_reg.c **** {
 1113              		.loc 1 318 1 is_stmt 1 view -0
 1114              		.cfi_startproc
 1115              		@ args = 0, pretend = 0, frame = 8
 1116              		@ frame_needed = 0, uses_anonymous_args = 0
 319:D:/fchai/work/i-cube/I-CUBE-HUAWEI/Drivers/BSP/Components/lps22hh\lps22hh_reg.c ****   lps22hh_ctrl_reg1_t ctrl_reg1;
 1117              		.loc 1 319 3 view .LVU303
 320:D:/fchai/work/i-cube/I-CUBE-HUAWEI/Drivers/BSP/Components/lps22hh\lps22hh_reg.c ****   lps22hh_ctrl_reg2_t ctrl_reg2;
 1118              		.loc 1 320 3 view .LVU304
 321:D:/fchai/work/i-cube/I-CUBE-HUAWEI/Drivers/BSP/Components/lps22hh\lps22hh_reg.c ****   int32_t ret;
 1119              		.loc 1 321 3 view .LVU305
 322:D:/fchai/work/i-cube/I-CUBE-HUAWEI/Drivers/BSP/Components/lps22hh\lps22hh_reg.c **** 
 323:D:/fchai/work/i-cube/I-CUBE-HUAWEI/Drivers/BSP/Components/lps22hh\lps22hh_reg.c ****   ret = lps22hh_read_reg(ctx, LPS22HH_CTRL_REG1, (uint8_t*)&ctrl_reg1, 1);
 1120              		.loc 1 323 3 view .LVU306
 318:D:/fchai/work/i-cube/I-CUBE-HUAWEI/Drivers/BSP/Components/lps22hh\lps22hh_reg.c ****   lps22hh_ctrl_reg1_t ctrl_reg1;
 1121              		.loc 1 318 1 is_stmt 0 view .LVU307
 1122 0000 70B5     		push	{r4, r5, r6, lr}
 1123              	.LCFI34:
 1124              		.cfi_def_cfa_offset 16
 1125              		.cfi_offset 4, -16
 1126              		.cfi_offset 5, -12
 1127              		.cfi_offset 6, -8
 1128              		.cfi_offset 14, -4
 1129 0002 82B0     		sub	sp, sp, #8
 1130              	.LCFI35:
 1131              		.cfi_def_cfa_offset 24
 318:D:/fchai/work/i-cube/I-CUBE-HUAWEI/Drivers/BSP/Components/lps22hh\lps22hh_reg.c ****   lps22hh_ctrl_reg1_t ctrl_reg1;
 1132              		.loc 1 318 1 view .LVU308
 1133 0004 0446     		mov	r4, r0
ARM GAS  T:\msys\tmp\ccdfMMY7.s 			page 29


 1134              	.LVL89:
 1135              	.LBB272:
 1136              	.LBI272:
  49:D:/fchai/work/i-cube/I-CUBE-HUAWEI/Drivers/BSP/Components/lps22hh\lps22hh_reg.c ****                          uint16_t len)
 1137              		.loc 1 49 9 is_stmt 1 view .LVU309
 1138              	.LBB273:
  52:D:/fchai/work/i-cube/I-CUBE-HUAWEI/Drivers/BSP/Components/lps22hh\lps22hh_reg.c ****   ret = ctx->read_reg(ctx->handle, reg, data, len);
 1139              		.loc 1 52 3 view .LVU310
  53:D:/fchai/work/i-cube/I-CUBE-HUAWEI/Drivers/BSP/Components/lps22hh\lps22hh_reg.c ****   return ret;
 1140              		.loc 1 53 3 view .LVU311
 1141              	.LBE273:
 1142              	.LBE272:
 318:D:/fchai/work/i-cube/I-CUBE-HUAWEI/Drivers/BSP/Components/lps22hh\lps22hh_reg.c ****   lps22hh_ctrl_reg1_t ctrl_reg1;
 1143              		.loc 1 318 1 is_stmt 0 view .LVU312
 1144 0006 0D46     		mov	r5, r1
 1145              	.LBB275:
 1146              	.LBB274:
  53:D:/fchai/work/i-cube/I-CUBE-HUAWEI/Drivers/BSP/Components/lps22hh\lps22hh_reg.c ****   return ret;
 1147              		.loc 1 53 9 view .LVU313
 1148 0008 D0E90160 		ldrd	r6, r0, [r0, #4]
 1149              	.LVL90:
  53:D:/fchai/work/i-cube/I-CUBE-HUAWEI/Drivers/BSP/Components/lps22hh\lps22hh_reg.c ****   return ret;
 1150              		.loc 1 53 9 view .LVU314
 1151 000c 6A46     		mov	r2, sp
 1152 000e 0123     		movs	r3, #1
 1153 0010 1021     		movs	r1, #16
 1154              	.LVL91:
  53:D:/fchai/work/i-cube/I-CUBE-HUAWEI/Drivers/BSP/Components/lps22hh\lps22hh_reg.c ****   return ret;
 1155              		.loc 1 53 9 view .LVU315
 1156 0012 B047     		blx	r6
 1157              	.LVL92:
  54:D:/fchai/work/i-cube/I-CUBE-HUAWEI/Drivers/BSP/Components/lps22hh\lps22hh_reg.c **** }
 1158              		.loc 1 54 3 is_stmt 1 view .LVU316
  54:D:/fchai/work/i-cube/I-CUBE-HUAWEI/Drivers/BSP/Components/lps22hh\lps22hh_reg.c **** }
 1159              		.loc 1 54 3 is_stmt 0 view .LVU317
 1160              	.LBE274:
 1161              	.LBE275:
 324:D:/fchai/work/i-cube/I-CUBE-HUAWEI/Drivers/BSP/Components/lps22hh\lps22hh_reg.c ****   if (ret == 0) {
 1162              		.loc 1 324 3 is_stmt 1 view .LVU318
 1163              		.loc 1 324 6 is_stmt 0 view .LVU319
 1164 0014 10BB     		cbnz	r0, .L35
 325:D:/fchai/work/i-cube/I-CUBE-HUAWEI/Drivers/BSP/Components/lps22hh\lps22hh_reg.c ****     ret = lps22hh_read_reg(ctx, LPS22HH_CTRL_REG2, (uint8_t*)&ctrl_reg2, 1);
 1165              		.loc 1 325 5 is_stmt 1 view .LVU320
 1166              	.LVL93:
 1167              	.LBB276:
 1168              	.LBI276:
  49:D:/fchai/work/i-cube/I-CUBE-HUAWEI/Drivers/BSP/Components/lps22hh\lps22hh_reg.c ****                          uint16_t len)
 1169              		.loc 1 49 9 view .LVU321
 1170              	.LBB277:
  52:D:/fchai/work/i-cube/I-CUBE-HUAWEI/Drivers/BSP/Components/lps22hh\lps22hh_reg.c ****   ret = ctx->read_reg(ctx->handle, reg, data, len);
 1171              		.loc 1 52 3 view .LVU322
  53:D:/fchai/work/i-cube/I-CUBE-HUAWEI/Drivers/BSP/Components/lps22hh\lps22hh_reg.c ****   return ret;
 1172              		.loc 1 53 3 view .LVU323
  53:D:/fchai/work/i-cube/I-CUBE-HUAWEI/Drivers/BSP/Components/lps22hh\lps22hh_reg.c ****   return ret;
 1173              		.loc 1 53 9 is_stmt 0 view .LVU324
 1174 0016 D4E90160 		ldrd	r6, r0, [r4, #4]
 1175              	.LVL94:
ARM GAS  T:\msys\tmp\ccdfMMY7.s 			page 30


  53:D:/fchai/work/i-cube/I-CUBE-HUAWEI/Drivers/BSP/Components/lps22hh\lps22hh_reg.c ****   return ret;
 1176              		.loc 1 53 9 view .LVU325
 1177 001a 01AA     		add	r2, sp, #4
 1178              	.LVL95:
  53:D:/fchai/work/i-cube/I-CUBE-HUAWEI/Drivers/BSP/Components/lps22hh\lps22hh_reg.c ****   return ret;
 1179              		.loc 1 53 9 view .LVU326
 1180 001c 0123     		movs	r3, #1
 1181 001e 1121     		movs	r1, #17
 1182 0020 B047     		blx	r6
 1183              	.LVL96:
  54:D:/fchai/work/i-cube/I-CUBE-HUAWEI/Drivers/BSP/Components/lps22hh\lps22hh_reg.c **** }
 1184              		.loc 1 54 3 is_stmt 1 view .LVU327
  54:D:/fchai/work/i-cube/I-CUBE-HUAWEI/Drivers/BSP/Components/lps22hh\lps22hh_reg.c **** }
 1185              		.loc 1 54 3 is_stmt 0 view .LVU328
 1186              	.LBE277:
 1187              	.LBE276:
 326:D:/fchai/work/i-cube/I-CUBE-HUAWEI/Drivers/BSP/Components/lps22hh\lps22hh_reg.c ****   }
 327:D:/fchai/work/i-cube/I-CUBE-HUAWEI/Drivers/BSP/Components/lps22hh\lps22hh_reg.c ****   if (ret == 0) {
 1188              		.loc 1 327 3 is_stmt 1 view .LVU329
 1189              		.loc 1 327 6 is_stmt 0 view .LVU330
 1190 0022 D8B9     		cbnz	r0, .L35
 328:D:/fchai/work/i-cube/I-CUBE-HUAWEI/Drivers/BSP/Components/lps22hh\lps22hh_reg.c ****     ctrl_reg1.odr = (uint8_t)val & 0x07U;
 1191              		.loc 1 328 5 is_stmt 1 view .LVU331
 1192              		.loc 1 328 19 is_stmt 0 view .LVU332
 1193 0024 9DF80030 		ldrb	r3, [sp]	@ zero_extendqisi2
 1194              	.LBB278:
 1195              	.LBB279:
  71:D:/fchai/work/i-cube/I-CUBE-HUAWEI/Drivers/BSP/Components/lps22hh\lps22hh_reg.c ****   return ret;
 1196              		.loc 1 71 9 view .LVU333
 1197 0028 2668     		ldr	r6, [r4]
 1198 002a A068     		ldr	r0, [r4, #8]
 1199              	.LVL97:
  71:D:/fchai/work/i-cube/I-CUBE-HUAWEI/Drivers/BSP/Components/lps22hh\lps22hh_reg.c ****   return ret;
 1200              		.loc 1 71 9 view .LVU334
 1201              	.LBE279:
 1202              	.LBE278:
 1203              		.loc 1 328 19 view .LVU335
 1204 002c 65F30613 		bfi	r3, r5, #4, #3
 1205 0030 8DF80030 		strb	r3, [sp]
 329:D:/fchai/work/i-cube/I-CUBE-HUAWEI/Drivers/BSP/Components/lps22hh\lps22hh_reg.c ****     ret = lps22hh_write_reg(ctx, LPS22HH_CTRL_REG1, (uint8_t*)&ctrl_reg1, 1);
 1206              		.loc 1 329 5 is_stmt 1 view .LVU336
 1207              	.LVL98:
 1208              	.LBB281:
 1209              	.LBI278:
  67:D:/fchai/work/i-cube/I-CUBE-HUAWEI/Drivers/BSP/Components/lps22hh\lps22hh_reg.c ****                            uint16_t len)
 1210              		.loc 1 67 9 view .LVU337
 1211              	.LBB280:
  70:D:/fchai/work/i-cube/I-CUBE-HUAWEI/Drivers/BSP/Components/lps22hh\lps22hh_reg.c ****   ret = ctx->write_reg(ctx->handle, reg, data, len);
 1212              		.loc 1 70 3 view .LVU338
  71:D:/fchai/work/i-cube/I-CUBE-HUAWEI/Drivers/BSP/Components/lps22hh\lps22hh_reg.c ****   return ret;
 1213              		.loc 1 71 3 view .LVU339
  71:D:/fchai/work/i-cube/I-CUBE-HUAWEI/Drivers/BSP/Components/lps22hh\lps22hh_reg.c ****   return ret;
 1214              		.loc 1 71 9 is_stmt 0 view .LVU340
 1215 0034 6A46     		mov	r2, sp
 1216 0036 0123     		movs	r3, #1
 1217 0038 1021     		movs	r1, #16
 1218 003a B047     		blx	r6
ARM GAS  T:\msys\tmp\ccdfMMY7.s 			page 31


 1219              	.LVL99:
  72:D:/fchai/work/i-cube/I-CUBE-HUAWEI/Drivers/BSP/Components/lps22hh\lps22hh_reg.c **** }
 1220              		.loc 1 72 3 is_stmt 1 view .LVU341
  72:D:/fchai/work/i-cube/I-CUBE-HUAWEI/Drivers/BSP/Components/lps22hh\lps22hh_reg.c **** }
 1221              		.loc 1 72 3 is_stmt 0 view .LVU342
 1222              	.LBE280:
 1223              	.LBE281:
 330:D:/fchai/work/i-cube/I-CUBE-HUAWEI/Drivers/BSP/Components/lps22hh\lps22hh_reg.c ****   }
 331:D:/fchai/work/i-cube/I-CUBE-HUAWEI/Drivers/BSP/Components/lps22hh\lps22hh_reg.c ****   if (ret == 0) {
 1224              		.loc 1 331 3 is_stmt 1 view .LVU343
 1225              		.loc 1 331 6 is_stmt 0 view .LVU344
 1226 003c 70B9     		cbnz	r0, .L35
 332:D:/fchai/work/i-cube/I-CUBE-HUAWEI/Drivers/BSP/Components/lps22hh\lps22hh_reg.c ****     ctrl_reg2.low_noise_en = ((uint8_t)val & 0x10U) >> 4;
 1227              		.loc 1 332 5 is_stmt 1 view .LVU345
 333:D:/fchai/work/i-cube/I-CUBE-HUAWEI/Drivers/BSP/Components/lps22hh\lps22hh_reg.c ****     ctrl_reg2.one_shot = ((uint8_t)val & 0x08U) >> 3;
 1228              		.loc 1 333 5 view .LVU346
 1229              		.loc 1 333 24 is_stmt 0 view .LVU347
 1230 003e 9DF80430 		ldrb	r3, [sp, #4]	@ zero_extendqisi2
 1231              	.LBB282:
 1232              	.LBB283:
  71:D:/fchai/work/i-cube/I-CUBE-HUAWEI/Drivers/BSP/Components/lps22hh\lps22hh_reg.c ****   return ret;
 1233              		.loc 1 71 9 view .LVU348
 1234 0042 2668     		ldr	r6, [r4]
 1235 0044 A068     		ldr	r0, [r4, #8]
 1236              	.LVL100:
  71:D:/fchai/work/i-cube/I-CUBE-HUAWEI/Drivers/BSP/Components/lps22hh\lps22hh_reg.c ****   return ret;
 1237              		.loc 1 71 9 view .LVU349
 1238              	.LBE283:
 1239              	.LBE282:
 1240              		.loc 1 333 24 view .LVU350
 1241 0046 23F00303 		bic	r3, r3, #3
 1242 004a C5F3C105 		ubfx	r5, r5, #3, #2
 1243 004e 1D43     		orrs	r5, r5, r3
 1244              	.LBB286:
 1245              	.LBB284:
  71:D:/fchai/work/i-cube/I-CUBE-HUAWEI/Drivers/BSP/Components/lps22hh\lps22hh_reg.c ****   return ret;
 1246              		.loc 1 71 9 view .LVU351
 1247 0050 01AA     		add	r2, sp, #4
 1248              	.LBE284:
 1249              	.LBE286:
 1250              		.loc 1 333 24 view .LVU352
 1251 0052 8DF80450 		strb	r5, [sp, #4]
 334:D:/fchai/work/i-cube/I-CUBE-HUAWEI/Drivers/BSP/Components/lps22hh\lps22hh_reg.c ****     ret = lps22hh_write_reg(ctx, LPS22HH_CTRL_REG2, (uint8_t*)&ctrl_reg2, 1);
 1252              		.loc 1 334 5 is_stmt 1 view .LVU353
 1253              	.LVL101:
 1254              	.LBB287:
 1255              	.LBI282:
  67:D:/fchai/work/i-cube/I-CUBE-HUAWEI/Drivers/BSP/Components/lps22hh\lps22hh_reg.c ****                            uint16_t len)
 1256              		.loc 1 67 9 view .LVU354
 1257              	.LBB285:
  70:D:/fchai/work/i-cube/I-CUBE-HUAWEI/Drivers/BSP/Components/lps22hh\lps22hh_reg.c ****   ret = ctx->write_reg(ctx->handle, reg, data, len);
 1258              		.loc 1 70 3 view .LVU355
  71:D:/fchai/work/i-cube/I-CUBE-HUAWEI/Drivers/BSP/Components/lps22hh\lps22hh_reg.c ****   return ret;
 1259              		.loc 1 71 3 view .LVU356
  71:D:/fchai/work/i-cube/I-CUBE-HUAWEI/Drivers/BSP/Components/lps22hh\lps22hh_reg.c ****   return ret;
 1260              		.loc 1 71 9 is_stmt 0 view .LVU357
 1261 0056 0123     		movs	r3, #1
ARM GAS  T:\msys\tmp\ccdfMMY7.s 			page 32


 1262 0058 1121     		movs	r1, #17
 1263 005a B047     		blx	r6
 1264              	.LVL102:
  72:D:/fchai/work/i-cube/I-CUBE-HUAWEI/Drivers/BSP/Components/lps22hh\lps22hh_reg.c **** }
 1265              		.loc 1 72 3 is_stmt 1 view .LVU358
  72:D:/fchai/work/i-cube/I-CUBE-HUAWEI/Drivers/BSP/Components/lps22hh\lps22hh_reg.c **** }
 1266              		.loc 1 72 3 is_stmt 0 view .LVU359
 1267              	.LBE285:
 1268              	.LBE287:
 335:D:/fchai/work/i-cube/I-CUBE-HUAWEI/Drivers/BSP/Components/lps22hh\lps22hh_reg.c ****   }
 336:D:/fchai/work/i-cube/I-CUBE-HUAWEI/Drivers/BSP/Components/lps22hh\lps22hh_reg.c ****   return ret;
 1269              		.loc 1 336 3 is_stmt 1 view .LVU360
 1270              	.L35:
 337:D:/fchai/work/i-cube/I-CUBE-HUAWEI/Drivers/BSP/Components/lps22hh\lps22hh_reg.c **** }
 1271              		.loc 1 337 1 is_stmt 0 view .LVU361
 1272 005c 02B0     		add	sp, sp, #8
 1273              	.LCFI36:
 1274              		.cfi_def_cfa_offset 16
 1275              		@ sp needed
 1276 005e 70BD     		pop	{r4, r5, r6, pc}
 1277              		.loc 1 337 1 view .LVU362
 1278              		.cfi_endproc
 1279              	.LFE14:
 1281              		.section	.text.lps22hh_data_rate_get,"ax",%progbits
 1282              		.align	1
 1283              		.p2align 2,,3
 1284              		.global	lps22hh_data_rate_get
 1285              		.syntax unified
 1286              		.thumb
 1287              		.thumb_func
 1288              		.fpu fpv4-sp-d16
 1290              	lps22hh_data_rate_get:
 1291              	.LVL103:
 1292              	.LFB15:
 338:D:/fchai/work/i-cube/I-CUBE-HUAWEI/Drivers/BSP/Components/lps22hh\lps22hh_reg.c **** 
 339:D:/fchai/work/i-cube/I-CUBE-HUAWEI/Drivers/BSP/Components/lps22hh\lps22hh_reg.c **** /**
 340:D:/fchai/work/i-cube/I-CUBE-HUAWEI/Drivers/BSP/Components/lps22hh\lps22hh_reg.c ****   * @brief  Output data rate selection.[get]
 341:D:/fchai/work/i-cube/I-CUBE-HUAWEI/Drivers/BSP/Components/lps22hh\lps22hh_reg.c ****   *
 342:D:/fchai/work/i-cube/I-CUBE-HUAWEI/Drivers/BSP/Components/lps22hh\lps22hh_reg.c ****   * @param  ctx      read / write interface definitions
 343:D:/fchai/work/i-cube/I-CUBE-HUAWEI/Drivers/BSP/Components/lps22hh\lps22hh_reg.c ****   * @param  val      Get the values of odr in reg CTRL_REG1
 344:D:/fchai/work/i-cube/I-CUBE-HUAWEI/Drivers/BSP/Components/lps22hh\lps22hh_reg.c ****   * @retval          interface status (MANDATORY: return 0 -> no Error)
 345:D:/fchai/work/i-cube/I-CUBE-HUAWEI/Drivers/BSP/Components/lps22hh\lps22hh_reg.c ****   *
 346:D:/fchai/work/i-cube/I-CUBE-HUAWEI/Drivers/BSP/Components/lps22hh\lps22hh_reg.c ****   */
 347:D:/fchai/work/i-cube/I-CUBE-HUAWEI/Drivers/BSP/Components/lps22hh\lps22hh_reg.c **** int32_t lps22hh_data_rate_get(stmdev_ctx_t *ctx, lps22hh_odr_t *val)
 348:D:/fchai/work/i-cube/I-CUBE-HUAWEI/Drivers/BSP/Components/lps22hh\lps22hh_reg.c **** {
 1293              		.loc 1 348 1 is_stmt 1 view -0
 1294              		.cfi_startproc
 1295              		@ args = 0, pretend = 0, frame = 8
 1296              		@ frame_needed = 0, uses_anonymous_args = 0
 349:D:/fchai/work/i-cube/I-CUBE-HUAWEI/Drivers/BSP/Components/lps22hh\lps22hh_reg.c ****   lps22hh_ctrl_reg1_t ctrl_reg1;
 1297              		.loc 1 349 3 view .LVU364
 350:D:/fchai/work/i-cube/I-CUBE-HUAWEI/Drivers/BSP/Components/lps22hh\lps22hh_reg.c ****   lps22hh_ctrl_reg2_t ctrl_reg2;
 1298              		.loc 1 350 3 view .LVU365
 351:D:/fchai/work/i-cube/I-CUBE-HUAWEI/Drivers/BSP/Components/lps22hh\lps22hh_reg.c ****   int32_t ret;
 1299              		.loc 1 351 3 view .LVU366
 352:D:/fchai/work/i-cube/I-CUBE-HUAWEI/Drivers/BSP/Components/lps22hh\lps22hh_reg.c **** 
 353:D:/fchai/work/i-cube/I-CUBE-HUAWEI/Drivers/BSP/Components/lps22hh\lps22hh_reg.c ****   ret = lps22hh_read_reg(ctx, LPS22HH_CTRL_REG1, (uint8_t*)&ctrl_reg1, 1);
ARM GAS  T:\msys\tmp\ccdfMMY7.s 			page 33


 1300              		.loc 1 353 3 view .LVU367
 348:D:/fchai/work/i-cube/I-CUBE-HUAWEI/Drivers/BSP/Components/lps22hh\lps22hh_reg.c ****   lps22hh_ctrl_reg1_t ctrl_reg1;
 1301              		.loc 1 348 1 is_stmt 0 view .LVU368
 1302 0000 70B5     		push	{r4, r5, r6, lr}
 1303              	.LCFI37:
 1304              		.cfi_def_cfa_offset 16
 1305              		.cfi_offset 4, -16
 1306              		.cfi_offset 5, -12
 1307              		.cfi_offset 6, -8
 1308              		.cfi_offset 14, -4
 1309 0002 82B0     		sub	sp, sp, #8
 1310              	.LCFI38:
 1311              		.cfi_def_cfa_offset 24
 348:D:/fchai/work/i-cube/I-CUBE-HUAWEI/Drivers/BSP/Components/lps22hh\lps22hh_reg.c ****   lps22hh_ctrl_reg1_t ctrl_reg1;
 1312              		.loc 1 348 1 view .LVU369
 1313 0004 0646     		mov	r6, r0
 1314              	.LVL104:
 1315              	.LBB288:
 1316              	.LBI288:
  49:D:/fchai/work/i-cube/I-CUBE-HUAWEI/Drivers/BSP/Components/lps22hh\lps22hh_reg.c ****                          uint16_t len)
 1317              		.loc 1 49 9 is_stmt 1 view .LVU370
 1318              	.LBB289:
  52:D:/fchai/work/i-cube/I-CUBE-HUAWEI/Drivers/BSP/Components/lps22hh\lps22hh_reg.c ****   ret = ctx->read_reg(ctx->handle, reg, data, len);
 1319              		.loc 1 52 3 view .LVU371
  53:D:/fchai/work/i-cube/I-CUBE-HUAWEI/Drivers/BSP/Components/lps22hh\lps22hh_reg.c ****   return ret;
 1320              		.loc 1 53 3 view .LVU372
 1321              	.LBE289:
 1322              	.LBE288:
 348:D:/fchai/work/i-cube/I-CUBE-HUAWEI/Drivers/BSP/Components/lps22hh\lps22hh_reg.c ****   lps22hh_ctrl_reg1_t ctrl_reg1;
 1323              		.loc 1 348 1 is_stmt 0 view .LVU373
 1324 0006 0C46     		mov	r4, r1
 1325              	.LBB291:
 1326              	.LBB290:
  53:D:/fchai/work/i-cube/I-CUBE-HUAWEI/Drivers/BSP/Components/lps22hh\lps22hh_reg.c ****   return ret;
 1327              		.loc 1 53 9 view .LVU374
 1328 0008 D0E90150 		ldrd	r5, r0, [r0, #4]
 1329              	.LVL105:
  53:D:/fchai/work/i-cube/I-CUBE-HUAWEI/Drivers/BSP/Components/lps22hh\lps22hh_reg.c ****   return ret;
 1330              		.loc 1 53 9 view .LVU375
 1331 000c 0123     		movs	r3, #1
 1332 000e 6A46     		mov	r2, sp
 1333 0010 1021     		movs	r1, #16
 1334              	.LVL106:
  53:D:/fchai/work/i-cube/I-CUBE-HUAWEI/Drivers/BSP/Components/lps22hh\lps22hh_reg.c ****   return ret;
 1335              		.loc 1 53 9 view .LVU376
 1336 0012 A847     		blx	r5
 1337              	.LVL107:
  54:D:/fchai/work/i-cube/I-CUBE-HUAWEI/Drivers/BSP/Components/lps22hh\lps22hh_reg.c **** }
 1338              		.loc 1 54 3 is_stmt 1 view .LVU377
  54:D:/fchai/work/i-cube/I-CUBE-HUAWEI/Drivers/BSP/Components/lps22hh\lps22hh_reg.c **** }
 1339              		.loc 1 54 3 is_stmt 0 view .LVU378
 1340              	.LBE290:
 1341              	.LBE291:
 354:D:/fchai/work/i-cube/I-CUBE-HUAWEI/Drivers/BSP/Components/lps22hh\lps22hh_reg.c ****   if (ret == 0) {
 1342              		.loc 1 354 3 is_stmt 1 view .LVU379
 1343              		.loc 1 354 6 is_stmt 0 view .LVU380
 1344 0014 58BB     		cbnz	r0, .L38
ARM GAS  T:\msys\tmp\ccdfMMY7.s 			page 34


 355:D:/fchai/work/i-cube/I-CUBE-HUAWEI/Drivers/BSP/Components/lps22hh\lps22hh_reg.c ****     ret = lps22hh_read_reg(ctx, LPS22HH_CTRL_REG2, (uint8_t*)&ctrl_reg2, 1);
 1345              		.loc 1 355 5 is_stmt 1 view .LVU381
 1346              	.LVL108:
 1347              	.LBB292:
 1348              	.LBI292:
  49:D:/fchai/work/i-cube/I-CUBE-HUAWEI/Drivers/BSP/Components/lps22hh\lps22hh_reg.c ****                          uint16_t len)
 1349              		.loc 1 49 9 view .LVU382
 1350              	.LBB293:
  52:D:/fchai/work/i-cube/I-CUBE-HUAWEI/Drivers/BSP/Components/lps22hh\lps22hh_reg.c ****   ret = ctx->read_reg(ctx->handle, reg, data, len);
 1351              		.loc 1 52 3 view .LVU383
  53:D:/fchai/work/i-cube/I-CUBE-HUAWEI/Drivers/BSP/Components/lps22hh\lps22hh_reg.c ****   return ret;
 1352              		.loc 1 53 3 view .LVU384
  53:D:/fchai/work/i-cube/I-CUBE-HUAWEI/Drivers/BSP/Components/lps22hh\lps22hh_reg.c ****   return ret;
 1353              		.loc 1 53 9 is_stmt 0 view .LVU385
 1354 0016 D6E90150 		ldrd	r5, r0, [r6, #4]
 1355              	.LVL109:
  53:D:/fchai/work/i-cube/I-CUBE-HUAWEI/Drivers/BSP/Components/lps22hh\lps22hh_reg.c ****   return ret;
 1356              		.loc 1 53 9 view .LVU386
 1357 001a 01AA     		add	r2, sp, #4
 1358              	.LVL110:
  53:D:/fchai/work/i-cube/I-CUBE-HUAWEI/Drivers/BSP/Components/lps22hh\lps22hh_reg.c ****   return ret;
 1359              		.loc 1 53 9 view .LVU387
 1360 001c 0123     		movs	r3, #1
 1361 001e 1121     		movs	r1, #17
 1362 0020 A847     		blx	r5
 1363              	.LVL111:
  54:D:/fchai/work/i-cube/I-CUBE-HUAWEI/Drivers/BSP/Components/lps22hh\lps22hh_reg.c **** }
 1364              		.loc 1 54 3 is_stmt 1 view .LVU388
  54:D:/fchai/work/i-cube/I-CUBE-HUAWEI/Drivers/BSP/Components/lps22hh\lps22hh_reg.c **** }
 1365              		.loc 1 54 3 is_stmt 0 view .LVU389
 1366              	.LBE293:
 1367              	.LBE292:
 356:D:/fchai/work/i-cube/I-CUBE-HUAWEI/Drivers/BSP/Components/lps22hh\lps22hh_reg.c ****   }
 357:D:/fchai/work/i-cube/I-CUBE-HUAWEI/Drivers/BSP/Components/lps22hh\lps22hh_reg.c ****   if (ret == 0) {
 1368              		.loc 1 357 3 is_stmt 1 view .LVU390
 1369              		.loc 1 357 6 is_stmt 0 view .LVU391
 1370 0022 20BB     		cbnz	r0, .L38
 358:D:/fchai/work/i-cube/I-CUBE-HUAWEI/Drivers/BSP/Components/lps22hh\lps22hh_reg.c ****     ret = lps22hh_read_reg(ctx, LPS22HH_CTRL_REG2, (uint8_t*)&ctrl_reg2, 1);
 1371              		.loc 1 358 5 is_stmt 1 view .LVU392
 1372              	.LVL112:
 1373              	.LBB294:
 1374              	.LBI294:
  49:D:/fchai/work/i-cube/I-CUBE-HUAWEI/Drivers/BSP/Components/lps22hh\lps22hh_reg.c ****                          uint16_t len)
 1375              		.loc 1 49 9 view .LVU393
 1376              	.LBB295:
  52:D:/fchai/work/i-cube/I-CUBE-HUAWEI/Drivers/BSP/Components/lps22hh\lps22hh_reg.c ****   ret = ctx->read_reg(ctx->handle, reg, data, len);
 1377              		.loc 1 52 3 view .LVU394
  53:D:/fchai/work/i-cube/I-CUBE-HUAWEI/Drivers/BSP/Components/lps22hh\lps22hh_reg.c ****   return ret;
 1378              		.loc 1 53 3 view .LVU395
  53:D:/fchai/work/i-cube/I-CUBE-HUAWEI/Drivers/BSP/Components/lps22hh\lps22hh_reg.c ****   return ret;
 1379              		.loc 1 53 9 is_stmt 0 view .LVU396
 1380 0024 01AA     		add	r2, sp, #4
 1381              	.LVL113:
  53:D:/fchai/work/i-cube/I-CUBE-HUAWEI/Drivers/BSP/Components/lps22hh\lps22hh_reg.c ****   return ret;
 1382              		.loc 1 53 9 view .LVU397
 1383 0026 0123     		movs	r3, #1
 1384 0028 1121     		movs	r1, #17
ARM GAS  T:\msys\tmp\ccdfMMY7.s 			page 35


 1385 002a D6E90150 		ldrd	r5, r0, [r6, #4]
 1386              	.LVL114:
  53:D:/fchai/work/i-cube/I-CUBE-HUAWEI/Drivers/BSP/Components/lps22hh\lps22hh_reg.c ****   return ret;
 1387              		.loc 1 53 9 view .LVU398
 1388 002e A847     		blx	r5
 1389              	.LVL115:
  53:D:/fchai/work/i-cube/I-CUBE-HUAWEI/Drivers/BSP/Components/lps22hh\lps22hh_reg.c ****   return ret;
 1390              		.loc 1 53 9 view .LVU399
 1391              	.LBE295:
 1392              	.LBE294:
 359:D:/fchai/work/i-cube/I-CUBE-HUAWEI/Drivers/BSP/Components/lps22hh\lps22hh_reg.c ****     switch (((ctrl_reg2.low_noise_en << 4) + (ctrl_reg2.one_shot << 3) +
 1393              		.loc 1 359 24 view .LVU400
 1394 0030 9DF80420 		ldrb	r2, [sp, #4]	@ zero_extendqisi2
 360:D:/fchai/work/i-cube/I-CUBE-HUAWEI/Drivers/BSP/Components/lps22hh\lps22hh_reg.c ****             ctrl_reg1.odr )) {
 1395              		.loc 1 360 22 view .LVU401
 1396 0034 9DF80010 		ldrb	r1, [sp]	@ zero_extendqisi2
 359:D:/fchai/work/i-cube/I-CUBE-HUAWEI/Drivers/BSP/Components/lps22hh\lps22hh_reg.c ****     switch (((ctrl_reg2.low_noise_en << 4) + (ctrl_reg2.one_shot << 3) +
 1397              		.loc 1 359 56 view .LVU402
 1398 0038 02F00103 		and	r3, r2, #1
 359:D:/fchai/work/i-cube/I-CUBE-HUAWEI/Drivers/BSP/Components/lps22hh\lps22hh_reg.c ****     switch (((ctrl_reg2.low_noise_en << 4) + (ctrl_reg2.one_shot << 3) +
 1399              		.loc 1 359 66 view .LVU403
 1400 003c DB00     		lsls	r3, r3, #3
 359:D:/fchai/work/i-cube/I-CUBE-HUAWEI/Drivers/BSP/Components/lps22hh\lps22hh_reg.c ****     switch (((ctrl_reg2.low_noise_en << 4) + (ctrl_reg2.one_shot << 3) +
 1401              		.loc 1 359 24 view .LVU404
 1402 003e C2F34002 		ubfx	r2, r2, #1, #1
 359:D:/fchai/work/i-cube/I-CUBE-HUAWEI/Drivers/BSP/Components/lps22hh\lps22hh_reg.c ****     switch (((ctrl_reg2.low_noise_en << 4) + (ctrl_reg2.one_shot << 3) +
 1403              		.loc 1 359 44 view .LVU405
 1404 0042 03EB0213 		add	r3, r3, r2, lsl #4
 1405              		.loc 1 360 22 view .LVU406
 1406 0046 C1F30212 		ubfx	r2, r1, #4, #3
 359:D:/fchai/work/i-cube/I-CUBE-HUAWEI/Drivers/BSP/Components/lps22hh\lps22hh_reg.c ****     switch (((ctrl_reg2.low_noise_en << 4) + (ctrl_reg2.one_shot << 3) +
 1407              		.loc 1 359 72 view .LVU407
 1408 004a 1344     		add	r3, r3, r2
 1409              	.LVL116:
 1410              	.LBB297:
 1411              	.LBB296:
  54:D:/fchai/work/i-cube/I-CUBE-HUAWEI/Drivers/BSP/Components/lps22hh\lps22hh_reg.c **** }
 1412              		.loc 1 54 3 is_stmt 1 view .LVU408
  54:D:/fchai/work/i-cube/I-CUBE-HUAWEI/Drivers/BSP/Components/lps22hh\lps22hh_reg.c **** }
 1413              		.loc 1 54 3 is_stmt 0 view .LVU409
 1414              	.LBE296:
 1415              	.LBE297:
 359:D:/fchai/work/i-cube/I-CUBE-HUAWEI/Drivers/BSP/Components/lps22hh\lps22hh_reg.c ****     switch (((ctrl_reg2.low_noise_en << 4) + (ctrl_reg2.one_shot << 3) +
 1416              		.loc 1 359 5 is_stmt 1 view .LVU410
 1417 004c 152B     		cmp	r3, #21
 1418 004e 0CD8     		bhi	.L40
 1419 0050 DFE803F0 		tbb	[pc, r3]
 1420              	.L42:
 1421 0054 0B       		.byte	(.L40-.L42)/2
 1422 0055 33       		.byte	(.L54-.L42)/2
 1423 0056 30       		.byte	(.L53-.L42)/2
 1424 0057 2D       		.byte	(.L52-.L42)/2
 1425 0058 2A       		.byte	(.L51-.L42)/2
 1426 0059 27       		.byte	(.L50-.L42)/2
 1427 005a 24       		.byte	(.L49-.L42)/2
 1428 005b 21       		.byte	(.L48-.L42)/2
 1429 005c 1E       		.byte	(.L47-.L42)/2
ARM GAS  T:\msys\tmp\ccdfMMY7.s 			page 36


 1430 005d 0B       		.byte	(.L40-.L42)/2
 1431 005e 0B       		.byte	(.L40-.L42)/2
 1432 005f 0B       		.byte	(.L40-.L42)/2
 1433 0060 0B       		.byte	(.L40-.L42)/2
 1434 0061 0B       		.byte	(.L40-.L42)/2
 1435 0062 0B       		.byte	(.L40-.L42)/2
 1436 0063 0B       		.byte	(.L40-.L42)/2
 1437 0064 0B       		.byte	(.L40-.L42)/2
 1438 0065 1B       		.byte	(.L46-.L42)/2
 1439 0066 18       		.byte	(.L45-.L42)/2
 1440 0067 15       		.byte	(.L44-.L42)/2
 1441 0068 12       		.byte	(.L43-.L42)/2
 1442 0069 0F       		.byte	(.L41-.L42)/2
 1443              		.p2align 1
 1444              	.L40:
 361:D:/fchai/work/i-cube/I-CUBE-HUAWEI/Drivers/BSP/Components/lps22hh\lps22hh_reg.c ****       case LPS22HH_POWER_DOWN:
 362:D:/fchai/work/i-cube/I-CUBE-HUAWEI/Drivers/BSP/Components/lps22hh\lps22hh_reg.c ****         *val = LPS22HH_POWER_DOWN;
 363:D:/fchai/work/i-cube/I-CUBE-HUAWEI/Drivers/BSP/Components/lps22hh\lps22hh_reg.c ****         break;
 364:D:/fchai/work/i-cube/I-CUBE-HUAWEI/Drivers/BSP/Components/lps22hh\lps22hh_reg.c ****       case LPS22HH_ONE_SHOOT:
 365:D:/fchai/work/i-cube/I-CUBE-HUAWEI/Drivers/BSP/Components/lps22hh\lps22hh_reg.c ****         *val = LPS22HH_ONE_SHOOT;
 366:D:/fchai/work/i-cube/I-CUBE-HUAWEI/Drivers/BSP/Components/lps22hh\lps22hh_reg.c ****         break;
 367:D:/fchai/work/i-cube/I-CUBE-HUAWEI/Drivers/BSP/Components/lps22hh\lps22hh_reg.c ****       case LPS22HH_1_Hz:
 368:D:/fchai/work/i-cube/I-CUBE-HUAWEI/Drivers/BSP/Components/lps22hh\lps22hh_reg.c ****         *val = LPS22HH_1_Hz;
 369:D:/fchai/work/i-cube/I-CUBE-HUAWEI/Drivers/BSP/Components/lps22hh\lps22hh_reg.c ****         break;
 370:D:/fchai/work/i-cube/I-CUBE-HUAWEI/Drivers/BSP/Components/lps22hh\lps22hh_reg.c ****       case LPS22HH_10_Hz:
 371:D:/fchai/work/i-cube/I-CUBE-HUAWEI/Drivers/BSP/Components/lps22hh\lps22hh_reg.c ****         *val = LPS22HH_10_Hz;
 372:D:/fchai/work/i-cube/I-CUBE-HUAWEI/Drivers/BSP/Components/lps22hh\lps22hh_reg.c ****         break;
 373:D:/fchai/work/i-cube/I-CUBE-HUAWEI/Drivers/BSP/Components/lps22hh\lps22hh_reg.c ****       case LPS22HH_25_Hz:
 374:D:/fchai/work/i-cube/I-CUBE-HUAWEI/Drivers/BSP/Components/lps22hh\lps22hh_reg.c ****         *val = LPS22HH_25_Hz;
 375:D:/fchai/work/i-cube/I-CUBE-HUAWEI/Drivers/BSP/Components/lps22hh\lps22hh_reg.c ****         break;
 376:D:/fchai/work/i-cube/I-CUBE-HUAWEI/Drivers/BSP/Components/lps22hh\lps22hh_reg.c ****       case LPS22HH_50_Hz:
 377:D:/fchai/work/i-cube/I-CUBE-HUAWEI/Drivers/BSP/Components/lps22hh\lps22hh_reg.c ****         *val = LPS22HH_50_Hz;
 378:D:/fchai/work/i-cube/I-CUBE-HUAWEI/Drivers/BSP/Components/lps22hh\lps22hh_reg.c ****         break;
 379:D:/fchai/work/i-cube/I-CUBE-HUAWEI/Drivers/BSP/Components/lps22hh\lps22hh_reg.c ****       case LPS22HH_75_Hz:
 380:D:/fchai/work/i-cube/I-CUBE-HUAWEI/Drivers/BSP/Components/lps22hh\lps22hh_reg.c ****         *val = LPS22HH_75_Hz;
 381:D:/fchai/work/i-cube/I-CUBE-HUAWEI/Drivers/BSP/Components/lps22hh\lps22hh_reg.c ****         break;
 382:D:/fchai/work/i-cube/I-CUBE-HUAWEI/Drivers/BSP/Components/lps22hh\lps22hh_reg.c ****       case LPS22HH_1_Hz_LOW_NOISE:
 383:D:/fchai/work/i-cube/I-CUBE-HUAWEI/Drivers/BSP/Components/lps22hh\lps22hh_reg.c ****         *val = LPS22HH_1_Hz_LOW_NOISE;
 384:D:/fchai/work/i-cube/I-CUBE-HUAWEI/Drivers/BSP/Components/lps22hh\lps22hh_reg.c ****         break;
 385:D:/fchai/work/i-cube/I-CUBE-HUAWEI/Drivers/BSP/Components/lps22hh\lps22hh_reg.c ****       case LPS22HH_10_Hz_LOW_NOISE:
 386:D:/fchai/work/i-cube/I-CUBE-HUAWEI/Drivers/BSP/Components/lps22hh\lps22hh_reg.c ****         *val = LPS22HH_10_Hz_LOW_NOISE;
 387:D:/fchai/work/i-cube/I-CUBE-HUAWEI/Drivers/BSP/Components/lps22hh\lps22hh_reg.c ****         break;
 388:D:/fchai/work/i-cube/I-CUBE-HUAWEI/Drivers/BSP/Components/lps22hh\lps22hh_reg.c ****       case LPS22HH_25_Hz_LOW_NOISE:
 389:D:/fchai/work/i-cube/I-CUBE-HUAWEI/Drivers/BSP/Components/lps22hh\lps22hh_reg.c ****         *val = LPS22HH_25_Hz_LOW_NOISE;
 390:D:/fchai/work/i-cube/I-CUBE-HUAWEI/Drivers/BSP/Components/lps22hh\lps22hh_reg.c ****         break;
 391:D:/fchai/work/i-cube/I-CUBE-HUAWEI/Drivers/BSP/Components/lps22hh\lps22hh_reg.c ****       case LPS22HH_50_Hz_LOW_NOISE:
 392:D:/fchai/work/i-cube/I-CUBE-HUAWEI/Drivers/BSP/Components/lps22hh\lps22hh_reg.c ****         *val = LPS22HH_50_Hz_LOW_NOISE;
 393:D:/fchai/work/i-cube/I-CUBE-HUAWEI/Drivers/BSP/Components/lps22hh\lps22hh_reg.c ****         break;
 394:D:/fchai/work/i-cube/I-CUBE-HUAWEI/Drivers/BSP/Components/lps22hh\lps22hh_reg.c ****       case LPS22HH_75_Hz_LOW_NOISE:
 395:D:/fchai/work/i-cube/I-CUBE-HUAWEI/Drivers/BSP/Components/lps22hh\lps22hh_reg.c ****         *val = LPS22HH_75_Hz_LOW_NOISE;
 396:D:/fchai/work/i-cube/I-CUBE-HUAWEI/Drivers/BSP/Components/lps22hh\lps22hh_reg.c ****         break;
 397:D:/fchai/work/i-cube/I-CUBE-HUAWEI/Drivers/BSP/Components/lps22hh\lps22hh_reg.c ****       case LPS22HH_100_Hz:
 398:D:/fchai/work/i-cube/I-CUBE-HUAWEI/Drivers/BSP/Components/lps22hh\lps22hh_reg.c ****         *val = LPS22HH_100_Hz;
 399:D:/fchai/work/i-cube/I-CUBE-HUAWEI/Drivers/BSP/Components/lps22hh\lps22hh_reg.c ****         break;
 400:D:/fchai/work/i-cube/I-CUBE-HUAWEI/Drivers/BSP/Components/lps22hh\lps22hh_reg.c ****       case LPS22HH_200_Hz:
 401:D:/fchai/work/i-cube/I-CUBE-HUAWEI/Drivers/BSP/Components/lps22hh\lps22hh_reg.c ****         *val = LPS22HH_200_Hz;
 402:D:/fchai/work/i-cube/I-CUBE-HUAWEI/Drivers/BSP/Components/lps22hh\lps22hh_reg.c ****         break;
ARM GAS  T:\msys\tmp\ccdfMMY7.s 			page 37


 403:D:/fchai/work/i-cube/I-CUBE-HUAWEI/Drivers/BSP/Components/lps22hh\lps22hh_reg.c ****       default:
 404:D:/fchai/work/i-cube/I-CUBE-HUAWEI/Drivers/BSP/Components/lps22hh\lps22hh_reg.c ****         *val = LPS22HH_POWER_DOWN;
 1445              		.loc 1 404 9 view .LVU411
 1446              		.loc 1 404 14 is_stmt 0 view .LVU412
 1447 006a 0023     		movs	r3, #0
 1448 006c 2370     		strb	r3, [r4]
 405:D:/fchai/work/i-cube/I-CUBE-HUAWEI/Drivers/BSP/Components/lps22hh\lps22hh_reg.c ****         break;
 1449              		.loc 1 405 9 is_stmt 1 view .LVU413
 406:D:/fchai/work/i-cube/I-CUBE-HUAWEI/Drivers/BSP/Components/lps22hh\lps22hh_reg.c ****     }
 407:D:/fchai/work/i-cube/I-CUBE-HUAWEI/Drivers/BSP/Components/lps22hh\lps22hh_reg.c ****   }
 408:D:/fchai/work/i-cube/I-CUBE-HUAWEI/Drivers/BSP/Components/lps22hh\lps22hh_reg.c ****   return ret;
 1450              		.loc 1 408 3 view .LVU414
 1451              	.L38:
 409:D:/fchai/work/i-cube/I-CUBE-HUAWEI/Drivers/BSP/Components/lps22hh\lps22hh_reg.c **** }
 1452              		.loc 1 409 1 is_stmt 0 view .LVU415
 1453 006e 02B0     		add	sp, sp, #8
 1454              	.LCFI39:
 1455              		.cfi_remember_state
 1456              		.cfi_def_cfa_offset 16
 1457              		@ sp needed
 1458 0070 70BD     		pop	{r4, r5, r6, pc}
 1459              	.LVL117:
 1460              	.L41:
 1461              	.LCFI40:
 1462              		.cfi_restore_state
 395:D:/fchai/work/i-cube/I-CUBE-HUAWEI/Drivers/BSP/Components/lps22hh\lps22hh_reg.c ****         break;
 1463              		.loc 1 395 9 is_stmt 1 view .LVU416
 395:D:/fchai/work/i-cube/I-CUBE-HUAWEI/Drivers/BSP/Components/lps22hh\lps22hh_reg.c ****         break;
 1464              		.loc 1 395 14 is_stmt 0 view .LVU417
 1465 0072 1523     		movs	r3, #21
 1466 0074 2370     		strb	r3, [r4]
 396:D:/fchai/work/i-cube/I-CUBE-HUAWEI/Drivers/BSP/Components/lps22hh\lps22hh_reg.c ****       case LPS22HH_100_Hz:
 1467              		.loc 1 396 9 is_stmt 1 view .LVU418
 1468 0076 FAE7     		b	.L38
 1469              	.L43:
 392:D:/fchai/work/i-cube/I-CUBE-HUAWEI/Drivers/BSP/Components/lps22hh\lps22hh_reg.c ****         break;
 1470              		.loc 1 392 9 view .LVU419
 392:D:/fchai/work/i-cube/I-CUBE-HUAWEI/Drivers/BSP/Components/lps22hh\lps22hh_reg.c ****         break;
 1471              		.loc 1 392 14 is_stmt 0 view .LVU420
 1472 0078 1423     		movs	r3, #20
 1473 007a 2370     		strb	r3, [r4]
 393:D:/fchai/work/i-cube/I-CUBE-HUAWEI/Drivers/BSP/Components/lps22hh\lps22hh_reg.c ****       case LPS22HH_75_Hz_LOW_NOISE:
 1474              		.loc 1 393 9 is_stmt 1 view .LVU421
 1475 007c F7E7     		b	.L38
 1476              	.L44:
 389:D:/fchai/work/i-cube/I-CUBE-HUAWEI/Drivers/BSP/Components/lps22hh\lps22hh_reg.c ****         break;
 1477              		.loc 1 389 9 view .LVU422
 389:D:/fchai/work/i-cube/I-CUBE-HUAWEI/Drivers/BSP/Components/lps22hh\lps22hh_reg.c ****         break;
 1478              		.loc 1 389 14 is_stmt 0 view .LVU423
 1479 007e 1323     		movs	r3, #19
 1480 0080 2370     		strb	r3, [r4]
 390:D:/fchai/work/i-cube/I-CUBE-HUAWEI/Drivers/BSP/Components/lps22hh\lps22hh_reg.c ****       case LPS22HH_50_Hz_LOW_NOISE:
 1481              		.loc 1 390 9 is_stmt 1 view .LVU424
 1482 0082 F4E7     		b	.L38
 1483              	.L45:
 386:D:/fchai/work/i-cube/I-CUBE-HUAWEI/Drivers/BSP/Components/lps22hh\lps22hh_reg.c ****         break;
 1484              		.loc 1 386 9 view .LVU425
ARM GAS  T:\msys\tmp\ccdfMMY7.s 			page 38


 386:D:/fchai/work/i-cube/I-CUBE-HUAWEI/Drivers/BSP/Components/lps22hh\lps22hh_reg.c ****         break;
 1485              		.loc 1 386 14 is_stmt 0 view .LVU426
 1486 0084 1223     		movs	r3, #18
 1487 0086 2370     		strb	r3, [r4]
 387:D:/fchai/work/i-cube/I-CUBE-HUAWEI/Drivers/BSP/Components/lps22hh\lps22hh_reg.c ****       case LPS22HH_25_Hz_LOW_NOISE:
 1488              		.loc 1 387 9 is_stmt 1 view .LVU427
 1489 0088 F1E7     		b	.L38
 1490              	.L46:
 383:D:/fchai/work/i-cube/I-CUBE-HUAWEI/Drivers/BSP/Components/lps22hh\lps22hh_reg.c ****         break;
 1491              		.loc 1 383 9 view .LVU428
 383:D:/fchai/work/i-cube/I-CUBE-HUAWEI/Drivers/BSP/Components/lps22hh\lps22hh_reg.c ****         break;
 1492              		.loc 1 383 14 is_stmt 0 view .LVU429
 1493 008a 1123     		movs	r3, #17
 1494 008c 2370     		strb	r3, [r4]
 384:D:/fchai/work/i-cube/I-CUBE-HUAWEI/Drivers/BSP/Components/lps22hh\lps22hh_reg.c ****       case LPS22HH_10_Hz_LOW_NOISE:
 1495              		.loc 1 384 9 is_stmt 1 view .LVU430
 1496 008e EEE7     		b	.L38
 1497              	.L47:
 365:D:/fchai/work/i-cube/I-CUBE-HUAWEI/Drivers/BSP/Components/lps22hh\lps22hh_reg.c ****         break;
 1498              		.loc 1 365 9 view .LVU431
 365:D:/fchai/work/i-cube/I-CUBE-HUAWEI/Drivers/BSP/Components/lps22hh\lps22hh_reg.c ****         break;
 1499              		.loc 1 365 14 is_stmt 0 view .LVU432
 1500 0090 0823     		movs	r3, #8
 1501 0092 2370     		strb	r3, [r4]
 366:D:/fchai/work/i-cube/I-CUBE-HUAWEI/Drivers/BSP/Components/lps22hh\lps22hh_reg.c ****       case LPS22HH_1_Hz:
 1502              		.loc 1 366 9 is_stmt 1 view .LVU433
 1503 0094 EBE7     		b	.L38
 1504              	.L48:
 401:D:/fchai/work/i-cube/I-CUBE-HUAWEI/Drivers/BSP/Components/lps22hh\lps22hh_reg.c ****         break;
 1505              		.loc 1 401 9 view .LVU434
 401:D:/fchai/work/i-cube/I-CUBE-HUAWEI/Drivers/BSP/Components/lps22hh\lps22hh_reg.c ****         break;
 1506              		.loc 1 401 14 is_stmt 0 view .LVU435
 1507 0096 0723     		movs	r3, #7
 1508 0098 2370     		strb	r3, [r4]
 402:D:/fchai/work/i-cube/I-CUBE-HUAWEI/Drivers/BSP/Components/lps22hh\lps22hh_reg.c ****       default:
 1509              		.loc 1 402 9 is_stmt 1 view .LVU436
 1510 009a E8E7     		b	.L38
 1511              	.L49:
 398:D:/fchai/work/i-cube/I-CUBE-HUAWEI/Drivers/BSP/Components/lps22hh\lps22hh_reg.c ****         break;
 1512              		.loc 1 398 9 view .LVU437
 398:D:/fchai/work/i-cube/I-CUBE-HUAWEI/Drivers/BSP/Components/lps22hh\lps22hh_reg.c ****         break;
 1513              		.loc 1 398 14 is_stmt 0 view .LVU438
 1514 009c 0623     		movs	r3, #6
 1515 009e 2370     		strb	r3, [r4]
 399:D:/fchai/work/i-cube/I-CUBE-HUAWEI/Drivers/BSP/Components/lps22hh\lps22hh_reg.c ****       case LPS22HH_200_Hz:
 1516              		.loc 1 399 9 is_stmt 1 view .LVU439
 1517 00a0 E5E7     		b	.L38
 1518              	.L50:
 380:D:/fchai/work/i-cube/I-CUBE-HUAWEI/Drivers/BSP/Components/lps22hh\lps22hh_reg.c ****         break;
 1519              		.loc 1 380 9 view .LVU440
 380:D:/fchai/work/i-cube/I-CUBE-HUAWEI/Drivers/BSP/Components/lps22hh\lps22hh_reg.c ****         break;
 1520              		.loc 1 380 14 is_stmt 0 view .LVU441
 1521 00a2 0523     		movs	r3, #5
 1522 00a4 2370     		strb	r3, [r4]
 381:D:/fchai/work/i-cube/I-CUBE-HUAWEI/Drivers/BSP/Components/lps22hh\lps22hh_reg.c ****       case LPS22HH_1_Hz_LOW_NOISE:
 1523              		.loc 1 381 9 is_stmt 1 view .LVU442
 1524 00a6 E2E7     		b	.L38
ARM GAS  T:\msys\tmp\ccdfMMY7.s 			page 39


 1525              	.L51:
 377:D:/fchai/work/i-cube/I-CUBE-HUAWEI/Drivers/BSP/Components/lps22hh\lps22hh_reg.c ****         break;
 1526              		.loc 1 377 9 view .LVU443
 377:D:/fchai/work/i-cube/I-CUBE-HUAWEI/Drivers/BSP/Components/lps22hh\lps22hh_reg.c ****         break;
 1527              		.loc 1 377 14 is_stmt 0 view .LVU444
 1528 00a8 0423     		movs	r3, #4
 1529 00aa 2370     		strb	r3, [r4]
 378:D:/fchai/work/i-cube/I-CUBE-HUAWEI/Drivers/BSP/Components/lps22hh\lps22hh_reg.c ****       case LPS22HH_75_Hz:
 1530              		.loc 1 378 9 is_stmt 1 view .LVU445
 1531 00ac DFE7     		b	.L38
 1532              	.L52:
 374:D:/fchai/work/i-cube/I-CUBE-HUAWEI/Drivers/BSP/Components/lps22hh\lps22hh_reg.c ****         break;
 1533              		.loc 1 374 9 view .LVU446
 374:D:/fchai/work/i-cube/I-CUBE-HUAWEI/Drivers/BSP/Components/lps22hh\lps22hh_reg.c ****         break;
 1534              		.loc 1 374 14 is_stmt 0 view .LVU447
 1535 00ae 0323     		movs	r3, #3
 1536 00b0 2370     		strb	r3, [r4]
 375:D:/fchai/work/i-cube/I-CUBE-HUAWEI/Drivers/BSP/Components/lps22hh\lps22hh_reg.c ****       case LPS22HH_50_Hz:
 1537              		.loc 1 375 9 is_stmt 1 view .LVU448
 1538 00b2 DCE7     		b	.L38
 1539              	.L53:
 371:D:/fchai/work/i-cube/I-CUBE-HUAWEI/Drivers/BSP/Components/lps22hh\lps22hh_reg.c ****         break;
 1540              		.loc 1 371 9 view .LVU449
 371:D:/fchai/work/i-cube/I-CUBE-HUAWEI/Drivers/BSP/Components/lps22hh\lps22hh_reg.c ****         break;
 1541              		.loc 1 371 14 is_stmt 0 view .LVU450
 1542 00b4 0223     		movs	r3, #2
 1543 00b6 2370     		strb	r3, [r4]
 372:D:/fchai/work/i-cube/I-CUBE-HUAWEI/Drivers/BSP/Components/lps22hh\lps22hh_reg.c ****       case LPS22HH_25_Hz:
 1544              		.loc 1 372 9 is_stmt 1 view .LVU451
 1545 00b8 D9E7     		b	.L38
 1546              	.L54:
 368:D:/fchai/work/i-cube/I-CUBE-HUAWEI/Drivers/BSP/Components/lps22hh\lps22hh_reg.c ****         break;
 1547              		.loc 1 368 9 view .LVU452
 368:D:/fchai/work/i-cube/I-CUBE-HUAWEI/Drivers/BSP/Components/lps22hh\lps22hh_reg.c ****         break;
 1548              		.loc 1 368 14 is_stmt 0 view .LVU453
 1549 00ba 0123     		movs	r3, #1
 1550 00bc 2370     		strb	r3, [r4]
 369:D:/fchai/work/i-cube/I-CUBE-HUAWEI/Drivers/BSP/Components/lps22hh\lps22hh_reg.c ****       case LPS22HH_10_Hz:
 1551              		.loc 1 369 9 is_stmt 1 view .LVU454
 1552 00be D6E7     		b	.L38
 1553              		.cfi_endproc
 1554              	.LFE15:
 1556              		.section	.text.lps22hh_pressure_ref_set,"ax",%progbits
 1557              		.align	1
 1558              		.p2align 2,,3
 1559              		.global	lps22hh_pressure_ref_set
 1560              		.syntax unified
 1561              		.thumb
 1562              		.thumb_func
 1563              		.fpu fpv4-sp-d16
 1565              	lps22hh_pressure_ref_set:
 1566              	.LVL118:
 1567              	.LFB16:
 410:D:/fchai/work/i-cube/I-CUBE-HUAWEI/Drivers/BSP/Components/lps22hh\lps22hh_reg.c **** 
 411:D:/fchai/work/i-cube/I-CUBE-HUAWEI/Drivers/BSP/Components/lps22hh\lps22hh_reg.c **** /**
 412:D:/fchai/work/i-cube/I-CUBE-HUAWEI/Drivers/BSP/Components/lps22hh\lps22hh_reg.c ****   * @brief  The Reference pressure value is a 16-bit data
 413:D:/fchai/work/i-cube/I-CUBE-HUAWEI/Drivers/BSP/Components/lps22hh\lps22hh_reg.c ****   *         expressed as 2s complement. The value is used
ARM GAS  T:\msys\tmp\ccdfMMY7.s 			page 40


 414:D:/fchai/work/i-cube/I-CUBE-HUAWEI/Drivers/BSP/Components/lps22hh\lps22hh_reg.c ****   *         when AUTOZERO or AUTORIFP function is enabled.[set]
 415:D:/fchai/work/i-cube/I-CUBE-HUAWEI/Drivers/BSP/Components/lps22hh\lps22hh_reg.c ****   *
 416:D:/fchai/work/i-cube/I-CUBE-HUAWEI/Drivers/BSP/Components/lps22hh\lps22hh_reg.c ****   * @param  ctx      read / write interface definitions
 417:D:/fchai/work/i-cube/I-CUBE-HUAWEI/Drivers/BSP/Components/lps22hh\lps22hh_reg.c ****   * @param  buff     buffer that contains data to write
 418:D:/fchai/work/i-cube/I-CUBE-HUAWEI/Drivers/BSP/Components/lps22hh\lps22hh_reg.c ****   * @retval          interface status (MANDATORY: return 0 -> no Error)
 419:D:/fchai/work/i-cube/I-CUBE-HUAWEI/Drivers/BSP/Components/lps22hh\lps22hh_reg.c ****   *
 420:D:/fchai/work/i-cube/I-CUBE-HUAWEI/Drivers/BSP/Components/lps22hh\lps22hh_reg.c ****   */
 421:D:/fchai/work/i-cube/I-CUBE-HUAWEI/Drivers/BSP/Components/lps22hh\lps22hh_reg.c **** int32_t lps22hh_pressure_ref_set(stmdev_ctx_t *ctx, uint8_t *buff)
 422:D:/fchai/work/i-cube/I-CUBE-HUAWEI/Drivers/BSP/Components/lps22hh\lps22hh_reg.c **** {
 1568              		.loc 1 422 1 view -0
 1569              		.cfi_startproc
 1570              		@ args = 0, pretend = 0, frame = 0
 1571              		@ frame_needed = 0, uses_anonymous_args = 0
 1572              		@ link register save eliminated.
 423:D:/fchai/work/i-cube/I-CUBE-HUAWEI/Drivers/BSP/Components/lps22hh\lps22hh_reg.c ****   int32_t ret;
 1573              		.loc 1 423 3 view .LVU456
 424:D:/fchai/work/i-cube/I-CUBE-HUAWEI/Drivers/BSP/Components/lps22hh\lps22hh_reg.c ****   ret = lps22hh_write_reg(ctx, LPS22HH_REF_P_L, buff, 2);
 1574              		.loc 1 424 3 view .LVU457
 422:D:/fchai/work/i-cube/I-CUBE-HUAWEI/Drivers/BSP/Components/lps22hh\lps22hh_reg.c ****   int32_t ret;
 1575              		.loc 1 422 1 is_stmt 0 view .LVU458
 1576 0000 10B4     		push	{r4}
 1577              	.LCFI41:
 1578              		.cfi_def_cfa_offset 4
 1579              		.cfi_offset 4, -4
 1580              	.LBB298:
 1581              	.LBB299:
  71:D:/fchai/work/i-cube/I-CUBE-HUAWEI/Drivers/BSP/Components/lps22hh\lps22hh_reg.c ****   return ret;
 1582              		.loc 1 71 9 view .LVU459
 1583 0002 0468     		ldr	r4, [r0]
 1584 0004 8068     		ldr	r0, [r0, #8]
 1585              	.LVL119:
  71:D:/fchai/work/i-cube/I-CUBE-HUAWEI/Drivers/BSP/Components/lps22hh\lps22hh_reg.c ****   return ret;
 1586              		.loc 1 71 9 view .LVU460
 1587              	.LBE299:
 1588              	.LBE298:
 422:D:/fchai/work/i-cube/I-CUBE-HUAWEI/Drivers/BSP/Components/lps22hh\lps22hh_reg.c ****   int32_t ret;
 1589              		.loc 1 422 1 view .LVU461
 1590 0006 0A46     		mov	r2, r1
 1591              	.LVL120:
 1592              	.LBB302:
 1593              	.LBI298:
  67:D:/fchai/work/i-cube/I-CUBE-HUAWEI/Drivers/BSP/Components/lps22hh\lps22hh_reg.c ****                            uint16_t len)
 1594              		.loc 1 67 9 is_stmt 1 view .LVU462
 1595              	.LBB300:
  70:D:/fchai/work/i-cube/I-CUBE-HUAWEI/Drivers/BSP/Components/lps22hh\lps22hh_reg.c ****   ret = ctx->write_reg(ctx->handle, reg, data, len);
 1596              		.loc 1 70 3 view .LVU463
  71:D:/fchai/work/i-cube/I-CUBE-HUAWEI/Drivers/BSP/Components/lps22hh\lps22hh_reg.c ****   return ret;
 1597              		.loc 1 71 3 view .LVU464
  71:D:/fchai/work/i-cube/I-CUBE-HUAWEI/Drivers/BSP/Components/lps22hh\lps22hh_reg.c ****   return ret;
 1598              		.loc 1 71 9 is_stmt 0 view .LVU465
 1599 0008 A446     		mov	ip, r4
 1600 000a 0223     		movs	r3, #2
 1601              	.LBE300:
 1602              	.LBE302:
 425:D:/fchai/work/i-cube/I-CUBE-HUAWEI/Drivers/BSP/Components/lps22hh\lps22hh_reg.c ****   return ret;
 426:D:/fchai/work/i-cube/I-CUBE-HUAWEI/Drivers/BSP/Components/lps22hh\lps22hh_reg.c **** }
 1603              		.loc 1 426 1 view .LVU466
ARM GAS  T:\msys\tmp\ccdfMMY7.s 			page 41


 1604 000c 5DF8044B 		ldr	r4, [sp], #4
 1605              	.LCFI42:
 1606              		.cfi_restore 4
 1607              		.cfi_def_cfa_offset 0
 1608              	.LBB303:
 1609              	.LBB301:
  71:D:/fchai/work/i-cube/I-CUBE-HUAWEI/Drivers/BSP/Components/lps22hh\lps22hh_reg.c ****   return ret;
 1610              		.loc 1 71 9 view .LVU467
 1611 0010 1521     		movs	r1, #21
 1612              	.LVL121:
  71:D:/fchai/work/i-cube/I-CUBE-HUAWEI/Drivers/BSP/Components/lps22hh\lps22hh_reg.c ****   return ret;
 1613              		.loc 1 71 9 view .LVU468
 1614 0012 6047     		bx	ip
 1615              	.LVL122:
  71:D:/fchai/work/i-cube/I-CUBE-HUAWEI/Drivers/BSP/Components/lps22hh\lps22hh_reg.c ****   return ret;
 1616              		.loc 1 71 9 view .LVU469
 1617              	.LBE301:
 1618              	.LBE303:
 1619              		.cfi_endproc
 1620              	.LFE16:
 1622              		.section	.text.lps22hh_pressure_ref_get,"ax",%progbits
 1623              		.align	1
 1624              		.p2align 2,,3
 1625              		.global	lps22hh_pressure_ref_get
 1626              		.syntax unified
 1627              		.thumb
 1628              		.thumb_func
 1629              		.fpu fpv4-sp-d16
 1631              	lps22hh_pressure_ref_get:
 1632              	.LVL123:
 1633              	.LFB17:
 427:D:/fchai/work/i-cube/I-CUBE-HUAWEI/Drivers/BSP/Components/lps22hh\lps22hh_reg.c **** 
 428:D:/fchai/work/i-cube/I-CUBE-HUAWEI/Drivers/BSP/Components/lps22hh\lps22hh_reg.c **** /**
 429:D:/fchai/work/i-cube/I-CUBE-HUAWEI/Drivers/BSP/Components/lps22hh\lps22hh_reg.c ****   * @brief  The Reference pressure value is a 16-bit
 430:D:/fchai/work/i-cube/I-CUBE-HUAWEI/Drivers/BSP/Components/lps22hh\lps22hh_reg.c ****   *         data expressed as 2s complement.
 431:D:/fchai/work/i-cube/I-CUBE-HUAWEI/Drivers/BSP/Components/lps22hh\lps22hh_reg.c ****   *         The value is used when AUTOZERO or AUTORIFP
 432:D:/fchai/work/i-cube/I-CUBE-HUAWEI/Drivers/BSP/Components/lps22hh\lps22hh_reg.c ****   *         function is enabled.[get]
 433:D:/fchai/work/i-cube/I-CUBE-HUAWEI/Drivers/BSP/Components/lps22hh\lps22hh_reg.c ****   *
 434:D:/fchai/work/i-cube/I-CUBE-HUAWEI/Drivers/BSP/Components/lps22hh\lps22hh_reg.c ****   * @param  ctx      read / write interface definitions
 435:D:/fchai/work/i-cube/I-CUBE-HUAWEI/Drivers/BSP/Components/lps22hh\lps22hh_reg.c ****   * @param  buff     buffer that stores data read
 436:D:/fchai/work/i-cube/I-CUBE-HUAWEI/Drivers/BSP/Components/lps22hh\lps22hh_reg.c ****   * @retval          interface status (MANDATORY: return 0 -> no Error)
 437:D:/fchai/work/i-cube/I-CUBE-HUAWEI/Drivers/BSP/Components/lps22hh\lps22hh_reg.c ****   *
 438:D:/fchai/work/i-cube/I-CUBE-HUAWEI/Drivers/BSP/Components/lps22hh\lps22hh_reg.c ****   */
 439:D:/fchai/work/i-cube/I-CUBE-HUAWEI/Drivers/BSP/Components/lps22hh\lps22hh_reg.c **** int32_t lps22hh_pressure_ref_get(stmdev_ctx_t *ctx, uint8_t *buff)
 440:D:/fchai/work/i-cube/I-CUBE-HUAWEI/Drivers/BSP/Components/lps22hh\lps22hh_reg.c **** {
 1634              		.loc 1 440 1 is_stmt 1 view -0
 1635              		.cfi_startproc
 1636              		@ args = 0, pretend = 0, frame = 0
 1637              		@ frame_needed = 0, uses_anonymous_args = 0
 1638              		@ link register save eliminated.
 441:D:/fchai/work/i-cube/I-CUBE-HUAWEI/Drivers/BSP/Components/lps22hh\lps22hh_reg.c ****   int32_t ret;
 1639              		.loc 1 441 3 view .LVU471
 442:D:/fchai/work/i-cube/I-CUBE-HUAWEI/Drivers/BSP/Components/lps22hh\lps22hh_reg.c ****   ret =  lps22hh_read_reg(ctx, LPS22HH_REF_P_L, buff, 2);
 1640              		.loc 1 442 3 view .LVU472
 440:D:/fchai/work/i-cube/I-CUBE-HUAWEI/Drivers/BSP/Components/lps22hh\lps22hh_reg.c ****   int32_t ret;
 1641              		.loc 1 440 1 is_stmt 0 view .LVU473
 1642 0000 10B4     		push	{r4}
ARM GAS  T:\msys\tmp\ccdfMMY7.s 			page 42


 1643              	.LCFI43:
 1644              		.cfi_def_cfa_offset 4
 1645              		.cfi_offset 4, -4
 1646              	.LBB304:
 1647              	.LBB305:
  53:D:/fchai/work/i-cube/I-CUBE-HUAWEI/Drivers/BSP/Components/lps22hh\lps22hh_reg.c ****   return ret;
 1648              		.loc 1 53 9 view .LVU474
 1649 0002 D0E90140 		ldrd	r4, r0, [r0, #4]
 1650              	.LVL124:
  53:D:/fchai/work/i-cube/I-CUBE-HUAWEI/Drivers/BSP/Components/lps22hh\lps22hh_reg.c ****   return ret;
 1651              		.loc 1 53 9 view .LVU475
 1652              	.LBE305:
 1653              	.LBE304:
 440:D:/fchai/work/i-cube/I-CUBE-HUAWEI/Drivers/BSP/Components/lps22hh\lps22hh_reg.c ****   int32_t ret;
 1654              		.loc 1 440 1 view .LVU476
 1655 0006 0A46     		mov	r2, r1
 1656              	.LVL125:
 1657              	.LBB308:
 1658              	.LBI304:
  49:D:/fchai/work/i-cube/I-CUBE-HUAWEI/Drivers/BSP/Components/lps22hh\lps22hh_reg.c ****                          uint16_t len)
 1659              		.loc 1 49 9 is_stmt 1 view .LVU477
 1660              	.LBB306:
  52:D:/fchai/work/i-cube/I-CUBE-HUAWEI/Drivers/BSP/Components/lps22hh\lps22hh_reg.c ****   ret = ctx->read_reg(ctx->handle, reg, data, len);
 1661              		.loc 1 52 3 view .LVU478
  53:D:/fchai/work/i-cube/I-CUBE-HUAWEI/Drivers/BSP/Components/lps22hh\lps22hh_reg.c ****   return ret;
 1662              		.loc 1 53 3 view .LVU479
  53:D:/fchai/work/i-cube/I-CUBE-HUAWEI/Drivers/BSP/Components/lps22hh\lps22hh_reg.c ****   return ret;
 1663              		.loc 1 53 9 is_stmt 0 view .LVU480
 1664 0008 A446     		mov	ip, r4
 1665 000a 0223     		movs	r3, #2
 1666              	.LBE306:
 1667              	.LBE308:
 443:D:/fchai/work/i-cube/I-CUBE-HUAWEI/Drivers/BSP/Components/lps22hh\lps22hh_reg.c ****   return ret;
 444:D:/fchai/work/i-cube/I-CUBE-HUAWEI/Drivers/BSP/Components/lps22hh\lps22hh_reg.c **** }
 1668              		.loc 1 444 1 view .LVU481
 1669 000c 5DF8044B 		ldr	r4, [sp], #4
 1670              	.LCFI44:
 1671              		.cfi_restore 4
 1672              		.cfi_def_cfa_offset 0
 1673              	.LBB309:
 1674              	.LBB307:
  53:D:/fchai/work/i-cube/I-CUBE-HUAWEI/Drivers/BSP/Components/lps22hh\lps22hh_reg.c ****   return ret;
 1675              		.loc 1 53 9 view .LVU482
 1676 0010 1521     		movs	r1, #21
 1677              	.LVL126:
  53:D:/fchai/work/i-cube/I-CUBE-HUAWEI/Drivers/BSP/Components/lps22hh\lps22hh_reg.c ****   return ret;
 1678              		.loc 1 53 9 view .LVU483
 1679 0012 6047     		bx	ip
 1680              	.LVL127:
  53:D:/fchai/work/i-cube/I-CUBE-HUAWEI/Drivers/BSP/Components/lps22hh\lps22hh_reg.c ****   return ret;
 1681              		.loc 1 53 9 view .LVU484
 1682              	.LBE307:
 1683              	.LBE309:
 1684              		.cfi_endproc
 1685              	.LFE17:
 1687              		.section	.text.lps22hh_pressure_offset_set,"ax",%progbits
 1688              		.align	1
ARM GAS  T:\msys\tmp\ccdfMMY7.s 			page 43


 1689              		.p2align 2,,3
 1690              		.global	lps22hh_pressure_offset_set
 1691              		.syntax unified
 1692              		.thumb
 1693              		.thumb_func
 1694              		.fpu fpv4-sp-d16
 1696              	lps22hh_pressure_offset_set:
 1697              	.LVL128:
 1698              	.LFB18:
 445:D:/fchai/work/i-cube/I-CUBE-HUAWEI/Drivers/BSP/Components/lps22hh\lps22hh_reg.c **** 
 446:D:/fchai/work/i-cube/I-CUBE-HUAWEI/Drivers/BSP/Components/lps22hh\lps22hh_reg.c **** /**
 447:D:/fchai/work/i-cube/I-CUBE-HUAWEI/Drivers/BSP/Components/lps22hh\lps22hh_reg.c ****   * @brief  The pressure offset value is 16-bit data
 448:D:/fchai/work/i-cube/I-CUBE-HUAWEI/Drivers/BSP/Components/lps22hh\lps22hh_reg.c ****   *         that can be used to implement one-point
 449:D:/fchai/work/i-cube/I-CUBE-HUAWEI/Drivers/BSP/Components/lps22hh\lps22hh_reg.c ****   *         calibration (OPC) after soldering.[set]
 450:D:/fchai/work/i-cube/I-CUBE-HUAWEI/Drivers/BSP/Components/lps22hh\lps22hh_reg.c ****   *
 451:D:/fchai/work/i-cube/I-CUBE-HUAWEI/Drivers/BSP/Components/lps22hh\lps22hh_reg.c ****   * @param  ctx      read / write interface definitions
 452:D:/fchai/work/i-cube/I-CUBE-HUAWEI/Drivers/BSP/Components/lps22hh\lps22hh_reg.c ****   * @param  buff     buffer that contains data to write
 453:D:/fchai/work/i-cube/I-CUBE-HUAWEI/Drivers/BSP/Components/lps22hh\lps22hh_reg.c ****   * @retval          interface status (MANDATORY: return 0 -> no Error)
 454:D:/fchai/work/i-cube/I-CUBE-HUAWEI/Drivers/BSP/Components/lps22hh\lps22hh_reg.c ****   *
 455:D:/fchai/work/i-cube/I-CUBE-HUAWEI/Drivers/BSP/Components/lps22hh\lps22hh_reg.c ****   */
 456:D:/fchai/work/i-cube/I-CUBE-HUAWEI/Drivers/BSP/Components/lps22hh\lps22hh_reg.c **** int32_t lps22hh_pressure_offset_set(stmdev_ctx_t *ctx, uint8_t *buff)
 457:D:/fchai/work/i-cube/I-CUBE-HUAWEI/Drivers/BSP/Components/lps22hh\lps22hh_reg.c **** {
 1699              		.loc 1 457 1 is_stmt 1 view -0
 1700              		.cfi_startproc
 1701              		@ args = 0, pretend = 0, frame = 0
 1702              		@ frame_needed = 0, uses_anonymous_args = 0
 1703              		@ link register save eliminated.
 458:D:/fchai/work/i-cube/I-CUBE-HUAWEI/Drivers/BSP/Components/lps22hh\lps22hh_reg.c ****   int32_t ret;
 1704              		.loc 1 458 3 view .LVU486
 459:D:/fchai/work/i-cube/I-CUBE-HUAWEI/Drivers/BSP/Components/lps22hh\lps22hh_reg.c ****   ret =  lps22hh_write_reg(ctx, LPS22HH_RPDS_L, buff, 2);
 1705              		.loc 1 459 3 view .LVU487
 457:D:/fchai/work/i-cube/I-CUBE-HUAWEI/Drivers/BSP/Components/lps22hh\lps22hh_reg.c ****   int32_t ret;
 1706              		.loc 1 457 1 is_stmt 0 view .LVU488
 1707 0000 10B4     		push	{r4}
 1708              	.LCFI45:
 1709              		.cfi_def_cfa_offset 4
 1710              		.cfi_offset 4, -4
 1711              	.LBB310:
 1712              	.LBB311:
  71:D:/fchai/work/i-cube/I-CUBE-HUAWEI/Drivers/BSP/Components/lps22hh\lps22hh_reg.c ****   return ret;
 1713              		.loc 1 71 9 view .LVU489
 1714 0002 0468     		ldr	r4, [r0]
 1715 0004 8068     		ldr	r0, [r0, #8]
 1716              	.LVL129:
  71:D:/fchai/work/i-cube/I-CUBE-HUAWEI/Drivers/BSP/Components/lps22hh\lps22hh_reg.c ****   return ret;
 1717              		.loc 1 71 9 view .LVU490
 1718              	.LBE311:
 1719              	.LBE310:
 457:D:/fchai/work/i-cube/I-CUBE-HUAWEI/Drivers/BSP/Components/lps22hh\lps22hh_reg.c ****   int32_t ret;
 1720              		.loc 1 457 1 view .LVU491
 1721 0006 0A46     		mov	r2, r1
 1722              	.LVL130:
 1723              	.LBB314:
 1724              	.LBI310:
  67:D:/fchai/work/i-cube/I-CUBE-HUAWEI/Drivers/BSP/Components/lps22hh\lps22hh_reg.c ****                            uint16_t len)
 1725              		.loc 1 67 9 is_stmt 1 view .LVU492
 1726              	.LBB312:
ARM GAS  T:\msys\tmp\ccdfMMY7.s 			page 44


  70:D:/fchai/work/i-cube/I-CUBE-HUAWEI/Drivers/BSP/Components/lps22hh\lps22hh_reg.c ****   ret = ctx->write_reg(ctx->handle, reg, data, len);
 1727              		.loc 1 70 3 view .LVU493
  71:D:/fchai/work/i-cube/I-CUBE-HUAWEI/Drivers/BSP/Components/lps22hh\lps22hh_reg.c ****   return ret;
 1728              		.loc 1 71 3 view .LVU494
  71:D:/fchai/work/i-cube/I-CUBE-HUAWEI/Drivers/BSP/Components/lps22hh\lps22hh_reg.c ****   return ret;
 1729              		.loc 1 71 9 is_stmt 0 view .LVU495
 1730 0008 A446     		mov	ip, r4
 1731 000a 0223     		movs	r3, #2
 1732              	.LBE312:
 1733              	.LBE314:
 460:D:/fchai/work/i-cube/I-CUBE-HUAWEI/Drivers/BSP/Components/lps22hh\lps22hh_reg.c ****   return ret;
 461:D:/fchai/work/i-cube/I-CUBE-HUAWEI/Drivers/BSP/Components/lps22hh\lps22hh_reg.c **** }
 1734              		.loc 1 461 1 view .LVU496
 1735 000c 5DF8044B 		ldr	r4, [sp], #4
 1736              	.LCFI46:
 1737              		.cfi_restore 4
 1738              		.cfi_def_cfa_offset 0
 1739              	.LBB315:
 1740              	.LBB313:
  71:D:/fchai/work/i-cube/I-CUBE-HUAWEI/Drivers/BSP/Components/lps22hh\lps22hh_reg.c ****   return ret;
 1741              		.loc 1 71 9 view .LVU497
 1742 0010 1821     		movs	r1, #24
 1743              	.LVL131:
  71:D:/fchai/work/i-cube/I-CUBE-HUAWEI/Drivers/BSP/Components/lps22hh\lps22hh_reg.c ****   return ret;
 1744              		.loc 1 71 9 view .LVU498
 1745 0012 6047     		bx	ip
 1746              	.LVL132:
  71:D:/fchai/work/i-cube/I-CUBE-HUAWEI/Drivers/BSP/Components/lps22hh\lps22hh_reg.c ****   return ret;
 1747              		.loc 1 71 9 view .LVU499
 1748              	.LBE313:
 1749              	.LBE315:
 1750              		.cfi_endproc
 1751              	.LFE18:
 1753              		.section	.text.lps22hh_pressure_offset_get,"ax",%progbits
 1754              		.align	1
 1755              		.p2align 2,,3
 1756              		.global	lps22hh_pressure_offset_get
 1757              		.syntax unified
 1758              		.thumb
 1759              		.thumb_func
 1760              		.fpu fpv4-sp-d16
 1762              	lps22hh_pressure_offset_get:
 1763              	.LVL133:
 1764              	.LFB19:
 462:D:/fchai/work/i-cube/I-CUBE-HUAWEI/Drivers/BSP/Components/lps22hh\lps22hh_reg.c **** 
 463:D:/fchai/work/i-cube/I-CUBE-HUAWEI/Drivers/BSP/Components/lps22hh\lps22hh_reg.c **** /**
 464:D:/fchai/work/i-cube/I-CUBE-HUAWEI/Drivers/BSP/Components/lps22hh\lps22hh_reg.c ****   * @brief  The pressure offset value is 16-bit
 465:D:/fchai/work/i-cube/I-CUBE-HUAWEI/Drivers/BSP/Components/lps22hh\lps22hh_reg.c ****   *         data that can be used to implement
 466:D:/fchai/work/i-cube/I-CUBE-HUAWEI/Drivers/BSP/Components/lps22hh\lps22hh_reg.c ****   *         one-point calibration (OPC) after
 467:D:/fchai/work/i-cube/I-CUBE-HUAWEI/Drivers/BSP/Components/lps22hh\lps22hh_reg.c ****   *         soldering.[get]
 468:D:/fchai/work/i-cube/I-CUBE-HUAWEI/Drivers/BSP/Components/lps22hh\lps22hh_reg.c ****   *
 469:D:/fchai/work/i-cube/I-CUBE-HUAWEI/Drivers/BSP/Components/lps22hh\lps22hh_reg.c ****   * @param  ctx      read / write interface definitions
 470:D:/fchai/work/i-cube/I-CUBE-HUAWEI/Drivers/BSP/Components/lps22hh\lps22hh_reg.c ****   * @param  buff     buffer that stores data read
 471:D:/fchai/work/i-cube/I-CUBE-HUAWEI/Drivers/BSP/Components/lps22hh\lps22hh_reg.c ****   * @retval          interface status (MANDATORY: return 0 -> no Error)
 472:D:/fchai/work/i-cube/I-CUBE-HUAWEI/Drivers/BSP/Components/lps22hh\lps22hh_reg.c ****   *
 473:D:/fchai/work/i-cube/I-CUBE-HUAWEI/Drivers/BSP/Components/lps22hh\lps22hh_reg.c ****   */
 474:D:/fchai/work/i-cube/I-CUBE-HUAWEI/Drivers/BSP/Components/lps22hh\lps22hh_reg.c **** int32_t lps22hh_pressure_offset_get(stmdev_ctx_t *ctx, uint8_t *buff)
ARM GAS  T:\msys\tmp\ccdfMMY7.s 			page 45


 475:D:/fchai/work/i-cube/I-CUBE-HUAWEI/Drivers/BSP/Components/lps22hh\lps22hh_reg.c **** {
 1765              		.loc 1 475 1 is_stmt 1 view -0
 1766              		.cfi_startproc
 1767              		@ args = 0, pretend = 0, frame = 0
 1768              		@ frame_needed = 0, uses_anonymous_args = 0
 1769              		@ link register save eliminated.
 476:D:/fchai/work/i-cube/I-CUBE-HUAWEI/Drivers/BSP/Components/lps22hh\lps22hh_reg.c ****   int32_t ret;
 1770              		.loc 1 476 3 view .LVU501
 477:D:/fchai/work/i-cube/I-CUBE-HUAWEI/Drivers/BSP/Components/lps22hh\lps22hh_reg.c ****   ret =  lps22hh_read_reg(ctx, LPS22HH_RPDS_L, buff, 2);
 1771              		.loc 1 477 3 view .LVU502
 475:D:/fchai/work/i-cube/I-CUBE-HUAWEI/Drivers/BSP/Components/lps22hh\lps22hh_reg.c ****   int32_t ret;
 1772              		.loc 1 475 1 is_stmt 0 view .LVU503
 1773 0000 10B4     		push	{r4}
 1774              	.LCFI47:
 1775              		.cfi_def_cfa_offset 4
 1776              		.cfi_offset 4, -4
 1777              	.LBB316:
 1778              	.LBB317:
  53:D:/fchai/work/i-cube/I-CUBE-HUAWEI/Drivers/BSP/Components/lps22hh\lps22hh_reg.c ****   return ret;
 1779              		.loc 1 53 9 view .LVU504
 1780 0002 D0E90140 		ldrd	r4, r0, [r0, #4]
 1781              	.LVL134:
  53:D:/fchai/work/i-cube/I-CUBE-HUAWEI/Drivers/BSP/Components/lps22hh\lps22hh_reg.c ****   return ret;
 1782              		.loc 1 53 9 view .LVU505
 1783              	.LBE317:
 1784              	.LBE316:
 475:D:/fchai/work/i-cube/I-CUBE-HUAWEI/Drivers/BSP/Components/lps22hh\lps22hh_reg.c ****   int32_t ret;
 1785              		.loc 1 475 1 view .LVU506
 1786 0006 0A46     		mov	r2, r1
 1787              	.LVL135:
 1788              	.LBB320:
 1789              	.LBI316:
  49:D:/fchai/work/i-cube/I-CUBE-HUAWEI/Drivers/BSP/Components/lps22hh\lps22hh_reg.c ****                          uint16_t len)
 1790              		.loc 1 49 9 is_stmt 1 view .LVU507
 1791              	.LBB318:
  52:D:/fchai/work/i-cube/I-CUBE-HUAWEI/Drivers/BSP/Components/lps22hh\lps22hh_reg.c ****   ret = ctx->read_reg(ctx->handle, reg, data, len);
 1792              		.loc 1 52 3 view .LVU508
  53:D:/fchai/work/i-cube/I-CUBE-HUAWEI/Drivers/BSP/Components/lps22hh\lps22hh_reg.c ****   return ret;
 1793              		.loc 1 53 3 view .LVU509
  53:D:/fchai/work/i-cube/I-CUBE-HUAWEI/Drivers/BSP/Components/lps22hh\lps22hh_reg.c ****   return ret;
 1794              		.loc 1 53 9 is_stmt 0 view .LVU510
 1795 0008 A446     		mov	ip, r4
 1796 000a 0223     		movs	r3, #2
 1797              	.LBE318:
 1798              	.LBE320:
 478:D:/fchai/work/i-cube/I-CUBE-HUAWEI/Drivers/BSP/Components/lps22hh\lps22hh_reg.c ****   return ret;
 479:D:/fchai/work/i-cube/I-CUBE-HUAWEI/Drivers/BSP/Components/lps22hh\lps22hh_reg.c **** }
 1799              		.loc 1 479 1 view .LVU511
 1800 000c 5DF8044B 		ldr	r4, [sp], #4
 1801              	.LCFI48:
 1802              		.cfi_restore 4
 1803              		.cfi_def_cfa_offset 0
 1804              	.LBB321:
 1805              	.LBB319:
  53:D:/fchai/work/i-cube/I-CUBE-HUAWEI/Drivers/BSP/Components/lps22hh\lps22hh_reg.c ****   return ret;
 1806              		.loc 1 53 9 view .LVU512
 1807 0010 1821     		movs	r1, #24
ARM GAS  T:\msys\tmp\ccdfMMY7.s 			page 46


 1808              	.LVL136:
  53:D:/fchai/work/i-cube/I-CUBE-HUAWEI/Drivers/BSP/Components/lps22hh\lps22hh_reg.c ****   return ret;
 1809              		.loc 1 53 9 view .LVU513
 1810 0012 6047     		bx	ip
 1811              	.LVL137:
  53:D:/fchai/work/i-cube/I-CUBE-HUAWEI/Drivers/BSP/Components/lps22hh\lps22hh_reg.c ****   return ret;
 1812              		.loc 1 53 9 view .LVU514
 1813              	.LBE319:
 1814              	.LBE321:
 1815              		.cfi_endproc
 1816              	.LFE19:
 1818              		.section	.text.lps22hh_all_sources_get,"ax",%progbits
 1819              		.align	1
 1820              		.p2align 2,,3
 1821              		.global	lps22hh_all_sources_get
 1822              		.syntax unified
 1823              		.thumb
 1824              		.thumb_func
 1825              		.fpu fpv4-sp-d16
 1827              	lps22hh_all_sources_get:
 1828              	.LVL138:
 1829              	.LFB20:
 480:D:/fchai/work/i-cube/I-CUBE-HUAWEI/Drivers/BSP/Components/lps22hh\lps22hh_reg.c **** 
 481:D:/fchai/work/i-cube/I-CUBE-HUAWEI/Drivers/BSP/Components/lps22hh\lps22hh_reg.c **** /**
 482:D:/fchai/work/i-cube/I-CUBE-HUAWEI/Drivers/BSP/Components/lps22hh\lps22hh_reg.c ****   * @brief  Read all the interrupt/status flag of the device.[get]
 483:D:/fchai/work/i-cube/I-CUBE-HUAWEI/Drivers/BSP/Components/lps22hh\lps22hh_reg.c ****   *
 484:D:/fchai/work/i-cube/I-CUBE-HUAWEI/Drivers/BSP/Components/lps22hh\lps22hh_reg.c ****   * @param  ctx      read / write interface definitions
 485:D:/fchai/work/i-cube/I-CUBE-HUAWEI/Drivers/BSP/Components/lps22hh\lps22hh_reg.c ****   * @param  val      registers STATUS,FIFO_STATUS2,INT_SOURCE
 486:D:/fchai/work/i-cube/I-CUBE-HUAWEI/Drivers/BSP/Components/lps22hh\lps22hh_reg.c ****   * @retval          interface status (MANDATORY: return 0 -> no Error)
 487:D:/fchai/work/i-cube/I-CUBE-HUAWEI/Drivers/BSP/Components/lps22hh\lps22hh_reg.c ****   *
 488:D:/fchai/work/i-cube/I-CUBE-HUAWEI/Drivers/BSP/Components/lps22hh\lps22hh_reg.c ****   */
 489:D:/fchai/work/i-cube/I-CUBE-HUAWEI/Drivers/BSP/Components/lps22hh\lps22hh_reg.c **** int32_t lps22hh_all_sources_get(stmdev_ctx_t *ctx, lps22hh_all_sources_t *val)
 490:D:/fchai/work/i-cube/I-CUBE-HUAWEI/Drivers/BSP/Components/lps22hh\lps22hh_reg.c **** {
 1830              		.loc 1 490 1 is_stmt 1 view -0
 1831              		.cfi_startproc
 1832              		@ args = 0, pretend = 0, frame = 0
 1833              		@ frame_needed = 0, uses_anonymous_args = 0
 491:D:/fchai/work/i-cube/I-CUBE-HUAWEI/Drivers/BSP/Components/lps22hh\lps22hh_reg.c ****   int32_t ret;
 1834              		.loc 1 491 3 view .LVU516
 492:D:/fchai/work/i-cube/I-CUBE-HUAWEI/Drivers/BSP/Components/lps22hh\lps22hh_reg.c **** 
 493:D:/fchai/work/i-cube/I-CUBE-HUAWEI/Drivers/BSP/Components/lps22hh\lps22hh_reg.c ****   ret = lps22hh_read_reg(ctx, LPS22HH_INT_SOURCE,
 1835              		.loc 1 493 3 view .LVU517
 490:D:/fchai/work/i-cube/I-CUBE-HUAWEI/Drivers/BSP/Components/lps22hh\lps22hh_reg.c ****   int32_t ret;
 1836              		.loc 1 490 1 is_stmt 0 view .LVU518
 1837 0000 70B5     		push	{r4, r5, r6, lr}
 1838              	.LCFI49:
 1839              		.cfi_def_cfa_offset 16
 1840              		.cfi_offset 4, -16
 1841              		.cfi_offset 5, -12
 1842              		.cfi_offset 6, -8
 1843              		.cfi_offset 14, -4
 1844              	.LBB322:
 1845              	.LBB323:
  53:D:/fchai/work/i-cube/I-CUBE-HUAWEI/Drivers/BSP/Components/lps22hh\lps22hh_reg.c ****   return ret;
 1846              		.loc 1 53 9 view .LVU519
 1847 0002 0A46     		mov	r2, r1
 1848              	.LBE323:
ARM GAS  T:\msys\tmp\ccdfMMY7.s 			page 47


 1849              	.LBE322:
 490:D:/fchai/work/i-cube/I-CUBE-HUAWEI/Drivers/BSP/Components/lps22hh\lps22hh_reg.c ****   int32_t ret;
 1850              		.loc 1 490 1 view .LVU520
 1851 0004 0446     		mov	r4, r0
 1852              	.LVL139:
 490:D:/fchai/work/i-cube/I-CUBE-HUAWEI/Drivers/BSP/Components/lps22hh\lps22hh_reg.c ****   int32_t ret;
 1853              		.loc 1 490 1 view .LVU521
 1854 0006 0D46     		mov	r5, r1
 1855              	.LVL140:
 1856              	.LBB325:
 1857              	.LBI322:
  49:D:/fchai/work/i-cube/I-CUBE-HUAWEI/Drivers/BSP/Components/lps22hh\lps22hh_reg.c ****                          uint16_t len)
 1858              		.loc 1 49 9 is_stmt 1 view .LVU522
 1859              	.LBB324:
  52:D:/fchai/work/i-cube/I-CUBE-HUAWEI/Drivers/BSP/Components/lps22hh\lps22hh_reg.c ****   ret = ctx->read_reg(ctx->handle, reg, data, len);
 1860              		.loc 1 52 3 view .LVU523
  53:D:/fchai/work/i-cube/I-CUBE-HUAWEI/Drivers/BSP/Components/lps22hh\lps22hh_reg.c ****   return ret;
 1861              		.loc 1 53 3 view .LVU524
  53:D:/fchai/work/i-cube/I-CUBE-HUAWEI/Drivers/BSP/Components/lps22hh\lps22hh_reg.c ****   return ret;
 1862              		.loc 1 53 9 is_stmt 0 view .LVU525
 1863 0008 D0E90160 		ldrd	r6, r0, [r0, #4]
 1864              	.LVL141:
  53:D:/fchai/work/i-cube/I-CUBE-HUAWEI/Drivers/BSP/Components/lps22hh\lps22hh_reg.c ****   return ret;
 1865              		.loc 1 53 9 view .LVU526
 1866 000c 0123     		movs	r3, #1
 1867 000e 2421     		movs	r1, #36
 1868              	.LVL142:
  53:D:/fchai/work/i-cube/I-CUBE-HUAWEI/Drivers/BSP/Components/lps22hh\lps22hh_reg.c ****   return ret;
 1869              		.loc 1 53 9 view .LVU527
 1870 0010 B047     		blx	r6
 1871              	.LVL143:
  54:D:/fchai/work/i-cube/I-CUBE-HUAWEI/Drivers/BSP/Components/lps22hh\lps22hh_reg.c **** }
 1872              		.loc 1 54 3 is_stmt 1 view .LVU528
  54:D:/fchai/work/i-cube/I-CUBE-HUAWEI/Drivers/BSP/Components/lps22hh\lps22hh_reg.c **** }
 1873              		.loc 1 54 3 is_stmt 0 view .LVU529
 1874              	.LBE324:
 1875              	.LBE325:
 494:D:/fchai/work/i-cube/I-CUBE-HUAWEI/Drivers/BSP/Components/lps22hh\lps22hh_reg.c ****                          (uint8_t*) &(val->int_source), 1);
 495:D:/fchai/work/i-cube/I-CUBE-HUAWEI/Drivers/BSP/Components/lps22hh\lps22hh_reg.c ****   if (ret == 0) {
 1876              		.loc 1 495 3 is_stmt 1 view .LVU530
 1877              		.loc 1 495 6 is_stmt 0 view .LVU531
 1878 0012 78B9     		cbnz	r0, .L65
 496:D:/fchai/work/i-cube/I-CUBE-HUAWEI/Drivers/BSP/Components/lps22hh\lps22hh_reg.c ****     ret = lps22hh_read_reg(ctx, LPS22HH_FIFO_STATUS2,
 1879              		.loc 1 496 5 is_stmt 1 view .LVU532
 1880              	.LVL144:
 1881              	.LBB326:
 1882              	.LBI326:
  49:D:/fchai/work/i-cube/I-CUBE-HUAWEI/Drivers/BSP/Components/lps22hh\lps22hh_reg.c ****                          uint16_t len)
 1883              		.loc 1 49 9 view .LVU533
 1884              	.LBB327:
  52:D:/fchai/work/i-cube/I-CUBE-HUAWEI/Drivers/BSP/Components/lps22hh\lps22hh_reg.c ****   ret = ctx->read_reg(ctx->handle, reg, data, len);
 1885              		.loc 1 52 3 view .LVU534
  53:D:/fchai/work/i-cube/I-CUBE-HUAWEI/Drivers/BSP/Components/lps22hh\lps22hh_reg.c ****   return ret;
 1886              		.loc 1 53 3 view .LVU535
  53:D:/fchai/work/i-cube/I-CUBE-HUAWEI/Drivers/BSP/Components/lps22hh\lps22hh_reg.c ****   return ret;
 1887              		.loc 1 53 9 is_stmt 0 view .LVU536
 1888 0014 0123     		movs	r3, #1
ARM GAS  T:\msys\tmp\ccdfMMY7.s 			page 48


 1889 0016 D4E90160 		ldrd	r6, r0, [r4, #4]
 1890              	.LVL145:
  53:D:/fchai/work/i-cube/I-CUBE-HUAWEI/Drivers/BSP/Components/lps22hh\lps22hh_reg.c ****   return ret;
 1891              		.loc 1 53 9 view .LVU537
 1892 001a EA18     		adds	r2, r5, r3
 1893              	.LVL146:
  53:D:/fchai/work/i-cube/I-CUBE-HUAWEI/Drivers/BSP/Components/lps22hh\lps22hh_reg.c ****   return ret;
 1894              		.loc 1 53 9 view .LVU538
 1895 001c 2621     		movs	r1, #38
 1896 001e B047     		blx	r6
 1897              	.LVL147:
  54:D:/fchai/work/i-cube/I-CUBE-HUAWEI/Drivers/BSP/Components/lps22hh\lps22hh_reg.c **** }
 1898              		.loc 1 54 3 is_stmt 1 view .LVU539
  54:D:/fchai/work/i-cube/I-CUBE-HUAWEI/Drivers/BSP/Components/lps22hh\lps22hh_reg.c **** }
 1899              		.loc 1 54 3 is_stmt 0 view .LVU540
 1900              	.LBE327:
 1901              	.LBE326:
 497:D:/fchai/work/i-cube/I-CUBE-HUAWEI/Drivers/BSP/Components/lps22hh\lps22hh_reg.c ****                            (uint8_t*) &(val->fifo_status2), 1);
 498:D:/fchai/work/i-cube/I-CUBE-HUAWEI/Drivers/BSP/Components/lps22hh\lps22hh_reg.c ****   }
 499:D:/fchai/work/i-cube/I-CUBE-HUAWEI/Drivers/BSP/Components/lps22hh\lps22hh_reg.c ****   if (ret == 0) {
 1902              		.loc 1 499 3 is_stmt 1 view .LVU541
 1903              		.loc 1 499 6 is_stmt 0 view .LVU542
 1904 0020 40B9     		cbnz	r0, .L65
 500:D:/fchai/work/i-cube/I-CUBE-HUAWEI/Drivers/BSP/Components/lps22hh\lps22hh_reg.c ****     ret = lps22hh_read_reg(ctx, LPS22HH_STATUS,
 1905              		.loc 1 500 5 is_stmt 1 view .LVU543
 1906              	.LVL148:
 1907              	.LBB328:
 1908              	.LBI328:
  49:D:/fchai/work/i-cube/I-CUBE-HUAWEI/Drivers/BSP/Components/lps22hh\lps22hh_reg.c ****                          uint16_t len)
 1909              		.loc 1 49 9 view .LVU544
 1910              	.LBB329:
  52:D:/fchai/work/i-cube/I-CUBE-HUAWEI/Drivers/BSP/Components/lps22hh\lps22hh_reg.c ****   ret = ctx->read_reg(ctx->handle, reg, data, len);
 1911              		.loc 1 52 3 view .LVU545
  53:D:/fchai/work/i-cube/I-CUBE-HUAWEI/Drivers/BSP/Components/lps22hh\lps22hh_reg.c ****   return ret;
 1912              		.loc 1 53 3 view .LVU546
  53:D:/fchai/work/i-cube/I-CUBE-HUAWEI/Drivers/BSP/Components/lps22hh\lps22hh_reg.c ****   return ret;
 1913              		.loc 1 53 9 is_stmt 0 view .LVU547
 1914 0022 AA1C     		adds	r2, r5, #2
 1915              	.LVL149:
  53:D:/fchai/work/i-cube/I-CUBE-HUAWEI/Drivers/BSP/Components/lps22hh\lps22hh_reg.c ****   return ret;
 1916              		.loc 1 53 9 view .LVU548
 1917 0024 D4E90150 		ldrd	r5, r0, [r4, #4]
 1918              	.LVL150:
  53:D:/fchai/work/i-cube/I-CUBE-HUAWEI/Drivers/BSP/Components/lps22hh\lps22hh_reg.c ****   return ret;
 1919              		.loc 1 53 9 view .LVU549
 1920 0028 0123     		movs	r3, #1
 1921 002a AC46     		mov	ip, r5
 1922 002c 2721     		movs	r1, #39
 1923              	.LBE329:
 1924              	.LBE328:
 501:D:/fchai/work/i-cube/I-CUBE-HUAWEI/Drivers/BSP/Components/lps22hh\lps22hh_reg.c ****                            (uint8_t*) &(val->status), 1);
 502:D:/fchai/work/i-cube/I-CUBE-HUAWEI/Drivers/BSP/Components/lps22hh\lps22hh_reg.c ****   }
 503:D:/fchai/work/i-cube/I-CUBE-HUAWEI/Drivers/BSP/Components/lps22hh\lps22hh_reg.c ****   return ret;
 504:D:/fchai/work/i-cube/I-CUBE-HUAWEI/Drivers/BSP/Components/lps22hh\lps22hh_reg.c **** }
 1925              		.loc 1 504 1 view .LVU550
 1926 002e BDE87040 		pop	{r4, r5, r6, lr}
 1927              	.LCFI50:
ARM GAS  T:\msys\tmp\ccdfMMY7.s 			page 49


 1928              		.cfi_remember_state
 1929              		.cfi_restore 14
 1930              		.cfi_restore 6
 1931              		.cfi_restore 5
 1932              		.cfi_restore 4
 1933              		.cfi_def_cfa_offset 0
 1934              	.LVL151:
 1935              	.LBB331:
 1936              	.LBB330:
  53:D:/fchai/work/i-cube/I-CUBE-HUAWEI/Drivers/BSP/Components/lps22hh\lps22hh_reg.c ****   return ret;
 1937              		.loc 1 53 9 view .LVU551
 1938 0032 6047     		bx	ip
 1939              	.LVL152:
 1940              	.L65:
 1941              	.LCFI51:
 1942              		.cfi_restore_state
  53:D:/fchai/work/i-cube/I-CUBE-HUAWEI/Drivers/BSP/Components/lps22hh\lps22hh_reg.c ****   return ret;
 1943              		.loc 1 53 9 view .LVU552
 1944              	.LBE330:
 1945              	.LBE331:
 1946              		.loc 1 504 1 view .LVU553
 1947 0034 70BD     		pop	{r4, r5, r6, pc}
 1948              		.loc 1 504 1 view .LVU554
 1949              		.cfi_endproc
 1950              	.LFE20:
 1952 0036 00BF     		.section	.text.lps22hh_status_reg_get,"ax",%progbits
 1953              		.align	1
 1954              		.p2align 2,,3
 1955              		.global	lps22hh_status_reg_get
 1956              		.syntax unified
 1957              		.thumb
 1958              		.thumb_func
 1959              		.fpu fpv4-sp-d16
 1961              	lps22hh_status_reg_get:
 1962              	.LVL153:
 1963              	.LFB21:
 505:D:/fchai/work/i-cube/I-CUBE-HUAWEI/Drivers/BSP/Components/lps22hh\lps22hh_reg.c **** 
 506:D:/fchai/work/i-cube/I-CUBE-HUAWEI/Drivers/BSP/Components/lps22hh\lps22hh_reg.c **** /**
 507:D:/fchai/work/i-cube/I-CUBE-HUAWEI/Drivers/BSP/Components/lps22hh\lps22hh_reg.c ****   * @brief  The STATUS_REG register is read by the primary interface.[get]
 508:D:/fchai/work/i-cube/I-CUBE-HUAWEI/Drivers/BSP/Components/lps22hh\lps22hh_reg.c ****   *
 509:D:/fchai/work/i-cube/I-CUBE-HUAWEI/Drivers/BSP/Components/lps22hh\lps22hh_reg.c ****   * @param  ctx      read / write interface definitions
 510:D:/fchai/work/i-cube/I-CUBE-HUAWEI/Drivers/BSP/Components/lps22hh\lps22hh_reg.c ****   * @param  val      structure of registers from STATUS to STATUS_REG
 511:D:/fchai/work/i-cube/I-CUBE-HUAWEI/Drivers/BSP/Components/lps22hh\lps22hh_reg.c ****   * @retval          interface status (MANDATORY: return 0 -> no Error)
 512:D:/fchai/work/i-cube/I-CUBE-HUAWEI/Drivers/BSP/Components/lps22hh\lps22hh_reg.c ****   *
 513:D:/fchai/work/i-cube/I-CUBE-HUAWEI/Drivers/BSP/Components/lps22hh\lps22hh_reg.c ****   */
 514:D:/fchai/work/i-cube/I-CUBE-HUAWEI/Drivers/BSP/Components/lps22hh\lps22hh_reg.c **** int32_t lps22hh_status_reg_get(stmdev_ctx_t *ctx, lps22hh_status_t *val)
 515:D:/fchai/work/i-cube/I-CUBE-HUAWEI/Drivers/BSP/Components/lps22hh\lps22hh_reg.c **** {
 1964              		.loc 1 515 1 is_stmt 1 view -0
 1965              		.cfi_startproc
 1966              		@ args = 0, pretend = 0, frame = 0
 1967              		@ frame_needed = 0, uses_anonymous_args = 0
 1968              		@ link register save eliminated.
 516:D:/fchai/work/i-cube/I-CUBE-HUAWEI/Drivers/BSP/Components/lps22hh\lps22hh_reg.c ****   int32_t ret;
 1969              		.loc 1 516 3 view .LVU556
 517:D:/fchai/work/i-cube/I-CUBE-HUAWEI/Drivers/BSP/Components/lps22hh\lps22hh_reg.c ****   ret =  lps22hh_read_reg(ctx, LPS22HH_STATUS, (uint8_t*) val, 1);
 1970              		.loc 1 517 3 view .LVU557
 515:D:/fchai/work/i-cube/I-CUBE-HUAWEI/Drivers/BSP/Components/lps22hh\lps22hh_reg.c ****   int32_t ret;
ARM GAS  T:\msys\tmp\ccdfMMY7.s 			page 50


 1971              		.loc 1 515 1 is_stmt 0 view .LVU558
 1972 0000 10B4     		push	{r4}
 1973              	.LCFI52:
 1974              		.cfi_def_cfa_offset 4
 1975              		.cfi_offset 4, -4
 1976              	.LBB332:
 1977              	.LBB333:
  53:D:/fchai/work/i-cube/I-CUBE-HUAWEI/Drivers/BSP/Components/lps22hh\lps22hh_reg.c ****   return ret;
 1978              		.loc 1 53 9 view .LVU559
 1979 0002 D0E90140 		ldrd	r4, r0, [r0, #4]
 1980              	.LVL154:
  53:D:/fchai/work/i-cube/I-CUBE-HUAWEI/Drivers/BSP/Components/lps22hh\lps22hh_reg.c ****   return ret;
 1981              		.loc 1 53 9 view .LVU560
 1982              	.LBE333:
 1983              	.LBE332:
 515:D:/fchai/work/i-cube/I-CUBE-HUAWEI/Drivers/BSP/Components/lps22hh\lps22hh_reg.c ****   int32_t ret;
 1984              		.loc 1 515 1 view .LVU561
 1985 0006 0A46     		mov	r2, r1
 1986              	.LVL155:
 1987              	.LBB336:
 1988              	.LBI332:
  49:D:/fchai/work/i-cube/I-CUBE-HUAWEI/Drivers/BSP/Components/lps22hh\lps22hh_reg.c ****                          uint16_t len)
 1989              		.loc 1 49 9 is_stmt 1 view .LVU562
 1990              	.LBB334:
  52:D:/fchai/work/i-cube/I-CUBE-HUAWEI/Drivers/BSP/Components/lps22hh\lps22hh_reg.c ****   ret = ctx->read_reg(ctx->handle, reg, data, len);
 1991              		.loc 1 52 3 view .LVU563
  53:D:/fchai/work/i-cube/I-CUBE-HUAWEI/Drivers/BSP/Components/lps22hh\lps22hh_reg.c ****   return ret;
 1992              		.loc 1 53 3 view .LVU564
  53:D:/fchai/work/i-cube/I-CUBE-HUAWEI/Drivers/BSP/Components/lps22hh\lps22hh_reg.c ****   return ret;
 1993              		.loc 1 53 9 is_stmt 0 view .LVU565
 1994 0008 A446     		mov	ip, r4
 1995 000a 0123     		movs	r3, #1
 1996              	.LBE334:
 1997              	.LBE336:
 518:D:/fchai/work/i-cube/I-CUBE-HUAWEI/Drivers/BSP/Components/lps22hh\lps22hh_reg.c ****   return ret;
 519:D:/fchai/work/i-cube/I-CUBE-HUAWEI/Drivers/BSP/Components/lps22hh\lps22hh_reg.c **** }
 1998              		.loc 1 519 1 view .LVU566
 1999 000c 5DF8044B 		ldr	r4, [sp], #4
 2000              	.LCFI53:
 2001              		.cfi_restore 4
 2002              		.cfi_def_cfa_offset 0
 2003              	.LBB337:
 2004              	.LBB335:
  53:D:/fchai/work/i-cube/I-CUBE-HUAWEI/Drivers/BSP/Components/lps22hh\lps22hh_reg.c ****   return ret;
 2005              		.loc 1 53 9 view .LVU567
 2006 0010 2721     		movs	r1, #39
 2007              	.LVL156:
  53:D:/fchai/work/i-cube/I-CUBE-HUAWEI/Drivers/BSP/Components/lps22hh\lps22hh_reg.c ****   return ret;
 2008              		.loc 1 53 9 view .LVU568
 2009 0012 6047     		bx	ip
 2010              	.LVL157:
  53:D:/fchai/work/i-cube/I-CUBE-HUAWEI/Drivers/BSP/Components/lps22hh\lps22hh_reg.c ****   return ret;
 2011              		.loc 1 53 9 view .LVU569
 2012              	.LBE335:
 2013              	.LBE337:
 2014              		.cfi_endproc
 2015              	.LFE21:
ARM GAS  T:\msys\tmp\ccdfMMY7.s 			page 51


 2017              		.section	.text.lps22hh_press_flag_data_ready_get,"ax",%progbits
 2018              		.align	1
 2019              		.p2align 2,,3
 2020              		.global	lps22hh_press_flag_data_ready_get
 2021              		.syntax unified
 2022              		.thumb
 2023              		.thumb_func
 2024              		.fpu fpv4-sp-d16
 2026              	lps22hh_press_flag_data_ready_get:
 2027              	.LVL158:
 2028              	.LFB22:
 520:D:/fchai/work/i-cube/I-CUBE-HUAWEI/Drivers/BSP/Components/lps22hh\lps22hh_reg.c **** 
 521:D:/fchai/work/i-cube/I-CUBE-HUAWEI/Drivers/BSP/Components/lps22hh\lps22hh_reg.c **** /**
 522:D:/fchai/work/i-cube/I-CUBE-HUAWEI/Drivers/BSP/Components/lps22hh\lps22hh_reg.c ****   * @brief  Pressure new data available.[get]
 523:D:/fchai/work/i-cube/I-CUBE-HUAWEI/Drivers/BSP/Components/lps22hh\lps22hh_reg.c ****   *
 524:D:/fchai/work/i-cube/I-CUBE-HUAWEI/Drivers/BSP/Components/lps22hh\lps22hh_reg.c ****   * @param  ctx      read / write interface definitions
 525:D:/fchai/work/i-cube/I-CUBE-HUAWEI/Drivers/BSP/Components/lps22hh\lps22hh_reg.c ****   * @param  val      change the values of p_da in reg STATUS
 526:D:/fchai/work/i-cube/I-CUBE-HUAWEI/Drivers/BSP/Components/lps22hh\lps22hh_reg.c ****   * @retval          interface status (MANDATORY: return 0 -> no Error)
 527:D:/fchai/work/i-cube/I-CUBE-HUAWEI/Drivers/BSP/Components/lps22hh\lps22hh_reg.c ****   *
 528:D:/fchai/work/i-cube/I-CUBE-HUAWEI/Drivers/BSP/Components/lps22hh\lps22hh_reg.c ****   */
 529:D:/fchai/work/i-cube/I-CUBE-HUAWEI/Drivers/BSP/Components/lps22hh\lps22hh_reg.c **** int32_t lps22hh_press_flag_data_ready_get(stmdev_ctx_t *ctx, uint8_t *val)
 530:D:/fchai/work/i-cube/I-CUBE-HUAWEI/Drivers/BSP/Components/lps22hh\lps22hh_reg.c **** {
 2029              		.loc 1 530 1 is_stmt 1 view -0
 2030              		.cfi_startproc
 2031              		@ args = 0, pretend = 0, frame = 8
 2032              		@ frame_needed = 0, uses_anonymous_args = 0
 531:D:/fchai/work/i-cube/I-CUBE-HUAWEI/Drivers/BSP/Components/lps22hh\lps22hh_reg.c ****   lps22hh_status_t reg;
 2033              		.loc 1 531 3 view .LVU571
 532:D:/fchai/work/i-cube/I-CUBE-HUAWEI/Drivers/BSP/Components/lps22hh\lps22hh_reg.c ****   int32_t ret;
 2034              		.loc 1 532 3 view .LVU572
 533:D:/fchai/work/i-cube/I-CUBE-HUAWEI/Drivers/BSP/Components/lps22hh\lps22hh_reg.c **** 
 534:D:/fchai/work/i-cube/I-CUBE-HUAWEI/Drivers/BSP/Components/lps22hh\lps22hh_reg.c ****   ret = lps22hh_read_reg(ctx, LPS22HH_STATUS, (uint8_t*) &reg, 1);
 2035              		.loc 1 534 3 view .LVU573
 530:D:/fchai/work/i-cube/I-CUBE-HUAWEI/Drivers/BSP/Components/lps22hh\lps22hh_reg.c ****   lps22hh_status_t reg;
 2036              		.loc 1 530 1 is_stmt 0 view .LVU574
 2037 0000 30B5     		push	{r4, r5, lr}
 2038              	.LCFI54:
 2039              		.cfi_def_cfa_offset 12
 2040              		.cfi_offset 4, -12
 2041              		.cfi_offset 5, -8
 2042              		.cfi_offset 14, -4
 2043 0002 83B0     		sub	sp, sp, #12
 2044              	.LCFI55:
 2045              		.cfi_def_cfa_offset 24
 2046              	.LVL159:
 2047              	.LBB338:
 2048              	.LBI338:
  49:D:/fchai/work/i-cube/I-CUBE-HUAWEI/Drivers/BSP/Components/lps22hh\lps22hh_reg.c ****                          uint16_t len)
 2049              		.loc 1 49 9 is_stmt 1 view .LVU575
 2050              	.LBB339:
  52:D:/fchai/work/i-cube/I-CUBE-HUAWEI/Drivers/BSP/Components/lps22hh\lps22hh_reg.c ****   ret = ctx->read_reg(ctx->handle, reg, data, len);
 2051              		.loc 1 52 3 view .LVU576
  53:D:/fchai/work/i-cube/I-CUBE-HUAWEI/Drivers/BSP/Components/lps22hh\lps22hh_reg.c ****   return ret;
 2052              		.loc 1 53 3 view .LVU577
 2053              	.LBE339:
 2054              	.LBE338:
 530:D:/fchai/work/i-cube/I-CUBE-HUAWEI/Drivers/BSP/Components/lps22hh\lps22hh_reg.c ****   lps22hh_status_t reg;
ARM GAS  T:\msys\tmp\ccdfMMY7.s 			page 52


 2055              		.loc 1 530 1 is_stmt 0 view .LVU578
 2056 0004 0C46     		mov	r4, r1
 2057              	.LBB341:
 2058              	.LBB340:
  53:D:/fchai/work/i-cube/I-CUBE-HUAWEI/Drivers/BSP/Components/lps22hh\lps22hh_reg.c ****   return ret;
 2059              		.loc 1 53 9 view .LVU579
 2060 0006 D0E90150 		ldrd	r5, r0, [r0, #4]
 2061              	.LVL160:
  53:D:/fchai/work/i-cube/I-CUBE-HUAWEI/Drivers/BSP/Components/lps22hh\lps22hh_reg.c ****   return ret;
 2062              		.loc 1 53 9 view .LVU580
 2063 000a 0123     		movs	r3, #1
 2064 000c 01AA     		add	r2, sp, #4
 2065              	.LVL161:
  53:D:/fchai/work/i-cube/I-CUBE-HUAWEI/Drivers/BSP/Components/lps22hh\lps22hh_reg.c ****   return ret;
 2066              		.loc 1 53 9 view .LVU581
 2067 000e 2721     		movs	r1, #39
 2068              	.LVL162:
  53:D:/fchai/work/i-cube/I-CUBE-HUAWEI/Drivers/BSP/Components/lps22hh\lps22hh_reg.c ****   return ret;
 2069              		.loc 1 53 9 view .LVU582
 2070 0010 A847     		blx	r5
 2071              	.LVL163:
  54:D:/fchai/work/i-cube/I-CUBE-HUAWEI/Drivers/BSP/Components/lps22hh\lps22hh_reg.c **** }
 2072              		.loc 1 54 3 is_stmt 1 view .LVU583
  54:D:/fchai/work/i-cube/I-CUBE-HUAWEI/Drivers/BSP/Components/lps22hh\lps22hh_reg.c **** }
 2073              		.loc 1 54 3 is_stmt 0 view .LVU584
 2074              	.LBE340:
 2075              	.LBE341:
 535:D:/fchai/work/i-cube/I-CUBE-HUAWEI/Drivers/BSP/Components/lps22hh\lps22hh_reg.c ****   *val = reg.p_da;
 2076              		.loc 1 535 3 is_stmt 1 view .LVU585
 2077              		.loc 1 535 13 is_stmt 0 view .LVU586
 2078 0012 9DF80430 		ldrb	r3, [sp, #4]	@ zero_extendqisi2
 2079 0016 C3F30003 		ubfx	r3, r3, #0, #1
 2080              		.loc 1 535 8 view .LVU587
 2081 001a 2370     		strb	r3, [r4]
 536:D:/fchai/work/i-cube/I-CUBE-HUAWEI/Drivers/BSP/Components/lps22hh\lps22hh_reg.c **** 
 537:D:/fchai/work/i-cube/I-CUBE-HUAWEI/Drivers/BSP/Components/lps22hh\lps22hh_reg.c ****   return ret;
 2082              		.loc 1 537 3 is_stmt 1 view .LVU588
 538:D:/fchai/work/i-cube/I-CUBE-HUAWEI/Drivers/BSP/Components/lps22hh\lps22hh_reg.c **** }
 2083              		.loc 1 538 1 is_stmt 0 view .LVU589
 2084 001c 03B0     		add	sp, sp, #12
 2085              	.LCFI56:
 2086              		.cfi_def_cfa_offset 12
 2087              		@ sp needed
 2088 001e 30BD     		pop	{r4, r5, pc}
 2089              		.loc 1 538 1 view .LVU590
 2090              		.cfi_endproc
 2091              	.LFE22:
 2093              		.section	.text.lps22hh_temp_flag_data_ready_get,"ax",%progbits
 2094              		.align	1
 2095              		.p2align 2,,3
 2096              		.global	lps22hh_temp_flag_data_ready_get
 2097              		.syntax unified
 2098              		.thumb
 2099              		.thumb_func
 2100              		.fpu fpv4-sp-d16
 2102              	lps22hh_temp_flag_data_ready_get:
 2103              	.LVL164:
ARM GAS  T:\msys\tmp\ccdfMMY7.s 			page 53


 2104              	.LFB23:
 539:D:/fchai/work/i-cube/I-CUBE-HUAWEI/Drivers/BSP/Components/lps22hh\lps22hh_reg.c **** 
 540:D:/fchai/work/i-cube/I-CUBE-HUAWEI/Drivers/BSP/Components/lps22hh\lps22hh_reg.c **** /**
 541:D:/fchai/work/i-cube/I-CUBE-HUAWEI/Drivers/BSP/Components/lps22hh\lps22hh_reg.c ****   * @brief  Temperature data available.[get]
 542:D:/fchai/work/i-cube/I-CUBE-HUAWEI/Drivers/BSP/Components/lps22hh\lps22hh_reg.c ****   *
 543:D:/fchai/work/i-cube/I-CUBE-HUAWEI/Drivers/BSP/Components/lps22hh\lps22hh_reg.c ****   * @param  ctx      read / write interface definitions
 544:D:/fchai/work/i-cube/I-CUBE-HUAWEI/Drivers/BSP/Components/lps22hh\lps22hh_reg.c ****   * @param  val      change the values of t_da in reg STATUS
 545:D:/fchai/work/i-cube/I-CUBE-HUAWEI/Drivers/BSP/Components/lps22hh\lps22hh_reg.c ****   * @retval          interface status (MANDATORY: return 0 -> no Error)
 546:D:/fchai/work/i-cube/I-CUBE-HUAWEI/Drivers/BSP/Components/lps22hh\lps22hh_reg.c ****   *
 547:D:/fchai/work/i-cube/I-CUBE-HUAWEI/Drivers/BSP/Components/lps22hh\lps22hh_reg.c ****   */
 548:D:/fchai/work/i-cube/I-CUBE-HUAWEI/Drivers/BSP/Components/lps22hh\lps22hh_reg.c **** int32_t lps22hh_temp_flag_data_ready_get(stmdev_ctx_t *ctx, uint8_t *val)
 549:D:/fchai/work/i-cube/I-CUBE-HUAWEI/Drivers/BSP/Components/lps22hh\lps22hh_reg.c **** {
 2105              		.loc 1 549 1 is_stmt 1 view -0
 2106              		.cfi_startproc
 2107              		@ args = 0, pretend = 0, frame = 8
 2108              		@ frame_needed = 0, uses_anonymous_args = 0
 550:D:/fchai/work/i-cube/I-CUBE-HUAWEI/Drivers/BSP/Components/lps22hh\lps22hh_reg.c ****   lps22hh_status_t reg;
 2109              		.loc 1 550 3 view .LVU592
 551:D:/fchai/work/i-cube/I-CUBE-HUAWEI/Drivers/BSP/Components/lps22hh\lps22hh_reg.c ****   int32_t ret;
 2110              		.loc 1 551 3 view .LVU593
 552:D:/fchai/work/i-cube/I-CUBE-HUAWEI/Drivers/BSP/Components/lps22hh\lps22hh_reg.c **** 
 553:D:/fchai/work/i-cube/I-CUBE-HUAWEI/Drivers/BSP/Components/lps22hh\lps22hh_reg.c ****   ret = lps22hh_read_reg(ctx, LPS22HH_STATUS, (uint8_t*) &reg, 1);
 2111              		.loc 1 553 3 view .LVU594
 549:D:/fchai/work/i-cube/I-CUBE-HUAWEI/Drivers/BSP/Components/lps22hh\lps22hh_reg.c ****   lps22hh_status_t reg;
 2112              		.loc 1 549 1 is_stmt 0 view .LVU595
 2113 0000 30B5     		push	{r4, r5, lr}
 2114              	.LCFI57:
 2115              		.cfi_def_cfa_offset 12
 2116              		.cfi_offset 4, -12
 2117              		.cfi_offset 5, -8
 2118              		.cfi_offset 14, -4
 2119 0002 83B0     		sub	sp, sp, #12
 2120              	.LCFI58:
 2121              		.cfi_def_cfa_offset 24
 2122              	.LVL165:
 2123              	.LBB342:
 2124              	.LBI342:
  49:D:/fchai/work/i-cube/I-CUBE-HUAWEI/Drivers/BSP/Components/lps22hh\lps22hh_reg.c ****                          uint16_t len)
 2125              		.loc 1 49 9 is_stmt 1 view .LVU596
 2126              	.LBB343:
  52:D:/fchai/work/i-cube/I-CUBE-HUAWEI/Drivers/BSP/Components/lps22hh\lps22hh_reg.c ****   ret = ctx->read_reg(ctx->handle, reg, data, len);
 2127              		.loc 1 52 3 view .LVU597
  53:D:/fchai/work/i-cube/I-CUBE-HUAWEI/Drivers/BSP/Components/lps22hh\lps22hh_reg.c ****   return ret;
 2128              		.loc 1 53 3 view .LVU598
 2129              	.LBE343:
 2130              	.LBE342:
 549:D:/fchai/work/i-cube/I-CUBE-HUAWEI/Drivers/BSP/Components/lps22hh\lps22hh_reg.c ****   lps22hh_status_t reg;
 2131              		.loc 1 549 1 is_stmt 0 view .LVU599
 2132 0004 0C46     		mov	r4, r1
 2133              	.LBB345:
 2134              	.LBB344:
  53:D:/fchai/work/i-cube/I-CUBE-HUAWEI/Drivers/BSP/Components/lps22hh\lps22hh_reg.c ****   return ret;
 2135              		.loc 1 53 9 view .LVU600
 2136 0006 D0E90150 		ldrd	r5, r0, [r0, #4]
 2137              	.LVL166:
  53:D:/fchai/work/i-cube/I-CUBE-HUAWEI/Drivers/BSP/Components/lps22hh\lps22hh_reg.c ****   return ret;
 2138              		.loc 1 53 9 view .LVU601
ARM GAS  T:\msys\tmp\ccdfMMY7.s 			page 54


 2139 000a 0123     		movs	r3, #1
 2140 000c 01AA     		add	r2, sp, #4
 2141              	.LVL167:
  53:D:/fchai/work/i-cube/I-CUBE-HUAWEI/Drivers/BSP/Components/lps22hh\lps22hh_reg.c ****   return ret;
 2142              		.loc 1 53 9 view .LVU602
 2143 000e 2721     		movs	r1, #39
 2144              	.LVL168:
  53:D:/fchai/work/i-cube/I-CUBE-HUAWEI/Drivers/BSP/Components/lps22hh\lps22hh_reg.c ****   return ret;
 2145              		.loc 1 53 9 view .LVU603
 2146 0010 A847     		blx	r5
 2147              	.LVL169:
  54:D:/fchai/work/i-cube/I-CUBE-HUAWEI/Drivers/BSP/Components/lps22hh\lps22hh_reg.c **** }
 2148              		.loc 1 54 3 is_stmt 1 view .LVU604
  54:D:/fchai/work/i-cube/I-CUBE-HUAWEI/Drivers/BSP/Components/lps22hh\lps22hh_reg.c **** }
 2149              		.loc 1 54 3 is_stmt 0 view .LVU605
 2150              	.LBE344:
 2151              	.LBE345:
 554:D:/fchai/work/i-cube/I-CUBE-HUAWEI/Drivers/BSP/Components/lps22hh\lps22hh_reg.c ****   *val = reg.t_da;
 2152              		.loc 1 554 3 is_stmt 1 view .LVU606
 2153              		.loc 1 554 13 is_stmt 0 view .LVU607
 2154 0012 9DF80430 		ldrb	r3, [sp, #4]	@ zero_extendqisi2
 2155 0016 C3F34003 		ubfx	r3, r3, #1, #1
 2156              		.loc 1 554 8 view .LVU608
 2157 001a 2370     		strb	r3, [r4]
 555:D:/fchai/work/i-cube/I-CUBE-HUAWEI/Drivers/BSP/Components/lps22hh\lps22hh_reg.c **** 
 556:D:/fchai/work/i-cube/I-CUBE-HUAWEI/Drivers/BSP/Components/lps22hh\lps22hh_reg.c ****   return ret;
 2158              		.loc 1 556 3 is_stmt 1 view .LVU609
 557:D:/fchai/work/i-cube/I-CUBE-HUAWEI/Drivers/BSP/Components/lps22hh\lps22hh_reg.c **** }
 2159              		.loc 1 557 1 is_stmt 0 view .LVU610
 2160 001c 03B0     		add	sp, sp, #12
 2161              	.LCFI59:
 2162              		.cfi_def_cfa_offset 12
 2163              		@ sp needed
 2164 001e 30BD     		pop	{r4, r5, pc}
 2165              		.loc 1 557 1 view .LVU611
 2166              		.cfi_endproc
 2167              	.LFE23:
 2169              		.section	.text.lps22hh_pressure_raw_get,"ax",%progbits
 2170              		.align	1
 2171              		.p2align 2,,3
 2172              		.global	lps22hh_pressure_raw_get
 2173              		.syntax unified
 2174              		.thumb
 2175              		.thumb_func
 2176              		.fpu fpv4-sp-d16
 2178              	lps22hh_pressure_raw_get:
 2179              	.LVL170:
 2180              	.LFB24:
 558:D:/fchai/work/i-cube/I-CUBE-HUAWEI/Drivers/BSP/Components/lps22hh\lps22hh_reg.c **** 
 559:D:/fchai/work/i-cube/I-CUBE-HUAWEI/Drivers/BSP/Components/lps22hh\lps22hh_reg.c **** /**
 560:D:/fchai/work/i-cube/I-CUBE-HUAWEI/Drivers/BSP/Components/lps22hh\lps22hh_reg.c ****   * @}
 561:D:/fchai/work/i-cube/I-CUBE-HUAWEI/Drivers/BSP/Components/lps22hh\lps22hh_reg.c ****   *
 562:D:/fchai/work/i-cube/I-CUBE-HUAWEI/Drivers/BSP/Components/lps22hh\lps22hh_reg.c ****   */
 563:D:/fchai/work/i-cube/I-CUBE-HUAWEI/Drivers/BSP/Components/lps22hh\lps22hh_reg.c **** 
 564:D:/fchai/work/i-cube/I-CUBE-HUAWEI/Drivers/BSP/Components/lps22hh\lps22hh_reg.c **** /**
 565:D:/fchai/work/i-cube/I-CUBE-HUAWEI/Drivers/BSP/Components/lps22hh\lps22hh_reg.c ****   * @defgroup  LPS22HH_Data_Output
 566:D:/fchai/work/i-cube/I-CUBE-HUAWEI/Drivers/BSP/Components/lps22hh\lps22hh_reg.c ****   * @brief     This section groups all the data output functions.
ARM GAS  T:\msys\tmp\ccdfMMY7.s 			page 55


 567:D:/fchai/work/i-cube/I-CUBE-HUAWEI/Drivers/BSP/Components/lps22hh\lps22hh_reg.c ****   * @{
 568:D:/fchai/work/i-cube/I-CUBE-HUAWEI/Drivers/BSP/Components/lps22hh\lps22hh_reg.c ****   *
 569:D:/fchai/work/i-cube/I-CUBE-HUAWEI/Drivers/BSP/Components/lps22hh\lps22hh_reg.c ****   */
 570:D:/fchai/work/i-cube/I-CUBE-HUAWEI/Drivers/BSP/Components/lps22hh\lps22hh_reg.c **** 
 571:D:/fchai/work/i-cube/I-CUBE-HUAWEI/Drivers/BSP/Components/lps22hh\lps22hh_reg.c **** /**
 572:D:/fchai/work/i-cube/I-CUBE-HUAWEI/Drivers/BSP/Components/lps22hh\lps22hh_reg.c ****   * @brief  Pressure output value.[get]
 573:D:/fchai/work/i-cube/I-CUBE-HUAWEI/Drivers/BSP/Components/lps22hh\lps22hh_reg.c ****   *
 574:D:/fchai/work/i-cube/I-CUBE-HUAWEI/Drivers/BSP/Components/lps22hh\lps22hh_reg.c ****   * @param  ctx      read / write interface definitions
 575:D:/fchai/work/i-cube/I-CUBE-HUAWEI/Drivers/BSP/Components/lps22hh\lps22hh_reg.c ****   * @param  buff     buffer that stores data read
 576:D:/fchai/work/i-cube/I-CUBE-HUAWEI/Drivers/BSP/Components/lps22hh\lps22hh_reg.c ****   * @retval          interface status (MANDATORY: return 0 -> no Error)
 577:D:/fchai/work/i-cube/I-CUBE-HUAWEI/Drivers/BSP/Components/lps22hh\lps22hh_reg.c ****   *
 578:D:/fchai/work/i-cube/I-CUBE-HUAWEI/Drivers/BSP/Components/lps22hh\lps22hh_reg.c ****   */
 579:D:/fchai/work/i-cube/I-CUBE-HUAWEI/Drivers/BSP/Components/lps22hh\lps22hh_reg.c **** int32_t lps22hh_pressure_raw_get(stmdev_ctx_t *ctx, uint8_t *buff)
 580:D:/fchai/work/i-cube/I-CUBE-HUAWEI/Drivers/BSP/Components/lps22hh\lps22hh_reg.c **** {
 2181              		.loc 1 580 1 is_stmt 1 view -0
 2182              		.cfi_startproc
 2183              		@ args = 0, pretend = 0, frame = 0
 2184              		@ frame_needed = 0, uses_anonymous_args = 0
 2185              		@ link register save eliminated.
 581:D:/fchai/work/i-cube/I-CUBE-HUAWEI/Drivers/BSP/Components/lps22hh\lps22hh_reg.c ****   int32_t ret;
 2186              		.loc 1 581 3 view .LVU613
 582:D:/fchai/work/i-cube/I-CUBE-HUAWEI/Drivers/BSP/Components/lps22hh\lps22hh_reg.c ****   ret =  lps22hh_read_reg(ctx, LPS22HH_PRESS_OUT_XL, buff, 3);
 2187              		.loc 1 582 3 view .LVU614
 580:D:/fchai/work/i-cube/I-CUBE-HUAWEI/Drivers/BSP/Components/lps22hh\lps22hh_reg.c ****   int32_t ret;
 2188              		.loc 1 580 1 is_stmt 0 view .LVU615
 2189 0000 10B4     		push	{r4}
 2190              	.LCFI60:
 2191              		.cfi_def_cfa_offset 4
 2192              		.cfi_offset 4, -4
 2193              	.LBB346:
 2194              	.LBB347:
  53:D:/fchai/work/i-cube/I-CUBE-HUAWEI/Drivers/BSP/Components/lps22hh\lps22hh_reg.c ****   return ret;
 2195              		.loc 1 53 9 view .LVU616
 2196 0002 D0E90140 		ldrd	r4, r0, [r0, #4]
 2197              	.LVL171:
  53:D:/fchai/work/i-cube/I-CUBE-HUAWEI/Drivers/BSP/Components/lps22hh\lps22hh_reg.c ****   return ret;
 2198              		.loc 1 53 9 view .LVU617
 2199              	.LBE347:
 2200              	.LBE346:
 580:D:/fchai/work/i-cube/I-CUBE-HUAWEI/Drivers/BSP/Components/lps22hh\lps22hh_reg.c ****   int32_t ret;
 2201              		.loc 1 580 1 view .LVU618
 2202 0006 0A46     		mov	r2, r1
 2203              	.LVL172:
 2204              	.LBB350:
 2205              	.LBI346:
  49:D:/fchai/work/i-cube/I-CUBE-HUAWEI/Drivers/BSP/Components/lps22hh\lps22hh_reg.c ****                          uint16_t len)
 2206              		.loc 1 49 9 is_stmt 1 view .LVU619
 2207              	.LBB348:
  52:D:/fchai/work/i-cube/I-CUBE-HUAWEI/Drivers/BSP/Components/lps22hh\lps22hh_reg.c ****   ret = ctx->read_reg(ctx->handle, reg, data, len);
 2208              		.loc 1 52 3 view .LVU620
  53:D:/fchai/work/i-cube/I-CUBE-HUAWEI/Drivers/BSP/Components/lps22hh\lps22hh_reg.c ****   return ret;
 2209              		.loc 1 53 3 view .LVU621
  53:D:/fchai/work/i-cube/I-CUBE-HUAWEI/Drivers/BSP/Components/lps22hh\lps22hh_reg.c ****   return ret;
 2210              		.loc 1 53 9 is_stmt 0 view .LVU622
 2211 0008 A446     		mov	ip, r4
 2212 000a 0323     		movs	r3, #3
 2213              	.LBE348:
ARM GAS  T:\msys\tmp\ccdfMMY7.s 			page 56


 2214              	.LBE350:
 583:D:/fchai/work/i-cube/I-CUBE-HUAWEI/Drivers/BSP/Components/lps22hh\lps22hh_reg.c ****   return ret;
 584:D:/fchai/work/i-cube/I-CUBE-HUAWEI/Drivers/BSP/Components/lps22hh\lps22hh_reg.c **** }
 2215              		.loc 1 584 1 view .LVU623
 2216 000c 5DF8044B 		ldr	r4, [sp], #4
 2217              	.LCFI61:
 2218              		.cfi_restore 4
 2219              		.cfi_def_cfa_offset 0
 2220              	.LBB351:
 2221              	.LBB349:
  53:D:/fchai/work/i-cube/I-CUBE-HUAWEI/Drivers/BSP/Components/lps22hh\lps22hh_reg.c ****   return ret;
 2222              		.loc 1 53 9 view .LVU624
 2223 0010 2821     		movs	r1, #40
 2224              	.LVL173:
  53:D:/fchai/work/i-cube/I-CUBE-HUAWEI/Drivers/BSP/Components/lps22hh\lps22hh_reg.c ****   return ret;
 2225              		.loc 1 53 9 view .LVU625
 2226 0012 6047     		bx	ip
 2227              	.LVL174:
  53:D:/fchai/work/i-cube/I-CUBE-HUAWEI/Drivers/BSP/Components/lps22hh\lps22hh_reg.c ****   return ret;
 2228              		.loc 1 53 9 view .LVU626
 2229              	.LBE349:
 2230              	.LBE351:
 2231              		.cfi_endproc
 2232              	.LFE24:
 2234              		.section	.text.lps22hh_temperature_raw_get,"ax",%progbits
 2235              		.align	1
 2236              		.p2align 2,,3
 2237              		.global	lps22hh_temperature_raw_get
 2238              		.syntax unified
 2239              		.thumb
 2240              		.thumb_func
 2241              		.fpu fpv4-sp-d16
 2243              	lps22hh_temperature_raw_get:
 2244              	.LVL175:
 2245              	.LFB25:
 585:D:/fchai/work/i-cube/I-CUBE-HUAWEI/Drivers/BSP/Components/lps22hh\lps22hh_reg.c **** 
 586:D:/fchai/work/i-cube/I-CUBE-HUAWEI/Drivers/BSP/Components/lps22hh\lps22hh_reg.c **** /**
 587:D:/fchai/work/i-cube/I-CUBE-HUAWEI/Drivers/BSP/Components/lps22hh\lps22hh_reg.c ****   * @brief  Temperature output value.[get]
 588:D:/fchai/work/i-cube/I-CUBE-HUAWEI/Drivers/BSP/Components/lps22hh\lps22hh_reg.c ****   *
 589:D:/fchai/work/i-cube/I-CUBE-HUAWEI/Drivers/BSP/Components/lps22hh\lps22hh_reg.c ****   * @param  ctx      read / write interface definitions
 590:D:/fchai/work/i-cube/I-CUBE-HUAWEI/Drivers/BSP/Components/lps22hh\lps22hh_reg.c ****   * @param  buff     buffer that stores data read
 591:D:/fchai/work/i-cube/I-CUBE-HUAWEI/Drivers/BSP/Components/lps22hh\lps22hh_reg.c ****   * @retval          interface status (MANDATORY: return 0 -> no Error)
 592:D:/fchai/work/i-cube/I-CUBE-HUAWEI/Drivers/BSP/Components/lps22hh\lps22hh_reg.c ****   *
 593:D:/fchai/work/i-cube/I-CUBE-HUAWEI/Drivers/BSP/Components/lps22hh\lps22hh_reg.c ****   */
 594:D:/fchai/work/i-cube/I-CUBE-HUAWEI/Drivers/BSP/Components/lps22hh\lps22hh_reg.c **** int32_t lps22hh_temperature_raw_get(stmdev_ctx_t *ctx, uint8_t *buff)
 595:D:/fchai/work/i-cube/I-CUBE-HUAWEI/Drivers/BSP/Components/lps22hh\lps22hh_reg.c **** {
 2246              		.loc 1 595 1 is_stmt 1 view -0
 2247              		.cfi_startproc
 2248              		@ args = 0, pretend = 0, frame = 0
 2249              		@ frame_needed = 0, uses_anonymous_args = 0
 2250              		@ link register save eliminated.
 596:D:/fchai/work/i-cube/I-CUBE-HUAWEI/Drivers/BSP/Components/lps22hh\lps22hh_reg.c ****   int32_t ret;
 2251              		.loc 1 596 3 view .LVU628
 597:D:/fchai/work/i-cube/I-CUBE-HUAWEI/Drivers/BSP/Components/lps22hh\lps22hh_reg.c ****   ret =  lps22hh_read_reg(ctx, LPS22HH_TEMP_OUT_L, buff, 2);
 2252              		.loc 1 597 3 view .LVU629
 595:D:/fchai/work/i-cube/I-CUBE-HUAWEI/Drivers/BSP/Components/lps22hh\lps22hh_reg.c ****   int32_t ret;
 2253              		.loc 1 595 1 is_stmt 0 view .LVU630
ARM GAS  T:\msys\tmp\ccdfMMY7.s 			page 57


 2254 0000 10B4     		push	{r4}
 2255              	.LCFI62:
 2256              		.cfi_def_cfa_offset 4
 2257              		.cfi_offset 4, -4
 2258              	.LBB352:
 2259              	.LBB353:
  53:D:/fchai/work/i-cube/I-CUBE-HUAWEI/Drivers/BSP/Components/lps22hh\lps22hh_reg.c ****   return ret;
 2260              		.loc 1 53 9 view .LVU631
 2261 0002 D0E90140 		ldrd	r4, r0, [r0, #4]
 2262              	.LVL176:
  53:D:/fchai/work/i-cube/I-CUBE-HUAWEI/Drivers/BSP/Components/lps22hh\lps22hh_reg.c ****   return ret;
 2263              		.loc 1 53 9 view .LVU632
 2264              	.LBE353:
 2265              	.LBE352:
 595:D:/fchai/work/i-cube/I-CUBE-HUAWEI/Drivers/BSP/Components/lps22hh\lps22hh_reg.c ****   int32_t ret;
 2266              		.loc 1 595 1 view .LVU633
 2267 0006 0A46     		mov	r2, r1
 2268              	.LVL177:
 2269              	.LBB356:
 2270              	.LBI352:
  49:D:/fchai/work/i-cube/I-CUBE-HUAWEI/Drivers/BSP/Components/lps22hh\lps22hh_reg.c ****                          uint16_t len)
 2271              		.loc 1 49 9 is_stmt 1 view .LVU634
 2272              	.LBB354:
  52:D:/fchai/work/i-cube/I-CUBE-HUAWEI/Drivers/BSP/Components/lps22hh\lps22hh_reg.c ****   ret = ctx->read_reg(ctx->handle, reg, data, len);
 2273              		.loc 1 52 3 view .LVU635
  53:D:/fchai/work/i-cube/I-CUBE-HUAWEI/Drivers/BSP/Components/lps22hh\lps22hh_reg.c ****   return ret;
 2274              		.loc 1 53 3 view .LVU636
  53:D:/fchai/work/i-cube/I-CUBE-HUAWEI/Drivers/BSP/Components/lps22hh\lps22hh_reg.c ****   return ret;
 2275              		.loc 1 53 9 is_stmt 0 view .LVU637
 2276 0008 A446     		mov	ip, r4
 2277 000a 0223     		movs	r3, #2
 2278              	.LBE354:
 2279              	.LBE356:
 598:D:/fchai/work/i-cube/I-CUBE-HUAWEI/Drivers/BSP/Components/lps22hh\lps22hh_reg.c ****   return ret;
 599:D:/fchai/work/i-cube/I-CUBE-HUAWEI/Drivers/BSP/Components/lps22hh\lps22hh_reg.c **** }
 2280              		.loc 1 599 1 view .LVU638
 2281 000c 5DF8044B 		ldr	r4, [sp], #4
 2282              	.LCFI63:
 2283              		.cfi_restore 4
 2284              		.cfi_def_cfa_offset 0
 2285              	.LBB357:
 2286              	.LBB355:
  53:D:/fchai/work/i-cube/I-CUBE-HUAWEI/Drivers/BSP/Components/lps22hh\lps22hh_reg.c ****   return ret;
 2287              		.loc 1 53 9 view .LVU639
 2288 0010 2B21     		movs	r1, #43
 2289              	.LVL178:
  53:D:/fchai/work/i-cube/I-CUBE-HUAWEI/Drivers/BSP/Components/lps22hh\lps22hh_reg.c ****   return ret;
 2290              		.loc 1 53 9 view .LVU640
 2291 0012 6047     		bx	ip
 2292              	.LVL179:
  53:D:/fchai/work/i-cube/I-CUBE-HUAWEI/Drivers/BSP/Components/lps22hh\lps22hh_reg.c ****   return ret;
 2293              		.loc 1 53 9 view .LVU641
 2294              	.LBE355:
 2295              	.LBE357:
 2296              		.cfi_endproc
 2297              	.LFE25:
 2299              		.section	.text.lps22hh_fifo_pressure_raw_get,"ax",%progbits
ARM GAS  T:\msys\tmp\ccdfMMY7.s 			page 58


 2300              		.align	1
 2301              		.p2align 2,,3
 2302              		.global	lps22hh_fifo_pressure_raw_get
 2303              		.syntax unified
 2304              		.thumb
 2305              		.thumb_func
 2306              		.fpu fpv4-sp-d16
 2308              	lps22hh_fifo_pressure_raw_get:
 2309              	.LVL180:
 2310              	.LFB26:
 600:D:/fchai/work/i-cube/I-CUBE-HUAWEI/Drivers/BSP/Components/lps22hh\lps22hh_reg.c **** 
 601:D:/fchai/work/i-cube/I-CUBE-HUAWEI/Drivers/BSP/Components/lps22hh\lps22hh_reg.c **** /**
 602:D:/fchai/work/i-cube/I-CUBE-HUAWEI/Drivers/BSP/Components/lps22hh\lps22hh_reg.c ****   * @brief  Pressure output from FIFO value.[get]
 603:D:/fchai/work/i-cube/I-CUBE-HUAWEI/Drivers/BSP/Components/lps22hh\lps22hh_reg.c ****   *
 604:D:/fchai/work/i-cube/I-CUBE-HUAWEI/Drivers/BSP/Components/lps22hh\lps22hh_reg.c ****   * @param  ctx      read / write interface definitions
 605:D:/fchai/work/i-cube/I-CUBE-HUAWEI/Drivers/BSP/Components/lps22hh\lps22hh_reg.c ****   * @param  buff     buffer that stores data read
 606:D:/fchai/work/i-cube/I-CUBE-HUAWEI/Drivers/BSP/Components/lps22hh\lps22hh_reg.c ****   * @retval          interface status (MANDATORY: return 0 -> no Error)
 607:D:/fchai/work/i-cube/I-CUBE-HUAWEI/Drivers/BSP/Components/lps22hh\lps22hh_reg.c ****   *
 608:D:/fchai/work/i-cube/I-CUBE-HUAWEI/Drivers/BSP/Components/lps22hh\lps22hh_reg.c ****   */
 609:D:/fchai/work/i-cube/I-CUBE-HUAWEI/Drivers/BSP/Components/lps22hh\lps22hh_reg.c **** int32_t lps22hh_fifo_pressure_raw_get(stmdev_ctx_t *ctx, uint8_t *buff)
 610:D:/fchai/work/i-cube/I-CUBE-HUAWEI/Drivers/BSP/Components/lps22hh\lps22hh_reg.c **** {
 2311              		.loc 1 610 1 is_stmt 1 view -0
 2312              		.cfi_startproc
 2313              		@ args = 0, pretend = 0, frame = 0
 2314              		@ frame_needed = 0, uses_anonymous_args = 0
 2315              		@ link register save eliminated.
 611:D:/fchai/work/i-cube/I-CUBE-HUAWEI/Drivers/BSP/Components/lps22hh\lps22hh_reg.c ****   int32_t ret;
 2316              		.loc 1 611 3 view .LVU643
 612:D:/fchai/work/i-cube/I-CUBE-HUAWEI/Drivers/BSP/Components/lps22hh\lps22hh_reg.c ****   ret =  lps22hh_read_reg(ctx, LPS22HH_FIFO_DATA_OUT_PRESS_XL, buff, 3);
 2317              		.loc 1 612 3 view .LVU644
 610:D:/fchai/work/i-cube/I-CUBE-HUAWEI/Drivers/BSP/Components/lps22hh\lps22hh_reg.c ****   int32_t ret;
 2318              		.loc 1 610 1 is_stmt 0 view .LVU645
 2319 0000 10B4     		push	{r4}
 2320              	.LCFI64:
 2321              		.cfi_def_cfa_offset 4
 2322              		.cfi_offset 4, -4
 2323              	.LBB358:
 2324              	.LBB359:
  53:D:/fchai/work/i-cube/I-CUBE-HUAWEI/Drivers/BSP/Components/lps22hh\lps22hh_reg.c ****   return ret;
 2325              		.loc 1 53 9 view .LVU646
 2326 0002 D0E90140 		ldrd	r4, r0, [r0, #4]
 2327              	.LVL181:
  53:D:/fchai/work/i-cube/I-CUBE-HUAWEI/Drivers/BSP/Components/lps22hh\lps22hh_reg.c ****   return ret;
 2328              		.loc 1 53 9 view .LVU647
 2329              	.LBE359:
 2330              	.LBE358:
 610:D:/fchai/work/i-cube/I-CUBE-HUAWEI/Drivers/BSP/Components/lps22hh\lps22hh_reg.c ****   int32_t ret;
 2331              		.loc 1 610 1 view .LVU648
 2332 0006 0A46     		mov	r2, r1
 2333              	.LVL182:
 2334              	.LBB362:
 2335              	.LBI358:
  49:D:/fchai/work/i-cube/I-CUBE-HUAWEI/Drivers/BSP/Components/lps22hh\lps22hh_reg.c ****                          uint16_t len)
 2336              		.loc 1 49 9 is_stmt 1 view .LVU649
 2337              	.LBB360:
  52:D:/fchai/work/i-cube/I-CUBE-HUAWEI/Drivers/BSP/Components/lps22hh\lps22hh_reg.c ****   ret = ctx->read_reg(ctx->handle, reg, data, len);
 2338              		.loc 1 52 3 view .LVU650
ARM GAS  T:\msys\tmp\ccdfMMY7.s 			page 59


  53:D:/fchai/work/i-cube/I-CUBE-HUAWEI/Drivers/BSP/Components/lps22hh\lps22hh_reg.c ****   return ret;
 2339              		.loc 1 53 3 view .LVU651
  53:D:/fchai/work/i-cube/I-CUBE-HUAWEI/Drivers/BSP/Components/lps22hh\lps22hh_reg.c ****   return ret;
 2340              		.loc 1 53 9 is_stmt 0 view .LVU652
 2341 0008 A446     		mov	ip, r4
 2342 000a 0323     		movs	r3, #3
 2343              	.LBE360:
 2344              	.LBE362:
 613:D:/fchai/work/i-cube/I-CUBE-HUAWEI/Drivers/BSP/Components/lps22hh\lps22hh_reg.c ****   return ret;
 614:D:/fchai/work/i-cube/I-CUBE-HUAWEI/Drivers/BSP/Components/lps22hh\lps22hh_reg.c **** }
 2345              		.loc 1 614 1 view .LVU653
 2346 000c 5DF8044B 		ldr	r4, [sp], #4
 2347              	.LCFI65:
 2348              		.cfi_restore 4
 2349              		.cfi_def_cfa_offset 0
 2350              	.LBB363:
 2351              	.LBB361:
  53:D:/fchai/work/i-cube/I-CUBE-HUAWEI/Drivers/BSP/Components/lps22hh\lps22hh_reg.c ****   return ret;
 2352              		.loc 1 53 9 view .LVU654
 2353 0010 7821     		movs	r1, #120
 2354              	.LVL183:
  53:D:/fchai/work/i-cube/I-CUBE-HUAWEI/Drivers/BSP/Components/lps22hh\lps22hh_reg.c ****   return ret;
 2355              		.loc 1 53 9 view .LVU655
 2356 0012 6047     		bx	ip
 2357              	.LVL184:
  53:D:/fchai/work/i-cube/I-CUBE-HUAWEI/Drivers/BSP/Components/lps22hh\lps22hh_reg.c ****   return ret;
 2358              		.loc 1 53 9 view .LVU656
 2359              	.LBE361:
 2360              	.LBE363:
 2361              		.cfi_endproc
 2362              	.LFE26:
 2364              		.section	.text.lps22hh_fifo_temperature_raw_get,"ax",%progbits
 2365              		.align	1
 2366              		.p2align 2,,3
 2367              		.global	lps22hh_fifo_temperature_raw_get
 2368              		.syntax unified
 2369              		.thumb
 2370              		.thumb_func
 2371              		.fpu fpv4-sp-d16
 2373              	lps22hh_fifo_temperature_raw_get:
 2374              	.LVL185:
 2375              	.LFB27:
 615:D:/fchai/work/i-cube/I-CUBE-HUAWEI/Drivers/BSP/Components/lps22hh\lps22hh_reg.c **** 
 616:D:/fchai/work/i-cube/I-CUBE-HUAWEI/Drivers/BSP/Components/lps22hh\lps22hh_reg.c **** /**
 617:D:/fchai/work/i-cube/I-CUBE-HUAWEI/Drivers/BSP/Components/lps22hh\lps22hh_reg.c ****   * @brief  Temperature output from FIFO value.[get]
 618:D:/fchai/work/i-cube/I-CUBE-HUAWEI/Drivers/BSP/Components/lps22hh\lps22hh_reg.c ****   *
 619:D:/fchai/work/i-cube/I-CUBE-HUAWEI/Drivers/BSP/Components/lps22hh\lps22hh_reg.c ****   * @param  ctx      read / write interface definitions
 620:D:/fchai/work/i-cube/I-CUBE-HUAWEI/Drivers/BSP/Components/lps22hh\lps22hh_reg.c ****   * @param  buff     buffer that stores data read
 621:D:/fchai/work/i-cube/I-CUBE-HUAWEI/Drivers/BSP/Components/lps22hh\lps22hh_reg.c ****   * @retval          interface status (MANDATORY: return 0 -> no Error)
 622:D:/fchai/work/i-cube/I-CUBE-HUAWEI/Drivers/BSP/Components/lps22hh\lps22hh_reg.c ****   *
 623:D:/fchai/work/i-cube/I-CUBE-HUAWEI/Drivers/BSP/Components/lps22hh\lps22hh_reg.c ****   */
 624:D:/fchai/work/i-cube/I-CUBE-HUAWEI/Drivers/BSP/Components/lps22hh\lps22hh_reg.c **** int32_t lps22hh_fifo_temperature_raw_get(stmdev_ctx_t *ctx, uint8_t *buff)
 625:D:/fchai/work/i-cube/I-CUBE-HUAWEI/Drivers/BSP/Components/lps22hh\lps22hh_reg.c **** {
 2376              		.loc 1 625 1 is_stmt 1 view -0
 2377              		.cfi_startproc
 2378              		@ args = 0, pretend = 0, frame = 0
 2379              		@ frame_needed = 0, uses_anonymous_args = 0
ARM GAS  T:\msys\tmp\ccdfMMY7.s 			page 60


 2380              		@ link register save eliminated.
 626:D:/fchai/work/i-cube/I-CUBE-HUAWEI/Drivers/BSP/Components/lps22hh\lps22hh_reg.c ****   int32_t ret;
 2381              		.loc 1 626 3 view .LVU658
 627:D:/fchai/work/i-cube/I-CUBE-HUAWEI/Drivers/BSP/Components/lps22hh\lps22hh_reg.c ****   ret =  lps22hh_read_reg(ctx, LPS22HH_FIFO_DATA_OUT_TEMP_L, buff, 2);
 2382              		.loc 1 627 3 view .LVU659
 625:D:/fchai/work/i-cube/I-CUBE-HUAWEI/Drivers/BSP/Components/lps22hh\lps22hh_reg.c ****   int32_t ret;
 2383              		.loc 1 625 1 is_stmt 0 view .LVU660
 2384 0000 10B4     		push	{r4}
 2385              	.LCFI66:
 2386              		.cfi_def_cfa_offset 4
 2387              		.cfi_offset 4, -4
 2388              	.LBB364:
 2389              	.LBB365:
  53:D:/fchai/work/i-cube/I-CUBE-HUAWEI/Drivers/BSP/Components/lps22hh\lps22hh_reg.c ****   return ret;
 2390              		.loc 1 53 9 view .LVU661
 2391 0002 D0E90140 		ldrd	r4, r0, [r0, #4]
 2392              	.LVL186:
  53:D:/fchai/work/i-cube/I-CUBE-HUAWEI/Drivers/BSP/Components/lps22hh\lps22hh_reg.c ****   return ret;
 2393              		.loc 1 53 9 view .LVU662
 2394              	.LBE365:
 2395              	.LBE364:
 625:D:/fchai/work/i-cube/I-CUBE-HUAWEI/Drivers/BSP/Components/lps22hh\lps22hh_reg.c ****   int32_t ret;
 2396              		.loc 1 625 1 view .LVU663
 2397 0006 0A46     		mov	r2, r1
 2398              	.LVL187:
 2399              	.LBB368:
 2400              	.LBI364:
  49:D:/fchai/work/i-cube/I-CUBE-HUAWEI/Drivers/BSP/Components/lps22hh\lps22hh_reg.c ****                          uint16_t len)
 2401              		.loc 1 49 9 is_stmt 1 view .LVU664
 2402              	.LBB366:
  52:D:/fchai/work/i-cube/I-CUBE-HUAWEI/Drivers/BSP/Components/lps22hh\lps22hh_reg.c ****   ret = ctx->read_reg(ctx->handle, reg, data, len);
 2403              		.loc 1 52 3 view .LVU665
  53:D:/fchai/work/i-cube/I-CUBE-HUAWEI/Drivers/BSP/Components/lps22hh\lps22hh_reg.c ****   return ret;
 2404              		.loc 1 53 3 view .LVU666
  53:D:/fchai/work/i-cube/I-CUBE-HUAWEI/Drivers/BSP/Components/lps22hh\lps22hh_reg.c ****   return ret;
 2405              		.loc 1 53 9 is_stmt 0 view .LVU667
 2406 0008 A446     		mov	ip, r4
 2407 000a 0223     		movs	r3, #2
 2408              	.LBE366:
 2409              	.LBE368:
 628:D:/fchai/work/i-cube/I-CUBE-HUAWEI/Drivers/BSP/Components/lps22hh\lps22hh_reg.c ****   return ret;
 629:D:/fchai/work/i-cube/I-CUBE-HUAWEI/Drivers/BSP/Components/lps22hh\lps22hh_reg.c **** }
 2410              		.loc 1 629 1 view .LVU668
 2411 000c 5DF8044B 		ldr	r4, [sp], #4
 2412              	.LCFI67:
 2413              		.cfi_restore 4
 2414              		.cfi_def_cfa_offset 0
 2415              	.LBB369:
 2416              	.LBB367:
  53:D:/fchai/work/i-cube/I-CUBE-HUAWEI/Drivers/BSP/Components/lps22hh\lps22hh_reg.c ****   return ret;
 2417              		.loc 1 53 9 view .LVU669
 2418 0010 7B21     		movs	r1, #123
 2419              	.LVL188:
  53:D:/fchai/work/i-cube/I-CUBE-HUAWEI/Drivers/BSP/Components/lps22hh\lps22hh_reg.c ****   return ret;
 2420              		.loc 1 53 9 view .LVU670
 2421 0012 6047     		bx	ip
 2422              	.LVL189:
ARM GAS  T:\msys\tmp\ccdfMMY7.s 			page 61


  53:D:/fchai/work/i-cube/I-CUBE-HUAWEI/Drivers/BSP/Components/lps22hh\lps22hh_reg.c ****   return ret;
 2423              		.loc 1 53 9 view .LVU671
 2424              	.LBE367:
 2425              	.LBE369:
 2426              		.cfi_endproc
 2427              	.LFE27:
 2429              		.section	.text.lps22hh_device_id_get,"ax",%progbits
 2430              		.align	1
 2431              		.p2align 2,,3
 2432              		.global	lps22hh_device_id_get
 2433              		.syntax unified
 2434              		.thumb
 2435              		.thumb_func
 2436              		.fpu fpv4-sp-d16
 2438              	lps22hh_device_id_get:
 2439              	.LVL190:
 2440              	.LFB28:
 630:D:/fchai/work/i-cube/I-CUBE-HUAWEI/Drivers/BSP/Components/lps22hh\lps22hh_reg.c **** 
 631:D:/fchai/work/i-cube/I-CUBE-HUAWEI/Drivers/BSP/Components/lps22hh\lps22hh_reg.c **** /**
 632:D:/fchai/work/i-cube/I-CUBE-HUAWEI/Drivers/BSP/Components/lps22hh\lps22hh_reg.c ****   * @}
 633:D:/fchai/work/i-cube/I-CUBE-HUAWEI/Drivers/BSP/Components/lps22hh\lps22hh_reg.c ****   *
 634:D:/fchai/work/i-cube/I-CUBE-HUAWEI/Drivers/BSP/Components/lps22hh\lps22hh_reg.c ****   */
 635:D:/fchai/work/i-cube/I-CUBE-HUAWEI/Drivers/BSP/Components/lps22hh\lps22hh_reg.c **** 
 636:D:/fchai/work/i-cube/I-CUBE-HUAWEI/Drivers/BSP/Components/lps22hh\lps22hh_reg.c **** /**
 637:D:/fchai/work/i-cube/I-CUBE-HUAWEI/Drivers/BSP/Components/lps22hh\lps22hh_reg.c ****   * @defgroup  LPS22HH_Common
 638:D:/fchai/work/i-cube/I-CUBE-HUAWEI/Drivers/BSP/Components/lps22hh\lps22hh_reg.c ****   * @brief     This section groups common useful functions.
 639:D:/fchai/work/i-cube/I-CUBE-HUAWEI/Drivers/BSP/Components/lps22hh\lps22hh_reg.c ****   * @{
 640:D:/fchai/work/i-cube/I-CUBE-HUAWEI/Drivers/BSP/Components/lps22hh\lps22hh_reg.c ****   *
 641:D:/fchai/work/i-cube/I-CUBE-HUAWEI/Drivers/BSP/Components/lps22hh\lps22hh_reg.c ****   */
 642:D:/fchai/work/i-cube/I-CUBE-HUAWEI/Drivers/BSP/Components/lps22hh\lps22hh_reg.c **** 
 643:D:/fchai/work/i-cube/I-CUBE-HUAWEI/Drivers/BSP/Components/lps22hh\lps22hh_reg.c **** /**
 644:D:/fchai/work/i-cube/I-CUBE-HUAWEI/Drivers/BSP/Components/lps22hh\lps22hh_reg.c ****   * @brief  DeviceWhoamI[get]
 645:D:/fchai/work/i-cube/I-CUBE-HUAWEI/Drivers/BSP/Components/lps22hh\lps22hh_reg.c ****   *
 646:D:/fchai/work/i-cube/I-CUBE-HUAWEI/Drivers/BSP/Components/lps22hh\lps22hh_reg.c ****   * @param  ctx      read / write interface definitions
 647:D:/fchai/work/i-cube/I-CUBE-HUAWEI/Drivers/BSP/Components/lps22hh\lps22hh_reg.c ****   * @param  buff     buffer that stores data read
 648:D:/fchai/work/i-cube/I-CUBE-HUAWEI/Drivers/BSP/Components/lps22hh\lps22hh_reg.c ****   * @retval          interface status (MANDATORY: return 0 -> no Error)
 649:D:/fchai/work/i-cube/I-CUBE-HUAWEI/Drivers/BSP/Components/lps22hh\lps22hh_reg.c ****   *
 650:D:/fchai/work/i-cube/I-CUBE-HUAWEI/Drivers/BSP/Components/lps22hh\lps22hh_reg.c ****   */
 651:D:/fchai/work/i-cube/I-CUBE-HUAWEI/Drivers/BSP/Components/lps22hh\lps22hh_reg.c **** int32_t lps22hh_device_id_get(stmdev_ctx_t *ctx, uint8_t *buff)
 652:D:/fchai/work/i-cube/I-CUBE-HUAWEI/Drivers/BSP/Components/lps22hh\lps22hh_reg.c **** {
 2441              		.loc 1 652 1 is_stmt 1 view -0
 2442              		.cfi_startproc
 2443              		@ args = 0, pretend = 0, frame = 0
 2444              		@ frame_needed = 0, uses_anonymous_args = 0
 2445              		@ link register save eliminated.
 653:D:/fchai/work/i-cube/I-CUBE-HUAWEI/Drivers/BSP/Components/lps22hh\lps22hh_reg.c ****   int32_t ret;
 2446              		.loc 1 653 3 view .LVU673
 654:D:/fchai/work/i-cube/I-CUBE-HUAWEI/Drivers/BSP/Components/lps22hh\lps22hh_reg.c ****   ret =  lps22hh_read_reg(ctx, LPS22HH_WHO_AM_I, buff, 1);
 2447              		.loc 1 654 3 view .LVU674
 652:D:/fchai/work/i-cube/I-CUBE-HUAWEI/Drivers/BSP/Components/lps22hh\lps22hh_reg.c ****   int32_t ret;
 2448              		.loc 1 652 1 is_stmt 0 view .LVU675
 2449 0000 10B4     		push	{r4}
 2450              	.LCFI68:
 2451              		.cfi_def_cfa_offset 4
 2452              		.cfi_offset 4, -4
 2453              	.LBB370:
 2454              	.LBB371:
ARM GAS  T:\msys\tmp\ccdfMMY7.s 			page 62


  53:D:/fchai/work/i-cube/I-CUBE-HUAWEI/Drivers/BSP/Components/lps22hh\lps22hh_reg.c ****   return ret;
 2455              		.loc 1 53 9 view .LVU676
 2456 0002 D0E90140 		ldrd	r4, r0, [r0, #4]
 2457              	.LVL191:
  53:D:/fchai/work/i-cube/I-CUBE-HUAWEI/Drivers/BSP/Components/lps22hh\lps22hh_reg.c ****   return ret;
 2458              		.loc 1 53 9 view .LVU677
 2459              	.LBE371:
 2460              	.LBE370:
 652:D:/fchai/work/i-cube/I-CUBE-HUAWEI/Drivers/BSP/Components/lps22hh\lps22hh_reg.c ****   int32_t ret;
 2461              		.loc 1 652 1 view .LVU678
 2462 0006 0A46     		mov	r2, r1
 2463              	.LVL192:
 2464              	.LBB374:
 2465              	.LBI370:
  49:D:/fchai/work/i-cube/I-CUBE-HUAWEI/Drivers/BSP/Components/lps22hh\lps22hh_reg.c ****                          uint16_t len)
 2466              		.loc 1 49 9 is_stmt 1 view .LVU679
 2467              	.LBB372:
  52:D:/fchai/work/i-cube/I-CUBE-HUAWEI/Drivers/BSP/Components/lps22hh\lps22hh_reg.c ****   ret = ctx->read_reg(ctx->handle, reg, data, len);
 2468              		.loc 1 52 3 view .LVU680
  53:D:/fchai/work/i-cube/I-CUBE-HUAWEI/Drivers/BSP/Components/lps22hh\lps22hh_reg.c ****   return ret;
 2469              		.loc 1 53 3 view .LVU681
  53:D:/fchai/work/i-cube/I-CUBE-HUAWEI/Drivers/BSP/Components/lps22hh\lps22hh_reg.c ****   return ret;
 2470              		.loc 1 53 9 is_stmt 0 view .LVU682
 2471 0008 A446     		mov	ip, r4
 2472 000a 0123     		movs	r3, #1
 2473              	.LBE372:
 2474              	.LBE374:
 655:D:/fchai/work/i-cube/I-CUBE-HUAWEI/Drivers/BSP/Components/lps22hh\lps22hh_reg.c ****   return ret;
 656:D:/fchai/work/i-cube/I-CUBE-HUAWEI/Drivers/BSP/Components/lps22hh\lps22hh_reg.c **** }
 2475              		.loc 1 656 1 view .LVU683
 2476 000c 5DF8044B 		ldr	r4, [sp], #4
 2477              	.LCFI69:
 2478              		.cfi_restore 4
 2479              		.cfi_def_cfa_offset 0
 2480              	.LBB375:
 2481              	.LBB373:
  53:D:/fchai/work/i-cube/I-CUBE-HUAWEI/Drivers/BSP/Components/lps22hh\lps22hh_reg.c ****   return ret;
 2482              		.loc 1 53 9 view .LVU684
 2483 0010 0F21     		movs	r1, #15
 2484              	.LVL193:
  53:D:/fchai/work/i-cube/I-CUBE-HUAWEI/Drivers/BSP/Components/lps22hh\lps22hh_reg.c ****   return ret;
 2485              		.loc 1 53 9 view .LVU685
 2486 0012 6047     		bx	ip
 2487              	.LVL194:
  53:D:/fchai/work/i-cube/I-CUBE-HUAWEI/Drivers/BSP/Components/lps22hh\lps22hh_reg.c ****   return ret;
 2488              		.loc 1 53 9 view .LVU686
 2489              	.LBE373:
 2490              	.LBE375:
 2491              		.cfi_endproc
 2492              	.LFE28:
 2494              		.section	.text.lps22hh_reset_set,"ax",%progbits
 2495              		.align	1
 2496              		.p2align 2,,3
 2497              		.global	lps22hh_reset_set
 2498              		.syntax unified
 2499              		.thumb
 2500              		.thumb_func
ARM GAS  T:\msys\tmp\ccdfMMY7.s 			page 63


 2501              		.fpu fpv4-sp-d16
 2503              	lps22hh_reset_set:
 2504              	.LVL195:
 2505              	.LFB29:
 657:D:/fchai/work/i-cube/I-CUBE-HUAWEI/Drivers/BSP/Components/lps22hh\lps22hh_reg.c **** 
 658:D:/fchai/work/i-cube/I-CUBE-HUAWEI/Drivers/BSP/Components/lps22hh\lps22hh_reg.c **** /**
 659:D:/fchai/work/i-cube/I-CUBE-HUAWEI/Drivers/BSP/Components/lps22hh\lps22hh_reg.c ****   * @brief  Software reset. Restore the default values
 660:D:/fchai/work/i-cube/I-CUBE-HUAWEI/Drivers/BSP/Components/lps22hh\lps22hh_reg.c ****   *         in user registers.[set]
 661:D:/fchai/work/i-cube/I-CUBE-HUAWEI/Drivers/BSP/Components/lps22hh\lps22hh_reg.c ****   *
 662:D:/fchai/work/i-cube/I-CUBE-HUAWEI/Drivers/BSP/Components/lps22hh\lps22hh_reg.c ****   * @param  ctx      read / write interface definitions
 663:D:/fchai/work/i-cube/I-CUBE-HUAWEI/Drivers/BSP/Components/lps22hh\lps22hh_reg.c ****   * @param  val      change the values of swreset in reg CTRL_REG2
 664:D:/fchai/work/i-cube/I-CUBE-HUAWEI/Drivers/BSP/Components/lps22hh\lps22hh_reg.c ****   * @retval          interface status (MANDATORY: return 0 -> no Error)
 665:D:/fchai/work/i-cube/I-CUBE-HUAWEI/Drivers/BSP/Components/lps22hh\lps22hh_reg.c ****   *
 666:D:/fchai/work/i-cube/I-CUBE-HUAWEI/Drivers/BSP/Components/lps22hh\lps22hh_reg.c ****   */
 667:D:/fchai/work/i-cube/I-CUBE-HUAWEI/Drivers/BSP/Components/lps22hh\lps22hh_reg.c **** int32_t lps22hh_reset_set(stmdev_ctx_t *ctx, uint8_t val)
 668:D:/fchai/work/i-cube/I-CUBE-HUAWEI/Drivers/BSP/Components/lps22hh\lps22hh_reg.c **** {
 2506              		.loc 1 668 1 is_stmt 1 view -0
 2507              		.cfi_startproc
 2508              		@ args = 0, pretend = 0, frame = 8
 2509              		@ frame_needed = 0, uses_anonymous_args = 0
 669:D:/fchai/work/i-cube/I-CUBE-HUAWEI/Drivers/BSP/Components/lps22hh\lps22hh_reg.c ****   lps22hh_ctrl_reg2_t reg;
 2510              		.loc 1 669 3 view .LVU688
 670:D:/fchai/work/i-cube/I-CUBE-HUAWEI/Drivers/BSP/Components/lps22hh\lps22hh_reg.c ****   int32_t ret;
 2511              		.loc 1 670 3 view .LVU689
 671:D:/fchai/work/i-cube/I-CUBE-HUAWEI/Drivers/BSP/Components/lps22hh\lps22hh_reg.c **** 
 672:D:/fchai/work/i-cube/I-CUBE-HUAWEI/Drivers/BSP/Components/lps22hh\lps22hh_reg.c ****   ret = lps22hh_read_reg(ctx, LPS22HH_CTRL_REG2, (uint8_t*) &reg, 1);
 2512              		.loc 1 672 3 view .LVU690
 668:D:/fchai/work/i-cube/I-CUBE-HUAWEI/Drivers/BSP/Components/lps22hh\lps22hh_reg.c ****   lps22hh_ctrl_reg2_t reg;
 2513              		.loc 1 668 1 is_stmt 0 view .LVU691
 2514 0000 70B5     		push	{r4, r5, r6, lr}
 2515              	.LCFI70:
 2516              		.cfi_def_cfa_offset 16
 2517              		.cfi_offset 4, -16
 2518              		.cfi_offset 5, -12
 2519              		.cfi_offset 6, -8
 2520              		.cfi_offset 14, -4
 2521 0002 82B0     		sub	sp, sp, #8
 2522              	.LCFI71:
 2523              		.cfi_def_cfa_offset 24
 668:D:/fchai/work/i-cube/I-CUBE-HUAWEI/Drivers/BSP/Components/lps22hh\lps22hh_reg.c ****   lps22hh_ctrl_reg2_t reg;
 2524              		.loc 1 668 1 view .LVU692
 2525 0004 0446     		mov	r4, r0
 2526              	.LVL196:
 2527              	.LBB376:
 2528              	.LBI376:
  49:D:/fchai/work/i-cube/I-CUBE-HUAWEI/Drivers/BSP/Components/lps22hh\lps22hh_reg.c ****                          uint16_t len)
 2529              		.loc 1 49 9 is_stmt 1 view .LVU693
 2530              	.LBB377:
  52:D:/fchai/work/i-cube/I-CUBE-HUAWEI/Drivers/BSP/Components/lps22hh\lps22hh_reg.c ****   ret = ctx->read_reg(ctx->handle, reg, data, len);
 2531              		.loc 1 52 3 view .LVU694
  53:D:/fchai/work/i-cube/I-CUBE-HUAWEI/Drivers/BSP/Components/lps22hh\lps22hh_reg.c ****   return ret;
 2532              		.loc 1 53 3 view .LVU695
 2533              	.LBE377:
 2534              	.LBE376:
 668:D:/fchai/work/i-cube/I-CUBE-HUAWEI/Drivers/BSP/Components/lps22hh\lps22hh_reg.c ****   lps22hh_ctrl_reg2_t reg;
 2535              		.loc 1 668 1 is_stmt 0 view .LVU696
 2536 0006 0D46     		mov	r5, r1
ARM GAS  T:\msys\tmp\ccdfMMY7.s 			page 64


 2537              	.LBB379:
 2538              	.LBB378:
  53:D:/fchai/work/i-cube/I-CUBE-HUAWEI/Drivers/BSP/Components/lps22hh\lps22hh_reg.c ****   return ret;
 2539              		.loc 1 53 9 view .LVU697
 2540 0008 D0E90160 		ldrd	r6, r0, [r0, #4]
 2541              	.LVL197:
  53:D:/fchai/work/i-cube/I-CUBE-HUAWEI/Drivers/BSP/Components/lps22hh\lps22hh_reg.c ****   return ret;
 2542              		.loc 1 53 9 view .LVU698
 2543 000c 01AA     		add	r2, sp, #4
 2544              	.LVL198:
  53:D:/fchai/work/i-cube/I-CUBE-HUAWEI/Drivers/BSP/Components/lps22hh\lps22hh_reg.c ****   return ret;
 2545              		.loc 1 53 9 view .LVU699
 2546 000e 0123     		movs	r3, #1
 2547 0010 1121     		movs	r1, #17
 2548              	.LVL199:
  53:D:/fchai/work/i-cube/I-CUBE-HUAWEI/Drivers/BSP/Components/lps22hh\lps22hh_reg.c ****   return ret;
 2549              		.loc 1 53 9 view .LVU700
 2550 0012 B047     		blx	r6
 2551              	.LVL200:
  54:D:/fchai/work/i-cube/I-CUBE-HUAWEI/Drivers/BSP/Components/lps22hh\lps22hh_reg.c **** }
 2552              		.loc 1 54 3 is_stmt 1 view .LVU701
  54:D:/fchai/work/i-cube/I-CUBE-HUAWEI/Drivers/BSP/Components/lps22hh\lps22hh_reg.c **** }
 2553              		.loc 1 54 3 is_stmt 0 view .LVU702
 2554              	.LBE378:
 2555              	.LBE379:
 673:D:/fchai/work/i-cube/I-CUBE-HUAWEI/Drivers/BSP/Components/lps22hh\lps22hh_reg.c ****   if (ret == 0) {
 2556              		.loc 1 673 3 is_stmt 1 view .LVU703
 2557              		.loc 1 673 6 is_stmt 0 view .LVU704
 2558 0014 58B9     		cbnz	r0, .L84
 674:D:/fchai/work/i-cube/I-CUBE-HUAWEI/Drivers/BSP/Components/lps22hh\lps22hh_reg.c ****     reg.swreset = val;
 2559              		.loc 1 674 5 is_stmt 1 view .LVU705
 2560              		.loc 1 674 17 is_stmt 0 view .LVU706
 2561 0016 9DF80430 		ldrb	r3, [sp, #4]	@ zero_extendqisi2
 2562              	.LBB380:
 2563              	.LBB381:
  71:D:/fchai/work/i-cube/I-CUBE-HUAWEI/Drivers/BSP/Components/lps22hh\lps22hh_reg.c ****   return ret;
 2564              		.loc 1 71 9 view .LVU707
 2565 001a 2668     		ldr	r6, [r4]
 2566 001c A068     		ldr	r0, [r4, #8]
 2567              	.LVL201:
  71:D:/fchai/work/i-cube/I-CUBE-HUAWEI/Drivers/BSP/Components/lps22hh\lps22hh_reg.c ****   return ret;
 2568              		.loc 1 71 9 view .LVU708
 2569              	.LBE381:
 2570              	.LBE380:
 2571              		.loc 1 674 17 view .LVU709
 2572 001e 65F38203 		bfi	r3, r5, #2, #1
 2573 0022 8DF80430 		strb	r3, [sp, #4]
 675:D:/fchai/work/i-cube/I-CUBE-HUAWEI/Drivers/BSP/Components/lps22hh\lps22hh_reg.c ****     ret = lps22hh_write_reg(ctx, LPS22HH_CTRL_REG2, (uint8_t*) &reg, 1);
 2574              		.loc 1 675 5 is_stmt 1 view .LVU710
 2575              	.LVL202:
 2576              	.LBB383:
 2577              	.LBI380:
  67:D:/fchai/work/i-cube/I-CUBE-HUAWEI/Drivers/BSP/Components/lps22hh\lps22hh_reg.c ****                            uint16_t len)
 2578              		.loc 1 67 9 view .LVU711
 2579              	.LBB382:
  70:D:/fchai/work/i-cube/I-CUBE-HUAWEI/Drivers/BSP/Components/lps22hh\lps22hh_reg.c ****   ret = ctx->write_reg(ctx->handle, reg, data, len);
 2580              		.loc 1 70 3 view .LVU712
ARM GAS  T:\msys\tmp\ccdfMMY7.s 			page 65


  71:D:/fchai/work/i-cube/I-CUBE-HUAWEI/Drivers/BSP/Components/lps22hh\lps22hh_reg.c ****   return ret;
 2581              		.loc 1 71 3 view .LVU713
  71:D:/fchai/work/i-cube/I-CUBE-HUAWEI/Drivers/BSP/Components/lps22hh\lps22hh_reg.c ****   return ret;
 2582              		.loc 1 71 9 is_stmt 0 view .LVU714
 2583 0026 01AA     		add	r2, sp, #4
 2584              	.LVL203:
  71:D:/fchai/work/i-cube/I-CUBE-HUAWEI/Drivers/BSP/Components/lps22hh\lps22hh_reg.c ****   return ret;
 2585              		.loc 1 71 9 view .LVU715
 2586 0028 0123     		movs	r3, #1
 2587 002a 1121     		movs	r1, #17
 2588 002c B047     		blx	r6
 2589              	.LVL204:
  72:D:/fchai/work/i-cube/I-CUBE-HUAWEI/Drivers/BSP/Components/lps22hh\lps22hh_reg.c **** }
 2590              		.loc 1 72 3 is_stmt 1 view .LVU716
  72:D:/fchai/work/i-cube/I-CUBE-HUAWEI/Drivers/BSP/Components/lps22hh\lps22hh_reg.c **** }
 2591              		.loc 1 72 3 is_stmt 0 view .LVU717
 2592              	.LBE382:
 2593              	.LBE383:
 676:D:/fchai/work/i-cube/I-CUBE-HUAWEI/Drivers/BSP/Components/lps22hh\lps22hh_reg.c ****   }
 677:D:/fchai/work/i-cube/I-CUBE-HUAWEI/Drivers/BSP/Components/lps22hh\lps22hh_reg.c ****   return ret;
 2594              		.loc 1 677 3 is_stmt 1 view .LVU718
 2595              	.L84:
 678:D:/fchai/work/i-cube/I-CUBE-HUAWEI/Drivers/BSP/Components/lps22hh\lps22hh_reg.c **** }
 2596              		.loc 1 678 1 is_stmt 0 view .LVU719
 2597 002e 02B0     		add	sp, sp, #8
 2598              	.LCFI72:
 2599              		.cfi_def_cfa_offset 16
 2600              		@ sp needed
 2601 0030 70BD     		pop	{r4, r5, r6, pc}
 2602              		.loc 1 678 1 view .LVU720
 2603              		.cfi_endproc
 2604              	.LFE29:
 2606 0032 00BF     		.section	.text.lps22hh_reset_get,"ax",%progbits
 2607              		.align	1
 2608              		.p2align 2,,3
 2609              		.global	lps22hh_reset_get
 2610              		.syntax unified
 2611              		.thumb
 2612              		.thumb_func
 2613              		.fpu fpv4-sp-d16
 2615              	lps22hh_reset_get:
 2616              	.LVL205:
 2617              	.LFB30:
 679:D:/fchai/work/i-cube/I-CUBE-HUAWEI/Drivers/BSP/Components/lps22hh\lps22hh_reg.c **** 
 680:D:/fchai/work/i-cube/I-CUBE-HUAWEI/Drivers/BSP/Components/lps22hh\lps22hh_reg.c **** /**
 681:D:/fchai/work/i-cube/I-CUBE-HUAWEI/Drivers/BSP/Components/lps22hh\lps22hh_reg.c ****   * @brief   Software reset. Restore the default values
 682:D:/fchai/work/i-cube/I-CUBE-HUAWEI/Drivers/BSP/Components/lps22hh\lps22hh_reg.c ****   *          in user registers.[get]
 683:D:/fchai/work/i-cube/I-CUBE-HUAWEI/Drivers/BSP/Components/lps22hh\lps22hh_reg.c ****   *
 684:D:/fchai/work/i-cube/I-CUBE-HUAWEI/Drivers/BSP/Components/lps22hh\lps22hh_reg.c ****   * @param  ctx      read / write interface definitions
 685:D:/fchai/work/i-cube/I-CUBE-HUAWEI/Drivers/BSP/Components/lps22hh\lps22hh_reg.c ****   * @param  val      change the values of swreset in reg CTRL_REG2
 686:D:/fchai/work/i-cube/I-CUBE-HUAWEI/Drivers/BSP/Components/lps22hh\lps22hh_reg.c ****   * @retval          interface status (MANDATORY: return 0 -> no Error)
 687:D:/fchai/work/i-cube/I-CUBE-HUAWEI/Drivers/BSP/Components/lps22hh\lps22hh_reg.c ****   *
 688:D:/fchai/work/i-cube/I-CUBE-HUAWEI/Drivers/BSP/Components/lps22hh\lps22hh_reg.c ****   */
 689:D:/fchai/work/i-cube/I-CUBE-HUAWEI/Drivers/BSP/Components/lps22hh\lps22hh_reg.c **** int32_t lps22hh_reset_get(stmdev_ctx_t *ctx, uint8_t *val)
 690:D:/fchai/work/i-cube/I-CUBE-HUAWEI/Drivers/BSP/Components/lps22hh\lps22hh_reg.c **** {
 2618              		.loc 1 690 1 is_stmt 1 view -0
 2619              		.cfi_startproc
ARM GAS  T:\msys\tmp\ccdfMMY7.s 			page 66


 2620              		@ args = 0, pretend = 0, frame = 8
 2621              		@ frame_needed = 0, uses_anonymous_args = 0
 691:D:/fchai/work/i-cube/I-CUBE-HUAWEI/Drivers/BSP/Components/lps22hh\lps22hh_reg.c ****   lps22hh_ctrl_reg2_t reg;
 2622              		.loc 1 691 3 view .LVU722
 692:D:/fchai/work/i-cube/I-CUBE-HUAWEI/Drivers/BSP/Components/lps22hh\lps22hh_reg.c ****   int32_t ret;
 2623              		.loc 1 692 3 view .LVU723
 693:D:/fchai/work/i-cube/I-CUBE-HUAWEI/Drivers/BSP/Components/lps22hh\lps22hh_reg.c **** 
 694:D:/fchai/work/i-cube/I-CUBE-HUAWEI/Drivers/BSP/Components/lps22hh\lps22hh_reg.c ****   ret = lps22hh_read_reg(ctx, LPS22HH_CTRL_REG2, (uint8_t*) &reg, 1);
 2624              		.loc 1 694 3 view .LVU724
 690:D:/fchai/work/i-cube/I-CUBE-HUAWEI/Drivers/BSP/Components/lps22hh\lps22hh_reg.c ****   lps22hh_ctrl_reg2_t reg;
 2625              		.loc 1 690 1 is_stmt 0 view .LVU725
 2626 0000 30B5     		push	{r4, r5, lr}
 2627              	.LCFI73:
 2628              		.cfi_def_cfa_offset 12
 2629              		.cfi_offset 4, -12
 2630              		.cfi_offset 5, -8
 2631              		.cfi_offset 14, -4
 2632 0002 83B0     		sub	sp, sp, #12
 2633              	.LCFI74:
 2634              		.cfi_def_cfa_offset 24
 2635              	.LVL206:
 2636              	.LBB384:
 2637              	.LBI384:
  49:D:/fchai/work/i-cube/I-CUBE-HUAWEI/Drivers/BSP/Components/lps22hh\lps22hh_reg.c ****                          uint16_t len)
 2638              		.loc 1 49 9 is_stmt 1 view .LVU726
 2639              	.LBB385:
  52:D:/fchai/work/i-cube/I-CUBE-HUAWEI/Drivers/BSP/Components/lps22hh\lps22hh_reg.c ****   ret = ctx->read_reg(ctx->handle, reg, data, len);
 2640              		.loc 1 52 3 view .LVU727
  53:D:/fchai/work/i-cube/I-CUBE-HUAWEI/Drivers/BSP/Components/lps22hh\lps22hh_reg.c ****   return ret;
 2641              		.loc 1 53 3 view .LVU728
 2642              	.LBE385:
 2643              	.LBE384:
 690:D:/fchai/work/i-cube/I-CUBE-HUAWEI/Drivers/BSP/Components/lps22hh\lps22hh_reg.c ****   lps22hh_ctrl_reg2_t reg;
 2644              		.loc 1 690 1 is_stmt 0 view .LVU729
 2645 0004 0C46     		mov	r4, r1
 2646              	.LBB387:
 2647              	.LBB386:
  53:D:/fchai/work/i-cube/I-CUBE-HUAWEI/Drivers/BSP/Components/lps22hh\lps22hh_reg.c ****   return ret;
 2648              		.loc 1 53 9 view .LVU730
 2649 0006 D0E90150 		ldrd	r5, r0, [r0, #4]
 2650              	.LVL207:
  53:D:/fchai/work/i-cube/I-CUBE-HUAWEI/Drivers/BSP/Components/lps22hh\lps22hh_reg.c ****   return ret;
 2651              		.loc 1 53 9 view .LVU731
 2652 000a 0123     		movs	r3, #1
 2653 000c 01AA     		add	r2, sp, #4
 2654              	.LVL208:
  53:D:/fchai/work/i-cube/I-CUBE-HUAWEI/Drivers/BSP/Components/lps22hh\lps22hh_reg.c ****   return ret;
 2655              		.loc 1 53 9 view .LVU732
 2656 000e 1121     		movs	r1, #17
 2657              	.LVL209:
  53:D:/fchai/work/i-cube/I-CUBE-HUAWEI/Drivers/BSP/Components/lps22hh\lps22hh_reg.c ****   return ret;
 2658              		.loc 1 53 9 view .LVU733
 2659 0010 A847     		blx	r5
 2660              	.LVL210:
  54:D:/fchai/work/i-cube/I-CUBE-HUAWEI/Drivers/BSP/Components/lps22hh\lps22hh_reg.c **** }
 2661              		.loc 1 54 3 is_stmt 1 view .LVU734
  54:D:/fchai/work/i-cube/I-CUBE-HUAWEI/Drivers/BSP/Components/lps22hh\lps22hh_reg.c **** }
ARM GAS  T:\msys\tmp\ccdfMMY7.s 			page 67


 2662              		.loc 1 54 3 is_stmt 0 view .LVU735
 2663              	.LBE386:
 2664              	.LBE387:
 695:D:/fchai/work/i-cube/I-CUBE-HUAWEI/Drivers/BSP/Components/lps22hh\lps22hh_reg.c ****   *val = reg.swreset;
 2665              		.loc 1 695 3 is_stmt 1 view .LVU736
 2666              		.loc 1 695 13 is_stmt 0 view .LVU737
 2667 0012 9DF80430 		ldrb	r3, [sp, #4]	@ zero_extendqisi2
 2668 0016 C3F38003 		ubfx	r3, r3, #2, #1
 2669              		.loc 1 695 8 view .LVU738
 2670 001a 2370     		strb	r3, [r4]
 696:D:/fchai/work/i-cube/I-CUBE-HUAWEI/Drivers/BSP/Components/lps22hh\lps22hh_reg.c **** 
 697:D:/fchai/work/i-cube/I-CUBE-HUAWEI/Drivers/BSP/Components/lps22hh\lps22hh_reg.c ****   return ret;
 2671              		.loc 1 697 3 is_stmt 1 view .LVU739
 698:D:/fchai/work/i-cube/I-CUBE-HUAWEI/Drivers/BSP/Components/lps22hh\lps22hh_reg.c **** }
 2672              		.loc 1 698 1 is_stmt 0 view .LVU740
 2673 001c 03B0     		add	sp, sp, #12
 2674              	.LCFI75:
 2675              		.cfi_def_cfa_offset 12
 2676              		@ sp needed
 2677 001e 30BD     		pop	{r4, r5, pc}
 2678              		.loc 1 698 1 view .LVU741
 2679              		.cfi_endproc
 2680              	.LFE30:
 2682              		.section	.text.lps22hh_auto_increment_set,"ax",%progbits
 2683              		.align	1
 2684              		.p2align 2,,3
 2685              		.global	lps22hh_auto_increment_set
 2686              		.syntax unified
 2687              		.thumb
 2688              		.thumb_func
 2689              		.fpu fpv4-sp-d16
 2691              	lps22hh_auto_increment_set:
 2692              	.LVL211:
 2693              	.LFB31:
 699:D:/fchai/work/i-cube/I-CUBE-HUAWEI/Drivers/BSP/Components/lps22hh\lps22hh_reg.c **** 
 700:D:/fchai/work/i-cube/I-CUBE-HUAWEI/Drivers/BSP/Components/lps22hh\lps22hh_reg.c **** /**
 701:D:/fchai/work/i-cube/I-CUBE-HUAWEI/Drivers/BSP/Components/lps22hh\lps22hh_reg.c ****   * @brief  Register address automatically
 702:D:/fchai/work/i-cube/I-CUBE-HUAWEI/Drivers/BSP/Components/lps22hh\lps22hh_reg.c ****   *         incremented during a multiple byte access
 703:D:/fchai/work/i-cube/I-CUBE-HUAWEI/Drivers/BSP/Components/lps22hh\lps22hh_reg.c ****   *         with a serial interface.[set]
 704:D:/fchai/work/i-cube/I-CUBE-HUAWEI/Drivers/BSP/Components/lps22hh\lps22hh_reg.c ****   *
 705:D:/fchai/work/i-cube/I-CUBE-HUAWEI/Drivers/BSP/Components/lps22hh\lps22hh_reg.c ****   * @param  ctx      read / write interface definitions
 706:D:/fchai/work/i-cube/I-CUBE-HUAWEI/Drivers/BSP/Components/lps22hh\lps22hh_reg.c ****   * @param  val      change the values of if_add_inc in reg CTRL_REG2
 707:D:/fchai/work/i-cube/I-CUBE-HUAWEI/Drivers/BSP/Components/lps22hh\lps22hh_reg.c ****   * @retval          interface status (MANDATORY: return 0 -> no Error)
 708:D:/fchai/work/i-cube/I-CUBE-HUAWEI/Drivers/BSP/Components/lps22hh\lps22hh_reg.c ****   *
 709:D:/fchai/work/i-cube/I-CUBE-HUAWEI/Drivers/BSP/Components/lps22hh\lps22hh_reg.c ****   */
 710:D:/fchai/work/i-cube/I-CUBE-HUAWEI/Drivers/BSP/Components/lps22hh\lps22hh_reg.c **** int32_t lps22hh_auto_increment_set(stmdev_ctx_t *ctx, uint8_t val)
 711:D:/fchai/work/i-cube/I-CUBE-HUAWEI/Drivers/BSP/Components/lps22hh\lps22hh_reg.c **** {
 2694              		.loc 1 711 1 is_stmt 1 view -0
 2695              		.cfi_startproc
 2696              		@ args = 0, pretend = 0, frame = 8
 2697              		@ frame_needed = 0, uses_anonymous_args = 0
 712:D:/fchai/work/i-cube/I-CUBE-HUAWEI/Drivers/BSP/Components/lps22hh\lps22hh_reg.c ****   lps22hh_ctrl_reg2_t reg;
 2698              		.loc 1 712 3 view .LVU743
 713:D:/fchai/work/i-cube/I-CUBE-HUAWEI/Drivers/BSP/Components/lps22hh\lps22hh_reg.c ****   int32_t ret;
 2699              		.loc 1 713 3 view .LVU744
 714:D:/fchai/work/i-cube/I-CUBE-HUAWEI/Drivers/BSP/Components/lps22hh\lps22hh_reg.c **** 
 715:D:/fchai/work/i-cube/I-CUBE-HUAWEI/Drivers/BSP/Components/lps22hh\lps22hh_reg.c ****   ret = lps22hh_read_reg(ctx, LPS22HH_CTRL_REG2, (uint8_t*) &reg, 1);
ARM GAS  T:\msys\tmp\ccdfMMY7.s 			page 68


 2700              		.loc 1 715 3 view .LVU745
 711:D:/fchai/work/i-cube/I-CUBE-HUAWEI/Drivers/BSP/Components/lps22hh\lps22hh_reg.c ****   lps22hh_ctrl_reg2_t reg;
 2701              		.loc 1 711 1 is_stmt 0 view .LVU746
 2702 0000 70B5     		push	{r4, r5, r6, lr}
 2703              	.LCFI76:
 2704              		.cfi_def_cfa_offset 16
 2705              		.cfi_offset 4, -16
 2706              		.cfi_offset 5, -12
 2707              		.cfi_offset 6, -8
 2708              		.cfi_offset 14, -4
 2709 0002 82B0     		sub	sp, sp, #8
 2710              	.LCFI77:
 2711              		.cfi_def_cfa_offset 24
 711:D:/fchai/work/i-cube/I-CUBE-HUAWEI/Drivers/BSP/Components/lps22hh\lps22hh_reg.c ****   lps22hh_ctrl_reg2_t reg;
 2712              		.loc 1 711 1 view .LVU747
 2713 0004 0446     		mov	r4, r0
 2714              	.LVL212:
 2715              	.LBB388:
 2716              	.LBI388:
  49:D:/fchai/work/i-cube/I-CUBE-HUAWEI/Drivers/BSP/Components/lps22hh\lps22hh_reg.c ****                          uint16_t len)
 2717              		.loc 1 49 9 is_stmt 1 view .LVU748
 2718              	.LBB389:
  52:D:/fchai/work/i-cube/I-CUBE-HUAWEI/Drivers/BSP/Components/lps22hh\lps22hh_reg.c ****   ret = ctx->read_reg(ctx->handle, reg, data, len);
 2719              		.loc 1 52 3 view .LVU749
  53:D:/fchai/work/i-cube/I-CUBE-HUAWEI/Drivers/BSP/Components/lps22hh\lps22hh_reg.c ****   return ret;
 2720              		.loc 1 53 3 view .LVU750
 2721              	.LBE389:
 2722              	.LBE388:
 711:D:/fchai/work/i-cube/I-CUBE-HUAWEI/Drivers/BSP/Components/lps22hh\lps22hh_reg.c ****   lps22hh_ctrl_reg2_t reg;
 2723              		.loc 1 711 1 is_stmt 0 view .LVU751
 2724 0006 0D46     		mov	r5, r1
 2725              	.LBB391:
 2726              	.LBB390:
  53:D:/fchai/work/i-cube/I-CUBE-HUAWEI/Drivers/BSP/Components/lps22hh\lps22hh_reg.c ****   return ret;
 2727              		.loc 1 53 9 view .LVU752
 2728 0008 D0E90160 		ldrd	r6, r0, [r0, #4]
 2729              	.LVL213:
  53:D:/fchai/work/i-cube/I-CUBE-HUAWEI/Drivers/BSP/Components/lps22hh\lps22hh_reg.c ****   return ret;
 2730              		.loc 1 53 9 view .LVU753
 2731 000c 01AA     		add	r2, sp, #4
 2732              	.LVL214:
  53:D:/fchai/work/i-cube/I-CUBE-HUAWEI/Drivers/BSP/Components/lps22hh\lps22hh_reg.c ****   return ret;
 2733              		.loc 1 53 9 view .LVU754
 2734 000e 0123     		movs	r3, #1
 2735 0010 1121     		movs	r1, #17
 2736              	.LVL215:
  53:D:/fchai/work/i-cube/I-CUBE-HUAWEI/Drivers/BSP/Components/lps22hh\lps22hh_reg.c ****   return ret;
 2737              		.loc 1 53 9 view .LVU755
 2738 0012 B047     		blx	r6
 2739              	.LVL216:
  54:D:/fchai/work/i-cube/I-CUBE-HUAWEI/Drivers/BSP/Components/lps22hh\lps22hh_reg.c **** }
 2740              		.loc 1 54 3 is_stmt 1 view .LVU756
  54:D:/fchai/work/i-cube/I-CUBE-HUAWEI/Drivers/BSP/Components/lps22hh\lps22hh_reg.c **** }
 2741              		.loc 1 54 3 is_stmt 0 view .LVU757
 2742              	.LBE390:
 2743              	.LBE391:
 716:D:/fchai/work/i-cube/I-CUBE-HUAWEI/Drivers/BSP/Components/lps22hh\lps22hh_reg.c ****   if (ret == 0) {
ARM GAS  T:\msys\tmp\ccdfMMY7.s 			page 69


 2744              		.loc 1 716 3 is_stmt 1 view .LVU758
 2745              		.loc 1 716 6 is_stmt 0 view .LVU759
 2746 0014 58B9     		cbnz	r0, .L89
 717:D:/fchai/work/i-cube/I-CUBE-HUAWEI/Drivers/BSP/Components/lps22hh\lps22hh_reg.c ****     reg.if_add_inc = val;
 2747              		.loc 1 717 5 is_stmt 1 view .LVU760
 2748              		.loc 1 717 20 is_stmt 0 view .LVU761
 2749 0016 9DF80430 		ldrb	r3, [sp, #4]	@ zero_extendqisi2
 2750              	.LBB392:
 2751              	.LBB393:
  71:D:/fchai/work/i-cube/I-CUBE-HUAWEI/Drivers/BSP/Components/lps22hh\lps22hh_reg.c ****   return ret;
 2752              		.loc 1 71 9 view .LVU762
 2753 001a 2668     		ldr	r6, [r4]
 2754 001c A068     		ldr	r0, [r4, #8]
 2755              	.LVL217:
  71:D:/fchai/work/i-cube/I-CUBE-HUAWEI/Drivers/BSP/Components/lps22hh\lps22hh_reg.c ****   return ret;
 2756              		.loc 1 71 9 view .LVU763
 2757              	.LBE393:
 2758              	.LBE392:
 2759              		.loc 1 717 20 view .LVU764
 2760 001e 65F30413 		bfi	r3, r5, #4, #1
 2761 0022 8DF80430 		strb	r3, [sp, #4]
 718:D:/fchai/work/i-cube/I-CUBE-HUAWEI/Drivers/BSP/Components/lps22hh\lps22hh_reg.c ****     ret = lps22hh_write_reg(ctx, LPS22HH_CTRL_REG2, (uint8_t*) &reg, 1);
 2762              		.loc 1 718 5 is_stmt 1 view .LVU765
 2763              	.LVL218:
 2764              	.LBB395:
 2765              	.LBI392:
  67:D:/fchai/work/i-cube/I-CUBE-HUAWEI/Drivers/BSP/Components/lps22hh\lps22hh_reg.c ****                            uint16_t len)
 2766              		.loc 1 67 9 view .LVU766
 2767              	.LBB394:
  70:D:/fchai/work/i-cube/I-CUBE-HUAWEI/Drivers/BSP/Components/lps22hh\lps22hh_reg.c ****   ret = ctx->write_reg(ctx->handle, reg, data, len);
 2768              		.loc 1 70 3 view .LVU767
  71:D:/fchai/work/i-cube/I-CUBE-HUAWEI/Drivers/BSP/Components/lps22hh\lps22hh_reg.c ****   return ret;
 2769              		.loc 1 71 3 view .LVU768
  71:D:/fchai/work/i-cube/I-CUBE-HUAWEI/Drivers/BSP/Components/lps22hh\lps22hh_reg.c ****   return ret;
 2770              		.loc 1 71 9 is_stmt 0 view .LVU769
 2771 0026 01AA     		add	r2, sp, #4
 2772              	.LVL219:
  71:D:/fchai/work/i-cube/I-CUBE-HUAWEI/Drivers/BSP/Components/lps22hh\lps22hh_reg.c ****   return ret;
 2773              		.loc 1 71 9 view .LVU770
 2774 0028 0123     		movs	r3, #1
 2775 002a 1121     		movs	r1, #17
 2776 002c B047     		blx	r6
 2777              	.LVL220:
  72:D:/fchai/work/i-cube/I-CUBE-HUAWEI/Drivers/BSP/Components/lps22hh\lps22hh_reg.c **** }
 2778              		.loc 1 72 3 is_stmt 1 view .LVU771
  72:D:/fchai/work/i-cube/I-CUBE-HUAWEI/Drivers/BSP/Components/lps22hh\lps22hh_reg.c **** }
 2779              		.loc 1 72 3 is_stmt 0 view .LVU772
 2780              	.LBE394:
 2781              	.LBE395:
 719:D:/fchai/work/i-cube/I-CUBE-HUAWEI/Drivers/BSP/Components/lps22hh\lps22hh_reg.c ****   }
 720:D:/fchai/work/i-cube/I-CUBE-HUAWEI/Drivers/BSP/Components/lps22hh\lps22hh_reg.c ****   return ret;
 2782              		.loc 1 720 3 is_stmt 1 view .LVU773
 2783              	.L89:
 721:D:/fchai/work/i-cube/I-CUBE-HUAWEI/Drivers/BSP/Components/lps22hh\lps22hh_reg.c **** }
 2784              		.loc 1 721 1 is_stmt 0 view .LVU774
 2785 002e 02B0     		add	sp, sp, #8
 2786              	.LCFI78:
ARM GAS  T:\msys\tmp\ccdfMMY7.s 			page 70


 2787              		.cfi_def_cfa_offset 16
 2788              		@ sp needed
 2789 0030 70BD     		pop	{r4, r5, r6, pc}
 2790              		.loc 1 721 1 view .LVU775
 2791              		.cfi_endproc
 2792              	.LFE31:
 2794 0032 00BF     		.section	.text.lps22hh_auto_increment_get,"ax",%progbits
 2795              		.align	1
 2796              		.p2align 2,,3
 2797              		.global	lps22hh_auto_increment_get
 2798              		.syntax unified
 2799              		.thumb
 2800              		.thumb_func
 2801              		.fpu fpv4-sp-d16
 2803              	lps22hh_auto_increment_get:
 2804              	.LVL221:
 2805              	.LFB32:
 722:D:/fchai/work/i-cube/I-CUBE-HUAWEI/Drivers/BSP/Components/lps22hh\lps22hh_reg.c **** 
 723:D:/fchai/work/i-cube/I-CUBE-HUAWEI/Drivers/BSP/Components/lps22hh\lps22hh_reg.c **** /**
 724:D:/fchai/work/i-cube/I-CUBE-HUAWEI/Drivers/BSP/Components/lps22hh\lps22hh_reg.c ****   * @brief  Register address automatically
 725:D:/fchai/work/i-cube/I-CUBE-HUAWEI/Drivers/BSP/Components/lps22hh\lps22hh_reg.c ****   *         incremented during a multiple byte
 726:D:/fchai/work/i-cube/I-CUBE-HUAWEI/Drivers/BSP/Components/lps22hh\lps22hh_reg.c ****   *         access with a serial interface.[get]
 727:D:/fchai/work/i-cube/I-CUBE-HUAWEI/Drivers/BSP/Components/lps22hh\lps22hh_reg.c ****   *
 728:D:/fchai/work/i-cube/I-CUBE-HUAWEI/Drivers/BSP/Components/lps22hh\lps22hh_reg.c ****   * @param  ctx      read / write interface definitions
 729:D:/fchai/work/i-cube/I-CUBE-HUAWEI/Drivers/BSP/Components/lps22hh\lps22hh_reg.c ****   * @param  val      change the values of if_add_inc in reg CTRL_REG2
 730:D:/fchai/work/i-cube/I-CUBE-HUAWEI/Drivers/BSP/Components/lps22hh\lps22hh_reg.c ****   * @retval          interface status (MANDATORY: return 0 -> no Error)
 731:D:/fchai/work/i-cube/I-CUBE-HUAWEI/Drivers/BSP/Components/lps22hh\lps22hh_reg.c ****   *
 732:D:/fchai/work/i-cube/I-CUBE-HUAWEI/Drivers/BSP/Components/lps22hh\lps22hh_reg.c ****   */
 733:D:/fchai/work/i-cube/I-CUBE-HUAWEI/Drivers/BSP/Components/lps22hh\lps22hh_reg.c **** int32_t lps22hh_auto_increment_get(stmdev_ctx_t *ctx, uint8_t *val)
 734:D:/fchai/work/i-cube/I-CUBE-HUAWEI/Drivers/BSP/Components/lps22hh\lps22hh_reg.c **** {
 2806              		.loc 1 734 1 is_stmt 1 view -0
 2807              		.cfi_startproc
 2808              		@ args = 0, pretend = 0, frame = 8
 2809              		@ frame_needed = 0, uses_anonymous_args = 0
 735:D:/fchai/work/i-cube/I-CUBE-HUAWEI/Drivers/BSP/Components/lps22hh\lps22hh_reg.c ****   lps22hh_ctrl_reg2_t reg;
 2810              		.loc 1 735 3 view .LVU777
 736:D:/fchai/work/i-cube/I-CUBE-HUAWEI/Drivers/BSP/Components/lps22hh\lps22hh_reg.c ****   int32_t ret;
 2811              		.loc 1 736 3 view .LVU778
 737:D:/fchai/work/i-cube/I-CUBE-HUAWEI/Drivers/BSP/Components/lps22hh\lps22hh_reg.c **** 
 738:D:/fchai/work/i-cube/I-CUBE-HUAWEI/Drivers/BSP/Components/lps22hh\lps22hh_reg.c ****   ret = lps22hh_read_reg(ctx, LPS22HH_CTRL_REG2, (uint8_t*) &reg, 1);
 2812              		.loc 1 738 3 view .LVU779
 734:D:/fchai/work/i-cube/I-CUBE-HUAWEI/Drivers/BSP/Components/lps22hh\lps22hh_reg.c ****   lps22hh_ctrl_reg2_t reg;
 2813              		.loc 1 734 1 is_stmt 0 view .LVU780
 2814 0000 30B5     		push	{r4, r5, lr}
 2815              	.LCFI79:
 2816              		.cfi_def_cfa_offset 12
 2817              		.cfi_offset 4, -12
 2818              		.cfi_offset 5, -8
 2819              		.cfi_offset 14, -4
 2820 0002 83B0     		sub	sp, sp, #12
 2821              	.LCFI80:
 2822              		.cfi_def_cfa_offset 24
 2823              	.LVL222:
 2824              	.LBB396:
 2825              	.LBI396:
  49:D:/fchai/work/i-cube/I-CUBE-HUAWEI/Drivers/BSP/Components/lps22hh\lps22hh_reg.c ****                          uint16_t len)
 2826              		.loc 1 49 9 is_stmt 1 view .LVU781
ARM GAS  T:\msys\tmp\ccdfMMY7.s 			page 71


 2827              	.LBB397:
  52:D:/fchai/work/i-cube/I-CUBE-HUAWEI/Drivers/BSP/Components/lps22hh\lps22hh_reg.c ****   ret = ctx->read_reg(ctx->handle, reg, data, len);
 2828              		.loc 1 52 3 view .LVU782
  53:D:/fchai/work/i-cube/I-CUBE-HUAWEI/Drivers/BSP/Components/lps22hh\lps22hh_reg.c ****   return ret;
 2829              		.loc 1 53 3 view .LVU783
 2830              	.LBE397:
 2831              	.LBE396:
 734:D:/fchai/work/i-cube/I-CUBE-HUAWEI/Drivers/BSP/Components/lps22hh\lps22hh_reg.c ****   lps22hh_ctrl_reg2_t reg;
 2832              		.loc 1 734 1 is_stmt 0 view .LVU784
 2833 0004 0C46     		mov	r4, r1
 2834              	.LBB399:
 2835              	.LBB398:
  53:D:/fchai/work/i-cube/I-CUBE-HUAWEI/Drivers/BSP/Components/lps22hh\lps22hh_reg.c ****   return ret;
 2836              		.loc 1 53 9 view .LVU785
 2837 0006 D0E90150 		ldrd	r5, r0, [r0, #4]
 2838              	.LVL223:
  53:D:/fchai/work/i-cube/I-CUBE-HUAWEI/Drivers/BSP/Components/lps22hh\lps22hh_reg.c ****   return ret;
 2839              		.loc 1 53 9 view .LVU786
 2840 000a 0123     		movs	r3, #1
 2841 000c 01AA     		add	r2, sp, #4
 2842              	.LVL224:
  53:D:/fchai/work/i-cube/I-CUBE-HUAWEI/Drivers/BSP/Components/lps22hh\lps22hh_reg.c ****   return ret;
 2843              		.loc 1 53 9 view .LVU787
 2844 000e 1121     		movs	r1, #17
 2845              	.LVL225:
  53:D:/fchai/work/i-cube/I-CUBE-HUAWEI/Drivers/BSP/Components/lps22hh\lps22hh_reg.c ****   return ret;
 2846              		.loc 1 53 9 view .LVU788
 2847 0010 A847     		blx	r5
 2848              	.LVL226:
  54:D:/fchai/work/i-cube/I-CUBE-HUAWEI/Drivers/BSP/Components/lps22hh\lps22hh_reg.c **** }
 2849              		.loc 1 54 3 is_stmt 1 view .LVU789
  54:D:/fchai/work/i-cube/I-CUBE-HUAWEI/Drivers/BSP/Components/lps22hh\lps22hh_reg.c **** }
 2850              		.loc 1 54 3 is_stmt 0 view .LVU790
 2851              	.LBE398:
 2852              	.LBE399:
 739:D:/fchai/work/i-cube/I-CUBE-HUAWEI/Drivers/BSP/Components/lps22hh\lps22hh_reg.c ****   *val = reg.if_add_inc;
 2853              		.loc 1 739 3 is_stmt 1 view .LVU791
 2854              		.loc 1 739 13 is_stmt 0 view .LVU792
 2855 0012 9DF80430 		ldrb	r3, [sp, #4]	@ zero_extendqisi2
 2856 0016 C3F30013 		ubfx	r3, r3, #4, #1
 2857              		.loc 1 739 8 view .LVU793
 2858 001a 2370     		strb	r3, [r4]
 740:D:/fchai/work/i-cube/I-CUBE-HUAWEI/Drivers/BSP/Components/lps22hh\lps22hh_reg.c **** 
 741:D:/fchai/work/i-cube/I-CUBE-HUAWEI/Drivers/BSP/Components/lps22hh\lps22hh_reg.c ****   return ret;
 2859              		.loc 1 741 3 is_stmt 1 view .LVU794
 742:D:/fchai/work/i-cube/I-CUBE-HUAWEI/Drivers/BSP/Components/lps22hh\lps22hh_reg.c **** }
 2860              		.loc 1 742 1 is_stmt 0 view .LVU795
 2861 001c 03B0     		add	sp, sp, #12
 2862              	.LCFI81:
 2863              		.cfi_def_cfa_offset 12
 2864              		@ sp needed
 2865 001e 30BD     		pop	{r4, r5, pc}
 2866              		.loc 1 742 1 view .LVU796
 2867              		.cfi_endproc
 2868              	.LFE32:
 2870              		.section	.text.lps22hh_boot_set,"ax",%progbits
 2871              		.align	1
ARM GAS  T:\msys\tmp\ccdfMMY7.s 			page 72


 2872              		.p2align 2,,3
 2873              		.global	lps22hh_boot_set
 2874              		.syntax unified
 2875              		.thumb
 2876              		.thumb_func
 2877              		.fpu fpv4-sp-d16
 2879              	lps22hh_boot_set:
 2880              	.LVL227:
 2881              	.LFB33:
 743:D:/fchai/work/i-cube/I-CUBE-HUAWEI/Drivers/BSP/Components/lps22hh\lps22hh_reg.c **** 
 744:D:/fchai/work/i-cube/I-CUBE-HUAWEI/Drivers/BSP/Components/lps22hh\lps22hh_reg.c **** /**
 745:D:/fchai/work/i-cube/I-CUBE-HUAWEI/Drivers/BSP/Components/lps22hh\lps22hh_reg.c ****   * @brief  Reboot memory content. Reload the calibration
 746:D:/fchai/work/i-cube/I-CUBE-HUAWEI/Drivers/BSP/Components/lps22hh\lps22hh_reg.c ****   *         parameters.[set]
 747:D:/fchai/work/i-cube/I-CUBE-HUAWEI/Drivers/BSP/Components/lps22hh\lps22hh_reg.c ****   *
 748:D:/fchai/work/i-cube/I-CUBE-HUAWEI/Drivers/BSP/Components/lps22hh\lps22hh_reg.c ****   * @param  ctx      read / write interface definitions
 749:D:/fchai/work/i-cube/I-CUBE-HUAWEI/Drivers/BSP/Components/lps22hh\lps22hh_reg.c ****   * @param  val      change the values of boot in reg CTRL_REG2
 750:D:/fchai/work/i-cube/I-CUBE-HUAWEI/Drivers/BSP/Components/lps22hh\lps22hh_reg.c ****   * @retval          interface status (MANDATORY: return 0 -> no Error)
 751:D:/fchai/work/i-cube/I-CUBE-HUAWEI/Drivers/BSP/Components/lps22hh\lps22hh_reg.c ****   *
 752:D:/fchai/work/i-cube/I-CUBE-HUAWEI/Drivers/BSP/Components/lps22hh\lps22hh_reg.c ****   */
 753:D:/fchai/work/i-cube/I-CUBE-HUAWEI/Drivers/BSP/Components/lps22hh\lps22hh_reg.c **** int32_t lps22hh_boot_set(stmdev_ctx_t *ctx, uint8_t val)
 754:D:/fchai/work/i-cube/I-CUBE-HUAWEI/Drivers/BSP/Components/lps22hh\lps22hh_reg.c **** {
 2882              		.loc 1 754 1 is_stmt 1 view -0
 2883              		.cfi_startproc
 2884              		@ args = 0, pretend = 0, frame = 8
 2885              		@ frame_needed = 0, uses_anonymous_args = 0
 755:D:/fchai/work/i-cube/I-CUBE-HUAWEI/Drivers/BSP/Components/lps22hh\lps22hh_reg.c ****   lps22hh_ctrl_reg2_t reg;
 2886              		.loc 1 755 3 view .LVU798
 756:D:/fchai/work/i-cube/I-CUBE-HUAWEI/Drivers/BSP/Components/lps22hh\lps22hh_reg.c ****   int32_t ret;
 2887              		.loc 1 756 3 view .LVU799
 757:D:/fchai/work/i-cube/I-CUBE-HUAWEI/Drivers/BSP/Components/lps22hh\lps22hh_reg.c **** 
 758:D:/fchai/work/i-cube/I-CUBE-HUAWEI/Drivers/BSP/Components/lps22hh\lps22hh_reg.c ****   ret = lps22hh_read_reg(ctx, LPS22HH_CTRL_REG2, (uint8_t*) &reg, 1);
 2888              		.loc 1 758 3 view .LVU800
 754:D:/fchai/work/i-cube/I-CUBE-HUAWEI/Drivers/BSP/Components/lps22hh\lps22hh_reg.c ****   lps22hh_ctrl_reg2_t reg;
 2889              		.loc 1 754 1 is_stmt 0 view .LVU801
 2890 0000 70B5     		push	{r4, r5, r6, lr}
 2891              	.LCFI82:
 2892              		.cfi_def_cfa_offset 16
 2893              		.cfi_offset 4, -16
 2894              		.cfi_offset 5, -12
 2895              		.cfi_offset 6, -8
 2896              		.cfi_offset 14, -4
 2897 0002 82B0     		sub	sp, sp, #8
 2898              	.LCFI83:
 2899              		.cfi_def_cfa_offset 24
 754:D:/fchai/work/i-cube/I-CUBE-HUAWEI/Drivers/BSP/Components/lps22hh\lps22hh_reg.c ****   lps22hh_ctrl_reg2_t reg;
 2900              		.loc 1 754 1 view .LVU802
 2901 0004 0446     		mov	r4, r0
 2902              	.LVL228:
 2903              	.LBB400:
 2904              	.LBI400:
  49:D:/fchai/work/i-cube/I-CUBE-HUAWEI/Drivers/BSP/Components/lps22hh\lps22hh_reg.c ****                          uint16_t len)
 2905              		.loc 1 49 9 is_stmt 1 view .LVU803
 2906              	.LBB401:
  52:D:/fchai/work/i-cube/I-CUBE-HUAWEI/Drivers/BSP/Components/lps22hh\lps22hh_reg.c ****   ret = ctx->read_reg(ctx->handle, reg, data, len);
 2907              		.loc 1 52 3 view .LVU804
  53:D:/fchai/work/i-cube/I-CUBE-HUAWEI/Drivers/BSP/Components/lps22hh\lps22hh_reg.c ****   return ret;
 2908              		.loc 1 53 3 view .LVU805
ARM GAS  T:\msys\tmp\ccdfMMY7.s 			page 73


 2909              	.LBE401:
 2910              	.LBE400:
 754:D:/fchai/work/i-cube/I-CUBE-HUAWEI/Drivers/BSP/Components/lps22hh\lps22hh_reg.c ****   lps22hh_ctrl_reg2_t reg;
 2911              		.loc 1 754 1 is_stmt 0 view .LVU806
 2912 0006 0D46     		mov	r5, r1
 2913              	.LBB403:
 2914              	.LBB402:
  53:D:/fchai/work/i-cube/I-CUBE-HUAWEI/Drivers/BSP/Components/lps22hh\lps22hh_reg.c ****   return ret;
 2915              		.loc 1 53 9 view .LVU807
 2916 0008 D0E90160 		ldrd	r6, r0, [r0, #4]
 2917              	.LVL229:
  53:D:/fchai/work/i-cube/I-CUBE-HUAWEI/Drivers/BSP/Components/lps22hh\lps22hh_reg.c ****   return ret;
 2918              		.loc 1 53 9 view .LVU808
 2919 000c 01AA     		add	r2, sp, #4
 2920              	.LVL230:
  53:D:/fchai/work/i-cube/I-CUBE-HUAWEI/Drivers/BSP/Components/lps22hh\lps22hh_reg.c ****   return ret;
 2921              		.loc 1 53 9 view .LVU809
 2922 000e 0123     		movs	r3, #1
 2923 0010 1121     		movs	r1, #17
 2924              	.LVL231:
  53:D:/fchai/work/i-cube/I-CUBE-HUAWEI/Drivers/BSP/Components/lps22hh\lps22hh_reg.c ****   return ret;
 2925              		.loc 1 53 9 view .LVU810
 2926 0012 B047     		blx	r6
 2927              	.LVL232:
  54:D:/fchai/work/i-cube/I-CUBE-HUAWEI/Drivers/BSP/Components/lps22hh\lps22hh_reg.c **** }
 2928              		.loc 1 54 3 is_stmt 1 view .LVU811
  54:D:/fchai/work/i-cube/I-CUBE-HUAWEI/Drivers/BSP/Components/lps22hh\lps22hh_reg.c **** }
 2929              		.loc 1 54 3 is_stmt 0 view .LVU812
 2930              	.LBE402:
 2931              	.LBE403:
 759:D:/fchai/work/i-cube/I-CUBE-HUAWEI/Drivers/BSP/Components/lps22hh\lps22hh_reg.c ****   if (ret == 0) {
 2932              		.loc 1 759 3 is_stmt 1 view .LVU813
 2933              		.loc 1 759 6 is_stmt 0 view .LVU814
 2934 0014 58B9     		cbnz	r0, .L94
 760:D:/fchai/work/i-cube/I-CUBE-HUAWEI/Drivers/BSP/Components/lps22hh\lps22hh_reg.c ****     reg.boot = val;
 2935              		.loc 1 760 5 is_stmt 1 view .LVU815
 2936              		.loc 1 760 14 is_stmt 0 view .LVU816
 2937 0016 9DF80430 		ldrb	r3, [sp, #4]	@ zero_extendqisi2
 2938              	.LBB404:
 2939              	.LBB405:
  71:D:/fchai/work/i-cube/I-CUBE-HUAWEI/Drivers/BSP/Components/lps22hh\lps22hh_reg.c ****   return ret;
 2940              		.loc 1 71 9 view .LVU817
 2941 001a 2668     		ldr	r6, [r4]
 2942 001c A068     		ldr	r0, [r4, #8]
 2943              	.LVL233:
  71:D:/fchai/work/i-cube/I-CUBE-HUAWEI/Drivers/BSP/Components/lps22hh\lps22hh_reg.c ****   return ret;
 2944              		.loc 1 71 9 view .LVU818
 2945              	.LBE405:
 2946              	.LBE404:
 2947              		.loc 1 760 14 view .LVU819
 2948 001e 65F3C713 		bfi	r3, r5, #7, #1
 2949 0022 8DF80430 		strb	r3, [sp, #4]
 761:D:/fchai/work/i-cube/I-CUBE-HUAWEI/Drivers/BSP/Components/lps22hh\lps22hh_reg.c ****     ret = lps22hh_write_reg(ctx, LPS22HH_CTRL_REG2, (uint8_t*) &reg, 1);
 2950              		.loc 1 761 5 is_stmt 1 view .LVU820
 2951              	.LVL234:
 2952              	.LBB407:
 2953              	.LBI404:
ARM GAS  T:\msys\tmp\ccdfMMY7.s 			page 74


  67:D:/fchai/work/i-cube/I-CUBE-HUAWEI/Drivers/BSP/Components/lps22hh\lps22hh_reg.c ****                            uint16_t len)
 2954              		.loc 1 67 9 view .LVU821
 2955              	.LBB406:
  70:D:/fchai/work/i-cube/I-CUBE-HUAWEI/Drivers/BSP/Components/lps22hh\lps22hh_reg.c ****   ret = ctx->write_reg(ctx->handle, reg, data, len);
 2956              		.loc 1 70 3 view .LVU822
  71:D:/fchai/work/i-cube/I-CUBE-HUAWEI/Drivers/BSP/Components/lps22hh\lps22hh_reg.c ****   return ret;
 2957              		.loc 1 71 3 view .LVU823
  71:D:/fchai/work/i-cube/I-CUBE-HUAWEI/Drivers/BSP/Components/lps22hh\lps22hh_reg.c ****   return ret;
 2958              		.loc 1 71 9 is_stmt 0 view .LVU824
 2959 0026 01AA     		add	r2, sp, #4
 2960              	.LVL235:
  71:D:/fchai/work/i-cube/I-CUBE-HUAWEI/Drivers/BSP/Components/lps22hh\lps22hh_reg.c ****   return ret;
 2961              		.loc 1 71 9 view .LVU825
 2962 0028 0123     		movs	r3, #1
 2963 002a 1121     		movs	r1, #17
 2964 002c B047     		blx	r6
 2965              	.LVL236:
  72:D:/fchai/work/i-cube/I-CUBE-HUAWEI/Drivers/BSP/Components/lps22hh\lps22hh_reg.c **** }
 2966              		.loc 1 72 3 is_stmt 1 view .LVU826
  72:D:/fchai/work/i-cube/I-CUBE-HUAWEI/Drivers/BSP/Components/lps22hh\lps22hh_reg.c **** }
 2967              		.loc 1 72 3 is_stmt 0 view .LVU827
 2968              	.LBE406:
 2969              	.LBE407:
 762:D:/fchai/work/i-cube/I-CUBE-HUAWEI/Drivers/BSP/Components/lps22hh\lps22hh_reg.c ****   }
 763:D:/fchai/work/i-cube/I-CUBE-HUAWEI/Drivers/BSP/Components/lps22hh\lps22hh_reg.c ****   return ret;
 2970              		.loc 1 763 3 is_stmt 1 view .LVU828
 2971              	.L94:
 764:D:/fchai/work/i-cube/I-CUBE-HUAWEI/Drivers/BSP/Components/lps22hh\lps22hh_reg.c **** }
 2972              		.loc 1 764 1 is_stmt 0 view .LVU829
 2973 002e 02B0     		add	sp, sp, #8
 2974              	.LCFI84:
 2975              		.cfi_def_cfa_offset 16
 2976              		@ sp needed
 2977 0030 70BD     		pop	{r4, r5, r6, pc}
 2978              		.loc 1 764 1 view .LVU830
 2979              		.cfi_endproc
 2980              	.LFE33:
 2982 0032 00BF     		.section	.text.lps22hh_boot_get,"ax",%progbits
 2983              		.align	1
 2984              		.p2align 2,,3
 2985              		.global	lps22hh_boot_get
 2986              		.syntax unified
 2987              		.thumb
 2988              		.thumb_func
 2989              		.fpu fpv4-sp-d16
 2991              	lps22hh_boot_get:
 2992              	.LVL237:
 2993              	.LFB34:
 765:D:/fchai/work/i-cube/I-CUBE-HUAWEI/Drivers/BSP/Components/lps22hh\lps22hh_reg.c **** 
 766:D:/fchai/work/i-cube/I-CUBE-HUAWEI/Drivers/BSP/Components/lps22hh\lps22hh_reg.c **** /**
 767:D:/fchai/work/i-cube/I-CUBE-HUAWEI/Drivers/BSP/Components/lps22hh\lps22hh_reg.c ****   * @brief  Reboot memory content. Reload the calibration
 768:D:/fchai/work/i-cube/I-CUBE-HUAWEI/Drivers/BSP/Components/lps22hh\lps22hh_reg.c ****   *         parameters.[get]
 769:D:/fchai/work/i-cube/I-CUBE-HUAWEI/Drivers/BSP/Components/lps22hh\lps22hh_reg.c ****   *
 770:D:/fchai/work/i-cube/I-CUBE-HUAWEI/Drivers/BSP/Components/lps22hh\lps22hh_reg.c ****   * @param  ctx      read / write interface definitions
 771:D:/fchai/work/i-cube/I-CUBE-HUAWEI/Drivers/BSP/Components/lps22hh\lps22hh_reg.c ****   * @param  val      change the values of boot in reg CTRL_REG2
 772:D:/fchai/work/i-cube/I-CUBE-HUAWEI/Drivers/BSP/Components/lps22hh\lps22hh_reg.c ****   * @retval          interface status (MANDATORY: return 0 -> no Error)
 773:D:/fchai/work/i-cube/I-CUBE-HUAWEI/Drivers/BSP/Components/lps22hh\lps22hh_reg.c ****   *
ARM GAS  T:\msys\tmp\ccdfMMY7.s 			page 75


 774:D:/fchai/work/i-cube/I-CUBE-HUAWEI/Drivers/BSP/Components/lps22hh\lps22hh_reg.c ****   */
 775:D:/fchai/work/i-cube/I-CUBE-HUAWEI/Drivers/BSP/Components/lps22hh\lps22hh_reg.c **** int32_t lps22hh_boot_get(stmdev_ctx_t *ctx, uint8_t *val)
 776:D:/fchai/work/i-cube/I-CUBE-HUAWEI/Drivers/BSP/Components/lps22hh\lps22hh_reg.c **** {
 2994              		.loc 1 776 1 is_stmt 1 view -0
 2995              		.cfi_startproc
 2996              		@ args = 0, pretend = 0, frame = 8
 2997              		@ frame_needed = 0, uses_anonymous_args = 0
 777:D:/fchai/work/i-cube/I-CUBE-HUAWEI/Drivers/BSP/Components/lps22hh\lps22hh_reg.c ****   lps22hh_ctrl_reg2_t reg;
 2998              		.loc 1 777 3 view .LVU832
 778:D:/fchai/work/i-cube/I-CUBE-HUAWEI/Drivers/BSP/Components/lps22hh\lps22hh_reg.c ****   int32_t ret;
 2999              		.loc 1 778 3 view .LVU833
 779:D:/fchai/work/i-cube/I-CUBE-HUAWEI/Drivers/BSP/Components/lps22hh\lps22hh_reg.c **** 
 780:D:/fchai/work/i-cube/I-CUBE-HUAWEI/Drivers/BSP/Components/lps22hh\lps22hh_reg.c ****   ret = lps22hh_read_reg(ctx, LPS22HH_CTRL_REG2, (uint8_t*) &reg, 1);
 3000              		.loc 1 780 3 view .LVU834
 776:D:/fchai/work/i-cube/I-CUBE-HUAWEI/Drivers/BSP/Components/lps22hh\lps22hh_reg.c ****   lps22hh_ctrl_reg2_t reg;
 3001              		.loc 1 776 1 is_stmt 0 view .LVU835
 3002 0000 30B5     		push	{r4, r5, lr}
 3003              	.LCFI85:
 3004              		.cfi_def_cfa_offset 12
 3005              		.cfi_offset 4, -12
 3006              		.cfi_offset 5, -8
 3007              		.cfi_offset 14, -4
 3008 0002 83B0     		sub	sp, sp, #12
 3009              	.LCFI86:
 3010              		.cfi_def_cfa_offset 24
 3011              	.LVL238:
 3012              	.LBB408:
 3013              	.LBI408:
  49:D:/fchai/work/i-cube/I-CUBE-HUAWEI/Drivers/BSP/Components/lps22hh\lps22hh_reg.c ****                          uint16_t len)
 3014              		.loc 1 49 9 is_stmt 1 view .LVU836
 3015              	.LBB409:
  52:D:/fchai/work/i-cube/I-CUBE-HUAWEI/Drivers/BSP/Components/lps22hh\lps22hh_reg.c ****   ret = ctx->read_reg(ctx->handle, reg, data, len);
 3016              		.loc 1 52 3 view .LVU837
  53:D:/fchai/work/i-cube/I-CUBE-HUAWEI/Drivers/BSP/Components/lps22hh\lps22hh_reg.c ****   return ret;
 3017              		.loc 1 53 3 view .LVU838
 3018              	.LBE409:
 3019              	.LBE408:
 776:D:/fchai/work/i-cube/I-CUBE-HUAWEI/Drivers/BSP/Components/lps22hh\lps22hh_reg.c ****   lps22hh_ctrl_reg2_t reg;
 3020              		.loc 1 776 1 is_stmt 0 view .LVU839
 3021 0004 0C46     		mov	r4, r1
 3022              	.LBB411:
 3023              	.LBB410:
  53:D:/fchai/work/i-cube/I-CUBE-HUAWEI/Drivers/BSP/Components/lps22hh\lps22hh_reg.c ****   return ret;
 3024              		.loc 1 53 9 view .LVU840
 3025 0006 D0E90150 		ldrd	r5, r0, [r0, #4]
 3026              	.LVL239:
  53:D:/fchai/work/i-cube/I-CUBE-HUAWEI/Drivers/BSP/Components/lps22hh\lps22hh_reg.c ****   return ret;
 3027              		.loc 1 53 9 view .LVU841
 3028 000a 0123     		movs	r3, #1
 3029 000c 01AA     		add	r2, sp, #4
 3030              	.LVL240:
  53:D:/fchai/work/i-cube/I-CUBE-HUAWEI/Drivers/BSP/Components/lps22hh\lps22hh_reg.c ****   return ret;
 3031              		.loc 1 53 9 view .LVU842
 3032 000e 1121     		movs	r1, #17
 3033              	.LVL241:
  53:D:/fchai/work/i-cube/I-CUBE-HUAWEI/Drivers/BSP/Components/lps22hh\lps22hh_reg.c ****   return ret;
 3034              		.loc 1 53 9 view .LVU843
ARM GAS  T:\msys\tmp\ccdfMMY7.s 			page 76


 3035 0010 A847     		blx	r5
 3036              	.LVL242:
  54:D:/fchai/work/i-cube/I-CUBE-HUAWEI/Drivers/BSP/Components/lps22hh\lps22hh_reg.c **** }
 3037              		.loc 1 54 3 is_stmt 1 view .LVU844
  54:D:/fchai/work/i-cube/I-CUBE-HUAWEI/Drivers/BSP/Components/lps22hh\lps22hh_reg.c **** }
 3038              		.loc 1 54 3 is_stmt 0 view .LVU845
 3039              	.LBE410:
 3040              	.LBE411:
 781:D:/fchai/work/i-cube/I-CUBE-HUAWEI/Drivers/BSP/Components/lps22hh\lps22hh_reg.c ****   *val = reg.boot;
 3041              		.loc 1 781 3 is_stmt 1 view .LVU846
 3042              		.loc 1 781 13 is_stmt 0 view .LVU847
 3043 0012 9DF80430 		ldrb	r3, [sp, #4]	@ zero_extendqisi2
 3044 0016 C3F3C013 		ubfx	r3, r3, #7, #1
 3045              		.loc 1 781 8 view .LVU848
 3046 001a 2370     		strb	r3, [r4]
 782:D:/fchai/work/i-cube/I-CUBE-HUAWEI/Drivers/BSP/Components/lps22hh\lps22hh_reg.c **** 
 783:D:/fchai/work/i-cube/I-CUBE-HUAWEI/Drivers/BSP/Components/lps22hh\lps22hh_reg.c ****   return ret;
 3047              		.loc 1 783 3 is_stmt 1 view .LVU849
 784:D:/fchai/work/i-cube/I-CUBE-HUAWEI/Drivers/BSP/Components/lps22hh\lps22hh_reg.c **** }
 3048              		.loc 1 784 1 is_stmt 0 view .LVU850
 3049 001c 03B0     		add	sp, sp, #12
 3050              	.LCFI87:
 3051              		.cfi_def_cfa_offset 12
 3052              		@ sp needed
 3053 001e 30BD     		pop	{r4, r5, pc}
 3054              		.loc 1 784 1 view .LVU851
 3055              		.cfi_endproc
 3056              	.LFE34:
 3058              		.section	.text.lps22hh_lp_bandwidth_set,"ax",%progbits
 3059              		.align	1
 3060              		.p2align 2,,3
 3061              		.global	lps22hh_lp_bandwidth_set
 3062              		.syntax unified
 3063              		.thumb
 3064              		.thumb_func
 3065              		.fpu fpv4-sp-d16
 3067              	lps22hh_lp_bandwidth_set:
 3068              	.LVL243:
 3069              	.LFB35:
 785:D:/fchai/work/i-cube/I-CUBE-HUAWEI/Drivers/BSP/Components/lps22hh\lps22hh_reg.c **** 
 786:D:/fchai/work/i-cube/I-CUBE-HUAWEI/Drivers/BSP/Components/lps22hh\lps22hh_reg.c **** /**
 787:D:/fchai/work/i-cube/I-CUBE-HUAWEI/Drivers/BSP/Components/lps22hh\lps22hh_reg.c ****   * @}
 788:D:/fchai/work/i-cube/I-CUBE-HUAWEI/Drivers/BSP/Components/lps22hh\lps22hh_reg.c ****   *
 789:D:/fchai/work/i-cube/I-CUBE-HUAWEI/Drivers/BSP/Components/lps22hh\lps22hh_reg.c ****   */
 790:D:/fchai/work/i-cube/I-CUBE-HUAWEI/Drivers/BSP/Components/lps22hh\lps22hh_reg.c **** 
 791:D:/fchai/work/i-cube/I-CUBE-HUAWEI/Drivers/BSP/Components/lps22hh\lps22hh_reg.c **** /**
 792:D:/fchai/work/i-cube/I-CUBE-HUAWEI/Drivers/BSP/Components/lps22hh\lps22hh_reg.c ****   * @defgroup  LPS22HH_Filters
 793:D:/fchai/work/i-cube/I-CUBE-HUAWEI/Drivers/BSP/Components/lps22hh\lps22hh_reg.c ****   * @brief     This section group all the functions concerning the
 794:D:/fchai/work/i-cube/I-CUBE-HUAWEI/Drivers/BSP/Components/lps22hh\lps22hh_reg.c ****   *            filters configuration.
 795:D:/fchai/work/i-cube/I-CUBE-HUAWEI/Drivers/BSP/Components/lps22hh\lps22hh_reg.c ****   * @{
 796:D:/fchai/work/i-cube/I-CUBE-HUAWEI/Drivers/BSP/Components/lps22hh\lps22hh_reg.c ****   *
 797:D:/fchai/work/i-cube/I-CUBE-HUAWEI/Drivers/BSP/Components/lps22hh\lps22hh_reg.c ****   */
 798:D:/fchai/work/i-cube/I-CUBE-HUAWEI/Drivers/BSP/Components/lps22hh\lps22hh_reg.c **** 
 799:D:/fchai/work/i-cube/I-CUBE-HUAWEI/Drivers/BSP/Components/lps22hh\lps22hh_reg.c **** /**
 800:D:/fchai/work/i-cube/I-CUBE-HUAWEI/Drivers/BSP/Components/lps22hh\lps22hh_reg.c ****   * @brief  Low-pass bandwidth selection.[set]
 801:D:/fchai/work/i-cube/I-CUBE-HUAWEI/Drivers/BSP/Components/lps22hh\lps22hh_reg.c ****   *
 802:D:/fchai/work/i-cube/I-CUBE-HUAWEI/Drivers/BSP/Components/lps22hh\lps22hh_reg.c ****   * @param  ctx      read / write interface definitions
ARM GAS  T:\msys\tmp\ccdfMMY7.s 			page 77


 803:D:/fchai/work/i-cube/I-CUBE-HUAWEI/Drivers/BSP/Components/lps22hh\lps22hh_reg.c ****   * @param  val      change the values of lpfp_cfg in reg CTRL_REG1
 804:D:/fchai/work/i-cube/I-CUBE-HUAWEI/Drivers/BSP/Components/lps22hh\lps22hh_reg.c ****   * @retval          interface status (MANDATORY: return 0 -> no Error)
 805:D:/fchai/work/i-cube/I-CUBE-HUAWEI/Drivers/BSP/Components/lps22hh\lps22hh_reg.c ****   *
 806:D:/fchai/work/i-cube/I-CUBE-HUAWEI/Drivers/BSP/Components/lps22hh\lps22hh_reg.c ****   */
 807:D:/fchai/work/i-cube/I-CUBE-HUAWEI/Drivers/BSP/Components/lps22hh\lps22hh_reg.c **** int32_t lps22hh_lp_bandwidth_set(stmdev_ctx_t *ctx, lps22hh_lpfp_cfg_t val)
 808:D:/fchai/work/i-cube/I-CUBE-HUAWEI/Drivers/BSP/Components/lps22hh\lps22hh_reg.c **** {
 3070              		.loc 1 808 1 is_stmt 1 view -0
 3071              		.cfi_startproc
 3072              		@ args = 0, pretend = 0, frame = 8
 3073              		@ frame_needed = 0, uses_anonymous_args = 0
 809:D:/fchai/work/i-cube/I-CUBE-HUAWEI/Drivers/BSP/Components/lps22hh\lps22hh_reg.c ****   lps22hh_ctrl_reg1_t reg;
 3074              		.loc 1 809 3 view .LVU853
 810:D:/fchai/work/i-cube/I-CUBE-HUAWEI/Drivers/BSP/Components/lps22hh\lps22hh_reg.c ****   int32_t ret;
 3075              		.loc 1 810 3 view .LVU854
 811:D:/fchai/work/i-cube/I-CUBE-HUAWEI/Drivers/BSP/Components/lps22hh\lps22hh_reg.c **** 
 812:D:/fchai/work/i-cube/I-CUBE-HUAWEI/Drivers/BSP/Components/lps22hh\lps22hh_reg.c ****   ret = lps22hh_read_reg(ctx, LPS22HH_CTRL_REG1, (uint8_t*) &reg, 1);
 3076              		.loc 1 812 3 view .LVU855
 808:D:/fchai/work/i-cube/I-CUBE-HUAWEI/Drivers/BSP/Components/lps22hh\lps22hh_reg.c ****   lps22hh_ctrl_reg1_t reg;
 3077              		.loc 1 808 1 is_stmt 0 view .LVU856
 3078 0000 70B5     		push	{r4, r5, r6, lr}
 3079              	.LCFI88:
 3080              		.cfi_def_cfa_offset 16
 3081              		.cfi_offset 4, -16
 3082              		.cfi_offset 5, -12
 3083              		.cfi_offset 6, -8
 3084              		.cfi_offset 14, -4
 3085 0002 82B0     		sub	sp, sp, #8
 3086              	.LCFI89:
 3087              		.cfi_def_cfa_offset 24
 808:D:/fchai/work/i-cube/I-CUBE-HUAWEI/Drivers/BSP/Components/lps22hh\lps22hh_reg.c ****   lps22hh_ctrl_reg1_t reg;
 3088              		.loc 1 808 1 view .LVU857
 3089 0004 0446     		mov	r4, r0
 3090              	.LVL244:
 3091              	.LBB412:
 3092              	.LBI412:
  49:D:/fchai/work/i-cube/I-CUBE-HUAWEI/Drivers/BSP/Components/lps22hh\lps22hh_reg.c ****                          uint16_t len)
 3093              		.loc 1 49 9 is_stmt 1 view .LVU858
 3094              	.LBB413:
  52:D:/fchai/work/i-cube/I-CUBE-HUAWEI/Drivers/BSP/Components/lps22hh\lps22hh_reg.c ****   ret = ctx->read_reg(ctx->handle, reg, data, len);
 3095              		.loc 1 52 3 view .LVU859
  53:D:/fchai/work/i-cube/I-CUBE-HUAWEI/Drivers/BSP/Components/lps22hh\lps22hh_reg.c ****   return ret;
 3096              		.loc 1 53 3 view .LVU860
 3097              	.LBE413:
 3098              	.LBE412:
 808:D:/fchai/work/i-cube/I-CUBE-HUAWEI/Drivers/BSP/Components/lps22hh\lps22hh_reg.c ****   lps22hh_ctrl_reg1_t reg;
 3099              		.loc 1 808 1 is_stmt 0 view .LVU861
 3100 0006 0D46     		mov	r5, r1
 3101              	.LBB415:
 3102              	.LBB414:
  53:D:/fchai/work/i-cube/I-CUBE-HUAWEI/Drivers/BSP/Components/lps22hh\lps22hh_reg.c ****   return ret;
 3103              		.loc 1 53 9 view .LVU862
 3104 0008 D0E90160 		ldrd	r6, r0, [r0, #4]
 3105              	.LVL245:
  53:D:/fchai/work/i-cube/I-CUBE-HUAWEI/Drivers/BSP/Components/lps22hh\lps22hh_reg.c ****   return ret;
 3106              		.loc 1 53 9 view .LVU863
 3107 000c 01AA     		add	r2, sp, #4
 3108              	.LVL246:
ARM GAS  T:\msys\tmp\ccdfMMY7.s 			page 78


  53:D:/fchai/work/i-cube/I-CUBE-HUAWEI/Drivers/BSP/Components/lps22hh\lps22hh_reg.c ****   return ret;
 3109              		.loc 1 53 9 view .LVU864
 3110 000e 0123     		movs	r3, #1
 3111 0010 1021     		movs	r1, #16
 3112              	.LVL247:
  53:D:/fchai/work/i-cube/I-CUBE-HUAWEI/Drivers/BSP/Components/lps22hh\lps22hh_reg.c ****   return ret;
 3113              		.loc 1 53 9 view .LVU865
 3114 0012 B047     		blx	r6
 3115              	.LVL248:
  54:D:/fchai/work/i-cube/I-CUBE-HUAWEI/Drivers/BSP/Components/lps22hh\lps22hh_reg.c **** }
 3116              		.loc 1 54 3 is_stmt 1 view .LVU866
  54:D:/fchai/work/i-cube/I-CUBE-HUAWEI/Drivers/BSP/Components/lps22hh\lps22hh_reg.c **** }
 3117              		.loc 1 54 3 is_stmt 0 view .LVU867
 3118              	.LBE414:
 3119              	.LBE415:
 813:D:/fchai/work/i-cube/I-CUBE-HUAWEI/Drivers/BSP/Components/lps22hh\lps22hh_reg.c ****   if (ret == 0) {
 3120              		.loc 1 813 3 is_stmt 1 view .LVU868
 3121              		.loc 1 813 6 is_stmt 0 view .LVU869
 3122 0014 58B9     		cbnz	r0, .L99
 814:D:/fchai/work/i-cube/I-CUBE-HUAWEI/Drivers/BSP/Components/lps22hh\lps22hh_reg.c ****     reg.lpfp_cfg = (uint8_t)val;
 3123              		.loc 1 814 5 is_stmt 1 view .LVU870
 3124              		.loc 1 814 18 is_stmt 0 view .LVU871
 3125 0016 9DF80430 		ldrb	r3, [sp, #4]	@ zero_extendqisi2
 3126              	.LBB416:
 3127              	.LBB417:
  71:D:/fchai/work/i-cube/I-CUBE-HUAWEI/Drivers/BSP/Components/lps22hh\lps22hh_reg.c ****   return ret;
 3128              		.loc 1 71 9 view .LVU872
 3129 001a 2668     		ldr	r6, [r4]
 3130 001c A068     		ldr	r0, [r4, #8]
 3131              	.LVL249:
  71:D:/fchai/work/i-cube/I-CUBE-HUAWEI/Drivers/BSP/Components/lps22hh\lps22hh_reg.c ****   return ret;
 3132              		.loc 1 71 9 view .LVU873
 3133              	.LBE417:
 3134              	.LBE416:
 3135              		.loc 1 814 18 view .LVU874
 3136 001e 65F38303 		bfi	r3, r5, #2, #2
 3137 0022 8DF80430 		strb	r3, [sp, #4]
 815:D:/fchai/work/i-cube/I-CUBE-HUAWEI/Drivers/BSP/Components/lps22hh\lps22hh_reg.c ****     ret = lps22hh_write_reg(ctx, LPS22HH_CTRL_REG1, (uint8_t*) &reg, 1);
 3138              		.loc 1 815 5 is_stmt 1 view .LVU875
 3139              	.LVL250:
 3140              	.LBB419:
 3141              	.LBI416:
  67:D:/fchai/work/i-cube/I-CUBE-HUAWEI/Drivers/BSP/Components/lps22hh\lps22hh_reg.c ****                            uint16_t len)
 3142              		.loc 1 67 9 view .LVU876
 3143              	.LBB418:
  70:D:/fchai/work/i-cube/I-CUBE-HUAWEI/Drivers/BSP/Components/lps22hh\lps22hh_reg.c ****   ret = ctx->write_reg(ctx->handle, reg, data, len);
 3144              		.loc 1 70 3 view .LVU877
  71:D:/fchai/work/i-cube/I-CUBE-HUAWEI/Drivers/BSP/Components/lps22hh\lps22hh_reg.c ****   return ret;
 3145              		.loc 1 71 3 view .LVU878
  71:D:/fchai/work/i-cube/I-CUBE-HUAWEI/Drivers/BSP/Components/lps22hh\lps22hh_reg.c ****   return ret;
 3146              		.loc 1 71 9 is_stmt 0 view .LVU879
 3147 0026 01AA     		add	r2, sp, #4
 3148              	.LVL251:
  71:D:/fchai/work/i-cube/I-CUBE-HUAWEI/Drivers/BSP/Components/lps22hh\lps22hh_reg.c ****   return ret;
 3149              		.loc 1 71 9 view .LVU880
 3150 0028 0123     		movs	r3, #1
 3151 002a 1021     		movs	r1, #16
ARM GAS  T:\msys\tmp\ccdfMMY7.s 			page 79


 3152 002c B047     		blx	r6
 3153              	.LVL252:
  72:D:/fchai/work/i-cube/I-CUBE-HUAWEI/Drivers/BSP/Components/lps22hh\lps22hh_reg.c **** }
 3154              		.loc 1 72 3 is_stmt 1 view .LVU881
  72:D:/fchai/work/i-cube/I-CUBE-HUAWEI/Drivers/BSP/Components/lps22hh\lps22hh_reg.c **** }
 3155              		.loc 1 72 3 is_stmt 0 view .LVU882
 3156              	.LBE418:
 3157              	.LBE419:
 816:D:/fchai/work/i-cube/I-CUBE-HUAWEI/Drivers/BSP/Components/lps22hh\lps22hh_reg.c ****   }
 817:D:/fchai/work/i-cube/I-CUBE-HUAWEI/Drivers/BSP/Components/lps22hh\lps22hh_reg.c ****   return ret;
 3158              		.loc 1 817 3 is_stmt 1 view .LVU883
 3159              	.L99:
 818:D:/fchai/work/i-cube/I-CUBE-HUAWEI/Drivers/BSP/Components/lps22hh\lps22hh_reg.c **** }
 3160              		.loc 1 818 1 is_stmt 0 view .LVU884
 3161 002e 02B0     		add	sp, sp, #8
 3162              	.LCFI90:
 3163              		.cfi_def_cfa_offset 16
 3164              		@ sp needed
 3165 0030 70BD     		pop	{r4, r5, r6, pc}
 3166              		.loc 1 818 1 view .LVU885
 3167              		.cfi_endproc
 3168              	.LFE35:
 3170 0032 00BF     		.section	.text.lps22hh_lp_bandwidth_get,"ax",%progbits
 3171              		.align	1
 3172              		.p2align 2,,3
 3173              		.global	lps22hh_lp_bandwidth_get
 3174              		.syntax unified
 3175              		.thumb
 3176              		.thumb_func
 3177              		.fpu fpv4-sp-d16
 3179              	lps22hh_lp_bandwidth_get:
 3180              	.LVL253:
 3181              	.LFB36:
 819:D:/fchai/work/i-cube/I-CUBE-HUAWEI/Drivers/BSP/Components/lps22hh\lps22hh_reg.c **** 
 820:D:/fchai/work/i-cube/I-CUBE-HUAWEI/Drivers/BSP/Components/lps22hh\lps22hh_reg.c **** /**
 821:D:/fchai/work/i-cube/I-CUBE-HUAWEI/Drivers/BSP/Components/lps22hh\lps22hh_reg.c ****   * @brief  Low-pass bandwidth selection.[get]
 822:D:/fchai/work/i-cube/I-CUBE-HUAWEI/Drivers/BSP/Components/lps22hh\lps22hh_reg.c ****   *
 823:D:/fchai/work/i-cube/I-CUBE-HUAWEI/Drivers/BSP/Components/lps22hh\lps22hh_reg.c ****   * @param  ctx      read / write interface definitions
 824:D:/fchai/work/i-cube/I-CUBE-HUAWEI/Drivers/BSP/Components/lps22hh\lps22hh_reg.c ****   * @param  val      Get the values of lpfp_cfg in reg CTRL_REG1
 825:D:/fchai/work/i-cube/I-CUBE-HUAWEI/Drivers/BSP/Components/lps22hh\lps22hh_reg.c ****   * @retval          interface status (MANDATORY: return 0 -> no Error)
 826:D:/fchai/work/i-cube/I-CUBE-HUAWEI/Drivers/BSP/Components/lps22hh\lps22hh_reg.c ****   *
 827:D:/fchai/work/i-cube/I-CUBE-HUAWEI/Drivers/BSP/Components/lps22hh\lps22hh_reg.c ****   */
 828:D:/fchai/work/i-cube/I-CUBE-HUAWEI/Drivers/BSP/Components/lps22hh\lps22hh_reg.c **** int32_t lps22hh_lp_bandwidth_get(stmdev_ctx_t *ctx, lps22hh_lpfp_cfg_t *val)
 829:D:/fchai/work/i-cube/I-CUBE-HUAWEI/Drivers/BSP/Components/lps22hh\lps22hh_reg.c **** {
 3182              		.loc 1 829 1 is_stmt 1 view -0
 3183              		.cfi_startproc
 3184              		@ args = 0, pretend = 0, frame = 8
 3185              		@ frame_needed = 0, uses_anonymous_args = 0
 830:D:/fchai/work/i-cube/I-CUBE-HUAWEI/Drivers/BSP/Components/lps22hh\lps22hh_reg.c ****   lps22hh_ctrl_reg1_t reg;
 3186              		.loc 1 830 3 view .LVU887
 831:D:/fchai/work/i-cube/I-CUBE-HUAWEI/Drivers/BSP/Components/lps22hh\lps22hh_reg.c ****   int32_t ret;
 3187              		.loc 1 831 3 view .LVU888
 832:D:/fchai/work/i-cube/I-CUBE-HUAWEI/Drivers/BSP/Components/lps22hh\lps22hh_reg.c **** 
 833:D:/fchai/work/i-cube/I-CUBE-HUAWEI/Drivers/BSP/Components/lps22hh\lps22hh_reg.c ****   ret = lps22hh_read_reg(ctx, LPS22HH_CTRL_REG1, (uint8_t*) &reg, 1);
 3188              		.loc 1 833 3 view .LVU889
 829:D:/fchai/work/i-cube/I-CUBE-HUAWEI/Drivers/BSP/Components/lps22hh\lps22hh_reg.c ****   lps22hh_ctrl_reg1_t reg;
 3189              		.loc 1 829 1 is_stmt 0 view .LVU890
ARM GAS  T:\msys\tmp\ccdfMMY7.s 			page 80


 3190 0000 30B5     		push	{r4, r5, lr}
 3191              	.LCFI91:
 3192              		.cfi_def_cfa_offset 12
 3193              		.cfi_offset 4, -12
 3194              		.cfi_offset 5, -8
 3195              		.cfi_offset 14, -4
 3196 0002 83B0     		sub	sp, sp, #12
 3197              	.LCFI92:
 3198              		.cfi_def_cfa_offset 24
 3199              	.LVL254:
 3200              	.LBB420:
 3201              	.LBI420:
  49:D:/fchai/work/i-cube/I-CUBE-HUAWEI/Drivers/BSP/Components/lps22hh\lps22hh_reg.c ****                          uint16_t len)
 3202              		.loc 1 49 9 is_stmt 1 view .LVU891
 3203              	.LBB421:
  52:D:/fchai/work/i-cube/I-CUBE-HUAWEI/Drivers/BSP/Components/lps22hh\lps22hh_reg.c ****   ret = ctx->read_reg(ctx->handle, reg, data, len);
 3204              		.loc 1 52 3 view .LVU892
  53:D:/fchai/work/i-cube/I-CUBE-HUAWEI/Drivers/BSP/Components/lps22hh\lps22hh_reg.c ****   return ret;
 3205              		.loc 1 53 3 view .LVU893
  53:D:/fchai/work/i-cube/I-CUBE-HUAWEI/Drivers/BSP/Components/lps22hh\lps22hh_reg.c ****   return ret;
 3206              		.loc 1 53 9 is_stmt 0 view .LVU894
 3207 0004 0123     		movs	r3, #1
 3208 0006 01AA     		add	r2, sp, #4
 3209              	.LVL255:
  53:D:/fchai/work/i-cube/I-CUBE-HUAWEI/Drivers/BSP/Components/lps22hh\lps22hh_reg.c ****   return ret;
 3210              		.loc 1 53 9 view .LVU895
 3211 0008 D0E90150 		ldrd	r5, r0, [r0, #4]
 3212              	.LVL256:
  53:D:/fchai/work/i-cube/I-CUBE-HUAWEI/Drivers/BSP/Components/lps22hh\lps22hh_reg.c ****   return ret;
 3213              		.loc 1 53 9 view .LVU896
 3214              	.LBE421:
 3215              	.LBE420:
 829:D:/fchai/work/i-cube/I-CUBE-HUAWEI/Drivers/BSP/Components/lps22hh\lps22hh_reg.c ****   lps22hh_ctrl_reg1_t reg;
 3216              		.loc 1 829 1 view .LVU897
 3217 000c 0C46     		mov	r4, r1
 3218              	.LBB424:
 3219              	.LBB422:
  53:D:/fchai/work/i-cube/I-CUBE-HUAWEI/Drivers/BSP/Components/lps22hh\lps22hh_reg.c ****   return ret;
 3220              		.loc 1 53 9 view .LVU898
 3221 000e 1021     		movs	r1, #16
 3222              	.LVL257:
  53:D:/fchai/work/i-cube/I-CUBE-HUAWEI/Drivers/BSP/Components/lps22hh\lps22hh_reg.c ****   return ret;
 3223              		.loc 1 53 9 view .LVU899
 3224 0010 A847     		blx	r5
 3225              	.LVL258:
  53:D:/fchai/work/i-cube/I-CUBE-HUAWEI/Drivers/BSP/Components/lps22hh\lps22hh_reg.c ****   return ret;
 3226              		.loc 1 53 9 view .LVU900
 3227              	.LBE422:
 3228              	.LBE424:
 834:D:/fchai/work/i-cube/I-CUBE-HUAWEI/Drivers/BSP/Components/lps22hh\lps22hh_reg.c ****   switch (reg.lpfp_cfg) {
 3229              		.loc 1 834 14 view .LVU901
 3230 0012 9DF80430 		ldrb	r3, [sp, #4]	@ zero_extendqisi2
 3231 0016 C3F38102 		ubfx	r2, r3, #2, #2
 3232              	.LVL259:
 3233              	.LBB425:
 3234              	.LBB423:
  54:D:/fchai/work/i-cube/I-CUBE-HUAWEI/Drivers/BSP/Components/lps22hh\lps22hh_reg.c **** }
ARM GAS  T:\msys\tmp\ccdfMMY7.s 			page 81


 3235              		.loc 1 54 3 is_stmt 1 view .LVU902
  54:D:/fchai/work/i-cube/I-CUBE-HUAWEI/Drivers/BSP/Components/lps22hh\lps22hh_reg.c **** }
 3236              		.loc 1 54 3 is_stmt 0 view .LVU903
 3237              	.LBE423:
 3238              	.LBE425:
 3239              		.loc 1 834 3 is_stmt 1 view .LVU904
 3240 001a 022A     		cmp	r2, #2
 3241              		.loc 1 834 14 is_stmt 0 view .LVU905
 3242 001c 1346     		mov	r3, r2
 3243              		.loc 1 834 3 view .LVU906
 3244 001e 05D0     		beq	.L104
 3245 0020 032A     		cmp	r2, #3
 3246 0022 03D0     		beq	.L104
 835:D:/fchai/work/i-cube/I-CUBE-HUAWEI/Drivers/BSP/Components/lps22hh\lps22hh_reg.c ****       case LPS22HH_LPF_ODR_DIV_2:
 836:D:/fchai/work/i-cube/I-CUBE-HUAWEI/Drivers/BSP/Components/lps22hh\lps22hh_reg.c ****         *val = LPS22HH_LPF_ODR_DIV_2;
 3247              		.loc 1 836 9 is_stmt 1 view .LVU907
 3248              		.loc 1 836 14 is_stmt 0 view .LVU908
 3249 0024 0023     		movs	r3, #0
 3250 0026 2370     		strb	r3, [r4]
 837:D:/fchai/work/i-cube/I-CUBE-HUAWEI/Drivers/BSP/Components/lps22hh\lps22hh_reg.c ****         break;
 3251              		.loc 1 837 9 is_stmt 1 view .LVU909
 838:D:/fchai/work/i-cube/I-CUBE-HUAWEI/Drivers/BSP/Components/lps22hh\lps22hh_reg.c ****       case LPS22HH_LPF_ODR_DIV_9:
 839:D:/fchai/work/i-cube/I-CUBE-HUAWEI/Drivers/BSP/Components/lps22hh\lps22hh_reg.c ****         *val = LPS22HH_LPF_ODR_DIV_9;
 840:D:/fchai/work/i-cube/I-CUBE-HUAWEI/Drivers/BSP/Components/lps22hh\lps22hh_reg.c ****         break;
 841:D:/fchai/work/i-cube/I-CUBE-HUAWEI/Drivers/BSP/Components/lps22hh\lps22hh_reg.c ****       case LPS22HH_LPF_ODR_DIV_20:
 842:D:/fchai/work/i-cube/I-CUBE-HUAWEI/Drivers/BSP/Components/lps22hh\lps22hh_reg.c ****         *val = LPS22HH_LPF_ODR_DIV_20;
 843:D:/fchai/work/i-cube/I-CUBE-HUAWEI/Drivers/BSP/Components/lps22hh\lps22hh_reg.c ****         break;
 844:D:/fchai/work/i-cube/I-CUBE-HUAWEI/Drivers/BSP/Components/lps22hh\lps22hh_reg.c ****       default:
 845:D:/fchai/work/i-cube/I-CUBE-HUAWEI/Drivers/BSP/Components/lps22hh\lps22hh_reg.c ****         *val = LPS22HH_LPF_ODR_DIV_2;
 846:D:/fchai/work/i-cube/I-CUBE-HUAWEI/Drivers/BSP/Components/lps22hh\lps22hh_reg.c ****         break;
 847:D:/fchai/work/i-cube/I-CUBE-HUAWEI/Drivers/BSP/Components/lps22hh\lps22hh_reg.c ****     }
 848:D:/fchai/work/i-cube/I-CUBE-HUAWEI/Drivers/BSP/Components/lps22hh\lps22hh_reg.c **** 
 849:D:/fchai/work/i-cube/I-CUBE-HUAWEI/Drivers/BSP/Components/lps22hh\lps22hh_reg.c ****   return ret;
 850:D:/fchai/work/i-cube/I-CUBE-HUAWEI/Drivers/BSP/Components/lps22hh\lps22hh_reg.c **** }
 3252              		.loc 1 850 1 is_stmt 0 view .LVU910
 3253 0028 03B0     		add	sp, sp, #12
 3254              	.LCFI93:
 3255              		.cfi_remember_state
 3256              		.cfi_def_cfa_offset 12
 3257              		@ sp needed
 3258 002a 30BD     		pop	{r4, r5, pc}
 3259              	.LVL260:
 3260              	.L104:
 3261              	.LCFI94:
 3262              		.cfi_restore_state
 842:D:/fchai/work/i-cube/I-CUBE-HUAWEI/Drivers/BSP/Components/lps22hh\lps22hh_reg.c ****         break;
 3263              		.loc 1 842 9 is_stmt 1 view .LVU911
 842:D:/fchai/work/i-cube/I-CUBE-HUAWEI/Drivers/BSP/Components/lps22hh\lps22hh_reg.c ****         break;
 3264              		.loc 1 842 14 is_stmt 0 view .LVU912
 3265 002c 2370     		strb	r3, [r4]
 843:D:/fchai/work/i-cube/I-CUBE-HUAWEI/Drivers/BSP/Components/lps22hh\lps22hh_reg.c ****       default:
 3266              		.loc 1 843 9 is_stmt 1 view .LVU913
 849:D:/fchai/work/i-cube/I-CUBE-HUAWEI/Drivers/BSP/Components/lps22hh\lps22hh_reg.c **** }
 3267              		.loc 1 849 3 view .LVU914
 3268              		.loc 1 850 1 is_stmt 0 view .LVU915
 3269 002e 03B0     		add	sp, sp, #12
 3270              	.LCFI95:
ARM GAS  T:\msys\tmp\ccdfMMY7.s 			page 82


 3271              		.cfi_def_cfa_offset 12
 3272              		@ sp needed
 3273 0030 30BD     		pop	{r4, r5, pc}
 3274              		.loc 1 850 1 view .LVU916
 3275              		.cfi_endproc
 3276              	.LFE36:
 3278 0032 00BF     		.section	.text.lps22hh_i2c_interface_set,"ax",%progbits
 3279              		.align	1
 3280              		.p2align 2,,3
 3281              		.global	lps22hh_i2c_interface_set
 3282              		.syntax unified
 3283              		.thumb
 3284              		.thumb_func
 3285              		.fpu fpv4-sp-d16
 3287              	lps22hh_i2c_interface_set:
 3288              	.LVL261:
 3289              	.LFB37:
 851:D:/fchai/work/i-cube/I-CUBE-HUAWEI/Drivers/BSP/Components/lps22hh\lps22hh_reg.c **** 
 852:D:/fchai/work/i-cube/I-CUBE-HUAWEI/Drivers/BSP/Components/lps22hh\lps22hh_reg.c **** /**
 853:D:/fchai/work/i-cube/I-CUBE-HUAWEI/Drivers/BSP/Components/lps22hh\lps22hh_reg.c ****   * @}
 854:D:/fchai/work/i-cube/I-CUBE-HUAWEI/Drivers/BSP/Components/lps22hh\lps22hh_reg.c ****   *
 855:D:/fchai/work/i-cube/I-CUBE-HUAWEI/Drivers/BSP/Components/lps22hh\lps22hh_reg.c ****   */
 856:D:/fchai/work/i-cube/I-CUBE-HUAWEI/Drivers/BSP/Components/lps22hh\lps22hh_reg.c **** 
 857:D:/fchai/work/i-cube/I-CUBE-HUAWEI/Drivers/BSP/Components/lps22hh\lps22hh_reg.c **** /**
 858:D:/fchai/work/i-cube/I-CUBE-HUAWEI/Drivers/BSP/Components/lps22hh\lps22hh_reg.c ****   * @defgroup  LPS22HH_Serial_Interface
 859:D:/fchai/work/i-cube/I-CUBE-HUAWEI/Drivers/BSP/Components/lps22hh\lps22hh_reg.c ****   * @brief     This section groups all the functions concerning serial
 860:D:/fchai/work/i-cube/I-CUBE-HUAWEI/Drivers/BSP/Components/lps22hh\lps22hh_reg.c ****   *            interface management
 861:D:/fchai/work/i-cube/I-CUBE-HUAWEI/Drivers/BSP/Components/lps22hh\lps22hh_reg.c ****   * @{
 862:D:/fchai/work/i-cube/I-CUBE-HUAWEI/Drivers/BSP/Components/lps22hh\lps22hh_reg.c ****   *
 863:D:/fchai/work/i-cube/I-CUBE-HUAWEI/Drivers/BSP/Components/lps22hh\lps22hh_reg.c ****   */
 864:D:/fchai/work/i-cube/I-CUBE-HUAWEI/Drivers/BSP/Components/lps22hh\lps22hh_reg.c **** 
 865:D:/fchai/work/i-cube/I-CUBE-HUAWEI/Drivers/BSP/Components/lps22hh\lps22hh_reg.c **** /**
 866:D:/fchai/work/i-cube/I-CUBE-HUAWEI/Drivers/BSP/Components/lps22hh\lps22hh_reg.c ****   * @brief  Enable/Disable I2C interface.[set]
 867:D:/fchai/work/i-cube/I-CUBE-HUAWEI/Drivers/BSP/Components/lps22hh\lps22hh_reg.c ****   *
 868:D:/fchai/work/i-cube/I-CUBE-HUAWEI/Drivers/BSP/Components/lps22hh\lps22hh_reg.c ****   * @param  ctx      read / write interface definitions
 869:D:/fchai/work/i-cube/I-CUBE-HUAWEI/Drivers/BSP/Components/lps22hh\lps22hh_reg.c ****   * @param  val      change the values of i2c_disable in reg IF_CTRL
 870:D:/fchai/work/i-cube/I-CUBE-HUAWEI/Drivers/BSP/Components/lps22hh\lps22hh_reg.c ****   * @retval          interface status (MANDATORY: return 0 -> no Error)
 871:D:/fchai/work/i-cube/I-CUBE-HUAWEI/Drivers/BSP/Components/lps22hh\lps22hh_reg.c ****   *
 872:D:/fchai/work/i-cube/I-CUBE-HUAWEI/Drivers/BSP/Components/lps22hh\lps22hh_reg.c ****   */
 873:D:/fchai/work/i-cube/I-CUBE-HUAWEI/Drivers/BSP/Components/lps22hh\lps22hh_reg.c **** int32_t lps22hh_i2c_interface_set(stmdev_ctx_t *ctx,
 874:D:/fchai/work/i-cube/I-CUBE-HUAWEI/Drivers/BSP/Components/lps22hh\lps22hh_reg.c ****                                   lps22hh_i2c_disable_t val)
 875:D:/fchai/work/i-cube/I-CUBE-HUAWEI/Drivers/BSP/Components/lps22hh\lps22hh_reg.c **** {
 3290              		.loc 1 875 1 is_stmt 1 view -0
 3291              		.cfi_startproc
 3292              		@ args = 0, pretend = 0, frame = 8
 3293              		@ frame_needed = 0, uses_anonymous_args = 0
 876:D:/fchai/work/i-cube/I-CUBE-HUAWEI/Drivers/BSP/Components/lps22hh\lps22hh_reg.c ****   lps22hh_if_ctrl_t reg;
 3294              		.loc 1 876 3 view .LVU918
 877:D:/fchai/work/i-cube/I-CUBE-HUAWEI/Drivers/BSP/Components/lps22hh\lps22hh_reg.c ****   int32_t ret;
 3295              		.loc 1 877 3 view .LVU919
 878:D:/fchai/work/i-cube/I-CUBE-HUAWEI/Drivers/BSP/Components/lps22hh\lps22hh_reg.c **** 
 879:D:/fchai/work/i-cube/I-CUBE-HUAWEI/Drivers/BSP/Components/lps22hh\lps22hh_reg.c ****   ret = lps22hh_read_reg(ctx, LPS22HH_IF_CTRL, (uint8_t*) &reg, 1);
 3296              		.loc 1 879 3 view .LVU920
 875:D:/fchai/work/i-cube/I-CUBE-HUAWEI/Drivers/BSP/Components/lps22hh\lps22hh_reg.c ****   lps22hh_if_ctrl_t reg;
 3297              		.loc 1 875 1 is_stmt 0 view .LVU921
 3298 0000 70B5     		push	{r4, r5, r6, lr}
 3299              	.LCFI96:
ARM GAS  T:\msys\tmp\ccdfMMY7.s 			page 83


 3300              		.cfi_def_cfa_offset 16
 3301              		.cfi_offset 4, -16
 3302              		.cfi_offset 5, -12
 3303              		.cfi_offset 6, -8
 3304              		.cfi_offset 14, -4
 3305 0002 82B0     		sub	sp, sp, #8
 3306              	.LCFI97:
 3307              		.cfi_def_cfa_offset 24
 875:D:/fchai/work/i-cube/I-CUBE-HUAWEI/Drivers/BSP/Components/lps22hh\lps22hh_reg.c ****   lps22hh_if_ctrl_t reg;
 3308              		.loc 1 875 1 view .LVU922
 3309 0004 0446     		mov	r4, r0
 3310              	.LVL262:
 3311              	.LBB426:
 3312              	.LBI426:
  49:D:/fchai/work/i-cube/I-CUBE-HUAWEI/Drivers/BSP/Components/lps22hh\lps22hh_reg.c ****                          uint16_t len)
 3313              		.loc 1 49 9 is_stmt 1 view .LVU923
 3314              	.LBB427:
  52:D:/fchai/work/i-cube/I-CUBE-HUAWEI/Drivers/BSP/Components/lps22hh\lps22hh_reg.c ****   ret = ctx->read_reg(ctx->handle, reg, data, len);
 3315              		.loc 1 52 3 view .LVU924
  53:D:/fchai/work/i-cube/I-CUBE-HUAWEI/Drivers/BSP/Components/lps22hh\lps22hh_reg.c ****   return ret;
 3316              		.loc 1 53 3 view .LVU925
 3317              	.LBE427:
 3318              	.LBE426:
 875:D:/fchai/work/i-cube/I-CUBE-HUAWEI/Drivers/BSP/Components/lps22hh\lps22hh_reg.c ****   lps22hh_if_ctrl_t reg;
 3319              		.loc 1 875 1 is_stmt 0 view .LVU926
 3320 0006 0D46     		mov	r5, r1
 3321              	.LBB429:
 3322              	.LBB428:
  53:D:/fchai/work/i-cube/I-CUBE-HUAWEI/Drivers/BSP/Components/lps22hh\lps22hh_reg.c ****   return ret;
 3323              		.loc 1 53 9 view .LVU927
 3324 0008 D0E90160 		ldrd	r6, r0, [r0, #4]
 3325              	.LVL263:
  53:D:/fchai/work/i-cube/I-CUBE-HUAWEI/Drivers/BSP/Components/lps22hh\lps22hh_reg.c ****   return ret;
 3326              		.loc 1 53 9 view .LVU928
 3327 000c 01AA     		add	r2, sp, #4
 3328              	.LVL264:
  53:D:/fchai/work/i-cube/I-CUBE-HUAWEI/Drivers/BSP/Components/lps22hh\lps22hh_reg.c ****   return ret;
 3329              		.loc 1 53 9 view .LVU929
 3330 000e 0123     		movs	r3, #1
 3331 0010 0E21     		movs	r1, #14
 3332              	.LVL265:
  53:D:/fchai/work/i-cube/I-CUBE-HUAWEI/Drivers/BSP/Components/lps22hh\lps22hh_reg.c ****   return ret;
 3333              		.loc 1 53 9 view .LVU930
 3334 0012 B047     		blx	r6
 3335              	.LVL266:
  54:D:/fchai/work/i-cube/I-CUBE-HUAWEI/Drivers/BSP/Components/lps22hh\lps22hh_reg.c **** }
 3336              		.loc 1 54 3 is_stmt 1 view .LVU931
  54:D:/fchai/work/i-cube/I-CUBE-HUAWEI/Drivers/BSP/Components/lps22hh\lps22hh_reg.c **** }
 3337              		.loc 1 54 3 is_stmt 0 view .LVU932
 3338              	.LBE428:
 3339              	.LBE429:
 880:D:/fchai/work/i-cube/I-CUBE-HUAWEI/Drivers/BSP/Components/lps22hh\lps22hh_reg.c ****   if (ret == 0) {
 3340              		.loc 1 880 3 is_stmt 1 view .LVU933
 3341              		.loc 1 880 6 is_stmt 0 view .LVU934
 3342 0014 58B9     		cbnz	r0, .L107
 881:D:/fchai/work/i-cube/I-CUBE-HUAWEI/Drivers/BSP/Components/lps22hh\lps22hh_reg.c ****     reg.i2c_disable = (uint8_t)val;
 3343              		.loc 1 881 5 is_stmt 1 view .LVU935
ARM GAS  T:\msys\tmp\ccdfMMY7.s 			page 84


 3344              		.loc 1 881 21 is_stmt 0 view .LVU936
 3345 0016 9DF80430 		ldrb	r3, [sp, #4]	@ zero_extendqisi2
 3346              	.LBB430:
 3347              	.LBB431:
  71:D:/fchai/work/i-cube/I-CUBE-HUAWEI/Drivers/BSP/Components/lps22hh\lps22hh_reg.c ****   return ret;
 3348              		.loc 1 71 9 view .LVU937
 3349 001a 2668     		ldr	r6, [r4]
 3350 001c A068     		ldr	r0, [r4, #8]
 3351              	.LVL267:
  71:D:/fchai/work/i-cube/I-CUBE-HUAWEI/Drivers/BSP/Components/lps22hh\lps22hh_reg.c ****   return ret;
 3352              		.loc 1 71 9 view .LVU938
 3353              	.LBE431:
 3354              	.LBE430:
 3355              		.loc 1 881 21 view .LVU939
 3356 001e 65F30003 		bfi	r3, r5, #0, #1
 3357 0022 8DF80430 		strb	r3, [sp, #4]
 882:D:/fchai/work/i-cube/I-CUBE-HUAWEI/Drivers/BSP/Components/lps22hh\lps22hh_reg.c ****     ret = lps22hh_write_reg(ctx, LPS22HH_IF_CTRL, (uint8_t*) &reg, 1);
 3358              		.loc 1 882 5 is_stmt 1 view .LVU940
 3359              	.LVL268:
 3360              	.LBB433:
 3361              	.LBI430:
  67:D:/fchai/work/i-cube/I-CUBE-HUAWEI/Drivers/BSP/Components/lps22hh\lps22hh_reg.c ****                            uint16_t len)
 3362              		.loc 1 67 9 view .LVU941
 3363              	.LBB432:
  70:D:/fchai/work/i-cube/I-CUBE-HUAWEI/Drivers/BSP/Components/lps22hh\lps22hh_reg.c ****   ret = ctx->write_reg(ctx->handle, reg, data, len);
 3364              		.loc 1 70 3 view .LVU942
  71:D:/fchai/work/i-cube/I-CUBE-HUAWEI/Drivers/BSP/Components/lps22hh\lps22hh_reg.c ****   return ret;
 3365              		.loc 1 71 3 view .LVU943
  71:D:/fchai/work/i-cube/I-CUBE-HUAWEI/Drivers/BSP/Components/lps22hh\lps22hh_reg.c ****   return ret;
 3366              		.loc 1 71 9 is_stmt 0 view .LVU944
 3367 0026 01AA     		add	r2, sp, #4
 3368              	.LVL269:
  71:D:/fchai/work/i-cube/I-CUBE-HUAWEI/Drivers/BSP/Components/lps22hh\lps22hh_reg.c ****   return ret;
 3369              		.loc 1 71 9 view .LVU945
 3370 0028 0123     		movs	r3, #1
 3371 002a 0E21     		movs	r1, #14
 3372 002c B047     		blx	r6
 3373              	.LVL270:
  72:D:/fchai/work/i-cube/I-CUBE-HUAWEI/Drivers/BSP/Components/lps22hh\lps22hh_reg.c **** }
 3374              		.loc 1 72 3 is_stmt 1 view .LVU946
  72:D:/fchai/work/i-cube/I-CUBE-HUAWEI/Drivers/BSP/Components/lps22hh\lps22hh_reg.c **** }
 3375              		.loc 1 72 3 is_stmt 0 view .LVU947
 3376              	.LBE432:
 3377              	.LBE433:
 883:D:/fchai/work/i-cube/I-CUBE-HUAWEI/Drivers/BSP/Components/lps22hh\lps22hh_reg.c ****   }
 884:D:/fchai/work/i-cube/I-CUBE-HUAWEI/Drivers/BSP/Components/lps22hh\lps22hh_reg.c ****   return ret;
 3378              		.loc 1 884 3 is_stmt 1 view .LVU948
 3379              	.L107:
 885:D:/fchai/work/i-cube/I-CUBE-HUAWEI/Drivers/BSP/Components/lps22hh\lps22hh_reg.c **** }
 3380              		.loc 1 885 1 is_stmt 0 view .LVU949
 3381 002e 02B0     		add	sp, sp, #8
 3382              	.LCFI98:
 3383              		.cfi_def_cfa_offset 16
 3384              		@ sp needed
 3385 0030 70BD     		pop	{r4, r5, r6, pc}
 3386              		.loc 1 885 1 view .LVU950
 3387              		.cfi_endproc
ARM GAS  T:\msys\tmp\ccdfMMY7.s 			page 85


 3388              	.LFE37:
 3390 0032 00BF     		.section	.text.lps22hh_i2c_interface_get,"ax",%progbits
 3391              		.align	1
 3392              		.p2align 2,,3
 3393              		.global	lps22hh_i2c_interface_get
 3394              		.syntax unified
 3395              		.thumb
 3396              		.thumb_func
 3397              		.fpu fpv4-sp-d16
 3399              	lps22hh_i2c_interface_get:
 3400              	.LVL271:
 3401              	.LFB38:
 886:D:/fchai/work/i-cube/I-CUBE-HUAWEI/Drivers/BSP/Components/lps22hh\lps22hh_reg.c **** 
 887:D:/fchai/work/i-cube/I-CUBE-HUAWEI/Drivers/BSP/Components/lps22hh\lps22hh_reg.c **** /**
 888:D:/fchai/work/i-cube/I-CUBE-HUAWEI/Drivers/BSP/Components/lps22hh\lps22hh_reg.c ****   * @brief  Enable/Disable I2C interface.[get]
 889:D:/fchai/work/i-cube/I-CUBE-HUAWEI/Drivers/BSP/Components/lps22hh\lps22hh_reg.c ****   *
 890:D:/fchai/work/i-cube/I-CUBE-HUAWEI/Drivers/BSP/Components/lps22hh\lps22hh_reg.c ****   * @param  ctx      read / write interface definitions
 891:D:/fchai/work/i-cube/I-CUBE-HUAWEI/Drivers/BSP/Components/lps22hh\lps22hh_reg.c ****   * @param  val      Get the values of i2c_disable in reg IF_CTRL
 892:D:/fchai/work/i-cube/I-CUBE-HUAWEI/Drivers/BSP/Components/lps22hh\lps22hh_reg.c ****   * @retval          interface status (MANDATORY: return 0 -> no Error)
 893:D:/fchai/work/i-cube/I-CUBE-HUAWEI/Drivers/BSP/Components/lps22hh\lps22hh_reg.c ****   *
 894:D:/fchai/work/i-cube/I-CUBE-HUAWEI/Drivers/BSP/Components/lps22hh\lps22hh_reg.c ****   */
 895:D:/fchai/work/i-cube/I-CUBE-HUAWEI/Drivers/BSP/Components/lps22hh\lps22hh_reg.c **** int32_t lps22hh_i2c_interface_get(stmdev_ctx_t *ctx,
 896:D:/fchai/work/i-cube/I-CUBE-HUAWEI/Drivers/BSP/Components/lps22hh\lps22hh_reg.c ****                                   lps22hh_i2c_disable_t *val)
 897:D:/fchai/work/i-cube/I-CUBE-HUAWEI/Drivers/BSP/Components/lps22hh\lps22hh_reg.c **** {
 3402              		.loc 1 897 1 is_stmt 1 view -0
 3403              		.cfi_startproc
 3404              		@ args = 0, pretend = 0, frame = 8
 3405              		@ frame_needed = 0, uses_anonymous_args = 0
 898:D:/fchai/work/i-cube/I-CUBE-HUAWEI/Drivers/BSP/Components/lps22hh\lps22hh_reg.c ****   lps22hh_if_ctrl_t reg;
 3406              		.loc 1 898 3 view .LVU952
 899:D:/fchai/work/i-cube/I-CUBE-HUAWEI/Drivers/BSP/Components/lps22hh\lps22hh_reg.c ****   int32_t ret;
 3407              		.loc 1 899 3 view .LVU953
 900:D:/fchai/work/i-cube/I-CUBE-HUAWEI/Drivers/BSP/Components/lps22hh\lps22hh_reg.c **** 
 901:D:/fchai/work/i-cube/I-CUBE-HUAWEI/Drivers/BSP/Components/lps22hh\lps22hh_reg.c ****   ret = lps22hh_read_reg(ctx, LPS22HH_IF_CTRL, (uint8_t*) &reg, 1);
 3408              		.loc 1 901 3 view .LVU954
 897:D:/fchai/work/i-cube/I-CUBE-HUAWEI/Drivers/BSP/Components/lps22hh\lps22hh_reg.c ****   lps22hh_if_ctrl_t reg;
 3409              		.loc 1 897 1 is_stmt 0 view .LVU955
 3410 0000 30B5     		push	{r4, r5, lr}
 3411              	.LCFI99:
 3412              		.cfi_def_cfa_offset 12
 3413              		.cfi_offset 4, -12
 3414              		.cfi_offset 5, -8
 3415              		.cfi_offset 14, -4
 3416 0002 83B0     		sub	sp, sp, #12
 3417              	.LCFI100:
 3418              		.cfi_def_cfa_offset 24
 3419              	.LVL272:
 3420              	.LBB434:
 3421              	.LBI434:
  49:D:/fchai/work/i-cube/I-CUBE-HUAWEI/Drivers/BSP/Components/lps22hh\lps22hh_reg.c ****                          uint16_t len)
 3422              		.loc 1 49 9 is_stmt 1 view .LVU956
 3423              	.LBB435:
  52:D:/fchai/work/i-cube/I-CUBE-HUAWEI/Drivers/BSP/Components/lps22hh\lps22hh_reg.c ****   ret = ctx->read_reg(ctx->handle, reg, data, len);
 3424              		.loc 1 52 3 view .LVU957
  53:D:/fchai/work/i-cube/I-CUBE-HUAWEI/Drivers/BSP/Components/lps22hh\lps22hh_reg.c ****   return ret;
 3425              		.loc 1 53 3 view .LVU958
 3426              	.LBE435:
ARM GAS  T:\msys\tmp\ccdfMMY7.s 			page 86


 3427              	.LBE434:
 897:D:/fchai/work/i-cube/I-CUBE-HUAWEI/Drivers/BSP/Components/lps22hh\lps22hh_reg.c ****   lps22hh_if_ctrl_t reg;
 3428              		.loc 1 897 1 is_stmt 0 view .LVU959
 3429 0004 0C46     		mov	r4, r1
 3430              	.LBB438:
 3431              	.LBB436:
  53:D:/fchai/work/i-cube/I-CUBE-HUAWEI/Drivers/BSP/Components/lps22hh\lps22hh_reg.c ****   return ret;
 3432              		.loc 1 53 9 view .LVU960
 3433 0006 01AA     		add	r2, sp, #4
 3434              	.LVL273:
  53:D:/fchai/work/i-cube/I-CUBE-HUAWEI/Drivers/BSP/Components/lps22hh\lps22hh_reg.c ****   return ret;
 3435              		.loc 1 53 9 view .LVU961
 3436 0008 D0E90150 		ldrd	r5, r0, [r0, #4]
 3437              	.LVL274:
  53:D:/fchai/work/i-cube/I-CUBE-HUAWEI/Drivers/BSP/Components/lps22hh\lps22hh_reg.c ****   return ret;
 3438              		.loc 1 53 9 view .LVU962
 3439 000c 0123     		movs	r3, #1
 3440 000e 0E21     		movs	r1, #14
 3441              	.LVL275:
  53:D:/fchai/work/i-cube/I-CUBE-HUAWEI/Drivers/BSP/Components/lps22hh\lps22hh_reg.c ****   return ret;
 3442              		.loc 1 53 9 view .LVU963
 3443 0010 A847     		blx	r5
 3444              	.LVL276:
  53:D:/fchai/work/i-cube/I-CUBE-HUAWEI/Drivers/BSP/Components/lps22hh\lps22hh_reg.c ****   return ret;
 3445              		.loc 1 53 9 view .LVU964
 3446              	.LBE436:
 3447              	.LBE438:
 902:D:/fchai/work/i-cube/I-CUBE-HUAWEI/Drivers/BSP/Components/lps22hh\lps22hh_reg.c ****   switch (reg.i2c_disable) {
 3448              		.loc 1 902 14 view .LVU965
 3449 0012 9DF80430 		ldrb	r3, [sp, #4]	@ zero_extendqisi2
 3450              	.LVL277:
 3451              	.LBB439:
 3452              	.LBB437:
  54:D:/fchai/work/i-cube/I-CUBE-HUAWEI/Drivers/BSP/Components/lps22hh\lps22hh_reg.c **** }
 3453              		.loc 1 54 3 is_stmt 1 view .LVU966
  54:D:/fchai/work/i-cube/I-CUBE-HUAWEI/Drivers/BSP/Components/lps22hh\lps22hh_reg.c **** }
 3454              		.loc 1 54 3 is_stmt 0 view .LVU967
 3455              	.LBE437:
 3456              	.LBE439:
 3457              		.loc 1 902 3 is_stmt 1 view .LVU968
 3458              		.loc 1 902 14 is_stmt 0 view .LVU969
 3459 0016 C3F30002 		ubfx	r2, r3, #0, #1
 3460              		.loc 1 902 3 view .LVU970
 3461 001a DB07     		lsls	r3, r3, #31
 903:D:/fchai/work/i-cube/I-CUBE-HUAWEI/Drivers/BSP/Components/lps22hh\lps22hh_reg.c ****       case LPS22HH_I2C_ENABLE:
 904:D:/fchai/work/i-cube/I-CUBE-HUAWEI/Drivers/BSP/Components/lps22hh\lps22hh_reg.c ****         *val = LPS22HH_I2C_ENABLE;
 3462              		.loc 1 904 9 is_stmt 1 view .LVU971
 3463              		.loc 1 904 14 is_stmt 0 view .LVU972
 3464 001c 5ABF     		itte	pl
 3465 001e 0023     		movpl	r3, #0
 3466 0020 2370     		strbpl	r3, [r4]
 905:D:/fchai/work/i-cube/I-CUBE-HUAWEI/Drivers/BSP/Components/lps22hh\lps22hh_reg.c ****         break;
 3467              		.loc 1 905 9 is_stmt 1 view .LVU973
 906:D:/fchai/work/i-cube/I-CUBE-HUAWEI/Drivers/BSP/Components/lps22hh\lps22hh_reg.c ****       case LPS22HH_I2C_DISABLE:
 907:D:/fchai/work/i-cube/I-CUBE-HUAWEI/Drivers/BSP/Components/lps22hh\lps22hh_reg.c ****         *val = LPS22HH_I2C_DISABLE;
 3468              		.loc 1 907 9 view .LVU974
 3469              		.loc 1 907 14 is_stmt 0 view .LVU975
ARM GAS  T:\msys\tmp\ccdfMMY7.s 			page 87


 3470 0022 2270     		strbmi	r2, [r4]
 908:D:/fchai/work/i-cube/I-CUBE-HUAWEI/Drivers/BSP/Components/lps22hh\lps22hh_reg.c ****         break;
 3471              		.loc 1 908 9 is_stmt 1 view .LVU976
 909:D:/fchai/work/i-cube/I-CUBE-HUAWEI/Drivers/BSP/Components/lps22hh\lps22hh_reg.c ****       default:
 910:D:/fchai/work/i-cube/I-CUBE-HUAWEI/Drivers/BSP/Components/lps22hh\lps22hh_reg.c ****         *val = LPS22HH_I2C_ENABLE;
 911:D:/fchai/work/i-cube/I-CUBE-HUAWEI/Drivers/BSP/Components/lps22hh\lps22hh_reg.c ****         break;
 912:D:/fchai/work/i-cube/I-CUBE-HUAWEI/Drivers/BSP/Components/lps22hh\lps22hh_reg.c ****     }
 913:D:/fchai/work/i-cube/I-CUBE-HUAWEI/Drivers/BSP/Components/lps22hh\lps22hh_reg.c **** 
 914:D:/fchai/work/i-cube/I-CUBE-HUAWEI/Drivers/BSP/Components/lps22hh\lps22hh_reg.c ****   return ret;
 3472              		.loc 1 914 3 view .LVU977
 915:D:/fchai/work/i-cube/I-CUBE-HUAWEI/Drivers/BSP/Components/lps22hh\lps22hh_reg.c **** }
 3473              		.loc 1 915 1 is_stmt 0 view .LVU978
 3474 0024 03B0     		add	sp, sp, #12
 3475              	.LCFI101:
 3476              		.cfi_def_cfa_offset 12
 3477              		@ sp needed
 3478 0026 30BD     		pop	{r4, r5, pc}
 3479              		.loc 1 915 1 view .LVU979
 3480              		.cfi_endproc
 3481              	.LFE38:
 3483              		.section	.text.lps22hh_i3c_interface_set,"ax",%progbits
 3484              		.align	1
 3485              		.p2align 2,,3
 3486              		.global	lps22hh_i3c_interface_set
 3487              		.syntax unified
 3488              		.thumb
 3489              		.thumb_func
 3490              		.fpu fpv4-sp-d16
 3492              	lps22hh_i3c_interface_set:
 3493              	.LVL278:
 3494              	.LFB39:
 916:D:/fchai/work/i-cube/I-CUBE-HUAWEI/Drivers/BSP/Components/lps22hh\lps22hh_reg.c **** 
 917:D:/fchai/work/i-cube/I-CUBE-HUAWEI/Drivers/BSP/Components/lps22hh\lps22hh_reg.c **** /**
 918:D:/fchai/work/i-cube/I-CUBE-HUAWEI/Drivers/BSP/Components/lps22hh\lps22hh_reg.c ****   * @brief  I3C Enable/Disable communication protocol.[set]
 919:D:/fchai/work/i-cube/I-CUBE-HUAWEI/Drivers/BSP/Components/lps22hh\lps22hh_reg.c ****   *
 920:D:/fchai/work/i-cube/I-CUBE-HUAWEI/Drivers/BSP/Components/lps22hh\lps22hh_reg.c ****   * @param  ctx      read / write interface definitions
 921:D:/fchai/work/i-cube/I-CUBE-HUAWEI/Drivers/BSP/Components/lps22hh\lps22hh_reg.c ****   * @param  val      change the values of int_en_i3c in reg IF_CTRL
 922:D:/fchai/work/i-cube/I-CUBE-HUAWEI/Drivers/BSP/Components/lps22hh\lps22hh_reg.c ****   * @retval          interface status (MANDATORY: return 0 -> no Error)
 923:D:/fchai/work/i-cube/I-CUBE-HUAWEI/Drivers/BSP/Components/lps22hh\lps22hh_reg.c ****   *
 924:D:/fchai/work/i-cube/I-CUBE-HUAWEI/Drivers/BSP/Components/lps22hh\lps22hh_reg.c ****   */
 925:D:/fchai/work/i-cube/I-CUBE-HUAWEI/Drivers/BSP/Components/lps22hh\lps22hh_reg.c **** int32_t lps22hh_i3c_interface_set(stmdev_ctx_t *ctx,
 926:D:/fchai/work/i-cube/I-CUBE-HUAWEI/Drivers/BSP/Components/lps22hh\lps22hh_reg.c ****                                   lps22hh_i3c_disable_t val)
 927:D:/fchai/work/i-cube/I-CUBE-HUAWEI/Drivers/BSP/Components/lps22hh\lps22hh_reg.c **** {
 3495              		.loc 1 927 1 is_stmt 1 view -0
 3496              		.cfi_startproc
 3497              		@ args = 0, pretend = 0, frame = 8
 3498              		@ frame_needed = 0, uses_anonymous_args = 0
 928:D:/fchai/work/i-cube/I-CUBE-HUAWEI/Drivers/BSP/Components/lps22hh\lps22hh_reg.c ****   lps22hh_if_ctrl_t reg;
 3499              		.loc 1 928 3 view .LVU981
 929:D:/fchai/work/i-cube/I-CUBE-HUAWEI/Drivers/BSP/Components/lps22hh\lps22hh_reg.c ****   int32_t ret;
 3500              		.loc 1 929 3 view .LVU982
 930:D:/fchai/work/i-cube/I-CUBE-HUAWEI/Drivers/BSP/Components/lps22hh\lps22hh_reg.c **** 
 931:D:/fchai/work/i-cube/I-CUBE-HUAWEI/Drivers/BSP/Components/lps22hh\lps22hh_reg.c ****   ret = lps22hh_read_reg(ctx, LPS22HH_IF_CTRL, (uint8_t*) &reg, 1);
 3501              		.loc 1 931 3 view .LVU983
 927:D:/fchai/work/i-cube/I-CUBE-HUAWEI/Drivers/BSP/Components/lps22hh\lps22hh_reg.c ****   lps22hh_if_ctrl_t reg;
 3502              		.loc 1 927 1 is_stmt 0 view .LVU984
 3503 0000 70B5     		push	{r4, r5, r6, lr}
ARM GAS  T:\msys\tmp\ccdfMMY7.s 			page 88


 3504              	.LCFI102:
 3505              		.cfi_def_cfa_offset 16
 3506              		.cfi_offset 4, -16
 3507              		.cfi_offset 5, -12
 3508              		.cfi_offset 6, -8
 3509              		.cfi_offset 14, -4
 3510 0002 82B0     		sub	sp, sp, #8
 3511              	.LCFI103:
 3512              		.cfi_def_cfa_offset 24
 927:D:/fchai/work/i-cube/I-CUBE-HUAWEI/Drivers/BSP/Components/lps22hh\lps22hh_reg.c ****   lps22hh_if_ctrl_t reg;
 3513              		.loc 1 927 1 view .LVU985
 3514 0004 0446     		mov	r4, r0
 3515              	.LVL279:
 3516              	.LBB440:
 3517              	.LBI440:
  49:D:/fchai/work/i-cube/I-CUBE-HUAWEI/Drivers/BSP/Components/lps22hh\lps22hh_reg.c ****                          uint16_t len)
 3518              		.loc 1 49 9 is_stmt 1 view .LVU986
 3519              	.LBB441:
  52:D:/fchai/work/i-cube/I-CUBE-HUAWEI/Drivers/BSP/Components/lps22hh\lps22hh_reg.c ****   ret = ctx->read_reg(ctx->handle, reg, data, len);
 3520              		.loc 1 52 3 view .LVU987
  53:D:/fchai/work/i-cube/I-CUBE-HUAWEI/Drivers/BSP/Components/lps22hh\lps22hh_reg.c ****   return ret;
 3521              		.loc 1 53 3 view .LVU988
 3522              	.LBE441:
 3523              	.LBE440:
 927:D:/fchai/work/i-cube/I-CUBE-HUAWEI/Drivers/BSP/Components/lps22hh\lps22hh_reg.c ****   lps22hh_if_ctrl_t reg;
 3524              		.loc 1 927 1 is_stmt 0 view .LVU989
 3525 0006 0D46     		mov	r5, r1
 3526              	.LBB443:
 3527              	.LBB442:
  53:D:/fchai/work/i-cube/I-CUBE-HUAWEI/Drivers/BSP/Components/lps22hh\lps22hh_reg.c ****   return ret;
 3528              		.loc 1 53 9 view .LVU990
 3529 0008 D0E90160 		ldrd	r6, r0, [r0, #4]
 3530              	.LVL280:
  53:D:/fchai/work/i-cube/I-CUBE-HUAWEI/Drivers/BSP/Components/lps22hh\lps22hh_reg.c ****   return ret;
 3531              		.loc 1 53 9 view .LVU991
 3532 000c 01AA     		add	r2, sp, #4
 3533              	.LVL281:
  53:D:/fchai/work/i-cube/I-CUBE-HUAWEI/Drivers/BSP/Components/lps22hh\lps22hh_reg.c ****   return ret;
 3534              		.loc 1 53 9 view .LVU992
 3535 000e 0123     		movs	r3, #1
 3536 0010 0E21     		movs	r1, #14
 3537              	.LVL282:
  53:D:/fchai/work/i-cube/I-CUBE-HUAWEI/Drivers/BSP/Components/lps22hh\lps22hh_reg.c ****   return ret;
 3538              		.loc 1 53 9 view .LVU993
 3539 0012 B047     		blx	r6
 3540              	.LVL283:
  54:D:/fchai/work/i-cube/I-CUBE-HUAWEI/Drivers/BSP/Components/lps22hh\lps22hh_reg.c **** }
 3541              		.loc 1 54 3 is_stmt 1 view .LVU994
  54:D:/fchai/work/i-cube/I-CUBE-HUAWEI/Drivers/BSP/Components/lps22hh\lps22hh_reg.c **** }
 3542              		.loc 1 54 3 is_stmt 0 view .LVU995
 3543              	.LBE442:
 3544              	.LBE443:
 932:D:/fchai/work/i-cube/I-CUBE-HUAWEI/Drivers/BSP/Components/lps22hh\lps22hh_reg.c ****   if (ret == 0) {
 3545              		.loc 1 932 3 is_stmt 1 view .LVU996
 3546              		.loc 1 932 6 is_stmt 0 view .LVU997
 3547 0014 90B9     		cbnz	r0, .L114
 933:D:/fchai/work/i-cube/I-CUBE-HUAWEI/Drivers/BSP/Components/lps22hh\lps22hh_reg.c ****     reg.i3c_disable = ((uint8_t)val & 0x01u);
ARM GAS  T:\msys\tmp\ccdfMMY7.s 			page 89


 3548              		.loc 1 933 5 is_stmt 1 view .LVU998
 934:D:/fchai/work/i-cube/I-CUBE-HUAWEI/Drivers/BSP/Components/lps22hh\lps22hh_reg.c ****     reg.int_en_i3c = ((uint8_t)val & 0x10U) >> 4;
 3549              		.loc 1 934 5 view .LVU999
 933:D:/fchai/work/i-cube/I-CUBE-HUAWEI/Drivers/BSP/Components/lps22hh\lps22hh_reg.c ****     reg.i3c_disable = ((uint8_t)val & 0x01u);
 3550              		.loc 1 933 21 is_stmt 0 view .LVU1000
 3551 0016 9DF80420 		ldrb	r2, [sp, #4]	@ zero_extendqisi2
 3552              	.LBB444:
 3553              	.LBB445:
  71:D:/fchai/work/i-cube/I-CUBE-HUAWEI/Drivers/BSP/Components/lps22hh\lps22hh_reg.c ****   return ret;
 3554              		.loc 1 71 9 view .LVU1001
 3555 001a 2668     		ldr	r6, [r4]
 3556 001c A068     		ldr	r0, [r4, #8]
 3557              	.LVL284:
  71:D:/fchai/work/i-cube/I-CUBE-HUAWEI/Drivers/BSP/Components/lps22hh\lps22hh_reg.c ****   return ret;
 3558              		.loc 1 71 9 view .LVU1002
 3559              	.LBE445:
 3560              	.LBE444:
 933:D:/fchai/work/i-cube/I-CUBE-HUAWEI/Drivers/BSP/Components/lps22hh\lps22hh_reg.c ****     reg.i3c_disable = ((uint8_t)val & 0x01u);
 3561              		.loc 1 933 21 view .LVU1003
 3562 001e 6B00     		lsls	r3, r5, #1
 3563 0020 03F00203 		and	r3, r3, #2
 3564              		.loc 1 934 45 view .LVU1004
 3565 0024 2D09     		lsrs	r5, r5, #4
 933:D:/fchai/work/i-cube/I-CUBE-HUAWEI/Drivers/BSP/Components/lps22hh\lps22hh_reg.c ****     reg.i3c_disable = ((uint8_t)val & 0x01u);
 3566              		.loc 1 933 21 view .LVU1005
 3567 0026 43EAC515 		orr	r5, r3, r5, lsl #7
 3568 002a 02F07D03 		and	r3, r2, #125
 3569 002e 1D43     		orrs	r5, r5, r3
 3570              	.LBB448:
 3571              	.LBB446:
  71:D:/fchai/work/i-cube/I-CUBE-HUAWEI/Drivers/BSP/Components/lps22hh\lps22hh_reg.c ****   return ret;
 3572              		.loc 1 71 9 view .LVU1006
 3573 0030 01AA     		add	r2, sp, #4
 3574              	.LBE446:
 3575              	.LBE448:
 933:D:/fchai/work/i-cube/I-CUBE-HUAWEI/Drivers/BSP/Components/lps22hh\lps22hh_reg.c ****     reg.i3c_disable = ((uint8_t)val & 0x01u);
 3576              		.loc 1 933 21 view .LVU1007
 3577 0032 8DF80450 		strb	r5, [sp, #4]
 935:D:/fchai/work/i-cube/I-CUBE-HUAWEI/Drivers/BSP/Components/lps22hh\lps22hh_reg.c ****     ret = lps22hh_write_reg(ctx, LPS22HH_IF_CTRL, (uint8_t*) &reg, 1);
 3578              		.loc 1 935 5 is_stmt 1 view .LVU1008
 3579              	.LVL285:
 3580              	.LBB449:
 3581              	.LBI444:
  67:D:/fchai/work/i-cube/I-CUBE-HUAWEI/Drivers/BSP/Components/lps22hh\lps22hh_reg.c ****                            uint16_t len)
 3582              		.loc 1 67 9 view .LVU1009
 3583              	.LBB447:
  70:D:/fchai/work/i-cube/I-CUBE-HUAWEI/Drivers/BSP/Components/lps22hh\lps22hh_reg.c ****   ret = ctx->write_reg(ctx->handle, reg, data, len);
 3584              		.loc 1 70 3 view .LVU1010
  71:D:/fchai/work/i-cube/I-CUBE-HUAWEI/Drivers/BSP/Components/lps22hh\lps22hh_reg.c ****   return ret;
 3585              		.loc 1 71 3 view .LVU1011
  71:D:/fchai/work/i-cube/I-CUBE-HUAWEI/Drivers/BSP/Components/lps22hh\lps22hh_reg.c ****   return ret;
 3586              		.loc 1 71 9 is_stmt 0 view .LVU1012
 3587 0036 0123     		movs	r3, #1
 3588 0038 0E21     		movs	r1, #14
 3589 003a B047     		blx	r6
 3590              	.LVL286:
  72:D:/fchai/work/i-cube/I-CUBE-HUAWEI/Drivers/BSP/Components/lps22hh\lps22hh_reg.c **** }
ARM GAS  T:\msys\tmp\ccdfMMY7.s 			page 90


 3591              		.loc 1 72 3 is_stmt 1 view .LVU1013
  72:D:/fchai/work/i-cube/I-CUBE-HUAWEI/Drivers/BSP/Components/lps22hh\lps22hh_reg.c **** }
 3592              		.loc 1 72 3 is_stmt 0 view .LVU1014
 3593              	.LBE447:
 3594              	.LBE449:
 936:D:/fchai/work/i-cube/I-CUBE-HUAWEI/Drivers/BSP/Components/lps22hh\lps22hh_reg.c ****   }
 937:D:/fchai/work/i-cube/I-CUBE-HUAWEI/Drivers/BSP/Components/lps22hh\lps22hh_reg.c ****   return ret;
 3595              		.loc 1 937 3 is_stmt 1 view .LVU1015
 3596              	.L114:
 938:D:/fchai/work/i-cube/I-CUBE-HUAWEI/Drivers/BSP/Components/lps22hh\lps22hh_reg.c **** }
 3597              		.loc 1 938 1 is_stmt 0 view .LVU1016
 3598 003c 02B0     		add	sp, sp, #8
 3599              	.LCFI104:
 3600              		.cfi_def_cfa_offset 16
 3601              		@ sp needed
 3602 003e 70BD     		pop	{r4, r5, r6, pc}
 3603              		.loc 1 938 1 view .LVU1017
 3604              		.cfi_endproc
 3605              	.LFE39:
 3607              		.section	.text.lps22hh_i3c_interface_get,"ax",%progbits
 3608              		.align	1
 3609              		.p2align 2,,3
 3610              		.global	lps22hh_i3c_interface_get
 3611              		.syntax unified
 3612              		.thumb
 3613              		.thumb_func
 3614              		.fpu fpv4-sp-d16
 3616              	lps22hh_i3c_interface_get:
 3617              	.LVL287:
 3618              	.LFB40:
 939:D:/fchai/work/i-cube/I-CUBE-HUAWEI/Drivers/BSP/Components/lps22hh\lps22hh_reg.c **** 
 940:D:/fchai/work/i-cube/I-CUBE-HUAWEI/Drivers/BSP/Components/lps22hh\lps22hh_reg.c **** /**
 941:D:/fchai/work/i-cube/I-CUBE-HUAWEI/Drivers/BSP/Components/lps22hh\lps22hh_reg.c ****   * @brief  I3C Enable/Disable communication protocol.[get]
 942:D:/fchai/work/i-cube/I-CUBE-HUAWEI/Drivers/BSP/Components/lps22hh\lps22hh_reg.c ****   *
 943:D:/fchai/work/i-cube/I-CUBE-HUAWEI/Drivers/BSP/Components/lps22hh\lps22hh_reg.c ****   * @param  ctx      read / write interface definitions
 944:D:/fchai/work/i-cube/I-CUBE-HUAWEI/Drivers/BSP/Components/lps22hh\lps22hh_reg.c ****   * @param  val      change the values of int_en_i3c in reg IF_CTRL
 945:D:/fchai/work/i-cube/I-CUBE-HUAWEI/Drivers/BSP/Components/lps22hh\lps22hh_reg.c ****   * @retval          interface status (MANDATORY: return 0 -> no Error)
 946:D:/fchai/work/i-cube/I-CUBE-HUAWEI/Drivers/BSP/Components/lps22hh\lps22hh_reg.c ****   *
 947:D:/fchai/work/i-cube/I-CUBE-HUAWEI/Drivers/BSP/Components/lps22hh\lps22hh_reg.c ****   */
 948:D:/fchai/work/i-cube/I-CUBE-HUAWEI/Drivers/BSP/Components/lps22hh\lps22hh_reg.c **** int32_t lps22hh_i3c_interface_get(stmdev_ctx_t *ctx,
 949:D:/fchai/work/i-cube/I-CUBE-HUAWEI/Drivers/BSP/Components/lps22hh\lps22hh_reg.c ****                                   lps22hh_i3c_disable_t *val)
 950:D:/fchai/work/i-cube/I-CUBE-HUAWEI/Drivers/BSP/Components/lps22hh\lps22hh_reg.c **** {
 3619              		.loc 1 950 1 is_stmt 1 view -0
 3620              		.cfi_startproc
 3621              		@ args = 0, pretend = 0, frame = 8
 3622              		@ frame_needed = 0, uses_anonymous_args = 0
 951:D:/fchai/work/i-cube/I-CUBE-HUAWEI/Drivers/BSP/Components/lps22hh\lps22hh_reg.c ****   lps22hh_if_ctrl_t reg;
 3623              		.loc 1 951 3 view .LVU1019
 952:D:/fchai/work/i-cube/I-CUBE-HUAWEI/Drivers/BSP/Components/lps22hh\lps22hh_reg.c ****   int32_t ret;
 3624              		.loc 1 952 3 view .LVU1020
 953:D:/fchai/work/i-cube/I-CUBE-HUAWEI/Drivers/BSP/Components/lps22hh\lps22hh_reg.c **** 
 954:D:/fchai/work/i-cube/I-CUBE-HUAWEI/Drivers/BSP/Components/lps22hh\lps22hh_reg.c ****   ret = lps22hh_read_reg(ctx, LPS22HH_IF_CTRL, (uint8_t*) &reg, 1);
 3625              		.loc 1 954 3 view .LVU1021
 950:D:/fchai/work/i-cube/I-CUBE-HUAWEI/Drivers/BSP/Components/lps22hh\lps22hh_reg.c ****   lps22hh_if_ctrl_t reg;
 3626              		.loc 1 950 1 is_stmt 0 view .LVU1022
 3627 0000 30B5     		push	{r4, r5, lr}
 3628              	.LCFI105:
ARM GAS  T:\msys\tmp\ccdfMMY7.s 			page 91


 3629              		.cfi_def_cfa_offset 12
 3630              		.cfi_offset 4, -12
 3631              		.cfi_offset 5, -8
 3632              		.cfi_offset 14, -4
 3633 0002 83B0     		sub	sp, sp, #12
 3634              	.LCFI106:
 3635              		.cfi_def_cfa_offset 24
 3636              	.LVL288:
 3637              	.LBB450:
 3638              	.LBI450:
  49:D:/fchai/work/i-cube/I-CUBE-HUAWEI/Drivers/BSP/Components/lps22hh\lps22hh_reg.c ****                          uint16_t len)
 3639              		.loc 1 49 9 is_stmt 1 view .LVU1023
 3640              	.LBB451:
  52:D:/fchai/work/i-cube/I-CUBE-HUAWEI/Drivers/BSP/Components/lps22hh\lps22hh_reg.c ****   ret = ctx->read_reg(ctx->handle, reg, data, len);
 3641              		.loc 1 52 3 view .LVU1024
  53:D:/fchai/work/i-cube/I-CUBE-HUAWEI/Drivers/BSP/Components/lps22hh\lps22hh_reg.c ****   return ret;
 3642              		.loc 1 53 3 view .LVU1025
  53:D:/fchai/work/i-cube/I-CUBE-HUAWEI/Drivers/BSP/Components/lps22hh\lps22hh_reg.c ****   return ret;
 3643              		.loc 1 53 9 is_stmt 0 view .LVU1026
 3644 0004 0123     		movs	r3, #1
 3645 0006 01AA     		add	r2, sp, #4
 3646              	.LVL289:
  53:D:/fchai/work/i-cube/I-CUBE-HUAWEI/Drivers/BSP/Components/lps22hh\lps22hh_reg.c ****   return ret;
 3647              		.loc 1 53 9 view .LVU1027
 3648 0008 D0E90150 		ldrd	r5, r0, [r0, #4]
 3649              	.LVL290:
  53:D:/fchai/work/i-cube/I-CUBE-HUAWEI/Drivers/BSP/Components/lps22hh\lps22hh_reg.c ****   return ret;
 3650              		.loc 1 53 9 view .LVU1028
 3651              	.LBE451:
 3652              	.LBE450:
 950:D:/fchai/work/i-cube/I-CUBE-HUAWEI/Drivers/BSP/Components/lps22hh\lps22hh_reg.c ****   lps22hh_if_ctrl_t reg;
 3653              		.loc 1 950 1 view .LVU1029
 3654 000c 0C46     		mov	r4, r1
 3655              	.LBB454:
 3656              	.LBB452:
  53:D:/fchai/work/i-cube/I-CUBE-HUAWEI/Drivers/BSP/Components/lps22hh\lps22hh_reg.c ****   return ret;
 3657              		.loc 1 53 9 view .LVU1030
 3658 000e 0E21     		movs	r1, #14
 3659              	.LVL291:
  53:D:/fchai/work/i-cube/I-CUBE-HUAWEI/Drivers/BSP/Components/lps22hh\lps22hh_reg.c ****   return ret;
 3660              		.loc 1 53 9 view .LVU1031
 3661 0010 A847     		blx	r5
 3662              	.LVL292:
  53:D:/fchai/work/i-cube/I-CUBE-HUAWEI/Drivers/BSP/Components/lps22hh\lps22hh_reg.c ****   return ret;
 3663              		.loc 1 53 9 view .LVU1032
 3664              	.LBE452:
 3665              	.LBE454:
 955:D:/fchai/work/i-cube/I-CUBE-HUAWEI/Drivers/BSP/Components/lps22hh\lps22hh_reg.c **** 
 956:D:/fchai/work/i-cube/I-CUBE-HUAWEI/Drivers/BSP/Components/lps22hh\lps22hh_reg.c ****   switch ((reg.int_en_i3c << 4) + reg.int_en_i3c) {
 3666              		.loc 1 956 15 view .LVU1033
 3667 0012 9DF80430 		ldrb	r3, [sp, #4]	@ zero_extendqisi2
 3668 0016 DA09     		lsrs	r2, r3, #7
 3669              		.loc 1 956 27 view .LVU1034
 3670 0018 1301     		lsls	r3, r2, #4
 3671              		.loc 1 956 33 view .LVU1035
 3672 001a 1344     		add	r3, r3, r2
 3673              	.LVL293:
ARM GAS  T:\msys\tmp\ccdfMMY7.s 			page 92


 3674              	.LBB455:
 3675              	.LBB453:
  54:D:/fchai/work/i-cube/I-CUBE-HUAWEI/Drivers/BSP/Components/lps22hh\lps22hh_reg.c **** }
 3676              		.loc 1 54 3 is_stmt 1 view .LVU1036
  54:D:/fchai/work/i-cube/I-CUBE-HUAWEI/Drivers/BSP/Components/lps22hh\lps22hh_reg.c **** }
 3677              		.loc 1 54 3 is_stmt 0 view .LVU1037
 3678              	.LBE453:
 3679              	.LBE455:
 3680              		.loc 1 956 3 is_stmt 1 view .LVU1038
 3681 001c 102B     		cmp	r3, #16
 3682 001e 05D0     		beq	.L119
 3683 0020 112B     		cmp	r3, #17
 3684 0022 03D0     		beq	.L119
 957:D:/fchai/work/i-cube/I-CUBE-HUAWEI/Drivers/BSP/Components/lps22hh\lps22hh_reg.c ****     case LPS22HH_I3C_ENABLE:
 958:D:/fchai/work/i-cube/I-CUBE-HUAWEI/Drivers/BSP/Components/lps22hh\lps22hh_reg.c ****       *val = LPS22HH_I3C_ENABLE;
 3685              		.loc 1 958 7 view .LVU1039
 3686              		.loc 1 958 12 is_stmt 0 view .LVU1040
 3687 0024 0023     		movs	r3, #0
 3688 0026 2370     		strb	r3, [r4]
 959:D:/fchai/work/i-cube/I-CUBE-HUAWEI/Drivers/BSP/Components/lps22hh\lps22hh_reg.c ****       break;
 3689              		.loc 1 959 7 is_stmt 1 view .LVU1041
 960:D:/fchai/work/i-cube/I-CUBE-HUAWEI/Drivers/BSP/Components/lps22hh\lps22hh_reg.c ****     case LPS22HH_I3C_ENABLE_INT_PIN_ENABLE:
 961:D:/fchai/work/i-cube/I-CUBE-HUAWEI/Drivers/BSP/Components/lps22hh\lps22hh_reg.c ****       *val = LPS22HH_I3C_ENABLE_INT_PIN_ENABLE;
 962:D:/fchai/work/i-cube/I-CUBE-HUAWEI/Drivers/BSP/Components/lps22hh\lps22hh_reg.c ****       break;
 963:D:/fchai/work/i-cube/I-CUBE-HUAWEI/Drivers/BSP/Components/lps22hh\lps22hh_reg.c ****     case LPS22HH_I3C_DISABLE:
 964:D:/fchai/work/i-cube/I-CUBE-HUAWEI/Drivers/BSP/Components/lps22hh\lps22hh_reg.c ****       *val = LPS22HH_I3C_DISABLE;
 965:D:/fchai/work/i-cube/I-CUBE-HUAWEI/Drivers/BSP/Components/lps22hh\lps22hh_reg.c ****       break;
 966:D:/fchai/work/i-cube/I-CUBE-HUAWEI/Drivers/BSP/Components/lps22hh\lps22hh_reg.c ****     default:
 967:D:/fchai/work/i-cube/I-CUBE-HUAWEI/Drivers/BSP/Components/lps22hh\lps22hh_reg.c ****       *val = LPS22HH_I3C_ENABLE;
 968:D:/fchai/work/i-cube/I-CUBE-HUAWEI/Drivers/BSP/Components/lps22hh\lps22hh_reg.c ****       break;
 969:D:/fchai/work/i-cube/I-CUBE-HUAWEI/Drivers/BSP/Components/lps22hh\lps22hh_reg.c ****   }
 970:D:/fchai/work/i-cube/I-CUBE-HUAWEI/Drivers/BSP/Components/lps22hh\lps22hh_reg.c ****   return ret;
 971:D:/fchai/work/i-cube/I-CUBE-HUAWEI/Drivers/BSP/Components/lps22hh\lps22hh_reg.c **** }
 3690              		.loc 1 971 1 is_stmt 0 view .LVU1042
 3691 0028 03B0     		add	sp, sp, #12
 3692              	.LCFI107:
 3693              		.cfi_remember_state
 3694              		.cfi_def_cfa_offset 12
 3695              		@ sp needed
 3696 002a 30BD     		pop	{r4, r5, pc}
 3697              	.LVL294:
 3698              	.L119:
 3699              	.LCFI108:
 3700              		.cfi_restore_state
 964:D:/fchai/work/i-cube/I-CUBE-HUAWEI/Drivers/BSP/Components/lps22hh\lps22hh_reg.c ****       break;
 3701              		.loc 1 964 7 is_stmt 1 view .LVU1043
 964:D:/fchai/work/i-cube/I-CUBE-HUAWEI/Drivers/BSP/Components/lps22hh\lps22hh_reg.c ****       break;
 3702              		.loc 1 964 12 is_stmt 0 view .LVU1044
 3703 002c 2370     		strb	r3, [r4]
 965:D:/fchai/work/i-cube/I-CUBE-HUAWEI/Drivers/BSP/Components/lps22hh\lps22hh_reg.c ****     default:
 3704              		.loc 1 965 7 is_stmt 1 view .LVU1045
 970:D:/fchai/work/i-cube/I-CUBE-HUAWEI/Drivers/BSP/Components/lps22hh\lps22hh_reg.c **** }
 3705              		.loc 1 970 3 view .LVU1046
 3706              		.loc 1 971 1 is_stmt 0 view .LVU1047
 3707 002e 03B0     		add	sp, sp, #12
 3708              	.LCFI109:
 3709              		.cfi_def_cfa_offset 12
ARM GAS  T:\msys\tmp\ccdfMMY7.s 			page 93


 3710              		@ sp needed
 3711 0030 30BD     		pop	{r4, r5, pc}
 3712              		.loc 1 971 1 view .LVU1048
 3713              		.cfi_endproc
 3714              	.LFE40:
 3716 0032 00BF     		.section	.text.lps22hh_sdo_sa0_mode_set,"ax",%progbits
 3717              		.align	1
 3718              		.p2align 2,,3
 3719              		.global	lps22hh_sdo_sa0_mode_set
 3720              		.syntax unified
 3721              		.thumb
 3722              		.thumb_func
 3723              		.fpu fpv4-sp-d16
 3725              	lps22hh_sdo_sa0_mode_set:
 3726              	.LVL295:
 3727              	.LFB41:
 972:D:/fchai/work/i-cube/I-CUBE-HUAWEI/Drivers/BSP/Components/lps22hh\lps22hh_reg.c **** 
 973:D:/fchai/work/i-cube/I-CUBE-HUAWEI/Drivers/BSP/Components/lps22hh\lps22hh_reg.c **** /**
 974:D:/fchai/work/i-cube/I-CUBE-HUAWEI/Drivers/BSP/Components/lps22hh\lps22hh_reg.c ****   * @brief  Enable/Disable pull-up on SDO pin.[set]
 975:D:/fchai/work/i-cube/I-CUBE-HUAWEI/Drivers/BSP/Components/lps22hh\lps22hh_reg.c ****   *
 976:D:/fchai/work/i-cube/I-CUBE-HUAWEI/Drivers/BSP/Components/lps22hh\lps22hh_reg.c ****   * @param  ctx      read / write interface definitions
 977:D:/fchai/work/i-cube/I-CUBE-HUAWEI/Drivers/BSP/Components/lps22hh\lps22hh_reg.c ****   * @param  val      change the values of sdo_pu_en in reg IF_CTRL
 978:D:/fchai/work/i-cube/I-CUBE-HUAWEI/Drivers/BSP/Components/lps22hh\lps22hh_reg.c ****   * @retval          interface status (MANDATORY: return 0 -> no Error)
 979:D:/fchai/work/i-cube/I-CUBE-HUAWEI/Drivers/BSP/Components/lps22hh\lps22hh_reg.c ****   *
 980:D:/fchai/work/i-cube/I-CUBE-HUAWEI/Drivers/BSP/Components/lps22hh\lps22hh_reg.c ****   */
 981:D:/fchai/work/i-cube/I-CUBE-HUAWEI/Drivers/BSP/Components/lps22hh\lps22hh_reg.c **** int32_t lps22hh_sdo_sa0_mode_set(stmdev_ctx_t *ctx, lps22hh_pu_en_t val)
 982:D:/fchai/work/i-cube/I-CUBE-HUAWEI/Drivers/BSP/Components/lps22hh\lps22hh_reg.c **** {
 3728              		.loc 1 982 1 is_stmt 1 view -0
 3729              		.cfi_startproc
 3730              		@ args = 0, pretend = 0, frame = 8
 3731              		@ frame_needed = 0, uses_anonymous_args = 0
 983:D:/fchai/work/i-cube/I-CUBE-HUAWEI/Drivers/BSP/Components/lps22hh\lps22hh_reg.c ****   lps22hh_if_ctrl_t reg;
 3732              		.loc 1 983 3 view .LVU1050
 984:D:/fchai/work/i-cube/I-CUBE-HUAWEI/Drivers/BSP/Components/lps22hh\lps22hh_reg.c ****   int32_t ret;
 3733              		.loc 1 984 3 view .LVU1051
 985:D:/fchai/work/i-cube/I-CUBE-HUAWEI/Drivers/BSP/Components/lps22hh\lps22hh_reg.c **** 
 986:D:/fchai/work/i-cube/I-CUBE-HUAWEI/Drivers/BSP/Components/lps22hh\lps22hh_reg.c ****   ret = lps22hh_read_reg(ctx, LPS22HH_IF_CTRL, (uint8_t*) &reg, 1);
 3734              		.loc 1 986 3 view .LVU1052
 982:D:/fchai/work/i-cube/I-CUBE-HUAWEI/Drivers/BSP/Components/lps22hh\lps22hh_reg.c ****   lps22hh_if_ctrl_t reg;
 3735              		.loc 1 982 1 is_stmt 0 view .LVU1053
 3736 0000 70B5     		push	{r4, r5, r6, lr}
 3737              	.LCFI110:
 3738              		.cfi_def_cfa_offset 16
 3739              		.cfi_offset 4, -16
 3740              		.cfi_offset 5, -12
 3741              		.cfi_offset 6, -8
 3742              		.cfi_offset 14, -4
 3743 0002 82B0     		sub	sp, sp, #8
 3744              	.LCFI111:
 3745              		.cfi_def_cfa_offset 24
 982:D:/fchai/work/i-cube/I-CUBE-HUAWEI/Drivers/BSP/Components/lps22hh\lps22hh_reg.c ****   lps22hh_if_ctrl_t reg;
 3746              		.loc 1 982 1 view .LVU1054
 3747 0004 0446     		mov	r4, r0
 3748              	.LVL296:
 3749              	.LBB456:
 3750              	.LBI456:
  49:D:/fchai/work/i-cube/I-CUBE-HUAWEI/Drivers/BSP/Components/lps22hh\lps22hh_reg.c ****                          uint16_t len)
ARM GAS  T:\msys\tmp\ccdfMMY7.s 			page 94


 3751              		.loc 1 49 9 is_stmt 1 view .LVU1055
 3752              	.LBB457:
  52:D:/fchai/work/i-cube/I-CUBE-HUAWEI/Drivers/BSP/Components/lps22hh\lps22hh_reg.c ****   ret = ctx->read_reg(ctx->handle, reg, data, len);
 3753              		.loc 1 52 3 view .LVU1056
  53:D:/fchai/work/i-cube/I-CUBE-HUAWEI/Drivers/BSP/Components/lps22hh\lps22hh_reg.c ****   return ret;
 3754              		.loc 1 53 3 view .LVU1057
 3755              	.LBE457:
 3756              	.LBE456:
 982:D:/fchai/work/i-cube/I-CUBE-HUAWEI/Drivers/BSP/Components/lps22hh\lps22hh_reg.c ****   lps22hh_if_ctrl_t reg;
 3757              		.loc 1 982 1 is_stmt 0 view .LVU1058
 3758 0006 0D46     		mov	r5, r1
 3759              	.LBB459:
 3760              	.LBB458:
  53:D:/fchai/work/i-cube/I-CUBE-HUAWEI/Drivers/BSP/Components/lps22hh\lps22hh_reg.c ****   return ret;
 3761              		.loc 1 53 9 view .LVU1059
 3762 0008 D0E90160 		ldrd	r6, r0, [r0, #4]
 3763              	.LVL297:
  53:D:/fchai/work/i-cube/I-CUBE-HUAWEI/Drivers/BSP/Components/lps22hh\lps22hh_reg.c ****   return ret;
 3764              		.loc 1 53 9 view .LVU1060
 3765 000c 01AA     		add	r2, sp, #4
 3766              	.LVL298:
  53:D:/fchai/work/i-cube/I-CUBE-HUAWEI/Drivers/BSP/Components/lps22hh\lps22hh_reg.c ****   return ret;
 3767              		.loc 1 53 9 view .LVU1061
 3768 000e 0123     		movs	r3, #1
 3769 0010 0E21     		movs	r1, #14
 3770              	.LVL299:
  53:D:/fchai/work/i-cube/I-CUBE-HUAWEI/Drivers/BSP/Components/lps22hh\lps22hh_reg.c ****   return ret;
 3771              		.loc 1 53 9 view .LVU1062
 3772 0012 B047     		blx	r6
 3773              	.LVL300:
  54:D:/fchai/work/i-cube/I-CUBE-HUAWEI/Drivers/BSP/Components/lps22hh\lps22hh_reg.c **** }
 3774              		.loc 1 54 3 is_stmt 1 view .LVU1063
  54:D:/fchai/work/i-cube/I-CUBE-HUAWEI/Drivers/BSP/Components/lps22hh\lps22hh_reg.c **** }
 3775              		.loc 1 54 3 is_stmt 0 view .LVU1064
 3776              	.LBE458:
 3777              	.LBE459:
 987:D:/fchai/work/i-cube/I-CUBE-HUAWEI/Drivers/BSP/Components/lps22hh\lps22hh_reg.c ****   if (ret == 0) {
 3778              		.loc 1 987 3 is_stmt 1 view .LVU1065
 3779              		.loc 1 987 6 is_stmt 0 view .LVU1066
 3780 0014 58B9     		cbnz	r0, .L122
 988:D:/fchai/work/i-cube/I-CUBE-HUAWEI/Drivers/BSP/Components/lps22hh\lps22hh_reg.c ****     reg.sdo_pu_en = (uint8_t)val;
 3781              		.loc 1 988 5 is_stmt 1 view .LVU1067
 3782              		.loc 1 988 19 is_stmt 0 view .LVU1068
 3783 0016 9DF80430 		ldrb	r3, [sp, #4]	@ zero_extendqisi2
 3784              	.LBB460:
 3785              	.LBB461:
  71:D:/fchai/work/i-cube/I-CUBE-HUAWEI/Drivers/BSP/Components/lps22hh\lps22hh_reg.c ****   return ret;
 3786              		.loc 1 71 9 view .LVU1069
 3787 001a 2668     		ldr	r6, [r4]
 3788 001c A068     		ldr	r0, [r4, #8]
 3789              	.LVL301:
  71:D:/fchai/work/i-cube/I-CUBE-HUAWEI/Drivers/BSP/Components/lps22hh\lps22hh_reg.c ****   return ret;
 3790              		.loc 1 71 9 view .LVU1070
 3791              	.LBE461:
 3792              	.LBE460:
 3793              		.loc 1 988 19 view .LVU1071
 3794 001e 65F3C303 		bfi	r3, r5, #3, #1
ARM GAS  T:\msys\tmp\ccdfMMY7.s 			page 95


 3795 0022 8DF80430 		strb	r3, [sp, #4]
 989:D:/fchai/work/i-cube/I-CUBE-HUAWEI/Drivers/BSP/Components/lps22hh\lps22hh_reg.c ****     ret = lps22hh_write_reg(ctx, LPS22HH_IF_CTRL, (uint8_t*) &reg, 1);
 3796              		.loc 1 989 5 is_stmt 1 view .LVU1072
 3797              	.LVL302:
 3798              	.LBB463:
 3799              	.LBI460:
  67:D:/fchai/work/i-cube/I-CUBE-HUAWEI/Drivers/BSP/Components/lps22hh\lps22hh_reg.c ****                            uint16_t len)
 3800              		.loc 1 67 9 view .LVU1073
 3801              	.LBB462:
  70:D:/fchai/work/i-cube/I-CUBE-HUAWEI/Drivers/BSP/Components/lps22hh\lps22hh_reg.c ****   ret = ctx->write_reg(ctx->handle, reg, data, len);
 3802              		.loc 1 70 3 view .LVU1074
  71:D:/fchai/work/i-cube/I-CUBE-HUAWEI/Drivers/BSP/Components/lps22hh\lps22hh_reg.c ****   return ret;
 3803              		.loc 1 71 3 view .LVU1075
  71:D:/fchai/work/i-cube/I-CUBE-HUAWEI/Drivers/BSP/Components/lps22hh\lps22hh_reg.c ****   return ret;
 3804              		.loc 1 71 9 is_stmt 0 view .LVU1076
 3805 0026 01AA     		add	r2, sp, #4
 3806              	.LVL303:
  71:D:/fchai/work/i-cube/I-CUBE-HUAWEI/Drivers/BSP/Components/lps22hh\lps22hh_reg.c ****   return ret;
 3807              		.loc 1 71 9 view .LVU1077
 3808 0028 0123     		movs	r3, #1
 3809 002a 0E21     		movs	r1, #14
 3810 002c B047     		blx	r6
 3811              	.LVL304:
  72:D:/fchai/work/i-cube/I-CUBE-HUAWEI/Drivers/BSP/Components/lps22hh\lps22hh_reg.c **** }
 3812              		.loc 1 72 3 is_stmt 1 view .LVU1078
  72:D:/fchai/work/i-cube/I-CUBE-HUAWEI/Drivers/BSP/Components/lps22hh\lps22hh_reg.c **** }
 3813              		.loc 1 72 3 is_stmt 0 view .LVU1079
 3814              	.LBE462:
 3815              	.LBE463:
 990:D:/fchai/work/i-cube/I-CUBE-HUAWEI/Drivers/BSP/Components/lps22hh\lps22hh_reg.c ****   }
 991:D:/fchai/work/i-cube/I-CUBE-HUAWEI/Drivers/BSP/Components/lps22hh\lps22hh_reg.c ****   return ret;
 3816              		.loc 1 991 3 is_stmt 1 view .LVU1080
 3817              	.L122:
 992:D:/fchai/work/i-cube/I-CUBE-HUAWEI/Drivers/BSP/Components/lps22hh\lps22hh_reg.c **** }
 3818              		.loc 1 992 1 is_stmt 0 view .LVU1081
 3819 002e 02B0     		add	sp, sp, #8
 3820              	.LCFI112:
 3821              		.cfi_def_cfa_offset 16
 3822              		@ sp needed
 3823 0030 70BD     		pop	{r4, r5, r6, pc}
 3824              		.loc 1 992 1 view .LVU1082
 3825              		.cfi_endproc
 3826              	.LFE41:
 3828 0032 00BF     		.section	.text.lps22hh_sdo_sa0_mode_get,"ax",%progbits
 3829              		.align	1
 3830              		.p2align 2,,3
 3831              		.global	lps22hh_sdo_sa0_mode_get
 3832              		.syntax unified
 3833              		.thumb
 3834              		.thumb_func
 3835              		.fpu fpv4-sp-d16
 3837              	lps22hh_sdo_sa0_mode_get:
 3838              	.LVL305:
 3839              	.LFB42:
 993:D:/fchai/work/i-cube/I-CUBE-HUAWEI/Drivers/BSP/Components/lps22hh\lps22hh_reg.c **** 
 994:D:/fchai/work/i-cube/I-CUBE-HUAWEI/Drivers/BSP/Components/lps22hh\lps22hh_reg.c **** /**
 995:D:/fchai/work/i-cube/I-CUBE-HUAWEI/Drivers/BSP/Components/lps22hh\lps22hh_reg.c ****   * @brief  Enable/Disable pull-up on SDO pin.[get]
ARM GAS  T:\msys\tmp\ccdfMMY7.s 			page 96


 996:D:/fchai/work/i-cube/I-CUBE-HUAWEI/Drivers/BSP/Components/lps22hh\lps22hh_reg.c ****   *
 997:D:/fchai/work/i-cube/I-CUBE-HUAWEI/Drivers/BSP/Components/lps22hh\lps22hh_reg.c ****   * @param  ctx      read / write interface definitions
 998:D:/fchai/work/i-cube/I-CUBE-HUAWEI/Drivers/BSP/Components/lps22hh\lps22hh_reg.c ****   * @param  val      Get the values of sdo_pu_en in reg IF_CTRL
 999:D:/fchai/work/i-cube/I-CUBE-HUAWEI/Drivers/BSP/Components/lps22hh\lps22hh_reg.c ****   * @retval          interface status (MANDATORY: return 0 -> no Error)
1000:D:/fchai/work/i-cube/I-CUBE-HUAWEI/Drivers/BSP/Components/lps22hh\lps22hh_reg.c ****   *
1001:D:/fchai/work/i-cube/I-CUBE-HUAWEI/Drivers/BSP/Components/lps22hh\lps22hh_reg.c ****   */
1002:D:/fchai/work/i-cube/I-CUBE-HUAWEI/Drivers/BSP/Components/lps22hh\lps22hh_reg.c **** int32_t lps22hh_sdo_sa0_mode_get(stmdev_ctx_t *ctx, lps22hh_pu_en_t *val)
1003:D:/fchai/work/i-cube/I-CUBE-HUAWEI/Drivers/BSP/Components/lps22hh\lps22hh_reg.c **** {
 3840              		.loc 1 1003 1 is_stmt 1 view -0
 3841              		.cfi_startproc
 3842              		@ args = 0, pretend = 0, frame = 8
 3843              		@ frame_needed = 0, uses_anonymous_args = 0
1004:D:/fchai/work/i-cube/I-CUBE-HUAWEI/Drivers/BSP/Components/lps22hh\lps22hh_reg.c ****   lps22hh_if_ctrl_t reg;
 3844              		.loc 1 1004 3 view .LVU1084
1005:D:/fchai/work/i-cube/I-CUBE-HUAWEI/Drivers/BSP/Components/lps22hh\lps22hh_reg.c ****   int32_t ret;
 3845              		.loc 1 1005 3 view .LVU1085
1006:D:/fchai/work/i-cube/I-CUBE-HUAWEI/Drivers/BSP/Components/lps22hh\lps22hh_reg.c **** 
1007:D:/fchai/work/i-cube/I-CUBE-HUAWEI/Drivers/BSP/Components/lps22hh\lps22hh_reg.c ****   ret = lps22hh_read_reg(ctx, LPS22HH_IF_CTRL, (uint8_t*) &reg, 1);
 3846              		.loc 1 1007 3 view .LVU1086
1003:D:/fchai/work/i-cube/I-CUBE-HUAWEI/Drivers/BSP/Components/lps22hh\lps22hh_reg.c ****   lps22hh_if_ctrl_t reg;
 3847              		.loc 1 1003 1 is_stmt 0 view .LVU1087
 3848 0000 30B5     		push	{r4, r5, lr}
 3849              	.LCFI113:
 3850              		.cfi_def_cfa_offset 12
 3851              		.cfi_offset 4, -12
 3852              		.cfi_offset 5, -8
 3853              		.cfi_offset 14, -4
 3854 0002 83B0     		sub	sp, sp, #12
 3855              	.LCFI114:
 3856              		.cfi_def_cfa_offset 24
 3857              	.LVL306:
 3858              	.LBB464:
 3859              	.LBI464:
  49:D:/fchai/work/i-cube/I-CUBE-HUAWEI/Drivers/BSP/Components/lps22hh\lps22hh_reg.c ****                          uint16_t len)
 3860              		.loc 1 49 9 is_stmt 1 view .LVU1088
 3861              	.LBB465:
  52:D:/fchai/work/i-cube/I-CUBE-HUAWEI/Drivers/BSP/Components/lps22hh\lps22hh_reg.c ****   ret = ctx->read_reg(ctx->handle, reg, data, len);
 3862              		.loc 1 52 3 view .LVU1089
  53:D:/fchai/work/i-cube/I-CUBE-HUAWEI/Drivers/BSP/Components/lps22hh\lps22hh_reg.c ****   return ret;
 3863              		.loc 1 53 3 view .LVU1090
 3864              	.LBE465:
 3865              	.LBE464:
1003:D:/fchai/work/i-cube/I-CUBE-HUAWEI/Drivers/BSP/Components/lps22hh\lps22hh_reg.c ****   lps22hh_if_ctrl_t reg;
 3866              		.loc 1 1003 1 is_stmt 0 view .LVU1091
 3867 0004 0C46     		mov	r4, r1
 3868              	.LBB468:
 3869              	.LBB466:
  53:D:/fchai/work/i-cube/I-CUBE-HUAWEI/Drivers/BSP/Components/lps22hh\lps22hh_reg.c ****   return ret;
 3870              		.loc 1 53 9 view .LVU1092
 3871 0006 01AA     		add	r2, sp, #4
 3872              	.LVL307:
  53:D:/fchai/work/i-cube/I-CUBE-HUAWEI/Drivers/BSP/Components/lps22hh\lps22hh_reg.c ****   return ret;
 3873              		.loc 1 53 9 view .LVU1093
 3874 0008 D0E90150 		ldrd	r5, r0, [r0, #4]
 3875              	.LVL308:
  53:D:/fchai/work/i-cube/I-CUBE-HUAWEI/Drivers/BSP/Components/lps22hh\lps22hh_reg.c ****   return ret;
 3876              		.loc 1 53 9 view .LVU1094
ARM GAS  T:\msys\tmp\ccdfMMY7.s 			page 97


 3877 000c 0123     		movs	r3, #1
 3878 000e 0E21     		movs	r1, #14
 3879              	.LVL309:
  53:D:/fchai/work/i-cube/I-CUBE-HUAWEI/Drivers/BSP/Components/lps22hh\lps22hh_reg.c ****   return ret;
 3880              		.loc 1 53 9 view .LVU1095
 3881 0010 A847     		blx	r5
 3882              	.LVL310:
  53:D:/fchai/work/i-cube/I-CUBE-HUAWEI/Drivers/BSP/Components/lps22hh\lps22hh_reg.c ****   return ret;
 3883              		.loc 1 53 9 view .LVU1096
 3884              	.LBE466:
 3885              	.LBE468:
1008:D:/fchai/work/i-cube/I-CUBE-HUAWEI/Drivers/BSP/Components/lps22hh\lps22hh_reg.c ****   switch (reg.sdo_pu_en) {
 3886              		.loc 1 1008 14 view .LVU1097
 3887 0012 9DF80430 		ldrb	r3, [sp, #4]	@ zero_extendqisi2
 3888              	.LVL311:
 3889              	.LBB469:
 3890              	.LBB467:
  54:D:/fchai/work/i-cube/I-CUBE-HUAWEI/Drivers/BSP/Components/lps22hh\lps22hh_reg.c **** }
 3891              		.loc 1 54 3 is_stmt 1 view .LVU1098
  54:D:/fchai/work/i-cube/I-CUBE-HUAWEI/Drivers/BSP/Components/lps22hh\lps22hh_reg.c **** }
 3892              		.loc 1 54 3 is_stmt 0 view .LVU1099
 3893              	.LBE467:
 3894              	.LBE469:
 3895              		.loc 1 1008 3 is_stmt 1 view .LVU1100
 3896              		.loc 1 1008 14 is_stmt 0 view .LVU1101
 3897 0016 C3F3C002 		ubfx	r2, r3, #3, #1
 3898              		.loc 1 1008 3 view .LVU1102
 3899 001a 1B07     		lsls	r3, r3, #28
1009:D:/fchai/work/i-cube/I-CUBE-HUAWEI/Drivers/BSP/Components/lps22hh\lps22hh_reg.c ****     case LPS22HH_PULL_UP_DISCONNECT:
1010:D:/fchai/work/i-cube/I-CUBE-HUAWEI/Drivers/BSP/Components/lps22hh\lps22hh_reg.c ****       *val = LPS22HH_PULL_UP_DISCONNECT;
 3900              		.loc 1 1010 7 is_stmt 1 view .LVU1103
 3901              		.loc 1 1010 12 is_stmt 0 view .LVU1104
 3902 001c 5ABF     		itte	pl
 3903 001e 0023     		movpl	r3, #0
 3904 0020 2370     		strbpl	r3, [r4]
1011:D:/fchai/work/i-cube/I-CUBE-HUAWEI/Drivers/BSP/Components/lps22hh\lps22hh_reg.c ****       break;
 3905              		.loc 1 1011 7 is_stmt 1 view .LVU1105
1012:D:/fchai/work/i-cube/I-CUBE-HUAWEI/Drivers/BSP/Components/lps22hh\lps22hh_reg.c ****     case LPS22HH_PULL_UP_CONNECT:
1013:D:/fchai/work/i-cube/I-CUBE-HUAWEI/Drivers/BSP/Components/lps22hh\lps22hh_reg.c ****       *val = LPS22HH_PULL_UP_CONNECT;
 3906              		.loc 1 1013 7 view .LVU1106
 3907              		.loc 1 1013 12 is_stmt 0 view .LVU1107
 3908 0022 2270     		strbmi	r2, [r4]
1014:D:/fchai/work/i-cube/I-CUBE-HUAWEI/Drivers/BSP/Components/lps22hh\lps22hh_reg.c ****       break;
 3909              		.loc 1 1014 7 is_stmt 1 view .LVU1108
1015:D:/fchai/work/i-cube/I-CUBE-HUAWEI/Drivers/BSP/Components/lps22hh\lps22hh_reg.c ****     default:
1016:D:/fchai/work/i-cube/I-CUBE-HUAWEI/Drivers/BSP/Components/lps22hh\lps22hh_reg.c ****       *val = LPS22HH_PULL_UP_DISCONNECT;
1017:D:/fchai/work/i-cube/I-CUBE-HUAWEI/Drivers/BSP/Components/lps22hh\lps22hh_reg.c ****       break;
1018:D:/fchai/work/i-cube/I-CUBE-HUAWEI/Drivers/BSP/Components/lps22hh\lps22hh_reg.c ****   }
1019:D:/fchai/work/i-cube/I-CUBE-HUAWEI/Drivers/BSP/Components/lps22hh\lps22hh_reg.c **** 
1020:D:/fchai/work/i-cube/I-CUBE-HUAWEI/Drivers/BSP/Components/lps22hh\lps22hh_reg.c ****   return ret;
 3910              		.loc 1 1020 3 view .LVU1109
1021:D:/fchai/work/i-cube/I-CUBE-HUAWEI/Drivers/BSP/Components/lps22hh\lps22hh_reg.c **** }
 3911              		.loc 1 1021 1 is_stmt 0 view .LVU1110
 3912 0024 03B0     		add	sp, sp, #12
 3913              	.LCFI115:
 3914              		.cfi_def_cfa_offset 12
 3915              		@ sp needed
ARM GAS  T:\msys\tmp\ccdfMMY7.s 			page 98


 3916 0026 30BD     		pop	{r4, r5, pc}
 3917              		.loc 1 1021 1 view .LVU1111
 3918              		.cfi_endproc
 3919              	.LFE42:
 3921              		.section	.text.lps22hh_sda_mode_set,"ax",%progbits
 3922              		.align	1
 3923              		.p2align 2,,3
 3924              		.global	lps22hh_sda_mode_set
 3925              		.syntax unified
 3926              		.thumb
 3927              		.thumb_func
 3928              		.fpu fpv4-sp-d16
 3930              	lps22hh_sda_mode_set:
 3931              	.LVL312:
 3932              	.LFB43:
1022:D:/fchai/work/i-cube/I-CUBE-HUAWEI/Drivers/BSP/Components/lps22hh\lps22hh_reg.c **** 
1023:D:/fchai/work/i-cube/I-CUBE-HUAWEI/Drivers/BSP/Components/lps22hh\lps22hh_reg.c **** /**
1024:D:/fchai/work/i-cube/I-CUBE-HUAWEI/Drivers/BSP/Components/lps22hh\lps22hh_reg.c ****   * @brief  Connect/Disconnect SDO/SA0 internal pull-up.[set]
1025:D:/fchai/work/i-cube/I-CUBE-HUAWEI/Drivers/BSP/Components/lps22hh\lps22hh_reg.c ****   *
1026:D:/fchai/work/i-cube/I-CUBE-HUAWEI/Drivers/BSP/Components/lps22hh\lps22hh_reg.c ****   * @param  ctx      read / write interface definitions
1027:D:/fchai/work/i-cube/I-CUBE-HUAWEI/Drivers/BSP/Components/lps22hh\lps22hh_reg.c ****   * @param  val      change the values of sda_pu_en in reg IF_CTRL
1028:D:/fchai/work/i-cube/I-CUBE-HUAWEI/Drivers/BSP/Components/lps22hh\lps22hh_reg.c ****   * @retval          interface status (MANDATORY: return 0 -> no Error)
1029:D:/fchai/work/i-cube/I-CUBE-HUAWEI/Drivers/BSP/Components/lps22hh\lps22hh_reg.c ****   *
1030:D:/fchai/work/i-cube/I-CUBE-HUAWEI/Drivers/BSP/Components/lps22hh\lps22hh_reg.c ****   */
1031:D:/fchai/work/i-cube/I-CUBE-HUAWEI/Drivers/BSP/Components/lps22hh\lps22hh_reg.c **** int32_t lps22hh_sda_mode_set(stmdev_ctx_t *ctx, lps22hh_pu_en_t val)
1032:D:/fchai/work/i-cube/I-CUBE-HUAWEI/Drivers/BSP/Components/lps22hh\lps22hh_reg.c **** {
 3933              		.loc 1 1032 1 is_stmt 1 view -0
 3934              		.cfi_startproc
 3935              		@ args = 0, pretend = 0, frame = 8
 3936              		@ frame_needed = 0, uses_anonymous_args = 0
1033:D:/fchai/work/i-cube/I-CUBE-HUAWEI/Drivers/BSP/Components/lps22hh\lps22hh_reg.c ****   lps22hh_if_ctrl_t reg;
 3937              		.loc 1 1033 3 view .LVU1113
1034:D:/fchai/work/i-cube/I-CUBE-HUAWEI/Drivers/BSP/Components/lps22hh\lps22hh_reg.c ****   int32_t ret;
 3938              		.loc 1 1034 3 view .LVU1114
1035:D:/fchai/work/i-cube/I-CUBE-HUAWEI/Drivers/BSP/Components/lps22hh\lps22hh_reg.c **** 
1036:D:/fchai/work/i-cube/I-CUBE-HUAWEI/Drivers/BSP/Components/lps22hh\lps22hh_reg.c ****   ret = lps22hh_read_reg(ctx, LPS22HH_IF_CTRL, (uint8_t*) &reg, 1);
 3939              		.loc 1 1036 3 view .LVU1115
1032:D:/fchai/work/i-cube/I-CUBE-HUAWEI/Drivers/BSP/Components/lps22hh\lps22hh_reg.c ****   lps22hh_if_ctrl_t reg;
 3940              		.loc 1 1032 1 is_stmt 0 view .LVU1116
 3941 0000 70B5     		push	{r4, r5, r6, lr}
 3942              	.LCFI116:
 3943              		.cfi_def_cfa_offset 16
 3944              		.cfi_offset 4, -16
 3945              		.cfi_offset 5, -12
 3946              		.cfi_offset 6, -8
 3947              		.cfi_offset 14, -4
 3948 0002 82B0     		sub	sp, sp, #8
 3949              	.LCFI117:
 3950              		.cfi_def_cfa_offset 24
1032:D:/fchai/work/i-cube/I-CUBE-HUAWEI/Drivers/BSP/Components/lps22hh\lps22hh_reg.c ****   lps22hh_if_ctrl_t reg;
 3951              		.loc 1 1032 1 view .LVU1117
 3952 0004 0446     		mov	r4, r0
 3953              	.LVL313:
 3954              	.LBB470:
 3955              	.LBI470:
  49:D:/fchai/work/i-cube/I-CUBE-HUAWEI/Drivers/BSP/Components/lps22hh\lps22hh_reg.c ****                          uint16_t len)
 3956              		.loc 1 49 9 is_stmt 1 view .LVU1118
ARM GAS  T:\msys\tmp\ccdfMMY7.s 			page 99


 3957              	.LBB471:
  52:D:/fchai/work/i-cube/I-CUBE-HUAWEI/Drivers/BSP/Components/lps22hh\lps22hh_reg.c ****   ret = ctx->read_reg(ctx->handle, reg, data, len);
 3958              		.loc 1 52 3 view .LVU1119
  53:D:/fchai/work/i-cube/I-CUBE-HUAWEI/Drivers/BSP/Components/lps22hh\lps22hh_reg.c ****   return ret;
 3959              		.loc 1 53 3 view .LVU1120
 3960              	.LBE471:
 3961              	.LBE470:
1032:D:/fchai/work/i-cube/I-CUBE-HUAWEI/Drivers/BSP/Components/lps22hh\lps22hh_reg.c ****   lps22hh_if_ctrl_t reg;
 3962              		.loc 1 1032 1 is_stmt 0 view .LVU1121
 3963 0006 0D46     		mov	r5, r1
 3964              	.LBB473:
 3965              	.LBB472:
  53:D:/fchai/work/i-cube/I-CUBE-HUAWEI/Drivers/BSP/Components/lps22hh\lps22hh_reg.c ****   return ret;
 3966              		.loc 1 53 9 view .LVU1122
 3967 0008 D0E90160 		ldrd	r6, r0, [r0, #4]
 3968              	.LVL314:
  53:D:/fchai/work/i-cube/I-CUBE-HUAWEI/Drivers/BSP/Components/lps22hh\lps22hh_reg.c ****   return ret;
 3969              		.loc 1 53 9 view .LVU1123
 3970 000c 01AA     		add	r2, sp, #4
 3971              	.LVL315:
  53:D:/fchai/work/i-cube/I-CUBE-HUAWEI/Drivers/BSP/Components/lps22hh\lps22hh_reg.c ****   return ret;
 3972              		.loc 1 53 9 view .LVU1124
 3973 000e 0123     		movs	r3, #1
 3974 0010 0E21     		movs	r1, #14
 3975              	.LVL316:
  53:D:/fchai/work/i-cube/I-CUBE-HUAWEI/Drivers/BSP/Components/lps22hh\lps22hh_reg.c ****   return ret;
 3976              		.loc 1 53 9 view .LVU1125
 3977 0012 B047     		blx	r6
 3978              	.LVL317:
  54:D:/fchai/work/i-cube/I-CUBE-HUAWEI/Drivers/BSP/Components/lps22hh\lps22hh_reg.c **** }
 3979              		.loc 1 54 3 is_stmt 1 view .LVU1126
  54:D:/fchai/work/i-cube/I-CUBE-HUAWEI/Drivers/BSP/Components/lps22hh\lps22hh_reg.c **** }
 3980              		.loc 1 54 3 is_stmt 0 view .LVU1127
 3981              	.LBE472:
 3982              	.LBE473:
1037:D:/fchai/work/i-cube/I-CUBE-HUAWEI/Drivers/BSP/Components/lps22hh\lps22hh_reg.c ****   if (ret == 0) {
 3983              		.loc 1 1037 3 is_stmt 1 view .LVU1128
 3984              		.loc 1 1037 6 is_stmt 0 view .LVU1129
 3985 0014 58B9     		cbnz	r0, .L129
1038:D:/fchai/work/i-cube/I-CUBE-HUAWEI/Drivers/BSP/Components/lps22hh\lps22hh_reg.c ****     reg.sda_pu_en = (uint8_t)val;
 3986              		.loc 1 1038 5 is_stmt 1 view .LVU1130
 3987              		.loc 1 1038 19 is_stmt 0 view .LVU1131
 3988 0016 9DF80430 		ldrb	r3, [sp, #4]	@ zero_extendqisi2
 3989              	.LBB474:
 3990              	.LBB475:
  71:D:/fchai/work/i-cube/I-CUBE-HUAWEI/Drivers/BSP/Components/lps22hh\lps22hh_reg.c ****   return ret;
 3991              		.loc 1 71 9 view .LVU1132
 3992 001a 2668     		ldr	r6, [r4]
 3993 001c A068     		ldr	r0, [r4, #8]
 3994              	.LVL318:
  71:D:/fchai/work/i-cube/I-CUBE-HUAWEI/Drivers/BSP/Components/lps22hh\lps22hh_reg.c ****   return ret;
 3995              		.loc 1 71 9 view .LVU1133
 3996              	.LBE475:
 3997              	.LBE474:
 3998              		.loc 1 1038 19 view .LVU1134
 3999 001e 65F30413 		bfi	r3, r5, #4, #1
 4000 0022 8DF80430 		strb	r3, [sp, #4]
ARM GAS  T:\msys\tmp\ccdfMMY7.s 			page 100


1039:D:/fchai/work/i-cube/I-CUBE-HUAWEI/Drivers/BSP/Components/lps22hh\lps22hh_reg.c ****     ret = lps22hh_write_reg(ctx, LPS22HH_IF_CTRL, (uint8_t*) &reg, 1);
 4001              		.loc 1 1039 5 is_stmt 1 view .LVU1135
 4002              	.LVL319:
 4003              	.LBB477:
 4004              	.LBI474:
  67:D:/fchai/work/i-cube/I-CUBE-HUAWEI/Drivers/BSP/Components/lps22hh\lps22hh_reg.c ****                            uint16_t len)
 4005              		.loc 1 67 9 view .LVU1136
 4006              	.LBB476:
  70:D:/fchai/work/i-cube/I-CUBE-HUAWEI/Drivers/BSP/Components/lps22hh\lps22hh_reg.c ****   ret = ctx->write_reg(ctx->handle, reg, data, len);
 4007              		.loc 1 70 3 view .LVU1137
  71:D:/fchai/work/i-cube/I-CUBE-HUAWEI/Drivers/BSP/Components/lps22hh\lps22hh_reg.c ****   return ret;
 4008              		.loc 1 71 3 view .LVU1138
  71:D:/fchai/work/i-cube/I-CUBE-HUAWEI/Drivers/BSP/Components/lps22hh\lps22hh_reg.c ****   return ret;
 4009              		.loc 1 71 9 is_stmt 0 view .LVU1139
 4010 0026 01AA     		add	r2, sp, #4
 4011              	.LVL320:
  71:D:/fchai/work/i-cube/I-CUBE-HUAWEI/Drivers/BSP/Components/lps22hh\lps22hh_reg.c ****   return ret;
 4012              		.loc 1 71 9 view .LVU1140
 4013 0028 0123     		movs	r3, #1
 4014 002a 0E21     		movs	r1, #14
 4015 002c B047     		blx	r6
 4016              	.LVL321:
  72:D:/fchai/work/i-cube/I-CUBE-HUAWEI/Drivers/BSP/Components/lps22hh\lps22hh_reg.c **** }
 4017              		.loc 1 72 3 is_stmt 1 view .LVU1141
  72:D:/fchai/work/i-cube/I-CUBE-HUAWEI/Drivers/BSP/Components/lps22hh\lps22hh_reg.c **** }
 4018              		.loc 1 72 3 is_stmt 0 view .LVU1142
 4019              	.LBE476:
 4020              	.LBE477:
1040:D:/fchai/work/i-cube/I-CUBE-HUAWEI/Drivers/BSP/Components/lps22hh\lps22hh_reg.c ****   }
1041:D:/fchai/work/i-cube/I-CUBE-HUAWEI/Drivers/BSP/Components/lps22hh\lps22hh_reg.c ****   return ret;
 4021              		.loc 1 1041 3 is_stmt 1 view .LVU1143
 4022              	.L129:
1042:D:/fchai/work/i-cube/I-CUBE-HUAWEI/Drivers/BSP/Components/lps22hh\lps22hh_reg.c **** }
 4023              		.loc 1 1042 1 is_stmt 0 view .LVU1144
 4024 002e 02B0     		add	sp, sp, #8
 4025              	.LCFI118:
 4026              		.cfi_def_cfa_offset 16
 4027              		@ sp needed
 4028 0030 70BD     		pop	{r4, r5, r6, pc}
 4029              		.loc 1 1042 1 view .LVU1145
 4030              		.cfi_endproc
 4031              	.LFE43:
 4033 0032 00BF     		.section	.text.lps22hh_sda_mode_get,"ax",%progbits
 4034              		.align	1
 4035              		.p2align 2,,3
 4036              		.global	lps22hh_sda_mode_get
 4037              		.syntax unified
 4038              		.thumb
 4039              		.thumb_func
 4040              		.fpu fpv4-sp-d16
 4042              	lps22hh_sda_mode_get:
 4043              	.LVL322:
 4044              	.LFB44:
1043:D:/fchai/work/i-cube/I-CUBE-HUAWEI/Drivers/BSP/Components/lps22hh\lps22hh_reg.c **** 
1044:D:/fchai/work/i-cube/I-CUBE-HUAWEI/Drivers/BSP/Components/lps22hh\lps22hh_reg.c **** /**
1045:D:/fchai/work/i-cube/I-CUBE-HUAWEI/Drivers/BSP/Components/lps22hh\lps22hh_reg.c ****   * @brief  Connect/Disconnect SDO/SA0 internal pull-up.[get]
1046:D:/fchai/work/i-cube/I-CUBE-HUAWEI/Drivers/BSP/Components/lps22hh\lps22hh_reg.c ****   *
ARM GAS  T:\msys\tmp\ccdfMMY7.s 			page 101


1047:D:/fchai/work/i-cube/I-CUBE-HUAWEI/Drivers/BSP/Components/lps22hh\lps22hh_reg.c ****   * @param  ctx      read / write interface definitions
1048:D:/fchai/work/i-cube/I-CUBE-HUAWEI/Drivers/BSP/Components/lps22hh\lps22hh_reg.c ****   * @param  val      Get the values of sda_pu_en in reg IF_CTRL
1049:D:/fchai/work/i-cube/I-CUBE-HUAWEI/Drivers/BSP/Components/lps22hh\lps22hh_reg.c ****   * @retval          interface status (MANDATORY: return 0 -> no Error)
1050:D:/fchai/work/i-cube/I-CUBE-HUAWEI/Drivers/BSP/Components/lps22hh\lps22hh_reg.c ****   *
1051:D:/fchai/work/i-cube/I-CUBE-HUAWEI/Drivers/BSP/Components/lps22hh\lps22hh_reg.c ****   */
1052:D:/fchai/work/i-cube/I-CUBE-HUAWEI/Drivers/BSP/Components/lps22hh\lps22hh_reg.c **** int32_t lps22hh_sda_mode_get(stmdev_ctx_t *ctx, lps22hh_pu_en_t *val)
1053:D:/fchai/work/i-cube/I-CUBE-HUAWEI/Drivers/BSP/Components/lps22hh\lps22hh_reg.c **** {
 4045              		.loc 1 1053 1 is_stmt 1 view -0
 4046              		.cfi_startproc
 4047              		@ args = 0, pretend = 0, frame = 8
 4048              		@ frame_needed = 0, uses_anonymous_args = 0
1054:D:/fchai/work/i-cube/I-CUBE-HUAWEI/Drivers/BSP/Components/lps22hh\lps22hh_reg.c ****   lps22hh_if_ctrl_t reg;
 4049              		.loc 1 1054 3 view .LVU1147
1055:D:/fchai/work/i-cube/I-CUBE-HUAWEI/Drivers/BSP/Components/lps22hh\lps22hh_reg.c ****   int32_t ret;
 4050              		.loc 1 1055 3 view .LVU1148
1056:D:/fchai/work/i-cube/I-CUBE-HUAWEI/Drivers/BSP/Components/lps22hh\lps22hh_reg.c **** 
1057:D:/fchai/work/i-cube/I-CUBE-HUAWEI/Drivers/BSP/Components/lps22hh\lps22hh_reg.c ****   ret = lps22hh_read_reg(ctx, LPS22HH_IF_CTRL, (uint8_t*) &reg, 1);
 4051              		.loc 1 1057 3 view .LVU1149
1053:D:/fchai/work/i-cube/I-CUBE-HUAWEI/Drivers/BSP/Components/lps22hh\lps22hh_reg.c ****   lps22hh_if_ctrl_t reg;
 4052              		.loc 1 1053 1 is_stmt 0 view .LVU1150
 4053 0000 30B5     		push	{r4, r5, lr}
 4054              	.LCFI119:
 4055              		.cfi_def_cfa_offset 12
 4056              		.cfi_offset 4, -12
 4057              		.cfi_offset 5, -8
 4058              		.cfi_offset 14, -4
 4059 0002 83B0     		sub	sp, sp, #12
 4060              	.LCFI120:
 4061              		.cfi_def_cfa_offset 24
 4062              	.LVL323:
 4063              	.LBB478:
 4064              	.LBI478:
  49:D:/fchai/work/i-cube/I-CUBE-HUAWEI/Drivers/BSP/Components/lps22hh\lps22hh_reg.c ****                          uint16_t len)
 4065              		.loc 1 49 9 is_stmt 1 view .LVU1151
 4066              	.LBB479:
  52:D:/fchai/work/i-cube/I-CUBE-HUAWEI/Drivers/BSP/Components/lps22hh\lps22hh_reg.c ****   ret = ctx->read_reg(ctx->handle, reg, data, len);
 4067              		.loc 1 52 3 view .LVU1152
  53:D:/fchai/work/i-cube/I-CUBE-HUAWEI/Drivers/BSP/Components/lps22hh\lps22hh_reg.c ****   return ret;
 4068              		.loc 1 53 3 view .LVU1153
 4069              	.LBE479:
 4070              	.LBE478:
1053:D:/fchai/work/i-cube/I-CUBE-HUAWEI/Drivers/BSP/Components/lps22hh\lps22hh_reg.c ****   lps22hh_if_ctrl_t reg;
 4071              		.loc 1 1053 1 is_stmt 0 view .LVU1154
 4072 0004 0C46     		mov	r4, r1
 4073              	.LBB482:
 4074              	.LBB480:
  53:D:/fchai/work/i-cube/I-CUBE-HUAWEI/Drivers/BSP/Components/lps22hh\lps22hh_reg.c ****   return ret;
 4075              		.loc 1 53 9 view .LVU1155
 4076 0006 01AA     		add	r2, sp, #4
 4077              	.LVL324:
  53:D:/fchai/work/i-cube/I-CUBE-HUAWEI/Drivers/BSP/Components/lps22hh\lps22hh_reg.c ****   return ret;
 4078              		.loc 1 53 9 view .LVU1156
 4079 0008 D0E90150 		ldrd	r5, r0, [r0, #4]
 4080              	.LVL325:
  53:D:/fchai/work/i-cube/I-CUBE-HUAWEI/Drivers/BSP/Components/lps22hh\lps22hh_reg.c ****   return ret;
 4081              		.loc 1 53 9 view .LVU1157
 4082 000c 0123     		movs	r3, #1
ARM GAS  T:\msys\tmp\ccdfMMY7.s 			page 102


 4083 000e 0E21     		movs	r1, #14
 4084              	.LVL326:
  53:D:/fchai/work/i-cube/I-CUBE-HUAWEI/Drivers/BSP/Components/lps22hh\lps22hh_reg.c ****   return ret;
 4085              		.loc 1 53 9 view .LVU1158
 4086 0010 A847     		blx	r5
 4087              	.LVL327:
  53:D:/fchai/work/i-cube/I-CUBE-HUAWEI/Drivers/BSP/Components/lps22hh\lps22hh_reg.c ****   return ret;
 4088              		.loc 1 53 9 view .LVU1159
 4089              	.LBE480:
 4090              	.LBE482:
1058:D:/fchai/work/i-cube/I-CUBE-HUAWEI/Drivers/BSP/Components/lps22hh\lps22hh_reg.c ****   switch (reg.sda_pu_en) {
 4091              		.loc 1 1058 14 view .LVU1160
 4092 0012 9DF80430 		ldrb	r3, [sp, #4]	@ zero_extendqisi2
 4093              	.LVL328:
 4094              	.LBB483:
 4095              	.LBB481:
  54:D:/fchai/work/i-cube/I-CUBE-HUAWEI/Drivers/BSP/Components/lps22hh\lps22hh_reg.c **** }
 4096              		.loc 1 54 3 is_stmt 1 view .LVU1161
  54:D:/fchai/work/i-cube/I-CUBE-HUAWEI/Drivers/BSP/Components/lps22hh\lps22hh_reg.c **** }
 4097              		.loc 1 54 3 is_stmt 0 view .LVU1162
 4098              	.LBE481:
 4099              	.LBE483:
 4100              		.loc 1 1058 3 is_stmt 1 view .LVU1163
 4101              		.loc 1 1058 14 is_stmt 0 view .LVU1164
 4102 0016 C3F30012 		ubfx	r2, r3, #4, #1
 4103              		.loc 1 1058 3 view .LVU1165
 4104 001a DB06     		lsls	r3, r3, #27
1059:D:/fchai/work/i-cube/I-CUBE-HUAWEI/Drivers/BSP/Components/lps22hh\lps22hh_reg.c ****     case LPS22HH_PULL_UP_DISCONNECT:
1060:D:/fchai/work/i-cube/I-CUBE-HUAWEI/Drivers/BSP/Components/lps22hh\lps22hh_reg.c ****       *val = LPS22HH_PULL_UP_DISCONNECT;
 4105              		.loc 1 1060 7 is_stmt 1 view .LVU1166
 4106              		.loc 1 1060 12 is_stmt 0 view .LVU1167
 4107 001c 5ABF     		itte	pl
 4108 001e 0023     		movpl	r3, #0
 4109 0020 2370     		strbpl	r3, [r4]
1061:D:/fchai/work/i-cube/I-CUBE-HUAWEI/Drivers/BSP/Components/lps22hh\lps22hh_reg.c ****       break;
 4110              		.loc 1 1061 7 is_stmt 1 view .LVU1168
1062:D:/fchai/work/i-cube/I-CUBE-HUAWEI/Drivers/BSP/Components/lps22hh\lps22hh_reg.c ****     case LPS22HH_PULL_UP_CONNECT:
1063:D:/fchai/work/i-cube/I-CUBE-HUAWEI/Drivers/BSP/Components/lps22hh\lps22hh_reg.c ****       *val = LPS22HH_PULL_UP_CONNECT;
 4111              		.loc 1 1063 7 view .LVU1169
 4112              		.loc 1 1063 12 is_stmt 0 view .LVU1170
 4113 0022 2270     		strbmi	r2, [r4]
1064:D:/fchai/work/i-cube/I-CUBE-HUAWEI/Drivers/BSP/Components/lps22hh\lps22hh_reg.c ****       break;
 4114              		.loc 1 1064 7 is_stmt 1 view .LVU1171
1065:D:/fchai/work/i-cube/I-CUBE-HUAWEI/Drivers/BSP/Components/lps22hh\lps22hh_reg.c ****     default:
1066:D:/fchai/work/i-cube/I-CUBE-HUAWEI/Drivers/BSP/Components/lps22hh\lps22hh_reg.c ****       *val = LPS22HH_PULL_UP_DISCONNECT;
1067:D:/fchai/work/i-cube/I-CUBE-HUAWEI/Drivers/BSP/Components/lps22hh\lps22hh_reg.c ****       break;
1068:D:/fchai/work/i-cube/I-CUBE-HUAWEI/Drivers/BSP/Components/lps22hh\lps22hh_reg.c ****   }
1069:D:/fchai/work/i-cube/I-CUBE-HUAWEI/Drivers/BSP/Components/lps22hh\lps22hh_reg.c ****   return ret;
 4115              		.loc 1 1069 3 view .LVU1172
1070:D:/fchai/work/i-cube/I-CUBE-HUAWEI/Drivers/BSP/Components/lps22hh\lps22hh_reg.c **** }
 4116              		.loc 1 1070 1 is_stmt 0 view .LVU1173
 4117 0024 03B0     		add	sp, sp, #12
 4118              	.LCFI121:
 4119              		.cfi_def_cfa_offset 12
 4120              		@ sp needed
 4121 0026 30BD     		pop	{r4, r5, pc}
 4122              		.loc 1 1070 1 view .LVU1174
ARM GAS  T:\msys\tmp\ccdfMMY7.s 			page 103


 4123              		.cfi_endproc
 4124              	.LFE44:
 4126              		.section	.text.lps22hh_spi_mode_set,"ax",%progbits
 4127              		.align	1
 4128              		.p2align 2,,3
 4129              		.global	lps22hh_spi_mode_set
 4130              		.syntax unified
 4131              		.thumb
 4132              		.thumb_func
 4133              		.fpu fpv4-sp-d16
 4135              	lps22hh_spi_mode_set:
 4136              	.LVL329:
 4137              	.LFB45:
1071:D:/fchai/work/i-cube/I-CUBE-HUAWEI/Drivers/BSP/Components/lps22hh\lps22hh_reg.c **** 
1072:D:/fchai/work/i-cube/I-CUBE-HUAWEI/Drivers/BSP/Components/lps22hh\lps22hh_reg.c **** /**
1073:D:/fchai/work/i-cube/I-CUBE-HUAWEI/Drivers/BSP/Components/lps22hh\lps22hh_reg.c ****   * @brief  SPI Serial Interface Mode selection.[set]
1074:D:/fchai/work/i-cube/I-CUBE-HUAWEI/Drivers/BSP/Components/lps22hh\lps22hh_reg.c ****   *
1075:D:/fchai/work/i-cube/I-CUBE-HUAWEI/Drivers/BSP/Components/lps22hh\lps22hh_reg.c ****   * @param  ctx      read / write interface definitions
1076:D:/fchai/work/i-cube/I-CUBE-HUAWEI/Drivers/BSP/Components/lps22hh\lps22hh_reg.c ****   * @param  val      change the values of sim in reg CTRL_REG1
1077:D:/fchai/work/i-cube/I-CUBE-HUAWEI/Drivers/BSP/Components/lps22hh\lps22hh_reg.c ****   * @retval          interface status (MANDATORY: return 0 -> no Error)
1078:D:/fchai/work/i-cube/I-CUBE-HUAWEI/Drivers/BSP/Components/lps22hh\lps22hh_reg.c ****   *
1079:D:/fchai/work/i-cube/I-CUBE-HUAWEI/Drivers/BSP/Components/lps22hh\lps22hh_reg.c ****   */
1080:D:/fchai/work/i-cube/I-CUBE-HUAWEI/Drivers/BSP/Components/lps22hh\lps22hh_reg.c **** int32_t lps22hh_spi_mode_set(stmdev_ctx_t *ctx, lps22hh_sim_t val)
1081:D:/fchai/work/i-cube/I-CUBE-HUAWEI/Drivers/BSP/Components/lps22hh\lps22hh_reg.c **** {
 4138              		.loc 1 1081 1 is_stmt 1 view -0
 4139              		.cfi_startproc
 4140              		@ args = 0, pretend = 0, frame = 8
 4141              		@ frame_needed = 0, uses_anonymous_args = 0
1082:D:/fchai/work/i-cube/I-CUBE-HUAWEI/Drivers/BSP/Components/lps22hh\lps22hh_reg.c ****   lps22hh_ctrl_reg1_t reg;
 4142              		.loc 1 1082 3 view .LVU1176
1083:D:/fchai/work/i-cube/I-CUBE-HUAWEI/Drivers/BSP/Components/lps22hh\lps22hh_reg.c ****   int32_t ret;
 4143              		.loc 1 1083 3 view .LVU1177
1084:D:/fchai/work/i-cube/I-CUBE-HUAWEI/Drivers/BSP/Components/lps22hh\lps22hh_reg.c **** 
1085:D:/fchai/work/i-cube/I-CUBE-HUAWEI/Drivers/BSP/Components/lps22hh\lps22hh_reg.c ****   ret = lps22hh_read_reg(ctx, LPS22HH_CTRL_REG1, (uint8_t*) &reg, 1);
 4144              		.loc 1 1085 3 view .LVU1178
1081:D:/fchai/work/i-cube/I-CUBE-HUAWEI/Drivers/BSP/Components/lps22hh\lps22hh_reg.c ****   lps22hh_ctrl_reg1_t reg;
 4145              		.loc 1 1081 1 is_stmt 0 view .LVU1179
 4146 0000 70B5     		push	{r4, r5, r6, lr}
 4147              	.LCFI122:
 4148              		.cfi_def_cfa_offset 16
 4149              		.cfi_offset 4, -16
 4150              		.cfi_offset 5, -12
 4151              		.cfi_offset 6, -8
 4152              		.cfi_offset 14, -4
 4153 0002 82B0     		sub	sp, sp, #8
 4154              	.LCFI123:
 4155              		.cfi_def_cfa_offset 24
1081:D:/fchai/work/i-cube/I-CUBE-HUAWEI/Drivers/BSP/Components/lps22hh\lps22hh_reg.c ****   lps22hh_ctrl_reg1_t reg;
 4156              		.loc 1 1081 1 view .LVU1180
 4157 0004 0446     		mov	r4, r0
 4158              	.LVL330:
 4159              	.LBB484:
 4160              	.LBI484:
  49:D:/fchai/work/i-cube/I-CUBE-HUAWEI/Drivers/BSP/Components/lps22hh\lps22hh_reg.c ****                          uint16_t len)
 4161              		.loc 1 49 9 is_stmt 1 view .LVU1181
 4162              	.LBB485:
  52:D:/fchai/work/i-cube/I-CUBE-HUAWEI/Drivers/BSP/Components/lps22hh\lps22hh_reg.c ****   ret = ctx->read_reg(ctx->handle, reg, data, len);
ARM GAS  T:\msys\tmp\ccdfMMY7.s 			page 104


 4163              		.loc 1 52 3 view .LVU1182
  53:D:/fchai/work/i-cube/I-CUBE-HUAWEI/Drivers/BSP/Components/lps22hh\lps22hh_reg.c ****   return ret;
 4164              		.loc 1 53 3 view .LVU1183
 4165              	.LBE485:
 4166              	.LBE484:
1081:D:/fchai/work/i-cube/I-CUBE-HUAWEI/Drivers/BSP/Components/lps22hh\lps22hh_reg.c ****   lps22hh_ctrl_reg1_t reg;
 4167              		.loc 1 1081 1 is_stmt 0 view .LVU1184
 4168 0006 0D46     		mov	r5, r1
 4169              	.LBB487:
 4170              	.LBB486:
  53:D:/fchai/work/i-cube/I-CUBE-HUAWEI/Drivers/BSP/Components/lps22hh\lps22hh_reg.c ****   return ret;
 4171              		.loc 1 53 9 view .LVU1185
 4172 0008 D0E90160 		ldrd	r6, r0, [r0, #4]
 4173              	.LVL331:
  53:D:/fchai/work/i-cube/I-CUBE-HUAWEI/Drivers/BSP/Components/lps22hh\lps22hh_reg.c ****   return ret;
 4174              		.loc 1 53 9 view .LVU1186
 4175 000c 01AA     		add	r2, sp, #4
 4176              	.LVL332:
  53:D:/fchai/work/i-cube/I-CUBE-HUAWEI/Drivers/BSP/Components/lps22hh\lps22hh_reg.c ****   return ret;
 4177              		.loc 1 53 9 view .LVU1187
 4178 000e 0123     		movs	r3, #1
 4179 0010 1021     		movs	r1, #16
 4180              	.LVL333:
  53:D:/fchai/work/i-cube/I-CUBE-HUAWEI/Drivers/BSP/Components/lps22hh\lps22hh_reg.c ****   return ret;
 4181              		.loc 1 53 9 view .LVU1188
 4182 0012 B047     		blx	r6
 4183              	.LVL334:
  54:D:/fchai/work/i-cube/I-CUBE-HUAWEI/Drivers/BSP/Components/lps22hh\lps22hh_reg.c **** }
 4184              		.loc 1 54 3 is_stmt 1 view .LVU1189
  54:D:/fchai/work/i-cube/I-CUBE-HUAWEI/Drivers/BSP/Components/lps22hh\lps22hh_reg.c **** }
 4185              		.loc 1 54 3 is_stmt 0 view .LVU1190
 4186              	.LBE486:
 4187              	.LBE487:
1086:D:/fchai/work/i-cube/I-CUBE-HUAWEI/Drivers/BSP/Components/lps22hh\lps22hh_reg.c ****   if (ret == 0) {
 4188              		.loc 1 1086 3 is_stmt 1 view .LVU1191
 4189              		.loc 1 1086 6 is_stmt 0 view .LVU1192
 4190 0014 58B9     		cbnz	r0, .L136
1087:D:/fchai/work/i-cube/I-CUBE-HUAWEI/Drivers/BSP/Components/lps22hh\lps22hh_reg.c ****     reg.sim = (uint8_t)val;
 4191              		.loc 1 1087 5 is_stmt 1 view .LVU1193
 4192              		.loc 1 1087 13 is_stmt 0 view .LVU1194
 4193 0016 9DF80430 		ldrb	r3, [sp, #4]	@ zero_extendqisi2
 4194              	.LBB488:
 4195              	.LBB489:
  71:D:/fchai/work/i-cube/I-CUBE-HUAWEI/Drivers/BSP/Components/lps22hh\lps22hh_reg.c ****   return ret;
 4196              		.loc 1 71 9 view .LVU1195
 4197 001a 2668     		ldr	r6, [r4]
 4198 001c A068     		ldr	r0, [r4, #8]
 4199              	.LVL335:
  71:D:/fchai/work/i-cube/I-CUBE-HUAWEI/Drivers/BSP/Components/lps22hh\lps22hh_reg.c ****   return ret;
 4200              		.loc 1 71 9 view .LVU1196
 4201              	.LBE489:
 4202              	.LBE488:
 4203              		.loc 1 1087 13 view .LVU1197
 4204 001e 65F30003 		bfi	r3, r5, #0, #1
 4205 0022 8DF80430 		strb	r3, [sp, #4]
1088:D:/fchai/work/i-cube/I-CUBE-HUAWEI/Drivers/BSP/Components/lps22hh\lps22hh_reg.c ****     ret = lps22hh_write_reg(ctx, LPS22HH_CTRL_REG1, (uint8_t*) &reg, 1);
 4206              		.loc 1 1088 5 is_stmt 1 view .LVU1198
ARM GAS  T:\msys\tmp\ccdfMMY7.s 			page 105


 4207              	.LVL336:
 4208              	.LBB491:
 4209              	.LBI488:
  67:D:/fchai/work/i-cube/I-CUBE-HUAWEI/Drivers/BSP/Components/lps22hh\lps22hh_reg.c ****                            uint16_t len)
 4210              		.loc 1 67 9 view .LVU1199
 4211              	.LBB490:
  70:D:/fchai/work/i-cube/I-CUBE-HUAWEI/Drivers/BSP/Components/lps22hh\lps22hh_reg.c ****   ret = ctx->write_reg(ctx->handle, reg, data, len);
 4212              		.loc 1 70 3 view .LVU1200
  71:D:/fchai/work/i-cube/I-CUBE-HUAWEI/Drivers/BSP/Components/lps22hh\lps22hh_reg.c ****   return ret;
 4213              		.loc 1 71 3 view .LVU1201
  71:D:/fchai/work/i-cube/I-CUBE-HUAWEI/Drivers/BSP/Components/lps22hh\lps22hh_reg.c ****   return ret;
 4214              		.loc 1 71 9 is_stmt 0 view .LVU1202
 4215 0026 01AA     		add	r2, sp, #4
 4216              	.LVL337:
  71:D:/fchai/work/i-cube/I-CUBE-HUAWEI/Drivers/BSP/Components/lps22hh\lps22hh_reg.c ****   return ret;
 4217              		.loc 1 71 9 view .LVU1203
 4218 0028 0123     		movs	r3, #1
 4219 002a 1021     		movs	r1, #16
 4220 002c B047     		blx	r6
 4221              	.LVL338:
  72:D:/fchai/work/i-cube/I-CUBE-HUAWEI/Drivers/BSP/Components/lps22hh\lps22hh_reg.c **** }
 4222              		.loc 1 72 3 is_stmt 1 view .LVU1204
  72:D:/fchai/work/i-cube/I-CUBE-HUAWEI/Drivers/BSP/Components/lps22hh\lps22hh_reg.c **** }
 4223              		.loc 1 72 3 is_stmt 0 view .LVU1205
 4224              	.LBE490:
 4225              	.LBE491:
1089:D:/fchai/work/i-cube/I-CUBE-HUAWEI/Drivers/BSP/Components/lps22hh\lps22hh_reg.c ****   }
1090:D:/fchai/work/i-cube/I-CUBE-HUAWEI/Drivers/BSP/Components/lps22hh\lps22hh_reg.c ****   return ret;
 4226              		.loc 1 1090 3 is_stmt 1 view .LVU1206
 4227              	.L136:
1091:D:/fchai/work/i-cube/I-CUBE-HUAWEI/Drivers/BSP/Components/lps22hh\lps22hh_reg.c **** }
 4228              		.loc 1 1091 1 is_stmt 0 view .LVU1207
 4229 002e 02B0     		add	sp, sp, #8
 4230              	.LCFI124:
 4231              		.cfi_def_cfa_offset 16
 4232              		@ sp needed
 4233 0030 70BD     		pop	{r4, r5, r6, pc}
 4234              		.loc 1 1091 1 view .LVU1208
 4235              		.cfi_endproc
 4236              	.LFE45:
 4238 0032 00BF     		.section	.text.lps22hh_spi_mode_get,"ax",%progbits
 4239              		.align	1
 4240              		.p2align 2,,3
 4241              		.global	lps22hh_spi_mode_get
 4242              		.syntax unified
 4243              		.thumb
 4244              		.thumb_func
 4245              		.fpu fpv4-sp-d16
 4247              	lps22hh_spi_mode_get:
 4248              	.LVL339:
 4249              	.LFB46:
1092:D:/fchai/work/i-cube/I-CUBE-HUAWEI/Drivers/BSP/Components/lps22hh\lps22hh_reg.c **** 
1093:D:/fchai/work/i-cube/I-CUBE-HUAWEI/Drivers/BSP/Components/lps22hh\lps22hh_reg.c **** /**
1094:D:/fchai/work/i-cube/I-CUBE-HUAWEI/Drivers/BSP/Components/lps22hh\lps22hh_reg.c ****   * @brief  SPI Serial Interface Mode selection.[get]
1095:D:/fchai/work/i-cube/I-CUBE-HUAWEI/Drivers/BSP/Components/lps22hh\lps22hh_reg.c ****   *
1096:D:/fchai/work/i-cube/I-CUBE-HUAWEI/Drivers/BSP/Components/lps22hh\lps22hh_reg.c ****   * @param  ctx      read / write interface definitions
1097:D:/fchai/work/i-cube/I-CUBE-HUAWEI/Drivers/BSP/Components/lps22hh\lps22hh_reg.c ****   * @param  val      Get the values of sim in reg CTRL_REG1
ARM GAS  T:\msys\tmp\ccdfMMY7.s 			page 106


1098:D:/fchai/work/i-cube/I-CUBE-HUAWEI/Drivers/BSP/Components/lps22hh\lps22hh_reg.c ****   * @retval          interface status (MANDATORY: return 0 -> no Error)
1099:D:/fchai/work/i-cube/I-CUBE-HUAWEI/Drivers/BSP/Components/lps22hh\lps22hh_reg.c ****   *
1100:D:/fchai/work/i-cube/I-CUBE-HUAWEI/Drivers/BSP/Components/lps22hh\lps22hh_reg.c ****   */
1101:D:/fchai/work/i-cube/I-CUBE-HUAWEI/Drivers/BSP/Components/lps22hh\lps22hh_reg.c **** int32_t lps22hh_spi_mode_get(stmdev_ctx_t *ctx, lps22hh_sim_t *val)
1102:D:/fchai/work/i-cube/I-CUBE-HUAWEI/Drivers/BSP/Components/lps22hh\lps22hh_reg.c **** {
 4250              		.loc 1 1102 1 is_stmt 1 view -0
 4251              		.cfi_startproc
 4252              		@ args = 0, pretend = 0, frame = 8
 4253              		@ frame_needed = 0, uses_anonymous_args = 0
1103:D:/fchai/work/i-cube/I-CUBE-HUAWEI/Drivers/BSP/Components/lps22hh\lps22hh_reg.c ****   lps22hh_ctrl_reg1_t reg;
 4254              		.loc 1 1103 3 view .LVU1210
1104:D:/fchai/work/i-cube/I-CUBE-HUAWEI/Drivers/BSP/Components/lps22hh\lps22hh_reg.c ****   int32_t ret;
 4255              		.loc 1 1104 3 view .LVU1211
1105:D:/fchai/work/i-cube/I-CUBE-HUAWEI/Drivers/BSP/Components/lps22hh\lps22hh_reg.c **** 
1106:D:/fchai/work/i-cube/I-CUBE-HUAWEI/Drivers/BSP/Components/lps22hh\lps22hh_reg.c ****   ret = lps22hh_read_reg(ctx, LPS22HH_CTRL_REG1, (uint8_t*) &reg, 1);
 4256              		.loc 1 1106 3 view .LVU1212
1102:D:/fchai/work/i-cube/I-CUBE-HUAWEI/Drivers/BSP/Components/lps22hh\lps22hh_reg.c ****   lps22hh_ctrl_reg1_t reg;
 4257              		.loc 1 1102 1 is_stmt 0 view .LVU1213
 4258 0000 30B5     		push	{r4, r5, lr}
 4259              	.LCFI125:
 4260              		.cfi_def_cfa_offset 12
 4261              		.cfi_offset 4, -12
 4262              		.cfi_offset 5, -8
 4263              		.cfi_offset 14, -4
 4264 0002 83B0     		sub	sp, sp, #12
 4265              	.LCFI126:
 4266              		.cfi_def_cfa_offset 24
 4267              	.LVL340:
 4268              	.LBB492:
 4269              	.LBI492:
  49:D:/fchai/work/i-cube/I-CUBE-HUAWEI/Drivers/BSP/Components/lps22hh\lps22hh_reg.c ****                          uint16_t len)
 4270              		.loc 1 49 9 is_stmt 1 view .LVU1214
 4271              	.LBB493:
  52:D:/fchai/work/i-cube/I-CUBE-HUAWEI/Drivers/BSP/Components/lps22hh\lps22hh_reg.c ****   ret = ctx->read_reg(ctx->handle, reg, data, len);
 4272              		.loc 1 52 3 view .LVU1215
  53:D:/fchai/work/i-cube/I-CUBE-HUAWEI/Drivers/BSP/Components/lps22hh\lps22hh_reg.c ****   return ret;
 4273              		.loc 1 53 3 view .LVU1216
 4274              	.LBE493:
 4275              	.LBE492:
1102:D:/fchai/work/i-cube/I-CUBE-HUAWEI/Drivers/BSP/Components/lps22hh\lps22hh_reg.c ****   lps22hh_ctrl_reg1_t reg;
 4276              		.loc 1 1102 1 is_stmt 0 view .LVU1217
 4277 0004 0C46     		mov	r4, r1
 4278              	.LBB496:
 4279              	.LBB494:
  53:D:/fchai/work/i-cube/I-CUBE-HUAWEI/Drivers/BSP/Components/lps22hh\lps22hh_reg.c ****   return ret;
 4280              		.loc 1 53 9 view .LVU1218
 4281 0006 01AA     		add	r2, sp, #4
 4282              	.LVL341:
  53:D:/fchai/work/i-cube/I-CUBE-HUAWEI/Drivers/BSP/Components/lps22hh\lps22hh_reg.c ****   return ret;
 4283              		.loc 1 53 9 view .LVU1219
 4284 0008 D0E90150 		ldrd	r5, r0, [r0, #4]
 4285              	.LVL342:
  53:D:/fchai/work/i-cube/I-CUBE-HUAWEI/Drivers/BSP/Components/lps22hh\lps22hh_reg.c ****   return ret;
 4286              		.loc 1 53 9 view .LVU1220
 4287 000c 0123     		movs	r3, #1
 4288 000e 1021     		movs	r1, #16
 4289              	.LVL343:
ARM GAS  T:\msys\tmp\ccdfMMY7.s 			page 107


  53:D:/fchai/work/i-cube/I-CUBE-HUAWEI/Drivers/BSP/Components/lps22hh\lps22hh_reg.c ****   return ret;
 4290              		.loc 1 53 9 view .LVU1221
 4291 0010 A847     		blx	r5
 4292              	.LVL344:
  53:D:/fchai/work/i-cube/I-CUBE-HUAWEI/Drivers/BSP/Components/lps22hh\lps22hh_reg.c ****   return ret;
 4293              		.loc 1 53 9 view .LVU1222
 4294              	.LBE494:
 4295              	.LBE496:
1107:D:/fchai/work/i-cube/I-CUBE-HUAWEI/Drivers/BSP/Components/lps22hh\lps22hh_reg.c ****   switch (reg.sim) {
 4296              		.loc 1 1107 14 view .LVU1223
 4297 0012 9DF80430 		ldrb	r3, [sp, #4]	@ zero_extendqisi2
 4298              	.LVL345:
 4299              	.LBB497:
 4300              	.LBB495:
  54:D:/fchai/work/i-cube/I-CUBE-HUAWEI/Drivers/BSP/Components/lps22hh\lps22hh_reg.c **** }
 4301              		.loc 1 54 3 is_stmt 1 view .LVU1224
  54:D:/fchai/work/i-cube/I-CUBE-HUAWEI/Drivers/BSP/Components/lps22hh\lps22hh_reg.c **** }
 4302              		.loc 1 54 3 is_stmt 0 view .LVU1225
 4303              	.LBE495:
 4304              	.LBE497:
 4305              		.loc 1 1107 3 is_stmt 1 view .LVU1226
 4306              		.loc 1 1107 14 is_stmt 0 view .LVU1227
 4307 0016 C3F30002 		ubfx	r2, r3, #0, #1
 4308              		.loc 1 1107 3 view .LVU1228
 4309 001a DB07     		lsls	r3, r3, #31
1108:D:/fchai/work/i-cube/I-CUBE-HUAWEI/Drivers/BSP/Components/lps22hh\lps22hh_reg.c ****     case LPS22HH_SPI_4_WIRE:
1109:D:/fchai/work/i-cube/I-CUBE-HUAWEI/Drivers/BSP/Components/lps22hh\lps22hh_reg.c ****       *val = LPS22HH_SPI_4_WIRE;
 4310              		.loc 1 1109 7 is_stmt 1 view .LVU1229
 4311              		.loc 1 1109 12 is_stmt 0 view .LVU1230
 4312 001c 5ABF     		itte	pl
 4313 001e 0023     		movpl	r3, #0
 4314 0020 2370     		strbpl	r3, [r4]
1110:D:/fchai/work/i-cube/I-CUBE-HUAWEI/Drivers/BSP/Components/lps22hh\lps22hh_reg.c ****       break;
 4315              		.loc 1 1110 7 is_stmt 1 view .LVU1231
1111:D:/fchai/work/i-cube/I-CUBE-HUAWEI/Drivers/BSP/Components/lps22hh\lps22hh_reg.c ****     case LPS22HH_SPI_3_WIRE:
1112:D:/fchai/work/i-cube/I-CUBE-HUAWEI/Drivers/BSP/Components/lps22hh\lps22hh_reg.c ****       *val = LPS22HH_SPI_3_WIRE;
 4316              		.loc 1 1112 7 view .LVU1232
 4317              		.loc 1 1112 12 is_stmt 0 view .LVU1233
 4318 0022 2270     		strbmi	r2, [r4]
1113:D:/fchai/work/i-cube/I-CUBE-HUAWEI/Drivers/BSP/Components/lps22hh\lps22hh_reg.c ****       break;
 4319              		.loc 1 1113 7 is_stmt 1 view .LVU1234
1114:D:/fchai/work/i-cube/I-CUBE-HUAWEI/Drivers/BSP/Components/lps22hh\lps22hh_reg.c ****     default:
1115:D:/fchai/work/i-cube/I-CUBE-HUAWEI/Drivers/BSP/Components/lps22hh\lps22hh_reg.c ****       *val = LPS22HH_SPI_4_WIRE;
1116:D:/fchai/work/i-cube/I-CUBE-HUAWEI/Drivers/BSP/Components/lps22hh\lps22hh_reg.c ****       break;
1117:D:/fchai/work/i-cube/I-CUBE-HUAWEI/Drivers/BSP/Components/lps22hh\lps22hh_reg.c ****   }
1118:D:/fchai/work/i-cube/I-CUBE-HUAWEI/Drivers/BSP/Components/lps22hh\lps22hh_reg.c ****   return ret;
 4320              		.loc 1 1118 3 view .LVU1235
1119:D:/fchai/work/i-cube/I-CUBE-HUAWEI/Drivers/BSP/Components/lps22hh\lps22hh_reg.c **** }
 4321              		.loc 1 1119 1 is_stmt 0 view .LVU1236
 4322 0024 03B0     		add	sp, sp, #12
 4323              	.LCFI127:
 4324              		.cfi_def_cfa_offset 12
 4325              		@ sp needed
 4326 0026 30BD     		pop	{r4, r5, pc}
 4327              		.loc 1 1119 1 view .LVU1237
 4328              		.cfi_endproc
 4329              	.LFE46:
ARM GAS  T:\msys\tmp\ccdfMMY7.s 			page 108


 4331              		.section	.text.lps22hh_int_notification_set,"ax",%progbits
 4332              		.align	1
 4333              		.p2align 2,,3
 4334              		.global	lps22hh_int_notification_set
 4335              		.syntax unified
 4336              		.thumb
 4337              		.thumb_func
 4338              		.fpu fpv4-sp-d16
 4340              	lps22hh_int_notification_set:
 4341              	.LVL346:
 4342              	.LFB47:
1120:D:/fchai/work/i-cube/I-CUBE-HUAWEI/Drivers/BSP/Components/lps22hh\lps22hh_reg.c **** 
1121:D:/fchai/work/i-cube/I-CUBE-HUAWEI/Drivers/BSP/Components/lps22hh\lps22hh_reg.c **** /**
1122:D:/fchai/work/i-cube/I-CUBE-HUAWEI/Drivers/BSP/Components/lps22hh\lps22hh_reg.c ****   * @}
1123:D:/fchai/work/i-cube/I-CUBE-HUAWEI/Drivers/BSP/Components/lps22hh\lps22hh_reg.c ****   *
1124:D:/fchai/work/i-cube/I-CUBE-HUAWEI/Drivers/BSP/Components/lps22hh\lps22hh_reg.c ****   */
1125:D:/fchai/work/i-cube/I-CUBE-HUAWEI/Drivers/BSP/Components/lps22hh\lps22hh_reg.c **** 
1126:D:/fchai/work/i-cube/I-CUBE-HUAWEI/Drivers/BSP/Components/lps22hh\lps22hh_reg.c **** /**
1127:D:/fchai/work/i-cube/I-CUBE-HUAWEI/Drivers/BSP/Components/lps22hh\lps22hh_reg.c ****   * @defgroup  LPS22HH_Interrupt_Pins
1128:D:/fchai/work/i-cube/I-CUBE-HUAWEI/Drivers/BSP/Components/lps22hh\lps22hh_reg.c ****   * @brief     This section groups all the functions that manage
1129:D:/fchai/work/i-cube/I-CUBE-HUAWEI/Drivers/BSP/Components/lps22hh\lps22hh_reg.c ****   *            interrupt pins.
1130:D:/fchai/work/i-cube/I-CUBE-HUAWEI/Drivers/BSP/Components/lps22hh\lps22hh_reg.c ****   * @{
1131:D:/fchai/work/i-cube/I-CUBE-HUAWEI/Drivers/BSP/Components/lps22hh\lps22hh_reg.c ****   *
1132:D:/fchai/work/i-cube/I-CUBE-HUAWEI/Drivers/BSP/Components/lps22hh\lps22hh_reg.c ****   */
1133:D:/fchai/work/i-cube/I-CUBE-HUAWEI/Drivers/BSP/Components/lps22hh\lps22hh_reg.c **** 
1134:D:/fchai/work/i-cube/I-CUBE-HUAWEI/Drivers/BSP/Components/lps22hh\lps22hh_reg.c **** /**
1135:D:/fchai/work/i-cube/I-CUBE-HUAWEI/Drivers/BSP/Components/lps22hh\lps22hh_reg.c ****   * @brief  Latch interrupt request to the INT_SOURCE (24h) register.[set]
1136:D:/fchai/work/i-cube/I-CUBE-HUAWEI/Drivers/BSP/Components/lps22hh\lps22hh_reg.c ****   *
1137:D:/fchai/work/i-cube/I-CUBE-HUAWEI/Drivers/BSP/Components/lps22hh\lps22hh_reg.c ****   * @param  ctx      read / write interface definitions
1138:D:/fchai/work/i-cube/I-CUBE-HUAWEI/Drivers/BSP/Components/lps22hh\lps22hh_reg.c ****   * @param  val      change the values of lir in reg INTERRUPT_CFG
1139:D:/fchai/work/i-cube/I-CUBE-HUAWEI/Drivers/BSP/Components/lps22hh\lps22hh_reg.c ****   * @retval          interface status (MANDATORY: return 0 -> no Error)
1140:D:/fchai/work/i-cube/I-CUBE-HUAWEI/Drivers/BSP/Components/lps22hh\lps22hh_reg.c ****   *
1141:D:/fchai/work/i-cube/I-CUBE-HUAWEI/Drivers/BSP/Components/lps22hh\lps22hh_reg.c ****   */
1142:D:/fchai/work/i-cube/I-CUBE-HUAWEI/Drivers/BSP/Components/lps22hh\lps22hh_reg.c **** int32_t lps22hh_int_notification_set(stmdev_ctx_t *ctx, lps22hh_lir_t val)
1143:D:/fchai/work/i-cube/I-CUBE-HUAWEI/Drivers/BSP/Components/lps22hh\lps22hh_reg.c **** {
 4343              		.loc 1 1143 1 is_stmt 1 view -0
 4344              		.cfi_startproc
 4345              		@ args = 0, pretend = 0, frame = 8
 4346              		@ frame_needed = 0, uses_anonymous_args = 0
1144:D:/fchai/work/i-cube/I-CUBE-HUAWEI/Drivers/BSP/Components/lps22hh\lps22hh_reg.c ****   lps22hh_interrupt_cfg_t reg;
 4347              		.loc 1 1144 3 view .LVU1239
1145:D:/fchai/work/i-cube/I-CUBE-HUAWEI/Drivers/BSP/Components/lps22hh\lps22hh_reg.c ****   int32_t ret;
 4348              		.loc 1 1145 3 view .LVU1240
1146:D:/fchai/work/i-cube/I-CUBE-HUAWEI/Drivers/BSP/Components/lps22hh\lps22hh_reg.c **** 
1147:D:/fchai/work/i-cube/I-CUBE-HUAWEI/Drivers/BSP/Components/lps22hh\lps22hh_reg.c ****   ret = lps22hh_read_reg(ctx, LPS22HH_INTERRUPT_CFG, (uint8_t*) &reg, 1);
 4349              		.loc 1 1147 3 view .LVU1241
1143:D:/fchai/work/i-cube/I-CUBE-HUAWEI/Drivers/BSP/Components/lps22hh\lps22hh_reg.c ****   lps22hh_interrupt_cfg_t reg;
 4350              		.loc 1 1143 1 is_stmt 0 view .LVU1242
 4351 0000 70B5     		push	{r4, r5, r6, lr}
 4352              	.LCFI128:
 4353              		.cfi_def_cfa_offset 16
 4354              		.cfi_offset 4, -16
 4355              		.cfi_offset 5, -12
 4356              		.cfi_offset 6, -8
 4357              		.cfi_offset 14, -4
 4358 0002 82B0     		sub	sp, sp, #8
 4359              	.LCFI129:
ARM GAS  T:\msys\tmp\ccdfMMY7.s 			page 109


 4360              		.cfi_def_cfa_offset 24
1143:D:/fchai/work/i-cube/I-CUBE-HUAWEI/Drivers/BSP/Components/lps22hh\lps22hh_reg.c ****   lps22hh_interrupt_cfg_t reg;
 4361              		.loc 1 1143 1 view .LVU1243
 4362 0004 0446     		mov	r4, r0
 4363              	.LVL347:
 4364              	.LBB498:
 4365              	.LBI498:
  49:D:/fchai/work/i-cube/I-CUBE-HUAWEI/Drivers/BSP/Components/lps22hh\lps22hh_reg.c ****                          uint16_t len)
 4366              		.loc 1 49 9 is_stmt 1 view .LVU1244
 4367              	.LBB499:
  52:D:/fchai/work/i-cube/I-CUBE-HUAWEI/Drivers/BSP/Components/lps22hh\lps22hh_reg.c ****   ret = ctx->read_reg(ctx->handle, reg, data, len);
 4368              		.loc 1 52 3 view .LVU1245
  53:D:/fchai/work/i-cube/I-CUBE-HUAWEI/Drivers/BSP/Components/lps22hh\lps22hh_reg.c ****   return ret;
 4369              		.loc 1 53 3 view .LVU1246
 4370              	.LBE499:
 4371              	.LBE498:
1143:D:/fchai/work/i-cube/I-CUBE-HUAWEI/Drivers/BSP/Components/lps22hh\lps22hh_reg.c ****   lps22hh_interrupt_cfg_t reg;
 4372              		.loc 1 1143 1 is_stmt 0 view .LVU1247
 4373 0006 0D46     		mov	r5, r1
 4374              	.LBB501:
 4375              	.LBB500:
  53:D:/fchai/work/i-cube/I-CUBE-HUAWEI/Drivers/BSP/Components/lps22hh\lps22hh_reg.c ****   return ret;
 4376              		.loc 1 53 9 view .LVU1248
 4377 0008 D0E90160 		ldrd	r6, r0, [r0, #4]
 4378              	.LVL348:
  53:D:/fchai/work/i-cube/I-CUBE-HUAWEI/Drivers/BSP/Components/lps22hh\lps22hh_reg.c ****   return ret;
 4379              		.loc 1 53 9 view .LVU1249
 4380 000c 01AA     		add	r2, sp, #4
 4381              	.LVL349:
  53:D:/fchai/work/i-cube/I-CUBE-HUAWEI/Drivers/BSP/Components/lps22hh\lps22hh_reg.c ****   return ret;
 4382              		.loc 1 53 9 view .LVU1250
 4383 000e 0123     		movs	r3, #1
 4384 0010 0B21     		movs	r1, #11
 4385              	.LVL350:
  53:D:/fchai/work/i-cube/I-CUBE-HUAWEI/Drivers/BSP/Components/lps22hh\lps22hh_reg.c ****   return ret;
 4386              		.loc 1 53 9 view .LVU1251
 4387 0012 B047     		blx	r6
 4388              	.LVL351:
  54:D:/fchai/work/i-cube/I-CUBE-HUAWEI/Drivers/BSP/Components/lps22hh\lps22hh_reg.c **** }
 4389              		.loc 1 54 3 is_stmt 1 view .LVU1252
  54:D:/fchai/work/i-cube/I-CUBE-HUAWEI/Drivers/BSP/Components/lps22hh\lps22hh_reg.c **** }
 4390              		.loc 1 54 3 is_stmt 0 view .LVU1253
 4391              	.LBE500:
 4392              	.LBE501:
1148:D:/fchai/work/i-cube/I-CUBE-HUAWEI/Drivers/BSP/Components/lps22hh\lps22hh_reg.c ****   if (ret == 0) {
 4393              		.loc 1 1148 3 is_stmt 1 view .LVU1254
 4394              		.loc 1 1148 6 is_stmt 0 view .LVU1255
 4395 0014 58B9     		cbnz	r0, .L143
1149:D:/fchai/work/i-cube/I-CUBE-HUAWEI/Drivers/BSP/Components/lps22hh\lps22hh_reg.c ****     reg.lir = (uint8_t)val;
 4396              		.loc 1 1149 5 is_stmt 1 view .LVU1256
 4397              		.loc 1 1149 13 is_stmt 0 view .LVU1257
 4398 0016 9DF80430 		ldrb	r3, [sp, #4]	@ zero_extendqisi2
 4399              	.LBB502:
 4400              	.LBB503:
  71:D:/fchai/work/i-cube/I-CUBE-HUAWEI/Drivers/BSP/Components/lps22hh\lps22hh_reg.c ****   return ret;
 4401              		.loc 1 71 9 view .LVU1258
 4402 001a 2668     		ldr	r6, [r4]
ARM GAS  T:\msys\tmp\ccdfMMY7.s 			page 110


 4403 001c A068     		ldr	r0, [r4, #8]
 4404              	.LVL352:
  71:D:/fchai/work/i-cube/I-CUBE-HUAWEI/Drivers/BSP/Components/lps22hh\lps22hh_reg.c ****   return ret;
 4405              		.loc 1 71 9 view .LVU1259
 4406              	.LBE503:
 4407              	.LBE502:
 4408              		.loc 1 1149 13 view .LVU1260
 4409 001e 65F38203 		bfi	r3, r5, #2, #1
 4410 0022 8DF80430 		strb	r3, [sp, #4]
1150:D:/fchai/work/i-cube/I-CUBE-HUAWEI/Drivers/BSP/Components/lps22hh\lps22hh_reg.c ****     ret = lps22hh_write_reg(ctx, LPS22HH_INTERRUPT_CFG, (uint8_t*) &reg, 1);
 4411              		.loc 1 1150 5 is_stmt 1 view .LVU1261
 4412              	.LVL353:
 4413              	.LBB505:
 4414              	.LBI502:
  67:D:/fchai/work/i-cube/I-CUBE-HUAWEI/Drivers/BSP/Components/lps22hh\lps22hh_reg.c ****                            uint16_t len)
 4415              		.loc 1 67 9 view .LVU1262
 4416              	.LBB504:
  70:D:/fchai/work/i-cube/I-CUBE-HUAWEI/Drivers/BSP/Components/lps22hh\lps22hh_reg.c ****   ret = ctx->write_reg(ctx->handle, reg, data, len);
 4417              		.loc 1 70 3 view .LVU1263
  71:D:/fchai/work/i-cube/I-CUBE-HUAWEI/Drivers/BSP/Components/lps22hh\lps22hh_reg.c ****   return ret;
 4418              		.loc 1 71 3 view .LVU1264
  71:D:/fchai/work/i-cube/I-CUBE-HUAWEI/Drivers/BSP/Components/lps22hh\lps22hh_reg.c ****   return ret;
 4419              		.loc 1 71 9 is_stmt 0 view .LVU1265
 4420 0026 01AA     		add	r2, sp, #4
 4421              	.LVL354:
  71:D:/fchai/work/i-cube/I-CUBE-HUAWEI/Drivers/BSP/Components/lps22hh\lps22hh_reg.c ****   return ret;
 4422              		.loc 1 71 9 view .LVU1266
 4423 0028 0123     		movs	r3, #1
 4424 002a 0B21     		movs	r1, #11
 4425 002c B047     		blx	r6
 4426              	.LVL355:
  72:D:/fchai/work/i-cube/I-CUBE-HUAWEI/Drivers/BSP/Components/lps22hh\lps22hh_reg.c **** }
 4427              		.loc 1 72 3 is_stmt 1 view .LVU1267
  72:D:/fchai/work/i-cube/I-CUBE-HUAWEI/Drivers/BSP/Components/lps22hh\lps22hh_reg.c **** }
 4428              		.loc 1 72 3 is_stmt 0 view .LVU1268
 4429              	.LBE504:
 4430              	.LBE505:
1151:D:/fchai/work/i-cube/I-CUBE-HUAWEI/Drivers/BSP/Components/lps22hh\lps22hh_reg.c ****   }
1152:D:/fchai/work/i-cube/I-CUBE-HUAWEI/Drivers/BSP/Components/lps22hh\lps22hh_reg.c ****   return ret;
 4431              		.loc 1 1152 3 is_stmt 1 view .LVU1269
 4432              	.L143:
1153:D:/fchai/work/i-cube/I-CUBE-HUAWEI/Drivers/BSP/Components/lps22hh\lps22hh_reg.c **** }
 4433              		.loc 1 1153 1 is_stmt 0 view .LVU1270
 4434 002e 02B0     		add	sp, sp, #8
 4435              	.LCFI130:
 4436              		.cfi_def_cfa_offset 16
 4437              		@ sp needed
 4438 0030 70BD     		pop	{r4, r5, r6, pc}
 4439              		.loc 1 1153 1 view .LVU1271
 4440              		.cfi_endproc
 4441              	.LFE47:
 4443 0032 00BF     		.section	.text.lps22hh_int_notification_get,"ax",%progbits
 4444              		.align	1
 4445              		.p2align 2,,3
 4446              		.global	lps22hh_int_notification_get
 4447              		.syntax unified
 4448              		.thumb
ARM GAS  T:\msys\tmp\ccdfMMY7.s 			page 111


 4449              		.thumb_func
 4450              		.fpu fpv4-sp-d16
 4452              	lps22hh_int_notification_get:
 4453              	.LVL356:
 4454              	.LFB48:
1154:D:/fchai/work/i-cube/I-CUBE-HUAWEI/Drivers/BSP/Components/lps22hh\lps22hh_reg.c **** 
1155:D:/fchai/work/i-cube/I-CUBE-HUAWEI/Drivers/BSP/Components/lps22hh\lps22hh_reg.c **** /**
1156:D:/fchai/work/i-cube/I-CUBE-HUAWEI/Drivers/BSP/Components/lps22hh\lps22hh_reg.c ****   * @brief  Latch interrupt request to the INT_SOURCE (24h) register.[get]
1157:D:/fchai/work/i-cube/I-CUBE-HUAWEI/Drivers/BSP/Components/lps22hh\lps22hh_reg.c ****   *
1158:D:/fchai/work/i-cube/I-CUBE-HUAWEI/Drivers/BSP/Components/lps22hh\lps22hh_reg.c ****   * @param  ctx      read / write interface definitions
1159:D:/fchai/work/i-cube/I-CUBE-HUAWEI/Drivers/BSP/Components/lps22hh\lps22hh_reg.c ****   * @param  val      Get the values of lir in reg INTERRUPT_CFG
1160:D:/fchai/work/i-cube/I-CUBE-HUAWEI/Drivers/BSP/Components/lps22hh\lps22hh_reg.c ****   * @retval          interface status (MANDATORY: return 0 -> no Error)
1161:D:/fchai/work/i-cube/I-CUBE-HUAWEI/Drivers/BSP/Components/lps22hh\lps22hh_reg.c ****   *
1162:D:/fchai/work/i-cube/I-CUBE-HUAWEI/Drivers/BSP/Components/lps22hh\lps22hh_reg.c ****   */
1163:D:/fchai/work/i-cube/I-CUBE-HUAWEI/Drivers/BSP/Components/lps22hh\lps22hh_reg.c **** int32_t lps22hh_int_notification_get(stmdev_ctx_t *ctx, lps22hh_lir_t *val)
1164:D:/fchai/work/i-cube/I-CUBE-HUAWEI/Drivers/BSP/Components/lps22hh\lps22hh_reg.c **** {
 4455              		.loc 1 1164 1 is_stmt 1 view -0
 4456              		.cfi_startproc
 4457              		@ args = 0, pretend = 0, frame = 8
 4458              		@ frame_needed = 0, uses_anonymous_args = 0
1165:D:/fchai/work/i-cube/I-CUBE-HUAWEI/Drivers/BSP/Components/lps22hh\lps22hh_reg.c ****   lps22hh_interrupt_cfg_t reg;
 4459              		.loc 1 1165 3 view .LVU1273
1166:D:/fchai/work/i-cube/I-CUBE-HUAWEI/Drivers/BSP/Components/lps22hh\lps22hh_reg.c ****   int32_t ret;
 4460              		.loc 1 1166 3 view .LVU1274
1167:D:/fchai/work/i-cube/I-CUBE-HUAWEI/Drivers/BSP/Components/lps22hh\lps22hh_reg.c **** 
1168:D:/fchai/work/i-cube/I-CUBE-HUAWEI/Drivers/BSP/Components/lps22hh\lps22hh_reg.c ****   ret = lps22hh_read_reg(ctx, LPS22HH_INTERRUPT_CFG, (uint8_t*) &reg, 1);
 4461              		.loc 1 1168 3 view .LVU1275
1164:D:/fchai/work/i-cube/I-CUBE-HUAWEI/Drivers/BSP/Components/lps22hh\lps22hh_reg.c ****   lps22hh_interrupt_cfg_t reg;
 4462              		.loc 1 1164 1 is_stmt 0 view .LVU1276
 4463 0000 30B5     		push	{r4, r5, lr}
 4464              	.LCFI131:
 4465              		.cfi_def_cfa_offset 12
 4466              		.cfi_offset 4, -12
 4467              		.cfi_offset 5, -8
 4468              		.cfi_offset 14, -4
 4469 0002 83B0     		sub	sp, sp, #12
 4470              	.LCFI132:
 4471              		.cfi_def_cfa_offset 24
 4472              	.LVL357:
 4473              	.LBB506:
 4474              	.LBI506:
  49:D:/fchai/work/i-cube/I-CUBE-HUAWEI/Drivers/BSP/Components/lps22hh\lps22hh_reg.c ****                          uint16_t len)
 4475              		.loc 1 49 9 is_stmt 1 view .LVU1277
 4476              	.LBB507:
  52:D:/fchai/work/i-cube/I-CUBE-HUAWEI/Drivers/BSP/Components/lps22hh\lps22hh_reg.c ****   ret = ctx->read_reg(ctx->handle, reg, data, len);
 4477              		.loc 1 52 3 view .LVU1278
  53:D:/fchai/work/i-cube/I-CUBE-HUAWEI/Drivers/BSP/Components/lps22hh\lps22hh_reg.c ****   return ret;
 4478              		.loc 1 53 3 view .LVU1279
 4479              	.LBE507:
 4480              	.LBE506:
1164:D:/fchai/work/i-cube/I-CUBE-HUAWEI/Drivers/BSP/Components/lps22hh\lps22hh_reg.c ****   lps22hh_interrupt_cfg_t reg;
 4481              		.loc 1 1164 1 is_stmt 0 view .LVU1280
 4482 0004 0C46     		mov	r4, r1
 4483              	.LBB510:
 4484              	.LBB508:
  53:D:/fchai/work/i-cube/I-CUBE-HUAWEI/Drivers/BSP/Components/lps22hh\lps22hh_reg.c ****   return ret;
 4485              		.loc 1 53 9 view .LVU1281
ARM GAS  T:\msys\tmp\ccdfMMY7.s 			page 112


 4486 0006 01AA     		add	r2, sp, #4
 4487              	.LVL358:
  53:D:/fchai/work/i-cube/I-CUBE-HUAWEI/Drivers/BSP/Components/lps22hh\lps22hh_reg.c ****   return ret;
 4488              		.loc 1 53 9 view .LVU1282
 4489 0008 D0E90150 		ldrd	r5, r0, [r0, #4]
 4490              	.LVL359:
  53:D:/fchai/work/i-cube/I-CUBE-HUAWEI/Drivers/BSP/Components/lps22hh\lps22hh_reg.c ****   return ret;
 4491              		.loc 1 53 9 view .LVU1283
 4492 000c 0123     		movs	r3, #1
 4493 000e 0B21     		movs	r1, #11
 4494              	.LVL360:
  53:D:/fchai/work/i-cube/I-CUBE-HUAWEI/Drivers/BSP/Components/lps22hh\lps22hh_reg.c ****   return ret;
 4495              		.loc 1 53 9 view .LVU1284
 4496 0010 A847     		blx	r5
 4497              	.LVL361:
  53:D:/fchai/work/i-cube/I-CUBE-HUAWEI/Drivers/BSP/Components/lps22hh\lps22hh_reg.c ****   return ret;
 4498              		.loc 1 53 9 view .LVU1285
 4499              	.LBE508:
 4500              	.LBE510:
1169:D:/fchai/work/i-cube/I-CUBE-HUAWEI/Drivers/BSP/Components/lps22hh\lps22hh_reg.c **** 
1170:D:/fchai/work/i-cube/I-CUBE-HUAWEI/Drivers/BSP/Components/lps22hh\lps22hh_reg.c ****   switch (reg.lir) {
 4501              		.loc 1 1170 14 view .LVU1286
 4502 0012 9DF80430 		ldrb	r3, [sp, #4]	@ zero_extendqisi2
 4503              	.LVL362:
 4504              	.LBB511:
 4505              	.LBB509:
  54:D:/fchai/work/i-cube/I-CUBE-HUAWEI/Drivers/BSP/Components/lps22hh\lps22hh_reg.c **** }
 4506              		.loc 1 54 3 is_stmt 1 view .LVU1287
  54:D:/fchai/work/i-cube/I-CUBE-HUAWEI/Drivers/BSP/Components/lps22hh\lps22hh_reg.c **** }
 4507              		.loc 1 54 3 is_stmt 0 view .LVU1288
 4508              	.LBE509:
 4509              	.LBE511:
 4510              		.loc 1 1170 3 is_stmt 1 view .LVU1289
 4511              		.loc 1 1170 14 is_stmt 0 view .LVU1290
 4512 0016 C3F38002 		ubfx	r2, r3, #2, #1
 4513              		.loc 1 1170 3 view .LVU1291
 4514 001a 5B07     		lsls	r3, r3, #29
1171:D:/fchai/work/i-cube/I-CUBE-HUAWEI/Drivers/BSP/Components/lps22hh\lps22hh_reg.c ****     case LPS22HH_INT_PULSED:
1172:D:/fchai/work/i-cube/I-CUBE-HUAWEI/Drivers/BSP/Components/lps22hh\lps22hh_reg.c ****       *val = LPS22HH_INT_PULSED;
 4515              		.loc 1 1172 7 is_stmt 1 view .LVU1292
 4516              		.loc 1 1172 12 is_stmt 0 view .LVU1293
 4517 001c 5ABF     		itte	pl
 4518 001e 0023     		movpl	r3, #0
 4519 0020 2370     		strbpl	r3, [r4]
1173:D:/fchai/work/i-cube/I-CUBE-HUAWEI/Drivers/BSP/Components/lps22hh\lps22hh_reg.c ****       break;
 4520              		.loc 1 1173 7 is_stmt 1 view .LVU1294
1174:D:/fchai/work/i-cube/I-CUBE-HUAWEI/Drivers/BSP/Components/lps22hh\lps22hh_reg.c ****     case LPS22HH_INT_LATCHED:
1175:D:/fchai/work/i-cube/I-CUBE-HUAWEI/Drivers/BSP/Components/lps22hh\lps22hh_reg.c ****       *val = LPS22HH_INT_LATCHED;
 4521              		.loc 1 1175 7 view .LVU1295
 4522              		.loc 1 1175 12 is_stmt 0 view .LVU1296
 4523 0022 2270     		strbmi	r2, [r4]
1176:D:/fchai/work/i-cube/I-CUBE-HUAWEI/Drivers/BSP/Components/lps22hh\lps22hh_reg.c ****       break;
 4524              		.loc 1 1176 7 is_stmt 1 view .LVU1297
1177:D:/fchai/work/i-cube/I-CUBE-HUAWEI/Drivers/BSP/Components/lps22hh\lps22hh_reg.c ****     default:
1178:D:/fchai/work/i-cube/I-CUBE-HUAWEI/Drivers/BSP/Components/lps22hh\lps22hh_reg.c ****       *val = LPS22HH_INT_PULSED;
1179:D:/fchai/work/i-cube/I-CUBE-HUAWEI/Drivers/BSP/Components/lps22hh\lps22hh_reg.c ****       break;
1180:D:/fchai/work/i-cube/I-CUBE-HUAWEI/Drivers/BSP/Components/lps22hh\lps22hh_reg.c ****   }
ARM GAS  T:\msys\tmp\ccdfMMY7.s 			page 113


1181:D:/fchai/work/i-cube/I-CUBE-HUAWEI/Drivers/BSP/Components/lps22hh\lps22hh_reg.c ****   return ret;
 4525              		.loc 1 1181 3 view .LVU1298
1182:D:/fchai/work/i-cube/I-CUBE-HUAWEI/Drivers/BSP/Components/lps22hh\lps22hh_reg.c **** }
 4526              		.loc 1 1182 1 is_stmt 0 view .LVU1299
 4527 0024 03B0     		add	sp, sp, #12
 4528              	.LCFI133:
 4529              		.cfi_def_cfa_offset 12
 4530              		@ sp needed
 4531 0026 30BD     		pop	{r4, r5, pc}
 4532              		.loc 1 1182 1 view .LVU1300
 4533              		.cfi_endproc
 4534              	.LFE48:
 4536              		.section	.text.lps22hh_pin_mode_set,"ax",%progbits
 4537              		.align	1
 4538              		.p2align 2,,3
 4539              		.global	lps22hh_pin_mode_set
 4540              		.syntax unified
 4541              		.thumb
 4542              		.thumb_func
 4543              		.fpu fpv4-sp-d16
 4545              	lps22hh_pin_mode_set:
 4546              	.LVL363:
 4547              	.LFB49:
1183:D:/fchai/work/i-cube/I-CUBE-HUAWEI/Drivers/BSP/Components/lps22hh\lps22hh_reg.c **** 
1184:D:/fchai/work/i-cube/I-CUBE-HUAWEI/Drivers/BSP/Components/lps22hh\lps22hh_reg.c **** /**
1185:D:/fchai/work/i-cube/I-CUBE-HUAWEI/Drivers/BSP/Components/lps22hh\lps22hh_reg.c ****   * @brief  Push-pull/open drain selection on interrupt pads.[set]
1186:D:/fchai/work/i-cube/I-CUBE-HUAWEI/Drivers/BSP/Components/lps22hh\lps22hh_reg.c ****   *
1187:D:/fchai/work/i-cube/I-CUBE-HUAWEI/Drivers/BSP/Components/lps22hh\lps22hh_reg.c ****   * @param  ctx      read / write interface definitions
1188:D:/fchai/work/i-cube/I-CUBE-HUAWEI/Drivers/BSP/Components/lps22hh\lps22hh_reg.c ****   * @param  val      change the values of pp_od in reg CTRL_REG2
1189:D:/fchai/work/i-cube/I-CUBE-HUAWEI/Drivers/BSP/Components/lps22hh\lps22hh_reg.c ****   * @retval          interface status (MANDATORY: return 0 -> no Error)
1190:D:/fchai/work/i-cube/I-CUBE-HUAWEI/Drivers/BSP/Components/lps22hh\lps22hh_reg.c ****   *
1191:D:/fchai/work/i-cube/I-CUBE-HUAWEI/Drivers/BSP/Components/lps22hh\lps22hh_reg.c ****   */
1192:D:/fchai/work/i-cube/I-CUBE-HUAWEI/Drivers/BSP/Components/lps22hh\lps22hh_reg.c **** int32_t lps22hh_pin_mode_set(stmdev_ctx_t *ctx, lps22hh_pp_od_t val)
1193:D:/fchai/work/i-cube/I-CUBE-HUAWEI/Drivers/BSP/Components/lps22hh\lps22hh_reg.c **** {
 4548              		.loc 1 1193 1 is_stmt 1 view -0
 4549              		.cfi_startproc
 4550              		@ args = 0, pretend = 0, frame = 8
 4551              		@ frame_needed = 0, uses_anonymous_args = 0
1194:D:/fchai/work/i-cube/I-CUBE-HUAWEI/Drivers/BSP/Components/lps22hh\lps22hh_reg.c ****   lps22hh_ctrl_reg2_t reg;
 4552              		.loc 1 1194 3 view .LVU1302
1195:D:/fchai/work/i-cube/I-CUBE-HUAWEI/Drivers/BSP/Components/lps22hh\lps22hh_reg.c ****   int32_t ret;
 4553              		.loc 1 1195 3 view .LVU1303
1196:D:/fchai/work/i-cube/I-CUBE-HUAWEI/Drivers/BSP/Components/lps22hh\lps22hh_reg.c **** 
1197:D:/fchai/work/i-cube/I-CUBE-HUAWEI/Drivers/BSP/Components/lps22hh\lps22hh_reg.c ****   ret = lps22hh_read_reg(ctx, LPS22HH_CTRL_REG2, (uint8_t*) &reg, 1);
 4554              		.loc 1 1197 3 view .LVU1304
1193:D:/fchai/work/i-cube/I-CUBE-HUAWEI/Drivers/BSP/Components/lps22hh\lps22hh_reg.c ****   lps22hh_ctrl_reg2_t reg;
 4555              		.loc 1 1193 1 is_stmt 0 view .LVU1305
 4556 0000 70B5     		push	{r4, r5, r6, lr}
 4557              	.LCFI134:
 4558              		.cfi_def_cfa_offset 16
 4559              		.cfi_offset 4, -16
 4560              		.cfi_offset 5, -12
 4561              		.cfi_offset 6, -8
 4562              		.cfi_offset 14, -4
 4563 0002 82B0     		sub	sp, sp, #8
 4564              	.LCFI135:
 4565              		.cfi_def_cfa_offset 24
ARM GAS  T:\msys\tmp\ccdfMMY7.s 			page 114


1193:D:/fchai/work/i-cube/I-CUBE-HUAWEI/Drivers/BSP/Components/lps22hh\lps22hh_reg.c ****   lps22hh_ctrl_reg2_t reg;
 4566              		.loc 1 1193 1 view .LVU1306
 4567 0004 0446     		mov	r4, r0
 4568              	.LVL364:
 4569              	.LBB512:
 4570              	.LBI512:
  49:D:/fchai/work/i-cube/I-CUBE-HUAWEI/Drivers/BSP/Components/lps22hh\lps22hh_reg.c ****                          uint16_t len)
 4571              		.loc 1 49 9 is_stmt 1 view .LVU1307
 4572              	.LBB513:
  52:D:/fchai/work/i-cube/I-CUBE-HUAWEI/Drivers/BSP/Components/lps22hh\lps22hh_reg.c ****   ret = ctx->read_reg(ctx->handle, reg, data, len);
 4573              		.loc 1 52 3 view .LVU1308
  53:D:/fchai/work/i-cube/I-CUBE-HUAWEI/Drivers/BSP/Components/lps22hh\lps22hh_reg.c ****   return ret;
 4574              		.loc 1 53 3 view .LVU1309
 4575              	.LBE513:
 4576              	.LBE512:
1193:D:/fchai/work/i-cube/I-CUBE-HUAWEI/Drivers/BSP/Components/lps22hh\lps22hh_reg.c ****   lps22hh_ctrl_reg2_t reg;
 4577              		.loc 1 1193 1 is_stmt 0 view .LVU1310
 4578 0006 0D46     		mov	r5, r1
 4579              	.LBB515:
 4580              	.LBB514:
  53:D:/fchai/work/i-cube/I-CUBE-HUAWEI/Drivers/BSP/Components/lps22hh\lps22hh_reg.c ****   return ret;
 4581              		.loc 1 53 9 view .LVU1311
 4582 0008 D0E90160 		ldrd	r6, r0, [r0, #4]
 4583              	.LVL365:
  53:D:/fchai/work/i-cube/I-CUBE-HUAWEI/Drivers/BSP/Components/lps22hh\lps22hh_reg.c ****   return ret;
 4584              		.loc 1 53 9 view .LVU1312
 4585 000c 01AA     		add	r2, sp, #4
 4586              	.LVL366:
  53:D:/fchai/work/i-cube/I-CUBE-HUAWEI/Drivers/BSP/Components/lps22hh\lps22hh_reg.c ****   return ret;
 4587              		.loc 1 53 9 view .LVU1313
 4588 000e 0123     		movs	r3, #1
 4589 0010 1121     		movs	r1, #17
 4590              	.LVL367:
  53:D:/fchai/work/i-cube/I-CUBE-HUAWEI/Drivers/BSP/Components/lps22hh\lps22hh_reg.c ****   return ret;
 4591              		.loc 1 53 9 view .LVU1314
 4592 0012 B047     		blx	r6
 4593              	.LVL368:
  54:D:/fchai/work/i-cube/I-CUBE-HUAWEI/Drivers/BSP/Components/lps22hh\lps22hh_reg.c **** }
 4594              		.loc 1 54 3 is_stmt 1 view .LVU1315
  54:D:/fchai/work/i-cube/I-CUBE-HUAWEI/Drivers/BSP/Components/lps22hh\lps22hh_reg.c **** }
 4595              		.loc 1 54 3 is_stmt 0 view .LVU1316
 4596              	.LBE514:
 4597              	.LBE515:
1198:D:/fchai/work/i-cube/I-CUBE-HUAWEI/Drivers/BSP/Components/lps22hh\lps22hh_reg.c ****   if (ret == 0) {
 4598              		.loc 1 1198 3 is_stmt 1 view .LVU1317
 4599              		.loc 1 1198 6 is_stmt 0 view .LVU1318
 4600 0014 58B9     		cbnz	r0, .L150
1199:D:/fchai/work/i-cube/I-CUBE-HUAWEI/Drivers/BSP/Components/lps22hh\lps22hh_reg.c ****     reg.pp_od = (uint8_t)val;
 4601              		.loc 1 1199 5 is_stmt 1 view .LVU1319
 4602              		.loc 1 1199 15 is_stmt 0 view .LVU1320
 4603 0016 9DF80430 		ldrb	r3, [sp, #4]	@ zero_extendqisi2
 4604              	.LBB516:
 4605              	.LBB517:
  71:D:/fchai/work/i-cube/I-CUBE-HUAWEI/Drivers/BSP/Components/lps22hh\lps22hh_reg.c ****   return ret;
 4606              		.loc 1 71 9 view .LVU1321
 4607 001a 2668     		ldr	r6, [r4]
 4608 001c A068     		ldr	r0, [r4, #8]
ARM GAS  T:\msys\tmp\ccdfMMY7.s 			page 115


 4609              	.LVL369:
  71:D:/fchai/work/i-cube/I-CUBE-HUAWEI/Drivers/BSP/Components/lps22hh\lps22hh_reg.c ****   return ret;
 4610              		.loc 1 71 9 view .LVU1322
 4611              	.LBE517:
 4612              	.LBE516:
 4613              		.loc 1 1199 15 view .LVU1323
 4614 001e 65F34513 		bfi	r3, r5, #5, #1
 4615 0022 8DF80430 		strb	r3, [sp, #4]
1200:D:/fchai/work/i-cube/I-CUBE-HUAWEI/Drivers/BSP/Components/lps22hh\lps22hh_reg.c ****     ret = lps22hh_write_reg(ctx, LPS22HH_CTRL_REG2, (uint8_t*) &reg, 1);
 4616              		.loc 1 1200 5 is_stmt 1 view .LVU1324
 4617              	.LVL370:
 4618              	.LBB519:
 4619              	.LBI516:
  67:D:/fchai/work/i-cube/I-CUBE-HUAWEI/Drivers/BSP/Components/lps22hh\lps22hh_reg.c ****                            uint16_t len)
 4620              		.loc 1 67 9 view .LVU1325
 4621              	.LBB518:
  70:D:/fchai/work/i-cube/I-CUBE-HUAWEI/Drivers/BSP/Components/lps22hh\lps22hh_reg.c ****   ret = ctx->write_reg(ctx->handle, reg, data, len);
 4622              		.loc 1 70 3 view .LVU1326
  71:D:/fchai/work/i-cube/I-CUBE-HUAWEI/Drivers/BSP/Components/lps22hh\lps22hh_reg.c ****   return ret;
 4623              		.loc 1 71 3 view .LVU1327
  71:D:/fchai/work/i-cube/I-CUBE-HUAWEI/Drivers/BSP/Components/lps22hh\lps22hh_reg.c ****   return ret;
 4624              		.loc 1 71 9 is_stmt 0 view .LVU1328
 4625 0026 01AA     		add	r2, sp, #4
 4626              	.LVL371:
  71:D:/fchai/work/i-cube/I-CUBE-HUAWEI/Drivers/BSP/Components/lps22hh\lps22hh_reg.c ****   return ret;
 4627              		.loc 1 71 9 view .LVU1329
 4628 0028 0123     		movs	r3, #1
 4629 002a 1121     		movs	r1, #17
 4630 002c B047     		blx	r6
 4631              	.LVL372:
  72:D:/fchai/work/i-cube/I-CUBE-HUAWEI/Drivers/BSP/Components/lps22hh\lps22hh_reg.c **** }
 4632              		.loc 1 72 3 is_stmt 1 view .LVU1330
  72:D:/fchai/work/i-cube/I-CUBE-HUAWEI/Drivers/BSP/Components/lps22hh\lps22hh_reg.c **** }
 4633              		.loc 1 72 3 is_stmt 0 view .LVU1331
 4634              	.LBE518:
 4635              	.LBE519:
1201:D:/fchai/work/i-cube/I-CUBE-HUAWEI/Drivers/BSP/Components/lps22hh\lps22hh_reg.c ****   }
1202:D:/fchai/work/i-cube/I-CUBE-HUAWEI/Drivers/BSP/Components/lps22hh\lps22hh_reg.c **** 
1203:D:/fchai/work/i-cube/I-CUBE-HUAWEI/Drivers/BSP/Components/lps22hh\lps22hh_reg.c ****   return ret;
 4636              		.loc 1 1203 3 is_stmt 1 view .LVU1332
 4637              	.L150:
1204:D:/fchai/work/i-cube/I-CUBE-HUAWEI/Drivers/BSP/Components/lps22hh\lps22hh_reg.c **** }
 4638              		.loc 1 1204 1 is_stmt 0 view .LVU1333
 4639 002e 02B0     		add	sp, sp, #8
 4640              	.LCFI136:
 4641              		.cfi_def_cfa_offset 16
 4642              		@ sp needed
 4643 0030 70BD     		pop	{r4, r5, r6, pc}
 4644              		.loc 1 1204 1 view .LVU1334
 4645              		.cfi_endproc
 4646              	.LFE49:
 4648 0032 00BF     		.section	.text.lps22hh_pin_mode_get,"ax",%progbits
 4649              		.align	1
 4650              		.p2align 2,,3
 4651              		.global	lps22hh_pin_mode_get
 4652              		.syntax unified
 4653              		.thumb
ARM GAS  T:\msys\tmp\ccdfMMY7.s 			page 116


 4654              		.thumb_func
 4655              		.fpu fpv4-sp-d16
 4657              	lps22hh_pin_mode_get:
 4658              	.LVL373:
 4659              	.LFB50:
1205:D:/fchai/work/i-cube/I-CUBE-HUAWEI/Drivers/BSP/Components/lps22hh\lps22hh_reg.c **** 
1206:D:/fchai/work/i-cube/I-CUBE-HUAWEI/Drivers/BSP/Components/lps22hh\lps22hh_reg.c **** /**
1207:D:/fchai/work/i-cube/I-CUBE-HUAWEI/Drivers/BSP/Components/lps22hh\lps22hh_reg.c ****   * @brief  Push-pull/open drain selection on interrupt pads.[get]
1208:D:/fchai/work/i-cube/I-CUBE-HUAWEI/Drivers/BSP/Components/lps22hh\lps22hh_reg.c ****   *
1209:D:/fchai/work/i-cube/I-CUBE-HUAWEI/Drivers/BSP/Components/lps22hh\lps22hh_reg.c ****   * @param  ctx      read / write interface definitions
1210:D:/fchai/work/i-cube/I-CUBE-HUAWEI/Drivers/BSP/Components/lps22hh\lps22hh_reg.c ****   * @param  val      Get the values of pp_od in reg CTRL_REG2
1211:D:/fchai/work/i-cube/I-CUBE-HUAWEI/Drivers/BSP/Components/lps22hh\lps22hh_reg.c ****   * @retval          interface status (MANDATORY: return 0 -> no Error)
1212:D:/fchai/work/i-cube/I-CUBE-HUAWEI/Drivers/BSP/Components/lps22hh\lps22hh_reg.c ****   *
1213:D:/fchai/work/i-cube/I-CUBE-HUAWEI/Drivers/BSP/Components/lps22hh\lps22hh_reg.c ****   */
1214:D:/fchai/work/i-cube/I-CUBE-HUAWEI/Drivers/BSP/Components/lps22hh\lps22hh_reg.c **** int32_t lps22hh_pin_mode_get(stmdev_ctx_t *ctx, lps22hh_pp_od_t *val)
1215:D:/fchai/work/i-cube/I-CUBE-HUAWEI/Drivers/BSP/Components/lps22hh\lps22hh_reg.c **** {
 4660              		.loc 1 1215 1 is_stmt 1 view -0
 4661              		.cfi_startproc
 4662              		@ args = 0, pretend = 0, frame = 8
 4663              		@ frame_needed = 0, uses_anonymous_args = 0
1216:D:/fchai/work/i-cube/I-CUBE-HUAWEI/Drivers/BSP/Components/lps22hh\lps22hh_reg.c ****   lps22hh_ctrl_reg2_t reg;
 4664              		.loc 1 1216 3 view .LVU1336
1217:D:/fchai/work/i-cube/I-CUBE-HUAWEI/Drivers/BSP/Components/lps22hh\lps22hh_reg.c ****   int32_t ret;
 4665              		.loc 1 1217 3 view .LVU1337
1218:D:/fchai/work/i-cube/I-CUBE-HUAWEI/Drivers/BSP/Components/lps22hh\lps22hh_reg.c **** 
1219:D:/fchai/work/i-cube/I-CUBE-HUAWEI/Drivers/BSP/Components/lps22hh\lps22hh_reg.c ****   ret = lps22hh_read_reg(ctx, LPS22HH_CTRL_REG2, (uint8_t*) &reg, 1);
 4666              		.loc 1 1219 3 view .LVU1338
1215:D:/fchai/work/i-cube/I-CUBE-HUAWEI/Drivers/BSP/Components/lps22hh\lps22hh_reg.c ****   lps22hh_ctrl_reg2_t reg;
 4667              		.loc 1 1215 1 is_stmt 0 view .LVU1339
 4668 0000 30B5     		push	{r4, r5, lr}
 4669              	.LCFI137:
 4670              		.cfi_def_cfa_offset 12
 4671              		.cfi_offset 4, -12
 4672              		.cfi_offset 5, -8
 4673              		.cfi_offset 14, -4
 4674 0002 83B0     		sub	sp, sp, #12
 4675              	.LCFI138:
 4676              		.cfi_def_cfa_offset 24
 4677              	.LVL374:
 4678              	.LBB520:
 4679              	.LBI520:
  49:D:/fchai/work/i-cube/I-CUBE-HUAWEI/Drivers/BSP/Components/lps22hh\lps22hh_reg.c ****                          uint16_t len)
 4680              		.loc 1 49 9 is_stmt 1 view .LVU1340
 4681              	.LBB521:
  52:D:/fchai/work/i-cube/I-CUBE-HUAWEI/Drivers/BSP/Components/lps22hh\lps22hh_reg.c ****   ret = ctx->read_reg(ctx->handle, reg, data, len);
 4682              		.loc 1 52 3 view .LVU1341
  53:D:/fchai/work/i-cube/I-CUBE-HUAWEI/Drivers/BSP/Components/lps22hh\lps22hh_reg.c ****   return ret;
 4683              		.loc 1 53 3 view .LVU1342
 4684              	.LBE521:
 4685              	.LBE520:
1215:D:/fchai/work/i-cube/I-CUBE-HUAWEI/Drivers/BSP/Components/lps22hh\lps22hh_reg.c ****   lps22hh_ctrl_reg2_t reg;
 4686              		.loc 1 1215 1 is_stmt 0 view .LVU1343
 4687 0004 0C46     		mov	r4, r1
 4688              	.LBB524:
 4689              	.LBB522:
  53:D:/fchai/work/i-cube/I-CUBE-HUAWEI/Drivers/BSP/Components/lps22hh\lps22hh_reg.c ****   return ret;
 4690              		.loc 1 53 9 view .LVU1344
ARM GAS  T:\msys\tmp\ccdfMMY7.s 			page 117


 4691 0006 01AA     		add	r2, sp, #4
 4692              	.LVL375:
  53:D:/fchai/work/i-cube/I-CUBE-HUAWEI/Drivers/BSP/Components/lps22hh\lps22hh_reg.c ****   return ret;
 4693              		.loc 1 53 9 view .LVU1345
 4694 0008 D0E90150 		ldrd	r5, r0, [r0, #4]
 4695              	.LVL376:
  53:D:/fchai/work/i-cube/I-CUBE-HUAWEI/Drivers/BSP/Components/lps22hh\lps22hh_reg.c ****   return ret;
 4696              		.loc 1 53 9 view .LVU1346
 4697 000c 0123     		movs	r3, #1
 4698 000e 1121     		movs	r1, #17
 4699              	.LVL377:
  53:D:/fchai/work/i-cube/I-CUBE-HUAWEI/Drivers/BSP/Components/lps22hh\lps22hh_reg.c ****   return ret;
 4700              		.loc 1 53 9 view .LVU1347
 4701 0010 A847     		blx	r5
 4702              	.LVL378:
  53:D:/fchai/work/i-cube/I-CUBE-HUAWEI/Drivers/BSP/Components/lps22hh\lps22hh_reg.c ****   return ret;
 4703              		.loc 1 53 9 view .LVU1348
 4704              	.LBE522:
 4705              	.LBE524:
1220:D:/fchai/work/i-cube/I-CUBE-HUAWEI/Drivers/BSP/Components/lps22hh\lps22hh_reg.c **** 
1221:D:/fchai/work/i-cube/I-CUBE-HUAWEI/Drivers/BSP/Components/lps22hh\lps22hh_reg.c **** 
1222:D:/fchai/work/i-cube/I-CUBE-HUAWEI/Drivers/BSP/Components/lps22hh\lps22hh_reg.c ****   switch (reg.pp_od) {
 4706              		.loc 1 1222 14 view .LVU1349
 4707 0012 9DF80430 		ldrb	r3, [sp, #4]	@ zero_extendqisi2
 4708              	.LVL379:
 4709              	.LBB525:
 4710              	.LBB523:
  54:D:/fchai/work/i-cube/I-CUBE-HUAWEI/Drivers/BSP/Components/lps22hh\lps22hh_reg.c **** }
 4711              		.loc 1 54 3 is_stmt 1 view .LVU1350
  54:D:/fchai/work/i-cube/I-CUBE-HUAWEI/Drivers/BSP/Components/lps22hh\lps22hh_reg.c **** }
 4712              		.loc 1 54 3 is_stmt 0 view .LVU1351
 4713              	.LBE523:
 4714              	.LBE525:
 4715              		.loc 1 1222 3 is_stmt 1 view .LVU1352
 4716              		.loc 1 1222 14 is_stmt 0 view .LVU1353
 4717 0016 C3F34012 		ubfx	r2, r3, #5, #1
 4718              		.loc 1 1222 3 view .LVU1354
 4719 001a 9B06     		lsls	r3, r3, #26
1223:D:/fchai/work/i-cube/I-CUBE-HUAWEI/Drivers/BSP/Components/lps22hh\lps22hh_reg.c ****     case LPS22HH_PUSH_PULL:
1224:D:/fchai/work/i-cube/I-CUBE-HUAWEI/Drivers/BSP/Components/lps22hh\lps22hh_reg.c ****       *val = LPS22HH_PUSH_PULL;
 4720              		.loc 1 1224 7 is_stmt 1 view .LVU1355
 4721              		.loc 1 1224 12 is_stmt 0 view .LVU1356
 4722 001c 5ABF     		itte	pl
 4723 001e 0023     		movpl	r3, #0
 4724 0020 2370     		strbpl	r3, [r4]
1225:D:/fchai/work/i-cube/I-CUBE-HUAWEI/Drivers/BSP/Components/lps22hh\lps22hh_reg.c ****       break;
 4725              		.loc 1 1225 7 is_stmt 1 view .LVU1357
1226:D:/fchai/work/i-cube/I-CUBE-HUAWEI/Drivers/BSP/Components/lps22hh\lps22hh_reg.c ****     case LPS22HH_OPEN_DRAIN:
1227:D:/fchai/work/i-cube/I-CUBE-HUAWEI/Drivers/BSP/Components/lps22hh\lps22hh_reg.c ****       *val = LPS22HH_OPEN_DRAIN;
 4726              		.loc 1 1227 7 view .LVU1358
 4727              		.loc 1 1227 12 is_stmt 0 view .LVU1359
 4728 0022 2270     		strbmi	r2, [r4]
1228:D:/fchai/work/i-cube/I-CUBE-HUAWEI/Drivers/BSP/Components/lps22hh\lps22hh_reg.c ****       break;
 4729              		.loc 1 1228 7 is_stmt 1 view .LVU1360
1229:D:/fchai/work/i-cube/I-CUBE-HUAWEI/Drivers/BSP/Components/lps22hh\lps22hh_reg.c ****     default:
1230:D:/fchai/work/i-cube/I-CUBE-HUAWEI/Drivers/BSP/Components/lps22hh\lps22hh_reg.c ****       *val = LPS22HH_PUSH_PULL;
1231:D:/fchai/work/i-cube/I-CUBE-HUAWEI/Drivers/BSP/Components/lps22hh\lps22hh_reg.c ****       break;
ARM GAS  T:\msys\tmp\ccdfMMY7.s 			page 118


1232:D:/fchai/work/i-cube/I-CUBE-HUAWEI/Drivers/BSP/Components/lps22hh\lps22hh_reg.c ****   }
1233:D:/fchai/work/i-cube/I-CUBE-HUAWEI/Drivers/BSP/Components/lps22hh\lps22hh_reg.c **** 
1234:D:/fchai/work/i-cube/I-CUBE-HUAWEI/Drivers/BSP/Components/lps22hh\lps22hh_reg.c ****   return ret;
 4730              		.loc 1 1234 3 view .LVU1361
1235:D:/fchai/work/i-cube/I-CUBE-HUAWEI/Drivers/BSP/Components/lps22hh\lps22hh_reg.c **** }
 4731              		.loc 1 1235 1 is_stmt 0 view .LVU1362
 4732 0024 03B0     		add	sp, sp, #12
 4733              	.LCFI139:
 4734              		.cfi_def_cfa_offset 12
 4735              		@ sp needed
 4736 0026 30BD     		pop	{r4, r5, pc}
 4737              		.loc 1 1235 1 view .LVU1363
 4738              		.cfi_endproc
 4739              	.LFE50:
 4741              		.section	.text.lps22hh_pin_polarity_set,"ax",%progbits
 4742              		.align	1
 4743              		.p2align 2,,3
 4744              		.global	lps22hh_pin_polarity_set
 4745              		.syntax unified
 4746              		.thumb
 4747              		.thumb_func
 4748              		.fpu fpv4-sp-d16
 4750              	lps22hh_pin_polarity_set:
 4751              	.LVL380:
 4752              	.LFB51:
1236:D:/fchai/work/i-cube/I-CUBE-HUAWEI/Drivers/BSP/Components/lps22hh\lps22hh_reg.c **** 
1237:D:/fchai/work/i-cube/I-CUBE-HUAWEI/Drivers/BSP/Components/lps22hh\lps22hh_reg.c **** /**
1238:D:/fchai/work/i-cube/I-CUBE-HUAWEI/Drivers/BSP/Components/lps22hh\lps22hh_reg.c ****   * @brief  Interrupt active-high/low.[set]
1239:D:/fchai/work/i-cube/I-CUBE-HUAWEI/Drivers/BSP/Components/lps22hh\lps22hh_reg.c ****   *
1240:D:/fchai/work/i-cube/I-CUBE-HUAWEI/Drivers/BSP/Components/lps22hh\lps22hh_reg.c ****   * @param  ctx      read / write interface definitions
1241:D:/fchai/work/i-cube/I-CUBE-HUAWEI/Drivers/BSP/Components/lps22hh\lps22hh_reg.c ****   * @param  val      change the values of int_h_l in reg CTRL_REG2
1242:D:/fchai/work/i-cube/I-CUBE-HUAWEI/Drivers/BSP/Components/lps22hh\lps22hh_reg.c ****   * @retval          interface status (MANDATORY: return 0 -> no Error)
1243:D:/fchai/work/i-cube/I-CUBE-HUAWEI/Drivers/BSP/Components/lps22hh\lps22hh_reg.c ****   *
1244:D:/fchai/work/i-cube/I-CUBE-HUAWEI/Drivers/BSP/Components/lps22hh\lps22hh_reg.c ****   */
1245:D:/fchai/work/i-cube/I-CUBE-HUAWEI/Drivers/BSP/Components/lps22hh\lps22hh_reg.c **** int32_t lps22hh_pin_polarity_set(stmdev_ctx_t *ctx, lps22hh_int_h_l_t val)
1246:D:/fchai/work/i-cube/I-CUBE-HUAWEI/Drivers/BSP/Components/lps22hh\lps22hh_reg.c **** {
 4753              		.loc 1 1246 1 is_stmt 1 view -0
 4754              		.cfi_startproc
 4755              		@ args = 0, pretend = 0, frame = 8
 4756              		@ frame_needed = 0, uses_anonymous_args = 0
1247:D:/fchai/work/i-cube/I-CUBE-HUAWEI/Drivers/BSP/Components/lps22hh\lps22hh_reg.c ****   lps22hh_ctrl_reg2_t reg;
 4757              		.loc 1 1247 3 view .LVU1365
1248:D:/fchai/work/i-cube/I-CUBE-HUAWEI/Drivers/BSP/Components/lps22hh\lps22hh_reg.c ****   int32_t ret;
 4758              		.loc 1 1248 3 view .LVU1366
1249:D:/fchai/work/i-cube/I-CUBE-HUAWEI/Drivers/BSP/Components/lps22hh\lps22hh_reg.c **** 
1250:D:/fchai/work/i-cube/I-CUBE-HUAWEI/Drivers/BSP/Components/lps22hh\lps22hh_reg.c ****   ret = lps22hh_read_reg(ctx, LPS22HH_CTRL_REG2, (uint8_t*) &reg, 1);
 4759              		.loc 1 1250 3 view .LVU1367
1246:D:/fchai/work/i-cube/I-CUBE-HUAWEI/Drivers/BSP/Components/lps22hh\lps22hh_reg.c ****   lps22hh_ctrl_reg2_t reg;
 4760              		.loc 1 1246 1 is_stmt 0 view .LVU1368
 4761 0000 70B5     		push	{r4, r5, r6, lr}
 4762              	.LCFI140:
 4763              		.cfi_def_cfa_offset 16
 4764              		.cfi_offset 4, -16
 4765              		.cfi_offset 5, -12
 4766              		.cfi_offset 6, -8
 4767              		.cfi_offset 14, -4
 4768 0002 82B0     		sub	sp, sp, #8
ARM GAS  T:\msys\tmp\ccdfMMY7.s 			page 119


 4769              	.LCFI141:
 4770              		.cfi_def_cfa_offset 24
1246:D:/fchai/work/i-cube/I-CUBE-HUAWEI/Drivers/BSP/Components/lps22hh\lps22hh_reg.c ****   lps22hh_ctrl_reg2_t reg;
 4771              		.loc 1 1246 1 view .LVU1369
 4772 0004 0446     		mov	r4, r0
 4773              	.LVL381:
 4774              	.LBB526:
 4775              	.LBI526:
  49:D:/fchai/work/i-cube/I-CUBE-HUAWEI/Drivers/BSP/Components/lps22hh\lps22hh_reg.c ****                          uint16_t len)
 4776              		.loc 1 49 9 is_stmt 1 view .LVU1370
 4777              	.LBB527:
  52:D:/fchai/work/i-cube/I-CUBE-HUAWEI/Drivers/BSP/Components/lps22hh\lps22hh_reg.c ****   ret = ctx->read_reg(ctx->handle, reg, data, len);
 4778              		.loc 1 52 3 view .LVU1371
  53:D:/fchai/work/i-cube/I-CUBE-HUAWEI/Drivers/BSP/Components/lps22hh\lps22hh_reg.c ****   return ret;
 4779              		.loc 1 53 3 view .LVU1372
 4780              	.LBE527:
 4781              	.LBE526:
1246:D:/fchai/work/i-cube/I-CUBE-HUAWEI/Drivers/BSP/Components/lps22hh\lps22hh_reg.c ****   lps22hh_ctrl_reg2_t reg;
 4782              		.loc 1 1246 1 is_stmt 0 view .LVU1373
 4783 0006 0D46     		mov	r5, r1
 4784              	.LBB529:
 4785              	.LBB528:
  53:D:/fchai/work/i-cube/I-CUBE-HUAWEI/Drivers/BSP/Components/lps22hh\lps22hh_reg.c ****   return ret;
 4786              		.loc 1 53 9 view .LVU1374
 4787 0008 D0E90160 		ldrd	r6, r0, [r0, #4]
 4788              	.LVL382:
  53:D:/fchai/work/i-cube/I-CUBE-HUAWEI/Drivers/BSP/Components/lps22hh\lps22hh_reg.c ****   return ret;
 4789              		.loc 1 53 9 view .LVU1375
 4790 000c 01AA     		add	r2, sp, #4
 4791              	.LVL383:
  53:D:/fchai/work/i-cube/I-CUBE-HUAWEI/Drivers/BSP/Components/lps22hh\lps22hh_reg.c ****   return ret;
 4792              		.loc 1 53 9 view .LVU1376
 4793 000e 0123     		movs	r3, #1
 4794 0010 1121     		movs	r1, #17
 4795              	.LVL384:
  53:D:/fchai/work/i-cube/I-CUBE-HUAWEI/Drivers/BSP/Components/lps22hh\lps22hh_reg.c ****   return ret;
 4796              		.loc 1 53 9 view .LVU1377
 4797 0012 B047     		blx	r6
 4798              	.LVL385:
  54:D:/fchai/work/i-cube/I-CUBE-HUAWEI/Drivers/BSP/Components/lps22hh\lps22hh_reg.c **** }
 4799              		.loc 1 54 3 is_stmt 1 view .LVU1378
  54:D:/fchai/work/i-cube/I-CUBE-HUAWEI/Drivers/BSP/Components/lps22hh\lps22hh_reg.c **** }
 4800              		.loc 1 54 3 is_stmt 0 view .LVU1379
 4801              	.LBE528:
 4802              	.LBE529:
1251:D:/fchai/work/i-cube/I-CUBE-HUAWEI/Drivers/BSP/Components/lps22hh\lps22hh_reg.c ****   if (ret == 0) {
 4803              		.loc 1 1251 3 is_stmt 1 view .LVU1380
 4804              		.loc 1 1251 6 is_stmt 0 view .LVU1381
 4805 0014 58B9     		cbnz	r0, .L157
1252:D:/fchai/work/i-cube/I-CUBE-HUAWEI/Drivers/BSP/Components/lps22hh\lps22hh_reg.c ****     reg.int_h_l = (uint8_t)val;
 4806              		.loc 1 1252 5 is_stmt 1 view .LVU1382
 4807              		.loc 1 1252 17 is_stmt 0 view .LVU1383
 4808 0016 9DF80430 		ldrb	r3, [sp, #4]	@ zero_extendqisi2
 4809              	.LBB530:
 4810              	.LBB531:
  71:D:/fchai/work/i-cube/I-CUBE-HUAWEI/Drivers/BSP/Components/lps22hh\lps22hh_reg.c ****   return ret;
 4811              		.loc 1 71 9 view .LVU1384
ARM GAS  T:\msys\tmp\ccdfMMY7.s 			page 120


 4812 001a 2668     		ldr	r6, [r4]
 4813 001c A068     		ldr	r0, [r4, #8]
 4814              	.LVL386:
  71:D:/fchai/work/i-cube/I-CUBE-HUAWEI/Drivers/BSP/Components/lps22hh\lps22hh_reg.c ****   return ret;
 4815              		.loc 1 71 9 view .LVU1385
 4816              	.LBE531:
 4817              	.LBE530:
 4818              		.loc 1 1252 17 view .LVU1386
 4819 001e 65F38613 		bfi	r3, r5, #6, #1
 4820 0022 8DF80430 		strb	r3, [sp, #4]
1253:D:/fchai/work/i-cube/I-CUBE-HUAWEI/Drivers/BSP/Components/lps22hh\lps22hh_reg.c ****     ret = lps22hh_write_reg(ctx, LPS22HH_CTRL_REG2, (uint8_t*) &reg, 1);
 4821              		.loc 1 1253 5 is_stmt 1 view .LVU1387
 4822              	.LVL387:
 4823              	.LBB533:
 4824              	.LBI530:
  67:D:/fchai/work/i-cube/I-CUBE-HUAWEI/Drivers/BSP/Components/lps22hh\lps22hh_reg.c ****                            uint16_t len)
 4825              		.loc 1 67 9 view .LVU1388
 4826              	.LBB532:
  70:D:/fchai/work/i-cube/I-CUBE-HUAWEI/Drivers/BSP/Components/lps22hh\lps22hh_reg.c ****   ret = ctx->write_reg(ctx->handle, reg, data, len);
 4827              		.loc 1 70 3 view .LVU1389
  71:D:/fchai/work/i-cube/I-CUBE-HUAWEI/Drivers/BSP/Components/lps22hh\lps22hh_reg.c ****   return ret;
 4828              		.loc 1 71 3 view .LVU1390
  71:D:/fchai/work/i-cube/I-CUBE-HUAWEI/Drivers/BSP/Components/lps22hh\lps22hh_reg.c ****   return ret;
 4829              		.loc 1 71 9 is_stmt 0 view .LVU1391
 4830 0026 01AA     		add	r2, sp, #4
 4831              	.LVL388:
  71:D:/fchai/work/i-cube/I-CUBE-HUAWEI/Drivers/BSP/Components/lps22hh\lps22hh_reg.c ****   return ret;
 4832              		.loc 1 71 9 view .LVU1392
 4833 0028 0123     		movs	r3, #1
 4834 002a 1121     		movs	r1, #17
 4835 002c B047     		blx	r6
 4836              	.LVL389:
  72:D:/fchai/work/i-cube/I-CUBE-HUAWEI/Drivers/BSP/Components/lps22hh\lps22hh_reg.c **** }
 4837              		.loc 1 72 3 is_stmt 1 view .LVU1393
  72:D:/fchai/work/i-cube/I-CUBE-HUAWEI/Drivers/BSP/Components/lps22hh\lps22hh_reg.c **** }
 4838              		.loc 1 72 3 is_stmt 0 view .LVU1394
 4839              	.LBE532:
 4840              	.LBE533:
1254:D:/fchai/work/i-cube/I-CUBE-HUAWEI/Drivers/BSP/Components/lps22hh\lps22hh_reg.c ****   }
1255:D:/fchai/work/i-cube/I-CUBE-HUAWEI/Drivers/BSP/Components/lps22hh\lps22hh_reg.c **** 
1256:D:/fchai/work/i-cube/I-CUBE-HUAWEI/Drivers/BSP/Components/lps22hh\lps22hh_reg.c ****   return ret;
 4841              		.loc 1 1256 3 is_stmt 1 view .LVU1395
 4842              	.L157:
1257:D:/fchai/work/i-cube/I-CUBE-HUAWEI/Drivers/BSP/Components/lps22hh\lps22hh_reg.c **** }
 4843              		.loc 1 1257 1 is_stmt 0 view .LVU1396
 4844 002e 02B0     		add	sp, sp, #8
 4845              	.LCFI142:
 4846              		.cfi_def_cfa_offset 16
 4847              		@ sp needed
 4848 0030 70BD     		pop	{r4, r5, r6, pc}
 4849              		.loc 1 1257 1 view .LVU1397
 4850              		.cfi_endproc
 4851              	.LFE51:
 4853 0032 00BF     		.section	.text.lps22hh_pin_polarity_get,"ax",%progbits
 4854              		.align	1
 4855              		.p2align 2,,3
 4856              		.global	lps22hh_pin_polarity_get
ARM GAS  T:\msys\tmp\ccdfMMY7.s 			page 121


 4857              		.syntax unified
 4858              		.thumb
 4859              		.thumb_func
 4860              		.fpu fpv4-sp-d16
 4862              	lps22hh_pin_polarity_get:
 4863              	.LVL390:
 4864              	.LFB52:
1258:D:/fchai/work/i-cube/I-CUBE-HUAWEI/Drivers/BSP/Components/lps22hh\lps22hh_reg.c **** 
1259:D:/fchai/work/i-cube/I-CUBE-HUAWEI/Drivers/BSP/Components/lps22hh\lps22hh_reg.c **** /**
1260:D:/fchai/work/i-cube/I-CUBE-HUAWEI/Drivers/BSP/Components/lps22hh\lps22hh_reg.c ****   * @brief  Interrupt active-high/low.[get]
1261:D:/fchai/work/i-cube/I-CUBE-HUAWEI/Drivers/BSP/Components/lps22hh\lps22hh_reg.c ****   *
1262:D:/fchai/work/i-cube/I-CUBE-HUAWEI/Drivers/BSP/Components/lps22hh\lps22hh_reg.c ****   * @param  ctx      read / write interface definitions
1263:D:/fchai/work/i-cube/I-CUBE-HUAWEI/Drivers/BSP/Components/lps22hh\lps22hh_reg.c ****   * @param  val      Get the values of int_h_l in reg CTRL_REG2
1264:D:/fchai/work/i-cube/I-CUBE-HUAWEI/Drivers/BSP/Components/lps22hh\lps22hh_reg.c ****   * @retval          interface status (MANDATORY: return 0 -> no Error)
1265:D:/fchai/work/i-cube/I-CUBE-HUAWEI/Drivers/BSP/Components/lps22hh\lps22hh_reg.c ****   *
1266:D:/fchai/work/i-cube/I-CUBE-HUAWEI/Drivers/BSP/Components/lps22hh\lps22hh_reg.c ****   */
1267:D:/fchai/work/i-cube/I-CUBE-HUAWEI/Drivers/BSP/Components/lps22hh\lps22hh_reg.c **** int32_t lps22hh_pin_polarity_get(stmdev_ctx_t *ctx, lps22hh_int_h_l_t *val)
1268:D:/fchai/work/i-cube/I-CUBE-HUAWEI/Drivers/BSP/Components/lps22hh\lps22hh_reg.c **** {
 4865              		.loc 1 1268 1 is_stmt 1 view -0
 4866              		.cfi_startproc
 4867              		@ args = 0, pretend = 0, frame = 8
 4868              		@ frame_needed = 0, uses_anonymous_args = 0
1269:D:/fchai/work/i-cube/I-CUBE-HUAWEI/Drivers/BSP/Components/lps22hh\lps22hh_reg.c ****   lps22hh_ctrl_reg2_t reg;
 4869              		.loc 1 1269 3 view .LVU1399
1270:D:/fchai/work/i-cube/I-CUBE-HUAWEI/Drivers/BSP/Components/lps22hh\lps22hh_reg.c ****   int32_t ret;
 4870              		.loc 1 1270 3 view .LVU1400
1271:D:/fchai/work/i-cube/I-CUBE-HUAWEI/Drivers/BSP/Components/lps22hh\lps22hh_reg.c **** 
1272:D:/fchai/work/i-cube/I-CUBE-HUAWEI/Drivers/BSP/Components/lps22hh\lps22hh_reg.c ****   ret = lps22hh_read_reg(ctx, LPS22HH_CTRL_REG2, (uint8_t*) &reg, 1);
 4871              		.loc 1 1272 3 view .LVU1401
1268:D:/fchai/work/i-cube/I-CUBE-HUAWEI/Drivers/BSP/Components/lps22hh\lps22hh_reg.c ****   lps22hh_ctrl_reg2_t reg;
 4872              		.loc 1 1268 1 is_stmt 0 view .LVU1402
 4873 0000 30B5     		push	{r4, r5, lr}
 4874              	.LCFI143:
 4875              		.cfi_def_cfa_offset 12
 4876              		.cfi_offset 4, -12
 4877              		.cfi_offset 5, -8
 4878              		.cfi_offset 14, -4
 4879 0002 83B0     		sub	sp, sp, #12
 4880              	.LCFI144:
 4881              		.cfi_def_cfa_offset 24
 4882              	.LVL391:
 4883              	.LBB534:
 4884              	.LBI534:
  49:D:/fchai/work/i-cube/I-CUBE-HUAWEI/Drivers/BSP/Components/lps22hh\lps22hh_reg.c ****                          uint16_t len)
 4885              		.loc 1 49 9 is_stmt 1 view .LVU1403
 4886              	.LBB535:
  52:D:/fchai/work/i-cube/I-CUBE-HUAWEI/Drivers/BSP/Components/lps22hh\lps22hh_reg.c ****   ret = ctx->read_reg(ctx->handle, reg, data, len);
 4887              		.loc 1 52 3 view .LVU1404
  53:D:/fchai/work/i-cube/I-CUBE-HUAWEI/Drivers/BSP/Components/lps22hh\lps22hh_reg.c ****   return ret;
 4888              		.loc 1 53 3 view .LVU1405
 4889              	.LBE535:
 4890              	.LBE534:
1268:D:/fchai/work/i-cube/I-CUBE-HUAWEI/Drivers/BSP/Components/lps22hh\lps22hh_reg.c ****   lps22hh_ctrl_reg2_t reg;
 4891              		.loc 1 1268 1 is_stmt 0 view .LVU1406
 4892 0004 0C46     		mov	r4, r1
 4893              	.LBB538:
 4894              	.LBB536:
ARM GAS  T:\msys\tmp\ccdfMMY7.s 			page 122


  53:D:/fchai/work/i-cube/I-CUBE-HUAWEI/Drivers/BSP/Components/lps22hh\lps22hh_reg.c ****   return ret;
 4895              		.loc 1 53 9 view .LVU1407
 4896 0006 01AA     		add	r2, sp, #4
 4897              	.LVL392:
  53:D:/fchai/work/i-cube/I-CUBE-HUAWEI/Drivers/BSP/Components/lps22hh\lps22hh_reg.c ****   return ret;
 4898              		.loc 1 53 9 view .LVU1408
 4899 0008 D0E90150 		ldrd	r5, r0, [r0, #4]
 4900              	.LVL393:
  53:D:/fchai/work/i-cube/I-CUBE-HUAWEI/Drivers/BSP/Components/lps22hh\lps22hh_reg.c ****   return ret;
 4901              		.loc 1 53 9 view .LVU1409
 4902 000c 0123     		movs	r3, #1
 4903 000e 1121     		movs	r1, #17
 4904              	.LVL394:
  53:D:/fchai/work/i-cube/I-CUBE-HUAWEI/Drivers/BSP/Components/lps22hh\lps22hh_reg.c ****   return ret;
 4905              		.loc 1 53 9 view .LVU1410
 4906 0010 A847     		blx	r5
 4907              	.LVL395:
  53:D:/fchai/work/i-cube/I-CUBE-HUAWEI/Drivers/BSP/Components/lps22hh\lps22hh_reg.c ****   return ret;
 4908              		.loc 1 53 9 view .LVU1411
 4909              	.LBE536:
 4910              	.LBE538:
1273:D:/fchai/work/i-cube/I-CUBE-HUAWEI/Drivers/BSP/Components/lps22hh\lps22hh_reg.c **** 
1274:D:/fchai/work/i-cube/I-CUBE-HUAWEI/Drivers/BSP/Components/lps22hh\lps22hh_reg.c ****   switch (reg.int_h_l) {
 4911              		.loc 1 1274 14 view .LVU1412
 4912 0012 9DF80430 		ldrb	r3, [sp, #4]	@ zero_extendqisi2
 4913              	.LVL396:
 4914              	.LBB539:
 4915              	.LBB537:
  54:D:/fchai/work/i-cube/I-CUBE-HUAWEI/Drivers/BSP/Components/lps22hh\lps22hh_reg.c **** }
 4916              		.loc 1 54 3 is_stmt 1 view .LVU1413
  54:D:/fchai/work/i-cube/I-CUBE-HUAWEI/Drivers/BSP/Components/lps22hh\lps22hh_reg.c **** }
 4917              		.loc 1 54 3 is_stmt 0 view .LVU1414
 4918              	.LBE537:
 4919              	.LBE539:
 4920              		.loc 1 1274 3 is_stmt 1 view .LVU1415
 4921              		.loc 1 1274 14 is_stmt 0 view .LVU1416
 4922 0016 C3F38012 		ubfx	r2, r3, #6, #1
 4923              		.loc 1 1274 3 view .LVU1417
 4924 001a 5B06     		lsls	r3, r3, #25
1275:D:/fchai/work/i-cube/I-CUBE-HUAWEI/Drivers/BSP/Components/lps22hh\lps22hh_reg.c ****     case LPS22HH_ACTIVE_HIGH:
1276:D:/fchai/work/i-cube/I-CUBE-HUAWEI/Drivers/BSP/Components/lps22hh\lps22hh_reg.c ****       *val = LPS22HH_ACTIVE_HIGH;
 4925              		.loc 1 1276 7 is_stmt 1 view .LVU1418
 4926              		.loc 1 1276 12 is_stmt 0 view .LVU1419
 4927 001c 5ABF     		itte	pl
 4928 001e 0023     		movpl	r3, #0
 4929 0020 2370     		strbpl	r3, [r4]
1277:D:/fchai/work/i-cube/I-CUBE-HUAWEI/Drivers/BSP/Components/lps22hh\lps22hh_reg.c ****       break;
 4930              		.loc 1 1277 7 is_stmt 1 view .LVU1420
1278:D:/fchai/work/i-cube/I-CUBE-HUAWEI/Drivers/BSP/Components/lps22hh\lps22hh_reg.c ****     case LPS22HH_ACTIVE_LOW:
1279:D:/fchai/work/i-cube/I-CUBE-HUAWEI/Drivers/BSP/Components/lps22hh\lps22hh_reg.c ****       *val = LPS22HH_ACTIVE_LOW;
 4931              		.loc 1 1279 7 view .LVU1421
 4932              		.loc 1 1279 12 is_stmt 0 view .LVU1422
 4933 0022 2270     		strbmi	r2, [r4]
1280:D:/fchai/work/i-cube/I-CUBE-HUAWEI/Drivers/BSP/Components/lps22hh\lps22hh_reg.c ****       break;
 4934              		.loc 1 1280 7 is_stmt 1 view .LVU1423
1281:D:/fchai/work/i-cube/I-CUBE-HUAWEI/Drivers/BSP/Components/lps22hh\lps22hh_reg.c ****     default:
1282:D:/fchai/work/i-cube/I-CUBE-HUAWEI/Drivers/BSP/Components/lps22hh\lps22hh_reg.c ****       *val = LPS22HH_ACTIVE_HIGH;
ARM GAS  T:\msys\tmp\ccdfMMY7.s 			page 123


1283:D:/fchai/work/i-cube/I-CUBE-HUAWEI/Drivers/BSP/Components/lps22hh\lps22hh_reg.c ****       break;
1284:D:/fchai/work/i-cube/I-CUBE-HUAWEI/Drivers/BSP/Components/lps22hh\lps22hh_reg.c ****   }
1285:D:/fchai/work/i-cube/I-CUBE-HUAWEI/Drivers/BSP/Components/lps22hh\lps22hh_reg.c **** 
1286:D:/fchai/work/i-cube/I-CUBE-HUAWEI/Drivers/BSP/Components/lps22hh\lps22hh_reg.c ****   return ret;
 4935              		.loc 1 1286 3 view .LVU1424
1287:D:/fchai/work/i-cube/I-CUBE-HUAWEI/Drivers/BSP/Components/lps22hh\lps22hh_reg.c **** }
 4936              		.loc 1 1287 1 is_stmt 0 view .LVU1425
 4937 0024 03B0     		add	sp, sp, #12
 4938              	.LCFI145:
 4939              		.cfi_def_cfa_offset 12
 4940              		@ sp needed
 4941 0026 30BD     		pop	{r4, r5, pc}
 4942              		.loc 1 1287 1 view .LVU1426
 4943              		.cfi_endproc
 4944              	.LFE52:
 4946              		.section	.text.lps22hh_pin_int_route_set,"ax",%progbits
 4947              		.align	1
 4948              		.p2align 2,,3
 4949              		.global	lps22hh_pin_int_route_set
 4950              		.syntax unified
 4951              		.thumb
 4952              		.thumb_func
 4953              		.fpu fpv4-sp-d16
 4955              	lps22hh_pin_int_route_set:
 4956              	.LVL397:
 4957              	.LFB53:
1288:D:/fchai/work/i-cube/I-CUBE-HUAWEI/Drivers/BSP/Components/lps22hh\lps22hh_reg.c **** 
1289:D:/fchai/work/i-cube/I-CUBE-HUAWEI/Drivers/BSP/Components/lps22hh\lps22hh_reg.c **** /**
1290:D:/fchai/work/i-cube/I-CUBE-HUAWEI/Drivers/BSP/Components/lps22hh\lps22hh_reg.c ****   * @brief  Select the signal that need to route on int pad.[set]
1291:D:/fchai/work/i-cube/I-CUBE-HUAWEI/Drivers/BSP/Components/lps22hh\lps22hh_reg.c ****   *
1292:D:/fchai/work/i-cube/I-CUBE-HUAWEI/Drivers/BSP/Components/lps22hh\lps22hh_reg.c ****   * @param  ctx      read / write interface definitions
1293:D:/fchai/work/i-cube/I-CUBE-HUAWEI/Drivers/BSP/Components/lps22hh\lps22hh_reg.c ****   * @param  val      registers CTRL_REG3
1294:D:/fchai/work/i-cube/I-CUBE-HUAWEI/Drivers/BSP/Components/lps22hh\lps22hh_reg.c ****   * @retval          interface status (MANDATORY: return 0 -> no Error)
1295:D:/fchai/work/i-cube/I-CUBE-HUAWEI/Drivers/BSP/Components/lps22hh\lps22hh_reg.c ****   *
1296:D:/fchai/work/i-cube/I-CUBE-HUAWEI/Drivers/BSP/Components/lps22hh\lps22hh_reg.c ****   */
1297:D:/fchai/work/i-cube/I-CUBE-HUAWEI/Drivers/BSP/Components/lps22hh\lps22hh_reg.c **** int32_t lps22hh_pin_int_route_set(stmdev_ctx_t *ctx,
1298:D:/fchai/work/i-cube/I-CUBE-HUAWEI/Drivers/BSP/Components/lps22hh\lps22hh_reg.c ****                                   lps22hh_ctrl_reg3_t *val)
1299:D:/fchai/work/i-cube/I-CUBE-HUAWEI/Drivers/BSP/Components/lps22hh\lps22hh_reg.c **** {
 4958              		.loc 1 1299 1 is_stmt 1 view -0
 4959              		.cfi_startproc
 4960              		@ args = 0, pretend = 0, frame = 0
 4961              		@ frame_needed = 0, uses_anonymous_args = 0
 4962              		@ link register save eliminated.
1300:D:/fchai/work/i-cube/I-CUBE-HUAWEI/Drivers/BSP/Components/lps22hh\lps22hh_reg.c ****   int32_t ret;
 4963              		.loc 1 1300 3 view .LVU1428
1301:D:/fchai/work/i-cube/I-CUBE-HUAWEI/Drivers/BSP/Components/lps22hh\lps22hh_reg.c ****   ret =  lps22hh_write_reg(ctx, LPS22HH_CTRL_REG3, (uint8_t*) val, 1);
 4964              		.loc 1 1301 3 view .LVU1429
1299:D:/fchai/work/i-cube/I-CUBE-HUAWEI/Drivers/BSP/Components/lps22hh\lps22hh_reg.c ****   int32_t ret;
 4965              		.loc 1 1299 1 is_stmt 0 view .LVU1430
 4966 0000 10B4     		push	{r4}
 4967              	.LCFI146:
 4968              		.cfi_def_cfa_offset 4
 4969              		.cfi_offset 4, -4
 4970              	.LBB540:
 4971              	.LBB541:
  71:D:/fchai/work/i-cube/I-CUBE-HUAWEI/Drivers/BSP/Components/lps22hh\lps22hh_reg.c ****   return ret;
 4972              		.loc 1 71 9 view .LVU1431
ARM GAS  T:\msys\tmp\ccdfMMY7.s 			page 124


 4973 0002 0468     		ldr	r4, [r0]
 4974 0004 8068     		ldr	r0, [r0, #8]
 4975              	.LVL398:
  71:D:/fchai/work/i-cube/I-CUBE-HUAWEI/Drivers/BSP/Components/lps22hh\lps22hh_reg.c ****   return ret;
 4976              		.loc 1 71 9 view .LVU1432
 4977              	.LBE541:
 4978              	.LBE540:
1299:D:/fchai/work/i-cube/I-CUBE-HUAWEI/Drivers/BSP/Components/lps22hh\lps22hh_reg.c ****   int32_t ret;
 4979              		.loc 1 1299 1 view .LVU1433
 4980 0006 0A46     		mov	r2, r1
 4981              	.LVL399:
 4982              	.LBB544:
 4983              	.LBI540:
  67:D:/fchai/work/i-cube/I-CUBE-HUAWEI/Drivers/BSP/Components/lps22hh\lps22hh_reg.c ****                            uint16_t len)
 4984              		.loc 1 67 9 is_stmt 1 view .LVU1434
 4985              	.LBB542:
  70:D:/fchai/work/i-cube/I-CUBE-HUAWEI/Drivers/BSP/Components/lps22hh\lps22hh_reg.c ****   ret = ctx->write_reg(ctx->handle, reg, data, len);
 4986              		.loc 1 70 3 view .LVU1435
  71:D:/fchai/work/i-cube/I-CUBE-HUAWEI/Drivers/BSP/Components/lps22hh\lps22hh_reg.c ****   return ret;
 4987              		.loc 1 71 3 view .LVU1436
  71:D:/fchai/work/i-cube/I-CUBE-HUAWEI/Drivers/BSP/Components/lps22hh\lps22hh_reg.c ****   return ret;
 4988              		.loc 1 71 9 is_stmt 0 view .LVU1437
 4989 0008 A446     		mov	ip, r4
 4990 000a 0123     		movs	r3, #1
 4991              	.LBE542:
 4992              	.LBE544:
1302:D:/fchai/work/i-cube/I-CUBE-HUAWEI/Drivers/BSP/Components/lps22hh\lps22hh_reg.c ****   return ret;
1303:D:/fchai/work/i-cube/I-CUBE-HUAWEI/Drivers/BSP/Components/lps22hh\lps22hh_reg.c **** }
 4993              		.loc 1 1303 1 view .LVU1438
 4994 000c 5DF8044B 		ldr	r4, [sp], #4
 4995              	.LCFI147:
 4996              		.cfi_restore 4
 4997              		.cfi_def_cfa_offset 0
 4998              	.LBB545:
 4999              	.LBB543:
  71:D:/fchai/work/i-cube/I-CUBE-HUAWEI/Drivers/BSP/Components/lps22hh\lps22hh_reg.c ****   return ret;
 5000              		.loc 1 71 9 view .LVU1439
 5001 0010 1221     		movs	r1, #18
 5002              	.LVL400:
  71:D:/fchai/work/i-cube/I-CUBE-HUAWEI/Drivers/BSP/Components/lps22hh\lps22hh_reg.c ****   return ret;
 5003              		.loc 1 71 9 view .LVU1440
 5004 0012 6047     		bx	ip
 5005              	.LVL401:
  71:D:/fchai/work/i-cube/I-CUBE-HUAWEI/Drivers/BSP/Components/lps22hh\lps22hh_reg.c ****   return ret;
 5006              		.loc 1 71 9 view .LVU1441
 5007              	.LBE543:
 5008              	.LBE545:
 5009              		.cfi_endproc
 5010              	.LFE53:
 5012              		.section	.text.lps22hh_pin_int_route_get,"ax",%progbits
 5013              		.align	1
 5014              		.p2align 2,,3
 5015              		.global	lps22hh_pin_int_route_get
 5016              		.syntax unified
 5017              		.thumb
 5018              		.thumb_func
 5019              		.fpu fpv4-sp-d16
ARM GAS  T:\msys\tmp\ccdfMMY7.s 			page 125


 5021              	lps22hh_pin_int_route_get:
 5022              	.LVL402:
 5023              	.LFB54:
1304:D:/fchai/work/i-cube/I-CUBE-HUAWEI/Drivers/BSP/Components/lps22hh\lps22hh_reg.c **** 
1305:D:/fchai/work/i-cube/I-CUBE-HUAWEI/Drivers/BSP/Components/lps22hh\lps22hh_reg.c **** /**
1306:D:/fchai/work/i-cube/I-CUBE-HUAWEI/Drivers/BSP/Components/lps22hh\lps22hh_reg.c ****   * @brief  Select the signal that need to route on int pad.[get]
1307:D:/fchai/work/i-cube/I-CUBE-HUAWEI/Drivers/BSP/Components/lps22hh\lps22hh_reg.c ****   *
1308:D:/fchai/work/i-cube/I-CUBE-HUAWEI/Drivers/BSP/Components/lps22hh\lps22hh_reg.c ****   * @param  ctx      read / write interface definitions
1309:D:/fchai/work/i-cube/I-CUBE-HUAWEI/Drivers/BSP/Components/lps22hh\lps22hh_reg.c ****   * @param  val      registers CTRL_REG3
1310:D:/fchai/work/i-cube/I-CUBE-HUAWEI/Drivers/BSP/Components/lps22hh\lps22hh_reg.c ****   * @retval          interface status (MANDATORY: return 0 -> no Error)
1311:D:/fchai/work/i-cube/I-CUBE-HUAWEI/Drivers/BSP/Components/lps22hh\lps22hh_reg.c ****   *
1312:D:/fchai/work/i-cube/I-CUBE-HUAWEI/Drivers/BSP/Components/lps22hh\lps22hh_reg.c ****   */
1313:D:/fchai/work/i-cube/I-CUBE-HUAWEI/Drivers/BSP/Components/lps22hh\lps22hh_reg.c **** int32_t lps22hh_pin_int_route_get(stmdev_ctx_t *ctx,
1314:D:/fchai/work/i-cube/I-CUBE-HUAWEI/Drivers/BSP/Components/lps22hh\lps22hh_reg.c ****                                   lps22hh_ctrl_reg3_t *val)
1315:D:/fchai/work/i-cube/I-CUBE-HUAWEI/Drivers/BSP/Components/lps22hh\lps22hh_reg.c **** {
 5024              		.loc 1 1315 1 is_stmt 1 view -0
 5025              		.cfi_startproc
 5026              		@ args = 0, pretend = 0, frame = 0
 5027              		@ frame_needed = 0, uses_anonymous_args = 0
 5028              		@ link register save eliminated.
1316:D:/fchai/work/i-cube/I-CUBE-HUAWEI/Drivers/BSP/Components/lps22hh\lps22hh_reg.c ****   int32_t ret;
 5029              		.loc 1 1316 3 view .LVU1443
1317:D:/fchai/work/i-cube/I-CUBE-HUAWEI/Drivers/BSP/Components/lps22hh\lps22hh_reg.c ****   ret =  lps22hh_read_reg(ctx, LPS22HH_CTRL_REG3, (uint8_t*) val, 1);
 5030              		.loc 1 1317 3 view .LVU1444
1315:D:/fchai/work/i-cube/I-CUBE-HUAWEI/Drivers/BSP/Components/lps22hh\lps22hh_reg.c ****   int32_t ret;
 5031              		.loc 1 1315 1 is_stmt 0 view .LVU1445
 5032 0000 10B4     		push	{r4}
 5033              	.LCFI148:
 5034              		.cfi_def_cfa_offset 4
 5035              		.cfi_offset 4, -4
 5036              	.LBB546:
 5037              	.LBB547:
  53:D:/fchai/work/i-cube/I-CUBE-HUAWEI/Drivers/BSP/Components/lps22hh\lps22hh_reg.c ****   return ret;
 5038              		.loc 1 53 9 view .LVU1446
 5039 0002 D0E90140 		ldrd	r4, r0, [r0, #4]
 5040              	.LVL403:
  53:D:/fchai/work/i-cube/I-CUBE-HUAWEI/Drivers/BSP/Components/lps22hh\lps22hh_reg.c ****   return ret;
 5041              		.loc 1 53 9 view .LVU1447
 5042              	.LBE547:
 5043              	.LBE546:
1315:D:/fchai/work/i-cube/I-CUBE-HUAWEI/Drivers/BSP/Components/lps22hh\lps22hh_reg.c ****   int32_t ret;
 5044              		.loc 1 1315 1 view .LVU1448
 5045 0006 0A46     		mov	r2, r1
 5046              	.LVL404:
 5047              	.LBB550:
 5048              	.LBI546:
  49:D:/fchai/work/i-cube/I-CUBE-HUAWEI/Drivers/BSP/Components/lps22hh\lps22hh_reg.c ****                          uint16_t len)
 5049              		.loc 1 49 9 is_stmt 1 view .LVU1449
 5050              	.LBB548:
  52:D:/fchai/work/i-cube/I-CUBE-HUAWEI/Drivers/BSP/Components/lps22hh\lps22hh_reg.c ****   ret = ctx->read_reg(ctx->handle, reg, data, len);
 5051              		.loc 1 52 3 view .LVU1450
  53:D:/fchai/work/i-cube/I-CUBE-HUAWEI/Drivers/BSP/Components/lps22hh\lps22hh_reg.c ****   return ret;
 5052              		.loc 1 53 3 view .LVU1451
  53:D:/fchai/work/i-cube/I-CUBE-HUAWEI/Drivers/BSP/Components/lps22hh\lps22hh_reg.c ****   return ret;
 5053              		.loc 1 53 9 is_stmt 0 view .LVU1452
 5054 0008 A446     		mov	ip, r4
 5055 000a 0123     		movs	r3, #1
ARM GAS  T:\msys\tmp\ccdfMMY7.s 			page 126


 5056              	.LBE548:
 5057              	.LBE550:
1318:D:/fchai/work/i-cube/I-CUBE-HUAWEI/Drivers/BSP/Components/lps22hh\lps22hh_reg.c ****   return ret;
1319:D:/fchai/work/i-cube/I-CUBE-HUAWEI/Drivers/BSP/Components/lps22hh\lps22hh_reg.c **** }
 5058              		.loc 1 1319 1 view .LVU1453
 5059 000c 5DF8044B 		ldr	r4, [sp], #4
 5060              	.LCFI149:
 5061              		.cfi_restore 4
 5062              		.cfi_def_cfa_offset 0
 5063              	.LBB551:
 5064              	.LBB549:
  53:D:/fchai/work/i-cube/I-CUBE-HUAWEI/Drivers/BSP/Components/lps22hh\lps22hh_reg.c ****   return ret;
 5065              		.loc 1 53 9 view .LVU1454
 5066 0010 1221     		movs	r1, #18
 5067              	.LVL405:
  53:D:/fchai/work/i-cube/I-CUBE-HUAWEI/Drivers/BSP/Components/lps22hh\lps22hh_reg.c ****   return ret;
 5068              		.loc 1 53 9 view .LVU1455
 5069 0012 6047     		bx	ip
 5070              	.LVL406:
  53:D:/fchai/work/i-cube/I-CUBE-HUAWEI/Drivers/BSP/Components/lps22hh\lps22hh_reg.c ****   return ret;
 5071              		.loc 1 53 9 view .LVU1456
 5072              	.LBE549:
 5073              	.LBE551:
 5074              		.cfi_endproc
 5075              	.LFE54:
 5077              		.section	.text.lps22hh_int_on_threshold_set,"ax",%progbits
 5078              		.align	1
 5079              		.p2align 2,,3
 5080              		.global	lps22hh_int_on_threshold_set
 5081              		.syntax unified
 5082              		.thumb
 5083              		.thumb_func
 5084              		.fpu fpv4-sp-d16
 5086              	lps22hh_int_on_threshold_set:
 5087              	.LVL407:
 5088              	.LFB55:
1320:D:/fchai/work/i-cube/I-CUBE-HUAWEI/Drivers/BSP/Components/lps22hh\lps22hh_reg.c **** 
1321:D:/fchai/work/i-cube/I-CUBE-HUAWEI/Drivers/BSP/Components/lps22hh\lps22hh_reg.c **** /**
1322:D:/fchai/work/i-cube/I-CUBE-HUAWEI/Drivers/BSP/Components/lps22hh\lps22hh_reg.c ****   * @}
1323:D:/fchai/work/i-cube/I-CUBE-HUAWEI/Drivers/BSP/Components/lps22hh\lps22hh_reg.c ****   *
1324:D:/fchai/work/i-cube/I-CUBE-HUAWEI/Drivers/BSP/Components/lps22hh\lps22hh_reg.c ****   */
1325:D:/fchai/work/i-cube/I-CUBE-HUAWEI/Drivers/BSP/Components/lps22hh\lps22hh_reg.c **** 
1326:D:/fchai/work/i-cube/I-CUBE-HUAWEI/Drivers/BSP/Components/lps22hh\lps22hh_reg.c **** /**
1327:D:/fchai/work/i-cube/I-CUBE-HUAWEI/Drivers/BSP/Components/lps22hh\lps22hh_reg.c ****   * @defgroup   LPS22HH_Interrupt_on_Threshold
1328:D:/fchai/work/i-cube/I-CUBE-HUAWEI/Drivers/BSP/Components/lps22hh\lps22hh_reg.c ****   * @brief      This section groups all the functions that manage the
1329:D:/fchai/work/i-cube/I-CUBE-HUAWEI/Drivers/BSP/Components/lps22hh\lps22hh_reg.c ****   *             interrupt on threshold event generation.
1330:D:/fchai/work/i-cube/I-CUBE-HUAWEI/Drivers/BSP/Components/lps22hh\lps22hh_reg.c ****   * @{
1331:D:/fchai/work/i-cube/I-CUBE-HUAWEI/Drivers/BSP/Components/lps22hh\lps22hh_reg.c ****   *
1332:D:/fchai/work/i-cube/I-CUBE-HUAWEI/Drivers/BSP/Components/lps22hh\lps22hh_reg.c ****   */
1333:D:/fchai/work/i-cube/I-CUBE-HUAWEI/Drivers/BSP/Components/lps22hh\lps22hh_reg.c **** 
1334:D:/fchai/work/i-cube/I-CUBE-HUAWEI/Drivers/BSP/Components/lps22hh\lps22hh_reg.c **** /**
1335:D:/fchai/work/i-cube/I-CUBE-HUAWEI/Drivers/BSP/Components/lps22hh\lps22hh_reg.c ****   * @brief   Enable interrupt generation on pressure low/high event.[set]
1336:D:/fchai/work/i-cube/I-CUBE-HUAWEI/Drivers/BSP/Components/lps22hh\lps22hh_reg.c ****   *
1337:D:/fchai/work/i-cube/I-CUBE-HUAWEI/Drivers/BSP/Components/lps22hh\lps22hh_reg.c ****   * @param  ctx      read / write interface definitions
1338:D:/fchai/work/i-cube/I-CUBE-HUAWEI/Drivers/BSP/Components/lps22hh\lps22hh_reg.c ****   * @param  val      change the values of pe in reg INTERRUPT_CFG
1339:D:/fchai/work/i-cube/I-CUBE-HUAWEI/Drivers/BSP/Components/lps22hh\lps22hh_reg.c ****   * @retval          interface status (MANDATORY: return 0 -> no Error)
1340:D:/fchai/work/i-cube/I-CUBE-HUAWEI/Drivers/BSP/Components/lps22hh\lps22hh_reg.c ****   *
ARM GAS  T:\msys\tmp\ccdfMMY7.s 			page 127


1341:D:/fchai/work/i-cube/I-CUBE-HUAWEI/Drivers/BSP/Components/lps22hh\lps22hh_reg.c ****   */
1342:D:/fchai/work/i-cube/I-CUBE-HUAWEI/Drivers/BSP/Components/lps22hh\lps22hh_reg.c **** int32_t lps22hh_int_on_threshold_set(stmdev_ctx_t *ctx, lps22hh_pe_t val)
1343:D:/fchai/work/i-cube/I-CUBE-HUAWEI/Drivers/BSP/Components/lps22hh\lps22hh_reg.c **** {
 5089              		.loc 1 1343 1 is_stmt 1 view -0
 5090              		.cfi_startproc
 5091              		@ args = 0, pretend = 0, frame = 8
 5092              		@ frame_needed = 0, uses_anonymous_args = 0
1344:D:/fchai/work/i-cube/I-CUBE-HUAWEI/Drivers/BSP/Components/lps22hh\lps22hh_reg.c ****   lps22hh_interrupt_cfg_t reg;
 5093              		.loc 1 1344 3 view .LVU1458
1345:D:/fchai/work/i-cube/I-CUBE-HUAWEI/Drivers/BSP/Components/lps22hh\lps22hh_reg.c ****   int32_t ret;
 5094              		.loc 1 1345 3 view .LVU1459
1346:D:/fchai/work/i-cube/I-CUBE-HUAWEI/Drivers/BSP/Components/lps22hh\lps22hh_reg.c **** 
1347:D:/fchai/work/i-cube/I-CUBE-HUAWEI/Drivers/BSP/Components/lps22hh\lps22hh_reg.c ****   ret = lps22hh_read_reg(ctx, LPS22HH_INTERRUPT_CFG, (uint8_t*) &reg, 1);
 5095              		.loc 1 1347 3 view .LVU1460
1343:D:/fchai/work/i-cube/I-CUBE-HUAWEI/Drivers/BSP/Components/lps22hh\lps22hh_reg.c ****   lps22hh_interrupt_cfg_t reg;
 5096              		.loc 1 1343 1 is_stmt 0 view .LVU1461
 5097 0000 70B5     		push	{r4, r5, r6, lr}
 5098              	.LCFI150:
 5099              		.cfi_def_cfa_offset 16
 5100              		.cfi_offset 4, -16
 5101              		.cfi_offset 5, -12
 5102              		.cfi_offset 6, -8
 5103              		.cfi_offset 14, -4
 5104 0002 82B0     		sub	sp, sp, #8
 5105              	.LCFI151:
 5106              		.cfi_def_cfa_offset 24
1343:D:/fchai/work/i-cube/I-CUBE-HUAWEI/Drivers/BSP/Components/lps22hh\lps22hh_reg.c ****   lps22hh_interrupt_cfg_t reg;
 5107              		.loc 1 1343 1 view .LVU1462
 5108 0004 0546     		mov	r5, r0
 5109              	.LVL408:
 5110              	.LBB552:
 5111              	.LBI552:
  49:D:/fchai/work/i-cube/I-CUBE-HUAWEI/Drivers/BSP/Components/lps22hh\lps22hh_reg.c ****                          uint16_t len)
 5112              		.loc 1 49 9 is_stmt 1 view .LVU1463
 5113              	.LBB553:
  52:D:/fchai/work/i-cube/I-CUBE-HUAWEI/Drivers/BSP/Components/lps22hh\lps22hh_reg.c ****   ret = ctx->read_reg(ctx->handle, reg, data, len);
 5114              		.loc 1 52 3 view .LVU1464
  53:D:/fchai/work/i-cube/I-CUBE-HUAWEI/Drivers/BSP/Components/lps22hh\lps22hh_reg.c ****   return ret;
 5115              		.loc 1 53 3 view .LVU1465
 5116              	.LBE553:
 5117              	.LBE552:
1343:D:/fchai/work/i-cube/I-CUBE-HUAWEI/Drivers/BSP/Components/lps22hh\lps22hh_reg.c ****   lps22hh_interrupt_cfg_t reg;
 5118              		.loc 1 1343 1 is_stmt 0 view .LVU1466
 5119 0006 0C46     		mov	r4, r1
 5120              	.LBB555:
 5121              	.LBB554:
  53:D:/fchai/work/i-cube/I-CUBE-HUAWEI/Drivers/BSP/Components/lps22hh\lps22hh_reg.c ****   return ret;
 5122              		.loc 1 53 9 view .LVU1467
 5123 0008 D0E90160 		ldrd	r6, r0, [r0, #4]
 5124              	.LVL409:
  53:D:/fchai/work/i-cube/I-CUBE-HUAWEI/Drivers/BSP/Components/lps22hh\lps22hh_reg.c ****   return ret;
 5125              		.loc 1 53 9 view .LVU1468
 5126 000c 01AA     		add	r2, sp, #4
 5127              	.LVL410:
  53:D:/fchai/work/i-cube/I-CUBE-HUAWEI/Drivers/BSP/Components/lps22hh\lps22hh_reg.c ****   return ret;
 5128              		.loc 1 53 9 view .LVU1469
 5129 000e 0123     		movs	r3, #1
ARM GAS  T:\msys\tmp\ccdfMMY7.s 			page 128


 5130 0010 0B21     		movs	r1, #11
 5131              	.LVL411:
  53:D:/fchai/work/i-cube/I-CUBE-HUAWEI/Drivers/BSP/Components/lps22hh\lps22hh_reg.c ****   return ret;
 5132              		.loc 1 53 9 view .LVU1470
 5133 0012 B047     		blx	r6
 5134              	.LVL412:
  54:D:/fchai/work/i-cube/I-CUBE-HUAWEI/Drivers/BSP/Components/lps22hh\lps22hh_reg.c **** }
 5135              		.loc 1 54 3 is_stmt 1 view .LVU1471
  54:D:/fchai/work/i-cube/I-CUBE-HUAWEI/Drivers/BSP/Components/lps22hh\lps22hh_reg.c **** }
 5136              		.loc 1 54 3 is_stmt 0 view .LVU1472
 5137              	.LBE554:
 5138              	.LBE555:
1348:D:/fchai/work/i-cube/I-CUBE-HUAWEI/Drivers/BSP/Components/lps22hh\lps22hh_reg.c ****   if (ret == 0) {
 5139              		.loc 1 1348 3 is_stmt 1 view .LVU1473
 5140              		.loc 1 1348 6 is_stmt 0 view .LVU1474
 5141 0014 98B9     		cbnz	r0, .L168
1349:D:/fchai/work/i-cube/I-CUBE-HUAWEI/Drivers/BSP/Components/lps22hh\lps22hh_reg.c ****     reg.pe = (uint8_t)val;
 5142              		.loc 1 1349 5 is_stmt 1 view .LVU1475
1350:D:/fchai/work/i-cube/I-CUBE-HUAWEI/Drivers/BSP/Components/lps22hh\lps22hh_reg.c **** 
1351:D:/fchai/work/i-cube/I-CUBE-HUAWEI/Drivers/BSP/Components/lps22hh\lps22hh_reg.c ****     if (val == LPS22HH_NO_THRESHOLD){
 5143              		.loc 1 1351 5 view .LVU1476
 5144              		.loc 1 1351 8 is_stmt 0 view .LVU1477
 5145 0016 221E     		subs	r2, r4, #0
1349:D:/fchai/work/i-cube/I-CUBE-HUAWEI/Drivers/BSP/Components/lps22hh\lps22hh_reg.c ****     reg.pe = (uint8_t)val;
 5146              		.loc 1 1349 12 view .LVU1478
 5147 0018 9DF80430 		ldrb	r3, [sp, #4]	@ zero_extendqisi2
 5148              	.LBB556:
 5149              	.LBB557:
  71:D:/fchai/work/i-cube/I-CUBE-HUAWEI/Drivers/BSP/Components/lps22hh\lps22hh_reg.c ****   return ret;
 5150              		.loc 1 71 9 view .LVU1479
 5151 001c 2E68     		ldr	r6, [r5]
 5152 001e A868     		ldr	r0, [r5, #8]
 5153              	.LVL413:
  71:D:/fchai/work/i-cube/I-CUBE-HUAWEI/Drivers/BSP/Components/lps22hh\lps22hh_reg.c ****   return ret;
 5154              		.loc 1 71 9 view .LVU1480
 5155              	.LBE557:
 5156              	.LBE556:
 5157              		.loc 1 1351 8 view .LVU1481
 5158 0020 18BF     		it	ne
 5159 0022 0122     		movne	r2, #1
1349:D:/fchai/work/i-cube/I-CUBE-HUAWEI/Drivers/BSP/Components/lps22hh\lps22hh_reg.c ****     reg.pe = (uint8_t)val;
 5160              		.loc 1 1349 12 view .LVU1482
 5161 0024 04F00304 		and	r4, r4, #3
 5162 0028 23F00B03 		bic	r3, r3, #11
 5163 002c 44EAC204 		orr	r4, r4, r2, lsl #3
 5164 0030 1C43     		orrs	r4, r4, r3
 5165              	.LBB560:
 5166              	.LBB558:
  71:D:/fchai/work/i-cube/I-CUBE-HUAWEI/Drivers/BSP/Components/lps22hh\lps22hh_reg.c ****   return ret;
 5167              		.loc 1 71 9 view .LVU1483
 5168 0032 01AA     		add	r2, sp, #4
 5169              	.LBE558:
 5170              	.LBE560:
1349:D:/fchai/work/i-cube/I-CUBE-HUAWEI/Drivers/BSP/Components/lps22hh\lps22hh_reg.c ****     reg.pe = (uint8_t)val;
 5171              		.loc 1 1349 12 view .LVU1484
 5172 0034 8DF80440 		strb	r4, [sp, #4]
1352:D:/fchai/work/i-cube/I-CUBE-HUAWEI/Drivers/BSP/Components/lps22hh\lps22hh_reg.c ****       reg.diff_en = PROPERTY_DISABLE;
ARM GAS  T:\msys\tmp\ccdfMMY7.s 			page 129


1353:D:/fchai/work/i-cube/I-CUBE-HUAWEI/Drivers/BSP/Components/lps22hh\lps22hh_reg.c ****     }
1354:D:/fchai/work/i-cube/I-CUBE-HUAWEI/Drivers/BSP/Components/lps22hh\lps22hh_reg.c ****     else{
1355:D:/fchai/work/i-cube/I-CUBE-HUAWEI/Drivers/BSP/Components/lps22hh\lps22hh_reg.c ****       reg.diff_en = PROPERTY_ENABLE;
1356:D:/fchai/work/i-cube/I-CUBE-HUAWEI/Drivers/BSP/Components/lps22hh\lps22hh_reg.c ****     }
1357:D:/fchai/work/i-cube/I-CUBE-HUAWEI/Drivers/BSP/Components/lps22hh\lps22hh_reg.c ****     ret = lps22hh_write_reg(ctx, LPS22HH_INTERRUPT_CFG, (uint8_t*) &reg, 1);
 5173              		.loc 1 1357 5 is_stmt 1 view .LVU1485
 5174              	.LVL414:
 5175              	.LBB561:
 5176              	.LBI556:
  67:D:/fchai/work/i-cube/I-CUBE-HUAWEI/Drivers/BSP/Components/lps22hh\lps22hh_reg.c ****                            uint16_t len)
 5177              		.loc 1 67 9 view .LVU1486
 5178              	.LBB559:
  70:D:/fchai/work/i-cube/I-CUBE-HUAWEI/Drivers/BSP/Components/lps22hh\lps22hh_reg.c ****   ret = ctx->write_reg(ctx->handle, reg, data, len);
 5179              		.loc 1 70 3 view .LVU1487
  71:D:/fchai/work/i-cube/I-CUBE-HUAWEI/Drivers/BSP/Components/lps22hh\lps22hh_reg.c ****   return ret;
 5180              		.loc 1 71 3 view .LVU1488
  71:D:/fchai/work/i-cube/I-CUBE-HUAWEI/Drivers/BSP/Components/lps22hh\lps22hh_reg.c ****   return ret;
 5181              		.loc 1 71 9 is_stmt 0 view .LVU1489
 5182 0038 0123     		movs	r3, #1
 5183 003a 0B21     		movs	r1, #11
 5184 003c B047     		blx	r6
 5185              	.LVL415:
  72:D:/fchai/work/i-cube/I-CUBE-HUAWEI/Drivers/BSP/Components/lps22hh\lps22hh_reg.c **** }
 5186              		.loc 1 72 3 is_stmt 1 view .LVU1490
  72:D:/fchai/work/i-cube/I-CUBE-HUAWEI/Drivers/BSP/Components/lps22hh\lps22hh_reg.c **** }
 5187              		.loc 1 72 3 is_stmt 0 view .LVU1491
 5188              	.LBE559:
 5189              	.LBE561:
1358:D:/fchai/work/i-cube/I-CUBE-HUAWEI/Drivers/BSP/Components/lps22hh\lps22hh_reg.c ****   }
1359:D:/fchai/work/i-cube/I-CUBE-HUAWEI/Drivers/BSP/Components/lps22hh\lps22hh_reg.c ****   return ret;
 5190              		.loc 1 1359 3 is_stmt 1 view .LVU1492
 5191              	.L168:
1360:D:/fchai/work/i-cube/I-CUBE-HUAWEI/Drivers/BSP/Components/lps22hh\lps22hh_reg.c **** }
 5192              		.loc 1 1360 1 is_stmt 0 view .LVU1493
 5193 003e 02B0     		add	sp, sp, #8
 5194              	.LCFI152:
 5195              		.cfi_def_cfa_offset 16
 5196              		@ sp needed
 5197 0040 70BD     		pop	{r4, r5, r6, pc}
 5198              		.loc 1 1360 1 view .LVU1494
 5199              		.cfi_endproc
 5200              	.LFE55:
 5202 0042 00BF     		.section	.text.lps22hh_int_on_threshold_get,"ax",%progbits
 5203              		.align	1
 5204              		.p2align 2,,3
 5205              		.global	lps22hh_int_on_threshold_get
 5206              		.syntax unified
 5207              		.thumb
 5208              		.thumb_func
 5209              		.fpu fpv4-sp-d16
 5211              	lps22hh_int_on_threshold_get:
 5212              	.LVL416:
 5213              	.LFB56:
1361:D:/fchai/work/i-cube/I-CUBE-HUAWEI/Drivers/BSP/Components/lps22hh\lps22hh_reg.c **** 
1362:D:/fchai/work/i-cube/I-CUBE-HUAWEI/Drivers/BSP/Components/lps22hh\lps22hh_reg.c **** /**
1363:D:/fchai/work/i-cube/I-CUBE-HUAWEI/Drivers/BSP/Components/lps22hh\lps22hh_reg.c ****   * @brief  Enable interrupt generation on pressure low/high event.[get]
1364:D:/fchai/work/i-cube/I-CUBE-HUAWEI/Drivers/BSP/Components/lps22hh\lps22hh_reg.c ****   *
ARM GAS  T:\msys\tmp\ccdfMMY7.s 			page 130


1365:D:/fchai/work/i-cube/I-CUBE-HUAWEI/Drivers/BSP/Components/lps22hh\lps22hh_reg.c ****   * @param  ctx      read / write interface definitions
1366:D:/fchai/work/i-cube/I-CUBE-HUAWEI/Drivers/BSP/Components/lps22hh\lps22hh_reg.c ****   * @param  val      Get the values of pe in reg INTERRUPT_CFG
1367:D:/fchai/work/i-cube/I-CUBE-HUAWEI/Drivers/BSP/Components/lps22hh\lps22hh_reg.c ****   * @retval          interface status (MANDATORY: return 0 -> no Error)
1368:D:/fchai/work/i-cube/I-CUBE-HUAWEI/Drivers/BSP/Components/lps22hh\lps22hh_reg.c ****   *
1369:D:/fchai/work/i-cube/I-CUBE-HUAWEI/Drivers/BSP/Components/lps22hh\lps22hh_reg.c ****   */
1370:D:/fchai/work/i-cube/I-CUBE-HUAWEI/Drivers/BSP/Components/lps22hh\lps22hh_reg.c **** int32_t lps22hh_int_on_threshold_get(stmdev_ctx_t *ctx, lps22hh_pe_t *val)
1371:D:/fchai/work/i-cube/I-CUBE-HUAWEI/Drivers/BSP/Components/lps22hh\lps22hh_reg.c **** {
 5214              		.loc 1 1371 1 is_stmt 1 view -0
 5215              		.cfi_startproc
 5216              		@ args = 0, pretend = 0, frame = 8
 5217              		@ frame_needed = 0, uses_anonymous_args = 0
1372:D:/fchai/work/i-cube/I-CUBE-HUAWEI/Drivers/BSP/Components/lps22hh\lps22hh_reg.c ****   lps22hh_interrupt_cfg_t reg;
 5218              		.loc 1 1372 3 view .LVU1496
1373:D:/fchai/work/i-cube/I-CUBE-HUAWEI/Drivers/BSP/Components/lps22hh\lps22hh_reg.c ****   int32_t ret;
 5219              		.loc 1 1373 3 view .LVU1497
1374:D:/fchai/work/i-cube/I-CUBE-HUAWEI/Drivers/BSP/Components/lps22hh\lps22hh_reg.c **** 
1375:D:/fchai/work/i-cube/I-CUBE-HUAWEI/Drivers/BSP/Components/lps22hh\lps22hh_reg.c ****   ret = lps22hh_read_reg(ctx, LPS22HH_INTERRUPT_CFG, (uint8_t*) &reg, 1);
 5220              		.loc 1 1375 3 view .LVU1498
1371:D:/fchai/work/i-cube/I-CUBE-HUAWEI/Drivers/BSP/Components/lps22hh\lps22hh_reg.c ****   lps22hh_interrupt_cfg_t reg;
 5221              		.loc 1 1371 1 is_stmt 0 view .LVU1499
 5222 0000 30B5     		push	{r4, r5, lr}
 5223              	.LCFI153:
 5224              		.cfi_def_cfa_offset 12
 5225              		.cfi_offset 4, -12
 5226              		.cfi_offset 5, -8
 5227              		.cfi_offset 14, -4
 5228 0002 83B0     		sub	sp, sp, #12
 5229              	.LCFI154:
 5230              		.cfi_def_cfa_offset 24
 5231              	.LVL417:
 5232              	.LBB562:
 5233              	.LBI562:
  49:D:/fchai/work/i-cube/I-CUBE-HUAWEI/Drivers/BSP/Components/lps22hh\lps22hh_reg.c ****                          uint16_t len)
 5234              		.loc 1 49 9 is_stmt 1 view .LVU1500
 5235              	.LBB563:
  52:D:/fchai/work/i-cube/I-CUBE-HUAWEI/Drivers/BSP/Components/lps22hh\lps22hh_reg.c ****   ret = ctx->read_reg(ctx->handle, reg, data, len);
 5236              		.loc 1 52 3 view .LVU1501
  53:D:/fchai/work/i-cube/I-CUBE-HUAWEI/Drivers/BSP/Components/lps22hh\lps22hh_reg.c ****   return ret;
 5237              		.loc 1 53 3 view .LVU1502
  53:D:/fchai/work/i-cube/I-CUBE-HUAWEI/Drivers/BSP/Components/lps22hh\lps22hh_reg.c ****   return ret;
 5238              		.loc 1 53 9 is_stmt 0 view .LVU1503
 5239 0004 0123     		movs	r3, #1
 5240 0006 01AA     		add	r2, sp, #4
 5241              	.LVL418:
  53:D:/fchai/work/i-cube/I-CUBE-HUAWEI/Drivers/BSP/Components/lps22hh\lps22hh_reg.c ****   return ret;
 5242              		.loc 1 53 9 view .LVU1504
 5243 0008 D0E90150 		ldrd	r5, r0, [r0, #4]
 5244              	.LVL419:
  53:D:/fchai/work/i-cube/I-CUBE-HUAWEI/Drivers/BSP/Components/lps22hh\lps22hh_reg.c ****   return ret;
 5245              		.loc 1 53 9 view .LVU1505
 5246              	.LBE563:
 5247              	.LBE562:
1371:D:/fchai/work/i-cube/I-CUBE-HUAWEI/Drivers/BSP/Components/lps22hh\lps22hh_reg.c ****   lps22hh_interrupt_cfg_t reg;
 5248              		.loc 1 1371 1 view .LVU1506
 5249 000c 0C46     		mov	r4, r1
 5250              	.LBB566:
 5251              	.LBB564:
ARM GAS  T:\msys\tmp\ccdfMMY7.s 			page 131


  53:D:/fchai/work/i-cube/I-CUBE-HUAWEI/Drivers/BSP/Components/lps22hh\lps22hh_reg.c ****   return ret;
 5252              		.loc 1 53 9 view .LVU1507
 5253 000e 0B21     		movs	r1, #11
 5254              	.LVL420:
  53:D:/fchai/work/i-cube/I-CUBE-HUAWEI/Drivers/BSP/Components/lps22hh\lps22hh_reg.c ****   return ret;
 5255              		.loc 1 53 9 view .LVU1508
 5256 0010 A847     		blx	r5
 5257              	.LVL421:
  53:D:/fchai/work/i-cube/I-CUBE-HUAWEI/Drivers/BSP/Components/lps22hh\lps22hh_reg.c ****   return ret;
 5258              		.loc 1 53 9 view .LVU1509
 5259              	.LBE564:
 5260              	.LBE566:
1376:D:/fchai/work/i-cube/I-CUBE-HUAWEI/Drivers/BSP/Components/lps22hh\lps22hh_reg.c **** 
1377:D:/fchai/work/i-cube/I-CUBE-HUAWEI/Drivers/BSP/Components/lps22hh\lps22hh_reg.c ****   switch (reg.pe) {
 5261              		.loc 1 1377 14 view .LVU1510
 5262 0012 9DF80430 		ldrb	r3, [sp, #4]	@ zero_extendqisi2
 5263 0016 03F00302 		and	r2, r3, #3
 5264              	.LVL422:
 5265              	.LBB567:
 5266              	.LBB565:
  54:D:/fchai/work/i-cube/I-CUBE-HUAWEI/Drivers/BSP/Components/lps22hh\lps22hh_reg.c **** }
 5267              		.loc 1 54 3 is_stmt 1 view .LVU1511
  54:D:/fchai/work/i-cube/I-CUBE-HUAWEI/Drivers/BSP/Components/lps22hh\lps22hh_reg.c **** }
 5268              		.loc 1 54 3 is_stmt 0 view .LVU1512
 5269              	.LBE565:
 5270              	.LBE567:
 5271              		.loc 1 1377 3 is_stmt 1 view .LVU1513
 5272 001a 022A     		cmp	r2, #2
 5273              		.loc 1 1377 14 is_stmt 0 view .LVU1514
 5274 001c C3F30103 		ubfx	r3, r3, #0, #2
 5275              		.loc 1 1377 3 view .LVU1515
 5276 0020 07D0     		beq	.L173
 5277 0022 032A     		cmp	r2, #3
 5278 0024 05D0     		beq	.L173
 5279 0026 012A     		cmp	r2, #1
 5280 0028 03D0     		beq	.L173
1378:D:/fchai/work/i-cube/I-CUBE-HUAWEI/Drivers/BSP/Components/lps22hh\lps22hh_reg.c ****     case LPS22HH_NO_THRESHOLD:
1379:D:/fchai/work/i-cube/I-CUBE-HUAWEI/Drivers/BSP/Components/lps22hh\lps22hh_reg.c ****       *val = LPS22HH_NO_THRESHOLD;
 5281              		.loc 1 1379 7 is_stmt 1 view .LVU1516
 5282              		.loc 1 1379 12 is_stmt 0 view .LVU1517
 5283 002a 0023     		movs	r3, #0
 5284 002c 2370     		strb	r3, [r4]
1380:D:/fchai/work/i-cube/I-CUBE-HUAWEI/Drivers/BSP/Components/lps22hh\lps22hh_reg.c ****       break;
 5285              		.loc 1 1380 7 is_stmt 1 view .LVU1518
1381:D:/fchai/work/i-cube/I-CUBE-HUAWEI/Drivers/BSP/Components/lps22hh\lps22hh_reg.c ****     case LPS22HH_POSITIVE:
1382:D:/fchai/work/i-cube/I-CUBE-HUAWEI/Drivers/BSP/Components/lps22hh\lps22hh_reg.c ****       *val = LPS22HH_POSITIVE;
1383:D:/fchai/work/i-cube/I-CUBE-HUAWEI/Drivers/BSP/Components/lps22hh\lps22hh_reg.c ****       break;
1384:D:/fchai/work/i-cube/I-CUBE-HUAWEI/Drivers/BSP/Components/lps22hh\lps22hh_reg.c ****     case LPS22HH_NEGATIVE:
1385:D:/fchai/work/i-cube/I-CUBE-HUAWEI/Drivers/BSP/Components/lps22hh\lps22hh_reg.c ****       *val = LPS22HH_NEGATIVE;
1386:D:/fchai/work/i-cube/I-CUBE-HUAWEI/Drivers/BSP/Components/lps22hh\lps22hh_reg.c ****       break;
1387:D:/fchai/work/i-cube/I-CUBE-HUAWEI/Drivers/BSP/Components/lps22hh\lps22hh_reg.c ****     case LPS22HH_BOTH:
1388:D:/fchai/work/i-cube/I-CUBE-HUAWEI/Drivers/BSP/Components/lps22hh\lps22hh_reg.c ****       *val = LPS22HH_BOTH;
1389:D:/fchai/work/i-cube/I-CUBE-HUAWEI/Drivers/BSP/Components/lps22hh\lps22hh_reg.c ****       break;
1390:D:/fchai/work/i-cube/I-CUBE-HUAWEI/Drivers/BSP/Components/lps22hh\lps22hh_reg.c ****     default:
1391:D:/fchai/work/i-cube/I-CUBE-HUAWEI/Drivers/BSP/Components/lps22hh\lps22hh_reg.c ****       *val = LPS22HH_NO_THRESHOLD;
1392:D:/fchai/work/i-cube/I-CUBE-HUAWEI/Drivers/BSP/Components/lps22hh\lps22hh_reg.c ****       break;
1393:D:/fchai/work/i-cube/I-CUBE-HUAWEI/Drivers/BSP/Components/lps22hh\lps22hh_reg.c ****   }
ARM GAS  T:\msys\tmp\ccdfMMY7.s 			page 132


1394:D:/fchai/work/i-cube/I-CUBE-HUAWEI/Drivers/BSP/Components/lps22hh\lps22hh_reg.c **** 
1395:D:/fchai/work/i-cube/I-CUBE-HUAWEI/Drivers/BSP/Components/lps22hh\lps22hh_reg.c ****   return ret;
1396:D:/fchai/work/i-cube/I-CUBE-HUAWEI/Drivers/BSP/Components/lps22hh\lps22hh_reg.c **** }
 5286              		.loc 1 1396 1 is_stmt 0 view .LVU1519
 5287 002e 03B0     		add	sp, sp, #12
 5288              	.LCFI155:
 5289              		.cfi_remember_state
 5290              		.cfi_def_cfa_offset 12
 5291              		@ sp needed
 5292 0030 30BD     		pop	{r4, r5, pc}
 5293              	.LVL423:
 5294              	.L173:
 5295              	.LCFI156:
 5296              		.cfi_restore_state
1388:D:/fchai/work/i-cube/I-CUBE-HUAWEI/Drivers/BSP/Components/lps22hh\lps22hh_reg.c ****       break;
 5297              		.loc 1 1388 7 is_stmt 1 view .LVU1520
1388:D:/fchai/work/i-cube/I-CUBE-HUAWEI/Drivers/BSP/Components/lps22hh\lps22hh_reg.c ****       break;
 5298              		.loc 1 1388 12 is_stmt 0 view .LVU1521
 5299 0032 2370     		strb	r3, [r4]
1389:D:/fchai/work/i-cube/I-CUBE-HUAWEI/Drivers/BSP/Components/lps22hh\lps22hh_reg.c ****     default:
 5300              		.loc 1 1389 7 is_stmt 1 view .LVU1522
1395:D:/fchai/work/i-cube/I-CUBE-HUAWEI/Drivers/BSP/Components/lps22hh\lps22hh_reg.c **** }
 5301              		.loc 1 1395 3 view .LVU1523
 5302              		.loc 1 1396 1 is_stmt 0 view .LVU1524
 5303 0034 03B0     		add	sp, sp, #12
 5304              	.LCFI157:
 5305              		.cfi_def_cfa_offset 12
 5306              		@ sp needed
 5307 0036 30BD     		pop	{r4, r5, pc}
 5308              		.loc 1 1396 1 view .LVU1525
 5309              		.cfi_endproc
 5310              	.LFE56:
 5312              		.section	.text.lps22hh_int_treshold_set,"ax",%progbits
 5313              		.align	1
 5314              		.p2align 2,,3
 5315              		.global	lps22hh_int_treshold_set
 5316              		.syntax unified
 5317              		.thumb
 5318              		.thumb_func
 5319              		.fpu fpv4-sp-d16
 5321              	lps22hh_int_treshold_set:
 5322              	.LVL424:
 5323              	.LFB57:
1397:D:/fchai/work/i-cube/I-CUBE-HUAWEI/Drivers/BSP/Components/lps22hh\lps22hh_reg.c **** 
1398:D:/fchai/work/i-cube/I-CUBE-HUAWEI/Drivers/BSP/Components/lps22hh\lps22hh_reg.c **** /**
1399:D:/fchai/work/i-cube/I-CUBE-HUAWEI/Drivers/BSP/Components/lps22hh\lps22hh_reg.c ****   * @brief  User-defined threshold value for pressure interrupt event.[set]
1400:D:/fchai/work/i-cube/I-CUBE-HUAWEI/Drivers/BSP/Components/lps22hh\lps22hh_reg.c ****   *
1401:D:/fchai/work/i-cube/I-CUBE-HUAWEI/Drivers/BSP/Components/lps22hh\lps22hh_reg.c ****   * @param  ctx      read / write interface definitions
1402:D:/fchai/work/i-cube/I-CUBE-HUAWEI/Drivers/BSP/Components/lps22hh\lps22hh_reg.c ****   * @param  buff     buffer that contains data to write
1403:D:/fchai/work/i-cube/I-CUBE-HUAWEI/Drivers/BSP/Components/lps22hh\lps22hh_reg.c ****   * @retval          interface status (MANDATORY: return 0 -> no Error)
1404:D:/fchai/work/i-cube/I-CUBE-HUAWEI/Drivers/BSP/Components/lps22hh\lps22hh_reg.c ****   *
1405:D:/fchai/work/i-cube/I-CUBE-HUAWEI/Drivers/BSP/Components/lps22hh\lps22hh_reg.c ****   */
1406:D:/fchai/work/i-cube/I-CUBE-HUAWEI/Drivers/BSP/Components/lps22hh\lps22hh_reg.c **** int32_t lps22hh_int_treshold_set(stmdev_ctx_t *ctx, uint16_t buff)
1407:D:/fchai/work/i-cube/I-CUBE-HUAWEI/Drivers/BSP/Components/lps22hh\lps22hh_reg.c **** {
 5324              		.loc 1 1407 1 is_stmt 1 view -0
 5325              		.cfi_startproc
 5326              		@ args = 0, pretend = 0, frame = 8
ARM GAS  T:\msys\tmp\ccdfMMY7.s 			page 133


 5327              		@ frame_needed = 0, uses_anonymous_args = 0
1408:D:/fchai/work/i-cube/I-CUBE-HUAWEI/Drivers/BSP/Components/lps22hh\lps22hh_reg.c ****   int32_t ret;
 5328              		.loc 1 1408 3 view .LVU1527
1409:D:/fchai/work/i-cube/I-CUBE-HUAWEI/Drivers/BSP/Components/lps22hh\lps22hh_reg.c ****   lps22hh_ths_p_l_t ths_p_l;
 5329              		.loc 1 1409 3 view .LVU1528
1410:D:/fchai/work/i-cube/I-CUBE-HUAWEI/Drivers/BSP/Components/lps22hh\lps22hh_reg.c ****   lps22hh_ths_p_h_t ths_p_h;
 5330              		.loc 1 1410 3 view .LVU1529
1411:D:/fchai/work/i-cube/I-CUBE-HUAWEI/Drivers/BSP/Components/lps22hh\lps22hh_reg.c ****   
1412:D:/fchai/work/i-cube/I-CUBE-HUAWEI/Drivers/BSP/Components/lps22hh\lps22hh_reg.c ****   ths_p_l.ths = (uint8_t)(buff & 0x00FFU);
 5331              		.loc 1 1412 3 view .LVU1530
1407:D:/fchai/work/i-cube/I-CUBE-HUAWEI/Drivers/BSP/Components/lps22hh\lps22hh_reg.c ****   int32_t ret;
 5332              		.loc 1 1407 1 is_stmt 0 view .LVU1531
 5333 0000 30B5     		push	{r4, r5, lr}
 5334              	.LCFI158:
 5335              		.cfi_def_cfa_offset 12
 5336              		.cfi_offset 4, -12
 5337              		.cfi_offset 5, -8
 5338              		.cfi_offset 14, -4
 5339 0002 83B0     		sub	sp, sp, #12
 5340              	.LCFI159:
 5341              		.cfi_def_cfa_offset 24
 5342              	.LBB568:
 5343              	.LBB569:
  71:D:/fchai/work/i-cube/I-CUBE-HUAWEI/Drivers/BSP/Components/lps22hh\lps22hh_reg.c ****   return ret;
 5344              		.loc 1 71 9 view .LVU1532
 5345 0004 0568     		ldr	r5, [r0]
 5346              	.LBE569:
 5347              	.LBE568:
1413:D:/fchai/work/i-cube/I-CUBE-HUAWEI/Drivers/BSP/Components/lps22hh\lps22hh_reg.c ****   ths_p_h.ths = (uint8_t)((buff & 0x7F00U) >> 8);
 5348              		.loc 1 1413 15 view .LVU1533
 5349 0006 9DF80430 		ldrb	r3, [sp, #4]	@ zero_extendqisi2
1412:D:/fchai/work/i-cube/I-CUBE-HUAWEI/Drivers/BSP/Components/lps22hh\lps22hh_reg.c ****   ths_p_h.ths = (uint8_t)((buff & 0x7F00U) >> 8);
 5350              		.loc 1 1412 17 view .LVU1534
 5351 000a 8DF80010 		strb	r1, [sp]
 5352              		.loc 1 1413 3 is_stmt 1 view .LVU1535
 5353              		.loc 1 1413 44 is_stmt 0 view .LVU1536
 5354 000e 090A     		lsrs	r1, r1, #8
 5355              	.LVL425:
 5356              		.loc 1 1413 15 view .LVU1537
 5357 0010 61F30603 		bfi	r3, r1, #0, #7
1407:D:/fchai/work/i-cube/I-CUBE-HUAWEI/Drivers/BSP/Components/lps22hh\lps22hh_reg.c ****   int32_t ret;
 5358              		.loc 1 1407 1 view .LVU1538
 5359 0014 0446     		mov	r4, r0
 5360              		.loc 1 1413 15 view .LVU1539
 5361 0016 8DF80430 		strb	r3, [sp, #4]
1414:D:/fchai/work/i-cube/I-CUBE-HUAWEI/Drivers/BSP/Components/lps22hh\lps22hh_reg.c ****   
1415:D:/fchai/work/i-cube/I-CUBE-HUAWEI/Drivers/BSP/Components/lps22hh\lps22hh_reg.c ****   ret =  lps22hh_write_reg(ctx, LPS22HH_THS_P_L,
 5362              		.loc 1 1415 3 is_stmt 1 view .LVU1540
 5363              	.LVL426:
 5364              	.LBB571:
 5365              	.LBI568:
  67:D:/fchai/work/i-cube/I-CUBE-HUAWEI/Drivers/BSP/Components/lps22hh\lps22hh_reg.c ****                            uint16_t len)
 5366              		.loc 1 67 9 view .LVU1541
 5367              	.LBB570:
  70:D:/fchai/work/i-cube/I-CUBE-HUAWEI/Drivers/BSP/Components/lps22hh\lps22hh_reg.c ****   ret = ctx->write_reg(ctx->handle, reg, data, len);
 5368              		.loc 1 70 3 view .LVU1542
  71:D:/fchai/work/i-cube/I-CUBE-HUAWEI/Drivers/BSP/Components/lps22hh\lps22hh_reg.c ****   return ret;
ARM GAS  T:\msys\tmp\ccdfMMY7.s 			page 134


 5369              		.loc 1 71 3 view .LVU1543
  71:D:/fchai/work/i-cube/I-CUBE-HUAWEI/Drivers/BSP/Components/lps22hh\lps22hh_reg.c ****   return ret;
 5370              		.loc 1 71 9 is_stmt 0 view .LVU1544
 5371 001a 8068     		ldr	r0, [r0, #8]
 5372              	.LVL427:
  71:D:/fchai/work/i-cube/I-CUBE-HUAWEI/Drivers/BSP/Components/lps22hh\lps22hh_reg.c ****   return ret;
 5373              		.loc 1 71 9 view .LVU1545
 5374 001c 0123     		movs	r3, #1
 5375 001e 6A46     		mov	r2, sp
 5376 0020 0C21     		movs	r1, #12
 5377 0022 A847     		blx	r5
 5378              	.LVL428:
  72:D:/fchai/work/i-cube/I-CUBE-HUAWEI/Drivers/BSP/Components/lps22hh\lps22hh_reg.c **** }
 5379              		.loc 1 72 3 is_stmt 1 view .LVU1546
  72:D:/fchai/work/i-cube/I-CUBE-HUAWEI/Drivers/BSP/Components/lps22hh\lps22hh_reg.c **** }
 5380              		.loc 1 72 3 is_stmt 0 view .LVU1547
 5381              	.LBE570:
 5382              	.LBE571:
1416:D:/fchai/work/i-cube/I-CUBE-HUAWEI/Drivers/BSP/Components/lps22hh\lps22hh_reg.c ****                            (uint8_t*)&ths_p_l, 1);
1417:D:/fchai/work/i-cube/I-CUBE-HUAWEI/Drivers/BSP/Components/lps22hh\lps22hh_reg.c ****   if (ret == 0) {
 5383              		.loc 1 1417 3 is_stmt 1 view .LVU1548
 5384              		.loc 1 1417 6 is_stmt 0 view .LVU1549
 5385 0024 28B9     		cbnz	r0, .L177
1418:D:/fchai/work/i-cube/I-CUBE-HUAWEI/Drivers/BSP/Components/lps22hh\lps22hh_reg.c ****       ret =  lps22hh_write_reg(ctx, LPS22HH_THS_P_H, 
 5386              		.loc 1 1418 7 is_stmt 1 view .LVU1550
 5387              	.LVL429:
 5388              	.LBB572:
 5389              	.LBI572:
  67:D:/fchai/work/i-cube/I-CUBE-HUAWEI/Drivers/BSP/Components/lps22hh\lps22hh_reg.c ****                            uint16_t len)
 5390              		.loc 1 67 9 view .LVU1551
 5391              	.LBB573:
  70:D:/fchai/work/i-cube/I-CUBE-HUAWEI/Drivers/BSP/Components/lps22hh\lps22hh_reg.c ****   ret = ctx->write_reg(ctx->handle, reg, data, len);
 5392              		.loc 1 70 3 view .LVU1552
  71:D:/fchai/work/i-cube/I-CUBE-HUAWEI/Drivers/BSP/Components/lps22hh\lps22hh_reg.c ****   return ret;
 5393              		.loc 1 71 3 view .LVU1553
  71:D:/fchai/work/i-cube/I-CUBE-HUAWEI/Drivers/BSP/Components/lps22hh\lps22hh_reg.c ****   return ret;
 5394              		.loc 1 71 9 is_stmt 0 view .LVU1554
 5395 0026 2568     		ldr	r5, [r4]
 5396 0028 A068     		ldr	r0, [r4, #8]
 5397              	.LVL430:
  71:D:/fchai/work/i-cube/I-CUBE-HUAWEI/Drivers/BSP/Components/lps22hh\lps22hh_reg.c ****   return ret;
 5398              		.loc 1 71 9 view .LVU1555
 5399 002a 0123     		movs	r3, #1
 5400 002c 01AA     		add	r2, sp, #4
 5401              	.LVL431:
  71:D:/fchai/work/i-cube/I-CUBE-HUAWEI/Drivers/BSP/Components/lps22hh\lps22hh_reg.c ****   return ret;
 5402              		.loc 1 71 9 view .LVU1556
 5403 002e 0D21     		movs	r1, #13
 5404 0030 A847     		blx	r5
 5405              	.LVL432:
  72:D:/fchai/work/i-cube/I-CUBE-HUAWEI/Drivers/BSP/Components/lps22hh\lps22hh_reg.c **** }
 5406              		.loc 1 72 3 is_stmt 1 view .LVU1557
  72:D:/fchai/work/i-cube/I-CUBE-HUAWEI/Drivers/BSP/Components/lps22hh\lps22hh_reg.c **** }
 5407              		.loc 1 72 3 is_stmt 0 view .LVU1558
 5408              	.LBE573:
 5409              	.LBE572:
1419:D:/fchai/work/i-cube/I-CUBE-HUAWEI/Drivers/BSP/Components/lps22hh\lps22hh_reg.c ****                                (uint8_t*)&ths_p_h, 1);
ARM GAS  T:\msys\tmp\ccdfMMY7.s 			page 135


1420:D:/fchai/work/i-cube/I-CUBE-HUAWEI/Drivers/BSP/Components/lps22hh\lps22hh_reg.c ****   }
1421:D:/fchai/work/i-cube/I-CUBE-HUAWEI/Drivers/BSP/Components/lps22hh\lps22hh_reg.c ****   return ret;
 5410              		.loc 1 1421 3 is_stmt 1 view .LVU1559
 5411              	.L177:
1422:D:/fchai/work/i-cube/I-CUBE-HUAWEI/Drivers/BSP/Components/lps22hh\lps22hh_reg.c **** }
 5412              		.loc 1 1422 1 is_stmt 0 view .LVU1560
 5413 0032 03B0     		add	sp, sp, #12
 5414              	.LCFI160:
 5415              		.cfi_def_cfa_offset 12
 5416              		@ sp needed
 5417 0034 30BD     		pop	{r4, r5, pc}
 5418              		.loc 1 1422 1 view .LVU1561
 5419              		.cfi_endproc
 5420              	.LFE57:
 5422 0036 00BF     		.section	.text.lps22hh_int_treshold_get,"ax",%progbits
 5423              		.align	1
 5424              		.p2align 2,,3
 5425              		.global	lps22hh_int_treshold_get
 5426              		.syntax unified
 5427              		.thumb
 5428              		.thumb_func
 5429              		.fpu fpv4-sp-d16
 5431              	lps22hh_int_treshold_get:
 5432              	.LVL433:
 5433              	.LFB58:
1423:D:/fchai/work/i-cube/I-CUBE-HUAWEI/Drivers/BSP/Components/lps22hh\lps22hh_reg.c **** 
1424:D:/fchai/work/i-cube/I-CUBE-HUAWEI/Drivers/BSP/Components/lps22hh\lps22hh_reg.c **** /**
1425:D:/fchai/work/i-cube/I-CUBE-HUAWEI/Drivers/BSP/Components/lps22hh\lps22hh_reg.c ****   * @brief   User-defined threshold value for pressure interrupt event.[get]
1426:D:/fchai/work/i-cube/I-CUBE-HUAWEI/Drivers/BSP/Components/lps22hh\lps22hh_reg.c ****   *
1427:D:/fchai/work/i-cube/I-CUBE-HUAWEI/Drivers/BSP/Components/lps22hh\lps22hh_reg.c ****   * @param  ctx      read / write interface definitions
1428:D:/fchai/work/i-cube/I-CUBE-HUAWEI/Drivers/BSP/Components/lps22hh\lps22hh_reg.c ****   * @param  buff     buffer that stores data read
1429:D:/fchai/work/i-cube/I-CUBE-HUAWEI/Drivers/BSP/Components/lps22hh\lps22hh_reg.c ****   * @retval          interface status (MANDATORY: return 0 -> no Error)
1430:D:/fchai/work/i-cube/I-CUBE-HUAWEI/Drivers/BSP/Components/lps22hh\lps22hh_reg.c ****   *
1431:D:/fchai/work/i-cube/I-CUBE-HUAWEI/Drivers/BSP/Components/lps22hh\lps22hh_reg.c ****   */
1432:D:/fchai/work/i-cube/I-CUBE-HUAWEI/Drivers/BSP/Components/lps22hh\lps22hh_reg.c **** int32_t lps22hh_int_treshold_get(stmdev_ctx_t *ctx, uint16_t *buff)
1433:D:/fchai/work/i-cube/I-CUBE-HUAWEI/Drivers/BSP/Components/lps22hh\lps22hh_reg.c **** {
 5434              		.loc 1 1433 1 is_stmt 1 view -0
 5435              		.cfi_startproc
 5436              		@ args = 0, pretend = 0, frame = 8
 5437              		@ frame_needed = 0, uses_anonymous_args = 0
1434:D:/fchai/work/i-cube/I-CUBE-HUAWEI/Drivers/BSP/Components/lps22hh\lps22hh_reg.c ****   int32_t ret;
 5438              		.loc 1 1434 3 view .LVU1563
1435:D:/fchai/work/i-cube/I-CUBE-HUAWEI/Drivers/BSP/Components/lps22hh\lps22hh_reg.c ****   lps22hh_ths_p_l_t ths_p_l;
 5439              		.loc 1 1435 3 view .LVU1564
1436:D:/fchai/work/i-cube/I-CUBE-HUAWEI/Drivers/BSP/Components/lps22hh\lps22hh_reg.c ****   lps22hh_ths_p_h_t ths_p_h;
 5440              		.loc 1 1436 3 view .LVU1565
1437:D:/fchai/work/i-cube/I-CUBE-HUAWEI/Drivers/BSP/Components/lps22hh\lps22hh_reg.c ****   
1438:D:/fchai/work/i-cube/I-CUBE-HUAWEI/Drivers/BSP/Components/lps22hh\lps22hh_reg.c ****   ret =  lps22hh_read_reg(ctx, LPS22HH_THS_P_L,
 5441              		.loc 1 1438 3 view .LVU1566
1433:D:/fchai/work/i-cube/I-CUBE-HUAWEI/Drivers/BSP/Components/lps22hh\lps22hh_reg.c ****   int32_t ret;
 5442              		.loc 1 1433 1 is_stmt 0 view .LVU1567
 5443 0000 70B5     		push	{r4, r5, r6, lr}
 5444              	.LCFI161:
 5445              		.cfi_def_cfa_offset 16
 5446              		.cfi_offset 4, -16
 5447              		.cfi_offset 5, -12
 5448              		.cfi_offset 6, -8
ARM GAS  T:\msys\tmp\ccdfMMY7.s 			page 136


 5449              		.cfi_offset 14, -4
 5450 0002 82B0     		sub	sp, sp, #8
 5451              	.LCFI162:
 5452              		.cfi_def_cfa_offset 24
1433:D:/fchai/work/i-cube/I-CUBE-HUAWEI/Drivers/BSP/Components/lps22hh\lps22hh_reg.c ****   int32_t ret;
 5453              		.loc 1 1433 1 view .LVU1568
 5454 0004 0446     		mov	r4, r0
 5455              	.LVL434:
 5456              	.LBB574:
 5457              	.LBI574:
  49:D:/fchai/work/i-cube/I-CUBE-HUAWEI/Drivers/BSP/Components/lps22hh\lps22hh_reg.c ****                          uint16_t len)
 5458              		.loc 1 49 9 is_stmt 1 view .LVU1569
 5459              	.LBB575:
  52:D:/fchai/work/i-cube/I-CUBE-HUAWEI/Drivers/BSP/Components/lps22hh\lps22hh_reg.c ****   ret = ctx->read_reg(ctx->handle, reg, data, len);
 5460              		.loc 1 52 3 view .LVU1570
  53:D:/fchai/work/i-cube/I-CUBE-HUAWEI/Drivers/BSP/Components/lps22hh\lps22hh_reg.c ****   return ret;
 5461              		.loc 1 53 3 view .LVU1571
 5462              	.LBE575:
 5463              	.LBE574:
1433:D:/fchai/work/i-cube/I-CUBE-HUAWEI/Drivers/BSP/Components/lps22hh\lps22hh_reg.c ****   int32_t ret;
 5464              		.loc 1 1433 1 is_stmt 0 view .LVU1572
 5465 0006 0D46     		mov	r5, r1
 5466              	.LBB577:
 5467              	.LBB576:
  53:D:/fchai/work/i-cube/I-CUBE-HUAWEI/Drivers/BSP/Components/lps22hh\lps22hh_reg.c ****   return ret;
 5468              		.loc 1 53 9 view .LVU1573
 5469 0008 D0E90160 		ldrd	r6, r0, [r0, #4]
 5470              	.LVL435:
  53:D:/fchai/work/i-cube/I-CUBE-HUAWEI/Drivers/BSP/Components/lps22hh\lps22hh_reg.c ****   return ret;
 5471              		.loc 1 53 9 view .LVU1574
 5472 000c 0123     		movs	r3, #1
 5473 000e 6A46     		mov	r2, sp
 5474 0010 0C21     		movs	r1, #12
 5475              	.LVL436:
  53:D:/fchai/work/i-cube/I-CUBE-HUAWEI/Drivers/BSP/Components/lps22hh\lps22hh_reg.c ****   return ret;
 5476              		.loc 1 53 9 view .LVU1575
 5477 0012 B047     		blx	r6
 5478              	.LVL437:
  54:D:/fchai/work/i-cube/I-CUBE-HUAWEI/Drivers/BSP/Components/lps22hh\lps22hh_reg.c **** }
 5479              		.loc 1 54 3 is_stmt 1 view .LVU1576
  54:D:/fchai/work/i-cube/I-CUBE-HUAWEI/Drivers/BSP/Components/lps22hh\lps22hh_reg.c **** }
 5480              		.loc 1 54 3 is_stmt 0 view .LVU1577
 5481              	.LBE576:
 5482              	.LBE577:
1439:D:/fchai/work/i-cube/I-CUBE-HUAWEI/Drivers/BSP/Components/lps22hh\lps22hh_reg.c ****                            (uint8_t*)&ths_p_l, 1);
1440:D:/fchai/work/i-cube/I-CUBE-HUAWEI/Drivers/BSP/Components/lps22hh\lps22hh_reg.c ****   if (ret == 0) {
 5483              		.loc 1 1440 3 is_stmt 1 view .LVU1578
 5484              		.loc 1 1440 6 is_stmt 0 view .LVU1579
 5485 0014 70B9     		cbnz	r0, .L180
1441:D:/fchai/work/i-cube/I-CUBE-HUAWEI/Drivers/BSP/Components/lps22hh\lps22hh_reg.c ****       ret =  lps22hh_read_reg(ctx, LPS22HH_THS_P_H, 
 5486              		.loc 1 1441 7 is_stmt 1 view .LVU1580
 5487              	.LVL438:
 5488              	.LBB578:
 5489              	.LBI578:
  49:D:/fchai/work/i-cube/I-CUBE-HUAWEI/Drivers/BSP/Components/lps22hh\lps22hh_reg.c ****                          uint16_t len)
 5490              		.loc 1 49 9 view .LVU1581
 5491              	.LBB579:
ARM GAS  T:\msys\tmp\ccdfMMY7.s 			page 137


  52:D:/fchai/work/i-cube/I-CUBE-HUAWEI/Drivers/BSP/Components/lps22hh\lps22hh_reg.c ****   ret = ctx->read_reg(ctx->handle, reg, data, len);
 5492              		.loc 1 52 3 view .LVU1582
  53:D:/fchai/work/i-cube/I-CUBE-HUAWEI/Drivers/BSP/Components/lps22hh\lps22hh_reg.c ****   return ret;
 5493              		.loc 1 53 3 view .LVU1583
  53:D:/fchai/work/i-cube/I-CUBE-HUAWEI/Drivers/BSP/Components/lps22hh\lps22hh_reg.c ****   return ret;
 5494              		.loc 1 53 9 is_stmt 0 view .LVU1584
 5495 0016 0123     		movs	r3, #1
 5496 0018 01AA     		add	r2, sp, #4
 5497              	.LVL439:
  53:D:/fchai/work/i-cube/I-CUBE-HUAWEI/Drivers/BSP/Components/lps22hh\lps22hh_reg.c ****   return ret;
 5498              		.loc 1 53 9 view .LVU1585
 5499 001a D4E90160 		ldrd	r6, r0, [r4, #4]
 5500              	.LVL440:
  53:D:/fchai/work/i-cube/I-CUBE-HUAWEI/Drivers/BSP/Components/lps22hh\lps22hh_reg.c ****   return ret;
 5501              		.loc 1 53 9 view .LVU1586
 5502 001e 0D21     		movs	r1, #13
 5503 0020 B047     		blx	r6
 5504              	.LVL441:
  53:D:/fchai/work/i-cube/I-CUBE-HUAWEI/Drivers/BSP/Components/lps22hh\lps22hh_reg.c ****   return ret;
 5505              		.loc 1 53 9 view .LVU1587
 5506              	.LBE579:
 5507              	.LBE578:
1442:D:/fchai/work/i-cube/I-CUBE-HUAWEI/Drivers/BSP/Components/lps22hh\lps22hh_reg.c ****                                (uint8_t*)&ths_p_h, 1);
1443:D:/fchai/work/i-cube/I-CUBE-HUAWEI/Drivers/BSP/Components/lps22hh\lps22hh_reg.c ****       *buff = (uint16_t)ths_p_h.ths << 8;
 5508              		.loc 1 1443 32 view .LVU1588
 5509 0022 9DF80420 		ldrb	r2, [sp, #4]	@ zero_extendqisi2
1444:D:/fchai/work/i-cube/I-CUBE-HUAWEI/Drivers/BSP/Components/lps22hh\lps22hh_reg.c ****       *buff |= (uint16_t)ths_p_l.ths;
 5510              		.loc 1 1444 33 view .LVU1589
 5511 0026 9DF80030 		ldrb	r3, [sp]	@ zero_extendqisi2
1443:D:/fchai/work/i-cube/I-CUBE-HUAWEI/Drivers/BSP/Components/lps22hh\lps22hh_reg.c ****       *buff |= (uint16_t)ths_p_l.ths;
 5512              		.loc 1 1443 32 view .LVU1590
 5513 002a 02F07F02 		and	r2, r2, #127
 5514              		.loc 1 1444 13 view .LVU1591
 5515 002e 43EA0223 		orr	r3, r3, r2, lsl #8
 5516              	.LVL442:
 5517              	.LBB581:
 5518              	.LBB580:
  54:D:/fchai/work/i-cube/I-CUBE-HUAWEI/Drivers/BSP/Components/lps22hh\lps22hh_reg.c **** }
 5519              		.loc 1 54 3 is_stmt 1 view .LVU1592
  54:D:/fchai/work/i-cube/I-CUBE-HUAWEI/Drivers/BSP/Components/lps22hh\lps22hh_reg.c **** }
 5520              		.loc 1 54 3 is_stmt 0 view .LVU1593
 5521              	.LBE580:
 5522              	.LBE581:
1443:D:/fchai/work/i-cube/I-CUBE-HUAWEI/Drivers/BSP/Components/lps22hh\lps22hh_reg.c ****       *buff |= (uint16_t)ths_p_l.ths;
 5523              		.loc 1 1443 7 is_stmt 1 view .LVU1594
 5524              		.loc 1 1444 7 view .LVU1595
 5525              		.loc 1 1444 13 is_stmt 0 view .LVU1596
 5526 0032 2B80     		strh	r3, [r5]	@ movhi
1445:D:/fchai/work/i-cube/I-CUBE-HUAWEI/Drivers/BSP/Components/lps22hh\lps22hh_reg.c ****   }  
1446:D:/fchai/work/i-cube/I-CUBE-HUAWEI/Drivers/BSP/Components/lps22hh\lps22hh_reg.c ****   return ret;
 5527              		.loc 1 1446 3 is_stmt 1 view .LVU1597
 5528              	.L180:
1447:D:/fchai/work/i-cube/I-CUBE-HUAWEI/Drivers/BSP/Components/lps22hh\lps22hh_reg.c **** }
 5529              		.loc 1 1447 1 is_stmt 0 view .LVU1598
 5530 0034 02B0     		add	sp, sp, #8
 5531              	.LCFI163:
 5532              		.cfi_def_cfa_offset 16
ARM GAS  T:\msys\tmp\ccdfMMY7.s 			page 138


 5533              		@ sp needed
 5534 0036 70BD     		pop	{r4, r5, r6, pc}
 5535              		.loc 1 1447 1 view .LVU1599
 5536              		.cfi_endproc
 5537              	.LFE58:
 5539              		.section	.text.lps22hh_fifo_mode_set,"ax",%progbits
 5540              		.align	1
 5541              		.p2align 2,,3
 5542              		.global	lps22hh_fifo_mode_set
 5543              		.syntax unified
 5544              		.thumb
 5545              		.thumb_func
 5546              		.fpu fpv4-sp-d16
 5548              	lps22hh_fifo_mode_set:
 5549              	.LVL443:
 5550              	.LFB59:
1448:D:/fchai/work/i-cube/I-CUBE-HUAWEI/Drivers/BSP/Components/lps22hh\lps22hh_reg.c **** 
1449:D:/fchai/work/i-cube/I-CUBE-HUAWEI/Drivers/BSP/Components/lps22hh\lps22hh_reg.c **** /**
1450:D:/fchai/work/i-cube/I-CUBE-HUAWEI/Drivers/BSP/Components/lps22hh\lps22hh_reg.c ****   * @}
1451:D:/fchai/work/i-cube/I-CUBE-HUAWEI/Drivers/BSP/Components/lps22hh\lps22hh_reg.c ****   *
1452:D:/fchai/work/i-cube/I-CUBE-HUAWEI/Drivers/BSP/Components/lps22hh\lps22hh_reg.c ****   */
1453:D:/fchai/work/i-cube/I-CUBE-HUAWEI/Drivers/BSP/Components/lps22hh\lps22hh_reg.c **** 
1454:D:/fchai/work/i-cube/I-CUBE-HUAWEI/Drivers/BSP/Components/lps22hh\lps22hh_reg.c **** /**
1455:D:/fchai/work/i-cube/I-CUBE-HUAWEI/Drivers/BSP/Components/lps22hh\lps22hh_reg.c ****   * @defgroup  LPS22HH_Fifo
1456:D:/fchai/work/i-cube/I-CUBE-HUAWEI/Drivers/BSP/Components/lps22hh\lps22hh_reg.c ****   * @brief   This section group all the functions concerning the fifo usage.
1457:D:/fchai/work/i-cube/I-CUBE-HUAWEI/Drivers/BSP/Components/lps22hh\lps22hh_reg.c ****   * @{
1458:D:/fchai/work/i-cube/I-CUBE-HUAWEI/Drivers/BSP/Components/lps22hh\lps22hh_reg.c ****   *
1459:D:/fchai/work/i-cube/I-CUBE-HUAWEI/Drivers/BSP/Components/lps22hh\lps22hh_reg.c ****   */
1460:D:/fchai/work/i-cube/I-CUBE-HUAWEI/Drivers/BSP/Components/lps22hh\lps22hh_reg.c **** 
1461:D:/fchai/work/i-cube/I-CUBE-HUAWEI/Drivers/BSP/Components/lps22hh\lps22hh_reg.c **** /**
1462:D:/fchai/work/i-cube/I-CUBE-HUAWEI/Drivers/BSP/Components/lps22hh\lps22hh_reg.c ****   * @brief  Fifo Mode selection.[set]
1463:D:/fchai/work/i-cube/I-CUBE-HUAWEI/Drivers/BSP/Components/lps22hh\lps22hh_reg.c ****   *
1464:D:/fchai/work/i-cube/I-CUBE-HUAWEI/Drivers/BSP/Components/lps22hh\lps22hh_reg.c ****   * @param  ctx      read / write interface definitions
1465:D:/fchai/work/i-cube/I-CUBE-HUAWEI/Drivers/BSP/Components/lps22hh\lps22hh_reg.c ****   * @param  val      change the values of f_mode in reg FIFO_CTRL
1466:D:/fchai/work/i-cube/I-CUBE-HUAWEI/Drivers/BSP/Components/lps22hh\lps22hh_reg.c ****   * @retval          interface status (MANDATORY: return 0 -> no Error)
1467:D:/fchai/work/i-cube/I-CUBE-HUAWEI/Drivers/BSP/Components/lps22hh\lps22hh_reg.c ****   *
1468:D:/fchai/work/i-cube/I-CUBE-HUAWEI/Drivers/BSP/Components/lps22hh\lps22hh_reg.c ****   */
1469:D:/fchai/work/i-cube/I-CUBE-HUAWEI/Drivers/BSP/Components/lps22hh\lps22hh_reg.c **** int32_t lps22hh_fifo_mode_set(stmdev_ctx_t *ctx, lps22hh_f_mode_t val)
1470:D:/fchai/work/i-cube/I-CUBE-HUAWEI/Drivers/BSP/Components/lps22hh\lps22hh_reg.c **** {
 5551              		.loc 1 1470 1 is_stmt 1 view -0
 5552              		.cfi_startproc
 5553              		@ args = 0, pretend = 0, frame = 8
 5554              		@ frame_needed = 0, uses_anonymous_args = 0
1471:D:/fchai/work/i-cube/I-CUBE-HUAWEI/Drivers/BSP/Components/lps22hh\lps22hh_reg.c ****   lps22hh_fifo_ctrl_t reg;
 5555              		.loc 1 1471 3 view .LVU1601
1472:D:/fchai/work/i-cube/I-CUBE-HUAWEI/Drivers/BSP/Components/lps22hh\lps22hh_reg.c ****   int32_t ret;
 5556              		.loc 1 1472 3 view .LVU1602
1473:D:/fchai/work/i-cube/I-CUBE-HUAWEI/Drivers/BSP/Components/lps22hh\lps22hh_reg.c **** 
1474:D:/fchai/work/i-cube/I-CUBE-HUAWEI/Drivers/BSP/Components/lps22hh\lps22hh_reg.c ****   ret = lps22hh_read_reg(ctx, LPS22HH_FIFO_CTRL, (uint8_t*) &reg, 1);
 5557              		.loc 1 1474 3 view .LVU1603
1470:D:/fchai/work/i-cube/I-CUBE-HUAWEI/Drivers/BSP/Components/lps22hh\lps22hh_reg.c ****   lps22hh_fifo_ctrl_t reg;
 5558              		.loc 1 1470 1 is_stmt 0 view .LVU1604
 5559 0000 70B5     		push	{r4, r5, r6, lr}
 5560              	.LCFI164:
 5561              		.cfi_def_cfa_offset 16
 5562              		.cfi_offset 4, -16
 5563              		.cfi_offset 5, -12
ARM GAS  T:\msys\tmp\ccdfMMY7.s 			page 139


 5564              		.cfi_offset 6, -8
 5565              		.cfi_offset 14, -4
 5566 0002 82B0     		sub	sp, sp, #8
 5567              	.LCFI165:
 5568              		.cfi_def_cfa_offset 24
1470:D:/fchai/work/i-cube/I-CUBE-HUAWEI/Drivers/BSP/Components/lps22hh\lps22hh_reg.c ****   lps22hh_fifo_ctrl_t reg;
 5569              		.loc 1 1470 1 view .LVU1605
 5570 0004 0446     		mov	r4, r0
 5571              	.LVL444:
 5572              	.LBB582:
 5573              	.LBI582:
  49:D:/fchai/work/i-cube/I-CUBE-HUAWEI/Drivers/BSP/Components/lps22hh\lps22hh_reg.c ****                          uint16_t len)
 5574              		.loc 1 49 9 is_stmt 1 view .LVU1606
 5575              	.LBB583:
  52:D:/fchai/work/i-cube/I-CUBE-HUAWEI/Drivers/BSP/Components/lps22hh\lps22hh_reg.c ****   ret = ctx->read_reg(ctx->handle, reg, data, len);
 5576              		.loc 1 52 3 view .LVU1607
  53:D:/fchai/work/i-cube/I-CUBE-HUAWEI/Drivers/BSP/Components/lps22hh\lps22hh_reg.c ****   return ret;
 5577              		.loc 1 53 3 view .LVU1608
 5578              	.LBE583:
 5579              	.LBE582:
1470:D:/fchai/work/i-cube/I-CUBE-HUAWEI/Drivers/BSP/Components/lps22hh\lps22hh_reg.c ****   lps22hh_fifo_ctrl_t reg;
 5580              		.loc 1 1470 1 is_stmt 0 view .LVU1609
 5581 0006 0D46     		mov	r5, r1
 5582              	.LBB585:
 5583              	.LBB584:
  53:D:/fchai/work/i-cube/I-CUBE-HUAWEI/Drivers/BSP/Components/lps22hh\lps22hh_reg.c ****   return ret;
 5584              		.loc 1 53 9 view .LVU1610
 5585 0008 D0E90160 		ldrd	r6, r0, [r0, #4]
 5586              	.LVL445:
  53:D:/fchai/work/i-cube/I-CUBE-HUAWEI/Drivers/BSP/Components/lps22hh\lps22hh_reg.c ****   return ret;
 5587              		.loc 1 53 9 view .LVU1611
 5588 000c 01AA     		add	r2, sp, #4
 5589              	.LVL446:
  53:D:/fchai/work/i-cube/I-CUBE-HUAWEI/Drivers/BSP/Components/lps22hh\lps22hh_reg.c ****   return ret;
 5590              		.loc 1 53 9 view .LVU1612
 5591 000e 0123     		movs	r3, #1
 5592 0010 1321     		movs	r1, #19
 5593              	.LVL447:
  53:D:/fchai/work/i-cube/I-CUBE-HUAWEI/Drivers/BSP/Components/lps22hh\lps22hh_reg.c ****   return ret;
 5594              		.loc 1 53 9 view .LVU1613
 5595 0012 B047     		blx	r6
 5596              	.LVL448:
  54:D:/fchai/work/i-cube/I-CUBE-HUAWEI/Drivers/BSP/Components/lps22hh\lps22hh_reg.c **** }
 5597              		.loc 1 54 3 is_stmt 1 view .LVU1614
  54:D:/fchai/work/i-cube/I-CUBE-HUAWEI/Drivers/BSP/Components/lps22hh\lps22hh_reg.c **** }
 5598              		.loc 1 54 3 is_stmt 0 view .LVU1615
 5599              	.LBE584:
 5600              	.LBE585:
1475:D:/fchai/work/i-cube/I-CUBE-HUAWEI/Drivers/BSP/Components/lps22hh\lps22hh_reg.c ****   if (ret == 0) {
 5601              		.loc 1 1475 3 is_stmt 1 view .LVU1616
 5602              		.loc 1 1475 6 is_stmt 0 view .LVU1617
 5603 0014 58B9     		cbnz	r0, .L183
1476:D:/fchai/work/i-cube/I-CUBE-HUAWEI/Drivers/BSP/Components/lps22hh\lps22hh_reg.c ****     reg.f_mode = (uint8_t)val;
 5604              		.loc 1 1476 5 is_stmt 1 view .LVU1618
 5605              		.loc 1 1476 16 is_stmt 0 view .LVU1619
 5606 0016 9DF80430 		ldrb	r3, [sp, #4]	@ zero_extendqisi2
 5607              	.LBB586:
ARM GAS  T:\msys\tmp\ccdfMMY7.s 			page 140


 5608              	.LBB587:
  71:D:/fchai/work/i-cube/I-CUBE-HUAWEI/Drivers/BSP/Components/lps22hh\lps22hh_reg.c ****   return ret;
 5609              		.loc 1 71 9 view .LVU1620
 5610 001a 2668     		ldr	r6, [r4]
 5611 001c A068     		ldr	r0, [r4, #8]
 5612              	.LVL449:
  71:D:/fchai/work/i-cube/I-CUBE-HUAWEI/Drivers/BSP/Components/lps22hh\lps22hh_reg.c ****   return ret;
 5613              		.loc 1 71 9 view .LVU1621
 5614              	.LBE587:
 5615              	.LBE586:
 5616              		.loc 1 1476 16 view .LVU1622
 5617 001e 65F30203 		bfi	r3, r5, #0, #3
 5618 0022 8DF80430 		strb	r3, [sp, #4]
1477:D:/fchai/work/i-cube/I-CUBE-HUAWEI/Drivers/BSP/Components/lps22hh\lps22hh_reg.c ****     ret = lps22hh_write_reg(ctx, LPS22HH_FIFO_CTRL, (uint8_t*) &reg, 1);
 5619              		.loc 1 1477 5 is_stmt 1 view .LVU1623
 5620              	.LVL450:
 5621              	.LBB589:
 5622              	.LBI586:
  67:D:/fchai/work/i-cube/I-CUBE-HUAWEI/Drivers/BSP/Components/lps22hh\lps22hh_reg.c ****                            uint16_t len)
 5623              		.loc 1 67 9 view .LVU1624
 5624              	.LBB588:
  70:D:/fchai/work/i-cube/I-CUBE-HUAWEI/Drivers/BSP/Components/lps22hh\lps22hh_reg.c ****   ret = ctx->write_reg(ctx->handle, reg, data, len);
 5625              		.loc 1 70 3 view .LVU1625
  71:D:/fchai/work/i-cube/I-CUBE-HUAWEI/Drivers/BSP/Components/lps22hh\lps22hh_reg.c ****   return ret;
 5626              		.loc 1 71 3 view .LVU1626
  71:D:/fchai/work/i-cube/I-CUBE-HUAWEI/Drivers/BSP/Components/lps22hh\lps22hh_reg.c ****   return ret;
 5627              		.loc 1 71 9 is_stmt 0 view .LVU1627
 5628 0026 01AA     		add	r2, sp, #4
 5629              	.LVL451:
  71:D:/fchai/work/i-cube/I-CUBE-HUAWEI/Drivers/BSP/Components/lps22hh\lps22hh_reg.c ****   return ret;
 5630              		.loc 1 71 9 view .LVU1628
 5631 0028 0123     		movs	r3, #1
 5632 002a 1321     		movs	r1, #19
 5633 002c B047     		blx	r6
 5634              	.LVL452:
  72:D:/fchai/work/i-cube/I-CUBE-HUAWEI/Drivers/BSP/Components/lps22hh\lps22hh_reg.c **** }
 5635              		.loc 1 72 3 is_stmt 1 view .LVU1629
  72:D:/fchai/work/i-cube/I-CUBE-HUAWEI/Drivers/BSP/Components/lps22hh\lps22hh_reg.c **** }
 5636              		.loc 1 72 3 is_stmt 0 view .LVU1630
 5637              	.LBE588:
 5638              	.LBE589:
1478:D:/fchai/work/i-cube/I-CUBE-HUAWEI/Drivers/BSP/Components/lps22hh\lps22hh_reg.c ****   }
1479:D:/fchai/work/i-cube/I-CUBE-HUAWEI/Drivers/BSP/Components/lps22hh\lps22hh_reg.c ****   return ret;
 5639              		.loc 1 1479 3 is_stmt 1 view .LVU1631
 5640              	.L183:
1480:D:/fchai/work/i-cube/I-CUBE-HUAWEI/Drivers/BSP/Components/lps22hh\lps22hh_reg.c **** }
 5641              		.loc 1 1480 1 is_stmt 0 view .LVU1632
 5642 002e 02B0     		add	sp, sp, #8
 5643              	.LCFI166:
 5644              		.cfi_def_cfa_offset 16
 5645              		@ sp needed
 5646 0030 70BD     		pop	{r4, r5, r6, pc}
 5647              		.loc 1 1480 1 view .LVU1633
 5648              		.cfi_endproc
 5649              	.LFE59:
 5651 0032 00BF     		.section	.text.lps22hh_fifo_mode_get,"ax",%progbits
 5652              		.align	1
ARM GAS  T:\msys\tmp\ccdfMMY7.s 			page 141


 5653              		.p2align 2,,3
 5654              		.global	lps22hh_fifo_mode_get
 5655              		.syntax unified
 5656              		.thumb
 5657              		.thumb_func
 5658              		.fpu fpv4-sp-d16
 5660              	lps22hh_fifo_mode_get:
 5661              	.LVL453:
 5662              	.LFB60:
1481:D:/fchai/work/i-cube/I-CUBE-HUAWEI/Drivers/BSP/Components/lps22hh\lps22hh_reg.c **** 
1482:D:/fchai/work/i-cube/I-CUBE-HUAWEI/Drivers/BSP/Components/lps22hh\lps22hh_reg.c **** /**
1483:D:/fchai/work/i-cube/I-CUBE-HUAWEI/Drivers/BSP/Components/lps22hh\lps22hh_reg.c ****   * @brief  Fifo Mode selection.[get]
1484:D:/fchai/work/i-cube/I-CUBE-HUAWEI/Drivers/BSP/Components/lps22hh\lps22hh_reg.c ****   *
1485:D:/fchai/work/i-cube/I-CUBE-HUAWEI/Drivers/BSP/Components/lps22hh\lps22hh_reg.c ****   * @param  ctx      read / write interface definitions
1486:D:/fchai/work/i-cube/I-CUBE-HUAWEI/Drivers/BSP/Components/lps22hh\lps22hh_reg.c ****   * @param  val      Get the values of f_mode in reg FIFO_CTRL
1487:D:/fchai/work/i-cube/I-CUBE-HUAWEI/Drivers/BSP/Components/lps22hh\lps22hh_reg.c ****   * @retval          interface status (MANDATORY: return 0 -> no Error)
1488:D:/fchai/work/i-cube/I-CUBE-HUAWEI/Drivers/BSP/Components/lps22hh\lps22hh_reg.c ****   *
1489:D:/fchai/work/i-cube/I-CUBE-HUAWEI/Drivers/BSP/Components/lps22hh\lps22hh_reg.c ****   */
1490:D:/fchai/work/i-cube/I-CUBE-HUAWEI/Drivers/BSP/Components/lps22hh\lps22hh_reg.c **** int32_t lps22hh_fifo_mode_get(stmdev_ctx_t *ctx, lps22hh_f_mode_t *val)
1491:D:/fchai/work/i-cube/I-CUBE-HUAWEI/Drivers/BSP/Components/lps22hh\lps22hh_reg.c **** {
 5663              		.loc 1 1491 1 is_stmt 1 view -0
 5664              		.cfi_startproc
 5665              		@ args = 0, pretend = 0, frame = 8
 5666              		@ frame_needed = 0, uses_anonymous_args = 0
1492:D:/fchai/work/i-cube/I-CUBE-HUAWEI/Drivers/BSP/Components/lps22hh\lps22hh_reg.c ****   lps22hh_fifo_ctrl_t reg;
 5667              		.loc 1 1492 3 view .LVU1635
1493:D:/fchai/work/i-cube/I-CUBE-HUAWEI/Drivers/BSP/Components/lps22hh\lps22hh_reg.c ****   int32_t ret;
 5668              		.loc 1 1493 3 view .LVU1636
1494:D:/fchai/work/i-cube/I-CUBE-HUAWEI/Drivers/BSP/Components/lps22hh\lps22hh_reg.c **** 
1495:D:/fchai/work/i-cube/I-CUBE-HUAWEI/Drivers/BSP/Components/lps22hh\lps22hh_reg.c ****   ret = lps22hh_read_reg(ctx, LPS22HH_FIFO_CTRL, (uint8_t*) &reg, 1);
 5669              		.loc 1 1495 3 view .LVU1637
1491:D:/fchai/work/i-cube/I-CUBE-HUAWEI/Drivers/BSP/Components/lps22hh\lps22hh_reg.c ****   lps22hh_fifo_ctrl_t reg;
 5670              		.loc 1 1491 1 is_stmt 0 view .LVU1638
 5671 0000 30B5     		push	{r4, r5, lr}
 5672              	.LCFI167:
 5673              		.cfi_def_cfa_offset 12
 5674              		.cfi_offset 4, -12
 5675              		.cfi_offset 5, -8
 5676              		.cfi_offset 14, -4
 5677 0002 83B0     		sub	sp, sp, #12
 5678              	.LCFI168:
 5679              		.cfi_def_cfa_offset 24
 5680              	.LVL454:
 5681              	.LBB590:
 5682              	.LBI590:
  49:D:/fchai/work/i-cube/I-CUBE-HUAWEI/Drivers/BSP/Components/lps22hh\lps22hh_reg.c ****                          uint16_t len)
 5683              		.loc 1 49 9 is_stmt 1 view .LVU1639
 5684              	.LBB591:
  52:D:/fchai/work/i-cube/I-CUBE-HUAWEI/Drivers/BSP/Components/lps22hh\lps22hh_reg.c ****   ret = ctx->read_reg(ctx->handle, reg, data, len);
 5685              		.loc 1 52 3 view .LVU1640
  53:D:/fchai/work/i-cube/I-CUBE-HUAWEI/Drivers/BSP/Components/lps22hh\lps22hh_reg.c ****   return ret;
 5686              		.loc 1 53 3 view .LVU1641
  53:D:/fchai/work/i-cube/I-CUBE-HUAWEI/Drivers/BSP/Components/lps22hh\lps22hh_reg.c ****   return ret;
 5687              		.loc 1 53 9 is_stmt 0 view .LVU1642
 5688 0004 0123     		movs	r3, #1
 5689 0006 D0E90150 		ldrd	r5, r0, [r0, #4]
 5690              	.LVL455:
ARM GAS  T:\msys\tmp\ccdfMMY7.s 			page 142


  53:D:/fchai/work/i-cube/I-CUBE-HUAWEI/Drivers/BSP/Components/lps22hh\lps22hh_reg.c ****   return ret;
 5691              		.loc 1 53 9 view .LVU1643
 5692              	.LBE591:
 5693              	.LBE590:
1491:D:/fchai/work/i-cube/I-CUBE-HUAWEI/Drivers/BSP/Components/lps22hh\lps22hh_reg.c ****   lps22hh_fifo_ctrl_t reg;
 5694              		.loc 1 1491 1 view .LVU1644
 5695 000a 0C46     		mov	r4, r1
 5696              	.LBB594:
 5697              	.LBB592:
  53:D:/fchai/work/i-cube/I-CUBE-HUAWEI/Drivers/BSP/Components/lps22hh\lps22hh_reg.c ****   return ret;
 5698              		.loc 1 53 9 view .LVU1645
 5699 000c 01AA     		add	r2, sp, #4
 5700              	.LVL456:
  53:D:/fchai/work/i-cube/I-CUBE-HUAWEI/Drivers/BSP/Components/lps22hh\lps22hh_reg.c ****   return ret;
 5701              		.loc 1 53 9 view .LVU1646
 5702 000e 1321     		movs	r1, #19
 5703              	.LVL457:
  53:D:/fchai/work/i-cube/I-CUBE-HUAWEI/Drivers/BSP/Components/lps22hh\lps22hh_reg.c ****   return ret;
 5704              		.loc 1 53 9 view .LVU1647
 5705 0010 A847     		blx	r5
 5706              	.LVL458:
  53:D:/fchai/work/i-cube/I-CUBE-HUAWEI/Drivers/BSP/Components/lps22hh\lps22hh_reg.c ****   return ret;
 5707              		.loc 1 53 9 view .LVU1648
 5708              	.LBE592:
 5709              	.LBE594:
1496:D:/fchai/work/i-cube/I-CUBE-HUAWEI/Drivers/BSP/Components/lps22hh\lps22hh_reg.c **** 
1497:D:/fchai/work/i-cube/I-CUBE-HUAWEI/Drivers/BSP/Components/lps22hh\lps22hh_reg.c ****   switch (reg.f_mode) {
 5710              		.loc 1 1497 14 view .LVU1649
 5711 0012 9DF80430 		ldrb	r3, [sp, #4]	@ zero_extendqisi2
 5712 0016 03F00703 		and	r3, r3, #7
 5713 001a 013B     		subs	r3, r3, #1
 5714              	.LVL459:
 5715              	.LBB595:
 5716              	.LBB593:
  54:D:/fchai/work/i-cube/I-CUBE-HUAWEI/Drivers/BSP/Components/lps22hh\lps22hh_reg.c **** }
 5717              		.loc 1 54 3 is_stmt 1 view .LVU1650
  54:D:/fchai/work/i-cube/I-CUBE-HUAWEI/Drivers/BSP/Components/lps22hh\lps22hh_reg.c **** }
 5718              		.loc 1 54 3 is_stmt 0 view .LVU1651
 5719              	.LBE593:
 5720              	.LBE595:
 5721              		.loc 1 1497 3 is_stmt 1 view .LVU1652
 5722 001c 062B     		cmp	r3, #6
 5723 001e 05D8     		bhi	.L187
 5724 0020 DFE803F0 		tbb	[pc, r3]
 5725              	.L189:
 5726 0024 0C       		.byte	(.L194-.L189)/2
 5727 0025 10       		.byte	(.L193-.L189)/2
 5728 0026 14       		.byte	(.L192-.L189)/2
 5729 0027 04       		.byte	(.L187-.L189)/2
 5730 0028 18       		.byte	(.L191-.L189)/2
 5731 0029 1C       		.byte	(.L190-.L189)/2
 5732 002a 08       		.byte	(.L188-.L189)/2
 5733 002b 00       		.p2align 1
 5734              	.L187:
1498:D:/fchai/work/i-cube/I-CUBE-HUAWEI/Drivers/BSP/Components/lps22hh\lps22hh_reg.c ****     case LPS22HH_BYPASS_MODE:
1499:D:/fchai/work/i-cube/I-CUBE-HUAWEI/Drivers/BSP/Components/lps22hh\lps22hh_reg.c ****       *val = LPS22HH_BYPASS_MODE;
 5735              		.loc 1 1499 7 view .LVU1653
ARM GAS  T:\msys\tmp\ccdfMMY7.s 			page 143


 5736              		.loc 1 1499 12 is_stmt 0 view .LVU1654
 5737 002c 0023     		movs	r3, #0
 5738 002e 2370     		strb	r3, [r4]
1500:D:/fchai/work/i-cube/I-CUBE-HUAWEI/Drivers/BSP/Components/lps22hh\lps22hh_reg.c ****       break;
 5739              		.loc 1 1500 7 is_stmt 1 view .LVU1655
1501:D:/fchai/work/i-cube/I-CUBE-HUAWEI/Drivers/BSP/Components/lps22hh\lps22hh_reg.c ****     case LPS22HH_FIFO_MODE:
1502:D:/fchai/work/i-cube/I-CUBE-HUAWEI/Drivers/BSP/Components/lps22hh\lps22hh_reg.c ****       *val = LPS22HH_FIFO_MODE;
1503:D:/fchai/work/i-cube/I-CUBE-HUAWEI/Drivers/BSP/Components/lps22hh\lps22hh_reg.c ****       break;
1504:D:/fchai/work/i-cube/I-CUBE-HUAWEI/Drivers/BSP/Components/lps22hh\lps22hh_reg.c ****     case LPS22HH_STREAM_MODE:
1505:D:/fchai/work/i-cube/I-CUBE-HUAWEI/Drivers/BSP/Components/lps22hh\lps22hh_reg.c ****       *val = LPS22HH_STREAM_MODE;
1506:D:/fchai/work/i-cube/I-CUBE-HUAWEI/Drivers/BSP/Components/lps22hh\lps22hh_reg.c ****       break;
1507:D:/fchai/work/i-cube/I-CUBE-HUAWEI/Drivers/BSP/Components/lps22hh\lps22hh_reg.c ****     case LPS22HH_DYNAMIC_STREAM_MODE:
1508:D:/fchai/work/i-cube/I-CUBE-HUAWEI/Drivers/BSP/Components/lps22hh\lps22hh_reg.c ****       *val = LPS22HH_DYNAMIC_STREAM_MODE;
1509:D:/fchai/work/i-cube/I-CUBE-HUAWEI/Drivers/BSP/Components/lps22hh\lps22hh_reg.c ****       break;
1510:D:/fchai/work/i-cube/I-CUBE-HUAWEI/Drivers/BSP/Components/lps22hh\lps22hh_reg.c ****     case LPS22HH_BYPASS_TO_FIFO_MODE:
1511:D:/fchai/work/i-cube/I-CUBE-HUAWEI/Drivers/BSP/Components/lps22hh\lps22hh_reg.c ****       *val = LPS22HH_BYPASS_TO_FIFO_MODE;
1512:D:/fchai/work/i-cube/I-CUBE-HUAWEI/Drivers/BSP/Components/lps22hh\lps22hh_reg.c ****       break;
1513:D:/fchai/work/i-cube/I-CUBE-HUAWEI/Drivers/BSP/Components/lps22hh\lps22hh_reg.c ****     case LPS22HH_BYPASS_TO_STREAM_MODE:
1514:D:/fchai/work/i-cube/I-CUBE-HUAWEI/Drivers/BSP/Components/lps22hh\lps22hh_reg.c ****       *val = LPS22HH_BYPASS_TO_STREAM_MODE;
1515:D:/fchai/work/i-cube/I-CUBE-HUAWEI/Drivers/BSP/Components/lps22hh\lps22hh_reg.c ****       break;
1516:D:/fchai/work/i-cube/I-CUBE-HUAWEI/Drivers/BSP/Components/lps22hh\lps22hh_reg.c ****     case LPS22HH_STREAM_TO_FIFO_MODE:
1517:D:/fchai/work/i-cube/I-CUBE-HUAWEI/Drivers/BSP/Components/lps22hh\lps22hh_reg.c ****       *val = LPS22HH_STREAM_TO_FIFO_MODE;
1518:D:/fchai/work/i-cube/I-CUBE-HUAWEI/Drivers/BSP/Components/lps22hh\lps22hh_reg.c ****       break;
1519:D:/fchai/work/i-cube/I-CUBE-HUAWEI/Drivers/BSP/Components/lps22hh\lps22hh_reg.c ****     default:
1520:D:/fchai/work/i-cube/I-CUBE-HUAWEI/Drivers/BSP/Components/lps22hh\lps22hh_reg.c ****       *val = LPS22HH_BYPASS_MODE;
1521:D:/fchai/work/i-cube/I-CUBE-HUAWEI/Drivers/BSP/Components/lps22hh\lps22hh_reg.c ****       break;
1522:D:/fchai/work/i-cube/I-CUBE-HUAWEI/Drivers/BSP/Components/lps22hh\lps22hh_reg.c ****   }
1523:D:/fchai/work/i-cube/I-CUBE-HUAWEI/Drivers/BSP/Components/lps22hh\lps22hh_reg.c **** 
1524:D:/fchai/work/i-cube/I-CUBE-HUAWEI/Drivers/BSP/Components/lps22hh\lps22hh_reg.c ****   return ret;
1525:D:/fchai/work/i-cube/I-CUBE-HUAWEI/Drivers/BSP/Components/lps22hh\lps22hh_reg.c **** }
 5740              		.loc 1 1525 1 is_stmt 0 view .LVU1656
 5741 0030 03B0     		add	sp, sp, #12
 5742              	.LCFI169:
 5743              		.cfi_remember_state
 5744              		.cfi_def_cfa_offset 12
 5745              		@ sp needed
 5746 0032 30BD     		pop	{r4, r5, pc}
 5747              	.LVL460:
 5748              	.L188:
 5749              	.LCFI170:
 5750              		.cfi_restore_state
1517:D:/fchai/work/i-cube/I-CUBE-HUAWEI/Drivers/BSP/Components/lps22hh\lps22hh_reg.c ****       break;
 5751              		.loc 1 1517 7 is_stmt 1 view .LVU1657
1517:D:/fchai/work/i-cube/I-CUBE-HUAWEI/Drivers/BSP/Components/lps22hh\lps22hh_reg.c ****       break;
 5752              		.loc 1 1517 12 is_stmt 0 view .LVU1658
 5753 0034 0723     		movs	r3, #7
 5754 0036 2370     		strb	r3, [r4]
1518:D:/fchai/work/i-cube/I-CUBE-HUAWEI/Drivers/BSP/Components/lps22hh\lps22hh_reg.c ****     default:
 5755              		.loc 1 1518 7 is_stmt 1 view .LVU1659
1524:D:/fchai/work/i-cube/I-CUBE-HUAWEI/Drivers/BSP/Components/lps22hh\lps22hh_reg.c **** }
 5756              		.loc 1 1524 3 view .LVU1660
 5757              		.loc 1 1525 1 is_stmt 0 view .LVU1661
 5758 0038 03B0     		add	sp, sp, #12
 5759              	.LCFI171:
 5760              		.cfi_remember_state
 5761              		.cfi_def_cfa_offset 12
 5762              		@ sp needed
ARM GAS  T:\msys\tmp\ccdfMMY7.s 			page 144


 5763 003a 30BD     		pop	{r4, r5, pc}
 5764              	.LVL461:
 5765              	.L194:
 5766              	.LCFI172:
 5767              		.cfi_restore_state
1502:D:/fchai/work/i-cube/I-CUBE-HUAWEI/Drivers/BSP/Components/lps22hh\lps22hh_reg.c ****       break;
 5768              		.loc 1 1502 7 is_stmt 1 view .LVU1662
1502:D:/fchai/work/i-cube/I-CUBE-HUAWEI/Drivers/BSP/Components/lps22hh\lps22hh_reg.c ****       break;
 5769              		.loc 1 1502 12 is_stmt 0 view .LVU1663
 5770 003c 0123     		movs	r3, #1
 5771 003e 2370     		strb	r3, [r4]
1503:D:/fchai/work/i-cube/I-CUBE-HUAWEI/Drivers/BSP/Components/lps22hh\lps22hh_reg.c ****     case LPS22HH_STREAM_MODE:
 5772              		.loc 1 1503 7 is_stmt 1 view .LVU1664
 5773              		.loc 1 1525 1 is_stmt 0 view .LVU1665
 5774 0040 03B0     		add	sp, sp, #12
 5775              	.LCFI173:
 5776              		.cfi_remember_state
 5777              		.cfi_def_cfa_offset 12
 5778              		@ sp needed
 5779 0042 30BD     		pop	{r4, r5, pc}
 5780              	.LVL462:
 5781              	.L193:
 5782              	.LCFI174:
 5783              		.cfi_restore_state
1505:D:/fchai/work/i-cube/I-CUBE-HUAWEI/Drivers/BSP/Components/lps22hh\lps22hh_reg.c ****       break;
 5784              		.loc 1 1505 7 is_stmt 1 view .LVU1666
1505:D:/fchai/work/i-cube/I-CUBE-HUAWEI/Drivers/BSP/Components/lps22hh\lps22hh_reg.c ****       break;
 5785              		.loc 1 1505 12 is_stmt 0 view .LVU1667
 5786 0044 0223     		movs	r3, #2
 5787 0046 2370     		strb	r3, [r4]
1506:D:/fchai/work/i-cube/I-CUBE-HUAWEI/Drivers/BSP/Components/lps22hh\lps22hh_reg.c ****     case LPS22HH_DYNAMIC_STREAM_MODE:
 5788              		.loc 1 1506 7 is_stmt 1 view .LVU1668
 5789              		.loc 1 1525 1 is_stmt 0 view .LVU1669
 5790 0048 03B0     		add	sp, sp, #12
 5791              	.LCFI175:
 5792              		.cfi_remember_state
 5793              		.cfi_def_cfa_offset 12
 5794              		@ sp needed
 5795 004a 30BD     		pop	{r4, r5, pc}
 5796              	.LVL463:
 5797              	.L192:
 5798              	.LCFI176:
 5799              		.cfi_restore_state
1508:D:/fchai/work/i-cube/I-CUBE-HUAWEI/Drivers/BSP/Components/lps22hh\lps22hh_reg.c ****       break;
 5800              		.loc 1 1508 7 is_stmt 1 view .LVU1670
1508:D:/fchai/work/i-cube/I-CUBE-HUAWEI/Drivers/BSP/Components/lps22hh\lps22hh_reg.c ****       break;
 5801              		.loc 1 1508 12 is_stmt 0 view .LVU1671
 5802 004c 0323     		movs	r3, #3
 5803 004e 2370     		strb	r3, [r4]
1509:D:/fchai/work/i-cube/I-CUBE-HUAWEI/Drivers/BSP/Components/lps22hh\lps22hh_reg.c ****     case LPS22HH_BYPASS_TO_FIFO_MODE:
 5804              		.loc 1 1509 7 is_stmt 1 view .LVU1672
 5805              		.loc 1 1525 1 is_stmt 0 view .LVU1673
 5806 0050 03B0     		add	sp, sp, #12
 5807              	.LCFI177:
 5808              		.cfi_remember_state
 5809              		.cfi_def_cfa_offset 12
 5810              		@ sp needed
ARM GAS  T:\msys\tmp\ccdfMMY7.s 			page 145


 5811 0052 30BD     		pop	{r4, r5, pc}
 5812              	.LVL464:
 5813              	.L191:
 5814              	.LCFI178:
 5815              		.cfi_restore_state
1511:D:/fchai/work/i-cube/I-CUBE-HUAWEI/Drivers/BSP/Components/lps22hh\lps22hh_reg.c ****       break;
 5816              		.loc 1 1511 7 is_stmt 1 view .LVU1674
1511:D:/fchai/work/i-cube/I-CUBE-HUAWEI/Drivers/BSP/Components/lps22hh\lps22hh_reg.c ****       break;
 5817              		.loc 1 1511 12 is_stmt 0 view .LVU1675
 5818 0054 0523     		movs	r3, #5
 5819 0056 2370     		strb	r3, [r4]
1512:D:/fchai/work/i-cube/I-CUBE-HUAWEI/Drivers/BSP/Components/lps22hh\lps22hh_reg.c ****     case LPS22HH_BYPASS_TO_STREAM_MODE:
 5820              		.loc 1 1512 7 is_stmt 1 view .LVU1676
 5821              		.loc 1 1525 1 is_stmt 0 view .LVU1677
 5822 0058 03B0     		add	sp, sp, #12
 5823              	.LCFI179:
 5824              		.cfi_remember_state
 5825              		.cfi_def_cfa_offset 12
 5826              		@ sp needed
 5827 005a 30BD     		pop	{r4, r5, pc}
 5828              	.LVL465:
 5829              	.L190:
 5830              	.LCFI180:
 5831              		.cfi_restore_state
1514:D:/fchai/work/i-cube/I-CUBE-HUAWEI/Drivers/BSP/Components/lps22hh\lps22hh_reg.c ****       break;
 5832              		.loc 1 1514 7 is_stmt 1 view .LVU1678
1514:D:/fchai/work/i-cube/I-CUBE-HUAWEI/Drivers/BSP/Components/lps22hh\lps22hh_reg.c ****       break;
 5833              		.loc 1 1514 12 is_stmt 0 view .LVU1679
 5834 005c 0623     		movs	r3, #6
 5835 005e 2370     		strb	r3, [r4]
1515:D:/fchai/work/i-cube/I-CUBE-HUAWEI/Drivers/BSP/Components/lps22hh\lps22hh_reg.c ****     case LPS22HH_STREAM_TO_FIFO_MODE:
 5836              		.loc 1 1515 7 is_stmt 1 view .LVU1680
 5837              		.loc 1 1525 1 is_stmt 0 view .LVU1681
 5838 0060 03B0     		add	sp, sp, #12
 5839              	.LCFI181:
 5840              		.cfi_def_cfa_offset 12
 5841              		@ sp needed
 5842 0062 30BD     		pop	{r4, r5, pc}
 5843              		.loc 1 1525 1 view .LVU1682
 5844              		.cfi_endproc
 5845              	.LFE60:
 5847              		.section	.text.lps22hh_fifo_stop_on_wtm_set,"ax",%progbits
 5848              		.align	1
 5849              		.p2align 2,,3
 5850              		.global	lps22hh_fifo_stop_on_wtm_set
 5851              		.syntax unified
 5852              		.thumb
 5853              		.thumb_func
 5854              		.fpu fpv4-sp-d16
 5856              	lps22hh_fifo_stop_on_wtm_set:
 5857              	.LVL466:
 5858              	.LFB61:
1526:D:/fchai/work/i-cube/I-CUBE-HUAWEI/Drivers/BSP/Components/lps22hh\lps22hh_reg.c **** 
1527:D:/fchai/work/i-cube/I-CUBE-HUAWEI/Drivers/BSP/Components/lps22hh\lps22hh_reg.c **** /**
1528:D:/fchai/work/i-cube/I-CUBE-HUAWEI/Drivers/BSP/Components/lps22hh\lps22hh_reg.c ****   * @brief  Sensing chain FIFO stop values memorization at
1529:D:/fchai/work/i-cube/I-CUBE-HUAWEI/Drivers/BSP/Components/lps22hh\lps22hh_reg.c ****   *         threshold level.[set]
1530:D:/fchai/work/i-cube/I-CUBE-HUAWEI/Drivers/BSP/Components/lps22hh\lps22hh_reg.c ****   *
ARM GAS  T:\msys\tmp\ccdfMMY7.s 			page 146


1531:D:/fchai/work/i-cube/I-CUBE-HUAWEI/Drivers/BSP/Components/lps22hh\lps22hh_reg.c ****   * @param  ctx      read / write interface definitions
1532:D:/fchai/work/i-cube/I-CUBE-HUAWEI/Drivers/BSP/Components/lps22hh\lps22hh_reg.c ****   * @param  val      change the values of stop_on_wtm in reg FIFO_CTRL
1533:D:/fchai/work/i-cube/I-CUBE-HUAWEI/Drivers/BSP/Components/lps22hh\lps22hh_reg.c ****   * @retval          interface status (MANDATORY: return 0 -> no Error)
1534:D:/fchai/work/i-cube/I-CUBE-HUAWEI/Drivers/BSP/Components/lps22hh\lps22hh_reg.c ****   *
1535:D:/fchai/work/i-cube/I-CUBE-HUAWEI/Drivers/BSP/Components/lps22hh\lps22hh_reg.c ****   */
1536:D:/fchai/work/i-cube/I-CUBE-HUAWEI/Drivers/BSP/Components/lps22hh\lps22hh_reg.c **** int32_t lps22hh_fifo_stop_on_wtm_set(stmdev_ctx_t *ctx, uint8_t val)
1537:D:/fchai/work/i-cube/I-CUBE-HUAWEI/Drivers/BSP/Components/lps22hh\lps22hh_reg.c **** {
 5859              		.loc 1 1537 1 is_stmt 1 view -0
 5860              		.cfi_startproc
 5861              		@ args = 0, pretend = 0, frame = 8
 5862              		@ frame_needed = 0, uses_anonymous_args = 0
1538:D:/fchai/work/i-cube/I-CUBE-HUAWEI/Drivers/BSP/Components/lps22hh\lps22hh_reg.c ****   lps22hh_fifo_ctrl_t reg;
 5863              		.loc 1 1538 3 view .LVU1684
1539:D:/fchai/work/i-cube/I-CUBE-HUAWEI/Drivers/BSP/Components/lps22hh\lps22hh_reg.c ****   int32_t ret;
 5864              		.loc 1 1539 3 view .LVU1685
1540:D:/fchai/work/i-cube/I-CUBE-HUAWEI/Drivers/BSP/Components/lps22hh\lps22hh_reg.c **** 
1541:D:/fchai/work/i-cube/I-CUBE-HUAWEI/Drivers/BSP/Components/lps22hh\lps22hh_reg.c ****   ret = lps22hh_read_reg(ctx, LPS22HH_FIFO_CTRL, (uint8_t*) &reg, 1);
 5865              		.loc 1 1541 3 view .LVU1686
1537:D:/fchai/work/i-cube/I-CUBE-HUAWEI/Drivers/BSP/Components/lps22hh\lps22hh_reg.c ****   lps22hh_fifo_ctrl_t reg;
 5866              		.loc 1 1537 1 is_stmt 0 view .LVU1687
 5867 0000 70B5     		push	{r4, r5, r6, lr}
 5868              	.LCFI182:
 5869              		.cfi_def_cfa_offset 16
 5870              		.cfi_offset 4, -16
 5871              		.cfi_offset 5, -12
 5872              		.cfi_offset 6, -8
 5873              		.cfi_offset 14, -4
 5874 0002 82B0     		sub	sp, sp, #8
 5875              	.LCFI183:
 5876              		.cfi_def_cfa_offset 24
1537:D:/fchai/work/i-cube/I-CUBE-HUAWEI/Drivers/BSP/Components/lps22hh\lps22hh_reg.c ****   lps22hh_fifo_ctrl_t reg;
 5877              		.loc 1 1537 1 view .LVU1688
 5878 0004 0446     		mov	r4, r0
 5879              	.LVL467:
 5880              	.LBB596:
 5881              	.LBI596:
  49:D:/fchai/work/i-cube/I-CUBE-HUAWEI/Drivers/BSP/Components/lps22hh\lps22hh_reg.c ****                          uint16_t len)
 5882              		.loc 1 49 9 is_stmt 1 view .LVU1689
 5883              	.LBB597:
  52:D:/fchai/work/i-cube/I-CUBE-HUAWEI/Drivers/BSP/Components/lps22hh\lps22hh_reg.c ****   ret = ctx->read_reg(ctx->handle, reg, data, len);
 5884              		.loc 1 52 3 view .LVU1690
  53:D:/fchai/work/i-cube/I-CUBE-HUAWEI/Drivers/BSP/Components/lps22hh\lps22hh_reg.c ****   return ret;
 5885              		.loc 1 53 3 view .LVU1691
 5886              	.LBE597:
 5887              	.LBE596:
1537:D:/fchai/work/i-cube/I-CUBE-HUAWEI/Drivers/BSP/Components/lps22hh\lps22hh_reg.c ****   lps22hh_fifo_ctrl_t reg;
 5888              		.loc 1 1537 1 is_stmt 0 view .LVU1692
 5889 0006 0D46     		mov	r5, r1
 5890              	.LBB599:
 5891              	.LBB598:
  53:D:/fchai/work/i-cube/I-CUBE-HUAWEI/Drivers/BSP/Components/lps22hh\lps22hh_reg.c ****   return ret;
 5892              		.loc 1 53 9 view .LVU1693
 5893 0008 D0E90160 		ldrd	r6, r0, [r0, #4]
 5894              	.LVL468:
  53:D:/fchai/work/i-cube/I-CUBE-HUAWEI/Drivers/BSP/Components/lps22hh\lps22hh_reg.c ****   return ret;
 5895              		.loc 1 53 9 view .LVU1694
 5896 000c 01AA     		add	r2, sp, #4
ARM GAS  T:\msys\tmp\ccdfMMY7.s 			page 147


 5897              	.LVL469:
  53:D:/fchai/work/i-cube/I-CUBE-HUAWEI/Drivers/BSP/Components/lps22hh\lps22hh_reg.c ****   return ret;
 5898              		.loc 1 53 9 view .LVU1695
 5899 000e 0123     		movs	r3, #1
 5900 0010 1321     		movs	r1, #19
 5901              	.LVL470:
  53:D:/fchai/work/i-cube/I-CUBE-HUAWEI/Drivers/BSP/Components/lps22hh\lps22hh_reg.c ****   return ret;
 5902              		.loc 1 53 9 view .LVU1696
 5903 0012 B047     		blx	r6
 5904              	.LVL471:
  54:D:/fchai/work/i-cube/I-CUBE-HUAWEI/Drivers/BSP/Components/lps22hh\lps22hh_reg.c **** }
 5905              		.loc 1 54 3 is_stmt 1 view .LVU1697
  54:D:/fchai/work/i-cube/I-CUBE-HUAWEI/Drivers/BSP/Components/lps22hh\lps22hh_reg.c **** }
 5906              		.loc 1 54 3 is_stmt 0 view .LVU1698
 5907              	.LBE598:
 5908              	.LBE599:
1542:D:/fchai/work/i-cube/I-CUBE-HUAWEI/Drivers/BSP/Components/lps22hh\lps22hh_reg.c ****   if (ret == 0) {
 5909              		.loc 1 1542 3 is_stmt 1 view .LVU1699
 5910              		.loc 1 1542 6 is_stmt 0 view .LVU1700
 5911 0014 58B9     		cbnz	r0, .L197
1543:D:/fchai/work/i-cube/I-CUBE-HUAWEI/Drivers/BSP/Components/lps22hh\lps22hh_reg.c ****     reg.stop_on_wtm = val;
 5912              		.loc 1 1543 5 is_stmt 1 view .LVU1701
 5913              		.loc 1 1543 21 is_stmt 0 view .LVU1702
 5914 0016 9DF80430 		ldrb	r3, [sp, #4]	@ zero_extendqisi2
 5915              	.LBB600:
 5916              	.LBB601:
  71:D:/fchai/work/i-cube/I-CUBE-HUAWEI/Drivers/BSP/Components/lps22hh\lps22hh_reg.c ****   return ret;
 5917              		.loc 1 71 9 view .LVU1703
 5918 001a 2668     		ldr	r6, [r4]
 5919 001c A068     		ldr	r0, [r4, #8]
 5920              	.LVL472:
  71:D:/fchai/work/i-cube/I-CUBE-HUAWEI/Drivers/BSP/Components/lps22hh\lps22hh_reg.c ****   return ret;
 5921              		.loc 1 71 9 view .LVU1704
 5922              	.LBE601:
 5923              	.LBE600:
 5924              		.loc 1 1543 21 view .LVU1705
 5925 001e 65F3C303 		bfi	r3, r5, #3, #1
 5926 0022 8DF80430 		strb	r3, [sp, #4]
1544:D:/fchai/work/i-cube/I-CUBE-HUAWEI/Drivers/BSP/Components/lps22hh\lps22hh_reg.c ****     ret = lps22hh_write_reg(ctx, LPS22HH_FIFO_CTRL, (uint8_t*) &reg, 1);
 5927              		.loc 1 1544 5 is_stmt 1 view .LVU1706
 5928              	.LVL473:
 5929              	.LBB603:
 5930              	.LBI600:
  67:D:/fchai/work/i-cube/I-CUBE-HUAWEI/Drivers/BSP/Components/lps22hh\lps22hh_reg.c ****                            uint16_t len)
 5931              		.loc 1 67 9 view .LVU1707
 5932              	.LBB602:
  70:D:/fchai/work/i-cube/I-CUBE-HUAWEI/Drivers/BSP/Components/lps22hh\lps22hh_reg.c ****   ret = ctx->write_reg(ctx->handle, reg, data, len);
 5933              		.loc 1 70 3 view .LVU1708
  71:D:/fchai/work/i-cube/I-CUBE-HUAWEI/Drivers/BSP/Components/lps22hh\lps22hh_reg.c ****   return ret;
 5934              		.loc 1 71 3 view .LVU1709
  71:D:/fchai/work/i-cube/I-CUBE-HUAWEI/Drivers/BSP/Components/lps22hh\lps22hh_reg.c ****   return ret;
 5935              		.loc 1 71 9 is_stmt 0 view .LVU1710
 5936 0026 01AA     		add	r2, sp, #4
 5937              	.LVL474:
  71:D:/fchai/work/i-cube/I-CUBE-HUAWEI/Drivers/BSP/Components/lps22hh\lps22hh_reg.c ****   return ret;
 5938              		.loc 1 71 9 view .LVU1711
 5939 0028 0123     		movs	r3, #1
ARM GAS  T:\msys\tmp\ccdfMMY7.s 			page 148


 5940 002a 1321     		movs	r1, #19
 5941 002c B047     		blx	r6
 5942              	.LVL475:
  72:D:/fchai/work/i-cube/I-CUBE-HUAWEI/Drivers/BSP/Components/lps22hh\lps22hh_reg.c **** }
 5943              		.loc 1 72 3 is_stmt 1 view .LVU1712
  72:D:/fchai/work/i-cube/I-CUBE-HUAWEI/Drivers/BSP/Components/lps22hh\lps22hh_reg.c **** }
 5944              		.loc 1 72 3 is_stmt 0 view .LVU1713
 5945              	.LBE602:
 5946              	.LBE603:
1545:D:/fchai/work/i-cube/I-CUBE-HUAWEI/Drivers/BSP/Components/lps22hh\lps22hh_reg.c ****   }
1546:D:/fchai/work/i-cube/I-CUBE-HUAWEI/Drivers/BSP/Components/lps22hh\lps22hh_reg.c ****   return ret;
 5947              		.loc 1 1546 3 is_stmt 1 view .LVU1714
 5948              	.L197:
1547:D:/fchai/work/i-cube/I-CUBE-HUAWEI/Drivers/BSP/Components/lps22hh\lps22hh_reg.c **** }
 5949              		.loc 1 1547 1 is_stmt 0 view .LVU1715
 5950 002e 02B0     		add	sp, sp, #8
 5951              	.LCFI184:
 5952              		.cfi_def_cfa_offset 16
 5953              		@ sp needed
 5954 0030 70BD     		pop	{r4, r5, r6, pc}
 5955              		.loc 1 1547 1 view .LVU1716
 5956              		.cfi_endproc
 5957              	.LFE61:
 5959 0032 00BF     		.section	.text.lps22hh_fifo_stop_on_wtm_get,"ax",%progbits
 5960              		.align	1
 5961              		.p2align 2,,3
 5962              		.global	lps22hh_fifo_stop_on_wtm_get
 5963              		.syntax unified
 5964              		.thumb
 5965              		.thumb_func
 5966              		.fpu fpv4-sp-d16
 5968              	lps22hh_fifo_stop_on_wtm_get:
 5969              	.LVL476:
 5970              	.LFB62:
1548:D:/fchai/work/i-cube/I-CUBE-HUAWEI/Drivers/BSP/Components/lps22hh\lps22hh_reg.c **** 
1549:D:/fchai/work/i-cube/I-CUBE-HUAWEI/Drivers/BSP/Components/lps22hh\lps22hh_reg.c **** /**
1550:D:/fchai/work/i-cube/I-CUBE-HUAWEI/Drivers/BSP/Components/lps22hh\lps22hh_reg.c ****   * @brief   Sensing chain FIFO stop values memorization at threshold
1551:D:/fchai/work/i-cube/I-CUBE-HUAWEI/Drivers/BSP/Components/lps22hh\lps22hh_reg.c ****   *          level.[get]
1552:D:/fchai/work/i-cube/I-CUBE-HUAWEI/Drivers/BSP/Components/lps22hh\lps22hh_reg.c ****   *
1553:D:/fchai/work/i-cube/I-CUBE-HUAWEI/Drivers/BSP/Components/lps22hh\lps22hh_reg.c ****   * @param  ctx      read / write interface definitions
1554:D:/fchai/work/i-cube/I-CUBE-HUAWEI/Drivers/BSP/Components/lps22hh\lps22hh_reg.c ****   * @param  val      change the values of stop_on_wtm in reg FIFO_CTRL
1555:D:/fchai/work/i-cube/I-CUBE-HUAWEI/Drivers/BSP/Components/lps22hh\lps22hh_reg.c ****   * @retval          interface status (MANDATORY: return 0 -> no Error)
1556:D:/fchai/work/i-cube/I-CUBE-HUAWEI/Drivers/BSP/Components/lps22hh\lps22hh_reg.c ****   *
1557:D:/fchai/work/i-cube/I-CUBE-HUAWEI/Drivers/BSP/Components/lps22hh\lps22hh_reg.c ****   */
1558:D:/fchai/work/i-cube/I-CUBE-HUAWEI/Drivers/BSP/Components/lps22hh\lps22hh_reg.c **** int32_t lps22hh_fifo_stop_on_wtm_get(stmdev_ctx_t *ctx, uint8_t *val)
1559:D:/fchai/work/i-cube/I-CUBE-HUAWEI/Drivers/BSP/Components/lps22hh\lps22hh_reg.c **** {
 5971              		.loc 1 1559 1 is_stmt 1 view -0
 5972              		.cfi_startproc
 5973              		@ args = 0, pretend = 0, frame = 8
 5974              		@ frame_needed = 0, uses_anonymous_args = 0
1560:D:/fchai/work/i-cube/I-CUBE-HUAWEI/Drivers/BSP/Components/lps22hh\lps22hh_reg.c ****   lps22hh_fifo_ctrl_t reg;
 5975              		.loc 1 1560 3 view .LVU1718
1561:D:/fchai/work/i-cube/I-CUBE-HUAWEI/Drivers/BSP/Components/lps22hh\lps22hh_reg.c ****   int32_t ret;
 5976              		.loc 1 1561 3 view .LVU1719
1562:D:/fchai/work/i-cube/I-CUBE-HUAWEI/Drivers/BSP/Components/lps22hh\lps22hh_reg.c **** 
1563:D:/fchai/work/i-cube/I-CUBE-HUAWEI/Drivers/BSP/Components/lps22hh\lps22hh_reg.c ****   ret = lps22hh_read_reg(ctx, LPS22HH_FIFO_CTRL, (uint8_t*) &reg, 1);
 5977              		.loc 1 1563 3 view .LVU1720
ARM GAS  T:\msys\tmp\ccdfMMY7.s 			page 149


1559:D:/fchai/work/i-cube/I-CUBE-HUAWEI/Drivers/BSP/Components/lps22hh\lps22hh_reg.c ****   lps22hh_fifo_ctrl_t reg;
 5978              		.loc 1 1559 1 is_stmt 0 view .LVU1721
 5979 0000 30B5     		push	{r4, r5, lr}
 5980              	.LCFI185:
 5981              		.cfi_def_cfa_offset 12
 5982              		.cfi_offset 4, -12
 5983              		.cfi_offset 5, -8
 5984              		.cfi_offset 14, -4
 5985 0002 83B0     		sub	sp, sp, #12
 5986              	.LCFI186:
 5987              		.cfi_def_cfa_offset 24
 5988              	.LVL477:
 5989              	.LBB604:
 5990              	.LBI604:
  49:D:/fchai/work/i-cube/I-CUBE-HUAWEI/Drivers/BSP/Components/lps22hh\lps22hh_reg.c ****                          uint16_t len)
 5991              		.loc 1 49 9 is_stmt 1 view .LVU1722
 5992              	.LBB605:
  52:D:/fchai/work/i-cube/I-CUBE-HUAWEI/Drivers/BSP/Components/lps22hh\lps22hh_reg.c ****   ret = ctx->read_reg(ctx->handle, reg, data, len);
 5993              		.loc 1 52 3 view .LVU1723
  53:D:/fchai/work/i-cube/I-CUBE-HUAWEI/Drivers/BSP/Components/lps22hh\lps22hh_reg.c ****   return ret;
 5994              		.loc 1 53 3 view .LVU1724
 5995              	.LBE605:
 5996              	.LBE604:
1559:D:/fchai/work/i-cube/I-CUBE-HUAWEI/Drivers/BSP/Components/lps22hh\lps22hh_reg.c ****   lps22hh_fifo_ctrl_t reg;
 5997              		.loc 1 1559 1 is_stmt 0 view .LVU1725
 5998 0004 0C46     		mov	r4, r1
 5999              	.LBB607:
 6000              	.LBB606:
  53:D:/fchai/work/i-cube/I-CUBE-HUAWEI/Drivers/BSP/Components/lps22hh\lps22hh_reg.c ****   return ret;
 6001              		.loc 1 53 9 view .LVU1726
 6002 0006 D0E90150 		ldrd	r5, r0, [r0, #4]
 6003              	.LVL478:
  53:D:/fchai/work/i-cube/I-CUBE-HUAWEI/Drivers/BSP/Components/lps22hh\lps22hh_reg.c ****   return ret;
 6004              		.loc 1 53 9 view .LVU1727
 6005 000a 0123     		movs	r3, #1
 6006 000c 01AA     		add	r2, sp, #4
 6007              	.LVL479:
  53:D:/fchai/work/i-cube/I-CUBE-HUAWEI/Drivers/BSP/Components/lps22hh\lps22hh_reg.c ****   return ret;
 6008              		.loc 1 53 9 view .LVU1728
 6009 000e 1321     		movs	r1, #19
 6010              	.LVL480:
  53:D:/fchai/work/i-cube/I-CUBE-HUAWEI/Drivers/BSP/Components/lps22hh\lps22hh_reg.c ****   return ret;
 6011              		.loc 1 53 9 view .LVU1729
 6012 0010 A847     		blx	r5
 6013              	.LVL481:
  54:D:/fchai/work/i-cube/I-CUBE-HUAWEI/Drivers/BSP/Components/lps22hh\lps22hh_reg.c **** }
 6014              		.loc 1 54 3 is_stmt 1 view .LVU1730
  54:D:/fchai/work/i-cube/I-CUBE-HUAWEI/Drivers/BSP/Components/lps22hh\lps22hh_reg.c **** }
 6015              		.loc 1 54 3 is_stmt 0 view .LVU1731
 6016              	.LBE606:
 6017              	.LBE607:
1564:D:/fchai/work/i-cube/I-CUBE-HUAWEI/Drivers/BSP/Components/lps22hh\lps22hh_reg.c ****   *val = reg.stop_on_wtm;
 6018              		.loc 1 1564 3 is_stmt 1 view .LVU1732
 6019              		.loc 1 1564 13 is_stmt 0 view .LVU1733
 6020 0012 9DF80430 		ldrb	r3, [sp, #4]	@ zero_extendqisi2
 6021 0016 C3F3C003 		ubfx	r3, r3, #3, #1
 6022              		.loc 1 1564 8 view .LVU1734
ARM GAS  T:\msys\tmp\ccdfMMY7.s 			page 150


 6023 001a 2370     		strb	r3, [r4]
1565:D:/fchai/work/i-cube/I-CUBE-HUAWEI/Drivers/BSP/Components/lps22hh\lps22hh_reg.c **** 
1566:D:/fchai/work/i-cube/I-CUBE-HUAWEI/Drivers/BSP/Components/lps22hh\lps22hh_reg.c ****   return ret;
 6024              		.loc 1 1566 3 is_stmt 1 view .LVU1735
1567:D:/fchai/work/i-cube/I-CUBE-HUAWEI/Drivers/BSP/Components/lps22hh\lps22hh_reg.c **** }
 6025              		.loc 1 1567 1 is_stmt 0 view .LVU1736
 6026 001c 03B0     		add	sp, sp, #12
 6027              	.LCFI187:
 6028              		.cfi_def_cfa_offset 12
 6029              		@ sp needed
 6030 001e 30BD     		pop	{r4, r5, pc}
 6031              		.loc 1 1567 1 view .LVU1737
 6032              		.cfi_endproc
 6033              	.LFE62:
 6035              		.section	.text.lps22hh_fifo_watermark_set,"ax",%progbits
 6036              		.align	1
 6037              		.p2align 2,,3
 6038              		.global	lps22hh_fifo_watermark_set
 6039              		.syntax unified
 6040              		.thumb
 6041              		.thumb_func
 6042              		.fpu fpv4-sp-d16
 6044              	lps22hh_fifo_watermark_set:
 6045              	.LVL482:
 6046              	.LFB63:
1568:D:/fchai/work/i-cube/I-CUBE-HUAWEI/Drivers/BSP/Components/lps22hh\lps22hh_reg.c **** 
1569:D:/fchai/work/i-cube/I-CUBE-HUAWEI/Drivers/BSP/Components/lps22hh\lps22hh_reg.c **** /**
1570:D:/fchai/work/i-cube/I-CUBE-HUAWEI/Drivers/BSP/Components/lps22hh\lps22hh_reg.c ****   * @brief  FIFO watermark level selection.[set]
1571:D:/fchai/work/i-cube/I-CUBE-HUAWEI/Drivers/BSP/Components/lps22hh\lps22hh_reg.c ****   *
1572:D:/fchai/work/i-cube/I-CUBE-HUAWEI/Drivers/BSP/Components/lps22hh\lps22hh_reg.c ****   * @param  ctx      read / write interface definitions
1573:D:/fchai/work/i-cube/I-CUBE-HUAWEI/Drivers/BSP/Components/lps22hh\lps22hh_reg.c ****   * @param  val      change the values of wtm in reg FIFO_WTM
1574:D:/fchai/work/i-cube/I-CUBE-HUAWEI/Drivers/BSP/Components/lps22hh\lps22hh_reg.c ****   * @retval          interface status (MANDATORY: return 0 -> no Error)
1575:D:/fchai/work/i-cube/I-CUBE-HUAWEI/Drivers/BSP/Components/lps22hh\lps22hh_reg.c ****   *
1576:D:/fchai/work/i-cube/I-CUBE-HUAWEI/Drivers/BSP/Components/lps22hh\lps22hh_reg.c ****   */
1577:D:/fchai/work/i-cube/I-CUBE-HUAWEI/Drivers/BSP/Components/lps22hh\lps22hh_reg.c **** int32_t lps22hh_fifo_watermark_set(stmdev_ctx_t *ctx, uint8_t val)
1578:D:/fchai/work/i-cube/I-CUBE-HUAWEI/Drivers/BSP/Components/lps22hh\lps22hh_reg.c **** {
 6047              		.loc 1 1578 1 is_stmt 1 view -0
 6048              		.cfi_startproc
 6049              		@ args = 0, pretend = 0, frame = 8
 6050              		@ frame_needed = 0, uses_anonymous_args = 0
1579:D:/fchai/work/i-cube/I-CUBE-HUAWEI/Drivers/BSP/Components/lps22hh\lps22hh_reg.c ****   lps22hh_fifo_wtm_t reg;
 6051              		.loc 1 1579 3 view .LVU1739
1580:D:/fchai/work/i-cube/I-CUBE-HUAWEI/Drivers/BSP/Components/lps22hh\lps22hh_reg.c ****   int32_t ret;
 6052              		.loc 1 1580 3 view .LVU1740
1581:D:/fchai/work/i-cube/I-CUBE-HUAWEI/Drivers/BSP/Components/lps22hh\lps22hh_reg.c **** 
1582:D:/fchai/work/i-cube/I-CUBE-HUAWEI/Drivers/BSP/Components/lps22hh\lps22hh_reg.c ****   ret = lps22hh_read_reg(ctx, LPS22HH_FIFO_WTM, (uint8_t*) &reg, 1);
 6053              		.loc 1 1582 3 view .LVU1741
1578:D:/fchai/work/i-cube/I-CUBE-HUAWEI/Drivers/BSP/Components/lps22hh\lps22hh_reg.c ****   lps22hh_fifo_wtm_t reg;
 6054              		.loc 1 1578 1 is_stmt 0 view .LVU1742
 6055 0000 70B5     		push	{r4, r5, r6, lr}
 6056              	.LCFI188:
 6057              		.cfi_def_cfa_offset 16
 6058              		.cfi_offset 4, -16
 6059              		.cfi_offset 5, -12
 6060              		.cfi_offset 6, -8
 6061              		.cfi_offset 14, -4
 6062 0002 82B0     		sub	sp, sp, #8
ARM GAS  T:\msys\tmp\ccdfMMY7.s 			page 151


 6063              	.LCFI189:
 6064              		.cfi_def_cfa_offset 24
1578:D:/fchai/work/i-cube/I-CUBE-HUAWEI/Drivers/BSP/Components/lps22hh\lps22hh_reg.c ****   lps22hh_fifo_wtm_t reg;
 6065              		.loc 1 1578 1 view .LVU1743
 6066 0004 0446     		mov	r4, r0
 6067              	.LVL483:
 6068              	.LBB608:
 6069              	.LBI608:
  49:D:/fchai/work/i-cube/I-CUBE-HUAWEI/Drivers/BSP/Components/lps22hh\lps22hh_reg.c ****                          uint16_t len)
 6070              		.loc 1 49 9 is_stmt 1 view .LVU1744
 6071              	.LBB609:
  52:D:/fchai/work/i-cube/I-CUBE-HUAWEI/Drivers/BSP/Components/lps22hh\lps22hh_reg.c ****   ret = ctx->read_reg(ctx->handle, reg, data, len);
 6072              		.loc 1 52 3 view .LVU1745
  53:D:/fchai/work/i-cube/I-CUBE-HUAWEI/Drivers/BSP/Components/lps22hh\lps22hh_reg.c ****   return ret;
 6073              		.loc 1 53 3 view .LVU1746
 6074              	.LBE609:
 6075              	.LBE608:
1578:D:/fchai/work/i-cube/I-CUBE-HUAWEI/Drivers/BSP/Components/lps22hh\lps22hh_reg.c ****   lps22hh_fifo_wtm_t reg;
 6076              		.loc 1 1578 1 is_stmt 0 view .LVU1747
 6077 0006 0D46     		mov	r5, r1
 6078              	.LBB611:
 6079              	.LBB610:
  53:D:/fchai/work/i-cube/I-CUBE-HUAWEI/Drivers/BSP/Components/lps22hh\lps22hh_reg.c ****   return ret;
 6080              		.loc 1 53 9 view .LVU1748
 6081 0008 D0E90160 		ldrd	r6, r0, [r0, #4]
 6082              	.LVL484:
  53:D:/fchai/work/i-cube/I-CUBE-HUAWEI/Drivers/BSP/Components/lps22hh\lps22hh_reg.c ****   return ret;
 6083              		.loc 1 53 9 view .LVU1749
 6084 000c 01AA     		add	r2, sp, #4
 6085              	.LVL485:
  53:D:/fchai/work/i-cube/I-CUBE-HUAWEI/Drivers/BSP/Components/lps22hh\lps22hh_reg.c ****   return ret;
 6086              		.loc 1 53 9 view .LVU1750
 6087 000e 0123     		movs	r3, #1
 6088 0010 1421     		movs	r1, #20
 6089              	.LVL486:
  53:D:/fchai/work/i-cube/I-CUBE-HUAWEI/Drivers/BSP/Components/lps22hh\lps22hh_reg.c ****   return ret;
 6090              		.loc 1 53 9 view .LVU1751
 6091 0012 B047     		blx	r6
 6092              	.LVL487:
  54:D:/fchai/work/i-cube/I-CUBE-HUAWEI/Drivers/BSP/Components/lps22hh\lps22hh_reg.c **** }
 6093              		.loc 1 54 3 is_stmt 1 view .LVU1752
  54:D:/fchai/work/i-cube/I-CUBE-HUAWEI/Drivers/BSP/Components/lps22hh\lps22hh_reg.c **** }
 6094              		.loc 1 54 3 is_stmt 0 view .LVU1753
 6095              	.LBE610:
 6096              	.LBE611:
1583:D:/fchai/work/i-cube/I-CUBE-HUAWEI/Drivers/BSP/Components/lps22hh\lps22hh_reg.c ****   if (ret == 0) {
 6097              		.loc 1 1583 3 is_stmt 1 view .LVU1754
 6098              		.loc 1 1583 6 is_stmt 0 view .LVU1755
 6099 0014 58B9     		cbnz	r0, .L202
1584:D:/fchai/work/i-cube/I-CUBE-HUAWEI/Drivers/BSP/Components/lps22hh\lps22hh_reg.c ****     reg.wtm = val;
 6100              		.loc 1 1584 5 is_stmt 1 view .LVU1756
 6101              		.loc 1 1584 13 is_stmt 0 view .LVU1757
 6102 0016 9DF80430 		ldrb	r3, [sp, #4]	@ zero_extendqisi2
 6103              	.LBB612:
 6104              	.LBB613:
  71:D:/fchai/work/i-cube/I-CUBE-HUAWEI/Drivers/BSP/Components/lps22hh\lps22hh_reg.c ****   return ret;
 6105              		.loc 1 71 9 view .LVU1758
ARM GAS  T:\msys\tmp\ccdfMMY7.s 			page 152


 6106 001a 2668     		ldr	r6, [r4]
 6107 001c A068     		ldr	r0, [r4, #8]
 6108              	.LVL488:
  71:D:/fchai/work/i-cube/I-CUBE-HUAWEI/Drivers/BSP/Components/lps22hh\lps22hh_reg.c ****   return ret;
 6109              		.loc 1 71 9 view .LVU1759
 6110              	.LBE613:
 6111              	.LBE612:
 6112              		.loc 1 1584 13 view .LVU1760
 6113 001e 65F30603 		bfi	r3, r5, #0, #7
 6114 0022 8DF80430 		strb	r3, [sp, #4]
1585:D:/fchai/work/i-cube/I-CUBE-HUAWEI/Drivers/BSP/Components/lps22hh\lps22hh_reg.c ****     ret = lps22hh_write_reg(ctx, LPS22HH_FIFO_WTM, (uint8_t*) &reg, 1);
 6115              		.loc 1 1585 5 is_stmt 1 view .LVU1761
 6116              	.LVL489:
 6117              	.LBB615:
 6118              	.LBI612:
  67:D:/fchai/work/i-cube/I-CUBE-HUAWEI/Drivers/BSP/Components/lps22hh\lps22hh_reg.c ****                            uint16_t len)
 6119              		.loc 1 67 9 view .LVU1762
 6120              	.LBB614:
  70:D:/fchai/work/i-cube/I-CUBE-HUAWEI/Drivers/BSP/Components/lps22hh\lps22hh_reg.c ****   ret = ctx->write_reg(ctx->handle, reg, data, len);
 6121              		.loc 1 70 3 view .LVU1763
  71:D:/fchai/work/i-cube/I-CUBE-HUAWEI/Drivers/BSP/Components/lps22hh\lps22hh_reg.c ****   return ret;
 6122              		.loc 1 71 3 view .LVU1764
  71:D:/fchai/work/i-cube/I-CUBE-HUAWEI/Drivers/BSP/Components/lps22hh\lps22hh_reg.c ****   return ret;
 6123              		.loc 1 71 9 is_stmt 0 view .LVU1765
 6124 0026 01AA     		add	r2, sp, #4
 6125              	.LVL490:
  71:D:/fchai/work/i-cube/I-CUBE-HUAWEI/Drivers/BSP/Components/lps22hh\lps22hh_reg.c ****   return ret;
 6126              		.loc 1 71 9 view .LVU1766
 6127 0028 0123     		movs	r3, #1
 6128 002a 1421     		movs	r1, #20
 6129 002c B047     		blx	r6
 6130              	.LVL491:
  72:D:/fchai/work/i-cube/I-CUBE-HUAWEI/Drivers/BSP/Components/lps22hh\lps22hh_reg.c **** }
 6131              		.loc 1 72 3 is_stmt 1 view .LVU1767
  72:D:/fchai/work/i-cube/I-CUBE-HUAWEI/Drivers/BSP/Components/lps22hh\lps22hh_reg.c **** }
 6132              		.loc 1 72 3 is_stmt 0 view .LVU1768
 6133              	.LBE614:
 6134              	.LBE615:
1586:D:/fchai/work/i-cube/I-CUBE-HUAWEI/Drivers/BSP/Components/lps22hh\lps22hh_reg.c ****   }
1587:D:/fchai/work/i-cube/I-CUBE-HUAWEI/Drivers/BSP/Components/lps22hh\lps22hh_reg.c ****   return ret;
 6135              		.loc 1 1587 3 is_stmt 1 view .LVU1769
 6136              	.L202:
1588:D:/fchai/work/i-cube/I-CUBE-HUAWEI/Drivers/BSP/Components/lps22hh\lps22hh_reg.c **** }
 6137              		.loc 1 1588 1 is_stmt 0 view .LVU1770
 6138 002e 02B0     		add	sp, sp, #8
 6139              	.LCFI190:
 6140              		.cfi_def_cfa_offset 16
 6141              		@ sp needed
 6142 0030 70BD     		pop	{r4, r5, r6, pc}
 6143              		.loc 1 1588 1 view .LVU1771
 6144              		.cfi_endproc
 6145              	.LFE63:
 6147 0032 00BF     		.section	.text.lps22hh_fifo_watermark_get,"ax",%progbits
 6148              		.align	1
 6149              		.p2align 2,,3
 6150              		.global	lps22hh_fifo_watermark_get
 6151              		.syntax unified
ARM GAS  T:\msys\tmp\ccdfMMY7.s 			page 153


 6152              		.thumb
 6153              		.thumb_func
 6154              		.fpu fpv4-sp-d16
 6156              	lps22hh_fifo_watermark_get:
 6157              	.LVL492:
 6158              	.LFB64:
1589:D:/fchai/work/i-cube/I-CUBE-HUAWEI/Drivers/BSP/Components/lps22hh\lps22hh_reg.c **** 
1590:D:/fchai/work/i-cube/I-CUBE-HUAWEI/Drivers/BSP/Components/lps22hh\lps22hh_reg.c **** /**
1591:D:/fchai/work/i-cube/I-CUBE-HUAWEI/Drivers/BSP/Components/lps22hh\lps22hh_reg.c ****   * @brief  FIFO watermark level selection.[get]
1592:D:/fchai/work/i-cube/I-CUBE-HUAWEI/Drivers/BSP/Components/lps22hh\lps22hh_reg.c ****   *
1593:D:/fchai/work/i-cube/I-CUBE-HUAWEI/Drivers/BSP/Components/lps22hh\lps22hh_reg.c ****   * @param  ctx      read / write interface definitions
1594:D:/fchai/work/i-cube/I-CUBE-HUAWEI/Drivers/BSP/Components/lps22hh\lps22hh_reg.c ****   * @param  val      change the values of wtm in reg FIFO_WTM
1595:D:/fchai/work/i-cube/I-CUBE-HUAWEI/Drivers/BSP/Components/lps22hh\lps22hh_reg.c ****   * @retval          interface status (MANDATORY: return 0 -> no Error)
1596:D:/fchai/work/i-cube/I-CUBE-HUAWEI/Drivers/BSP/Components/lps22hh\lps22hh_reg.c ****   *
1597:D:/fchai/work/i-cube/I-CUBE-HUAWEI/Drivers/BSP/Components/lps22hh\lps22hh_reg.c ****   */
1598:D:/fchai/work/i-cube/I-CUBE-HUAWEI/Drivers/BSP/Components/lps22hh\lps22hh_reg.c **** int32_t lps22hh_fifo_watermark_get(stmdev_ctx_t *ctx, uint8_t *val)
1599:D:/fchai/work/i-cube/I-CUBE-HUAWEI/Drivers/BSP/Components/lps22hh\lps22hh_reg.c **** {
 6159              		.loc 1 1599 1 is_stmt 1 view -0
 6160              		.cfi_startproc
 6161              		@ args = 0, pretend = 0, frame = 8
 6162              		@ frame_needed = 0, uses_anonymous_args = 0
1600:D:/fchai/work/i-cube/I-CUBE-HUAWEI/Drivers/BSP/Components/lps22hh\lps22hh_reg.c ****   lps22hh_fifo_wtm_t reg;
 6163              		.loc 1 1600 3 view .LVU1773
1601:D:/fchai/work/i-cube/I-CUBE-HUAWEI/Drivers/BSP/Components/lps22hh\lps22hh_reg.c ****   int32_t ret;
 6164              		.loc 1 1601 3 view .LVU1774
1602:D:/fchai/work/i-cube/I-CUBE-HUAWEI/Drivers/BSP/Components/lps22hh\lps22hh_reg.c **** 
1603:D:/fchai/work/i-cube/I-CUBE-HUAWEI/Drivers/BSP/Components/lps22hh\lps22hh_reg.c ****   ret = lps22hh_read_reg(ctx, LPS22HH_FIFO_WTM, (uint8_t*) &reg, 1);
 6165              		.loc 1 1603 3 view .LVU1775
1599:D:/fchai/work/i-cube/I-CUBE-HUAWEI/Drivers/BSP/Components/lps22hh\lps22hh_reg.c ****   lps22hh_fifo_wtm_t reg;
 6166              		.loc 1 1599 1 is_stmt 0 view .LVU1776
 6167 0000 30B5     		push	{r4, r5, lr}
 6168              	.LCFI191:
 6169              		.cfi_def_cfa_offset 12
 6170              		.cfi_offset 4, -12
 6171              		.cfi_offset 5, -8
 6172              		.cfi_offset 14, -4
 6173 0002 83B0     		sub	sp, sp, #12
 6174              	.LCFI192:
 6175              		.cfi_def_cfa_offset 24
 6176              	.LVL493:
 6177              	.LBB616:
 6178              	.LBI616:
  49:D:/fchai/work/i-cube/I-CUBE-HUAWEI/Drivers/BSP/Components/lps22hh\lps22hh_reg.c ****                          uint16_t len)
 6179              		.loc 1 49 9 is_stmt 1 view .LVU1777
 6180              	.LBB617:
  52:D:/fchai/work/i-cube/I-CUBE-HUAWEI/Drivers/BSP/Components/lps22hh\lps22hh_reg.c ****   ret = ctx->read_reg(ctx->handle, reg, data, len);
 6181              		.loc 1 52 3 view .LVU1778
  53:D:/fchai/work/i-cube/I-CUBE-HUAWEI/Drivers/BSP/Components/lps22hh\lps22hh_reg.c ****   return ret;
 6182              		.loc 1 53 3 view .LVU1779
 6183              	.LBE617:
 6184              	.LBE616:
1599:D:/fchai/work/i-cube/I-CUBE-HUAWEI/Drivers/BSP/Components/lps22hh\lps22hh_reg.c ****   lps22hh_fifo_wtm_t reg;
 6185              		.loc 1 1599 1 is_stmt 0 view .LVU1780
 6186 0004 0C46     		mov	r4, r1
 6187              	.LBB619:
 6188              	.LBB618:
  53:D:/fchai/work/i-cube/I-CUBE-HUAWEI/Drivers/BSP/Components/lps22hh\lps22hh_reg.c ****   return ret;
ARM GAS  T:\msys\tmp\ccdfMMY7.s 			page 154


 6189              		.loc 1 53 9 view .LVU1781
 6190 0006 D0E90150 		ldrd	r5, r0, [r0, #4]
 6191              	.LVL494:
  53:D:/fchai/work/i-cube/I-CUBE-HUAWEI/Drivers/BSP/Components/lps22hh\lps22hh_reg.c ****   return ret;
 6192              		.loc 1 53 9 view .LVU1782
 6193 000a 0123     		movs	r3, #1
 6194 000c 01AA     		add	r2, sp, #4
 6195              	.LVL495:
  53:D:/fchai/work/i-cube/I-CUBE-HUAWEI/Drivers/BSP/Components/lps22hh\lps22hh_reg.c ****   return ret;
 6196              		.loc 1 53 9 view .LVU1783
 6197 000e 1421     		movs	r1, #20
 6198              	.LVL496:
  53:D:/fchai/work/i-cube/I-CUBE-HUAWEI/Drivers/BSP/Components/lps22hh\lps22hh_reg.c ****   return ret;
 6199              		.loc 1 53 9 view .LVU1784
 6200 0010 A847     		blx	r5
 6201              	.LVL497:
  54:D:/fchai/work/i-cube/I-CUBE-HUAWEI/Drivers/BSP/Components/lps22hh\lps22hh_reg.c **** }
 6202              		.loc 1 54 3 is_stmt 1 view .LVU1785
  54:D:/fchai/work/i-cube/I-CUBE-HUAWEI/Drivers/BSP/Components/lps22hh\lps22hh_reg.c **** }
 6203              		.loc 1 54 3 is_stmt 0 view .LVU1786
 6204              	.LBE618:
 6205              	.LBE619:
1604:D:/fchai/work/i-cube/I-CUBE-HUAWEI/Drivers/BSP/Components/lps22hh\lps22hh_reg.c ****   *val = reg.wtm;
 6206              		.loc 1 1604 3 is_stmt 1 view .LVU1787
 6207              		.loc 1 1604 13 is_stmt 0 view .LVU1788
 6208 0012 9DF80430 		ldrb	r3, [sp, #4]	@ zero_extendqisi2
 6209 0016 C3F30603 		ubfx	r3, r3, #0, #7
 6210              		.loc 1 1604 8 view .LVU1789
 6211 001a 2370     		strb	r3, [r4]
1605:D:/fchai/work/i-cube/I-CUBE-HUAWEI/Drivers/BSP/Components/lps22hh\lps22hh_reg.c **** 
1606:D:/fchai/work/i-cube/I-CUBE-HUAWEI/Drivers/BSP/Components/lps22hh\lps22hh_reg.c ****   return ret;
 6212              		.loc 1 1606 3 is_stmt 1 view .LVU1790
1607:D:/fchai/work/i-cube/I-CUBE-HUAWEI/Drivers/BSP/Components/lps22hh\lps22hh_reg.c **** }
 6213              		.loc 1 1607 1 is_stmt 0 view .LVU1791
 6214 001c 03B0     		add	sp, sp, #12
 6215              	.LCFI193:
 6216              		.cfi_def_cfa_offset 12
 6217              		@ sp needed
 6218 001e 30BD     		pop	{r4, r5, pc}
 6219              		.loc 1 1607 1 view .LVU1792
 6220              		.cfi_endproc
 6221              	.LFE64:
 6223              		.section	.text.lps22hh_fifo_data_level_get,"ax",%progbits
 6224              		.align	1
 6225              		.p2align 2,,3
 6226              		.global	lps22hh_fifo_data_level_get
 6227              		.syntax unified
 6228              		.thumb
 6229              		.thumb_func
 6230              		.fpu fpv4-sp-d16
 6232              	lps22hh_fifo_data_level_get:
 6233              	.LVL498:
 6234              	.LFB65:
1608:D:/fchai/work/i-cube/I-CUBE-HUAWEI/Drivers/BSP/Components/lps22hh\lps22hh_reg.c **** 
1609:D:/fchai/work/i-cube/I-CUBE-HUAWEI/Drivers/BSP/Components/lps22hh\lps22hh_reg.c **** /**
1610:D:/fchai/work/i-cube/I-CUBE-HUAWEI/Drivers/BSP/Components/lps22hh\lps22hh_reg.c ****   * @brief  FIFO stored data level.[get]
1611:D:/fchai/work/i-cube/I-CUBE-HUAWEI/Drivers/BSP/Components/lps22hh\lps22hh_reg.c ****   *
ARM GAS  T:\msys\tmp\ccdfMMY7.s 			page 155


1612:D:/fchai/work/i-cube/I-CUBE-HUAWEI/Drivers/BSP/Components/lps22hh\lps22hh_reg.c ****   * @param  ctx      read / write interface definitions
1613:D:/fchai/work/i-cube/I-CUBE-HUAWEI/Drivers/BSP/Components/lps22hh\lps22hh_reg.c ****   * @param  buff     buffer that stores data read
1614:D:/fchai/work/i-cube/I-CUBE-HUAWEI/Drivers/BSP/Components/lps22hh\lps22hh_reg.c ****   * @retval          interface status (MANDATORY: return 0 -> no Error)
1615:D:/fchai/work/i-cube/I-CUBE-HUAWEI/Drivers/BSP/Components/lps22hh\lps22hh_reg.c ****   *
1616:D:/fchai/work/i-cube/I-CUBE-HUAWEI/Drivers/BSP/Components/lps22hh\lps22hh_reg.c ****   */
1617:D:/fchai/work/i-cube/I-CUBE-HUAWEI/Drivers/BSP/Components/lps22hh\lps22hh_reg.c **** int32_t lps22hh_fifo_data_level_get(stmdev_ctx_t *ctx, uint8_t *buff)
1618:D:/fchai/work/i-cube/I-CUBE-HUAWEI/Drivers/BSP/Components/lps22hh\lps22hh_reg.c **** {
 6235              		.loc 1 1618 1 is_stmt 1 view -0
 6236              		.cfi_startproc
 6237              		@ args = 0, pretend = 0, frame = 0
 6238              		@ frame_needed = 0, uses_anonymous_args = 0
 6239              		@ link register save eliminated.
1619:D:/fchai/work/i-cube/I-CUBE-HUAWEI/Drivers/BSP/Components/lps22hh\lps22hh_reg.c ****   int32_t ret;
 6240              		.loc 1 1619 3 view .LVU1794
1620:D:/fchai/work/i-cube/I-CUBE-HUAWEI/Drivers/BSP/Components/lps22hh\lps22hh_reg.c ****   ret =  lps22hh_read_reg(ctx, LPS22HH_FIFO_STATUS1, buff, 1);
 6241              		.loc 1 1620 3 view .LVU1795
1618:D:/fchai/work/i-cube/I-CUBE-HUAWEI/Drivers/BSP/Components/lps22hh\lps22hh_reg.c ****   int32_t ret;
 6242              		.loc 1 1618 1 is_stmt 0 view .LVU1796
 6243 0000 10B4     		push	{r4}
 6244              	.LCFI194:
 6245              		.cfi_def_cfa_offset 4
 6246              		.cfi_offset 4, -4
 6247              	.LBB620:
 6248              	.LBB621:
  53:D:/fchai/work/i-cube/I-CUBE-HUAWEI/Drivers/BSP/Components/lps22hh\lps22hh_reg.c ****   return ret;
 6249              		.loc 1 53 9 view .LVU1797
 6250 0002 D0E90140 		ldrd	r4, r0, [r0, #4]
 6251              	.LVL499:
  53:D:/fchai/work/i-cube/I-CUBE-HUAWEI/Drivers/BSP/Components/lps22hh\lps22hh_reg.c ****   return ret;
 6252              		.loc 1 53 9 view .LVU1798
 6253              	.LBE621:
 6254              	.LBE620:
1618:D:/fchai/work/i-cube/I-CUBE-HUAWEI/Drivers/BSP/Components/lps22hh\lps22hh_reg.c ****   int32_t ret;
 6255              		.loc 1 1618 1 view .LVU1799
 6256 0006 0A46     		mov	r2, r1
 6257              	.LVL500:
 6258              	.LBB624:
 6259              	.LBI620:
  49:D:/fchai/work/i-cube/I-CUBE-HUAWEI/Drivers/BSP/Components/lps22hh\lps22hh_reg.c ****                          uint16_t len)
 6260              		.loc 1 49 9 is_stmt 1 view .LVU1800
 6261              	.LBB622:
  52:D:/fchai/work/i-cube/I-CUBE-HUAWEI/Drivers/BSP/Components/lps22hh\lps22hh_reg.c ****   ret = ctx->read_reg(ctx->handle, reg, data, len);
 6262              		.loc 1 52 3 view .LVU1801
  53:D:/fchai/work/i-cube/I-CUBE-HUAWEI/Drivers/BSP/Components/lps22hh\lps22hh_reg.c ****   return ret;
 6263              		.loc 1 53 3 view .LVU1802
  53:D:/fchai/work/i-cube/I-CUBE-HUAWEI/Drivers/BSP/Components/lps22hh\lps22hh_reg.c ****   return ret;
 6264              		.loc 1 53 9 is_stmt 0 view .LVU1803
 6265 0008 A446     		mov	ip, r4
 6266 000a 0123     		movs	r3, #1
 6267              	.LBE622:
 6268              	.LBE624:
1621:D:/fchai/work/i-cube/I-CUBE-HUAWEI/Drivers/BSP/Components/lps22hh\lps22hh_reg.c ****   return ret;
1622:D:/fchai/work/i-cube/I-CUBE-HUAWEI/Drivers/BSP/Components/lps22hh\lps22hh_reg.c **** }
 6269              		.loc 1 1622 1 view .LVU1804
 6270 000c 5DF8044B 		ldr	r4, [sp], #4
 6271              	.LCFI195:
 6272              		.cfi_restore 4
ARM GAS  T:\msys\tmp\ccdfMMY7.s 			page 156


 6273              		.cfi_def_cfa_offset 0
 6274              	.LBB625:
 6275              	.LBB623:
  53:D:/fchai/work/i-cube/I-CUBE-HUAWEI/Drivers/BSP/Components/lps22hh\lps22hh_reg.c ****   return ret;
 6276              		.loc 1 53 9 view .LVU1805
 6277 0010 2521     		movs	r1, #37
 6278              	.LVL501:
  53:D:/fchai/work/i-cube/I-CUBE-HUAWEI/Drivers/BSP/Components/lps22hh\lps22hh_reg.c ****   return ret;
 6279              		.loc 1 53 9 view .LVU1806
 6280 0012 6047     		bx	ip
 6281              	.LVL502:
  53:D:/fchai/work/i-cube/I-CUBE-HUAWEI/Drivers/BSP/Components/lps22hh\lps22hh_reg.c ****   return ret;
 6282              		.loc 1 53 9 view .LVU1807
 6283              	.LBE623:
 6284              	.LBE625:
 6285              		.cfi_endproc
 6286              	.LFE65:
 6288              		.section	.text.lps22hh_fifo_src_get,"ax",%progbits
 6289              		.align	1
 6290              		.p2align 2,,3
 6291              		.global	lps22hh_fifo_src_get
 6292              		.syntax unified
 6293              		.thumb
 6294              		.thumb_func
 6295              		.fpu fpv4-sp-d16
 6297              	lps22hh_fifo_src_get:
 6298              	.LVL503:
 6299              	.LFB66:
1623:D:/fchai/work/i-cube/I-CUBE-HUAWEI/Drivers/BSP/Components/lps22hh\lps22hh_reg.c **** 
1624:D:/fchai/work/i-cube/I-CUBE-HUAWEI/Drivers/BSP/Components/lps22hh\lps22hh_reg.c **** /**
1625:D:/fchai/work/i-cube/I-CUBE-HUAWEI/Drivers/BSP/Components/lps22hh\lps22hh_reg.c ****   * @brief  Read all the FIFO status flag of the device.[get]
1626:D:/fchai/work/i-cube/I-CUBE-HUAWEI/Drivers/BSP/Components/lps22hh\lps22hh_reg.c ****   *
1627:D:/fchai/work/i-cube/I-CUBE-HUAWEI/Drivers/BSP/Components/lps22hh\lps22hh_reg.c ****   * @param  ctx      read / write interface definitions
1628:D:/fchai/work/i-cube/I-CUBE-HUAWEI/Drivers/BSP/Components/lps22hh\lps22hh_reg.c ****   * @param  val      registers FIFO_STATUS2
1629:D:/fchai/work/i-cube/I-CUBE-HUAWEI/Drivers/BSP/Components/lps22hh\lps22hh_reg.c ****   * @retval          interface status (MANDATORY: return 0 -> no Error)
1630:D:/fchai/work/i-cube/I-CUBE-HUAWEI/Drivers/BSP/Components/lps22hh\lps22hh_reg.c ****   *
1631:D:/fchai/work/i-cube/I-CUBE-HUAWEI/Drivers/BSP/Components/lps22hh\lps22hh_reg.c ****   */
1632:D:/fchai/work/i-cube/I-CUBE-HUAWEI/Drivers/BSP/Components/lps22hh\lps22hh_reg.c **** int32_t lps22hh_fifo_src_get(stmdev_ctx_t *ctx, lps22hh_fifo_status2_t *val)
1633:D:/fchai/work/i-cube/I-CUBE-HUAWEI/Drivers/BSP/Components/lps22hh\lps22hh_reg.c **** {
 6300              		.loc 1 1633 1 is_stmt 1 view -0
 6301              		.cfi_startproc
 6302              		@ args = 0, pretend = 0, frame = 0
 6303              		@ frame_needed = 0, uses_anonymous_args = 0
 6304              		@ link register save eliminated.
1634:D:/fchai/work/i-cube/I-CUBE-HUAWEI/Drivers/BSP/Components/lps22hh\lps22hh_reg.c ****   int32_t ret;
 6305              		.loc 1 1634 3 view .LVU1809
1635:D:/fchai/work/i-cube/I-CUBE-HUAWEI/Drivers/BSP/Components/lps22hh\lps22hh_reg.c ****   ret =  lps22hh_read_reg(ctx, LPS22HH_FIFO_STATUS2, (uint8_t*) val, 1);
 6306              		.loc 1 1635 3 view .LVU1810
1633:D:/fchai/work/i-cube/I-CUBE-HUAWEI/Drivers/BSP/Components/lps22hh\lps22hh_reg.c ****   int32_t ret;
 6307              		.loc 1 1633 1 is_stmt 0 view .LVU1811
 6308 0000 10B4     		push	{r4}
 6309              	.LCFI196:
 6310              		.cfi_def_cfa_offset 4
 6311              		.cfi_offset 4, -4
 6312              	.LBB626:
 6313              	.LBB627:
  53:D:/fchai/work/i-cube/I-CUBE-HUAWEI/Drivers/BSP/Components/lps22hh\lps22hh_reg.c ****   return ret;
ARM GAS  T:\msys\tmp\ccdfMMY7.s 			page 157


 6314              		.loc 1 53 9 view .LVU1812
 6315 0002 D0E90140 		ldrd	r4, r0, [r0, #4]
 6316              	.LVL504:
  53:D:/fchai/work/i-cube/I-CUBE-HUAWEI/Drivers/BSP/Components/lps22hh\lps22hh_reg.c ****   return ret;
 6317              		.loc 1 53 9 view .LVU1813
 6318              	.LBE627:
 6319              	.LBE626:
1633:D:/fchai/work/i-cube/I-CUBE-HUAWEI/Drivers/BSP/Components/lps22hh\lps22hh_reg.c ****   int32_t ret;
 6320              		.loc 1 1633 1 view .LVU1814
 6321 0006 0A46     		mov	r2, r1
 6322              	.LVL505:
 6323              	.LBB630:
 6324              	.LBI626:
  49:D:/fchai/work/i-cube/I-CUBE-HUAWEI/Drivers/BSP/Components/lps22hh\lps22hh_reg.c ****                          uint16_t len)
 6325              		.loc 1 49 9 is_stmt 1 view .LVU1815
 6326              	.LBB628:
  52:D:/fchai/work/i-cube/I-CUBE-HUAWEI/Drivers/BSP/Components/lps22hh\lps22hh_reg.c ****   ret = ctx->read_reg(ctx->handle, reg, data, len);
 6327              		.loc 1 52 3 view .LVU1816
  53:D:/fchai/work/i-cube/I-CUBE-HUAWEI/Drivers/BSP/Components/lps22hh\lps22hh_reg.c ****   return ret;
 6328              		.loc 1 53 3 view .LVU1817
  53:D:/fchai/work/i-cube/I-CUBE-HUAWEI/Drivers/BSP/Components/lps22hh\lps22hh_reg.c ****   return ret;
 6329              		.loc 1 53 9 is_stmt 0 view .LVU1818
 6330 0008 A446     		mov	ip, r4
 6331 000a 0123     		movs	r3, #1
 6332              	.LBE628:
 6333              	.LBE630:
1636:D:/fchai/work/i-cube/I-CUBE-HUAWEI/Drivers/BSP/Components/lps22hh\lps22hh_reg.c ****   return ret;
1637:D:/fchai/work/i-cube/I-CUBE-HUAWEI/Drivers/BSP/Components/lps22hh\lps22hh_reg.c **** }
 6334              		.loc 1 1637 1 view .LVU1819
 6335 000c 5DF8044B 		ldr	r4, [sp], #4
 6336              	.LCFI197:
 6337              		.cfi_restore 4
 6338              		.cfi_def_cfa_offset 0
 6339              	.LBB631:
 6340              	.LBB629:
  53:D:/fchai/work/i-cube/I-CUBE-HUAWEI/Drivers/BSP/Components/lps22hh\lps22hh_reg.c ****   return ret;
 6341              		.loc 1 53 9 view .LVU1820
 6342 0010 2621     		movs	r1, #38
 6343              	.LVL506:
  53:D:/fchai/work/i-cube/I-CUBE-HUAWEI/Drivers/BSP/Components/lps22hh\lps22hh_reg.c ****   return ret;
 6344              		.loc 1 53 9 view .LVU1821
 6345 0012 6047     		bx	ip
 6346              	.LVL507:
  53:D:/fchai/work/i-cube/I-CUBE-HUAWEI/Drivers/BSP/Components/lps22hh\lps22hh_reg.c ****   return ret;
 6347              		.loc 1 53 9 view .LVU1822
 6348              	.LBE629:
 6349              	.LBE631:
 6350              		.cfi_endproc
 6351              	.LFE66:
 6353              		.section	.text.lps22hh_fifo_full_flag_get,"ax",%progbits
 6354              		.align	1
 6355              		.p2align 2,,3
 6356              		.global	lps22hh_fifo_full_flag_get
 6357              		.syntax unified
 6358              		.thumb
 6359              		.thumb_func
 6360              		.fpu fpv4-sp-d16
ARM GAS  T:\msys\tmp\ccdfMMY7.s 			page 158


 6362              	lps22hh_fifo_full_flag_get:
 6363              	.LVL508:
 6364              	.LFB67:
1638:D:/fchai/work/i-cube/I-CUBE-HUAWEI/Drivers/BSP/Components/lps22hh\lps22hh_reg.c **** 
1639:D:/fchai/work/i-cube/I-CUBE-HUAWEI/Drivers/BSP/Components/lps22hh\lps22hh_reg.c **** /**
1640:D:/fchai/work/i-cube/I-CUBE-HUAWEI/Drivers/BSP/Components/lps22hh\lps22hh_reg.c ****   * @brief  Smart FIFO full status.[get]
1641:D:/fchai/work/i-cube/I-CUBE-HUAWEI/Drivers/BSP/Components/lps22hh\lps22hh_reg.c ****   *
1642:D:/fchai/work/i-cube/I-CUBE-HUAWEI/Drivers/BSP/Components/lps22hh\lps22hh_reg.c ****   * @param  ctx      read / write interface definitions
1643:D:/fchai/work/i-cube/I-CUBE-HUAWEI/Drivers/BSP/Components/lps22hh\lps22hh_reg.c ****   * @param  val      change the values of fifo_full_ia in reg FIFO_STATUS2
1644:D:/fchai/work/i-cube/I-CUBE-HUAWEI/Drivers/BSP/Components/lps22hh\lps22hh_reg.c ****   * @retval          interface status (MANDATORY: return 0 -> no Error)
1645:D:/fchai/work/i-cube/I-CUBE-HUAWEI/Drivers/BSP/Components/lps22hh\lps22hh_reg.c ****   *
1646:D:/fchai/work/i-cube/I-CUBE-HUAWEI/Drivers/BSP/Components/lps22hh\lps22hh_reg.c ****   */
1647:D:/fchai/work/i-cube/I-CUBE-HUAWEI/Drivers/BSP/Components/lps22hh\lps22hh_reg.c **** int32_t lps22hh_fifo_full_flag_get(stmdev_ctx_t *ctx, uint8_t *val)
1648:D:/fchai/work/i-cube/I-CUBE-HUAWEI/Drivers/BSP/Components/lps22hh\lps22hh_reg.c **** {
 6365              		.loc 1 1648 1 is_stmt 1 view -0
 6366              		.cfi_startproc
 6367              		@ args = 0, pretend = 0, frame = 8
 6368              		@ frame_needed = 0, uses_anonymous_args = 0
1649:D:/fchai/work/i-cube/I-CUBE-HUAWEI/Drivers/BSP/Components/lps22hh\lps22hh_reg.c ****   lps22hh_fifo_status2_t reg;
 6369              		.loc 1 1649 3 view .LVU1824
1650:D:/fchai/work/i-cube/I-CUBE-HUAWEI/Drivers/BSP/Components/lps22hh\lps22hh_reg.c ****   int32_t ret;
 6370              		.loc 1 1650 3 view .LVU1825
1651:D:/fchai/work/i-cube/I-CUBE-HUAWEI/Drivers/BSP/Components/lps22hh\lps22hh_reg.c **** 
1652:D:/fchai/work/i-cube/I-CUBE-HUAWEI/Drivers/BSP/Components/lps22hh\lps22hh_reg.c ****   ret = lps22hh_read_reg(ctx, LPS22HH_FIFO_STATUS2, (uint8_t*) &reg, 1);
 6371              		.loc 1 1652 3 view .LVU1826
1648:D:/fchai/work/i-cube/I-CUBE-HUAWEI/Drivers/BSP/Components/lps22hh\lps22hh_reg.c ****   lps22hh_fifo_status2_t reg;
 6372              		.loc 1 1648 1 is_stmt 0 view .LVU1827
 6373 0000 30B5     		push	{r4, r5, lr}
 6374              	.LCFI198:
 6375              		.cfi_def_cfa_offset 12
 6376              		.cfi_offset 4, -12
 6377              		.cfi_offset 5, -8
 6378              		.cfi_offset 14, -4
 6379 0002 83B0     		sub	sp, sp, #12
 6380              	.LCFI199:
 6381              		.cfi_def_cfa_offset 24
 6382              	.LVL509:
 6383              	.LBB632:
 6384              	.LBI632:
  49:D:/fchai/work/i-cube/I-CUBE-HUAWEI/Drivers/BSP/Components/lps22hh\lps22hh_reg.c ****                          uint16_t len)
 6385              		.loc 1 49 9 is_stmt 1 view .LVU1828
 6386              	.LBB633:
  52:D:/fchai/work/i-cube/I-CUBE-HUAWEI/Drivers/BSP/Components/lps22hh\lps22hh_reg.c ****   ret = ctx->read_reg(ctx->handle, reg, data, len);
 6387              		.loc 1 52 3 view .LVU1829
  53:D:/fchai/work/i-cube/I-CUBE-HUAWEI/Drivers/BSP/Components/lps22hh\lps22hh_reg.c ****   return ret;
 6388              		.loc 1 53 3 view .LVU1830
 6389              	.LBE633:
 6390              	.LBE632:
1648:D:/fchai/work/i-cube/I-CUBE-HUAWEI/Drivers/BSP/Components/lps22hh\lps22hh_reg.c ****   lps22hh_fifo_status2_t reg;
 6391              		.loc 1 1648 1 is_stmt 0 view .LVU1831
 6392 0004 0C46     		mov	r4, r1
 6393              	.LBB635:
 6394              	.LBB634:
  53:D:/fchai/work/i-cube/I-CUBE-HUAWEI/Drivers/BSP/Components/lps22hh\lps22hh_reg.c ****   return ret;
 6395              		.loc 1 53 9 view .LVU1832
 6396 0006 D0E90150 		ldrd	r5, r0, [r0, #4]
 6397              	.LVL510:
ARM GAS  T:\msys\tmp\ccdfMMY7.s 			page 159


  53:D:/fchai/work/i-cube/I-CUBE-HUAWEI/Drivers/BSP/Components/lps22hh\lps22hh_reg.c ****   return ret;
 6398              		.loc 1 53 9 view .LVU1833
 6399 000a 0123     		movs	r3, #1
 6400 000c 01AA     		add	r2, sp, #4
 6401              	.LVL511:
  53:D:/fchai/work/i-cube/I-CUBE-HUAWEI/Drivers/BSP/Components/lps22hh\lps22hh_reg.c ****   return ret;
 6402              		.loc 1 53 9 view .LVU1834
 6403 000e 2621     		movs	r1, #38
 6404              	.LVL512:
  53:D:/fchai/work/i-cube/I-CUBE-HUAWEI/Drivers/BSP/Components/lps22hh\lps22hh_reg.c ****   return ret;
 6405              		.loc 1 53 9 view .LVU1835
 6406 0010 A847     		blx	r5
 6407              	.LVL513:
  54:D:/fchai/work/i-cube/I-CUBE-HUAWEI/Drivers/BSP/Components/lps22hh\lps22hh_reg.c **** }
 6408              		.loc 1 54 3 is_stmt 1 view .LVU1836
  54:D:/fchai/work/i-cube/I-CUBE-HUAWEI/Drivers/BSP/Components/lps22hh\lps22hh_reg.c **** }
 6409              		.loc 1 54 3 is_stmt 0 view .LVU1837
 6410              	.LBE634:
 6411              	.LBE635:
1653:D:/fchai/work/i-cube/I-CUBE-HUAWEI/Drivers/BSP/Components/lps22hh\lps22hh_reg.c ****   *val = reg.fifo_full_ia;
 6412              		.loc 1 1653 3 is_stmt 1 view .LVU1838
 6413              		.loc 1 1653 13 is_stmt 0 view .LVU1839
 6414 0012 9DF80430 		ldrb	r3, [sp, #4]	@ zero_extendqisi2
 6415 0016 C3F34013 		ubfx	r3, r3, #5, #1
 6416              		.loc 1 1653 8 view .LVU1840
 6417 001a 2370     		strb	r3, [r4]
1654:D:/fchai/work/i-cube/I-CUBE-HUAWEI/Drivers/BSP/Components/lps22hh\lps22hh_reg.c **** 
1655:D:/fchai/work/i-cube/I-CUBE-HUAWEI/Drivers/BSP/Components/lps22hh\lps22hh_reg.c ****   return ret;
 6418              		.loc 1 1655 3 is_stmt 1 view .LVU1841
1656:D:/fchai/work/i-cube/I-CUBE-HUAWEI/Drivers/BSP/Components/lps22hh\lps22hh_reg.c **** }
 6419              		.loc 1 1656 1 is_stmt 0 view .LVU1842
 6420 001c 03B0     		add	sp, sp, #12
 6421              	.LCFI200:
 6422              		.cfi_def_cfa_offset 12
 6423              		@ sp needed
 6424 001e 30BD     		pop	{r4, r5, pc}
 6425              		.loc 1 1656 1 view .LVU1843
 6426              		.cfi_endproc
 6427              	.LFE67:
 6429              		.section	.text.lps22hh_fifo_ovr_flag_get,"ax",%progbits
 6430              		.align	1
 6431              		.p2align 2,,3
 6432              		.global	lps22hh_fifo_ovr_flag_get
 6433              		.syntax unified
 6434              		.thumb
 6435              		.thumb_func
 6436              		.fpu fpv4-sp-d16
 6438              	lps22hh_fifo_ovr_flag_get:
 6439              	.LVL514:
 6440              	.LFB68:
1657:D:/fchai/work/i-cube/I-CUBE-HUAWEI/Drivers/BSP/Components/lps22hh\lps22hh_reg.c **** 
1658:D:/fchai/work/i-cube/I-CUBE-HUAWEI/Drivers/BSP/Components/lps22hh\lps22hh_reg.c **** /**
1659:D:/fchai/work/i-cube/I-CUBE-HUAWEI/Drivers/BSP/Components/lps22hh\lps22hh_reg.c ****   * @brief  FIFO overrun status.[get]
1660:D:/fchai/work/i-cube/I-CUBE-HUAWEI/Drivers/BSP/Components/lps22hh\lps22hh_reg.c ****   *
1661:D:/fchai/work/i-cube/I-CUBE-HUAWEI/Drivers/BSP/Components/lps22hh\lps22hh_reg.c ****   * @param  ctx      read / write interface definitions
1662:D:/fchai/work/i-cube/I-CUBE-HUAWEI/Drivers/BSP/Components/lps22hh\lps22hh_reg.c ****   * @param  val      change the values of fifo_ovr_ia in reg FIFO_STATUS2
1663:D:/fchai/work/i-cube/I-CUBE-HUAWEI/Drivers/BSP/Components/lps22hh\lps22hh_reg.c ****   * @retval          interface status (MANDATORY: return 0 -> no Error)
ARM GAS  T:\msys\tmp\ccdfMMY7.s 			page 160


1664:D:/fchai/work/i-cube/I-CUBE-HUAWEI/Drivers/BSP/Components/lps22hh\lps22hh_reg.c ****   *
1665:D:/fchai/work/i-cube/I-CUBE-HUAWEI/Drivers/BSP/Components/lps22hh\lps22hh_reg.c ****   */
1666:D:/fchai/work/i-cube/I-CUBE-HUAWEI/Drivers/BSP/Components/lps22hh\lps22hh_reg.c **** int32_t lps22hh_fifo_ovr_flag_get(stmdev_ctx_t *ctx, uint8_t *val)
1667:D:/fchai/work/i-cube/I-CUBE-HUAWEI/Drivers/BSP/Components/lps22hh\lps22hh_reg.c **** {
 6441              		.loc 1 1667 1 is_stmt 1 view -0
 6442              		.cfi_startproc
 6443              		@ args = 0, pretend = 0, frame = 8
 6444              		@ frame_needed = 0, uses_anonymous_args = 0
1668:D:/fchai/work/i-cube/I-CUBE-HUAWEI/Drivers/BSP/Components/lps22hh\lps22hh_reg.c ****   lps22hh_fifo_status2_t reg;
 6445              		.loc 1 1668 3 view .LVU1845
1669:D:/fchai/work/i-cube/I-CUBE-HUAWEI/Drivers/BSP/Components/lps22hh\lps22hh_reg.c ****   int32_t ret;
 6446              		.loc 1 1669 3 view .LVU1846
1670:D:/fchai/work/i-cube/I-CUBE-HUAWEI/Drivers/BSP/Components/lps22hh\lps22hh_reg.c **** 
1671:D:/fchai/work/i-cube/I-CUBE-HUAWEI/Drivers/BSP/Components/lps22hh\lps22hh_reg.c ****   ret = lps22hh_read_reg(ctx, LPS22HH_FIFO_STATUS2, (uint8_t*) &reg, 1);
 6447              		.loc 1 1671 3 view .LVU1847
1667:D:/fchai/work/i-cube/I-CUBE-HUAWEI/Drivers/BSP/Components/lps22hh\lps22hh_reg.c ****   lps22hh_fifo_status2_t reg;
 6448              		.loc 1 1667 1 is_stmt 0 view .LVU1848
 6449 0000 30B5     		push	{r4, r5, lr}
 6450              	.LCFI201:
 6451              		.cfi_def_cfa_offset 12
 6452              		.cfi_offset 4, -12
 6453              		.cfi_offset 5, -8
 6454              		.cfi_offset 14, -4
 6455 0002 83B0     		sub	sp, sp, #12
 6456              	.LCFI202:
 6457              		.cfi_def_cfa_offset 24
 6458              	.LVL515:
 6459              	.LBB636:
 6460              	.LBI636:
  49:D:/fchai/work/i-cube/I-CUBE-HUAWEI/Drivers/BSP/Components/lps22hh\lps22hh_reg.c ****                          uint16_t len)
 6461              		.loc 1 49 9 is_stmt 1 view .LVU1849
 6462              	.LBB637:
  52:D:/fchai/work/i-cube/I-CUBE-HUAWEI/Drivers/BSP/Components/lps22hh\lps22hh_reg.c ****   ret = ctx->read_reg(ctx->handle, reg, data, len);
 6463              		.loc 1 52 3 view .LVU1850
  53:D:/fchai/work/i-cube/I-CUBE-HUAWEI/Drivers/BSP/Components/lps22hh\lps22hh_reg.c ****   return ret;
 6464              		.loc 1 53 3 view .LVU1851
 6465              	.LBE637:
 6466              	.LBE636:
1667:D:/fchai/work/i-cube/I-CUBE-HUAWEI/Drivers/BSP/Components/lps22hh\lps22hh_reg.c ****   lps22hh_fifo_status2_t reg;
 6467              		.loc 1 1667 1 is_stmt 0 view .LVU1852
 6468 0004 0C46     		mov	r4, r1
 6469              	.LBB639:
 6470              	.LBB638:
  53:D:/fchai/work/i-cube/I-CUBE-HUAWEI/Drivers/BSP/Components/lps22hh\lps22hh_reg.c ****   return ret;
 6471              		.loc 1 53 9 view .LVU1853
 6472 0006 D0E90150 		ldrd	r5, r0, [r0, #4]
 6473              	.LVL516:
  53:D:/fchai/work/i-cube/I-CUBE-HUAWEI/Drivers/BSP/Components/lps22hh\lps22hh_reg.c ****   return ret;
 6474              		.loc 1 53 9 view .LVU1854
 6475 000a 0123     		movs	r3, #1
 6476 000c 01AA     		add	r2, sp, #4
 6477              	.LVL517:
  53:D:/fchai/work/i-cube/I-CUBE-HUAWEI/Drivers/BSP/Components/lps22hh\lps22hh_reg.c ****   return ret;
 6478              		.loc 1 53 9 view .LVU1855
 6479 000e 2621     		movs	r1, #38
 6480              	.LVL518:
  53:D:/fchai/work/i-cube/I-CUBE-HUAWEI/Drivers/BSP/Components/lps22hh\lps22hh_reg.c ****   return ret;
ARM GAS  T:\msys\tmp\ccdfMMY7.s 			page 161


 6481              		.loc 1 53 9 view .LVU1856
 6482 0010 A847     		blx	r5
 6483              	.LVL519:
  54:D:/fchai/work/i-cube/I-CUBE-HUAWEI/Drivers/BSP/Components/lps22hh\lps22hh_reg.c **** }
 6484              		.loc 1 54 3 is_stmt 1 view .LVU1857
  54:D:/fchai/work/i-cube/I-CUBE-HUAWEI/Drivers/BSP/Components/lps22hh\lps22hh_reg.c **** }
 6485              		.loc 1 54 3 is_stmt 0 view .LVU1858
 6486              	.LBE638:
 6487              	.LBE639:
1672:D:/fchai/work/i-cube/I-CUBE-HUAWEI/Drivers/BSP/Components/lps22hh\lps22hh_reg.c ****   *val = reg.fifo_ovr_ia;
 6488              		.loc 1 1672 3 is_stmt 1 view .LVU1859
 6489              		.loc 1 1672 13 is_stmt 0 view .LVU1860
 6490 0012 9DF80430 		ldrb	r3, [sp, #4]	@ zero_extendqisi2
 6491 0016 C3F38013 		ubfx	r3, r3, #6, #1
 6492              		.loc 1 1672 8 view .LVU1861
 6493 001a 2370     		strb	r3, [r4]
1673:D:/fchai/work/i-cube/I-CUBE-HUAWEI/Drivers/BSP/Components/lps22hh\lps22hh_reg.c **** 
1674:D:/fchai/work/i-cube/I-CUBE-HUAWEI/Drivers/BSP/Components/lps22hh\lps22hh_reg.c ****   return ret;
 6494              		.loc 1 1674 3 is_stmt 1 view .LVU1862
1675:D:/fchai/work/i-cube/I-CUBE-HUAWEI/Drivers/BSP/Components/lps22hh\lps22hh_reg.c **** }
 6495              		.loc 1 1675 1 is_stmt 0 view .LVU1863
 6496 001c 03B0     		add	sp, sp, #12
 6497              	.LCFI203:
 6498              		.cfi_def_cfa_offset 12
 6499              		@ sp needed
 6500 001e 30BD     		pop	{r4, r5, pc}
 6501              		.loc 1 1675 1 view .LVU1864
 6502              		.cfi_endproc
 6503              	.LFE68:
 6505              		.section	.text.lps22hh_fifo_wtm_flag_get,"ax",%progbits
 6506              		.align	1
 6507              		.p2align 2,,3
 6508              		.global	lps22hh_fifo_wtm_flag_get
 6509              		.syntax unified
 6510              		.thumb
 6511              		.thumb_func
 6512              		.fpu fpv4-sp-d16
 6514              	lps22hh_fifo_wtm_flag_get:
 6515              	.LVL520:
 6516              	.LFB69:
1676:D:/fchai/work/i-cube/I-CUBE-HUAWEI/Drivers/BSP/Components/lps22hh\lps22hh_reg.c **** 
1677:D:/fchai/work/i-cube/I-CUBE-HUAWEI/Drivers/BSP/Components/lps22hh\lps22hh_reg.c **** /**
1678:D:/fchai/work/i-cube/I-CUBE-HUAWEI/Drivers/BSP/Components/lps22hh\lps22hh_reg.c ****   * @brief  FIFO watermark status.[get]
1679:D:/fchai/work/i-cube/I-CUBE-HUAWEI/Drivers/BSP/Components/lps22hh\lps22hh_reg.c ****   *
1680:D:/fchai/work/i-cube/I-CUBE-HUAWEI/Drivers/BSP/Components/lps22hh\lps22hh_reg.c ****   * @param  ctx      read / write interface definitions
1681:D:/fchai/work/i-cube/I-CUBE-HUAWEI/Drivers/BSP/Components/lps22hh\lps22hh_reg.c ****   * @param  val      change the values of fifo_wtm_ia in reg FIFO_STATUS2
1682:D:/fchai/work/i-cube/I-CUBE-HUAWEI/Drivers/BSP/Components/lps22hh\lps22hh_reg.c ****   * @retval          interface status (MANDATORY: return 0 -> no Error)
1683:D:/fchai/work/i-cube/I-CUBE-HUAWEI/Drivers/BSP/Components/lps22hh\lps22hh_reg.c ****   *
1684:D:/fchai/work/i-cube/I-CUBE-HUAWEI/Drivers/BSP/Components/lps22hh\lps22hh_reg.c ****   */
1685:D:/fchai/work/i-cube/I-CUBE-HUAWEI/Drivers/BSP/Components/lps22hh\lps22hh_reg.c **** int32_t lps22hh_fifo_wtm_flag_get(stmdev_ctx_t *ctx, uint8_t *val)
1686:D:/fchai/work/i-cube/I-CUBE-HUAWEI/Drivers/BSP/Components/lps22hh\lps22hh_reg.c **** {
 6517              		.loc 1 1686 1 is_stmt 1 view -0
 6518              		.cfi_startproc
 6519              		@ args = 0, pretend = 0, frame = 8
 6520              		@ frame_needed = 0, uses_anonymous_args = 0
1687:D:/fchai/work/i-cube/I-CUBE-HUAWEI/Drivers/BSP/Components/lps22hh\lps22hh_reg.c ****   lps22hh_fifo_status2_t reg;
 6521              		.loc 1 1687 3 view .LVU1866
ARM GAS  T:\msys\tmp\ccdfMMY7.s 			page 162


1688:D:/fchai/work/i-cube/I-CUBE-HUAWEI/Drivers/BSP/Components/lps22hh\lps22hh_reg.c ****   int32_t ret;
 6522              		.loc 1 1688 3 view .LVU1867
1689:D:/fchai/work/i-cube/I-CUBE-HUAWEI/Drivers/BSP/Components/lps22hh\lps22hh_reg.c **** 
1690:D:/fchai/work/i-cube/I-CUBE-HUAWEI/Drivers/BSP/Components/lps22hh\lps22hh_reg.c ****   ret = lps22hh_read_reg(ctx, LPS22HH_FIFO_STATUS2, (uint8_t*)&reg, 1);
 6523              		.loc 1 1690 3 view .LVU1868
1686:D:/fchai/work/i-cube/I-CUBE-HUAWEI/Drivers/BSP/Components/lps22hh\lps22hh_reg.c ****   lps22hh_fifo_status2_t reg;
 6524              		.loc 1 1686 1 is_stmt 0 view .LVU1869
 6525 0000 30B5     		push	{r4, r5, lr}
 6526              	.LCFI204:
 6527              		.cfi_def_cfa_offset 12
 6528              		.cfi_offset 4, -12
 6529              		.cfi_offset 5, -8
 6530              		.cfi_offset 14, -4
 6531 0002 83B0     		sub	sp, sp, #12
 6532              	.LCFI205:
 6533              		.cfi_def_cfa_offset 24
 6534              	.LVL521:
 6535              	.LBB640:
 6536              	.LBI640:
  49:D:/fchai/work/i-cube/I-CUBE-HUAWEI/Drivers/BSP/Components/lps22hh\lps22hh_reg.c ****                          uint16_t len)
 6537              		.loc 1 49 9 is_stmt 1 view .LVU1870
 6538              	.LBB641:
  52:D:/fchai/work/i-cube/I-CUBE-HUAWEI/Drivers/BSP/Components/lps22hh\lps22hh_reg.c ****   ret = ctx->read_reg(ctx->handle, reg, data, len);
 6539              		.loc 1 52 3 view .LVU1871
  53:D:/fchai/work/i-cube/I-CUBE-HUAWEI/Drivers/BSP/Components/lps22hh\lps22hh_reg.c ****   return ret;
 6540              		.loc 1 53 3 view .LVU1872
 6541              	.LBE641:
 6542              	.LBE640:
1686:D:/fchai/work/i-cube/I-CUBE-HUAWEI/Drivers/BSP/Components/lps22hh\lps22hh_reg.c ****   lps22hh_fifo_status2_t reg;
 6543              		.loc 1 1686 1 is_stmt 0 view .LVU1873
 6544 0004 0C46     		mov	r4, r1
 6545              	.LBB643:
 6546              	.LBB642:
  53:D:/fchai/work/i-cube/I-CUBE-HUAWEI/Drivers/BSP/Components/lps22hh\lps22hh_reg.c ****   return ret;
 6547              		.loc 1 53 9 view .LVU1874
 6548 0006 D0E90150 		ldrd	r5, r0, [r0, #4]
 6549              	.LVL522:
  53:D:/fchai/work/i-cube/I-CUBE-HUAWEI/Drivers/BSP/Components/lps22hh\lps22hh_reg.c ****   return ret;
 6550              		.loc 1 53 9 view .LVU1875
 6551 000a 0123     		movs	r3, #1
 6552 000c 01AA     		add	r2, sp, #4
 6553              	.LVL523:
  53:D:/fchai/work/i-cube/I-CUBE-HUAWEI/Drivers/BSP/Components/lps22hh\lps22hh_reg.c ****   return ret;
 6554              		.loc 1 53 9 view .LVU1876
 6555 000e 2621     		movs	r1, #38
 6556              	.LVL524:
  53:D:/fchai/work/i-cube/I-CUBE-HUAWEI/Drivers/BSP/Components/lps22hh\lps22hh_reg.c ****   return ret;
 6557              		.loc 1 53 9 view .LVU1877
 6558 0010 A847     		blx	r5
 6559              	.LVL525:
  54:D:/fchai/work/i-cube/I-CUBE-HUAWEI/Drivers/BSP/Components/lps22hh\lps22hh_reg.c **** }
 6560              		.loc 1 54 3 is_stmt 1 view .LVU1878
  54:D:/fchai/work/i-cube/I-CUBE-HUAWEI/Drivers/BSP/Components/lps22hh\lps22hh_reg.c **** }
 6561              		.loc 1 54 3 is_stmt 0 view .LVU1879
 6562              	.LBE642:
 6563              	.LBE643:
1691:D:/fchai/work/i-cube/I-CUBE-HUAWEI/Drivers/BSP/Components/lps22hh\lps22hh_reg.c ****   *val = reg.fifo_wtm_ia;
ARM GAS  T:\msys\tmp\ccdfMMY7.s 			page 163


 6564              		.loc 1 1691 3 is_stmt 1 view .LVU1880
 6565              		.loc 1 1691 13 is_stmt 0 view .LVU1881
 6566 0012 9DF80430 		ldrb	r3, [sp, #4]	@ zero_extendqisi2
 6567 0016 C3F3C013 		ubfx	r3, r3, #7, #1
 6568              		.loc 1 1691 8 view .LVU1882
 6569 001a 2370     		strb	r3, [r4]
1692:D:/fchai/work/i-cube/I-CUBE-HUAWEI/Drivers/BSP/Components/lps22hh\lps22hh_reg.c **** 
1693:D:/fchai/work/i-cube/I-CUBE-HUAWEI/Drivers/BSP/Components/lps22hh\lps22hh_reg.c ****   return ret;
 6570              		.loc 1 1693 3 is_stmt 1 view .LVU1883
1694:D:/fchai/work/i-cube/I-CUBE-HUAWEI/Drivers/BSP/Components/lps22hh\lps22hh_reg.c **** }
 6571              		.loc 1 1694 1 is_stmt 0 view .LVU1884
 6572 001c 03B0     		add	sp, sp, #12
 6573              	.LCFI206:
 6574              		.cfi_def_cfa_offset 12
 6575              		@ sp needed
 6576 001e 30BD     		pop	{r4, r5, pc}
 6577              		.loc 1 1694 1 view .LVU1885
 6578              		.cfi_endproc
 6579              	.LFE69:
 6581              		.section	.text.lps22hh_fifo_ovr_on_int_set,"ax",%progbits
 6582              		.align	1
 6583              		.p2align 2,,3
 6584              		.global	lps22hh_fifo_ovr_on_int_set
 6585              		.syntax unified
 6586              		.thumb
 6587              		.thumb_func
 6588              		.fpu fpv4-sp-d16
 6590              	lps22hh_fifo_ovr_on_int_set:
 6591              	.LVL526:
 6592              	.LFB70:
1695:D:/fchai/work/i-cube/I-CUBE-HUAWEI/Drivers/BSP/Components/lps22hh\lps22hh_reg.c **** 
1696:D:/fchai/work/i-cube/I-CUBE-HUAWEI/Drivers/BSP/Components/lps22hh\lps22hh_reg.c **** /**
1697:D:/fchai/work/i-cube/I-CUBE-HUAWEI/Drivers/BSP/Components/lps22hh\lps22hh_reg.c ****   * @brief  FIFO overrun interrupt on INT_DRDY pin.[set]
1698:D:/fchai/work/i-cube/I-CUBE-HUAWEI/Drivers/BSP/Components/lps22hh\lps22hh_reg.c ****   *
1699:D:/fchai/work/i-cube/I-CUBE-HUAWEI/Drivers/BSP/Components/lps22hh\lps22hh_reg.c ****   * @param  stmdev_ctx_t *ctx: read / write interface definitions
1700:D:/fchai/work/i-cube/I-CUBE-HUAWEI/Drivers/BSP/Components/lps22hh\lps22hh_reg.c ****   * @param  uint8_t val: change the values of f_ovr in reg CTRL_REG3
1701:D:/fchai/work/i-cube/I-CUBE-HUAWEI/Drivers/BSP/Components/lps22hh\lps22hh_reg.c ****   *
1702:D:/fchai/work/i-cube/I-CUBE-HUAWEI/Drivers/BSP/Components/lps22hh\lps22hh_reg.c ****   */
1703:D:/fchai/work/i-cube/I-CUBE-HUAWEI/Drivers/BSP/Components/lps22hh\lps22hh_reg.c **** int32_t lps22hh_fifo_ovr_on_int_set(stmdev_ctx_t *ctx, uint8_t val)
1704:D:/fchai/work/i-cube/I-CUBE-HUAWEI/Drivers/BSP/Components/lps22hh\lps22hh_reg.c **** {
 6593              		.loc 1 1704 1 is_stmt 1 view -0
 6594              		.cfi_startproc
 6595              		@ args = 0, pretend = 0, frame = 8
 6596              		@ frame_needed = 0, uses_anonymous_args = 0
1705:D:/fchai/work/i-cube/I-CUBE-HUAWEI/Drivers/BSP/Components/lps22hh\lps22hh_reg.c ****   lps22hh_ctrl_reg3_t reg;
 6597              		.loc 1 1705 3 view .LVU1887
1706:D:/fchai/work/i-cube/I-CUBE-HUAWEI/Drivers/BSP/Components/lps22hh\lps22hh_reg.c ****   int32_t ret;
 6598              		.loc 1 1706 3 view .LVU1888
1707:D:/fchai/work/i-cube/I-CUBE-HUAWEI/Drivers/BSP/Components/lps22hh\lps22hh_reg.c **** 
1708:D:/fchai/work/i-cube/I-CUBE-HUAWEI/Drivers/BSP/Components/lps22hh\lps22hh_reg.c ****   ret = lps22hh_read_reg(ctx, LPS22HH_CTRL_REG3, (uint8_t*)&reg, 1);
 6599              		.loc 1 1708 3 view .LVU1889
1704:D:/fchai/work/i-cube/I-CUBE-HUAWEI/Drivers/BSP/Components/lps22hh\lps22hh_reg.c ****   lps22hh_ctrl_reg3_t reg;
 6600              		.loc 1 1704 1 is_stmt 0 view .LVU1890
 6601 0000 70B5     		push	{r4, r5, r6, lr}
 6602              	.LCFI207:
 6603              		.cfi_def_cfa_offset 16
 6604              		.cfi_offset 4, -16
ARM GAS  T:\msys\tmp\ccdfMMY7.s 			page 164


 6605              		.cfi_offset 5, -12
 6606              		.cfi_offset 6, -8
 6607              		.cfi_offset 14, -4
 6608 0002 82B0     		sub	sp, sp, #8
 6609              	.LCFI208:
 6610              		.cfi_def_cfa_offset 24
1704:D:/fchai/work/i-cube/I-CUBE-HUAWEI/Drivers/BSP/Components/lps22hh\lps22hh_reg.c ****   lps22hh_ctrl_reg3_t reg;
 6611              		.loc 1 1704 1 view .LVU1891
 6612 0004 0446     		mov	r4, r0
 6613              	.LVL527:
 6614              	.LBB644:
 6615              	.LBI644:
  49:D:/fchai/work/i-cube/I-CUBE-HUAWEI/Drivers/BSP/Components/lps22hh\lps22hh_reg.c ****                          uint16_t len)
 6616              		.loc 1 49 9 is_stmt 1 view .LVU1892
 6617              	.LBB645:
  52:D:/fchai/work/i-cube/I-CUBE-HUAWEI/Drivers/BSP/Components/lps22hh\lps22hh_reg.c ****   ret = ctx->read_reg(ctx->handle, reg, data, len);
 6618              		.loc 1 52 3 view .LVU1893
  53:D:/fchai/work/i-cube/I-CUBE-HUAWEI/Drivers/BSP/Components/lps22hh\lps22hh_reg.c ****   return ret;
 6619              		.loc 1 53 3 view .LVU1894
 6620              	.LBE645:
 6621              	.LBE644:
1704:D:/fchai/work/i-cube/I-CUBE-HUAWEI/Drivers/BSP/Components/lps22hh\lps22hh_reg.c ****   lps22hh_ctrl_reg3_t reg;
 6622              		.loc 1 1704 1 is_stmt 0 view .LVU1895
 6623 0006 0D46     		mov	r5, r1
 6624              	.LBB647:
 6625              	.LBB646:
  53:D:/fchai/work/i-cube/I-CUBE-HUAWEI/Drivers/BSP/Components/lps22hh\lps22hh_reg.c ****   return ret;
 6626              		.loc 1 53 9 view .LVU1896
 6627 0008 D0E90160 		ldrd	r6, r0, [r0, #4]
 6628              	.LVL528:
  53:D:/fchai/work/i-cube/I-CUBE-HUAWEI/Drivers/BSP/Components/lps22hh\lps22hh_reg.c ****   return ret;
 6629              		.loc 1 53 9 view .LVU1897
 6630 000c 01AA     		add	r2, sp, #4
 6631              	.LVL529:
  53:D:/fchai/work/i-cube/I-CUBE-HUAWEI/Drivers/BSP/Components/lps22hh\lps22hh_reg.c ****   return ret;
 6632              		.loc 1 53 9 view .LVU1898
 6633 000e 0123     		movs	r3, #1
 6634 0010 1221     		movs	r1, #18
 6635              	.LVL530:
  53:D:/fchai/work/i-cube/I-CUBE-HUAWEI/Drivers/BSP/Components/lps22hh\lps22hh_reg.c ****   return ret;
 6636              		.loc 1 53 9 view .LVU1899
 6637 0012 B047     		blx	r6
 6638              	.LVL531:
  54:D:/fchai/work/i-cube/I-CUBE-HUAWEI/Drivers/BSP/Components/lps22hh\lps22hh_reg.c **** }
 6639              		.loc 1 54 3 is_stmt 1 view .LVU1900
  54:D:/fchai/work/i-cube/I-CUBE-HUAWEI/Drivers/BSP/Components/lps22hh\lps22hh_reg.c **** }
 6640              		.loc 1 54 3 is_stmt 0 view .LVU1901
 6641              	.LBE646:
 6642              	.LBE647:
1709:D:/fchai/work/i-cube/I-CUBE-HUAWEI/Drivers/BSP/Components/lps22hh\lps22hh_reg.c ****   if (ret == 0) {
 6643              		.loc 1 1709 3 is_stmt 1 view .LVU1902
 6644              		.loc 1 1709 6 is_stmt 0 view .LVU1903
 6645 0014 58B9     		cbnz	r0, .L217
1710:D:/fchai/work/i-cube/I-CUBE-HUAWEI/Drivers/BSP/Components/lps22hh\lps22hh_reg.c ****     reg.int_f_ovr = val;
 6646              		.loc 1 1710 5 is_stmt 1 view .LVU1904
 6647              		.loc 1 1710 19 is_stmt 0 view .LVU1905
 6648 0016 9DF80430 		ldrb	r3, [sp, #4]	@ zero_extendqisi2
ARM GAS  T:\msys\tmp\ccdfMMY7.s 			page 165


 6649              	.LBB648:
 6650              	.LBB649:
  71:D:/fchai/work/i-cube/I-CUBE-HUAWEI/Drivers/BSP/Components/lps22hh\lps22hh_reg.c ****   return ret;
 6651              		.loc 1 71 9 view .LVU1906
 6652 001a 2668     		ldr	r6, [r4]
 6653 001c A068     		ldr	r0, [r4, #8]
 6654              	.LVL532:
  71:D:/fchai/work/i-cube/I-CUBE-HUAWEI/Drivers/BSP/Components/lps22hh\lps22hh_reg.c ****   return ret;
 6655              		.loc 1 71 9 view .LVU1907
 6656              	.LBE649:
 6657              	.LBE648:
 6658              		.loc 1 1710 19 view .LVU1908
 6659 001e 65F3C303 		bfi	r3, r5, #3, #1
 6660 0022 8DF80430 		strb	r3, [sp, #4]
1711:D:/fchai/work/i-cube/I-CUBE-HUAWEI/Drivers/BSP/Components/lps22hh\lps22hh_reg.c ****     ret = lps22hh_write_reg(ctx, LPS22HH_CTRL_REG3, (uint8_t*)&reg, 1);
 6661              		.loc 1 1711 5 is_stmt 1 view .LVU1909
 6662              	.LVL533:
 6663              	.LBB651:
 6664              	.LBI648:
  67:D:/fchai/work/i-cube/I-CUBE-HUAWEI/Drivers/BSP/Components/lps22hh\lps22hh_reg.c ****                            uint16_t len)
 6665              		.loc 1 67 9 view .LVU1910
 6666              	.LBB650:
  70:D:/fchai/work/i-cube/I-CUBE-HUAWEI/Drivers/BSP/Components/lps22hh\lps22hh_reg.c ****   ret = ctx->write_reg(ctx->handle, reg, data, len);
 6667              		.loc 1 70 3 view .LVU1911
  71:D:/fchai/work/i-cube/I-CUBE-HUAWEI/Drivers/BSP/Components/lps22hh\lps22hh_reg.c ****   return ret;
 6668              		.loc 1 71 3 view .LVU1912
  71:D:/fchai/work/i-cube/I-CUBE-HUAWEI/Drivers/BSP/Components/lps22hh\lps22hh_reg.c ****   return ret;
 6669              		.loc 1 71 9 is_stmt 0 view .LVU1913
 6670 0026 01AA     		add	r2, sp, #4
 6671              	.LVL534:
  71:D:/fchai/work/i-cube/I-CUBE-HUAWEI/Drivers/BSP/Components/lps22hh\lps22hh_reg.c ****   return ret;
 6672              		.loc 1 71 9 view .LVU1914
 6673 0028 0123     		movs	r3, #1
 6674 002a 1221     		movs	r1, #18
 6675 002c B047     		blx	r6
 6676              	.LVL535:
  72:D:/fchai/work/i-cube/I-CUBE-HUAWEI/Drivers/BSP/Components/lps22hh\lps22hh_reg.c **** }
 6677              		.loc 1 72 3 is_stmt 1 view .LVU1915
  72:D:/fchai/work/i-cube/I-CUBE-HUAWEI/Drivers/BSP/Components/lps22hh\lps22hh_reg.c **** }
 6678              		.loc 1 72 3 is_stmt 0 view .LVU1916
 6679              	.LBE650:
 6680              	.LBE651:
1712:D:/fchai/work/i-cube/I-CUBE-HUAWEI/Drivers/BSP/Components/lps22hh\lps22hh_reg.c ****   }
1713:D:/fchai/work/i-cube/I-CUBE-HUAWEI/Drivers/BSP/Components/lps22hh\lps22hh_reg.c ****   return ret;
 6681              		.loc 1 1713 3 is_stmt 1 view .LVU1917
 6682              	.L217:
1714:D:/fchai/work/i-cube/I-CUBE-HUAWEI/Drivers/BSP/Components/lps22hh\lps22hh_reg.c **** }
 6683              		.loc 1 1714 1 is_stmt 0 view .LVU1918
 6684 002e 02B0     		add	sp, sp, #8
 6685              	.LCFI209:
 6686              		.cfi_def_cfa_offset 16
 6687              		@ sp needed
 6688 0030 70BD     		pop	{r4, r5, r6, pc}
 6689              		.loc 1 1714 1 view .LVU1919
 6690              		.cfi_endproc
 6691              	.LFE70:
 6693 0032 00BF     		.section	.text.lps22hh_fifo_ovr_on_int_get,"ax",%progbits
ARM GAS  T:\msys\tmp\ccdfMMY7.s 			page 166


 6694              		.align	1
 6695              		.p2align 2,,3
 6696              		.global	lps22hh_fifo_ovr_on_int_get
 6697              		.syntax unified
 6698              		.thumb
 6699              		.thumb_func
 6700              		.fpu fpv4-sp-d16
 6702              	lps22hh_fifo_ovr_on_int_get:
 6703              	.LVL536:
 6704              	.LFB71:
1715:D:/fchai/work/i-cube/I-CUBE-HUAWEI/Drivers/BSP/Components/lps22hh\lps22hh_reg.c **** 
1716:D:/fchai/work/i-cube/I-CUBE-HUAWEI/Drivers/BSP/Components/lps22hh\lps22hh_reg.c **** /**
1717:D:/fchai/work/i-cube/I-CUBE-HUAWEI/Drivers/BSP/Components/lps22hh\lps22hh_reg.c ****   * @brief  FIFO overrun interrupt on INT_DRDY pin.[get]
1718:D:/fchai/work/i-cube/I-CUBE-HUAWEI/Drivers/BSP/Components/lps22hh\lps22hh_reg.c ****   *
1719:D:/fchai/work/i-cube/I-CUBE-HUAWEI/Drivers/BSP/Components/lps22hh\lps22hh_reg.c ****   * @param  stmdev_ctx_t *ctx: read / write interface definitions
1720:D:/fchai/work/i-cube/I-CUBE-HUAWEI/Drivers/BSP/Components/lps22hh\lps22hh_reg.c ****   * @param  uint8_t: change the values of f_ovr in reg CTRL_REG3
1721:D:/fchai/work/i-cube/I-CUBE-HUAWEI/Drivers/BSP/Components/lps22hh\lps22hh_reg.c ****   *
1722:D:/fchai/work/i-cube/I-CUBE-HUAWEI/Drivers/BSP/Components/lps22hh\lps22hh_reg.c ****   */
1723:D:/fchai/work/i-cube/I-CUBE-HUAWEI/Drivers/BSP/Components/lps22hh\lps22hh_reg.c **** int32_t lps22hh_fifo_ovr_on_int_get(stmdev_ctx_t *ctx, uint8_t *val)
1724:D:/fchai/work/i-cube/I-CUBE-HUAWEI/Drivers/BSP/Components/lps22hh\lps22hh_reg.c **** {
 6705              		.loc 1 1724 1 is_stmt 1 view -0
 6706              		.cfi_startproc
 6707              		@ args = 0, pretend = 0, frame = 8
 6708              		@ frame_needed = 0, uses_anonymous_args = 0
1725:D:/fchai/work/i-cube/I-CUBE-HUAWEI/Drivers/BSP/Components/lps22hh\lps22hh_reg.c ****   lps22hh_ctrl_reg3_t reg;
 6709              		.loc 1 1725 3 view .LVU1921
1726:D:/fchai/work/i-cube/I-CUBE-HUAWEI/Drivers/BSP/Components/lps22hh\lps22hh_reg.c ****   int32_t ret;
 6710              		.loc 1 1726 3 view .LVU1922
1727:D:/fchai/work/i-cube/I-CUBE-HUAWEI/Drivers/BSP/Components/lps22hh\lps22hh_reg.c **** 
1728:D:/fchai/work/i-cube/I-CUBE-HUAWEI/Drivers/BSP/Components/lps22hh\lps22hh_reg.c ****   ret = lps22hh_read_reg(ctx, LPS22HH_CTRL_REG3, (uint8_t*)&reg, 1);
 6711              		.loc 1 1728 3 view .LVU1923
1724:D:/fchai/work/i-cube/I-CUBE-HUAWEI/Drivers/BSP/Components/lps22hh\lps22hh_reg.c ****   lps22hh_ctrl_reg3_t reg;
 6712              		.loc 1 1724 1 is_stmt 0 view .LVU1924
 6713 0000 30B5     		push	{r4, r5, lr}
 6714              	.LCFI210:
 6715              		.cfi_def_cfa_offset 12
 6716              		.cfi_offset 4, -12
 6717              		.cfi_offset 5, -8
 6718              		.cfi_offset 14, -4
 6719 0002 83B0     		sub	sp, sp, #12
 6720              	.LCFI211:
 6721              		.cfi_def_cfa_offset 24
 6722              	.LVL537:
 6723              	.LBB652:
 6724              	.LBI652:
  49:D:/fchai/work/i-cube/I-CUBE-HUAWEI/Drivers/BSP/Components/lps22hh\lps22hh_reg.c ****                          uint16_t len)
 6725              		.loc 1 49 9 is_stmt 1 view .LVU1925
 6726              	.LBB653:
  52:D:/fchai/work/i-cube/I-CUBE-HUAWEI/Drivers/BSP/Components/lps22hh\lps22hh_reg.c ****   ret = ctx->read_reg(ctx->handle, reg, data, len);
 6727              		.loc 1 52 3 view .LVU1926
  53:D:/fchai/work/i-cube/I-CUBE-HUAWEI/Drivers/BSP/Components/lps22hh\lps22hh_reg.c ****   return ret;
 6728              		.loc 1 53 3 view .LVU1927
 6729              	.LBE653:
 6730              	.LBE652:
1724:D:/fchai/work/i-cube/I-CUBE-HUAWEI/Drivers/BSP/Components/lps22hh\lps22hh_reg.c ****   lps22hh_ctrl_reg3_t reg;
 6731              		.loc 1 1724 1 is_stmt 0 view .LVU1928
 6732 0004 0C46     		mov	r4, r1
ARM GAS  T:\msys\tmp\ccdfMMY7.s 			page 167


 6733              	.LBB655:
 6734              	.LBB654:
  53:D:/fchai/work/i-cube/I-CUBE-HUAWEI/Drivers/BSP/Components/lps22hh\lps22hh_reg.c ****   return ret;
 6735              		.loc 1 53 9 view .LVU1929
 6736 0006 D0E90150 		ldrd	r5, r0, [r0, #4]
 6737              	.LVL538:
  53:D:/fchai/work/i-cube/I-CUBE-HUAWEI/Drivers/BSP/Components/lps22hh\lps22hh_reg.c ****   return ret;
 6738              		.loc 1 53 9 view .LVU1930
 6739 000a 0123     		movs	r3, #1
 6740 000c 01AA     		add	r2, sp, #4
 6741              	.LVL539:
  53:D:/fchai/work/i-cube/I-CUBE-HUAWEI/Drivers/BSP/Components/lps22hh\lps22hh_reg.c ****   return ret;
 6742              		.loc 1 53 9 view .LVU1931
 6743 000e 1221     		movs	r1, #18
 6744              	.LVL540:
  53:D:/fchai/work/i-cube/I-CUBE-HUAWEI/Drivers/BSP/Components/lps22hh\lps22hh_reg.c ****   return ret;
 6745              		.loc 1 53 9 view .LVU1932
 6746 0010 A847     		blx	r5
 6747              	.LVL541:
  54:D:/fchai/work/i-cube/I-CUBE-HUAWEI/Drivers/BSP/Components/lps22hh\lps22hh_reg.c **** }
 6748              		.loc 1 54 3 is_stmt 1 view .LVU1933
  54:D:/fchai/work/i-cube/I-CUBE-HUAWEI/Drivers/BSP/Components/lps22hh\lps22hh_reg.c **** }
 6749              		.loc 1 54 3 is_stmt 0 view .LVU1934
 6750              	.LBE654:
 6751              	.LBE655:
1729:D:/fchai/work/i-cube/I-CUBE-HUAWEI/Drivers/BSP/Components/lps22hh\lps22hh_reg.c ****   *val = reg.int_f_ovr;
 6752              		.loc 1 1729 3 is_stmt 1 view .LVU1935
 6753              		.loc 1 1729 13 is_stmt 0 view .LVU1936
 6754 0012 9DF80430 		ldrb	r3, [sp, #4]	@ zero_extendqisi2
 6755 0016 C3F3C003 		ubfx	r3, r3, #3, #1
 6756              		.loc 1 1729 8 view .LVU1937
 6757 001a 2370     		strb	r3, [r4]
1730:D:/fchai/work/i-cube/I-CUBE-HUAWEI/Drivers/BSP/Components/lps22hh\lps22hh_reg.c **** 
1731:D:/fchai/work/i-cube/I-CUBE-HUAWEI/Drivers/BSP/Components/lps22hh\lps22hh_reg.c ****   return ret;
 6758              		.loc 1 1731 3 is_stmt 1 view .LVU1938
1732:D:/fchai/work/i-cube/I-CUBE-HUAWEI/Drivers/BSP/Components/lps22hh\lps22hh_reg.c **** }
 6759              		.loc 1 1732 1 is_stmt 0 view .LVU1939
 6760 001c 03B0     		add	sp, sp, #12
 6761              	.LCFI212:
 6762              		.cfi_def_cfa_offset 12
 6763              		@ sp needed
 6764 001e 30BD     		pop	{r4, r5, pc}
 6765              		.loc 1 1732 1 view .LVU1940
 6766              		.cfi_endproc
 6767              	.LFE71:
 6769              		.section	.text.lps22hh_fifo_threshold_on_int_set,"ax",%progbits
 6770              		.align	1
 6771              		.p2align 2,,3
 6772              		.global	lps22hh_fifo_threshold_on_int_set
 6773              		.syntax unified
 6774              		.thumb
 6775              		.thumb_func
 6776              		.fpu fpv4-sp-d16
 6778              	lps22hh_fifo_threshold_on_int_set:
 6779              	.LVL542:
 6780              	.LFB72:
1733:D:/fchai/work/i-cube/I-CUBE-HUAWEI/Drivers/BSP/Components/lps22hh\lps22hh_reg.c **** 
ARM GAS  T:\msys\tmp\ccdfMMY7.s 			page 168


1734:D:/fchai/work/i-cube/I-CUBE-HUAWEI/Drivers/BSP/Components/lps22hh\lps22hh_reg.c **** /**
1735:D:/fchai/work/i-cube/I-CUBE-HUAWEI/Drivers/BSP/Components/lps22hh\lps22hh_reg.c ****   * @brief  FIFO watermark status on INT_DRDY pin.[set]
1736:D:/fchai/work/i-cube/I-CUBE-HUAWEI/Drivers/BSP/Components/lps22hh\lps22hh_reg.c ****   *
1737:D:/fchai/work/i-cube/I-CUBE-HUAWEI/Drivers/BSP/Components/lps22hh\lps22hh_reg.c ****   * @param  stmdev_ctx_t *ctx: read / write interface definitions
1738:D:/fchai/work/i-cube/I-CUBE-HUAWEI/Drivers/BSP/Components/lps22hh\lps22hh_reg.c ****   * @param  uint8_t val: change the values of f_fth in reg CTRL_REG3
1739:D:/fchai/work/i-cube/I-CUBE-HUAWEI/Drivers/BSP/Components/lps22hh\lps22hh_reg.c ****   *
1740:D:/fchai/work/i-cube/I-CUBE-HUAWEI/Drivers/BSP/Components/lps22hh\lps22hh_reg.c ****   */
1741:D:/fchai/work/i-cube/I-CUBE-HUAWEI/Drivers/BSP/Components/lps22hh\lps22hh_reg.c **** int32_t lps22hh_fifo_threshold_on_int_set(stmdev_ctx_t *ctx, uint8_t val)
1742:D:/fchai/work/i-cube/I-CUBE-HUAWEI/Drivers/BSP/Components/lps22hh\lps22hh_reg.c **** {
 6781              		.loc 1 1742 1 is_stmt 1 view -0
 6782              		.cfi_startproc
 6783              		@ args = 0, pretend = 0, frame = 8
 6784              		@ frame_needed = 0, uses_anonymous_args = 0
1743:D:/fchai/work/i-cube/I-CUBE-HUAWEI/Drivers/BSP/Components/lps22hh\lps22hh_reg.c ****   lps22hh_ctrl_reg3_t reg;
 6785              		.loc 1 1743 3 view .LVU1942
1744:D:/fchai/work/i-cube/I-CUBE-HUAWEI/Drivers/BSP/Components/lps22hh\lps22hh_reg.c ****   int32_t ret;
 6786              		.loc 1 1744 3 view .LVU1943
1745:D:/fchai/work/i-cube/I-CUBE-HUAWEI/Drivers/BSP/Components/lps22hh\lps22hh_reg.c **** 
1746:D:/fchai/work/i-cube/I-CUBE-HUAWEI/Drivers/BSP/Components/lps22hh\lps22hh_reg.c ****   ret = lps22hh_read_reg(ctx, LPS22HH_CTRL_REG3, (uint8_t*)&reg, 1);
 6787              		.loc 1 1746 3 view .LVU1944
1742:D:/fchai/work/i-cube/I-CUBE-HUAWEI/Drivers/BSP/Components/lps22hh\lps22hh_reg.c ****   lps22hh_ctrl_reg3_t reg;
 6788              		.loc 1 1742 1 is_stmt 0 view .LVU1945
 6789 0000 70B5     		push	{r4, r5, r6, lr}
 6790              	.LCFI213:
 6791              		.cfi_def_cfa_offset 16
 6792              		.cfi_offset 4, -16
 6793              		.cfi_offset 5, -12
 6794              		.cfi_offset 6, -8
 6795              		.cfi_offset 14, -4
 6796 0002 82B0     		sub	sp, sp, #8
 6797              	.LCFI214:
 6798              		.cfi_def_cfa_offset 24
1742:D:/fchai/work/i-cube/I-CUBE-HUAWEI/Drivers/BSP/Components/lps22hh\lps22hh_reg.c ****   lps22hh_ctrl_reg3_t reg;
 6799              		.loc 1 1742 1 view .LVU1946
 6800 0004 0446     		mov	r4, r0
 6801              	.LVL543:
 6802              	.LBB656:
 6803              	.LBI656:
  49:D:/fchai/work/i-cube/I-CUBE-HUAWEI/Drivers/BSP/Components/lps22hh\lps22hh_reg.c ****                          uint16_t len)
 6804              		.loc 1 49 9 is_stmt 1 view .LVU1947
 6805              	.LBB657:
  52:D:/fchai/work/i-cube/I-CUBE-HUAWEI/Drivers/BSP/Components/lps22hh\lps22hh_reg.c ****   ret = ctx->read_reg(ctx->handle, reg, data, len);
 6806              		.loc 1 52 3 view .LVU1948
  53:D:/fchai/work/i-cube/I-CUBE-HUAWEI/Drivers/BSP/Components/lps22hh\lps22hh_reg.c ****   return ret;
 6807              		.loc 1 53 3 view .LVU1949
 6808              	.LBE657:
 6809              	.LBE656:
1742:D:/fchai/work/i-cube/I-CUBE-HUAWEI/Drivers/BSP/Components/lps22hh\lps22hh_reg.c ****   lps22hh_ctrl_reg3_t reg;
 6810              		.loc 1 1742 1 is_stmt 0 view .LVU1950
 6811 0006 0D46     		mov	r5, r1
 6812              	.LBB659:
 6813              	.LBB658:
  53:D:/fchai/work/i-cube/I-CUBE-HUAWEI/Drivers/BSP/Components/lps22hh\lps22hh_reg.c ****   return ret;
 6814              		.loc 1 53 9 view .LVU1951
 6815 0008 D0E90160 		ldrd	r6, r0, [r0, #4]
 6816              	.LVL544:
  53:D:/fchai/work/i-cube/I-CUBE-HUAWEI/Drivers/BSP/Components/lps22hh\lps22hh_reg.c ****   return ret;
ARM GAS  T:\msys\tmp\ccdfMMY7.s 			page 169


 6817              		.loc 1 53 9 view .LVU1952
 6818 000c 01AA     		add	r2, sp, #4
 6819              	.LVL545:
  53:D:/fchai/work/i-cube/I-CUBE-HUAWEI/Drivers/BSP/Components/lps22hh\lps22hh_reg.c ****   return ret;
 6820              		.loc 1 53 9 view .LVU1953
 6821 000e 0123     		movs	r3, #1
 6822 0010 1221     		movs	r1, #18
 6823              	.LVL546:
  53:D:/fchai/work/i-cube/I-CUBE-HUAWEI/Drivers/BSP/Components/lps22hh\lps22hh_reg.c ****   return ret;
 6824              		.loc 1 53 9 view .LVU1954
 6825 0012 B047     		blx	r6
 6826              	.LVL547:
  54:D:/fchai/work/i-cube/I-CUBE-HUAWEI/Drivers/BSP/Components/lps22hh\lps22hh_reg.c **** }
 6827              		.loc 1 54 3 is_stmt 1 view .LVU1955
  54:D:/fchai/work/i-cube/I-CUBE-HUAWEI/Drivers/BSP/Components/lps22hh\lps22hh_reg.c **** }
 6828              		.loc 1 54 3 is_stmt 0 view .LVU1956
 6829              	.LBE658:
 6830              	.LBE659:
1747:D:/fchai/work/i-cube/I-CUBE-HUAWEI/Drivers/BSP/Components/lps22hh\lps22hh_reg.c ****   if (ret == 0) {
 6831              		.loc 1 1747 3 is_stmt 1 view .LVU1957
 6832              		.loc 1 1747 6 is_stmt 0 view .LVU1958
 6833 0014 58B9     		cbnz	r0, .L222
1748:D:/fchai/work/i-cube/I-CUBE-HUAWEI/Drivers/BSP/Components/lps22hh\lps22hh_reg.c ****     reg.int_f_wtm = val;
 6834              		.loc 1 1748 5 is_stmt 1 view .LVU1959
 6835              		.loc 1 1748 19 is_stmt 0 view .LVU1960
 6836 0016 9DF80430 		ldrb	r3, [sp, #4]	@ zero_extendqisi2
 6837              	.LBB660:
 6838              	.LBB661:
  71:D:/fchai/work/i-cube/I-CUBE-HUAWEI/Drivers/BSP/Components/lps22hh\lps22hh_reg.c ****   return ret;
 6839              		.loc 1 71 9 view .LVU1961
 6840 001a 2668     		ldr	r6, [r4]
 6841 001c A068     		ldr	r0, [r4, #8]
 6842              	.LVL548:
  71:D:/fchai/work/i-cube/I-CUBE-HUAWEI/Drivers/BSP/Components/lps22hh\lps22hh_reg.c ****   return ret;
 6843              		.loc 1 71 9 view .LVU1962
 6844              	.LBE661:
 6845              	.LBE660:
 6846              		.loc 1 1748 19 view .LVU1963
 6847 001e 65F30413 		bfi	r3, r5, #4, #1
 6848 0022 8DF80430 		strb	r3, [sp, #4]
1749:D:/fchai/work/i-cube/I-CUBE-HUAWEI/Drivers/BSP/Components/lps22hh\lps22hh_reg.c ****     ret = lps22hh_write_reg(ctx, LPS22HH_CTRL_REG3, (uint8_t*)&reg, 1);
 6849              		.loc 1 1749 5 is_stmt 1 view .LVU1964
 6850              	.LVL549:
 6851              	.LBB663:
 6852              	.LBI660:
  67:D:/fchai/work/i-cube/I-CUBE-HUAWEI/Drivers/BSP/Components/lps22hh\lps22hh_reg.c ****                            uint16_t len)
 6853              		.loc 1 67 9 view .LVU1965
 6854              	.LBB662:
  70:D:/fchai/work/i-cube/I-CUBE-HUAWEI/Drivers/BSP/Components/lps22hh\lps22hh_reg.c ****   ret = ctx->write_reg(ctx->handle, reg, data, len);
 6855              		.loc 1 70 3 view .LVU1966
  71:D:/fchai/work/i-cube/I-CUBE-HUAWEI/Drivers/BSP/Components/lps22hh\lps22hh_reg.c ****   return ret;
 6856              		.loc 1 71 3 view .LVU1967
  71:D:/fchai/work/i-cube/I-CUBE-HUAWEI/Drivers/BSP/Components/lps22hh\lps22hh_reg.c ****   return ret;
 6857              		.loc 1 71 9 is_stmt 0 view .LVU1968
 6858 0026 01AA     		add	r2, sp, #4
 6859              	.LVL550:
  71:D:/fchai/work/i-cube/I-CUBE-HUAWEI/Drivers/BSP/Components/lps22hh\lps22hh_reg.c ****   return ret;
ARM GAS  T:\msys\tmp\ccdfMMY7.s 			page 170


 6860              		.loc 1 71 9 view .LVU1969
 6861 0028 0123     		movs	r3, #1
 6862 002a 1221     		movs	r1, #18
 6863 002c B047     		blx	r6
 6864              	.LVL551:
  72:D:/fchai/work/i-cube/I-CUBE-HUAWEI/Drivers/BSP/Components/lps22hh\lps22hh_reg.c **** }
 6865              		.loc 1 72 3 is_stmt 1 view .LVU1970
  72:D:/fchai/work/i-cube/I-CUBE-HUAWEI/Drivers/BSP/Components/lps22hh\lps22hh_reg.c **** }
 6866              		.loc 1 72 3 is_stmt 0 view .LVU1971
 6867              	.LBE662:
 6868              	.LBE663:
1750:D:/fchai/work/i-cube/I-CUBE-HUAWEI/Drivers/BSP/Components/lps22hh\lps22hh_reg.c ****   }
1751:D:/fchai/work/i-cube/I-CUBE-HUAWEI/Drivers/BSP/Components/lps22hh\lps22hh_reg.c ****   return ret;
 6869              		.loc 1 1751 3 is_stmt 1 view .LVU1972
 6870              	.L222:
1752:D:/fchai/work/i-cube/I-CUBE-HUAWEI/Drivers/BSP/Components/lps22hh\lps22hh_reg.c **** }
 6871              		.loc 1 1752 1 is_stmt 0 view .LVU1973
 6872 002e 02B0     		add	sp, sp, #8
 6873              	.LCFI215:
 6874              		.cfi_def_cfa_offset 16
 6875              		@ sp needed
 6876 0030 70BD     		pop	{r4, r5, r6, pc}
 6877              		.loc 1 1752 1 view .LVU1974
 6878              		.cfi_endproc
 6879              	.LFE72:
 6881 0032 00BF     		.section	.text.lps22hh_fifo_threshold_on_int_get,"ax",%progbits
 6882              		.align	1
 6883              		.p2align 2,,3
 6884              		.global	lps22hh_fifo_threshold_on_int_get
 6885              		.syntax unified
 6886              		.thumb
 6887              		.thumb_func
 6888              		.fpu fpv4-sp-d16
 6890              	lps22hh_fifo_threshold_on_int_get:
 6891              	.LVL552:
 6892              	.LFB73:
1753:D:/fchai/work/i-cube/I-CUBE-HUAWEI/Drivers/BSP/Components/lps22hh\lps22hh_reg.c **** 
1754:D:/fchai/work/i-cube/I-CUBE-HUAWEI/Drivers/BSP/Components/lps22hh\lps22hh_reg.c **** /**
1755:D:/fchai/work/i-cube/I-CUBE-HUAWEI/Drivers/BSP/Components/lps22hh\lps22hh_reg.c ****   * @brief  FIFO watermark status on INT_DRDY pin.[get]
1756:D:/fchai/work/i-cube/I-CUBE-HUAWEI/Drivers/BSP/Components/lps22hh\lps22hh_reg.c ****   *
1757:D:/fchai/work/i-cube/I-CUBE-HUAWEI/Drivers/BSP/Components/lps22hh\lps22hh_reg.c ****   * @param  lps22hb_ctx_t *ctx: read / write interface definitions
1758:D:/fchai/work/i-cube/I-CUBE-HUAWEI/Drivers/BSP/Components/lps22hh\lps22hh_reg.c ****   * @param  uint8_t: change the values of f_fth in reg CTRL_REG3
1759:D:/fchai/work/i-cube/I-CUBE-HUAWEI/Drivers/BSP/Components/lps22hh\lps22hh_reg.c ****   *
1760:D:/fchai/work/i-cube/I-CUBE-HUAWEI/Drivers/BSP/Components/lps22hh\lps22hh_reg.c ****   */
1761:D:/fchai/work/i-cube/I-CUBE-HUAWEI/Drivers/BSP/Components/lps22hh\lps22hh_reg.c **** int32_t lps22hh_fifo_threshold_on_int_get(stmdev_ctx_t *ctx, uint8_t *val)
1762:D:/fchai/work/i-cube/I-CUBE-HUAWEI/Drivers/BSP/Components/lps22hh\lps22hh_reg.c **** {
 6893              		.loc 1 1762 1 is_stmt 1 view -0
 6894              		.cfi_startproc
 6895              		@ args = 0, pretend = 0, frame = 8
 6896              		@ frame_needed = 0, uses_anonymous_args = 0
1763:D:/fchai/work/i-cube/I-CUBE-HUAWEI/Drivers/BSP/Components/lps22hh\lps22hh_reg.c ****   lps22hh_ctrl_reg3_t reg;
 6897              		.loc 1 1763 3 view .LVU1976
1764:D:/fchai/work/i-cube/I-CUBE-HUAWEI/Drivers/BSP/Components/lps22hh\lps22hh_reg.c ****   int32_t ret;
 6898              		.loc 1 1764 3 view .LVU1977
1765:D:/fchai/work/i-cube/I-CUBE-HUAWEI/Drivers/BSP/Components/lps22hh\lps22hh_reg.c **** 
1766:D:/fchai/work/i-cube/I-CUBE-HUAWEI/Drivers/BSP/Components/lps22hh\lps22hh_reg.c ****   ret = lps22hh_read_reg(ctx, LPS22HH_CTRL_REG3, (uint8_t*)&reg, 1);
 6899              		.loc 1 1766 3 view .LVU1978
ARM GAS  T:\msys\tmp\ccdfMMY7.s 			page 171


1762:D:/fchai/work/i-cube/I-CUBE-HUAWEI/Drivers/BSP/Components/lps22hh\lps22hh_reg.c ****   lps22hh_ctrl_reg3_t reg;
 6900              		.loc 1 1762 1 is_stmt 0 view .LVU1979
 6901 0000 30B5     		push	{r4, r5, lr}
 6902              	.LCFI216:
 6903              		.cfi_def_cfa_offset 12
 6904              		.cfi_offset 4, -12
 6905              		.cfi_offset 5, -8
 6906              		.cfi_offset 14, -4
 6907 0002 83B0     		sub	sp, sp, #12
 6908              	.LCFI217:
 6909              		.cfi_def_cfa_offset 24
 6910              	.LVL553:
 6911              	.LBB664:
 6912              	.LBI664:
  49:D:/fchai/work/i-cube/I-CUBE-HUAWEI/Drivers/BSP/Components/lps22hh\lps22hh_reg.c ****                          uint16_t len)
 6913              		.loc 1 49 9 is_stmt 1 view .LVU1980
 6914              	.LBB665:
  52:D:/fchai/work/i-cube/I-CUBE-HUAWEI/Drivers/BSP/Components/lps22hh\lps22hh_reg.c ****   ret = ctx->read_reg(ctx->handle, reg, data, len);
 6915              		.loc 1 52 3 view .LVU1981
  53:D:/fchai/work/i-cube/I-CUBE-HUAWEI/Drivers/BSP/Components/lps22hh\lps22hh_reg.c ****   return ret;
 6916              		.loc 1 53 3 view .LVU1982
 6917              	.LBE665:
 6918              	.LBE664:
1762:D:/fchai/work/i-cube/I-CUBE-HUAWEI/Drivers/BSP/Components/lps22hh\lps22hh_reg.c ****   lps22hh_ctrl_reg3_t reg;
 6919              		.loc 1 1762 1 is_stmt 0 view .LVU1983
 6920 0004 0C46     		mov	r4, r1
 6921              	.LBB667:
 6922              	.LBB666:
  53:D:/fchai/work/i-cube/I-CUBE-HUAWEI/Drivers/BSP/Components/lps22hh\lps22hh_reg.c ****   return ret;
 6923              		.loc 1 53 9 view .LVU1984
 6924 0006 D0E90150 		ldrd	r5, r0, [r0, #4]
 6925              	.LVL554:
  53:D:/fchai/work/i-cube/I-CUBE-HUAWEI/Drivers/BSP/Components/lps22hh\lps22hh_reg.c ****   return ret;
 6926              		.loc 1 53 9 view .LVU1985
 6927 000a 0123     		movs	r3, #1
 6928 000c 01AA     		add	r2, sp, #4
 6929              	.LVL555:
  53:D:/fchai/work/i-cube/I-CUBE-HUAWEI/Drivers/BSP/Components/lps22hh\lps22hh_reg.c ****   return ret;
 6930              		.loc 1 53 9 view .LVU1986
 6931 000e 1221     		movs	r1, #18
 6932              	.LVL556:
  53:D:/fchai/work/i-cube/I-CUBE-HUAWEI/Drivers/BSP/Components/lps22hh\lps22hh_reg.c ****   return ret;
 6933              		.loc 1 53 9 view .LVU1987
 6934 0010 A847     		blx	r5
 6935              	.LVL557:
  54:D:/fchai/work/i-cube/I-CUBE-HUAWEI/Drivers/BSP/Components/lps22hh\lps22hh_reg.c **** }
 6936              		.loc 1 54 3 is_stmt 1 view .LVU1988
  54:D:/fchai/work/i-cube/I-CUBE-HUAWEI/Drivers/BSP/Components/lps22hh\lps22hh_reg.c **** }
 6937              		.loc 1 54 3 is_stmt 0 view .LVU1989
 6938              	.LBE666:
 6939              	.LBE667:
1767:D:/fchai/work/i-cube/I-CUBE-HUAWEI/Drivers/BSP/Components/lps22hh\lps22hh_reg.c ****   *val = reg.int_f_wtm;
 6940              		.loc 1 1767 3 is_stmt 1 view .LVU1990
 6941              		.loc 1 1767 13 is_stmt 0 view .LVU1991
 6942 0012 9DF80430 		ldrb	r3, [sp, #4]	@ zero_extendqisi2
 6943 0016 C3F30013 		ubfx	r3, r3, #4, #1
 6944              		.loc 1 1767 8 view .LVU1992
ARM GAS  T:\msys\tmp\ccdfMMY7.s 			page 172


 6945 001a 2370     		strb	r3, [r4]
1768:D:/fchai/work/i-cube/I-CUBE-HUAWEI/Drivers/BSP/Components/lps22hh\lps22hh_reg.c **** 
1769:D:/fchai/work/i-cube/I-CUBE-HUAWEI/Drivers/BSP/Components/lps22hh\lps22hh_reg.c ****   return ret;
 6946              		.loc 1 1769 3 is_stmt 1 view .LVU1993
1770:D:/fchai/work/i-cube/I-CUBE-HUAWEI/Drivers/BSP/Components/lps22hh\lps22hh_reg.c **** }
 6947              		.loc 1 1770 1 is_stmt 0 view .LVU1994
 6948 001c 03B0     		add	sp, sp, #12
 6949              	.LCFI218:
 6950              		.cfi_def_cfa_offset 12
 6951              		@ sp needed
 6952 001e 30BD     		pop	{r4, r5, pc}
 6953              		.loc 1 1770 1 view .LVU1995
 6954              		.cfi_endproc
 6955              	.LFE73:
 6957              		.section	.text.lps22hh_fifo_full_on_int_set,"ax",%progbits
 6958              		.align	1
 6959              		.p2align 2,,3
 6960              		.global	lps22hh_fifo_full_on_int_set
 6961              		.syntax unified
 6962              		.thumb
 6963              		.thumb_func
 6964              		.fpu fpv4-sp-d16
 6966              	lps22hh_fifo_full_on_int_set:
 6967              	.LVL558:
 6968              	.LFB74:
1771:D:/fchai/work/i-cube/I-CUBE-HUAWEI/Drivers/BSP/Components/lps22hh\lps22hh_reg.c **** 
1772:D:/fchai/work/i-cube/I-CUBE-HUAWEI/Drivers/BSP/Components/lps22hh\lps22hh_reg.c **** /**
1773:D:/fchai/work/i-cube/I-CUBE-HUAWEI/Drivers/BSP/Components/lps22hh\lps22hh_reg.c ****   * @brief  FIFO full flag on INT_DRDY pin.[set]
1774:D:/fchai/work/i-cube/I-CUBE-HUAWEI/Drivers/BSP/Components/lps22hh\lps22hh_reg.c ****   *
1775:D:/fchai/work/i-cube/I-CUBE-HUAWEI/Drivers/BSP/Components/lps22hh\lps22hh_reg.c ****   * @param  stmdev_ctx_t *ctx: read / write interface definitions
1776:D:/fchai/work/i-cube/I-CUBE-HUAWEI/Drivers/BSP/Components/lps22hh\lps22hh_reg.c ****   * @param  uint8_t val: change the values of f_fss5 in reg CTRL_REG3
1777:D:/fchai/work/i-cube/I-CUBE-HUAWEI/Drivers/BSP/Components/lps22hh\lps22hh_reg.c ****   *
1778:D:/fchai/work/i-cube/I-CUBE-HUAWEI/Drivers/BSP/Components/lps22hh\lps22hh_reg.c ****   */
1779:D:/fchai/work/i-cube/I-CUBE-HUAWEI/Drivers/BSP/Components/lps22hh\lps22hh_reg.c **** int32_t lps22hh_fifo_full_on_int_set(stmdev_ctx_t *ctx, uint8_t val)
1780:D:/fchai/work/i-cube/I-CUBE-HUAWEI/Drivers/BSP/Components/lps22hh\lps22hh_reg.c **** {
 6969              		.loc 1 1780 1 is_stmt 1 view -0
 6970              		.cfi_startproc
 6971              		@ args = 0, pretend = 0, frame = 8
 6972              		@ frame_needed = 0, uses_anonymous_args = 0
1781:D:/fchai/work/i-cube/I-CUBE-HUAWEI/Drivers/BSP/Components/lps22hh\lps22hh_reg.c ****   lps22hh_ctrl_reg3_t reg;
 6973              		.loc 1 1781 3 view .LVU1997
1782:D:/fchai/work/i-cube/I-CUBE-HUAWEI/Drivers/BSP/Components/lps22hh\lps22hh_reg.c ****   int32_t ret;
 6974              		.loc 1 1782 3 view .LVU1998
1783:D:/fchai/work/i-cube/I-CUBE-HUAWEI/Drivers/BSP/Components/lps22hh\lps22hh_reg.c **** 
1784:D:/fchai/work/i-cube/I-CUBE-HUAWEI/Drivers/BSP/Components/lps22hh\lps22hh_reg.c ****   ret = lps22hh_read_reg(ctx, LPS22HH_CTRL_REG3, (uint8_t*)&reg, 1);
 6975              		.loc 1 1784 3 view .LVU1999
1780:D:/fchai/work/i-cube/I-CUBE-HUAWEI/Drivers/BSP/Components/lps22hh\lps22hh_reg.c ****   lps22hh_ctrl_reg3_t reg;
 6976              		.loc 1 1780 1 is_stmt 0 view .LVU2000
 6977 0000 70B5     		push	{r4, r5, r6, lr}
 6978              	.LCFI219:
 6979              		.cfi_def_cfa_offset 16
 6980              		.cfi_offset 4, -16
 6981              		.cfi_offset 5, -12
 6982              		.cfi_offset 6, -8
 6983              		.cfi_offset 14, -4
 6984 0002 82B0     		sub	sp, sp, #8
 6985              	.LCFI220:
ARM GAS  T:\msys\tmp\ccdfMMY7.s 			page 173


 6986              		.cfi_def_cfa_offset 24
1780:D:/fchai/work/i-cube/I-CUBE-HUAWEI/Drivers/BSP/Components/lps22hh\lps22hh_reg.c ****   lps22hh_ctrl_reg3_t reg;
 6987              		.loc 1 1780 1 view .LVU2001
 6988 0004 0446     		mov	r4, r0
 6989              	.LVL559:
 6990              	.LBB668:
 6991              	.LBI668:
  49:D:/fchai/work/i-cube/I-CUBE-HUAWEI/Drivers/BSP/Components/lps22hh\lps22hh_reg.c ****                          uint16_t len)
 6992              		.loc 1 49 9 is_stmt 1 view .LVU2002
 6993              	.LBB669:
  52:D:/fchai/work/i-cube/I-CUBE-HUAWEI/Drivers/BSP/Components/lps22hh\lps22hh_reg.c ****   ret = ctx->read_reg(ctx->handle, reg, data, len);
 6994              		.loc 1 52 3 view .LVU2003
  53:D:/fchai/work/i-cube/I-CUBE-HUAWEI/Drivers/BSP/Components/lps22hh\lps22hh_reg.c ****   return ret;
 6995              		.loc 1 53 3 view .LVU2004
 6996              	.LBE669:
 6997              	.LBE668:
1780:D:/fchai/work/i-cube/I-CUBE-HUAWEI/Drivers/BSP/Components/lps22hh\lps22hh_reg.c ****   lps22hh_ctrl_reg3_t reg;
 6998              		.loc 1 1780 1 is_stmt 0 view .LVU2005
 6999 0006 0D46     		mov	r5, r1
 7000              	.LBB671:
 7001              	.LBB670:
  53:D:/fchai/work/i-cube/I-CUBE-HUAWEI/Drivers/BSP/Components/lps22hh\lps22hh_reg.c ****   return ret;
 7002              		.loc 1 53 9 view .LVU2006
 7003 0008 D0E90160 		ldrd	r6, r0, [r0, #4]
 7004              	.LVL560:
  53:D:/fchai/work/i-cube/I-CUBE-HUAWEI/Drivers/BSP/Components/lps22hh\lps22hh_reg.c ****   return ret;
 7005              		.loc 1 53 9 view .LVU2007
 7006 000c 01AA     		add	r2, sp, #4
 7007              	.LVL561:
  53:D:/fchai/work/i-cube/I-CUBE-HUAWEI/Drivers/BSP/Components/lps22hh\lps22hh_reg.c ****   return ret;
 7008              		.loc 1 53 9 view .LVU2008
 7009 000e 0123     		movs	r3, #1
 7010 0010 1221     		movs	r1, #18
 7011              	.LVL562:
  53:D:/fchai/work/i-cube/I-CUBE-HUAWEI/Drivers/BSP/Components/lps22hh\lps22hh_reg.c ****   return ret;
 7012              		.loc 1 53 9 view .LVU2009
 7013 0012 B047     		blx	r6
 7014              	.LVL563:
  54:D:/fchai/work/i-cube/I-CUBE-HUAWEI/Drivers/BSP/Components/lps22hh\lps22hh_reg.c **** }
 7015              		.loc 1 54 3 is_stmt 1 view .LVU2010
  54:D:/fchai/work/i-cube/I-CUBE-HUAWEI/Drivers/BSP/Components/lps22hh\lps22hh_reg.c **** }
 7016              		.loc 1 54 3 is_stmt 0 view .LVU2011
 7017              	.LBE670:
 7018              	.LBE671:
1785:D:/fchai/work/i-cube/I-CUBE-HUAWEI/Drivers/BSP/Components/lps22hh\lps22hh_reg.c ****   if (ret == 0) {
 7019              		.loc 1 1785 3 is_stmt 1 view .LVU2012
 7020              		.loc 1 1785 6 is_stmt 0 view .LVU2013
 7021 0014 58B9     		cbnz	r0, .L227
1786:D:/fchai/work/i-cube/I-CUBE-HUAWEI/Drivers/BSP/Components/lps22hh\lps22hh_reg.c ****     reg.int_f_full = val;
 7022              		.loc 1 1786 5 is_stmt 1 view .LVU2014
 7023              		.loc 1 1786 20 is_stmt 0 view .LVU2015
 7024 0016 9DF80430 		ldrb	r3, [sp, #4]	@ zero_extendqisi2
 7025              	.LBB672:
 7026              	.LBB673:
  71:D:/fchai/work/i-cube/I-CUBE-HUAWEI/Drivers/BSP/Components/lps22hh\lps22hh_reg.c ****   return ret;
 7027              		.loc 1 71 9 view .LVU2016
 7028 001a 2668     		ldr	r6, [r4]
ARM GAS  T:\msys\tmp\ccdfMMY7.s 			page 174


 7029 001c A068     		ldr	r0, [r4, #8]
 7030              	.LVL564:
  71:D:/fchai/work/i-cube/I-CUBE-HUAWEI/Drivers/BSP/Components/lps22hh\lps22hh_reg.c ****   return ret;
 7031              		.loc 1 71 9 view .LVU2017
 7032              	.LBE673:
 7033              	.LBE672:
 7034              		.loc 1 1786 20 view .LVU2018
 7035 001e 65F34513 		bfi	r3, r5, #5, #1
 7036 0022 8DF80430 		strb	r3, [sp, #4]
1787:D:/fchai/work/i-cube/I-CUBE-HUAWEI/Drivers/BSP/Components/lps22hh\lps22hh_reg.c ****     ret = lps22hh_write_reg(ctx, LPS22HH_CTRL_REG3, (uint8_t*)&reg, 1);
 7037              		.loc 1 1787 5 is_stmt 1 view .LVU2019
 7038              	.LVL565:
 7039              	.LBB675:
 7040              	.LBI672:
  67:D:/fchai/work/i-cube/I-CUBE-HUAWEI/Drivers/BSP/Components/lps22hh\lps22hh_reg.c ****                            uint16_t len)
 7041              		.loc 1 67 9 view .LVU2020
 7042              	.LBB674:
  70:D:/fchai/work/i-cube/I-CUBE-HUAWEI/Drivers/BSP/Components/lps22hh\lps22hh_reg.c ****   ret = ctx->write_reg(ctx->handle, reg, data, len);
 7043              		.loc 1 70 3 view .LVU2021
  71:D:/fchai/work/i-cube/I-CUBE-HUAWEI/Drivers/BSP/Components/lps22hh\lps22hh_reg.c ****   return ret;
 7044              		.loc 1 71 3 view .LVU2022
  71:D:/fchai/work/i-cube/I-CUBE-HUAWEI/Drivers/BSP/Components/lps22hh\lps22hh_reg.c ****   return ret;
 7045              		.loc 1 71 9 is_stmt 0 view .LVU2023
 7046 0026 01AA     		add	r2, sp, #4
 7047              	.LVL566:
  71:D:/fchai/work/i-cube/I-CUBE-HUAWEI/Drivers/BSP/Components/lps22hh\lps22hh_reg.c ****   return ret;
 7048              		.loc 1 71 9 view .LVU2024
 7049 0028 0123     		movs	r3, #1
 7050 002a 1221     		movs	r1, #18
 7051 002c B047     		blx	r6
 7052              	.LVL567:
  72:D:/fchai/work/i-cube/I-CUBE-HUAWEI/Drivers/BSP/Components/lps22hh\lps22hh_reg.c **** }
 7053              		.loc 1 72 3 is_stmt 1 view .LVU2025
  72:D:/fchai/work/i-cube/I-CUBE-HUAWEI/Drivers/BSP/Components/lps22hh\lps22hh_reg.c **** }
 7054              		.loc 1 72 3 is_stmt 0 view .LVU2026
 7055              	.LBE674:
 7056              	.LBE675:
1788:D:/fchai/work/i-cube/I-CUBE-HUAWEI/Drivers/BSP/Components/lps22hh\lps22hh_reg.c ****   }
1789:D:/fchai/work/i-cube/I-CUBE-HUAWEI/Drivers/BSP/Components/lps22hh\lps22hh_reg.c ****   return ret;
 7057              		.loc 1 1789 3 is_stmt 1 view .LVU2027
 7058              	.L227:
1790:D:/fchai/work/i-cube/I-CUBE-HUAWEI/Drivers/BSP/Components/lps22hh\lps22hh_reg.c **** }
 7059              		.loc 1 1790 1 is_stmt 0 view .LVU2028
 7060 002e 02B0     		add	sp, sp, #8
 7061              	.LCFI221:
 7062              		.cfi_def_cfa_offset 16
 7063              		@ sp needed
 7064 0030 70BD     		pop	{r4, r5, r6, pc}
 7065              		.loc 1 1790 1 view .LVU2029
 7066              		.cfi_endproc
 7067              	.LFE74:
 7069 0032 00BF     		.section	.text.lps22hh_fifo_full_on_int_get,"ax",%progbits
 7070              		.align	1
 7071              		.p2align 2,,3
 7072              		.global	lps22hh_fifo_full_on_int_get
 7073              		.syntax unified
 7074              		.thumb
ARM GAS  T:\msys\tmp\ccdfMMY7.s 			page 175


 7075              		.thumb_func
 7076              		.fpu fpv4-sp-d16
 7078              	lps22hh_fifo_full_on_int_get:
 7079              	.LVL568:
 7080              	.LFB75:
1791:D:/fchai/work/i-cube/I-CUBE-HUAWEI/Drivers/BSP/Components/lps22hh\lps22hh_reg.c **** 
1792:D:/fchai/work/i-cube/I-CUBE-HUAWEI/Drivers/BSP/Components/lps22hh\lps22hh_reg.c **** /**
1793:D:/fchai/work/i-cube/I-CUBE-HUAWEI/Drivers/BSP/Components/lps22hh\lps22hh_reg.c ****   * @brief  FIFO full flag on INT_DRDY pin.[get]
1794:D:/fchai/work/i-cube/I-CUBE-HUAWEI/Drivers/BSP/Components/lps22hh\lps22hh_reg.c ****   *
1795:D:/fchai/work/i-cube/I-CUBE-HUAWEI/Drivers/BSP/Components/lps22hh\lps22hh_reg.c ****   * @param  stmdev_ctx_t *ctx: read / write interface definitions
1796:D:/fchai/work/i-cube/I-CUBE-HUAWEI/Drivers/BSP/Components/lps22hh\lps22hh_reg.c ****   * @param  uint8_t: change the values of f_fss5 in reg CTRL_REG3
1797:D:/fchai/work/i-cube/I-CUBE-HUAWEI/Drivers/BSP/Components/lps22hh\lps22hh_reg.c ****   *
1798:D:/fchai/work/i-cube/I-CUBE-HUAWEI/Drivers/BSP/Components/lps22hh\lps22hh_reg.c ****   */
1799:D:/fchai/work/i-cube/I-CUBE-HUAWEI/Drivers/BSP/Components/lps22hh\lps22hh_reg.c **** int32_t lps22hh_fifo_full_on_int_get(stmdev_ctx_t *ctx, uint8_t *val)
1800:D:/fchai/work/i-cube/I-CUBE-HUAWEI/Drivers/BSP/Components/lps22hh\lps22hh_reg.c **** {
 7081              		.loc 1 1800 1 is_stmt 1 view -0
 7082              		.cfi_startproc
 7083              		@ args = 0, pretend = 0, frame = 8
 7084              		@ frame_needed = 0, uses_anonymous_args = 0
1801:D:/fchai/work/i-cube/I-CUBE-HUAWEI/Drivers/BSP/Components/lps22hh\lps22hh_reg.c ****   lps22hh_ctrl_reg3_t reg;
 7085              		.loc 1 1801 3 view .LVU2031
1802:D:/fchai/work/i-cube/I-CUBE-HUAWEI/Drivers/BSP/Components/lps22hh\lps22hh_reg.c ****   int32_t ret;
 7086              		.loc 1 1802 3 view .LVU2032
1803:D:/fchai/work/i-cube/I-CUBE-HUAWEI/Drivers/BSP/Components/lps22hh\lps22hh_reg.c **** 
1804:D:/fchai/work/i-cube/I-CUBE-HUAWEI/Drivers/BSP/Components/lps22hh\lps22hh_reg.c ****   ret = lps22hh_read_reg(ctx, LPS22HH_CTRL_REG3, (uint8_t*)&reg, 1);
 7087              		.loc 1 1804 3 view .LVU2033
1800:D:/fchai/work/i-cube/I-CUBE-HUAWEI/Drivers/BSP/Components/lps22hh\lps22hh_reg.c ****   lps22hh_ctrl_reg3_t reg;
 7088              		.loc 1 1800 1 is_stmt 0 view .LVU2034
 7089 0000 30B5     		push	{r4, r5, lr}
 7090              	.LCFI222:
 7091              		.cfi_def_cfa_offset 12
 7092              		.cfi_offset 4, -12
 7093              		.cfi_offset 5, -8
 7094              		.cfi_offset 14, -4
 7095 0002 83B0     		sub	sp, sp, #12
 7096              	.LCFI223:
 7097              		.cfi_def_cfa_offset 24
 7098              	.LVL569:
 7099              	.LBB676:
 7100              	.LBI676:
  49:D:/fchai/work/i-cube/I-CUBE-HUAWEI/Drivers/BSP/Components/lps22hh\lps22hh_reg.c ****                          uint16_t len)
 7101              		.loc 1 49 9 is_stmt 1 view .LVU2035
 7102              	.LBB677:
  52:D:/fchai/work/i-cube/I-CUBE-HUAWEI/Drivers/BSP/Components/lps22hh\lps22hh_reg.c ****   ret = ctx->read_reg(ctx->handle, reg, data, len);
 7103              		.loc 1 52 3 view .LVU2036
  53:D:/fchai/work/i-cube/I-CUBE-HUAWEI/Drivers/BSP/Components/lps22hh\lps22hh_reg.c ****   return ret;
 7104              		.loc 1 53 3 view .LVU2037
 7105              	.LBE677:
 7106              	.LBE676:
1800:D:/fchai/work/i-cube/I-CUBE-HUAWEI/Drivers/BSP/Components/lps22hh\lps22hh_reg.c ****   lps22hh_ctrl_reg3_t reg;
 7107              		.loc 1 1800 1 is_stmt 0 view .LVU2038
 7108 0004 0C46     		mov	r4, r1
 7109              	.LBB679:
 7110              	.LBB678:
  53:D:/fchai/work/i-cube/I-CUBE-HUAWEI/Drivers/BSP/Components/lps22hh\lps22hh_reg.c ****   return ret;
 7111              		.loc 1 53 9 view .LVU2039
 7112 0006 D0E90150 		ldrd	r5, r0, [r0, #4]
ARM GAS  T:\msys\tmp\ccdfMMY7.s 			page 176


 7113              	.LVL570:
  53:D:/fchai/work/i-cube/I-CUBE-HUAWEI/Drivers/BSP/Components/lps22hh\lps22hh_reg.c ****   return ret;
 7114              		.loc 1 53 9 view .LVU2040
 7115 000a 0123     		movs	r3, #1
 7116 000c 01AA     		add	r2, sp, #4
 7117              	.LVL571:
  53:D:/fchai/work/i-cube/I-CUBE-HUAWEI/Drivers/BSP/Components/lps22hh\lps22hh_reg.c ****   return ret;
 7118              		.loc 1 53 9 view .LVU2041
 7119 000e 1221     		movs	r1, #18
 7120              	.LVL572:
  53:D:/fchai/work/i-cube/I-CUBE-HUAWEI/Drivers/BSP/Components/lps22hh\lps22hh_reg.c ****   return ret;
 7121              		.loc 1 53 9 view .LVU2042
 7122 0010 A847     		blx	r5
 7123              	.LVL573:
  54:D:/fchai/work/i-cube/I-CUBE-HUAWEI/Drivers/BSP/Components/lps22hh\lps22hh_reg.c **** }
 7124              		.loc 1 54 3 is_stmt 1 view .LVU2043
  54:D:/fchai/work/i-cube/I-CUBE-HUAWEI/Drivers/BSP/Components/lps22hh\lps22hh_reg.c **** }
 7125              		.loc 1 54 3 is_stmt 0 view .LVU2044
 7126              	.LBE678:
 7127              	.LBE679:
1805:D:/fchai/work/i-cube/I-CUBE-HUAWEI/Drivers/BSP/Components/lps22hh\lps22hh_reg.c ****   *val = reg.int_f_full;
 7128              		.loc 1 1805 3 is_stmt 1 view .LVU2045
 7129              		.loc 1 1805 13 is_stmt 0 view .LVU2046
 7130 0012 9DF80430 		ldrb	r3, [sp, #4]	@ zero_extendqisi2
 7131 0016 C3F34013 		ubfx	r3, r3, #5, #1
 7132              		.loc 1 1805 8 view .LVU2047
 7133 001a 2370     		strb	r3, [r4]
1806:D:/fchai/work/i-cube/I-CUBE-HUAWEI/Drivers/BSP/Components/lps22hh\lps22hh_reg.c **** 
1807:D:/fchai/work/i-cube/I-CUBE-HUAWEI/Drivers/BSP/Components/lps22hh\lps22hh_reg.c ****   return ret;
 7134              		.loc 1 1807 3 is_stmt 1 view .LVU2048
1808:D:/fchai/work/i-cube/I-CUBE-HUAWEI/Drivers/BSP/Components/lps22hh\lps22hh_reg.c **** }
 7135              		.loc 1 1808 1 is_stmt 0 view .LVU2049
 7136 001c 03B0     		add	sp, sp, #12
 7137              	.LCFI224:
 7138              		.cfi_def_cfa_offset 12
 7139              		@ sp needed
 7140 001e 30BD     		pop	{r4, r5, pc}
 7141              		.loc 1 1808 1 view .LVU2050
 7142              		.cfi_endproc
 7143              	.LFE75:
 7145              		.text
 7146              	.Letext0:
 7147              		.file 2 "t:\\msys\\3rd\\gcc-arm-none-eabi-9-2020-q2-update-win32\\arm-none-eabi\\include\\machine\
 7148              		.file 3 "t:\\msys\\3rd\\gcc-arm-none-eabi-9-2020-q2-update-win32\\arm-none-eabi\\include\\sys\\_st
 7149              		.file 4 "t:\\msys\\3rd\\gcc-arm-none-eabi-9-2020-q2-update-win32\\lib\\gcc\\arm-none-eabi\\9.3.1\\
 7150              		.file 5 "t:\\msys\\3rd\\gcc-arm-none-eabi-9-2020-q2-update-win32\\arm-none-eabi\\include\\sys\\_ty
 7151              		.file 6 "t:\\msys\\3rd\\gcc-arm-none-eabi-9-2020-q2-update-win32\\arm-none-eabi\\include\\sys\\ree
 7152              		.file 7 "t:\\msys\\3rd\\gcc-arm-none-eabi-9-2020-q2-update-win32\\arm-none-eabi\\include\\sys\\loc
 7153              		.file 8 "t:\\msys\\3rd\\gcc-arm-none-eabi-9-2020-q2-update-win32\\arm-none-eabi\\include\\math.h"
 7154              		.file 9 "D:/fchai/work/i-cube/I-CUBE-HUAWEI/Drivers/BSP/Components/lps22hh/lps22hh_reg.h"
ARM GAS  T:\msys\tmp\ccdfMMY7.s 			page 177


DEFINED SYMBOLS
                            *ABS*:00000000 lps22hh_reg.c
T:\msys\tmp\ccdfMMY7.s:18     .text.lps22hh_read_reg:00000000 $t
T:\msys\tmp\ccdfMMY7.s:27     .text.lps22hh_read_reg:00000000 lps22hh_read_reg
T:\msys\tmp\ccdfMMY7.s:61     .text.lps22hh_write_reg:00000000 $t
T:\msys\tmp\ccdfMMY7.s:69     .text.lps22hh_write_reg:00000000 lps22hh_write_reg
T:\msys\tmp\ccdfMMY7.s:103    .text.lps22hh_from_lsb_to_hpa:00000000 $t
T:\msys\tmp\ccdfMMY7.s:111    .text.lps22hh_from_lsb_to_hpa:00000000 lps22hh_from_lsb_to_hpa
T:\msys\tmp\ccdfMMY7.s:129    .text.lps22hh_from_lsb_to_celsius:00000000 $t
T:\msys\tmp\ccdfMMY7.s:137    .text.lps22hh_from_lsb_to_celsius:00000000 lps22hh_from_lsb_to_celsius
T:\msys\tmp\ccdfMMY7.s:157    .text.lps22hh_from_lsb_to_celsius:00000014 $d
T:\msys\tmp\ccdfMMY7.s:162    .text.lps22hh_autozero_rst_set:00000000 $t
T:\msys\tmp\ccdfMMY7.s:170    .text.lps22hh_autozero_rst_set:00000000 lps22hh_autozero_rst_set
T:\msys\tmp\ccdfMMY7.s:274    .text.lps22hh_autozero_rst_get:00000000 $t
T:\msys\tmp\ccdfMMY7.s:282    .text.lps22hh_autozero_rst_get:00000000 lps22hh_autozero_rst_get
T:\msys\tmp\ccdfMMY7.s:350    .text.lps22hh_autozero_set:00000000 $t
T:\msys\tmp\ccdfMMY7.s:358    .text.lps22hh_autozero_set:00000000 lps22hh_autozero_set
T:\msys\tmp\ccdfMMY7.s:462    .text.lps22hh_autozero_get:00000000 $t
T:\msys\tmp\ccdfMMY7.s:470    .text.lps22hh_autozero_get:00000000 lps22hh_autozero_get
T:\msys\tmp\ccdfMMY7.s:538    .text.lps22hh_pressure_snap_rst_set:00000000 $t
T:\msys\tmp\ccdfMMY7.s:546    .text.lps22hh_pressure_snap_rst_set:00000000 lps22hh_pressure_snap_rst_set
T:\msys\tmp\ccdfMMY7.s:650    .text.lps22hh_pressure_snap_rst_get:00000000 $t
T:\msys\tmp\ccdfMMY7.s:658    .text.lps22hh_pressure_snap_rst_get:00000000 lps22hh_pressure_snap_rst_get
T:\msys\tmp\ccdfMMY7.s:726    .text.lps22hh_pressure_snap_set:00000000 $t
T:\msys\tmp\ccdfMMY7.s:734    .text.lps22hh_pressure_snap_set:00000000 lps22hh_pressure_snap_set
T:\msys\tmp\ccdfMMY7.s:838    .text.lps22hh_pressure_snap_get:00000000 $t
T:\msys\tmp\ccdfMMY7.s:846    .text.lps22hh_pressure_snap_get:00000000 lps22hh_pressure_snap_get
T:\msys\tmp\ccdfMMY7.s:914    .text.lps22hh_block_data_update_set:00000000 $t
T:\msys\tmp\ccdfMMY7.s:922    .text.lps22hh_block_data_update_set:00000000 lps22hh_block_data_update_set
T:\msys\tmp\ccdfMMY7.s:1026   .text.lps22hh_block_data_update_get:00000000 $t
T:\msys\tmp\ccdfMMY7.s:1034   .text.lps22hh_block_data_update_get:00000000 lps22hh_block_data_update_get
T:\msys\tmp\ccdfMMY7.s:1102   .text.lps22hh_data_rate_set:00000000 $t
T:\msys\tmp\ccdfMMY7.s:1110   .text.lps22hh_data_rate_set:00000000 lps22hh_data_rate_set
T:\msys\tmp\ccdfMMY7.s:1282   .text.lps22hh_data_rate_get:00000000 $t
T:\msys\tmp\ccdfMMY7.s:1290   .text.lps22hh_data_rate_get:00000000 lps22hh_data_rate_get
T:\msys\tmp\ccdfMMY7.s:1421   .text.lps22hh_data_rate_get:00000054 $d
T:\msys\tmp\ccdfMMY7.s:1443   .text.lps22hh_data_rate_get:0000006a $t
T:\msys\tmp\ccdfMMY7.s:1557   .text.lps22hh_pressure_ref_set:00000000 $t
T:\msys\tmp\ccdfMMY7.s:1565   .text.lps22hh_pressure_ref_set:00000000 lps22hh_pressure_ref_set
T:\msys\tmp\ccdfMMY7.s:1623   .text.lps22hh_pressure_ref_get:00000000 $t
T:\msys\tmp\ccdfMMY7.s:1631   .text.lps22hh_pressure_ref_get:00000000 lps22hh_pressure_ref_get
T:\msys\tmp\ccdfMMY7.s:1688   .text.lps22hh_pressure_offset_set:00000000 $t
T:\msys\tmp\ccdfMMY7.s:1696   .text.lps22hh_pressure_offset_set:00000000 lps22hh_pressure_offset_set
T:\msys\tmp\ccdfMMY7.s:1754   .text.lps22hh_pressure_offset_get:00000000 $t
T:\msys\tmp\ccdfMMY7.s:1762   .text.lps22hh_pressure_offset_get:00000000 lps22hh_pressure_offset_get
T:\msys\tmp\ccdfMMY7.s:1819   .text.lps22hh_all_sources_get:00000000 $t
T:\msys\tmp\ccdfMMY7.s:1827   .text.lps22hh_all_sources_get:00000000 lps22hh_all_sources_get
T:\msys\tmp\ccdfMMY7.s:1953   .text.lps22hh_status_reg_get:00000000 $t
T:\msys\tmp\ccdfMMY7.s:1961   .text.lps22hh_status_reg_get:00000000 lps22hh_status_reg_get
T:\msys\tmp\ccdfMMY7.s:2018   .text.lps22hh_press_flag_data_ready_get:00000000 $t
T:\msys\tmp\ccdfMMY7.s:2026   .text.lps22hh_press_flag_data_ready_get:00000000 lps22hh_press_flag_data_ready_get
T:\msys\tmp\ccdfMMY7.s:2094   .text.lps22hh_temp_flag_data_ready_get:00000000 $t
T:\msys\tmp\ccdfMMY7.s:2102   .text.lps22hh_temp_flag_data_ready_get:00000000 lps22hh_temp_flag_data_ready_get
T:\msys\tmp\ccdfMMY7.s:2170   .text.lps22hh_pressure_raw_get:00000000 $t
T:\msys\tmp\ccdfMMY7.s:2178   .text.lps22hh_pressure_raw_get:00000000 lps22hh_pressure_raw_get
T:\msys\tmp\ccdfMMY7.s:2235   .text.lps22hh_temperature_raw_get:00000000 $t
T:\msys\tmp\ccdfMMY7.s:2243   .text.lps22hh_temperature_raw_get:00000000 lps22hh_temperature_raw_get
ARM GAS  T:\msys\tmp\ccdfMMY7.s 			page 178


T:\msys\tmp\ccdfMMY7.s:2300   .text.lps22hh_fifo_pressure_raw_get:00000000 $t
T:\msys\tmp\ccdfMMY7.s:2308   .text.lps22hh_fifo_pressure_raw_get:00000000 lps22hh_fifo_pressure_raw_get
T:\msys\tmp\ccdfMMY7.s:2365   .text.lps22hh_fifo_temperature_raw_get:00000000 $t
T:\msys\tmp\ccdfMMY7.s:2373   .text.lps22hh_fifo_temperature_raw_get:00000000 lps22hh_fifo_temperature_raw_get
T:\msys\tmp\ccdfMMY7.s:2430   .text.lps22hh_device_id_get:00000000 $t
T:\msys\tmp\ccdfMMY7.s:2438   .text.lps22hh_device_id_get:00000000 lps22hh_device_id_get
T:\msys\tmp\ccdfMMY7.s:2495   .text.lps22hh_reset_set:00000000 $t
T:\msys\tmp\ccdfMMY7.s:2503   .text.lps22hh_reset_set:00000000 lps22hh_reset_set
T:\msys\tmp\ccdfMMY7.s:2607   .text.lps22hh_reset_get:00000000 $t
T:\msys\tmp\ccdfMMY7.s:2615   .text.lps22hh_reset_get:00000000 lps22hh_reset_get
T:\msys\tmp\ccdfMMY7.s:2683   .text.lps22hh_auto_increment_set:00000000 $t
T:\msys\tmp\ccdfMMY7.s:2691   .text.lps22hh_auto_increment_set:00000000 lps22hh_auto_increment_set
T:\msys\tmp\ccdfMMY7.s:2795   .text.lps22hh_auto_increment_get:00000000 $t
T:\msys\tmp\ccdfMMY7.s:2803   .text.lps22hh_auto_increment_get:00000000 lps22hh_auto_increment_get
T:\msys\tmp\ccdfMMY7.s:2871   .text.lps22hh_boot_set:00000000 $t
T:\msys\tmp\ccdfMMY7.s:2879   .text.lps22hh_boot_set:00000000 lps22hh_boot_set
T:\msys\tmp\ccdfMMY7.s:2983   .text.lps22hh_boot_get:00000000 $t
T:\msys\tmp\ccdfMMY7.s:2991   .text.lps22hh_boot_get:00000000 lps22hh_boot_get
T:\msys\tmp\ccdfMMY7.s:3059   .text.lps22hh_lp_bandwidth_set:00000000 $t
T:\msys\tmp\ccdfMMY7.s:3067   .text.lps22hh_lp_bandwidth_set:00000000 lps22hh_lp_bandwidth_set
T:\msys\tmp\ccdfMMY7.s:3171   .text.lps22hh_lp_bandwidth_get:00000000 $t
T:\msys\tmp\ccdfMMY7.s:3179   .text.lps22hh_lp_bandwidth_get:00000000 lps22hh_lp_bandwidth_get
T:\msys\tmp\ccdfMMY7.s:3279   .text.lps22hh_i2c_interface_set:00000000 $t
T:\msys\tmp\ccdfMMY7.s:3287   .text.lps22hh_i2c_interface_set:00000000 lps22hh_i2c_interface_set
T:\msys\tmp\ccdfMMY7.s:3391   .text.lps22hh_i2c_interface_get:00000000 $t
T:\msys\tmp\ccdfMMY7.s:3399   .text.lps22hh_i2c_interface_get:00000000 lps22hh_i2c_interface_get
T:\msys\tmp\ccdfMMY7.s:3484   .text.lps22hh_i3c_interface_set:00000000 $t
T:\msys\tmp\ccdfMMY7.s:3492   .text.lps22hh_i3c_interface_set:00000000 lps22hh_i3c_interface_set
T:\msys\tmp\ccdfMMY7.s:3608   .text.lps22hh_i3c_interface_get:00000000 $t
T:\msys\tmp\ccdfMMY7.s:3616   .text.lps22hh_i3c_interface_get:00000000 lps22hh_i3c_interface_get
T:\msys\tmp\ccdfMMY7.s:3717   .text.lps22hh_sdo_sa0_mode_set:00000000 $t
T:\msys\tmp\ccdfMMY7.s:3725   .text.lps22hh_sdo_sa0_mode_set:00000000 lps22hh_sdo_sa0_mode_set
T:\msys\tmp\ccdfMMY7.s:3829   .text.lps22hh_sdo_sa0_mode_get:00000000 $t
T:\msys\tmp\ccdfMMY7.s:3837   .text.lps22hh_sdo_sa0_mode_get:00000000 lps22hh_sdo_sa0_mode_get
T:\msys\tmp\ccdfMMY7.s:3922   .text.lps22hh_sda_mode_set:00000000 $t
T:\msys\tmp\ccdfMMY7.s:3930   .text.lps22hh_sda_mode_set:00000000 lps22hh_sda_mode_set
T:\msys\tmp\ccdfMMY7.s:4034   .text.lps22hh_sda_mode_get:00000000 $t
T:\msys\tmp\ccdfMMY7.s:4042   .text.lps22hh_sda_mode_get:00000000 lps22hh_sda_mode_get
T:\msys\tmp\ccdfMMY7.s:4127   .text.lps22hh_spi_mode_set:00000000 $t
T:\msys\tmp\ccdfMMY7.s:4135   .text.lps22hh_spi_mode_set:00000000 lps22hh_spi_mode_set
T:\msys\tmp\ccdfMMY7.s:4239   .text.lps22hh_spi_mode_get:00000000 $t
T:\msys\tmp\ccdfMMY7.s:4247   .text.lps22hh_spi_mode_get:00000000 lps22hh_spi_mode_get
T:\msys\tmp\ccdfMMY7.s:4332   .text.lps22hh_int_notification_set:00000000 $t
T:\msys\tmp\ccdfMMY7.s:4340   .text.lps22hh_int_notification_set:00000000 lps22hh_int_notification_set
T:\msys\tmp\ccdfMMY7.s:4444   .text.lps22hh_int_notification_get:00000000 $t
T:\msys\tmp\ccdfMMY7.s:4452   .text.lps22hh_int_notification_get:00000000 lps22hh_int_notification_get
T:\msys\tmp\ccdfMMY7.s:4537   .text.lps22hh_pin_mode_set:00000000 $t
T:\msys\tmp\ccdfMMY7.s:4545   .text.lps22hh_pin_mode_set:00000000 lps22hh_pin_mode_set
T:\msys\tmp\ccdfMMY7.s:4649   .text.lps22hh_pin_mode_get:00000000 $t
T:\msys\tmp\ccdfMMY7.s:4657   .text.lps22hh_pin_mode_get:00000000 lps22hh_pin_mode_get
T:\msys\tmp\ccdfMMY7.s:4742   .text.lps22hh_pin_polarity_set:00000000 $t
T:\msys\tmp\ccdfMMY7.s:4750   .text.lps22hh_pin_polarity_set:00000000 lps22hh_pin_polarity_set
T:\msys\tmp\ccdfMMY7.s:4854   .text.lps22hh_pin_polarity_get:00000000 $t
T:\msys\tmp\ccdfMMY7.s:4862   .text.lps22hh_pin_polarity_get:00000000 lps22hh_pin_polarity_get
T:\msys\tmp\ccdfMMY7.s:4947   .text.lps22hh_pin_int_route_set:00000000 $t
T:\msys\tmp\ccdfMMY7.s:4955   .text.lps22hh_pin_int_route_set:00000000 lps22hh_pin_int_route_set
T:\msys\tmp\ccdfMMY7.s:5013   .text.lps22hh_pin_int_route_get:00000000 $t
ARM GAS  T:\msys\tmp\ccdfMMY7.s 			page 179


T:\msys\tmp\ccdfMMY7.s:5021   .text.lps22hh_pin_int_route_get:00000000 lps22hh_pin_int_route_get
T:\msys\tmp\ccdfMMY7.s:5078   .text.lps22hh_int_on_threshold_set:00000000 $t
T:\msys\tmp\ccdfMMY7.s:5086   .text.lps22hh_int_on_threshold_set:00000000 lps22hh_int_on_threshold_set
T:\msys\tmp\ccdfMMY7.s:5203   .text.lps22hh_int_on_threshold_get:00000000 $t
T:\msys\tmp\ccdfMMY7.s:5211   .text.lps22hh_int_on_threshold_get:00000000 lps22hh_int_on_threshold_get
T:\msys\tmp\ccdfMMY7.s:5313   .text.lps22hh_int_treshold_set:00000000 $t
T:\msys\tmp\ccdfMMY7.s:5321   .text.lps22hh_int_treshold_set:00000000 lps22hh_int_treshold_set
T:\msys\tmp\ccdfMMY7.s:5423   .text.lps22hh_int_treshold_get:00000000 $t
T:\msys\tmp\ccdfMMY7.s:5431   .text.lps22hh_int_treshold_get:00000000 lps22hh_int_treshold_get
T:\msys\tmp\ccdfMMY7.s:5540   .text.lps22hh_fifo_mode_set:00000000 $t
T:\msys\tmp\ccdfMMY7.s:5548   .text.lps22hh_fifo_mode_set:00000000 lps22hh_fifo_mode_set
T:\msys\tmp\ccdfMMY7.s:5652   .text.lps22hh_fifo_mode_get:00000000 $t
T:\msys\tmp\ccdfMMY7.s:5660   .text.lps22hh_fifo_mode_get:00000000 lps22hh_fifo_mode_get
T:\msys\tmp\ccdfMMY7.s:5726   .text.lps22hh_fifo_mode_get:00000024 $d
T:\msys\tmp\ccdfMMY7.s:5848   .text.lps22hh_fifo_stop_on_wtm_set:00000000 $t
T:\msys\tmp\ccdfMMY7.s:5856   .text.lps22hh_fifo_stop_on_wtm_set:00000000 lps22hh_fifo_stop_on_wtm_set
T:\msys\tmp\ccdfMMY7.s:5960   .text.lps22hh_fifo_stop_on_wtm_get:00000000 $t
T:\msys\tmp\ccdfMMY7.s:5968   .text.lps22hh_fifo_stop_on_wtm_get:00000000 lps22hh_fifo_stop_on_wtm_get
T:\msys\tmp\ccdfMMY7.s:6036   .text.lps22hh_fifo_watermark_set:00000000 $t
T:\msys\tmp\ccdfMMY7.s:6044   .text.lps22hh_fifo_watermark_set:00000000 lps22hh_fifo_watermark_set
T:\msys\tmp\ccdfMMY7.s:6148   .text.lps22hh_fifo_watermark_get:00000000 $t
T:\msys\tmp\ccdfMMY7.s:6156   .text.lps22hh_fifo_watermark_get:00000000 lps22hh_fifo_watermark_get
T:\msys\tmp\ccdfMMY7.s:6224   .text.lps22hh_fifo_data_level_get:00000000 $t
T:\msys\tmp\ccdfMMY7.s:6232   .text.lps22hh_fifo_data_level_get:00000000 lps22hh_fifo_data_level_get
T:\msys\tmp\ccdfMMY7.s:6289   .text.lps22hh_fifo_src_get:00000000 $t
T:\msys\tmp\ccdfMMY7.s:6297   .text.lps22hh_fifo_src_get:00000000 lps22hh_fifo_src_get
T:\msys\tmp\ccdfMMY7.s:6354   .text.lps22hh_fifo_full_flag_get:00000000 $t
T:\msys\tmp\ccdfMMY7.s:6362   .text.lps22hh_fifo_full_flag_get:00000000 lps22hh_fifo_full_flag_get
T:\msys\tmp\ccdfMMY7.s:6430   .text.lps22hh_fifo_ovr_flag_get:00000000 $t
T:\msys\tmp\ccdfMMY7.s:6438   .text.lps22hh_fifo_ovr_flag_get:00000000 lps22hh_fifo_ovr_flag_get
T:\msys\tmp\ccdfMMY7.s:6506   .text.lps22hh_fifo_wtm_flag_get:00000000 $t
T:\msys\tmp\ccdfMMY7.s:6514   .text.lps22hh_fifo_wtm_flag_get:00000000 lps22hh_fifo_wtm_flag_get
T:\msys\tmp\ccdfMMY7.s:6582   .text.lps22hh_fifo_ovr_on_int_set:00000000 $t
T:\msys\tmp\ccdfMMY7.s:6590   .text.lps22hh_fifo_ovr_on_int_set:00000000 lps22hh_fifo_ovr_on_int_set
T:\msys\tmp\ccdfMMY7.s:6694   .text.lps22hh_fifo_ovr_on_int_get:00000000 $t
T:\msys\tmp\ccdfMMY7.s:6702   .text.lps22hh_fifo_ovr_on_int_get:00000000 lps22hh_fifo_ovr_on_int_get
T:\msys\tmp\ccdfMMY7.s:6770   .text.lps22hh_fifo_threshold_on_int_set:00000000 $t
T:\msys\tmp\ccdfMMY7.s:6778   .text.lps22hh_fifo_threshold_on_int_set:00000000 lps22hh_fifo_threshold_on_int_set
T:\msys\tmp\ccdfMMY7.s:6882   .text.lps22hh_fifo_threshold_on_int_get:00000000 $t
T:\msys\tmp\ccdfMMY7.s:6890   .text.lps22hh_fifo_threshold_on_int_get:00000000 lps22hh_fifo_threshold_on_int_get
T:\msys\tmp\ccdfMMY7.s:6958   .text.lps22hh_fifo_full_on_int_set:00000000 $t
T:\msys\tmp\ccdfMMY7.s:6966   .text.lps22hh_fifo_full_on_int_set:00000000 lps22hh_fifo_full_on_int_set
T:\msys\tmp\ccdfMMY7.s:7070   .text.lps22hh_fifo_full_on_int_get:00000000 $t
T:\msys\tmp\ccdfMMY7.s:7078   .text.lps22hh_fifo_full_on_int_get:00000000 lps22hh_fifo_full_on_int_get
T:\msys\tmp\ccdfMMY7.s:5733   .text.lps22hh_fifo_mode_get:0000002b $d
T:\msys\tmp\ccdfMMY7.s:5733   .text.lps22hh_fifo_mode_get:0000002c $t

NO UNDEFINED SYMBOLS
