ARM GAS  T:\msys\tmp\ccZZee3I.s 			page 1


   1              		.cpu cortex-m4
   2              		.eabi_attribute 27, 1
   3              		.eabi_attribute 28, 1
   4              		.eabi_attribute 20, 1
   5              		.eabi_attribute 21, 1
   6              		.eabi_attribute 23, 3
   7              		.eabi_attribute 24, 1
   8              		.eabi_attribute 25, 1
   9              		.eabi_attribute 26, 1
  10              		.eabi_attribute 30, 2
  11              		.eabi_attribute 34, 1
  12              		.eabi_attribute 18, 4
  13              		.file	"osal.c"
  14              		.text
  15              	.Ltext0:
  16              		.cfi_sections	.debug_frame
  17              		.section	.text.osal_install,"ax",%progbits
  18              		.align	1
  19              		.p2align 2,,3
  20              		.global	osal_install
  21              		.arch armv7e-m
  22              		.syntax unified
  23              		.thumb
  24              		.thumb_func
  25              		.fpu fpv4-sp-d16
  27              	osal_install:
  28              	.LVL0:
  29              	.LFB3:
  30              		.file 1 "D:/fchai/work/i-cube/I-CUBE-HUAWEI/Middlewares/Third_Party/Huawei/iot_link/os/osal/osal.c
   1:D:/fchai/work/i-cube/I-CUBE-HUAWEI/Middlewares/Third_Party/Huawei/iot_link/os/osal\osal.c **** /*----------------------------------------------------------------------------
   2:D:/fchai/work/i-cube/I-CUBE-HUAWEI/Middlewares/Third_Party/Huawei/iot_link/os/osal\osal.c ****  * Copyright (c) <2018>, <Huawei Technologies Co., Ltd>
   3:D:/fchai/work/i-cube/I-CUBE-HUAWEI/Middlewares/Third_Party/Huawei/iot_link/os/osal\osal.c ****  * All rights reserved.
   4:D:/fchai/work/i-cube/I-CUBE-HUAWEI/Middlewares/Third_Party/Huawei/iot_link/os/osal\osal.c ****  * Redistribution and use in source and binary forms, with or without modification,
   5:D:/fchai/work/i-cube/I-CUBE-HUAWEI/Middlewares/Third_Party/Huawei/iot_link/os/osal\osal.c ****  * are permitted provided that the following conditions are met:
   6:D:/fchai/work/i-cube/I-CUBE-HUAWEI/Middlewares/Third_Party/Huawei/iot_link/os/osal\osal.c ****  * 1. Redistributions of source code must retain the above copyright notice, this list of
   7:D:/fchai/work/i-cube/I-CUBE-HUAWEI/Middlewares/Third_Party/Huawei/iot_link/os/osal\osal.c ****  * conditions and the following disclaimer.
   8:D:/fchai/work/i-cube/I-CUBE-HUAWEI/Middlewares/Third_Party/Huawei/iot_link/os/osal\osal.c ****  * 2. Redistributions in binary form must reproduce the above copyright notice, this list
   9:D:/fchai/work/i-cube/I-CUBE-HUAWEI/Middlewares/Third_Party/Huawei/iot_link/os/osal\osal.c ****  * of conditions and the following disclaimer in the documentation and/or other materials
  10:D:/fchai/work/i-cube/I-CUBE-HUAWEI/Middlewares/Third_Party/Huawei/iot_link/os/osal\osal.c ****  * provided with the distribution.
  11:D:/fchai/work/i-cube/I-CUBE-HUAWEI/Middlewares/Third_Party/Huawei/iot_link/os/osal\osal.c ****  * 3. Neither the name of the copyright holder nor the names of its contributors may be used
  12:D:/fchai/work/i-cube/I-CUBE-HUAWEI/Middlewares/Third_Party/Huawei/iot_link/os/osal\osal.c ****  * to endorse or promote products derived from this software without specific prior written
  13:D:/fchai/work/i-cube/I-CUBE-HUAWEI/Middlewares/Third_Party/Huawei/iot_link/os/osal\osal.c ****  * permission.
  14:D:/fchai/work/i-cube/I-CUBE-HUAWEI/Middlewares/Third_Party/Huawei/iot_link/os/osal\osal.c ****  * THIS SOFTWARE IS PROVIDED BY THE COPYRIGHT HOLDERS AND CONTRIBUTORS
  15:D:/fchai/work/i-cube/I-CUBE-HUAWEI/Middlewares/Third_Party/Huawei/iot_link/os/osal\osal.c ****  * "AS IS" AND ANY EXPRESS OR IMPLIED WARRANTIES, INCLUDING, BUT NOT LIMITED TO,
  16:D:/fchai/work/i-cube/I-CUBE-HUAWEI/Middlewares/Third_Party/Huawei/iot_link/os/osal\osal.c ****  * THE IMPLIED WARRANTIES OF MERCHANTABILITY AND FITNESS FOR A PARTICULAR
  17:D:/fchai/work/i-cube/I-CUBE-HUAWEI/Middlewares/Third_Party/Huawei/iot_link/os/osal\osal.c ****  * PURPOSE ARE DISCLAIMED. IN NO EVENT SHALL THE COPYRIGHT HOLDER OR
  18:D:/fchai/work/i-cube/I-CUBE-HUAWEI/Middlewares/Third_Party/Huawei/iot_link/os/osal\osal.c ****  * CONTRIBUTORS BE LIABLE FOR ANY DIRECT, INDIRECT, INCIDENTAL, SPECIAL,
  19:D:/fchai/work/i-cube/I-CUBE-HUAWEI/Middlewares/Third_Party/Huawei/iot_link/os/osal\osal.c ****  * EXEMPLARY, OR CONSEQUENTIAL DAMAGES (INCLUDING, BUT NOT LIMITED TO,
  20:D:/fchai/work/i-cube/I-CUBE-HUAWEI/Middlewares/Third_Party/Huawei/iot_link/os/osal\osal.c ****  * PROCUREMENT OF SUBSTITUTE GOODS OR SERVICES; LOSS OF USE, DATA, OR PROFITS;
  21:D:/fchai/work/i-cube/I-CUBE-HUAWEI/Middlewares/Third_Party/Huawei/iot_link/os/osal\osal.c ****  * OR BUSINESS INTERRUPTION) HOWEVER CAUSED AND ON ANY THEORY OF LIABILITY,
  22:D:/fchai/work/i-cube/I-CUBE-HUAWEI/Middlewares/Third_Party/Huawei/iot_link/os/osal\osal.c ****  * WHETHER IN CONTRACT, STRICT LIABILITY, OR TORT (INCLUDING NEGLIGENCE OR
  23:D:/fchai/work/i-cube/I-CUBE-HUAWEI/Middlewares/Third_Party/Huawei/iot_link/os/osal\osal.c ****  * OTHERWISE) ARISING IN ANY WAY OUT OF THE USE OF THIS SOFTWARE, EVEN IF
  24:D:/fchai/work/i-cube/I-CUBE-HUAWEI/Middlewares/Third_Party/Huawei/iot_link/os/osal\osal.c ****  * ADVISED OF THE POSSIBILITY OF SUCH DAMAGE.
  25:D:/fchai/work/i-cube/I-CUBE-HUAWEI/Middlewares/Third_Party/Huawei/iot_link/os/osal\osal.c ****  *---------------------------------------------------------------------------*/
  26:D:/fchai/work/i-cube/I-CUBE-HUAWEI/Middlewares/Third_Party/Huawei/iot_link/os/osal\osal.c **** /*----------------------------------------------------------------------------
  27:D:/fchai/work/i-cube/I-CUBE-HUAWEI/Middlewares/Third_Party/Huawei/iot_link/os/osal\osal.c ****  * Notice of Export Control Law
  28:D:/fchai/work/i-cube/I-CUBE-HUAWEI/Middlewares/Third_Party/Huawei/iot_link/os/osal\osal.c ****  * ===============================================
ARM GAS  T:\msys\tmp\ccZZee3I.s 			page 2


  29:D:/fchai/work/i-cube/I-CUBE-HUAWEI/Middlewares/Third_Party/Huawei/iot_link/os/osal\osal.c ****  * Huawei LiteOS may be subject to applicable export control laws and regulations, which might
  30:D:/fchai/work/i-cube/I-CUBE-HUAWEI/Middlewares/Third_Party/Huawei/iot_link/os/osal\osal.c ****  * include those applicable to Huawei LiteOS of U.S. and the country in which you are located.
  31:D:/fchai/work/i-cube/I-CUBE-HUAWEI/Middlewares/Third_Party/Huawei/iot_link/os/osal\osal.c ****  * Import, export and usage of Huawei LiteOS in any manner by you shall be in compliance with such
  32:D:/fchai/work/i-cube/I-CUBE-HUAWEI/Middlewares/Third_Party/Huawei/iot_link/os/osal\osal.c ****  * applicable export control laws and regulations.
  33:D:/fchai/work/i-cube/I-CUBE-HUAWEI/Middlewares/Third_Party/Huawei/iot_link/os/osal\osal.c ****  *---------------------------------------------------------------------------*/
  34:D:/fchai/work/i-cube/I-CUBE-HUAWEI/Middlewares/Third_Party/Huawei/iot_link/os/osal\osal.c **** /**
  35:D:/fchai/work/i-cube/I-CUBE-HUAWEI/Middlewares/Third_Party/Huawei/iot_link/os/osal\osal.c ****  *  DATE                AUTHOR      INSTRUCTION
  36:D:/fchai/work/i-cube/I-CUBE-HUAWEI/Middlewares/Third_Party/Huawei/iot_link/os/osal\osal.c ****  *  2019-07-26 18:04  zhangqianfu  The first version
  37:D:/fchai/work/i-cube/I-CUBE-HUAWEI/Middlewares/Third_Party/Huawei/iot_link/os/osal\osal.c ****  *
  38:D:/fchai/work/i-cube/I-CUBE-HUAWEI/Middlewares/Third_Party/Huawei/iot_link/os/osal\osal.c ****  */
  39:D:/fchai/work/i-cube/I-CUBE-HUAWEI/Middlewares/Third_Party/Huawei/iot_link/os/osal\osal.c **** #include <stddef.h>
  40:D:/fchai/work/i-cube/I-CUBE-HUAWEI/Middlewares/Third_Party/Huawei/iot_link/os/osal\osal.c **** #include <stdint.h>
  41:D:/fchai/work/i-cube/I-CUBE-HUAWEI/Middlewares/Third_Party/Huawei/iot_link/os/osal\osal.c **** #include <stdlib.h>
  42:D:/fchai/work/i-cube/I-CUBE-HUAWEI/Middlewares/Third_Party/Huawei/iot_link/os/osal\osal.c **** 
  43:D:/fchai/work/i-cube/I-CUBE-HUAWEI/Middlewares/Third_Party/Huawei/iot_link/os/osal\osal.c **** 
  44:D:/fchai/work/i-cube/I-CUBE-HUAWEI/Middlewares/Third_Party/Huawei/iot_link/os/osal\osal.c **** #include <string.h>
  45:D:/fchai/work/i-cube/I-CUBE-HUAWEI/Middlewares/Third_Party/Huawei/iot_link/os/osal\osal.c **** 
  46:D:/fchai/work/i-cube/I-CUBE-HUAWEI/Middlewares/Third_Party/Huawei/iot_link/os/osal\osal.c **** #include <osal_imp.h>
  47:D:/fchai/work/i-cube/I-CUBE-HUAWEI/Middlewares/Third_Party/Huawei/iot_link/os/osal\osal.c **** #include <osal.h>
  48:D:/fchai/work/i-cube/I-CUBE-HUAWEI/Middlewares/Third_Party/Huawei/iot_link/os/osal\osal.c **** 
  49:D:/fchai/work/i-cube/I-CUBE-HUAWEI/Middlewares/Third_Party/Huawei/iot_link/os/osal\osal.c **** static const tag_os *s_os_cb = NULL;
  50:D:/fchai/work/i-cube/I-CUBE-HUAWEI/Middlewares/Third_Party/Huawei/iot_link/os/osal\osal.c **** 
  51:D:/fchai/work/i-cube/I-CUBE-HUAWEI/Middlewares/Third_Party/Huawei/iot_link/os/osal\osal.c **** int osal_install(const tag_os *os)
  52:D:/fchai/work/i-cube/I-CUBE-HUAWEI/Middlewares/Third_Party/Huawei/iot_link/os/osal\osal.c **** {
  31              		.loc 1 52 1 view -0
  32              		.cfi_startproc
  33              		@ args = 0, pretend = 0, frame = 0
  34              		@ frame_needed = 0, uses_anonymous_args = 0
  35              		@ link register save eliminated.
  53:D:/fchai/work/i-cube/I-CUBE-HUAWEI/Middlewares/Third_Party/Huawei/iot_link/os/osal\osal.c ****     int ret = -1;
  36              		.loc 1 53 5 view .LVU1
  54:D:/fchai/work/i-cube/I-CUBE-HUAWEI/Middlewares/Third_Party/Huawei/iot_link/os/osal\osal.c **** 
  55:D:/fchai/work/i-cube/I-CUBE-HUAWEI/Middlewares/Third_Party/Huawei/iot_link/os/osal\osal.c ****     if(NULL == s_os_cb)
  37              		.loc 1 55 5 view .LVU2
  38              		.loc 1 55 13 is_stmt 0 view .LVU3
  39 0000 044A     		ldr	r2, .L5
  40              		.loc 1 55 7 view .LVU4
  41 0002 1368     		ldr	r3, [r2]
  42 0004 13B9     		cbnz	r3, .L3
  56:D:/fchai/work/i-cube/I-CUBE-HUAWEI/Middlewares/Third_Party/Huawei/iot_link/os/osal\osal.c ****     {
  57:D:/fchai/work/i-cube/I-CUBE-HUAWEI/Middlewares/Third_Party/Huawei/iot_link/os/osal\osal.c ****         s_os_cb = os;
  43              		.loc 1 57 9 is_stmt 1 view .LVU5
  44              		.loc 1 57 17 is_stmt 0 view .LVU6
  45 0006 1060     		str	r0, [r2]
  58:D:/fchai/work/i-cube/I-CUBE-HUAWEI/Middlewares/Third_Party/Huawei/iot_link/os/osal\osal.c ****         ret = 0;
  46              		.loc 1 58 9 is_stmt 1 view .LVU7
  47              	.LVL1:
  48              		.loc 1 58 13 is_stmt 0 view .LVU8
  49 0008 1846     		mov	r0, r3
  50              	.LVL2:
  51              		.loc 1 58 13 view .LVU9
  52 000a 7047     		bx	lr
  53              	.LVL3:
  54              	.L3:
  53:D:/fchai/work/i-cube/I-CUBE-HUAWEI/Middlewares/Third_Party/Huawei/iot_link/os/osal\osal.c **** 
  55              		.loc 1 53 9 view .LVU10
  56 000c 4FF0FF30 		mov	r0, #-1
ARM GAS  T:\msys\tmp\ccZZee3I.s 			page 3


  57              	.LVL4:
  59:D:/fchai/work/i-cube/I-CUBE-HUAWEI/Middlewares/Third_Party/Huawei/iot_link/os/osal\osal.c ****     }
  60:D:/fchai/work/i-cube/I-CUBE-HUAWEI/Middlewares/Third_Party/Huawei/iot_link/os/osal\osal.c **** 
  61:D:/fchai/work/i-cube/I-CUBE-HUAWEI/Middlewares/Third_Party/Huawei/iot_link/os/osal\osal.c ****     return ret;
  58              		.loc 1 61 5 is_stmt 1 view .LVU11
  62:D:/fchai/work/i-cube/I-CUBE-HUAWEI/Middlewares/Third_Party/Huawei/iot_link/os/osal\osal.c **** }
  59              		.loc 1 62 1 is_stmt 0 view .LVU12
  60 0010 7047     		bx	lr
  61              	.L6:
  62 0012 00BF     		.align	2
  63              	.L5:
  64 0014 00000000 		.word	.LANCHOR0
  65              		.cfi_endproc
  66              	.LFE3:
  68              		.section	.text.osal_task_create,"ax",%progbits
  69              		.align	1
  70              		.p2align 2,,3
  71              		.global	osal_task_create
  72              		.syntax unified
  73              		.thumb
  74              		.thumb_func
  75              		.fpu fpv4-sp-d16
  77              	osal_task_create:
  78              	.LVL5:
  79              	.LFB4:
  63:D:/fchai/work/i-cube/I-CUBE-HUAWEI/Middlewares/Third_Party/Huawei/iot_link/os/osal\osal.c **** 
  64:D:/fchai/work/i-cube/I-CUBE-HUAWEI/Middlewares/Third_Party/Huawei/iot_link/os/osal\osal.c **** 
  65:D:/fchai/work/i-cube/I-CUBE-HUAWEI/Middlewares/Third_Party/Huawei/iot_link/os/osal\osal.c **** void* osal_task_create(const char *name,int (*task_entry)(void *args),\
  66:D:/fchai/work/i-cube/I-CUBE-HUAWEI/Middlewares/Third_Party/Huawei/iot_link/os/osal\osal.c ****                       void *args,int stack_size,void *stack,int prior)
  67:D:/fchai/work/i-cube/I-CUBE-HUAWEI/Middlewares/Third_Party/Huawei/iot_link/os/osal\osal.c **** {
  80              		.loc 1 67 1 is_stmt 1 view -0
  81              		.cfi_startproc
  82              		@ args = 8, pretend = 0, frame = 0
  83              		@ frame_needed = 0, uses_anonymous_args = 0
  84              		@ link register save eliminated.
  68:D:/fchai/work/i-cube/I-CUBE-HUAWEI/Middlewares/Third_Party/Huawei/iot_link/os/osal\osal.c ****     void *ret = NULL;
  85              		.loc 1 68 5 view .LVU14
  69:D:/fchai/work/i-cube/I-CUBE-HUAWEI/Middlewares/Third_Party/Huawei/iot_link/os/osal\osal.c **** 
  70:D:/fchai/work/i-cube/I-CUBE-HUAWEI/Middlewares/Third_Party/Huawei/iot_link/os/osal\osal.c ****     if((NULL != s_os_cb) &&(NULL != s_os_cb->ops) &&(NULL != s_os_cb->ops->task_create))
  86              		.loc 1 70 5 view .LVU15
  67:D:/fchai/work/i-cube/I-CUBE-HUAWEI/Middlewares/Third_Party/Huawei/iot_link/os/osal\osal.c ****     void *ret = NULL;
  87              		.loc 1 67 1 is_stmt 0 view .LVU16
  88 0000 10B4     		push	{r4}
  89              	.LCFI0:
  90              		.cfi_def_cfa_offset 4
  91              		.cfi_offset 4, -4
  92              		.loc 1 70 14 view .LVU17
  93 0002 074C     		ldr	r4, .L18
  94 0004 2468     		ldr	r4, [r4]
  95              		.loc 1 70 7 view .LVU18
  96 0006 3CB1     		cbz	r4, .L7
  97              		.loc 1 70 44 discriminator 1 view .LVU19
  98 0008 6468     		ldr	r4, [r4, #4]
  99              		.loc 1 70 26 discriminator 1 view .LVU20
 100 000a 2CB1     		cbz	r4, .L7
 101              		.loc 1 70 74 discriminator 2 view .LVU21
 102 000c 2468     		ldr	r4, [r4]
ARM GAS  T:\msys\tmp\ccZZee3I.s 			page 4


 103              		.loc 1 70 51 discriminator 2 view .LVU22
 104 000e 1CB1     		cbz	r4, .L7
  71:D:/fchai/work/i-cube/I-CUBE-HUAWEI/Middlewares/Third_Party/Huawei/iot_link/os/osal\osal.c ****     {
  72:D:/fchai/work/i-cube/I-CUBE-HUAWEI/Middlewares/Third_Party/Huawei/iot_link/os/osal\osal.c ****         ret = s_os_cb->ops->task_create(name, task_entry,args,stack_size,stack,prior);
 105              		.loc 1 72 9 is_stmt 1 view .LVU23
 106              		.loc 1 72 15 is_stmt 0 view .LVU24
 107 0010 A446     		mov	ip, r4
  73:D:/fchai/work/i-cube/I-CUBE-HUAWEI/Middlewares/Third_Party/Huawei/iot_link/os/osal\osal.c ****     }
  74:D:/fchai/work/i-cube/I-CUBE-HUAWEI/Middlewares/Third_Party/Huawei/iot_link/os/osal\osal.c **** 
  75:D:/fchai/work/i-cube/I-CUBE-HUAWEI/Middlewares/Third_Party/Huawei/iot_link/os/osal\osal.c ****     return ret;
  76:D:/fchai/work/i-cube/I-CUBE-HUAWEI/Middlewares/Third_Party/Huawei/iot_link/os/osal\osal.c **** }
 108              		.loc 1 76 1 view .LVU25
 109 0012 5DF8044B 		ldr	r4, [sp], #4
 110              	.LCFI1:
 111              		.cfi_remember_state
 112              		.cfi_restore 4
 113              		.cfi_def_cfa_offset 0
 114              	.LVL6:
  72:D:/fchai/work/i-cube/I-CUBE-HUAWEI/Middlewares/Third_Party/Huawei/iot_link/os/osal\osal.c ****     }
 115              		.loc 1 72 15 view .LVU26
 116 0016 6047     		bx	ip
 117              	.LVL7:
 118              	.L7:
 119              	.LCFI2:
 120              		.cfi_restore_state
 121              		.loc 1 76 1 view .LVU27
 122 0018 0020     		movs	r0, #0
 123              	.LVL8:
 124              		.loc 1 76 1 view .LVU28
 125 001a 5DF8044B 		ldr	r4, [sp], #4
 126              	.LCFI3:
 127              		.cfi_restore 4
 128              		.cfi_def_cfa_offset 0
 129              	.LVL9:
 130              		.loc 1 76 1 view .LVU29
 131 001e 7047     		bx	lr
 132              	.L19:
 133              		.align	2
 134              	.L18:
 135 0020 00000000 		.word	.LANCHOR0
 136              		.cfi_endproc
 137              	.LFE4:
 139              		.section	.text.osal_task_kill,"ax",%progbits
 140              		.align	1
 141              		.p2align 2,,3
 142              		.global	osal_task_kill
 143              		.syntax unified
 144              		.thumb
 145              		.thumb_func
 146              		.fpu fpv4-sp-d16
 148              	osal_task_kill:
 149              	.LVL10:
 150              	.LFB5:
  77:D:/fchai/work/i-cube/I-CUBE-HUAWEI/Middlewares/Third_Party/Huawei/iot_link/os/osal\osal.c **** 
  78:D:/fchai/work/i-cube/I-CUBE-HUAWEI/Middlewares/Third_Party/Huawei/iot_link/os/osal\osal.c **** 
  79:D:/fchai/work/i-cube/I-CUBE-HUAWEI/Middlewares/Third_Party/Huawei/iot_link/os/osal\osal.c **** int osal_task_kill(void *task)
  80:D:/fchai/work/i-cube/I-CUBE-HUAWEI/Middlewares/Third_Party/Huawei/iot_link/os/osal\osal.c **** {
ARM GAS  T:\msys\tmp\ccZZee3I.s 			page 5


 151              		.loc 1 80 1 is_stmt 1 view -0
 152              		.cfi_startproc
 153              		@ args = 0, pretend = 0, frame = 0
 154              		@ frame_needed = 0, uses_anonymous_args = 0
 155              		@ link register save eliminated.
  81:D:/fchai/work/i-cube/I-CUBE-HUAWEI/Middlewares/Third_Party/Huawei/iot_link/os/osal\osal.c ****     int ret = -1;
 156              		.loc 1 81 5 view .LVU31
  82:D:/fchai/work/i-cube/I-CUBE-HUAWEI/Middlewares/Third_Party/Huawei/iot_link/os/osal\osal.c **** 
  83:D:/fchai/work/i-cube/I-CUBE-HUAWEI/Middlewares/Third_Party/Huawei/iot_link/os/osal\osal.c ****     if((NULL != s_os_cb) &&(NULL != s_os_cb->ops) &&(NULL != s_os_cb->ops->task_kill))
 157              		.loc 1 83 5 view .LVU32
 158              		.loc 1 83 14 is_stmt 0 view .LVU33
 159 0000 054B     		ldr	r3, .L28
 160 0002 1B68     		ldr	r3, [r3]
 161              		.loc 1 83 7 view .LVU34
 162 0004 23B1     		cbz	r3, .L20
 163              		.loc 1 83 44 discriminator 1 view .LVU35
 164 0006 5B68     		ldr	r3, [r3, #4]
 165              		.loc 1 83 26 discriminator 1 view .LVU36
 166 0008 13B1     		cbz	r3, .L20
 167              		.loc 1 83 74 discriminator 2 view .LVU37
 168 000a 5B68     		ldr	r3, [r3, #4]
 169              		.loc 1 83 51 discriminator 2 view .LVU38
 170 000c 03B1     		cbz	r3, .L20
  84:D:/fchai/work/i-cube/I-CUBE-HUAWEI/Middlewares/Third_Party/Huawei/iot_link/os/osal\osal.c ****     {
  85:D:/fchai/work/i-cube/I-CUBE-HUAWEI/Middlewares/Third_Party/Huawei/iot_link/os/osal\osal.c ****         ret = s_os_cb->ops->task_kill(task);
 171              		.loc 1 85 9 is_stmt 1 view .LVU39
 172              		.loc 1 85 15 is_stmt 0 view .LVU40
 173 000e 1847     		bx	r3
 174              	.LVL11:
 175              	.L20:
  86:D:/fchai/work/i-cube/I-CUBE-HUAWEI/Middlewares/Third_Party/Huawei/iot_link/os/osal\osal.c ****     }
  87:D:/fchai/work/i-cube/I-CUBE-HUAWEI/Middlewares/Third_Party/Huawei/iot_link/os/osal\osal.c **** 
  88:D:/fchai/work/i-cube/I-CUBE-HUAWEI/Middlewares/Third_Party/Huawei/iot_link/os/osal\osal.c ****     return ret;
  89:D:/fchai/work/i-cube/I-CUBE-HUAWEI/Middlewares/Third_Party/Huawei/iot_link/os/osal\osal.c **** 
  90:D:/fchai/work/i-cube/I-CUBE-HUAWEI/Middlewares/Third_Party/Huawei/iot_link/os/osal\osal.c **** }
 176              		.loc 1 90 1 view .LVU41
 177 0010 4FF0FF30 		mov	r0, #-1
 178              	.LVL12:
 179              		.loc 1 90 1 view .LVU42
 180 0014 7047     		bx	lr
 181              	.L29:
 182 0016 00BF     		.align	2
 183              	.L28:
 184 0018 00000000 		.word	.LANCHOR0
 185              		.cfi_endproc
 186              	.LFE5:
 188              		.section	.text.osal_task_exit,"ax",%progbits
 189              		.align	1
 190              		.p2align 2,,3
 191              		.global	osal_task_exit
 192              		.syntax unified
 193              		.thumb
 194              		.thumb_func
 195              		.fpu fpv4-sp-d16
 197              	osal_task_exit:
 198              	.LFB6:
  91:D:/fchai/work/i-cube/I-CUBE-HUAWEI/Middlewares/Third_Party/Huawei/iot_link/os/osal\osal.c **** 
ARM GAS  T:\msys\tmp\ccZZee3I.s 			page 6


  92:D:/fchai/work/i-cube/I-CUBE-HUAWEI/Middlewares/Third_Party/Huawei/iot_link/os/osal\osal.c **** 
  93:D:/fchai/work/i-cube/I-CUBE-HUAWEI/Middlewares/Third_Party/Huawei/iot_link/os/osal\osal.c **** void osal_task_exit()
  94:D:/fchai/work/i-cube/I-CUBE-HUAWEI/Middlewares/Third_Party/Huawei/iot_link/os/osal\osal.c **** {
 199              		.loc 1 94 1 is_stmt 1 view -0
 200              		.cfi_startproc
 201              		@ args = 0, pretend = 0, frame = 0
 202              		@ frame_needed = 0, uses_anonymous_args = 0
 203              		@ link register save eliminated.
  95:D:/fchai/work/i-cube/I-CUBE-HUAWEI/Middlewares/Third_Party/Huawei/iot_link/os/osal\osal.c **** 
  96:D:/fchai/work/i-cube/I-CUBE-HUAWEI/Middlewares/Third_Party/Huawei/iot_link/os/osal\osal.c ****     if((NULL != s_os_cb) &&(NULL != s_os_cb->ops) &&(NULL != s_os_cb->ops->task_exit))
 204              		.loc 1 96 5 view .LVU44
 205              		.loc 1 96 14 is_stmt 0 view .LVU45
 206 0000 044B     		ldr	r3, .L41
 207 0002 1B68     		ldr	r3, [r3]
 208              		.loc 1 96 7 view .LVU46
 209 0004 23B1     		cbz	r3, .L30
 210              		.loc 1 96 44 discriminator 1 view .LVU47
 211 0006 5B68     		ldr	r3, [r3, #4]
 212              		.loc 1 96 26 discriminator 1 view .LVU48
 213 0008 13B1     		cbz	r3, .L30
 214              		.loc 1 96 74 discriminator 2 view .LVU49
 215 000a 9B68     		ldr	r3, [r3, #8]
 216              		.loc 1 96 51 discriminator 2 view .LVU50
 217 000c 03B1     		cbz	r3, .L30
  97:D:/fchai/work/i-cube/I-CUBE-HUAWEI/Middlewares/Third_Party/Huawei/iot_link/os/osal\osal.c ****     {
  98:D:/fchai/work/i-cube/I-CUBE-HUAWEI/Middlewares/Third_Party/Huawei/iot_link/os/osal\osal.c ****         s_os_cb->ops->task_exit();
 218              		.loc 1 98 9 is_stmt 1 view .LVU51
 219 000e 1847     		bx	r3	@ indirect register sibling call
 220              	.LVL13:
 221              	.L30:
  99:D:/fchai/work/i-cube/I-CUBE-HUAWEI/Middlewares/Third_Party/Huawei/iot_link/os/osal\osal.c ****     }
 100:D:/fchai/work/i-cube/I-CUBE-HUAWEI/Middlewares/Third_Party/Huawei/iot_link/os/osal\osal.c ****     return ;
 101:D:/fchai/work/i-cube/I-CUBE-HUAWEI/Middlewares/Third_Party/Huawei/iot_link/os/osal\osal.c **** 
 102:D:/fchai/work/i-cube/I-CUBE-HUAWEI/Middlewares/Third_Party/Huawei/iot_link/os/osal\osal.c **** }
 222              		.loc 1 102 1 is_stmt 0 view .LVU52
 223 0010 7047     		bx	lr
 224              	.L42:
 225 0012 00BF     		.align	2
 226              	.L41:
 227 0014 00000000 		.word	.LANCHOR0
 228              		.cfi_endproc
 229              	.LFE6:
 231              		.section	.text.osal_task_sleep,"ax",%progbits
 232              		.align	1
 233              		.p2align 2,,3
 234              		.global	osal_task_sleep
 235              		.syntax unified
 236              		.thumb
 237              		.thumb_func
 238              		.fpu fpv4-sp-d16
 240              	osal_task_sleep:
 241              	.LVL14:
 242              	.LFB7:
 103:D:/fchai/work/i-cube/I-CUBE-HUAWEI/Middlewares/Third_Party/Huawei/iot_link/os/osal\osal.c **** 
 104:D:/fchai/work/i-cube/I-CUBE-HUAWEI/Middlewares/Third_Party/Huawei/iot_link/os/osal\osal.c **** 
 105:D:/fchai/work/i-cube/I-CUBE-HUAWEI/Middlewares/Third_Party/Huawei/iot_link/os/osal\osal.c **** void osal_task_sleep(int ms)
 106:D:/fchai/work/i-cube/I-CUBE-HUAWEI/Middlewares/Third_Party/Huawei/iot_link/os/osal\osal.c **** {
ARM GAS  T:\msys\tmp\ccZZee3I.s 			page 7


 243              		.loc 1 106 1 is_stmt 1 view -0
 244              		.cfi_startproc
 245              		@ args = 0, pretend = 0, frame = 0
 246              		@ frame_needed = 0, uses_anonymous_args = 0
 247              		@ link register save eliminated.
 107:D:/fchai/work/i-cube/I-CUBE-HUAWEI/Middlewares/Third_Party/Huawei/iot_link/os/osal\osal.c ****     if((NULL != s_os_cb) &&(NULL != s_os_cb->ops) &&(NULL != s_os_cb->ops->task_sleep))
 248              		.loc 1 107 5 view .LVU54
 249              		.loc 1 107 14 is_stmt 0 view .LVU55
 250 0000 044B     		ldr	r3, .L54
 251 0002 1B68     		ldr	r3, [r3]
 252              		.loc 1 107 7 view .LVU56
 253 0004 23B1     		cbz	r3, .L43
 254              		.loc 1 107 44 discriminator 1 view .LVU57
 255 0006 5B68     		ldr	r3, [r3, #4]
 256              		.loc 1 107 26 discriminator 1 view .LVU58
 257 0008 13B1     		cbz	r3, .L43
 258              		.loc 1 107 74 discriminator 2 view .LVU59
 259 000a DB68     		ldr	r3, [r3, #12]
 260              		.loc 1 107 51 discriminator 2 view .LVU60
 261 000c 03B1     		cbz	r3, .L43
 108:D:/fchai/work/i-cube/I-CUBE-HUAWEI/Middlewares/Third_Party/Huawei/iot_link/os/osal\osal.c ****     {
 109:D:/fchai/work/i-cube/I-CUBE-HUAWEI/Middlewares/Third_Party/Huawei/iot_link/os/osal\osal.c ****         s_os_cb->ops->task_sleep(ms);
 262              		.loc 1 109 9 is_stmt 1 view .LVU61
 263 000e 1847     		bx	r3	@ indirect register sibling call
 264              	.LVL15:
 265              	.L43:
 110:D:/fchai/work/i-cube/I-CUBE-HUAWEI/Middlewares/Third_Party/Huawei/iot_link/os/osal\osal.c ****     }
 111:D:/fchai/work/i-cube/I-CUBE-HUAWEI/Middlewares/Third_Party/Huawei/iot_link/os/osal\osal.c **** 
 112:D:/fchai/work/i-cube/I-CUBE-HUAWEI/Middlewares/Third_Party/Huawei/iot_link/os/osal\osal.c ****     return ;
 113:D:/fchai/work/i-cube/I-CUBE-HUAWEI/Middlewares/Third_Party/Huawei/iot_link/os/osal\osal.c **** 
 114:D:/fchai/work/i-cube/I-CUBE-HUAWEI/Middlewares/Third_Party/Huawei/iot_link/os/osal\osal.c **** }
 266              		.loc 1 114 1 is_stmt 0 view .LVU62
 267 0010 7047     		bx	lr
 268              	.L55:
 269 0012 00BF     		.align	2
 270              	.L54:
 271 0014 00000000 		.word	.LANCHOR0
 272              		.cfi_endproc
 273              	.LFE7:
 275              		.section	.text.osal_mutex_create,"ax",%progbits
 276              		.align	1
 277              		.p2align 2,,3
 278              		.global	osal_mutex_create
 279              		.syntax unified
 280              		.thumb
 281              		.thumb_func
 282              		.fpu fpv4-sp-d16
 284              	osal_mutex_create:
 285              	.LVL16:
 286              	.LFB8:
 115:D:/fchai/work/i-cube/I-CUBE-HUAWEI/Middlewares/Third_Party/Huawei/iot_link/os/osal\osal.c **** 
 116:D:/fchai/work/i-cube/I-CUBE-HUAWEI/Middlewares/Third_Party/Huawei/iot_link/os/osal\osal.c **** 
 117:D:/fchai/work/i-cube/I-CUBE-HUAWEI/Middlewares/Third_Party/Huawei/iot_link/os/osal\osal.c **** bool_t  osal_mutex_create(osal_mutex_t *mutex)
 118:D:/fchai/work/i-cube/I-CUBE-HUAWEI/Middlewares/Third_Party/Huawei/iot_link/os/osal\osal.c **** {
 287              		.loc 1 118 1 is_stmt 1 view -0
 288              		.cfi_startproc
 289              		@ args = 0, pretend = 0, frame = 0
ARM GAS  T:\msys\tmp\ccZZee3I.s 			page 8


 290              		@ frame_needed = 0, uses_anonymous_args = 0
 291              		@ link register save eliminated.
 119:D:/fchai/work/i-cube/I-CUBE-HUAWEI/Middlewares/Third_Party/Huawei/iot_link/os/osal\osal.c ****     bool_t ret = false;
 292              		.loc 1 119 5 view .LVU64
 120:D:/fchai/work/i-cube/I-CUBE-HUAWEI/Middlewares/Third_Party/Huawei/iot_link/os/osal\osal.c **** 
 121:D:/fchai/work/i-cube/I-CUBE-HUAWEI/Middlewares/Third_Party/Huawei/iot_link/os/osal\osal.c ****     if((NULL != s_os_cb) &&(NULL != s_os_cb->ops) &&(NULL != s_os_cb->ops->mutex_create))
 293              		.loc 1 121 5 view .LVU65
 294              		.loc 1 121 14 is_stmt 0 view .LVU66
 295 0000 044B     		ldr	r3, .L64
 296 0002 1B68     		ldr	r3, [r3]
 297              		.loc 1 121 7 view .LVU67
 298 0004 23B1     		cbz	r3, .L56
 299              		.loc 1 121 44 discriminator 1 view .LVU68
 300 0006 5B68     		ldr	r3, [r3, #4]
 301              		.loc 1 121 26 discriminator 1 view .LVU69
 302 0008 13B1     		cbz	r3, .L56
 303              		.loc 1 121 74 discriminator 2 view .LVU70
 304 000a 1B69     		ldr	r3, [r3, #16]
 305              		.loc 1 121 51 discriminator 2 view .LVU71
 306 000c 03B1     		cbz	r3, .L56
 122:D:/fchai/work/i-cube/I-CUBE-HUAWEI/Middlewares/Third_Party/Huawei/iot_link/os/osal\osal.c ****     {
 123:D:/fchai/work/i-cube/I-CUBE-HUAWEI/Middlewares/Third_Party/Huawei/iot_link/os/osal\osal.c ****         ret = s_os_cb->ops->mutex_create(mutex);
 307              		.loc 1 123 9 is_stmt 1 view .LVU72
 308              		.loc 1 123 15 is_stmt 0 view .LVU73
 309 000e 1847     		bx	r3
 310              	.LVL17:
 311              	.L56:
 124:D:/fchai/work/i-cube/I-CUBE-HUAWEI/Middlewares/Third_Party/Huawei/iot_link/os/osal\osal.c ****     }
 125:D:/fchai/work/i-cube/I-CUBE-HUAWEI/Middlewares/Third_Party/Huawei/iot_link/os/osal\osal.c **** 
 126:D:/fchai/work/i-cube/I-CUBE-HUAWEI/Middlewares/Third_Party/Huawei/iot_link/os/osal\osal.c ****     return ret;
 127:D:/fchai/work/i-cube/I-CUBE-HUAWEI/Middlewares/Third_Party/Huawei/iot_link/os/osal\osal.c **** 
 128:D:/fchai/work/i-cube/I-CUBE-HUAWEI/Middlewares/Third_Party/Huawei/iot_link/os/osal\osal.c **** }
 312              		.loc 1 128 1 view .LVU74
 313 0010 0020     		movs	r0, #0
 314              	.LVL18:
 315              		.loc 1 128 1 view .LVU75
 316 0012 7047     		bx	lr
 317              	.L65:
 318              		.align	2
 319              	.L64:
 320 0014 00000000 		.word	.LANCHOR0
 321              		.cfi_endproc
 322              	.LFE8:
 324              		.section	.text.osal_mutex_lock,"ax",%progbits
 325              		.align	1
 326              		.p2align 2,,3
 327              		.global	osal_mutex_lock
 328              		.syntax unified
 329              		.thumb
 330              		.thumb_func
 331              		.fpu fpv4-sp-d16
 333              	osal_mutex_lock:
 334              	.LVL19:
 335              	.LFB9:
 129:D:/fchai/work/i-cube/I-CUBE-HUAWEI/Middlewares/Third_Party/Huawei/iot_link/os/osal\osal.c **** 
 130:D:/fchai/work/i-cube/I-CUBE-HUAWEI/Middlewares/Third_Party/Huawei/iot_link/os/osal\osal.c **** 
 131:D:/fchai/work/i-cube/I-CUBE-HUAWEI/Middlewares/Third_Party/Huawei/iot_link/os/osal\osal.c **** bool_t  osal_mutex_lock(osal_mutex_t mutex)
ARM GAS  T:\msys\tmp\ccZZee3I.s 			page 9


 132:D:/fchai/work/i-cube/I-CUBE-HUAWEI/Middlewares/Third_Party/Huawei/iot_link/os/osal\osal.c **** {
 336              		.loc 1 132 1 is_stmt 1 view -0
 337              		.cfi_startproc
 338              		@ args = 0, pretend = 0, frame = 0
 339              		@ frame_needed = 0, uses_anonymous_args = 0
 340              		@ link register save eliminated.
 133:D:/fchai/work/i-cube/I-CUBE-HUAWEI/Middlewares/Third_Party/Huawei/iot_link/os/osal\osal.c ****     bool_t ret = false;
 341              		.loc 1 133 5 view .LVU77
 134:D:/fchai/work/i-cube/I-CUBE-HUAWEI/Middlewares/Third_Party/Huawei/iot_link/os/osal\osal.c **** 
 135:D:/fchai/work/i-cube/I-CUBE-HUAWEI/Middlewares/Third_Party/Huawei/iot_link/os/osal\osal.c ****     if((NULL != s_os_cb) &&(NULL != s_os_cb->ops) &&(NULL != s_os_cb->ops->mutex_lock))
 342              		.loc 1 135 5 view .LVU78
 343              		.loc 1 135 14 is_stmt 0 view .LVU79
 344 0000 044B     		ldr	r3, .L74
 345 0002 1B68     		ldr	r3, [r3]
 346              		.loc 1 135 7 view .LVU80
 347 0004 23B1     		cbz	r3, .L66
 348              		.loc 1 135 44 discriminator 1 view .LVU81
 349 0006 5B68     		ldr	r3, [r3, #4]
 350              		.loc 1 135 26 discriminator 1 view .LVU82
 351 0008 13B1     		cbz	r3, .L66
 352              		.loc 1 135 74 discriminator 2 view .LVU83
 353 000a 5B69     		ldr	r3, [r3, #20]
 354              		.loc 1 135 51 discriminator 2 view .LVU84
 355 000c 03B1     		cbz	r3, .L66
 136:D:/fchai/work/i-cube/I-CUBE-HUAWEI/Middlewares/Third_Party/Huawei/iot_link/os/osal\osal.c ****     {
 137:D:/fchai/work/i-cube/I-CUBE-HUAWEI/Middlewares/Third_Party/Huawei/iot_link/os/osal\osal.c ****         ret = s_os_cb->ops->mutex_lock(mutex);
 356              		.loc 1 137 9 is_stmt 1 view .LVU85
 357              		.loc 1 137 15 is_stmt 0 view .LVU86
 358 000e 1847     		bx	r3
 359              	.LVL20:
 360              	.L66:
 138:D:/fchai/work/i-cube/I-CUBE-HUAWEI/Middlewares/Third_Party/Huawei/iot_link/os/osal\osal.c ****     }
 139:D:/fchai/work/i-cube/I-CUBE-HUAWEI/Middlewares/Third_Party/Huawei/iot_link/os/osal\osal.c **** 
 140:D:/fchai/work/i-cube/I-CUBE-HUAWEI/Middlewares/Third_Party/Huawei/iot_link/os/osal\osal.c ****     return ret;
 141:D:/fchai/work/i-cube/I-CUBE-HUAWEI/Middlewares/Third_Party/Huawei/iot_link/os/osal\osal.c **** 
 142:D:/fchai/work/i-cube/I-CUBE-HUAWEI/Middlewares/Third_Party/Huawei/iot_link/os/osal\osal.c **** }
 361              		.loc 1 142 1 view .LVU87
 362 0010 0020     		movs	r0, #0
 363              	.LVL21:
 364              		.loc 1 142 1 view .LVU88
 365 0012 7047     		bx	lr
 366              	.L75:
 367              		.align	2
 368              	.L74:
 369 0014 00000000 		.word	.LANCHOR0
 370              		.cfi_endproc
 371              	.LFE9:
 373              		.section	.text.osal_mutex_unlock,"ax",%progbits
 374              		.align	1
 375              		.p2align 2,,3
 376              		.global	osal_mutex_unlock
 377              		.syntax unified
 378              		.thumb
 379              		.thumb_func
 380              		.fpu fpv4-sp-d16
 382              	osal_mutex_unlock:
 383              	.LVL22:
ARM GAS  T:\msys\tmp\ccZZee3I.s 			page 10


 384              	.LFB10:
 143:D:/fchai/work/i-cube/I-CUBE-HUAWEI/Middlewares/Third_Party/Huawei/iot_link/os/osal\osal.c **** 
 144:D:/fchai/work/i-cube/I-CUBE-HUAWEI/Middlewares/Third_Party/Huawei/iot_link/os/osal\osal.c **** 
 145:D:/fchai/work/i-cube/I-CUBE-HUAWEI/Middlewares/Third_Party/Huawei/iot_link/os/osal\osal.c **** bool_t  osal_mutex_unlock(osal_mutex_t mutex)
 146:D:/fchai/work/i-cube/I-CUBE-HUAWEI/Middlewares/Third_Party/Huawei/iot_link/os/osal\osal.c **** {
 385              		.loc 1 146 1 is_stmt 1 view -0
 386              		.cfi_startproc
 387              		@ args = 0, pretend = 0, frame = 0
 388              		@ frame_needed = 0, uses_anonymous_args = 0
 389              		@ link register save eliminated.
 147:D:/fchai/work/i-cube/I-CUBE-HUAWEI/Middlewares/Third_Party/Huawei/iot_link/os/osal\osal.c ****     bool_t ret = false;
 390              		.loc 1 147 5 view .LVU90
 148:D:/fchai/work/i-cube/I-CUBE-HUAWEI/Middlewares/Third_Party/Huawei/iot_link/os/osal\osal.c **** 
 149:D:/fchai/work/i-cube/I-CUBE-HUAWEI/Middlewares/Third_Party/Huawei/iot_link/os/osal\osal.c ****     if((NULL != s_os_cb) &&(NULL != s_os_cb->ops) &&(NULL != s_os_cb->ops->mutex_unlock))
 391              		.loc 1 149 5 view .LVU91
 392              		.loc 1 149 14 is_stmt 0 view .LVU92
 393 0000 044B     		ldr	r3, .L84
 394 0002 1B68     		ldr	r3, [r3]
 395              		.loc 1 149 7 view .LVU93
 396 0004 23B1     		cbz	r3, .L76
 397              		.loc 1 149 44 discriminator 1 view .LVU94
 398 0006 5B68     		ldr	r3, [r3, #4]
 399              		.loc 1 149 26 discriminator 1 view .LVU95
 400 0008 13B1     		cbz	r3, .L76
 401              		.loc 1 149 74 discriminator 2 view .LVU96
 402 000a 9B69     		ldr	r3, [r3, #24]
 403              		.loc 1 149 51 discriminator 2 view .LVU97
 404 000c 03B1     		cbz	r3, .L76
 150:D:/fchai/work/i-cube/I-CUBE-HUAWEI/Middlewares/Third_Party/Huawei/iot_link/os/osal\osal.c ****     {
 151:D:/fchai/work/i-cube/I-CUBE-HUAWEI/Middlewares/Third_Party/Huawei/iot_link/os/osal\osal.c ****         ret = s_os_cb->ops->mutex_unlock(mutex);
 405              		.loc 1 151 9 is_stmt 1 view .LVU98
 406              		.loc 1 151 15 is_stmt 0 view .LVU99
 407 000e 1847     		bx	r3
 408              	.LVL23:
 409              	.L76:
 152:D:/fchai/work/i-cube/I-CUBE-HUAWEI/Middlewares/Third_Party/Huawei/iot_link/os/osal\osal.c ****     }
 153:D:/fchai/work/i-cube/I-CUBE-HUAWEI/Middlewares/Third_Party/Huawei/iot_link/os/osal\osal.c **** 
 154:D:/fchai/work/i-cube/I-CUBE-HUAWEI/Middlewares/Third_Party/Huawei/iot_link/os/osal\osal.c ****     return ret;
 155:D:/fchai/work/i-cube/I-CUBE-HUAWEI/Middlewares/Third_Party/Huawei/iot_link/os/osal\osal.c **** 
 156:D:/fchai/work/i-cube/I-CUBE-HUAWEI/Middlewares/Third_Party/Huawei/iot_link/os/osal\osal.c **** }
 410              		.loc 1 156 1 view .LVU100
 411 0010 0020     		movs	r0, #0
 412              	.LVL24:
 413              		.loc 1 156 1 view .LVU101
 414 0012 7047     		bx	lr
 415              	.L85:
 416              		.align	2
 417              	.L84:
 418 0014 00000000 		.word	.LANCHOR0
 419              		.cfi_endproc
 420              	.LFE10:
 422              		.section	.text.osal_mutex_del,"ax",%progbits
 423              		.align	1
 424              		.p2align 2,,3
 425              		.global	osal_mutex_del
 426              		.syntax unified
 427              		.thumb
ARM GAS  T:\msys\tmp\ccZZee3I.s 			page 11


 428              		.thumb_func
 429              		.fpu fpv4-sp-d16
 431              	osal_mutex_del:
 432              	.LVL25:
 433              	.LFB11:
 157:D:/fchai/work/i-cube/I-CUBE-HUAWEI/Middlewares/Third_Party/Huawei/iot_link/os/osal\osal.c **** 
 158:D:/fchai/work/i-cube/I-CUBE-HUAWEI/Middlewares/Third_Party/Huawei/iot_link/os/osal\osal.c **** bool_t  osal_mutex_del(osal_mutex_t mutex)
 159:D:/fchai/work/i-cube/I-CUBE-HUAWEI/Middlewares/Third_Party/Huawei/iot_link/os/osal\osal.c **** {
 434              		.loc 1 159 1 is_stmt 1 view -0
 435              		.cfi_startproc
 436              		@ args = 0, pretend = 0, frame = 0
 437              		@ frame_needed = 0, uses_anonymous_args = 0
 438              		@ link register save eliminated.
 160:D:/fchai/work/i-cube/I-CUBE-HUAWEI/Middlewares/Third_Party/Huawei/iot_link/os/osal\osal.c ****     bool_t ret = false;
 439              		.loc 1 160 5 view .LVU103
 161:D:/fchai/work/i-cube/I-CUBE-HUAWEI/Middlewares/Third_Party/Huawei/iot_link/os/osal\osal.c **** 
 162:D:/fchai/work/i-cube/I-CUBE-HUAWEI/Middlewares/Third_Party/Huawei/iot_link/os/osal\osal.c ****     if((NULL != s_os_cb) &&(NULL != s_os_cb->ops) &&(NULL != s_os_cb->ops->mutex_del))
 440              		.loc 1 162 5 view .LVU104
 441              		.loc 1 162 14 is_stmt 0 view .LVU105
 442 0000 044B     		ldr	r3, .L94
 443 0002 1B68     		ldr	r3, [r3]
 444              		.loc 1 162 7 view .LVU106
 445 0004 23B1     		cbz	r3, .L86
 446              		.loc 1 162 44 discriminator 1 view .LVU107
 447 0006 5B68     		ldr	r3, [r3, #4]
 448              		.loc 1 162 26 discriminator 1 view .LVU108
 449 0008 13B1     		cbz	r3, .L86
 450              		.loc 1 162 74 discriminator 2 view .LVU109
 451 000a DB69     		ldr	r3, [r3, #28]
 452              		.loc 1 162 51 discriminator 2 view .LVU110
 453 000c 03B1     		cbz	r3, .L86
 163:D:/fchai/work/i-cube/I-CUBE-HUAWEI/Middlewares/Third_Party/Huawei/iot_link/os/osal\osal.c ****     {
 164:D:/fchai/work/i-cube/I-CUBE-HUAWEI/Middlewares/Third_Party/Huawei/iot_link/os/osal\osal.c ****         ret = s_os_cb->ops->mutex_del(mutex);
 454              		.loc 1 164 9 is_stmt 1 view .LVU111
 455              		.loc 1 164 15 is_stmt 0 view .LVU112
 456 000e 1847     		bx	r3
 457              	.LVL26:
 458              	.L86:
 165:D:/fchai/work/i-cube/I-CUBE-HUAWEI/Middlewares/Third_Party/Huawei/iot_link/os/osal\osal.c ****     }
 166:D:/fchai/work/i-cube/I-CUBE-HUAWEI/Middlewares/Third_Party/Huawei/iot_link/os/osal\osal.c **** 
 167:D:/fchai/work/i-cube/I-CUBE-HUAWEI/Middlewares/Third_Party/Huawei/iot_link/os/osal\osal.c ****     return ret;
 168:D:/fchai/work/i-cube/I-CUBE-HUAWEI/Middlewares/Third_Party/Huawei/iot_link/os/osal\osal.c **** 
 169:D:/fchai/work/i-cube/I-CUBE-HUAWEI/Middlewares/Third_Party/Huawei/iot_link/os/osal\osal.c **** }
 459              		.loc 1 169 1 view .LVU113
 460 0010 0020     		movs	r0, #0
 461              	.LVL27:
 462              		.loc 1 169 1 view .LVU114
 463 0012 7047     		bx	lr
 464              	.L95:
 465              		.align	2
 466              	.L94:
 467 0014 00000000 		.word	.LANCHOR0
 468              		.cfi_endproc
 469              	.LFE11:
 471              		.section	.text.osal_semp_create,"ax",%progbits
 472              		.align	1
 473              		.p2align 2,,3
ARM GAS  T:\msys\tmp\ccZZee3I.s 			page 12


 474              		.global	osal_semp_create
 475              		.syntax unified
 476              		.thumb
 477              		.thumb_func
 478              		.fpu fpv4-sp-d16
 480              	osal_semp_create:
 481              	.LVL28:
 482              	.LFB12:
 170:D:/fchai/work/i-cube/I-CUBE-HUAWEI/Middlewares/Third_Party/Huawei/iot_link/os/osal\osal.c **** 
 171:D:/fchai/work/i-cube/I-CUBE-HUAWEI/Middlewares/Third_Party/Huawei/iot_link/os/osal\osal.c **** bool_t  osal_semp_create(osal_semp_t *semp,int limit,int initvalue)
 172:D:/fchai/work/i-cube/I-CUBE-HUAWEI/Middlewares/Third_Party/Huawei/iot_link/os/osal\osal.c **** {
 483              		.loc 1 172 1 is_stmt 1 view -0
 484              		.cfi_startproc
 485              		@ args = 0, pretend = 0, frame = 0
 486              		@ frame_needed = 0, uses_anonymous_args = 0
 487              		@ link register save eliminated.
 173:D:/fchai/work/i-cube/I-CUBE-HUAWEI/Middlewares/Third_Party/Huawei/iot_link/os/osal\osal.c ****     bool_t ret = false;
 488              		.loc 1 173 5 view .LVU116
 174:D:/fchai/work/i-cube/I-CUBE-HUAWEI/Middlewares/Third_Party/Huawei/iot_link/os/osal\osal.c **** 
 175:D:/fchai/work/i-cube/I-CUBE-HUAWEI/Middlewares/Third_Party/Huawei/iot_link/os/osal\osal.c ****     if((NULL != s_os_cb) &&(NULL != s_os_cb->ops) &&(NULL != s_os_cb->ops->semp_create))
 489              		.loc 1 175 5 view .LVU117
 490              		.loc 1 175 14 is_stmt 0 view .LVU118
 491 0000 044B     		ldr	r3, .L104
 492 0002 1B68     		ldr	r3, [r3]
 493              		.loc 1 175 7 view .LVU119
 494 0004 23B1     		cbz	r3, .L96
 495              		.loc 1 175 44 discriminator 1 view .LVU120
 496 0006 5B68     		ldr	r3, [r3, #4]
 497              		.loc 1 175 26 discriminator 1 view .LVU121
 498 0008 13B1     		cbz	r3, .L96
 499              		.loc 1 175 74 discriminator 2 view .LVU122
 500 000a 1B6A     		ldr	r3, [r3, #32]
 501              		.loc 1 175 51 discriminator 2 view .LVU123
 502 000c 03B1     		cbz	r3, .L96
 176:D:/fchai/work/i-cube/I-CUBE-HUAWEI/Middlewares/Third_Party/Huawei/iot_link/os/osal\osal.c ****     {
 177:D:/fchai/work/i-cube/I-CUBE-HUAWEI/Middlewares/Third_Party/Huawei/iot_link/os/osal\osal.c ****         ret = s_os_cb->ops->semp_create(semp,limit,initvalue);
 503              		.loc 1 177 9 is_stmt 1 view .LVU124
 504              		.loc 1 177 15 is_stmt 0 view .LVU125
 505 000e 1847     		bx	r3
 506              	.LVL29:
 507              	.L96:
 178:D:/fchai/work/i-cube/I-CUBE-HUAWEI/Middlewares/Third_Party/Huawei/iot_link/os/osal\osal.c ****     }
 179:D:/fchai/work/i-cube/I-CUBE-HUAWEI/Middlewares/Third_Party/Huawei/iot_link/os/osal\osal.c **** 
 180:D:/fchai/work/i-cube/I-CUBE-HUAWEI/Middlewares/Third_Party/Huawei/iot_link/os/osal\osal.c ****     return ret;
 181:D:/fchai/work/i-cube/I-CUBE-HUAWEI/Middlewares/Third_Party/Huawei/iot_link/os/osal\osal.c **** 
 182:D:/fchai/work/i-cube/I-CUBE-HUAWEI/Middlewares/Third_Party/Huawei/iot_link/os/osal\osal.c **** }
 508              		.loc 1 182 1 view .LVU126
 509 0010 0020     		movs	r0, #0
 510              	.LVL30:
 511              		.loc 1 182 1 view .LVU127
 512 0012 7047     		bx	lr
 513              	.L105:
 514              		.align	2
 515              	.L104:
 516 0014 00000000 		.word	.LANCHOR0
 517              		.cfi_endproc
 518              	.LFE12:
ARM GAS  T:\msys\tmp\ccZZee3I.s 			page 13


 520              		.section	.text.osal_semp_pend,"ax",%progbits
 521              		.align	1
 522              		.p2align 2,,3
 523              		.global	osal_semp_pend
 524              		.syntax unified
 525              		.thumb
 526              		.thumb_func
 527              		.fpu fpv4-sp-d16
 529              	osal_semp_pend:
 530              	.LVL31:
 531              	.LFB13:
 183:D:/fchai/work/i-cube/I-CUBE-HUAWEI/Middlewares/Third_Party/Huawei/iot_link/os/osal\osal.c **** 
 184:D:/fchai/work/i-cube/I-CUBE-HUAWEI/Middlewares/Third_Party/Huawei/iot_link/os/osal\osal.c **** bool_t  osal_semp_pend(osal_semp_t semp,unsigned int timeout)
 185:D:/fchai/work/i-cube/I-CUBE-HUAWEI/Middlewares/Third_Party/Huawei/iot_link/os/osal\osal.c **** {
 532              		.loc 1 185 1 is_stmt 1 view -0
 533              		.cfi_startproc
 534              		@ args = 0, pretend = 0, frame = 0
 535              		@ frame_needed = 0, uses_anonymous_args = 0
 536              		@ link register save eliminated.
 186:D:/fchai/work/i-cube/I-CUBE-HUAWEI/Middlewares/Third_Party/Huawei/iot_link/os/osal\osal.c ****     bool_t ret = false;
 537              		.loc 1 186 5 view .LVU129
 187:D:/fchai/work/i-cube/I-CUBE-HUAWEI/Middlewares/Third_Party/Huawei/iot_link/os/osal\osal.c **** 
 188:D:/fchai/work/i-cube/I-CUBE-HUAWEI/Middlewares/Third_Party/Huawei/iot_link/os/osal\osal.c ****     if((NULL != s_os_cb) &&(NULL != s_os_cb->ops) &&(NULL != s_os_cb->ops->semp_pend))
 538              		.loc 1 188 5 view .LVU130
 539              		.loc 1 188 14 is_stmt 0 view .LVU131
 540 0000 044B     		ldr	r3, .L114
 541 0002 1B68     		ldr	r3, [r3]
 542              		.loc 1 188 7 view .LVU132
 543 0004 23B1     		cbz	r3, .L106
 544              		.loc 1 188 44 discriminator 1 view .LVU133
 545 0006 5B68     		ldr	r3, [r3, #4]
 546              		.loc 1 188 26 discriminator 1 view .LVU134
 547 0008 13B1     		cbz	r3, .L106
 548              		.loc 1 188 74 discriminator 2 view .LVU135
 549 000a 5B6A     		ldr	r3, [r3, #36]
 550              		.loc 1 188 51 discriminator 2 view .LVU136
 551 000c 03B1     		cbz	r3, .L106
 189:D:/fchai/work/i-cube/I-CUBE-HUAWEI/Middlewares/Third_Party/Huawei/iot_link/os/osal\osal.c ****     {
 190:D:/fchai/work/i-cube/I-CUBE-HUAWEI/Middlewares/Third_Party/Huawei/iot_link/os/osal\osal.c ****         ret = s_os_cb->ops->semp_pend(semp,timeout);
 552              		.loc 1 190 9 is_stmt 1 view .LVU137
 553              		.loc 1 190 15 is_stmt 0 view .LVU138
 554 000e 1847     		bx	r3
 555              	.LVL32:
 556              	.L106:
 191:D:/fchai/work/i-cube/I-CUBE-HUAWEI/Middlewares/Third_Party/Huawei/iot_link/os/osal\osal.c ****     }
 192:D:/fchai/work/i-cube/I-CUBE-HUAWEI/Middlewares/Third_Party/Huawei/iot_link/os/osal\osal.c **** 
 193:D:/fchai/work/i-cube/I-CUBE-HUAWEI/Middlewares/Third_Party/Huawei/iot_link/os/osal\osal.c ****     return ret;
 194:D:/fchai/work/i-cube/I-CUBE-HUAWEI/Middlewares/Third_Party/Huawei/iot_link/os/osal\osal.c **** 
 195:D:/fchai/work/i-cube/I-CUBE-HUAWEI/Middlewares/Third_Party/Huawei/iot_link/os/osal\osal.c **** }
 557              		.loc 1 195 1 view .LVU139
 558 0010 0020     		movs	r0, #0
 559              	.LVL33:
 560              		.loc 1 195 1 view .LVU140
 561 0012 7047     		bx	lr
 562              	.L115:
 563              		.align	2
 564              	.L114:
ARM GAS  T:\msys\tmp\ccZZee3I.s 			page 14


 565 0014 00000000 		.word	.LANCHOR0
 566              		.cfi_endproc
 567              	.LFE13:
 569              		.section	.text.osal_semp_post,"ax",%progbits
 570              		.align	1
 571              		.p2align 2,,3
 572              		.global	osal_semp_post
 573              		.syntax unified
 574              		.thumb
 575              		.thumb_func
 576              		.fpu fpv4-sp-d16
 578              	osal_semp_post:
 579              	.LVL34:
 580              	.LFB14:
 196:D:/fchai/work/i-cube/I-CUBE-HUAWEI/Middlewares/Third_Party/Huawei/iot_link/os/osal\osal.c **** 
 197:D:/fchai/work/i-cube/I-CUBE-HUAWEI/Middlewares/Third_Party/Huawei/iot_link/os/osal\osal.c **** 
 198:D:/fchai/work/i-cube/I-CUBE-HUAWEI/Middlewares/Third_Party/Huawei/iot_link/os/osal\osal.c **** bool_t  osal_semp_post(osal_semp_t semp)
 199:D:/fchai/work/i-cube/I-CUBE-HUAWEI/Middlewares/Third_Party/Huawei/iot_link/os/osal\osal.c **** {
 581              		.loc 1 199 1 is_stmt 1 view -0
 582              		.cfi_startproc
 583              		@ args = 0, pretend = 0, frame = 0
 584              		@ frame_needed = 0, uses_anonymous_args = 0
 585              		@ link register save eliminated.
 200:D:/fchai/work/i-cube/I-CUBE-HUAWEI/Middlewares/Third_Party/Huawei/iot_link/os/osal\osal.c ****     bool_t ret = false;
 586              		.loc 1 200 5 view .LVU142
 201:D:/fchai/work/i-cube/I-CUBE-HUAWEI/Middlewares/Third_Party/Huawei/iot_link/os/osal\osal.c **** 
 202:D:/fchai/work/i-cube/I-CUBE-HUAWEI/Middlewares/Third_Party/Huawei/iot_link/os/osal\osal.c ****     if((NULL != s_os_cb) &&(NULL != s_os_cb->ops) &&(NULL != s_os_cb->ops->semp_post))
 587              		.loc 1 202 5 view .LVU143
 588              		.loc 1 202 14 is_stmt 0 view .LVU144
 589 0000 044B     		ldr	r3, .L124
 590 0002 1B68     		ldr	r3, [r3]
 591              		.loc 1 202 7 view .LVU145
 592 0004 23B1     		cbz	r3, .L116
 593              		.loc 1 202 44 discriminator 1 view .LVU146
 594 0006 5B68     		ldr	r3, [r3, #4]
 595              		.loc 1 202 26 discriminator 1 view .LVU147
 596 0008 13B1     		cbz	r3, .L116
 597              		.loc 1 202 74 discriminator 2 view .LVU148
 598 000a 9B6A     		ldr	r3, [r3, #40]
 599              		.loc 1 202 51 discriminator 2 view .LVU149
 600 000c 03B1     		cbz	r3, .L116
 203:D:/fchai/work/i-cube/I-CUBE-HUAWEI/Middlewares/Third_Party/Huawei/iot_link/os/osal\osal.c ****     {
 204:D:/fchai/work/i-cube/I-CUBE-HUAWEI/Middlewares/Third_Party/Huawei/iot_link/os/osal\osal.c ****         ret = s_os_cb->ops->semp_post(semp);
 601              		.loc 1 204 9 is_stmt 1 view .LVU150
 602              		.loc 1 204 15 is_stmt 0 view .LVU151
 603 000e 1847     		bx	r3
 604              	.LVL35:
 605              	.L116:
 205:D:/fchai/work/i-cube/I-CUBE-HUAWEI/Middlewares/Third_Party/Huawei/iot_link/os/osal\osal.c ****     }
 206:D:/fchai/work/i-cube/I-CUBE-HUAWEI/Middlewares/Third_Party/Huawei/iot_link/os/osal\osal.c **** 
 207:D:/fchai/work/i-cube/I-CUBE-HUAWEI/Middlewares/Third_Party/Huawei/iot_link/os/osal\osal.c ****     return ret;
 208:D:/fchai/work/i-cube/I-CUBE-HUAWEI/Middlewares/Third_Party/Huawei/iot_link/os/osal\osal.c **** 
 209:D:/fchai/work/i-cube/I-CUBE-HUAWEI/Middlewares/Third_Party/Huawei/iot_link/os/osal\osal.c **** }
 606              		.loc 1 209 1 view .LVU152
 607 0010 0020     		movs	r0, #0
 608              	.LVL36:
 609              		.loc 1 209 1 view .LVU153
ARM GAS  T:\msys\tmp\ccZZee3I.s 			page 15


 610 0012 7047     		bx	lr
 611              	.L125:
 612              		.align	2
 613              	.L124:
 614 0014 00000000 		.word	.LANCHOR0
 615              		.cfi_endproc
 616              	.LFE14:
 618              		.section	.text.osal_semp_del,"ax",%progbits
 619              		.align	1
 620              		.p2align 2,,3
 621              		.global	osal_semp_del
 622              		.syntax unified
 623              		.thumb
 624              		.thumb_func
 625              		.fpu fpv4-sp-d16
 627              	osal_semp_del:
 628              	.LVL37:
 629              	.LFB15:
 210:D:/fchai/work/i-cube/I-CUBE-HUAWEI/Middlewares/Third_Party/Huawei/iot_link/os/osal\osal.c **** 
 211:D:/fchai/work/i-cube/I-CUBE-HUAWEI/Middlewares/Third_Party/Huawei/iot_link/os/osal\osal.c **** bool_t  osal_semp_del(osal_semp_t semp)
 212:D:/fchai/work/i-cube/I-CUBE-HUAWEI/Middlewares/Third_Party/Huawei/iot_link/os/osal\osal.c **** {
 630              		.loc 1 212 1 is_stmt 1 view -0
 631              		.cfi_startproc
 632              		@ args = 0, pretend = 0, frame = 0
 633              		@ frame_needed = 0, uses_anonymous_args = 0
 634              		@ link register save eliminated.
 213:D:/fchai/work/i-cube/I-CUBE-HUAWEI/Middlewares/Third_Party/Huawei/iot_link/os/osal\osal.c ****     bool_t ret = false;
 635              		.loc 1 213 5 view .LVU155
 214:D:/fchai/work/i-cube/I-CUBE-HUAWEI/Middlewares/Third_Party/Huawei/iot_link/os/osal\osal.c **** 
 215:D:/fchai/work/i-cube/I-CUBE-HUAWEI/Middlewares/Third_Party/Huawei/iot_link/os/osal\osal.c ****     if((NULL != s_os_cb) &&(NULL != s_os_cb->ops) &&(NULL != s_os_cb->ops->semp_del))
 636              		.loc 1 215 5 view .LVU156
 637              		.loc 1 215 14 is_stmt 0 view .LVU157
 638 0000 044B     		ldr	r3, .L134
 639 0002 1B68     		ldr	r3, [r3]
 640              		.loc 1 215 7 view .LVU158
 641 0004 23B1     		cbz	r3, .L126
 642              		.loc 1 215 44 discriminator 1 view .LVU159
 643 0006 5B68     		ldr	r3, [r3, #4]
 644              		.loc 1 215 26 discriminator 1 view .LVU160
 645 0008 13B1     		cbz	r3, .L126
 646              		.loc 1 215 74 discriminator 2 view .LVU161
 647 000a DB6A     		ldr	r3, [r3, #44]
 648              		.loc 1 215 51 discriminator 2 view .LVU162
 649 000c 03B1     		cbz	r3, .L126
 216:D:/fchai/work/i-cube/I-CUBE-HUAWEI/Middlewares/Third_Party/Huawei/iot_link/os/osal\osal.c ****     {
 217:D:/fchai/work/i-cube/I-CUBE-HUAWEI/Middlewares/Third_Party/Huawei/iot_link/os/osal\osal.c ****         ret = s_os_cb->ops->semp_del(semp);
 650              		.loc 1 217 9 is_stmt 1 view .LVU163
 651              		.loc 1 217 15 is_stmt 0 view .LVU164
 652 000e 1847     		bx	r3
 653              	.LVL38:
 654              	.L126:
 218:D:/fchai/work/i-cube/I-CUBE-HUAWEI/Middlewares/Third_Party/Huawei/iot_link/os/osal\osal.c ****     }
 219:D:/fchai/work/i-cube/I-CUBE-HUAWEI/Middlewares/Third_Party/Huawei/iot_link/os/osal\osal.c **** 
 220:D:/fchai/work/i-cube/I-CUBE-HUAWEI/Middlewares/Third_Party/Huawei/iot_link/os/osal\osal.c ****     return ret;
 221:D:/fchai/work/i-cube/I-CUBE-HUAWEI/Middlewares/Third_Party/Huawei/iot_link/os/osal\osal.c **** 
 222:D:/fchai/work/i-cube/I-CUBE-HUAWEI/Middlewares/Third_Party/Huawei/iot_link/os/osal\osal.c **** }
 655              		.loc 1 222 1 view .LVU165
ARM GAS  T:\msys\tmp\ccZZee3I.s 			page 16


 656 0010 0020     		movs	r0, #0
 657              	.LVL39:
 658              		.loc 1 222 1 view .LVU166
 659 0012 7047     		bx	lr
 660              	.L135:
 661              		.align	2
 662              	.L134:
 663 0014 00000000 		.word	.LANCHOR0
 664              		.cfi_endproc
 665              	.LFE15:
 667              		.section	.text.osal_malloc,"ax",%progbits
 668              		.align	1
 669              		.p2align 2,,3
 670              		.global	osal_malloc
 671              		.syntax unified
 672              		.thumb
 673              		.thumb_func
 674              		.fpu fpv4-sp-d16
 676              	osal_malloc:
 677              	.LVL40:
 678              	.LFB16:
 223:D:/fchai/work/i-cube/I-CUBE-HUAWEI/Middlewares/Third_Party/Huawei/iot_link/os/osal\osal.c **** 
 224:D:/fchai/work/i-cube/I-CUBE-HUAWEI/Middlewares/Third_Party/Huawei/iot_link/os/osal\osal.c **** 
 225:D:/fchai/work/i-cube/I-CUBE-HUAWEI/Middlewares/Third_Party/Huawei/iot_link/os/osal\osal.c **** 
 226:D:/fchai/work/i-cube/I-CUBE-HUAWEI/Middlewares/Third_Party/Huawei/iot_link/os/osal\osal.c **** void *osal_malloc(size_t size)
 227:D:/fchai/work/i-cube/I-CUBE-HUAWEI/Middlewares/Third_Party/Huawei/iot_link/os/osal\osal.c **** {
 679              		.loc 1 227 1 is_stmt 1 view -0
 680              		.cfi_startproc
 681              		@ args = 0, pretend = 0, frame = 0
 682              		@ frame_needed = 0, uses_anonymous_args = 0
 683              		@ link register save eliminated.
 228:D:/fchai/work/i-cube/I-CUBE-HUAWEI/Middlewares/Third_Party/Huawei/iot_link/os/osal\osal.c ****     void *ret = NULL;
 684              		.loc 1 228 5 view .LVU168
 229:D:/fchai/work/i-cube/I-CUBE-HUAWEI/Middlewares/Third_Party/Huawei/iot_link/os/osal\osal.c **** 
 230:D:/fchai/work/i-cube/I-CUBE-HUAWEI/Middlewares/Third_Party/Huawei/iot_link/os/osal\osal.c ****     if((NULL != s_os_cb) &&(NULL != s_os_cb->ops) &&(NULL != s_os_cb->ops->malloc))
 685              		.loc 1 230 5 view .LVU169
 686              		.loc 1 230 14 is_stmt 0 view .LVU170
 687 0000 044B     		ldr	r3, .L146
 688 0002 1B68     		ldr	r3, [r3]
 689              		.loc 1 230 7 view .LVU171
 690 0004 23B1     		cbz	r3, .L136
 691              		.loc 1 230 44 discriminator 1 view .LVU172
 692 0006 5B68     		ldr	r3, [r3, #4]
 693              		.loc 1 230 26 discriminator 1 view .LVU173
 694 0008 13B1     		cbz	r3, .L136
 695              		.loc 1 230 74 discriminator 2 view .LVU174
 696 000a 1B6C     		ldr	r3, [r3, #64]
 697              		.loc 1 230 51 discriminator 2 view .LVU175
 698 000c 03B1     		cbz	r3, .L136
 231:D:/fchai/work/i-cube/I-CUBE-HUAWEI/Middlewares/Third_Party/Huawei/iot_link/os/osal\osal.c ****     {
 232:D:/fchai/work/i-cube/I-CUBE-HUAWEI/Middlewares/Third_Party/Huawei/iot_link/os/osal\osal.c ****         ret = s_os_cb->ops->malloc(size);
 699              		.loc 1 232 9 is_stmt 1 view .LVU176
 700              		.loc 1 232 15 is_stmt 0 view .LVU177
 701 000e 1847     		bx	r3
 702              	.LVL41:
 703              	.L136:
 233:D:/fchai/work/i-cube/I-CUBE-HUAWEI/Middlewares/Third_Party/Huawei/iot_link/os/osal\osal.c ****     }
ARM GAS  T:\msys\tmp\ccZZee3I.s 			page 17


 234:D:/fchai/work/i-cube/I-CUBE-HUAWEI/Middlewares/Third_Party/Huawei/iot_link/os/osal\osal.c **** 
 235:D:/fchai/work/i-cube/I-CUBE-HUAWEI/Middlewares/Third_Party/Huawei/iot_link/os/osal\osal.c ****     return ret;
 236:D:/fchai/work/i-cube/I-CUBE-HUAWEI/Middlewares/Third_Party/Huawei/iot_link/os/osal\osal.c **** 
 237:D:/fchai/work/i-cube/I-CUBE-HUAWEI/Middlewares/Third_Party/Huawei/iot_link/os/osal\osal.c **** }
 704              		.loc 1 237 1 view .LVU178
 705 0010 0020     		movs	r0, #0
 706              	.LVL42:
 707              		.loc 1 237 1 view .LVU179
 708 0012 7047     		bx	lr
 709              	.L147:
 710              		.align	2
 711              	.L146:
 712 0014 00000000 		.word	.LANCHOR0
 713              		.cfi_endproc
 714              	.LFE16:
 716              		.section	.text.osal_free,"ax",%progbits
 717              		.align	1
 718              		.p2align 2,,3
 719              		.global	osal_free
 720              		.syntax unified
 721              		.thumb
 722              		.thumb_func
 723              		.fpu fpv4-sp-d16
 725              	osal_free:
 726              	.LVL43:
 727              	.LFB17:
 238:D:/fchai/work/i-cube/I-CUBE-HUAWEI/Middlewares/Third_Party/Huawei/iot_link/os/osal\osal.c **** 
 239:D:/fchai/work/i-cube/I-CUBE-HUAWEI/Middlewares/Third_Party/Huawei/iot_link/os/osal\osal.c **** void  osal_free(void *addr)
 240:D:/fchai/work/i-cube/I-CUBE-HUAWEI/Middlewares/Third_Party/Huawei/iot_link/os/osal\osal.c **** {
 728              		.loc 1 240 1 is_stmt 1 view -0
 729              		.cfi_startproc
 730              		@ args = 0, pretend = 0, frame = 0
 731              		@ frame_needed = 0, uses_anonymous_args = 0
 732              		@ link register save eliminated.
 241:D:/fchai/work/i-cube/I-CUBE-HUAWEI/Middlewares/Third_Party/Huawei/iot_link/os/osal\osal.c **** 
 242:D:/fchai/work/i-cube/I-CUBE-HUAWEI/Middlewares/Third_Party/Huawei/iot_link/os/osal\osal.c ****     if((NULL != addr) && (NULL != s_os_cb) &&(NULL != s_os_cb->ops) &&(NULL != s_os_cb->ops->free))
 733              		.loc 1 242 5 view .LVU181
 734              		.loc 1 242 7 is_stmt 0 view .LVU182
 735 0000 38B1     		cbz	r0, .L148
 736              		.loc 1 242 32 discriminator 1 view .LVU183
 737 0002 044B     		ldr	r3, .L162
 738 0004 1B68     		ldr	r3, [r3]
 739              		.loc 1 242 23 discriminator 1 view .LVU184
 740 0006 23B1     		cbz	r3, .L148
 741              		.loc 1 242 62 discriminator 2 view .LVU185
 742 0008 5B68     		ldr	r3, [r3, #4]
 743              		.loc 1 242 44 discriminator 2 view .LVU186
 744 000a 13B1     		cbz	r3, .L148
 745              		.loc 1 242 92 discriminator 3 view .LVU187
 746 000c 5B6C     		ldr	r3, [r3, #68]
 747              		.loc 1 242 69 discriminator 3 view .LVU188
 748 000e 03B1     		cbz	r3, .L148
 243:D:/fchai/work/i-cube/I-CUBE-HUAWEI/Middlewares/Third_Party/Huawei/iot_link/os/osal\osal.c ****     {
 244:D:/fchai/work/i-cube/I-CUBE-HUAWEI/Middlewares/Third_Party/Huawei/iot_link/os/osal\osal.c ****         s_os_cb->ops->free(addr);
 749              		.loc 1 244 9 is_stmt 1 view .LVU189
 750 0010 1847     		bx	r3	@ indirect register sibling call
 751              	.LVL44:
ARM GAS  T:\msys\tmp\ccZZee3I.s 			page 18


 752              	.L148:
 245:D:/fchai/work/i-cube/I-CUBE-HUAWEI/Middlewares/Third_Party/Huawei/iot_link/os/osal\osal.c ****     }
 246:D:/fchai/work/i-cube/I-CUBE-HUAWEI/Middlewares/Third_Party/Huawei/iot_link/os/osal\osal.c **** 
 247:D:/fchai/work/i-cube/I-CUBE-HUAWEI/Middlewares/Third_Party/Huawei/iot_link/os/osal\osal.c ****     return;
 248:D:/fchai/work/i-cube/I-CUBE-HUAWEI/Middlewares/Third_Party/Huawei/iot_link/os/osal\osal.c **** }
 753              		.loc 1 248 1 is_stmt 0 view .LVU190
 754 0012 7047     		bx	lr
 755              	.L163:
 756              		.align	2
 757              	.L162:
 758 0014 00000000 		.word	.LANCHOR0
 759              		.cfi_endproc
 760              	.LFE17:
 762              		.section	.text.osal_zalloc,"ax",%progbits
 763              		.align	1
 764              		.p2align 2,,3
 765              		.global	osal_zalloc
 766              		.syntax unified
 767              		.thumb
 768              		.thumb_func
 769              		.fpu fpv4-sp-d16
 771              	osal_zalloc:
 772              	.LVL45:
 773              	.LFB18:
 249:D:/fchai/work/i-cube/I-CUBE-HUAWEI/Middlewares/Third_Party/Huawei/iot_link/os/osal\osal.c **** 
 250:D:/fchai/work/i-cube/I-CUBE-HUAWEI/Middlewares/Third_Party/Huawei/iot_link/os/osal\osal.c **** void *osal_zalloc(size_t size)
 251:D:/fchai/work/i-cube/I-CUBE-HUAWEI/Middlewares/Third_Party/Huawei/iot_link/os/osal\osal.c **** {
 774              		.loc 1 251 1 is_stmt 1 view -0
 775              		.cfi_startproc
 776              		@ args = 0, pretend = 0, frame = 0
 777              		@ frame_needed = 0, uses_anonymous_args = 0
 252:D:/fchai/work/i-cube/I-CUBE-HUAWEI/Middlewares/Third_Party/Huawei/iot_link/os/osal\osal.c ****     void *ret = NULL;
 778              		.loc 1 252 5 view .LVU192
 253:D:/fchai/work/i-cube/I-CUBE-HUAWEI/Middlewares/Third_Party/Huawei/iot_link/os/osal\osal.c **** 
 254:D:/fchai/work/i-cube/I-CUBE-HUAWEI/Middlewares/Third_Party/Huawei/iot_link/os/osal\osal.c ****     if((NULL != s_os_cb) &&(NULL != s_os_cb->ops) &&(NULL != s_os_cb->ops->malloc))
 779              		.loc 1 254 5 view .LVU193
 251:D:/fchai/work/i-cube/I-CUBE-HUAWEI/Middlewares/Third_Party/Huawei/iot_link/os/osal\osal.c ****     void *ret = NULL;
 780              		.loc 1 251 1 is_stmt 0 view .LVU194
 781 0000 38B5     		push	{r3, r4, r5, lr}
 782              	.LCFI4:
 783              		.cfi_def_cfa_offset 16
 784              		.cfi_offset 3, -16
 785              		.cfi_offset 4, -12
 786              		.cfi_offset 5, -8
 787              		.cfi_offset 14, -4
 788              		.loc 1 254 14 view .LVU195
 789 0002 084B     		ldr	r3, .L177
 790 0004 1C68     		ldr	r4, [r3]
 791              		.loc 1 254 7 view .LVU196
 792 0006 5CB1     		cbz	r4, .L164
 793              		.loc 1 254 44 discriminator 1 view .LVU197
 794 0008 6468     		ldr	r4, [r4, #4]
 795              		.loc 1 254 26 discriminator 1 view .LVU198
 796 000a 4CB1     		cbz	r4, .L164
 797              		.loc 1 254 74 discriminator 2 view .LVU199
 798 000c 246C     		ldr	r4, [r4, #64]
 799              		.loc 1 254 51 discriminator 2 view .LVU200
ARM GAS  T:\msys\tmp\ccZZee3I.s 			page 19


 800 000e 3CB1     		cbz	r4, .L164
 255:D:/fchai/work/i-cube/I-CUBE-HUAWEI/Middlewares/Third_Party/Huawei/iot_link/os/osal\osal.c ****     {
 256:D:/fchai/work/i-cube/I-CUBE-HUAWEI/Middlewares/Third_Party/Huawei/iot_link/os/osal\osal.c ****         ret = s_os_cb->ops->malloc(size);
 801              		.loc 1 256 9 is_stmt 1 view .LVU201
 802 0010 0546     		mov	r5, r0
 803              		.loc 1 256 15 is_stmt 0 view .LVU202
 804 0012 A047     		blx	r4
 805              	.LVL46:
 257:D:/fchai/work/i-cube/I-CUBE-HUAWEI/Middlewares/Third_Party/Huawei/iot_link/os/osal\osal.c ****         if(NULL != ret)
 806              		.loc 1 257 9 is_stmt 1 view .LVU203
 807              		.loc 1 257 11 is_stmt 0 view .LVU204
 808 0014 0446     		mov	r4, r0
 809 0016 18B1     		cbz	r0, .L164
 258:D:/fchai/work/i-cube/I-CUBE-HUAWEI/Middlewares/Third_Party/Huawei/iot_link/os/osal\osal.c ****         {
 259:D:/fchai/work/i-cube/I-CUBE-HUAWEI/Middlewares/Third_Party/Huawei/iot_link/os/osal\osal.c ****             (void) memset(ret,0,size);
 810              		.loc 1 259 13 is_stmt 1 view .LVU205
 811              		.loc 1 259 20 is_stmt 0 view .LVU206
 812 0018 2A46     		mov	r2, r5
 813 001a 0021     		movs	r1, #0
 814 001c FFF7FEFF 		bl	memset
 815              	.LVL47:
 816              	.L164:
 260:D:/fchai/work/i-cube/I-CUBE-HUAWEI/Middlewares/Third_Party/Huawei/iot_link/os/osal\osal.c ****         }
 261:D:/fchai/work/i-cube/I-CUBE-HUAWEI/Middlewares/Third_Party/Huawei/iot_link/os/osal\osal.c ****     }
 262:D:/fchai/work/i-cube/I-CUBE-HUAWEI/Middlewares/Third_Party/Huawei/iot_link/os/osal\osal.c **** 
 263:D:/fchai/work/i-cube/I-CUBE-HUAWEI/Middlewares/Third_Party/Huawei/iot_link/os/osal\osal.c ****     return ret;
 264:D:/fchai/work/i-cube/I-CUBE-HUAWEI/Middlewares/Third_Party/Huawei/iot_link/os/osal\osal.c **** 
 265:D:/fchai/work/i-cube/I-CUBE-HUAWEI/Middlewares/Third_Party/Huawei/iot_link/os/osal\osal.c **** }
 817              		.loc 1 265 1 view .LVU207
 818 0020 2046     		mov	r0, r4
 819 0022 38BD     		pop	{r3, r4, r5, pc}
 820              	.L178:
 821              		.align	2
 822              	.L177:
 823 0024 00000000 		.word	.LANCHOR0
 824              		.cfi_endproc
 825              	.LFE18:
 827              		.section	.text.osal_realloc,"ax",%progbits
 828              		.align	1
 829              		.p2align 2,,3
 830              		.global	osal_realloc
 831              		.syntax unified
 832              		.thumb
 833              		.thumb_func
 834              		.fpu fpv4-sp-d16
 836              	osal_realloc:
 837              	.LVL48:
 838              	.LFB19:
 266:D:/fchai/work/i-cube/I-CUBE-HUAWEI/Middlewares/Third_Party/Huawei/iot_link/os/osal\osal.c **** 
 267:D:/fchai/work/i-cube/I-CUBE-HUAWEI/Middlewares/Third_Party/Huawei/iot_link/os/osal\osal.c **** void *osal_realloc(void *ptr,size_t newsize)
 268:D:/fchai/work/i-cube/I-CUBE-HUAWEI/Middlewares/Third_Party/Huawei/iot_link/os/osal\osal.c **** {
 839              		.loc 1 268 1 is_stmt 1 view -0
 840              		.cfi_startproc
 841              		@ args = 0, pretend = 0, frame = 0
 842              		@ frame_needed = 0, uses_anonymous_args = 0
 843              		@ link register save eliminated.
 269:D:/fchai/work/i-cube/I-CUBE-HUAWEI/Middlewares/Third_Party/Huawei/iot_link/os/osal\osal.c ****     void *ret = NULL;
ARM GAS  T:\msys\tmp\ccZZee3I.s 			page 20


 844              		.loc 1 269 5 view .LVU209
 270:D:/fchai/work/i-cube/I-CUBE-HUAWEI/Middlewares/Third_Party/Huawei/iot_link/os/osal\osal.c **** 
 271:D:/fchai/work/i-cube/I-CUBE-HUAWEI/Middlewares/Third_Party/Huawei/iot_link/os/osal\osal.c ****     if((NULL != s_os_cb) &&(NULL != s_os_cb->ops) &&(NULL != s_os_cb->ops->realloc))
 845              		.loc 1 271 5 view .LVU210
 846              		.loc 1 271 14 is_stmt 0 view .LVU211
 847 0000 044B     		ldr	r3, .L189
 848 0002 1B68     		ldr	r3, [r3]
 849              		.loc 1 271 7 view .LVU212
 850 0004 23B1     		cbz	r3, .L179
 851              		.loc 1 271 44 discriminator 1 view .LVU213
 852 0006 5B68     		ldr	r3, [r3, #4]
 853              		.loc 1 271 26 discriminator 1 view .LVU214
 854 0008 13B1     		cbz	r3, .L179
 855              		.loc 1 271 74 discriminator 2 view .LVU215
 856 000a 9B6C     		ldr	r3, [r3, #72]
 857              		.loc 1 271 51 discriminator 2 view .LVU216
 858 000c 03B1     		cbz	r3, .L179
 272:D:/fchai/work/i-cube/I-CUBE-HUAWEI/Middlewares/Third_Party/Huawei/iot_link/os/osal\osal.c ****     {
 273:D:/fchai/work/i-cube/I-CUBE-HUAWEI/Middlewares/Third_Party/Huawei/iot_link/os/osal\osal.c ****         ret = s_os_cb->ops->realloc(ptr,newsize);
 859              		.loc 1 273 9 is_stmt 1 view .LVU217
 860              		.loc 1 273 15 is_stmt 0 view .LVU218
 861 000e 1847     		bx	r3
 862              	.LVL49:
 863              	.L179:
 274:D:/fchai/work/i-cube/I-CUBE-HUAWEI/Middlewares/Third_Party/Huawei/iot_link/os/osal\osal.c ****     }
 275:D:/fchai/work/i-cube/I-CUBE-HUAWEI/Middlewares/Third_Party/Huawei/iot_link/os/osal\osal.c **** 
 276:D:/fchai/work/i-cube/I-CUBE-HUAWEI/Middlewares/Third_Party/Huawei/iot_link/os/osal\osal.c ****     return ret;
 277:D:/fchai/work/i-cube/I-CUBE-HUAWEI/Middlewares/Third_Party/Huawei/iot_link/os/osal\osal.c **** }
 864              		.loc 1 277 1 view .LVU219
 865 0010 0020     		movs	r0, #0
 866              	.LVL50:
 867              		.loc 1 277 1 view .LVU220
 868 0012 7047     		bx	lr
 869              	.L190:
 870              		.align	2
 871              	.L189:
 872 0014 00000000 		.word	.LANCHOR0
 873              		.cfi_endproc
 874              	.LFE19:
 876              		.section	.text.osal_calloc,"ax",%progbits
 877              		.align	1
 878              		.p2align 2,,3
 879              		.global	osal_calloc
 880              		.syntax unified
 881              		.thumb
 882              		.thumb_func
 883              		.fpu fpv4-sp-d16
 885              	osal_calloc:
 886              	.LVL51:
 887              	.LFB20:
 278:D:/fchai/work/i-cube/I-CUBE-HUAWEI/Middlewares/Third_Party/Huawei/iot_link/os/osal\osal.c **** 
 279:D:/fchai/work/i-cube/I-CUBE-HUAWEI/Middlewares/Third_Party/Huawei/iot_link/os/osal\osal.c **** 
 280:D:/fchai/work/i-cube/I-CUBE-HUAWEI/Middlewares/Third_Party/Huawei/iot_link/os/osal\osal.c **** 
 281:D:/fchai/work/i-cube/I-CUBE-HUAWEI/Middlewares/Third_Party/Huawei/iot_link/os/osal\osal.c **** void *osal_calloc(size_t n, size_t size)
 282:D:/fchai/work/i-cube/I-CUBE-HUAWEI/Middlewares/Third_Party/Huawei/iot_link/os/osal\osal.c **** {
 888              		.loc 1 282 1 is_stmt 1 view -0
 889              		.cfi_startproc
ARM GAS  T:\msys\tmp\ccZZee3I.s 			page 21


 890              		@ args = 0, pretend = 0, frame = 0
 891              		@ frame_needed = 0, uses_anonymous_args = 0
 892              		@ link register save eliminated.
 283:D:/fchai/work/i-cube/I-CUBE-HUAWEI/Middlewares/Third_Party/Huawei/iot_link/os/osal\osal.c ****     void *ret = NULL;
 893              		.loc 1 283 5 view .LVU222
 284:D:/fchai/work/i-cube/I-CUBE-HUAWEI/Middlewares/Third_Party/Huawei/iot_link/os/osal\osal.c ****     size_t len;
 894              		.loc 1 284 5 view .LVU223
 285:D:/fchai/work/i-cube/I-CUBE-HUAWEI/Middlewares/Third_Party/Huawei/iot_link/os/osal\osal.c ****     len = n*size;
 895              		.loc 1 285 5 view .LVU224
 286:D:/fchai/work/i-cube/I-CUBE-HUAWEI/Middlewares/Third_Party/Huawei/iot_link/os/osal\osal.c **** 
 287:D:/fchai/work/i-cube/I-CUBE-HUAWEI/Middlewares/Third_Party/Huawei/iot_link/os/osal\osal.c ****     ret = malloc(len);
 896              		.loc 1 287 5 view .LVU225
 897              		.loc 1 287 11 is_stmt 0 view .LVU226
 898 0000 01FB00F0 		mul	r0, r1, r0
 899              	.LVL52:
 900              		.loc 1 287 11 view .LVU227
 901 0004 0121     		movs	r1, #1
 902              	.LVL53:
 903              		.loc 1 287 11 view .LVU228
 904 0006 FFF7FEBF 		b	calloc
 905              	.LVL54:
 906              		.loc 1 287 11 view .LVU229
 907              		.cfi_endproc
 908              	.LFE20:
 910 000a 00BF     		.section	.text.osal_sys_time,"ax",%progbits
 911              		.align	1
 912              		.p2align 2,,3
 913              		.global	osal_sys_time
 914              		.syntax unified
 915              		.thumb
 916              		.thumb_func
 917              		.fpu fpv4-sp-d16
 919              	osal_sys_time:
 920              	.LFB21:
 288:D:/fchai/work/i-cube/I-CUBE-HUAWEI/Middlewares/Third_Party/Huawei/iot_link/os/osal\osal.c ****     if(NULL != ret)
 289:D:/fchai/work/i-cube/I-CUBE-HUAWEI/Middlewares/Third_Party/Huawei/iot_link/os/osal\osal.c ****     {
 290:D:/fchai/work/i-cube/I-CUBE-HUAWEI/Middlewares/Third_Party/Huawei/iot_link/os/osal\osal.c ****         (void) memset(ret, 0,len);
 291:D:/fchai/work/i-cube/I-CUBE-HUAWEI/Middlewares/Third_Party/Huawei/iot_link/os/osal\osal.c ****     }
 292:D:/fchai/work/i-cube/I-CUBE-HUAWEI/Middlewares/Third_Party/Huawei/iot_link/os/osal\osal.c **** 
 293:D:/fchai/work/i-cube/I-CUBE-HUAWEI/Middlewares/Third_Party/Huawei/iot_link/os/osal\osal.c ****     return ret;
 294:D:/fchai/work/i-cube/I-CUBE-HUAWEI/Middlewares/Third_Party/Huawei/iot_link/os/osal\osal.c **** }
 295:D:/fchai/work/i-cube/I-CUBE-HUAWEI/Middlewares/Third_Party/Huawei/iot_link/os/osal\osal.c **** 
 296:D:/fchai/work/i-cube/I-CUBE-HUAWEI/Middlewares/Third_Party/Huawei/iot_link/os/osal\osal.c **** 
 297:D:/fchai/work/i-cube/I-CUBE-HUAWEI/Middlewares/Third_Party/Huawei/iot_link/os/osal\osal.c **** 
 298:D:/fchai/work/i-cube/I-CUBE-HUAWEI/Middlewares/Third_Party/Huawei/iot_link/os/osal\osal.c **** unsigned long long osal_sys_time()
 299:D:/fchai/work/i-cube/I-CUBE-HUAWEI/Middlewares/Third_Party/Huawei/iot_link/os/osal\osal.c **** {
 921              		.loc 1 299 1 is_stmt 1 view -0
 922              		.cfi_startproc
 923              		@ args = 0, pretend = 0, frame = 0
 924              		@ frame_needed = 0, uses_anonymous_args = 0
 925              		@ link register save eliminated.
 300:D:/fchai/work/i-cube/I-CUBE-HUAWEI/Middlewares/Third_Party/Huawei/iot_link/os/osal\osal.c **** 
 301:D:/fchai/work/i-cube/I-CUBE-HUAWEI/Middlewares/Third_Party/Huawei/iot_link/os/osal\osal.c ****     unsigned long long  ret = 0;
 926              		.loc 1 301 5 view .LVU231
 927              	.LVL55:
 302:D:/fchai/work/i-cube/I-CUBE-HUAWEI/Middlewares/Third_Party/Huawei/iot_link/os/osal\osal.c **** 
 303:D:/fchai/work/i-cube/I-CUBE-HUAWEI/Middlewares/Third_Party/Huawei/iot_link/os/osal\osal.c ****     if((NULL != s_os_cb) &&(NULL != s_os_cb->ops) &&(NULL != s_os_cb->ops->get_sys_time))
ARM GAS  T:\msys\tmp\ccZZee3I.s 			page 22


 928              		.loc 1 303 5 view .LVU232
 929              		.loc 1 303 14 is_stmt 0 view .LVU233
 930 0000 054B     		ldr	r3, .L200
 931 0002 1B68     		ldr	r3, [r3]
 932              		.loc 1 303 7 view .LVU234
 933 0004 23B1     		cbz	r3, .L192
 934              		.loc 1 303 44 discriminator 1 view .LVU235
 935 0006 5B68     		ldr	r3, [r3, #4]
 936              		.loc 1 303 26 discriminator 1 view .LVU236
 937 0008 13B1     		cbz	r3, .L192
 938              		.loc 1 303 74 discriminator 2 view .LVU237
 939 000a DB6C     		ldr	r3, [r3, #76]
 940              		.loc 1 303 51 discriminator 2 view .LVU238
 941 000c 03B1     		cbz	r3, .L192
 304:D:/fchai/work/i-cube/I-CUBE-HUAWEI/Middlewares/Third_Party/Huawei/iot_link/os/osal\osal.c ****     {
 305:D:/fchai/work/i-cube/I-CUBE-HUAWEI/Middlewares/Third_Party/Huawei/iot_link/os/osal\osal.c ****         ret = s_os_cb->ops->get_sys_time();
 942              		.loc 1 305 9 is_stmt 1 view .LVU239
 943              		.loc 1 305 15 is_stmt 0 view .LVU240
 944 000e 1847     		bx	r3
 945              	.LVL56:
 946              	.L192:
 306:D:/fchai/work/i-cube/I-CUBE-HUAWEI/Middlewares/Third_Party/Huawei/iot_link/os/osal\osal.c ****     }
 307:D:/fchai/work/i-cube/I-CUBE-HUAWEI/Middlewares/Third_Party/Huawei/iot_link/os/osal\osal.c **** 
 308:D:/fchai/work/i-cube/I-CUBE-HUAWEI/Middlewares/Third_Party/Huawei/iot_link/os/osal\osal.c ****     return ret;
 309:D:/fchai/work/i-cube/I-CUBE-HUAWEI/Middlewares/Third_Party/Huawei/iot_link/os/osal\osal.c **** }
 947              		.loc 1 309 1 view .LVU241
 948 0010 0020     		movs	r0, #0
 949 0012 0021     		movs	r1, #0
 950 0014 7047     		bx	lr
 951              	.L201:
 952 0016 00BF     		.align	2
 953              	.L200:
 954 0018 00000000 		.word	.LANCHOR0
 955              		.cfi_endproc
 956              	.LFE21:
 958              		.section	.text.osal_loop_timer_init,"ax",%progbits
 959              		.align	1
 960              		.p2align 2,,3
 961              		.global	osal_loop_timer_init
 962              		.syntax unified
 963              		.thumb
 964              		.thumb_func
 965              		.fpu fpv4-sp-d16
 967              	osal_loop_timer_init:
 968              	.LVL57:
 969              	.LFB22:
 310:D:/fchai/work/i-cube/I-CUBE-HUAWEI/Middlewares/Third_Party/Huawei/iot_link/os/osal\osal.c **** 
 311:D:/fchai/work/i-cube/I-CUBE-HUAWEI/Middlewares/Third_Party/Huawei/iot_link/os/osal\osal.c **** void osal_loop_timer_init(osal_loop_timer_t *timer)
 312:D:/fchai/work/i-cube/I-CUBE-HUAWEI/Middlewares/Third_Party/Huawei/iot_link/os/osal\osal.c **** {
 970              		.loc 1 312 1 is_stmt 1 view -0
 971              		.cfi_startproc
 972              		@ args = 0, pretend = 0, frame = 0
 973              		@ frame_needed = 0, uses_anonymous_args = 0
 313:D:/fchai/work/i-cube/I-CUBE-HUAWEI/Middlewares/Third_Party/Huawei/iot_link/os/osal\osal.c ****     timer->dead_time = osal_sys_time();
 974              		.loc 1 313 5 view .LVU243
 975              	.LBB18:
 976              	.LBI18:
ARM GAS  T:\msys\tmp\ccZZee3I.s 			page 23


 298:D:/fchai/work/i-cube/I-CUBE-HUAWEI/Middlewares/Third_Party/Huawei/iot_link/os/osal\osal.c **** {
 977              		.loc 1 298 20 view .LVU244
 978              	.LBB19:
 301:D:/fchai/work/i-cube/I-CUBE-HUAWEI/Middlewares/Third_Party/Huawei/iot_link/os/osal\osal.c **** 
 979              		.loc 1 301 5 view .LVU245
 303:D:/fchai/work/i-cube/I-CUBE-HUAWEI/Middlewares/Third_Party/Huawei/iot_link/os/osal\osal.c ****     {
 980              		.loc 1 303 5 view .LVU246
 303:D:/fchai/work/i-cube/I-CUBE-HUAWEI/Middlewares/Third_Party/Huawei/iot_link/os/osal\osal.c ****     {
 981              		.loc 1 303 14 is_stmt 0 view .LVU247
 982 0000 084B     		ldr	r3, .L208
 983 0002 1B68     		ldr	r3, [r3]
 984              	.LBE19:
 985              	.LBE18:
 312:D:/fchai/work/i-cube/I-CUBE-HUAWEI/Middlewares/Third_Party/Huawei/iot_link/os/osal\osal.c ****     timer->dead_time = osal_sys_time();
 986              		.loc 1 312 1 view .LVU248
 987 0004 10B5     		push	{r4, lr}
 988              	.LCFI5:
 989              		.cfi_def_cfa_offset 8
 990              		.cfi_offset 4, -8
 991              		.cfi_offset 14, -4
 312:D:/fchai/work/i-cube/I-CUBE-HUAWEI/Middlewares/Third_Party/Huawei/iot_link/os/osal\osal.c ****     timer->dead_time = osal_sys_time();
 992              		.loc 1 312 1 view .LVU249
 993 0006 0446     		mov	r4, r0
 994              	.LBB22:
 995              	.LBB20:
 303:D:/fchai/work/i-cube/I-CUBE-HUAWEI/Middlewares/Third_Party/Huawei/iot_link/os/osal\osal.c ****     {
 996              		.loc 1 303 7 view .LVU250
 997 0008 3BB1     		cbz	r3, .L206
 303:D:/fchai/work/i-cube/I-CUBE-HUAWEI/Middlewares/Third_Party/Huawei/iot_link/os/osal\osal.c ****     {
 998              		.loc 1 303 44 view .LVU251
 999 000a 5B68     		ldr	r3, [r3, #4]
 303:D:/fchai/work/i-cube/I-CUBE-HUAWEI/Middlewares/Third_Party/Huawei/iot_link/os/osal\osal.c ****     {
 1000              		.loc 1 303 26 view .LVU252
 1001 000c 2BB1     		cbz	r3, .L206
 303:D:/fchai/work/i-cube/I-CUBE-HUAWEI/Middlewares/Third_Party/Huawei/iot_link/os/osal\osal.c ****     {
 1002              		.loc 1 303 74 view .LVU253
 1003 000e DB6C     		ldr	r3, [r3, #76]
 303:D:/fchai/work/i-cube/I-CUBE-HUAWEI/Middlewares/Third_Party/Huawei/iot_link/os/osal\osal.c ****     {
 1004              		.loc 1 303 51 view .LVU254
 1005 0010 1BB1     		cbz	r3, .L206
 305:D:/fchai/work/i-cube/I-CUBE-HUAWEI/Middlewares/Third_Party/Huawei/iot_link/os/osal\osal.c ****     }
 1006              		.loc 1 305 9 is_stmt 1 view .LVU255
 305:D:/fchai/work/i-cube/I-CUBE-HUAWEI/Middlewares/Third_Party/Huawei/iot_link/os/osal\osal.c ****     }
 1007              		.loc 1 305 15 is_stmt 0 view .LVU256
 1008 0012 9847     		blx	r3
 1009              	.LVL58:
 308:D:/fchai/work/i-cube/I-CUBE-HUAWEI/Middlewares/Third_Party/Huawei/iot_link/os/osal\osal.c **** }
 1010              		.loc 1 308 5 is_stmt 1 view .LVU257
 308:D:/fchai/work/i-cube/I-CUBE-HUAWEI/Middlewares/Third_Party/Huawei/iot_link/os/osal\osal.c **** }
 1011              		.loc 1 308 5 is_stmt 0 view .LVU258
 1012              	.LBE20:
 1013              	.LBE22:
 1014              		.loc 1 313 22 view .LVU259
 1015 0014 C4E90001 		strd	r0, r1, [r4]
 314:D:/fchai/work/i-cube/I-CUBE-HUAWEI/Middlewares/Third_Party/Huawei/iot_link/os/osal\osal.c **** }
 1016              		.loc 1 314 1 view .LVU260
 1017 0018 10BD     		pop	{r4, pc}
ARM GAS  T:\msys\tmp\ccZZee3I.s 			page 24


 1018              	.LVL59:
 1019              	.L206:
 1020              	.LBB23:
 1021              	.LBB21:
 301:D:/fchai/work/i-cube/I-CUBE-HUAWEI/Middlewares/Third_Party/Huawei/iot_link/os/osal\osal.c **** 
 1022              		.loc 1 301 25 view .LVU261
 1023 001a 0020     		movs	r0, #0
 1024              	.LVL60:
 301:D:/fchai/work/i-cube/I-CUBE-HUAWEI/Middlewares/Third_Party/Huawei/iot_link/os/osal\osal.c **** 
 1025              		.loc 1 301 25 view .LVU262
 1026 001c 0146     		mov	r1, r0
 1027              	.LVL61:
 308:D:/fchai/work/i-cube/I-CUBE-HUAWEI/Middlewares/Third_Party/Huawei/iot_link/os/osal\osal.c **** }
 1028              		.loc 1 308 5 is_stmt 1 view .LVU263
 308:D:/fchai/work/i-cube/I-CUBE-HUAWEI/Middlewares/Third_Party/Huawei/iot_link/os/osal\osal.c **** }
 1029              		.loc 1 308 5 is_stmt 0 view .LVU264
 1030              	.LBE21:
 1031              	.LBE23:
 313:D:/fchai/work/i-cube/I-CUBE-HUAWEI/Middlewares/Third_Party/Huawei/iot_link/os/osal\osal.c **** }
 1032              		.loc 1 313 22 view .LVU265
 1033 001e C4E90001 		strd	r0, r1, [r4]
 1034              		.loc 1 314 1 view .LVU266
 1035 0022 10BD     		pop	{r4, pc}
 1036              	.LVL62:
 1037              	.L209:
 1038              		.loc 1 314 1 view .LVU267
 1039              		.align	2
 1040              	.L208:
 1041 0024 00000000 		.word	.LANCHOR0
 1042              		.cfi_endproc
 1043              	.LFE22:
 1045              		.section	.text.osal_loop_timer_expired,"ax",%progbits
 1046              		.align	1
 1047              		.p2align 2,,3
 1048              		.global	osal_loop_timer_expired
 1049              		.syntax unified
 1050              		.thumb
 1051              		.thumb_func
 1052              		.fpu fpv4-sp-d16
 1054              	osal_loop_timer_expired:
 1055              	.LVL63:
 1056              	.LFB23:
 315:D:/fchai/work/i-cube/I-CUBE-HUAWEI/Middlewares/Third_Party/Huawei/iot_link/os/osal\osal.c **** 
 316:D:/fchai/work/i-cube/I-CUBE-HUAWEI/Middlewares/Third_Party/Huawei/iot_link/os/osal\osal.c **** char osal_loop_timer_expired(osal_loop_timer_t *timer)
 317:D:/fchai/work/i-cube/I-CUBE-HUAWEI/Middlewares/Third_Party/Huawei/iot_link/os/osal\osal.c **** {
 1057              		.loc 1 317 1 is_stmt 1 view -0
 1058              		.cfi_startproc
 1059              		@ args = 0, pretend = 0, frame = 0
 1060              		@ frame_needed = 0, uses_anonymous_args = 0
 318:D:/fchai/work/i-cube/I-CUBE-HUAWEI/Middlewares/Third_Party/Huawei/iot_link/os/osal\osal.c ****     unsigned long long now = osal_sys_time();
 1061              		.loc 1 318 5 view .LVU269
 1062              	.LBB24:
 1063              	.LBI24:
 298:D:/fchai/work/i-cube/I-CUBE-HUAWEI/Middlewares/Third_Party/Huawei/iot_link/os/osal\osal.c **** {
 1064              		.loc 1 298 20 view .LVU270
 1065              	.LBB25:
 301:D:/fchai/work/i-cube/I-CUBE-HUAWEI/Middlewares/Third_Party/Huawei/iot_link/os/osal\osal.c **** 
ARM GAS  T:\msys\tmp\ccZZee3I.s 			page 25


 1066              		.loc 1 301 5 view .LVU271
 303:D:/fchai/work/i-cube/I-CUBE-HUAWEI/Middlewares/Third_Party/Huawei/iot_link/os/osal\osal.c ****     {
 1067              		.loc 1 303 5 view .LVU272
 303:D:/fchai/work/i-cube/I-CUBE-HUAWEI/Middlewares/Third_Party/Huawei/iot_link/os/osal\osal.c ****     {
 1068              		.loc 1 303 14 is_stmt 0 view .LVU273
 1069 0000 0B4B     		ldr	r3, .L216
 1070 0002 1B68     		ldr	r3, [r3]
 1071              	.LBE25:
 1072              	.LBE24:
 317:D:/fchai/work/i-cube/I-CUBE-HUAWEI/Middlewares/Third_Party/Huawei/iot_link/os/osal\osal.c ****     unsigned long long now = osal_sys_time();
 1073              		.loc 1 317 1 view .LVU274
 1074 0004 10B5     		push	{r4, lr}
 1075              	.LCFI6:
 1076              		.cfi_def_cfa_offset 8
 1077              		.cfi_offset 4, -8
 1078              		.cfi_offset 14, -4
 317:D:/fchai/work/i-cube/I-CUBE-HUAWEI/Middlewares/Third_Party/Huawei/iot_link/os/osal\osal.c ****     unsigned long long now = osal_sys_time();
 1079              		.loc 1 317 1 view .LVU275
 1080 0006 0446     		mov	r4, r0
 1081              	.LBB27:
 1082              	.LBB26:
 303:D:/fchai/work/i-cube/I-CUBE-HUAWEI/Middlewares/Third_Party/Huawei/iot_link/os/osal\osal.c ****     {
 1083              		.loc 1 303 7 view .LVU276
 1084 0008 3BB1     		cbz	r3, .L214
 303:D:/fchai/work/i-cube/I-CUBE-HUAWEI/Middlewares/Third_Party/Huawei/iot_link/os/osal\osal.c ****     {
 1085              		.loc 1 303 44 view .LVU277
 1086 000a 5B68     		ldr	r3, [r3, #4]
 303:D:/fchai/work/i-cube/I-CUBE-HUAWEI/Middlewares/Third_Party/Huawei/iot_link/os/osal\osal.c ****     {
 1087              		.loc 1 303 26 view .LVU278
 1088 000c 2BB1     		cbz	r3, .L214
 303:D:/fchai/work/i-cube/I-CUBE-HUAWEI/Middlewares/Third_Party/Huawei/iot_link/os/osal\osal.c ****     {
 1089              		.loc 1 303 74 view .LVU279
 1090 000e DB6C     		ldr	r3, [r3, #76]
 303:D:/fchai/work/i-cube/I-CUBE-HUAWEI/Middlewares/Third_Party/Huawei/iot_link/os/osal\osal.c ****     {
 1091              		.loc 1 303 51 view .LVU280
 1092 0010 1BB1     		cbz	r3, .L214
 305:D:/fchai/work/i-cube/I-CUBE-HUAWEI/Middlewares/Third_Party/Huawei/iot_link/os/osal\osal.c ****     }
 1093              		.loc 1 305 9 is_stmt 1 view .LVU281
 305:D:/fchai/work/i-cube/I-CUBE-HUAWEI/Middlewares/Third_Party/Huawei/iot_link/os/osal\osal.c ****     }
 1094              		.loc 1 305 15 is_stmt 0 view .LVU282
 1095 0012 9847     		blx	r3
 1096              	.LVL64:
 305:D:/fchai/work/i-cube/I-CUBE-HUAWEI/Middlewares/Third_Party/Huawei/iot_link/os/osal\osal.c ****     }
 1097              		.loc 1 305 15 view .LVU283
 1098 0014 0246     		mov	r2, r0
 1099 0016 0B46     		mov	r3, r1
 1100              	.LVL65:
 305:D:/fchai/work/i-cube/I-CUBE-HUAWEI/Middlewares/Third_Party/Huawei/iot_link/os/osal\osal.c ****     }
 1101              		.loc 1 305 15 view .LVU284
 1102 0018 01E0     		b	.L211
 1103              	.LVL66:
 1104              	.L214:
 301:D:/fchai/work/i-cube/I-CUBE-HUAWEI/Middlewares/Third_Party/Huawei/iot_link/os/osal\osal.c **** 
 1105              		.loc 1 301 25 view .LVU285
 1106 001a 0022     		movs	r2, #0
 1107 001c 0023     		movs	r3, #0
 1108              	.LVL67:
ARM GAS  T:\msys\tmp\ccZZee3I.s 			page 26


 1109              	.L211:
 308:D:/fchai/work/i-cube/I-CUBE-HUAWEI/Middlewares/Third_Party/Huawei/iot_link/os/osal\osal.c **** }
 1110              		.loc 1 308 5 is_stmt 1 view .LVU286
 308:D:/fchai/work/i-cube/I-CUBE-HUAWEI/Middlewares/Third_Party/Huawei/iot_link/os/osal\osal.c **** }
 1111              		.loc 1 308 5 is_stmt 0 view .LVU287
 1112              	.LBE26:
 1113              	.LBE27:
 319:D:/fchai/work/i-cube/I-CUBE-HUAWEI/Middlewares/Third_Party/Huawei/iot_link/os/osal\osal.c ****     return now >= timer->dead_time;
 1114              		.loc 1 319 5 is_stmt 1 view .LVU288
 1115              		.loc 1 319 16 is_stmt 0 view .LVU289
 1116 001e D4E90001 		ldrd	r0, [r4]
 1117 0022 8B42     		cmp	r3, r1
 1118 0024 08BF     		it	eq
 1119 0026 8242     		cmpeq	r2, r0
 320:D:/fchai/work/i-cube/I-CUBE-HUAWEI/Middlewares/Third_Party/Huawei/iot_link/os/osal\osal.c **** }
 1120              		.loc 1 320 1 view .LVU290
 1121 0028 2CBF     		ite	cs
 1122 002a 0120     		movcs	r0, #1
 1123 002c 0020     		movcc	r0, #0
 1124 002e 10BD     		pop	{r4, pc}
 1125              	.LVL68:
 1126              	.L217:
 1127              		.loc 1 320 1 view .LVU291
 1128              		.align	2
 1129              	.L216:
 1130 0030 00000000 		.word	.LANCHOR0
 1131              		.cfi_endproc
 1132              	.LFE23:
 1134              		.section	.text.osal_loop_timer_count_downms,"ax",%progbits
 1135              		.align	1
 1136              		.p2align 2,,3
 1137              		.global	osal_loop_timer_count_downms
 1138              		.syntax unified
 1139              		.thumb
 1140              		.thumb_func
 1141              		.fpu fpv4-sp-d16
 1143              	osal_loop_timer_count_downms:
 1144              	.LVL69:
 1145              	.LFB24:
 321:D:/fchai/work/i-cube/I-CUBE-HUAWEI/Middlewares/Third_Party/Huawei/iot_link/os/osal\osal.c **** 
 322:D:/fchai/work/i-cube/I-CUBE-HUAWEI/Middlewares/Third_Party/Huawei/iot_link/os/osal\osal.c **** void osal_loop_timer_count_downms(osal_loop_timer_t *timer, unsigned int timeout)
 323:D:/fchai/work/i-cube/I-CUBE-HUAWEI/Middlewares/Third_Party/Huawei/iot_link/os/osal\osal.c **** {
 1146              		.loc 1 323 1 is_stmt 1 view -0
 1147              		.cfi_startproc
 1148              		@ args = 0, pretend = 0, frame = 0
 1149              		@ frame_needed = 0, uses_anonymous_args = 0
 324:D:/fchai/work/i-cube/I-CUBE-HUAWEI/Middlewares/Third_Party/Huawei/iot_link/os/osal\osal.c ****     unsigned long long now = osal_sys_time();
 1150              		.loc 1 324 5 view .LVU293
 1151              	.LBB28:
 1152              	.LBI28:
 298:D:/fchai/work/i-cube/I-CUBE-HUAWEI/Middlewares/Third_Party/Huawei/iot_link/os/osal\osal.c **** {
 1153              		.loc 1 298 20 view .LVU294
 1154              	.LBB29:
 301:D:/fchai/work/i-cube/I-CUBE-HUAWEI/Middlewares/Third_Party/Huawei/iot_link/os/osal\osal.c **** 
 1155              		.loc 1 301 5 view .LVU295
 303:D:/fchai/work/i-cube/I-CUBE-HUAWEI/Middlewares/Third_Party/Huawei/iot_link/os/osal\osal.c ****     {
 1156              		.loc 1 303 5 view .LVU296
ARM GAS  T:\msys\tmp\ccZZee3I.s 			page 27


 1157              	.LBE29:
 1158              	.LBE28:
 323:D:/fchai/work/i-cube/I-CUBE-HUAWEI/Middlewares/Third_Party/Huawei/iot_link/os/osal\osal.c ****     unsigned long long now = osal_sys_time();
 1159              		.loc 1 323 1 is_stmt 0 view .LVU297
 1160 0000 38B5     		push	{r3, r4, r5, lr}
 1161              	.LCFI7:
 1162              		.cfi_def_cfa_offset 16
 1163              		.cfi_offset 3, -16
 1164              		.cfi_offset 4, -12
 1165              		.cfi_offset 5, -8
 1166              		.cfi_offset 14, -4
 1167              	.LBB35:
 1168              	.LBB30:
 303:D:/fchai/work/i-cube/I-CUBE-HUAWEI/Middlewares/Third_Party/Huawei/iot_link/os/osal\osal.c ****     {
 1169              		.loc 1 303 14 view .LVU298
 1170 0002 0D4B     		ldr	r3, .L224
 1171 0004 1B68     		ldr	r3, [r3]
 1172              	.LBE30:
 1173              	.LBE35:
 323:D:/fchai/work/i-cube/I-CUBE-HUAWEI/Middlewares/Third_Party/Huawei/iot_link/os/osal\osal.c ****     unsigned long long now = osal_sys_time();
 1174              		.loc 1 323 1 view .LVU299
 1175 0006 0446     		mov	r4, r0
 1176 0008 0D46     		mov	r5, r1
 1177              	.LBB36:
 1178              	.LBB31:
 303:D:/fchai/work/i-cube/I-CUBE-HUAWEI/Middlewares/Third_Party/Huawei/iot_link/os/osal\osal.c ****     {
 1179              		.loc 1 303 7 view .LVU300
 1180 000a 63B1     		cbz	r3, .L222
 303:D:/fchai/work/i-cube/I-CUBE-HUAWEI/Middlewares/Third_Party/Huawei/iot_link/os/osal\osal.c ****     {
 1181              		.loc 1 303 44 view .LVU301
 1182 000c 5B68     		ldr	r3, [r3, #4]
 303:D:/fchai/work/i-cube/I-CUBE-HUAWEI/Middlewares/Third_Party/Huawei/iot_link/os/osal\osal.c ****     {
 1183              		.loc 1 303 26 view .LVU302
 1184 000e 53B1     		cbz	r3, .L222
 303:D:/fchai/work/i-cube/I-CUBE-HUAWEI/Middlewares/Third_Party/Huawei/iot_link/os/osal\osal.c ****     {
 1185              		.loc 1 303 74 view .LVU303
 1186 0010 DB6C     		ldr	r3, [r3, #76]
 303:D:/fchai/work/i-cube/I-CUBE-HUAWEI/Middlewares/Third_Party/Huawei/iot_link/os/osal\osal.c ****     {
 1187              		.loc 1 303 51 view .LVU304
 1188 0012 43B1     		cbz	r3, .L222
 305:D:/fchai/work/i-cube/I-CUBE-HUAWEI/Middlewares/Third_Party/Huawei/iot_link/os/osal\osal.c ****     }
 1189              		.loc 1 305 9 is_stmt 1 view .LVU305
 305:D:/fchai/work/i-cube/I-CUBE-HUAWEI/Middlewares/Third_Party/Huawei/iot_link/os/osal\osal.c ****     }
 1190              		.loc 1 305 15 is_stmt 0 view .LVU306
 1191 0014 9847     		blx	r3
 1192              	.LVL70:
 305:D:/fchai/work/i-cube/I-CUBE-HUAWEI/Middlewares/Third_Party/Huawei/iot_link/os/osal\osal.c ****     }
 1193              		.loc 1 305 15 view .LVU307
 1194 0016 0246     		mov	r2, r0
 1195              	.LBE31:
 1196              	.LBE36:
 325:D:/fchai/work/i-cube/I-CUBE-HUAWEI/Middlewares/Third_Party/Huawei/iot_link/os/osal\osal.c ****     timer->dead_time = now + timeout;
 1197              		.loc 1 325 28 view .LVU308
 1198 0018 5219     		adds	r2, r2, r5
 1199              	.LBB37:
 1200              	.LBB32:
 305:D:/fchai/work/i-cube/I-CUBE-HUAWEI/Middlewares/Third_Party/Huawei/iot_link/os/osal\osal.c ****     }
ARM GAS  T:\msys\tmp\ccZZee3I.s 			page 28


 1201              		.loc 1 305 15 view .LVU309
 1202 001a 0B46     		mov	r3, r1
 1203              	.LVL71:
 308:D:/fchai/work/i-cube/I-CUBE-HUAWEI/Middlewares/Third_Party/Huawei/iot_link/os/osal\osal.c **** }
 1204              		.loc 1 308 5 is_stmt 1 view .LVU310
 1205              	.LBE32:
 1206              	.LBE37:
 1207              		.loc 1 325 5 view .LVU311
 1208              		.loc 1 325 28 is_stmt 0 view .LVU312
 1209 001c 43F10003 		adc	r3, r3, #0
 1210              		.loc 1 325 22 view .LVU313
 1211 0020 C4E90023 		strd	r2, [r4]
 326:D:/fchai/work/i-cube/I-CUBE-HUAWEI/Middlewares/Third_Party/Huawei/iot_link/os/osal\osal.c **** }
 1212              		.loc 1 326 1 view .LVU314
 1213 0024 38BD     		pop	{r3, r4, r5, pc}
 1214              	.LVL72:
 1215              	.L222:
 1216              	.LBB38:
 1217              	.LBB33:
 301:D:/fchai/work/i-cube/I-CUBE-HUAWEI/Middlewares/Third_Party/Huawei/iot_link/os/osal\osal.c **** 
 1218              		.loc 1 301 25 view .LVU315
 1219 0026 0022     		movs	r2, #0
 1220              	.LBE33:
 1221              	.LBE38:
 325:D:/fchai/work/i-cube/I-CUBE-HUAWEI/Middlewares/Third_Party/Huawei/iot_link/os/osal\osal.c **** }
 1222              		.loc 1 325 28 view .LVU316
 1223 0028 5219     		adds	r2, r2, r5
 1224              	.LBB39:
 1225              	.LBB34:
 301:D:/fchai/work/i-cube/I-CUBE-HUAWEI/Middlewares/Third_Party/Huawei/iot_link/os/osal\osal.c **** 
 1226              		.loc 1 301 25 view .LVU317
 1227 002a 4FF00003 		mov	r3, #0
 1228              	.LVL73:
 308:D:/fchai/work/i-cube/I-CUBE-HUAWEI/Middlewares/Third_Party/Huawei/iot_link/os/osal\osal.c **** }
 1229              		.loc 1 308 5 is_stmt 1 view .LVU318
 1230              	.LBE34:
 1231              	.LBE39:
 325:D:/fchai/work/i-cube/I-CUBE-HUAWEI/Middlewares/Third_Party/Huawei/iot_link/os/osal\osal.c **** }
 1232              		.loc 1 325 5 view .LVU319
 325:D:/fchai/work/i-cube/I-CUBE-HUAWEI/Middlewares/Third_Party/Huawei/iot_link/os/osal\osal.c **** }
 1233              		.loc 1 325 28 is_stmt 0 view .LVU320
 1234 002e 43F10003 		adc	r3, r3, #0
 325:D:/fchai/work/i-cube/I-CUBE-HUAWEI/Middlewares/Third_Party/Huawei/iot_link/os/osal\osal.c **** }
 1235              		.loc 1 325 22 view .LVU321
 1236 0032 C4E90023 		strd	r2, [r4]
 1237              		.loc 1 326 1 view .LVU322
 1238 0036 38BD     		pop	{r3, r4, r5, pc}
 1239              	.L225:
 1240              		.align	2
 1241              	.L224:
 1242 0038 00000000 		.word	.LANCHOR0
 1243              		.cfi_endproc
 1244              	.LFE24:
 1246              		.section	.text.osal_loop_timer_count_down,"ax",%progbits
 1247              		.align	1
 1248              		.p2align 2,,3
 1249              		.global	osal_loop_timer_count_down
ARM GAS  T:\msys\tmp\ccZZee3I.s 			page 29


 1250              		.syntax unified
 1251              		.thumb
 1252              		.thumb_func
 1253              		.fpu fpv4-sp-d16
 1255              	osal_loop_timer_count_down:
 1256              	.LVL74:
 1257              	.LFB25:
 327:D:/fchai/work/i-cube/I-CUBE-HUAWEI/Middlewares/Third_Party/Huawei/iot_link/os/osal\osal.c **** 
 328:D:/fchai/work/i-cube/I-CUBE-HUAWEI/Middlewares/Third_Party/Huawei/iot_link/os/osal\osal.c **** 
 329:D:/fchai/work/i-cube/I-CUBE-HUAWEI/Middlewares/Third_Party/Huawei/iot_link/os/osal\osal.c **** void osal_loop_timer_count_down(osal_loop_timer_t *timer, unsigned int timeout)
 330:D:/fchai/work/i-cube/I-CUBE-HUAWEI/Middlewares/Third_Party/Huawei/iot_link/os/osal\osal.c **** {
 1258              		.loc 1 330 1 is_stmt 1 view -0
 1259              		.cfi_startproc
 1260              		@ args = 0, pretend = 0, frame = 0
 1261              		@ frame_needed = 0, uses_anonymous_args = 0
 331:D:/fchai/work/i-cube/I-CUBE-HUAWEI/Middlewares/Third_Party/Huawei/iot_link/os/osal\osal.c ****     osal_loop_timer_count_downms(timer,timeout*1000);
 1262              		.loc 1 331 5 view .LVU324
 330:D:/fchai/work/i-cube/I-CUBE-HUAWEI/Middlewares/Third_Party/Huawei/iot_link/os/osal\osal.c ****     osal_loop_timer_count_downms(timer,timeout*1000);
 1263              		.loc 1 330 1 is_stmt 0 view .LVU325
 1264 0000 38B5     		push	{r3, r4, r5, lr}
 1265              	.LCFI8:
 1266              		.cfi_def_cfa_offset 16
 1267              		.cfi_offset 3, -16
 1268              		.cfi_offset 4, -12
 1269              		.cfi_offset 5, -8
 1270              		.cfi_offset 14, -4
 1271              	.LBB40:
 1272              	.LBB41:
 1273              	.LBB42:
 1274              	.LBB43:
 303:D:/fchai/work/i-cube/I-CUBE-HUAWEI/Middlewares/Third_Party/Huawei/iot_link/os/osal\osal.c ****     {
 1275              		.loc 1 303 14 view .LVU326
 1276 0002 0F4B     		ldr	r3, .L232
 1277 0004 1B68     		ldr	r3, [r3]
 1278              	.LBE43:
 1279              	.LBE42:
 1280              	.LBE41:
 1281              	.LBE40:
 1282              		.loc 1 331 5 view .LVU327
 1283 0006 4FF47A75 		mov	r5, #1000
 330:D:/fchai/work/i-cube/I-CUBE-HUAWEI/Middlewares/Third_Party/Huawei/iot_link/os/osal\osal.c ****     osal_loop_timer_count_downms(timer,timeout*1000);
 1284              		.loc 1 330 1 view .LVU328
 1285 000a 0446     		mov	r4, r0
 1286              		.loc 1 331 5 view .LVU329
 1287 000c 05FB01F5 		mul	r5, r5, r1
 1288              	.LVL75:
 1289              	.LBB54:
 1290              	.LBI40:
 322:D:/fchai/work/i-cube/I-CUBE-HUAWEI/Middlewares/Third_Party/Huawei/iot_link/os/osal\osal.c **** {
 1291              		.loc 1 322 6 is_stmt 1 view .LVU330
 1292              	.LBB52:
 324:D:/fchai/work/i-cube/I-CUBE-HUAWEI/Middlewares/Third_Party/Huawei/iot_link/os/osal\osal.c ****     timer->dead_time = now + timeout;
 1293              		.loc 1 324 5 view .LVU331
 1294              	.LBB48:
 1295              	.LBI42:
 298:D:/fchai/work/i-cube/I-CUBE-HUAWEI/Middlewares/Third_Party/Huawei/iot_link/os/osal\osal.c **** {
 1296              		.loc 1 298 20 view .LVU332
ARM GAS  T:\msys\tmp\ccZZee3I.s 			page 30


 1297              	.LBB44:
 301:D:/fchai/work/i-cube/I-CUBE-HUAWEI/Middlewares/Third_Party/Huawei/iot_link/os/osal\osal.c **** 
 1298              		.loc 1 301 5 view .LVU333
 303:D:/fchai/work/i-cube/I-CUBE-HUAWEI/Middlewares/Third_Party/Huawei/iot_link/os/osal\osal.c ****     {
 1299              		.loc 1 303 5 view .LVU334
 303:D:/fchai/work/i-cube/I-CUBE-HUAWEI/Middlewares/Third_Party/Huawei/iot_link/os/osal\osal.c ****     {
 1300              		.loc 1 303 7 is_stmt 0 view .LVU335
 1301 0010 63B1     		cbz	r3, .L230
 303:D:/fchai/work/i-cube/I-CUBE-HUAWEI/Middlewares/Third_Party/Huawei/iot_link/os/osal\osal.c ****     {
 1302              		.loc 1 303 44 view .LVU336
 1303 0012 5B68     		ldr	r3, [r3, #4]
 303:D:/fchai/work/i-cube/I-CUBE-HUAWEI/Middlewares/Third_Party/Huawei/iot_link/os/osal\osal.c ****     {
 1304              		.loc 1 303 26 view .LVU337
 1305 0014 53B1     		cbz	r3, .L230
 303:D:/fchai/work/i-cube/I-CUBE-HUAWEI/Middlewares/Third_Party/Huawei/iot_link/os/osal\osal.c ****     {
 1306              		.loc 1 303 74 view .LVU338
 1307 0016 DB6C     		ldr	r3, [r3, #76]
 303:D:/fchai/work/i-cube/I-CUBE-HUAWEI/Middlewares/Third_Party/Huawei/iot_link/os/osal\osal.c ****     {
 1308              		.loc 1 303 51 view .LVU339
 1309 0018 43B1     		cbz	r3, .L230
 305:D:/fchai/work/i-cube/I-CUBE-HUAWEI/Middlewares/Third_Party/Huawei/iot_link/os/osal\osal.c ****     }
 1310              		.loc 1 305 9 is_stmt 1 view .LVU340
 305:D:/fchai/work/i-cube/I-CUBE-HUAWEI/Middlewares/Third_Party/Huawei/iot_link/os/osal\osal.c ****     }
 1311              		.loc 1 305 15 is_stmt 0 view .LVU341
 1312 001a 9847     		blx	r3
 1313              	.LVL76:
 305:D:/fchai/work/i-cube/I-CUBE-HUAWEI/Middlewares/Third_Party/Huawei/iot_link/os/osal\osal.c ****     }
 1314              		.loc 1 305 15 view .LVU342
 1315 001c 0246     		mov	r2, r0
 1316              	.LBE44:
 1317              	.LBE48:
 325:D:/fchai/work/i-cube/I-CUBE-HUAWEI/Middlewares/Third_Party/Huawei/iot_link/os/osal\osal.c **** }
 1318              		.loc 1 325 28 view .LVU343
 1319 001e 5219     		adds	r2, r2, r5
 1320              	.LBB49:
 1321              	.LBB45:
 305:D:/fchai/work/i-cube/I-CUBE-HUAWEI/Middlewares/Third_Party/Huawei/iot_link/os/osal\osal.c ****     }
 1322              		.loc 1 305 15 view .LVU344
 1323 0020 0B46     		mov	r3, r1
 1324              	.LVL77:
 308:D:/fchai/work/i-cube/I-CUBE-HUAWEI/Middlewares/Third_Party/Huawei/iot_link/os/osal\osal.c **** }
 1325              		.loc 1 308 5 is_stmt 1 view .LVU345
 1326              	.LBE45:
 1327              	.LBE49:
 325:D:/fchai/work/i-cube/I-CUBE-HUAWEI/Middlewares/Third_Party/Huawei/iot_link/os/osal\osal.c **** }
 1328              		.loc 1 325 5 view .LVU346
 325:D:/fchai/work/i-cube/I-CUBE-HUAWEI/Middlewares/Third_Party/Huawei/iot_link/os/osal\osal.c **** }
 1329              		.loc 1 325 28 is_stmt 0 view .LVU347
 1330 0022 43F10003 		adc	r3, r3, #0
 325:D:/fchai/work/i-cube/I-CUBE-HUAWEI/Middlewares/Third_Party/Huawei/iot_link/os/osal\osal.c **** }
 1331              		.loc 1 325 22 view .LVU348
 1332 0026 C4E90023 		strd	r2, [r4]
 1333              	.LVL78:
 325:D:/fchai/work/i-cube/I-CUBE-HUAWEI/Middlewares/Third_Party/Huawei/iot_link/os/osal\osal.c **** }
 1334              		.loc 1 325 22 view .LVU349
 1335              	.LBE52:
 1336              	.LBE54:
ARM GAS  T:\msys\tmp\ccZZee3I.s 			page 31


 332:D:/fchai/work/i-cube/I-CUBE-HUAWEI/Middlewares/Third_Party/Huawei/iot_link/os/osal\osal.c **** }
 1337              		.loc 1 332 1 view .LVU350
 1338 002a 38BD     		pop	{r3, r4, r5, pc}
 1339              	.LVL79:
 1340              	.L230:
 1341              	.LBB55:
 1342              	.LBB53:
 1343              	.LBB50:
 1344              	.LBB46:
 301:D:/fchai/work/i-cube/I-CUBE-HUAWEI/Middlewares/Third_Party/Huawei/iot_link/os/osal\osal.c **** 
 1345              		.loc 1 301 25 view .LVU351
 1346 002c 0022     		movs	r2, #0
 1347              	.LBE46:
 1348              	.LBE50:
 325:D:/fchai/work/i-cube/I-CUBE-HUAWEI/Middlewares/Third_Party/Huawei/iot_link/os/osal\osal.c **** }
 1349              		.loc 1 325 28 view .LVU352
 1350 002e 5219     		adds	r2, r2, r5
 1351              	.LBB51:
 1352              	.LBB47:
 301:D:/fchai/work/i-cube/I-CUBE-HUAWEI/Middlewares/Third_Party/Huawei/iot_link/os/osal\osal.c **** 
 1353              		.loc 1 301 25 view .LVU353
 1354 0030 4FF00003 		mov	r3, #0
 1355              	.LVL80:
 308:D:/fchai/work/i-cube/I-CUBE-HUAWEI/Middlewares/Third_Party/Huawei/iot_link/os/osal\osal.c **** }
 1356              		.loc 1 308 5 is_stmt 1 view .LVU354
 1357              	.LBE47:
 1358              	.LBE51:
 325:D:/fchai/work/i-cube/I-CUBE-HUAWEI/Middlewares/Third_Party/Huawei/iot_link/os/osal\osal.c **** }
 1359              		.loc 1 325 5 view .LVU355
 325:D:/fchai/work/i-cube/I-CUBE-HUAWEI/Middlewares/Third_Party/Huawei/iot_link/os/osal\osal.c **** }
 1360              		.loc 1 325 28 is_stmt 0 view .LVU356
 1361 0034 43F10003 		adc	r3, r3, #0
 325:D:/fchai/work/i-cube/I-CUBE-HUAWEI/Middlewares/Third_Party/Huawei/iot_link/os/osal\osal.c **** }
 1362              		.loc 1 325 22 view .LVU357
 1363 0038 C4E90023 		strd	r2, [r4]
 1364              	.LVL81:
 325:D:/fchai/work/i-cube/I-CUBE-HUAWEI/Middlewares/Third_Party/Huawei/iot_link/os/osal\osal.c **** }
 1365              		.loc 1 325 22 view .LVU358
 1366              	.LBE53:
 1367              	.LBE55:
 1368              		.loc 1 332 1 view .LVU359
 1369 003c 38BD     		pop	{r3, r4, r5, pc}
 1370              	.L233:
 1371 003e 00BF     		.align	2
 1372              	.L232:
 1373 0040 00000000 		.word	.LANCHOR0
 1374              		.cfi_endproc
 1375              	.LFE25:
 1377              		.section	.text.osal_loop_timer_left,"ax",%progbits
 1378              		.align	1
 1379              		.p2align 2,,3
 1380              		.global	osal_loop_timer_left
 1381              		.syntax unified
 1382              		.thumb
 1383              		.thumb_func
 1384              		.fpu fpv4-sp-d16
 1386              	osal_loop_timer_left:
ARM GAS  T:\msys\tmp\ccZZee3I.s 			page 32


 1387              	.LVL82:
 1388              	.LFB26:
 333:D:/fchai/work/i-cube/I-CUBE-HUAWEI/Middlewares/Third_Party/Huawei/iot_link/os/osal\osal.c **** 
 334:D:/fchai/work/i-cube/I-CUBE-HUAWEI/Middlewares/Third_Party/Huawei/iot_link/os/osal\osal.c **** int osal_loop_timer_left(osal_loop_timer_t *timer)
 335:D:/fchai/work/i-cube/I-CUBE-HUAWEI/Middlewares/Third_Party/Huawei/iot_link/os/osal\osal.c **** {
 1389              		.loc 1 335 1 is_stmt 1 view -0
 1390              		.cfi_startproc
 1391              		@ args = 0, pretend = 0, frame = 0
 1392              		@ frame_needed = 0, uses_anonymous_args = 0
 336:D:/fchai/work/i-cube/I-CUBE-HUAWEI/Middlewares/Third_Party/Huawei/iot_link/os/osal\osal.c ****     unsigned long long now = osal_sys_time();
 1393              		.loc 1 336 5 view .LVU361
 1394              	.LBB56:
 1395              	.LBI56:
 298:D:/fchai/work/i-cube/I-CUBE-HUAWEI/Middlewares/Third_Party/Huawei/iot_link/os/osal\osal.c **** {
 1396              		.loc 1 298 20 view .LVU362
 1397              	.LBB57:
 301:D:/fchai/work/i-cube/I-CUBE-HUAWEI/Middlewares/Third_Party/Huawei/iot_link/os/osal\osal.c **** 
 1398              		.loc 1 301 5 view .LVU363
 303:D:/fchai/work/i-cube/I-CUBE-HUAWEI/Middlewares/Third_Party/Huawei/iot_link/os/osal\osal.c ****     {
 1399              		.loc 1 303 5 view .LVU364
 303:D:/fchai/work/i-cube/I-CUBE-HUAWEI/Middlewares/Third_Party/Huawei/iot_link/os/osal\osal.c ****     {
 1400              		.loc 1 303 14 is_stmt 0 view .LVU365
 1401 0000 0B4B     		ldr	r3, .L242
 1402 0002 1B68     		ldr	r3, [r3]
 1403              	.LBE57:
 1404              	.LBE56:
 335:D:/fchai/work/i-cube/I-CUBE-HUAWEI/Middlewares/Third_Party/Huawei/iot_link/os/osal\osal.c ****     unsigned long long now = osal_sys_time();
 1405              		.loc 1 335 1 view .LVU366
 1406 0004 10B5     		push	{r4, lr}
 1407              	.LCFI9:
 1408              		.cfi_def_cfa_offset 8
 1409              		.cfi_offset 4, -8
 1410              		.cfi_offset 14, -4
 335:D:/fchai/work/i-cube/I-CUBE-HUAWEI/Middlewares/Third_Party/Huawei/iot_link/os/osal\osal.c ****     unsigned long long now = osal_sys_time();
 1411              		.loc 1 335 1 view .LVU367
 1412 0006 0446     		mov	r4, r0
 1413              	.LBB59:
 1414              	.LBB58:
 303:D:/fchai/work/i-cube/I-CUBE-HUAWEI/Middlewares/Third_Party/Huawei/iot_link/os/osal\osal.c ****     {
 1415              		.loc 1 303 7 view .LVU368
 1416 0008 3BB1     		cbz	r3, .L239
 303:D:/fchai/work/i-cube/I-CUBE-HUAWEI/Middlewares/Third_Party/Huawei/iot_link/os/osal\osal.c ****     {
 1417              		.loc 1 303 44 view .LVU369
 1418 000a 5B68     		ldr	r3, [r3, #4]
 303:D:/fchai/work/i-cube/I-CUBE-HUAWEI/Middlewares/Third_Party/Huawei/iot_link/os/osal\osal.c ****     {
 1419              		.loc 1 303 26 view .LVU370
 1420 000c 2BB1     		cbz	r3, .L239
 303:D:/fchai/work/i-cube/I-CUBE-HUAWEI/Middlewares/Third_Party/Huawei/iot_link/os/osal\osal.c ****     {
 1421              		.loc 1 303 74 view .LVU371
 1422 000e DB6C     		ldr	r3, [r3, #76]
 303:D:/fchai/work/i-cube/I-CUBE-HUAWEI/Middlewares/Third_Party/Huawei/iot_link/os/osal\osal.c ****     {
 1423              		.loc 1 303 51 view .LVU372
 1424 0010 1BB1     		cbz	r3, .L239
 305:D:/fchai/work/i-cube/I-CUBE-HUAWEI/Middlewares/Third_Party/Huawei/iot_link/os/osal\osal.c ****     }
 1425              		.loc 1 305 9 is_stmt 1 view .LVU373
 305:D:/fchai/work/i-cube/I-CUBE-HUAWEI/Middlewares/Third_Party/Huawei/iot_link/os/osal\osal.c ****     }
 1426              		.loc 1 305 15 is_stmt 0 view .LVU374
ARM GAS  T:\msys\tmp\ccZZee3I.s 			page 33


 1427 0012 9847     		blx	r3
 1428              	.LVL83:
 305:D:/fchai/work/i-cube/I-CUBE-HUAWEI/Middlewares/Third_Party/Huawei/iot_link/os/osal\osal.c ****     }
 1429              		.loc 1 305 15 view .LVU375
 1430 0014 0246     		mov	r2, r0
 1431 0016 0B46     		mov	r3, r1
 1432              	.LVL84:
 305:D:/fchai/work/i-cube/I-CUBE-HUAWEI/Middlewares/Third_Party/Huawei/iot_link/os/osal\osal.c ****     }
 1433              		.loc 1 305 15 view .LVU376
 1434 0018 01E0     		b	.L235
 1435              	.LVL85:
 1436              	.L239:
 301:D:/fchai/work/i-cube/I-CUBE-HUAWEI/Middlewares/Third_Party/Huawei/iot_link/os/osal\osal.c **** 
 1437              		.loc 1 301 25 view .LVU377
 1438 001a 0022     		movs	r2, #0
 1439 001c 0023     		movs	r3, #0
 1440              	.LVL86:
 1441              	.L235:
 308:D:/fchai/work/i-cube/I-CUBE-HUAWEI/Middlewares/Third_Party/Huawei/iot_link/os/osal\osal.c **** }
 1442              		.loc 1 308 5 is_stmt 1 view .LVU378
 308:D:/fchai/work/i-cube/I-CUBE-HUAWEI/Middlewares/Third_Party/Huawei/iot_link/os/osal\osal.c **** }
 1443              		.loc 1 308 5 is_stmt 0 view .LVU379
 1444              	.LBE58:
 1445              	.LBE59:
 337:D:/fchai/work/i-cube/I-CUBE-HUAWEI/Middlewares/Third_Party/Huawei/iot_link/os/osal\osal.c ****     return timer->dead_time <= now ? 0 : timer->dead_time - now;
 1446              		.loc 1 337 5 is_stmt 1 view .LVU380
 1447              		.loc 1 337 17 is_stmt 0 view .LVU381
 1448 001e D4E90001 		ldrd	r0, [r4]
 1449              		.loc 1 337 40 view .LVU382
 1450 0022 8B42     		cmp	r3, r1
 1451 0024 08BF     		it	eq
 1452 0026 8242     		cmpeq	r2, r0
 1453              		.loc 1 337 59 view .LVU383
 1454 0028 34BF     		ite	cc
 1455 002a 801A     		subcc	r0, r0, r2
 1456              		.loc 1 337 40 view .LVU384
 1457 002c 0020     		movcs	r0, #0
 338:D:/fchai/work/i-cube/I-CUBE-HUAWEI/Middlewares/Third_Party/Huawei/iot_link/os/osal\osal.c **** }
 1458              		.loc 1 338 1 view .LVU385
 1459 002e 10BD     		pop	{r4, pc}
 1460              	.LVL87:
 1461              	.L243:
 1462              		.loc 1 338 1 view .LVU386
 1463              		.align	2
 1464              	.L242:
 1465 0030 00000000 		.word	.LANCHOR0
 1466              		.cfi_endproc
 1467              	.LFE26:
 1469              		.section	.text.osal_reboot,"ax",%progbits
 1470              		.align	1
 1471              		.p2align 2,,3
 1472              		.global	osal_reboot
 1473              		.syntax unified
 1474              		.thumb
 1475              		.thumb_func
 1476              		.fpu fpv4-sp-d16
 1478              	osal_reboot:
ARM GAS  T:\msys\tmp\ccZZee3I.s 			page 34


 1479              	.LFB27:
 339:D:/fchai/work/i-cube/I-CUBE-HUAWEI/Middlewares/Third_Party/Huawei/iot_link/os/osal\osal.c **** 
 340:D:/fchai/work/i-cube/I-CUBE-HUAWEI/Middlewares/Third_Party/Huawei/iot_link/os/osal\osal.c **** 
 341:D:/fchai/work/i-cube/I-CUBE-HUAWEI/Middlewares/Third_Party/Huawei/iot_link/os/osal\osal.c **** 
 342:D:/fchai/work/i-cube/I-CUBE-HUAWEI/Middlewares/Third_Party/Huawei/iot_link/os/osal\osal.c **** 
 343:D:/fchai/work/i-cube/I-CUBE-HUAWEI/Middlewares/Third_Party/Huawei/iot_link/os/osal\osal.c **** int osal_reboot()  ///< maybe we should never come back
 344:D:/fchai/work/i-cube/I-CUBE-HUAWEI/Middlewares/Third_Party/Huawei/iot_link/os/osal\osal.c **** {
 1480              		.loc 1 344 1 is_stmt 1 view -0
 1481              		.cfi_startproc
 1482              		@ args = 0, pretend = 0, frame = 0
 1483              		@ frame_needed = 0, uses_anonymous_args = 0
 1484              		@ link register save eliminated.
 345:D:/fchai/work/i-cube/I-CUBE-HUAWEI/Middlewares/Third_Party/Huawei/iot_link/os/osal\osal.c ****     int ret = -1;
 1485              		.loc 1 345 5 view .LVU388
 1486              	.LVL88:
 346:D:/fchai/work/i-cube/I-CUBE-HUAWEI/Middlewares/Third_Party/Huawei/iot_link/os/osal\osal.c **** 
 347:D:/fchai/work/i-cube/I-CUBE-HUAWEI/Middlewares/Third_Party/Huawei/iot_link/os/osal\osal.c ****     if((NULL != s_os_cb) &&(NULL != s_os_cb->ops) &&(NULL != s_os_cb->ops->reboot))
 1487              		.loc 1 347 5 view .LVU389
 1488              		.loc 1 347 14 is_stmt 0 view .LVU390
 1489 0000 054B     		ldr	r3, .L252
 1490 0002 1B68     		ldr	r3, [r3]
 1491              		.loc 1 347 7 view .LVU391
 1492 0004 23B1     		cbz	r3, .L244
 1493              		.loc 1 347 44 discriminator 1 view .LVU392
 1494 0006 5B68     		ldr	r3, [r3, #4]
 1495              		.loc 1 347 26 discriminator 1 view .LVU393
 1496 0008 13B1     		cbz	r3, .L244
 1497              		.loc 1 347 74 discriminator 2 view .LVU394
 1498 000a 1B6D     		ldr	r3, [r3, #80]
 1499              		.loc 1 347 51 discriminator 2 view .LVU395
 1500 000c 03B1     		cbz	r3, .L244
 348:D:/fchai/work/i-cube/I-CUBE-HUAWEI/Middlewares/Third_Party/Huawei/iot_link/os/osal\osal.c ****     {
 349:D:/fchai/work/i-cube/I-CUBE-HUAWEI/Middlewares/Third_Party/Huawei/iot_link/os/osal\osal.c ****         ret = s_os_cb->ops->reboot();
 1501              		.loc 1 349 9 is_stmt 1 view .LVU396
 1502              		.loc 1 349 15 is_stmt 0 view .LVU397
 1503 000e 1847     		bx	r3
 1504              	.LVL89:
 1505              	.L244:
 350:D:/fchai/work/i-cube/I-CUBE-HUAWEI/Middlewares/Third_Party/Huawei/iot_link/os/osal\osal.c ****     }
 351:D:/fchai/work/i-cube/I-CUBE-HUAWEI/Middlewares/Third_Party/Huawei/iot_link/os/osal\osal.c **** 
 352:D:/fchai/work/i-cube/I-CUBE-HUAWEI/Middlewares/Third_Party/Huawei/iot_link/os/osal\osal.c ****     return ret;
 353:D:/fchai/work/i-cube/I-CUBE-HUAWEI/Middlewares/Third_Party/Huawei/iot_link/os/osal\osal.c **** }
 1506              		.loc 1 353 1 view .LVU398
 1507 0010 4FF0FF30 		mov	r0, #-1
 1508 0014 7047     		bx	lr
 1509              	.L253:
 1510 0016 00BF     		.align	2
 1511              	.L252:
 1512 0018 00000000 		.word	.LANCHOR0
 1513              		.cfi_endproc
 1514              	.LFE27:
 1516              		.section	.text.osal_int_connect,"ax",%progbits
 1517              		.align	1
 1518              		.p2align 2,,3
 1519              		.global	osal_int_connect
 1520              		.syntax unified
 1521              		.thumb
ARM GAS  T:\msys\tmp\ccZZee3I.s 			page 35


 1522              		.thumb_func
 1523              		.fpu fpv4-sp-d16
 1525              	osal_int_connect:
 1526              	.LVL90:
 1527              	.LFB28:
 354:D:/fchai/work/i-cube/I-CUBE-HUAWEI/Middlewares/Third_Party/Huawei/iot_link/os/osal\osal.c **** 
 355:D:/fchai/work/i-cube/I-CUBE-HUAWEI/Middlewares/Third_Party/Huawei/iot_link/os/osal\osal.c **** 
 356:D:/fchai/work/i-cube/I-CUBE-HUAWEI/Middlewares/Third_Party/Huawei/iot_link/os/osal\osal.c **** 
 357:D:/fchai/work/i-cube/I-CUBE-HUAWEI/Middlewares/Third_Party/Huawei/iot_link/os/osal\osal.c **** int osal_int_connect(int intnum, int prio, int mode, fn_interrupt_handle callback, void *arg)
 358:D:/fchai/work/i-cube/I-CUBE-HUAWEI/Middlewares/Third_Party/Huawei/iot_link/os/osal\osal.c **** {
 1528              		.loc 1 358 1 is_stmt 1 view -0
 1529              		.cfi_startproc
 1530              		@ args = 4, pretend = 0, frame = 0
 1531              		@ frame_needed = 0, uses_anonymous_args = 0
 1532              		@ link register save eliminated.
 359:D:/fchai/work/i-cube/I-CUBE-HUAWEI/Middlewares/Third_Party/Huawei/iot_link/os/osal\osal.c ****     int ret = -1;
 1533              		.loc 1 359 5 view .LVU400
 360:D:/fchai/work/i-cube/I-CUBE-HUAWEI/Middlewares/Third_Party/Huawei/iot_link/os/osal\osal.c ****     if((NULL != s_os_cb) &&(NULL != s_os_cb->ops) &&(NULL != s_os_cb->ops->int_connect))
 1534              		.loc 1 360 5 view .LVU401
 358:D:/fchai/work/i-cube/I-CUBE-HUAWEI/Middlewares/Third_Party/Huawei/iot_link/os/osal\osal.c ****     int ret = -1;
 1535              		.loc 1 358 1 is_stmt 0 view .LVU402
 1536 0000 10B4     		push	{r4}
 1537              	.LCFI10:
 1538              		.cfi_def_cfa_offset 4
 1539              		.cfi_offset 4, -4
 1540              		.loc 1 360 14 view .LVU403
 1541 0002 084C     		ldr	r4, .L263
 1542 0004 2468     		ldr	r4, [r4]
 1543              		.loc 1 360 7 view .LVU404
 1544 0006 3CB1     		cbz	r4, .L254
 1545              		.loc 1 360 44 discriminator 1 view .LVU405
 1546 0008 6468     		ldr	r4, [r4, #4]
 1547              		.loc 1 360 26 discriminator 1 view .LVU406
 1548 000a 2CB1     		cbz	r4, .L254
 1549              		.loc 1 360 74 discriminator 2 view .LVU407
 1550 000c 646D     		ldr	r4, [r4, #84]
 1551              		.loc 1 360 51 discriminator 2 view .LVU408
 1552 000e 1CB1     		cbz	r4, .L254
 361:D:/fchai/work/i-cube/I-CUBE-HUAWEI/Middlewares/Third_Party/Huawei/iot_link/os/osal\osal.c ****     {
 362:D:/fchai/work/i-cube/I-CUBE-HUAWEI/Middlewares/Third_Party/Huawei/iot_link/os/osal\osal.c ****         ret = s_os_cb->ops->int_connect(intnum, prio, mode, callback, arg);
 1553              		.loc 1 362 9 is_stmt 1 view .LVU409
 1554              		.loc 1 362 15 is_stmt 0 view .LVU410
 1555 0010 A446     		mov	ip, r4
 363:D:/fchai/work/i-cube/I-CUBE-HUAWEI/Middlewares/Third_Party/Huawei/iot_link/os/osal\osal.c **** 	}
 364:D:/fchai/work/i-cube/I-CUBE-HUAWEI/Middlewares/Third_Party/Huawei/iot_link/os/osal\osal.c **** 
 365:D:/fchai/work/i-cube/I-CUBE-HUAWEI/Middlewares/Third_Party/Huawei/iot_link/os/osal\osal.c ****     return ret;
 366:D:/fchai/work/i-cube/I-CUBE-HUAWEI/Middlewares/Third_Party/Huawei/iot_link/os/osal\osal.c **** }
 1556              		.loc 1 366 1 view .LVU411
 1557 0012 5DF8044B 		ldr	r4, [sp], #4
 1558              	.LCFI11:
 1559              		.cfi_remember_state
 1560              		.cfi_restore 4
 1561              		.cfi_def_cfa_offset 0
 1562              	.LVL91:
 362:D:/fchai/work/i-cube/I-CUBE-HUAWEI/Middlewares/Third_Party/Huawei/iot_link/os/osal\osal.c **** 	}
 1563              		.loc 1 362 15 view .LVU412
 1564 0016 6047     		bx	ip
ARM GAS  T:\msys\tmp\ccZZee3I.s 			page 36


 1565              	.LVL92:
 1566              	.L254:
 1567              	.LCFI12:
 1568              		.cfi_restore_state
 1569              		.loc 1 366 1 view .LVU413
 1570 0018 4FF0FF30 		mov	r0, #-1
 1571              	.LVL93:
 1572              		.loc 1 366 1 view .LVU414
 1573 001c 5DF8044B 		ldr	r4, [sp], #4
 1574              	.LCFI13:
 1575              		.cfi_restore 4
 1576              		.cfi_def_cfa_offset 0
 1577              	.LVL94:
 1578              		.loc 1 366 1 view .LVU415
 1579 0020 7047     		bx	lr
 1580              	.L264:
 1581 0022 00BF     		.align	2
 1582              	.L263:
 1583 0024 00000000 		.word	.LANCHOR0
 1584              		.cfi_endproc
 1585              	.LFE28:
 1587              		.section	.rodata.os_imp_init.str1.4,"aMS",%progbits,1
 1588              		.align	2
 1589              	.LC0:
 1590 0000 5B25735D 		.ascii	"[%s][%u][%s] %s:###please implement this function b"
 1590      5B25755D 
 1590      5B25735D 
 1590      2025733A 
 1590      23232370 
 1591 0033 7920796F 		.ascii	"y yourself####\012\015\015\012\000"
 1591      75727365 
 1591      6C662323 
 1591      23230A0D 
 1591      0D0A00
 1592              		.section	.text.os_imp_init,"ax",%progbits
 1593              		.align	1
 1594              		.p2align 2,,3
 1595              		.weak	os_imp_init
 1596              		.syntax unified
 1597              		.thumb
 1598              		.thumb_func
 1599              		.fpu fpv4-sp-d16
 1601              	os_imp_init:
 1602              	.LFB29:
 367:D:/fchai/work/i-cube/I-CUBE-HUAWEI/Middlewares/Third_Party/Huawei/iot_link/os/osal\osal.c **** 
 368:D:/fchai/work/i-cube/I-CUBE-HUAWEI/Middlewares/Third_Party/Huawei/iot_link/os/osal\osal.c **** 
 369:D:/fchai/work/i-cube/I-CUBE-HUAWEI/Middlewares/Third_Party/Huawei/iot_link/os/osal\osal.c **** __attribute__((weak))  int os_imp_init(void)
 370:D:/fchai/work/i-cube/I-CUBE-HUAWEI/Middlewares/Third_Party/Huawei/iot_link/os/osal\osal.c **** {
 1603              		.loc 1 370 1 is_stmt 1 view -0
 1604              		.cfi_startproc
 1605              		@ args = 0, pretend = 0, frame = 0
 1606              		@ frame_needed = 0, uses_anonymous_args = 0
 371:D:/fchai/work/i-cube/I-CUBE-HUAWEI/Middlewares/Third_Party/Huawei/iot_link/os/osal\osal.c ****     LINK_LOG_DEBUG("%s:###please implement this function by yourself####\n\r",__FUNCTION__);
 1607              		.loc 1 371 5 view .LVU417
 1608              		.loc 1 371 5 view .LVU418
 370:D:/fchai/work/i-cube/I-CUBE-HUAWEI/Middlewares/Third_Party/Huawei/iot_link/os/osal\osal.c ****     LINK_LOG_DEBUG("%s:###please implement this function by yourself####\n\r",__FUNCTION__);
 1609              		.loc 1 370 1 is_stmt 0 view .LVU419
ARM GAS  T:\msys\tmp\ccZZee3I.s 			page 37


 1610 0000 10B5     		push	{r4, lr}
 1611              	.LCFI14:
 1612              		.cfi_def_cfa_offset 8
 1613              		.cfi_offset 4, -8
 1614              		.cfi_offset 14, -4
 1615 0002 82B0     		sub	sp, sp, #8
 1616              	.LCFI15:
 1617              		.cfi_def_cfa_offset 16
 1618              		.loc 1 371 5 view .LVU420
 1619 0004 FFF7FEFF 		bl	link_log_level_get
 1620              	.LVL95:
 1621 0008 0128     		cmp	r0, #1
 1622 000a 03D9     		bls	.L272
 1623              		.loc 1 371 5 is_stmt 1 discriminator 3 view .LVU421
 1624              		.loc 1 371 5 discriminator 3 view .LVU422
 1625              		.loc 1 371 5 discriminator 3 view .LVU423
 372:D:/fchai/work/i-cube/I-CUBE-HUAWEI/Middlewares/Third_Party/Huawei/iot_link/os/osal\osal.c ****     return -1;
 1626              		.loc 1 372 5 discriminator 3 view .LVU424
 373:D:/fchai/work/i-cube/I-CUBE-HUAWEI/Middlewares/Third_Party/Huawei/iot_link/os/osal\osal.c **** }
 1627              		.loc 1 373 1 is_stmt 0 discriminator 3 view .LVU425
 1628 000c 4FF0FF30 		mov	r0, #-1
 1629 0010 02B0     		add	sp, sp, #8
 1630              	.LCFI16:
 1631              		.cfi_remember_state
 1632              		.cfi_def_cfa_offset 8
 1633              		@ sp needed
 1634 0012 10BD     		pop	{r4, pc}
 1635              	.L272:
 1636              	.LCFI17:
 1637              		.cfi_restore_state
 1638              	.LBB64:
 1639              	.LBI64:
 369:D:/fchai/work/i-cube/I-CUBE-HUAWEI/Middlewares/Third_Party/Huawei/iot_link/os/osal\osal.c **** {
 1640              		.loc 1 369 28 is_stmt 1 view .LVU426
 1641              	.LBB65:
 371:D:/fchai/work/i-cube/I-CUBE-HUAWEI/Middlewares/Third_Party/Huawei/iot_link/os/osal\osal.c ****     return -1;
 1642              		.loc 1 371 5 view .LVU427
 371:D:/fchai/work/i-cube/I-CUBE-HUAWEI/Middlewares/Third_Party/Huawei/iot_link/os/osal\osal.c ****     return -1;
 1643              		.loc 1 371 5 view .LVU428
 371:D:/fchai/work/i-cube/I-CUBE-HUAWEI/Middlewares/Third_Party/Huawei/iot_link/os/osal\osal.c ****     return -1;
 1644              		.loc 1 371 5 view .LVU429
 1645 0014 0120     		movs	r0, #1
 1646 0016 FFF7FEFF 		bl	link_log_level_name
 1647              	.LVL96:
 1648              	.LBB66:
 1649              	.LBB67:
 303:D:/fchai/work/i-cube/I-CUBE-HUAWEI/Middlewares/Third_Party/Huawei/iot_link/os/osal\osal.c ****     {
 1650              		.loc 1 303 14 is_stmt 0 view .LVU430
 1651 001a 0C4B     		ldr	r3, .L273
 1652 001c 1A68     		ldr	r2, [r3]
 1653              	.LBE67:
 1654              	.LBE66:
 371:D:/fchai/work/i-cube/I-CUBE-HUAWEI/Middlewares/Third_Party/Huawei/iot_link/os/osal\osal.c ****     return -1;
 1655              		.loc 1 371 5 view .LVU431
 1656 001e 0446     		mov	r4, r0
 1657              	.LBB69:
 1658              	.LBI66:
ARM GAS  T:\msys\tmp\ccZZee3I.s 			page 38


 298:D:/fchai/work/i-cube/I-CUBE-HUAWEI/Middlewares/Third_Party/Huawei/iot_link/os/osal\osal.c **** {
 1659              		.loc 1 298 20 is_stmt 1 view .LVU432
 1660              	.LBB68:
 301:D:/fchai/work/i-cube/I-CUBE-HUAWEI/Middlewares/Third_Party/Huawei/iot_link/os/osal\osal.c **** 
 1661              		.loc 1 301 5 view .LVU433
 1662              	.LVL97:
 303:D:/fchai/work/i-cube/I-CUBE-HUAWEI/Middlewares/Third_Party/Huawei/iot_link/os/osal\osal.c ****     {
 1663              		.loc 1 303 5 view .LVU434
 303:D:/fchai/work/i-cube/I-CUBE-HUAWEI/Middlewares/Third_Party/Huawei/iot_link/os/osal\osal.c ****     {
 1664              		.loc 1 303 7 is_stmt 0 view .LVU435
 1665 0020 2AB1     		cbz	r2, .L267
 303:D:/fchai/work/i-cube/I-CUBE-HUAWEI/Middlewares/Third_Party/Huawei/iot_link/os/osal\osal.c ****     {
 1666              		.loc 1 303 44 view .LVU436
 1667 0022 5268     		ldr	r2, [r2, #4]
 303:D:/fchai/work/i-cube/I-CUBE-HUAWEI/Middlewares/Third_Party/Huawei/iot_link/os/osal\osal.c ****     {
 1668              		.loc 1 303 26 view .LVU437
 1669 0024 1AB1     		cbz	r2, .L267
 303:D:/fchai/work/i-cube/I-CUBE-HUAWEI/Middlewares/Third_Party/Huawei/iot_link/os/osal\osal.c ****     {
 1670              		.loc 1 303 74 view .LVU438
 1671 0026 D26C     		ldr	r2, [r2, #76]
 303:D:/fchai/work/i-cube/I-CUBE-HUAWEI/Middlewares/Third_Party/Huawei/iot_link/os/osal\osal.c ****     {
 1672              		.loc 1 303 51 view .LVU439
 1673 0028 0AB1     		cbz	r2, .L267
 305:D:/fchai/work/i-cube/I-CUBE-HUAWEI/Middlewares/Third_Party/Huawei/iot_link/os/osal\osal.c ****     }
 1674              		.loc 1 305 9 is_stmt 1 view .LVU440
 305:D:/fchai/work/i-cube/I-CUBE-HUAWEI/Middlewares/Third_Party/Huawei/iot_link/os/osal\osal.c ****     }
 1675              		.loc 1 305 15 is_stmt 0 view .LVU441
 1676 002a 9047     		blx	r2
 1677              	.LVL98:
 1678 002c 0246     		mov	r2, r0
 1679              	.LVL99:
 1680              	.L267:
 308:D:/fchai/work/i-cube/I-CUBE-HUAWEI/Middlewares/Third_Party/Huawei/iot_link/os/osal\osal.c **** }
 1681              		.loc 1 308 5 is_stmt 1 view .LVU442
 1682              	.LBE68:
 1683              	.LBE69:
 371:D:/fchai/work/i-cube/I-CUBE-HUAWEI/Middlewares/Third_Party/Huawei/iot_link/os/osal\osal.c ****     return -1;
 1684              		.loc 1 371 5 is_stmt 0 view .LVU443
 1685 002e 084B     		ldr	r3, .L273+4
 1686 0030 0093     		str	r3, [sp]
 1687 0032 2146     		mov	r1, r4
 1688 0034 0748     		ldr	r0, .L273+8
 1689 0036 FFF7FEFF 		bl	printf
 1690              	.LVL100:
 371:D:/fchai/work/i-cube/I-CUBE-HUAWEI/Middlewares/Third_Party/Huawei/iot_link/os/osal\osal.c ****     return -1;
 1691              		.loc 1 371 5 is_stmt 1 view .LVU444
 1692 003a 074B     		ldr	r3, .L273+12
 1693 003c 1B68     		ldr	r3, [r3]
 1694 003e 9868     		ldr	r0, [r3, #8]
 1695 0040 FFF7FEFF 		bl	fflush
 1696              	.LVL101:
 1697              	.LBE65:
 1698              	.LBE64:
 371:D:/fchai/work/i-cube/I-CUBE-HUAWEI/Middlewares/Third_Party/Huawei/iot_link/os/osal\osal.c ****     return -1;
 1699              		.loc 1 371 5 view .LVU445
 371:D:/fchai/work/i-cube/I-CUBE-HUAWEI/Middlewares/Third_Party/Huawei/iot_link/os/osal\osal.c ****     return -1;
 1700              		.loc 1 371 5 view .LVU446
ARM GAS  T:\msys\tmp\ccZZee3I.s 			page 39


 371:D:/fchai/work/i-cube/I-CUBE-HUAWEI/Middlewares/Third_Party/Huawei/iot_link/os/osal\osal.c ****     return -1;
 1701              		.loc 1 371 5 view .LVU447
 372:D:/fchai/work/i-cube/I-CUBE-HUAWEI/Middlewares/Third_Party/Huawei/iot_link/os/osal\osal.c **** }
 1702              		.loc 1 372 5 view .LVU448
 1703              		.loc 1 373 1 is_stmt 0 view .LVU449
 1704 0044 4FF0FF30 		mov	r0, #-1
 1705 0048 02B0     		add	sp, sp, #8
 1706              	.LCFI18:
 1707              		.cfi_def_cfa_offset 8
 1708              		@ sp needed
 1709 004a 10BD     		pop	{r4, pc}
 1710              	.L274:
 1711              		.align	2
 1712              	.L273:
 1713 004c 00000000 		.word	.LANCHOR0
 1714 0050 00000000 		.word	.LANCHOR1
 1715 0054 00000000 		.word	.LC0
 1716 0058 00000000 		.word	_impure_ptr
 1717              		.cfi_endproc
 1718              	.LFE29:
 1720              		.section	.text.osal_init,"ax",%progbits
 1721              		.align	1
 1722              		.p2align 2,,3
 1723              		.global	osal_init
 1724              		.syntax unified
 1725              		.thumb
 1726              		.thumb_func
 1727              		.fpu fpv4-sp-d16
 1729              	osal_init:
 1730              	.LFB30:
 374:D:/fchai/work/i-cube/I-CUBE-HUAWEI/Middlewares/Third_Party/Huawei/iot_link/os/osal\osal.c **** 
 375:D:/fchai/work/i-cube/I-CUBE-HUAWEI/Middlewares/Third_Party/Huawei/iot_link/os/osal\osal.c **** int osal_init(void)
 376:D:/fchai/work/i-cube/I-CUBE-HUAWEI/Middlewares/Third_Party/Huawei/iot_link/os/osal\osal.c **** {
 1731              		.loc 1 376 1 is_stmt 1 view -0
 1732              		.cfi_startproc
 1733              		@ args = 0, pretend = 0, frame = 0
 1734              		@ frame_needed = 0, uses_anonymous_args = 0
 377:D:/fchai/work/i-cube/I-CUBE-HUAWEI/Middlewares/Third_Party/Huawei/iot_link/os/osal\osal.c ****     int ret = -1;
 1735              		.loc 1 377 5 view .LVU451
 1736              	.LVL102:
 378:D:/fchai/work/i-cube/I-CUBE-HUAWEI/Middlewares/Third_Party/Huawei/iot_link/os/osal\osal.c ****     ret = os_imp_init();
 1737              		.loc 1 378 5 view .LVU452
 376:D:/fchai/work/i-cube/I-CUBE-HUAWEI/Middlewares/Third_Party/Huawei/iot_link/os/osal\osal.c ****     int ret = -1;
 1738              		.loc 1 376 1 is_stmt 0 view .LVU453
 1739 0000 08B5     		push	{r3, lr}
 1740              	.LCFI19:
 1741              		.cfi_def_cfa_offset 8
 1742              		.cfi_offset 3, -8
 1743              		.cfi_offset 14, -4
 1744              		.loc 1 378 11 view .LVU454
 1745 0002 FFF7FEFF 		bl	os_imp_init
 1746              	.LVL103:
 379:D:/fchai/work/i-cube/I-CUBE-HUAWEI/Middlewares/Third_Party/Huawei/iot_link/os/osal\osal.c ****     return ret;
 1747              		.loc 1 379 5 is_stmt 1 view .LVU455
 380:D:/fchai/work/i-cube/I-CUBE-HUAWEI/Middlewares/Third_Party/Huawei/iot_link/os/osal\osal.c **** }
 1748              		.loc 1 380 1 is_stmt 0 view .LVU456
 1749 0006 08BD     		pop	{r3, pc}
ARM GAS  T:\msys\tmp\ccZZee3I.s 			page 40


 1750              		.cfi_endproc
 1751              	.LFE30:
 1753              		.section	.bss.s_os_cb,"aw",%nobits
 1754              		.align	2
 1755              		.set	.LANCHOR0,. + 0
 1758              	s_os_cb:
 1759 0000 00000000 		.space	4
 1760              		.section	.rodata.__FUNCTION__.7534,"a"
 1761              		.align	2
 1762              		.set	.LANCHOR1,. + 0
 1765              	__FUNCTION__.7534:
 1766 0000 6F735F69 		.ascii	"os_imp_init\000"
 1766      6D705F69 
 1766      6E697400 
 1767              		.text
 1768              	.Letext0:
 1769              		.file 2 "t:\\msys\\3rd\\gcc-arm-none-eabi-9-2020-q2-update-win32\\lib\\gcc\\arm-none-eabi\\9.3.1\\
 1770              		.file 3 "t:\\msys\\3rd\\gcc-arm-none-eabi-9-2020-q2-update-win32\\arm-none-eabi\\include\\sys\\_ty
 1771              		.file 4 "t:\\msys\\3rd\\gcc-arm-none-eabi-9-2020-q2-update-win32\\arm-none-eabi\\include\\sys\\ree
 1772              		.file 5 "t:\\msys\\3rd\\gcc-arm-none-eabi-9-2020-q2-update-win32\\arm-none-eabi\\include\\sys\\loc
 1773              		.file 6 "t:\\msys\\3rd\\gcc-arm-none-eabi-9-2020-q2-update-win32\\arm-none-eabi\\include\\stdlib.h
 1774              		.file 7 "D:/fchai/work/i-cube/I-CUBE-HUAWEI/Middlewares/Third_Party/Huawei/iot_link/os/osal/osal_t
 1775              		.file 8 "D:/fchai/work/i-cube/I-CUBE-HUAWEI/Middlewares/Third_Party/Huawei/iot_link/os/osal/osal_i
 1776              		.file 9 "<built-in>"
 1777              		.file 10 "D:/fchai/work/i-cube/I-CUBE-HUAWEI/Middlewares/Third_Party/Huawei/iot_link/inc/link_log.
 1778              		.file 11 "t:\\msys\\3rd\\gcc-arm-none-eabi-9-2020-q2-update-win32\\arm-none-eabi\\include\\stdio.h
ARM GAS  T:\msys\tmp\ccZZee3I.s 			page 41

