ARM GAS  T:\msys\tmp\ccye0a00.s 			page 1


   1              		.cpu cortex-m4
   2              		.eabi_attribute 27, 1
   3              		.eabi_attribute 28, 1
   4              		.eabi_attribute 20, 1
   5              		.eabi_attribute 21, 1
   6              		.eabi_attribute 23, 3
   7              		.eabi_attribute 24, 1
   8              		.eabi_attribute 25, 1
   9              		.eabi_attribute 26, 1
  10              		.eabi_attribute 30, 2
  11              		.eabi_attribute 34, 1
  12              		.eabi_attribute 18, 4
  13              		.file	"lis2dw12_reg.c"
  14              		.text
  15              	.Ltext0:
  16              		.cfi_sections	.debug_frame
  17              		.section	.text.lis2dw12_read_reg,"ax",%progbits
  18              		.align	1
  19              		.p2align 2,,3
  20              		.global	lis2dw12_read_reg
  21              		.arch armv7e-m
  22              		.syntax unified
  23              		.thumb
  24              		.thumb_func
  25              		.fpu fpv4-sp-d16
  27              	lis2dw12_read_reg:
  28              	.LVL0:
  29              	.LFB0:
  30              		.file 1 "D:/fchai/work/i-cube/I-CUBE-HUAWEI/Drivers/BSP/Components/lis2dw12/lis2dw12_reg.c"
   1:D:/fchai/work/i-cube/I-CUBE-HUAWEI/Drivers/BSP/Components/lis2dw12\lis2dw12_reg.c **** /*
   2:D:/fchai/work/i-cube/I-CUBE-HUAWEI/Drivers/BSP/Components/lis2dw12\lis2dw12_reg.c ****  ******************************************************************************
   3:D:/fchai/work/i-cube/I-CUBE-HUAWEI/Drivers/BSP/Components/lis2dw12\lis2dw12_reg.c ****  * @file    lis2dw12_reg.c
   4:D:/fchai/work/i-cube/I-CUBE-HUAWEI/Drivers/BSP/Components/lis2dw12\lis2dw12_reg.c ****  * @author  Sensors Software Solution Team
   5:D:/fchai/work/i-cube/I-CUBE-HUAWEI/Drivers/BSP/Components/lis2dw12\lis2dw12_reg.c ****  * @brief   LIS2DW12 driver file
   6:D:/fchai/work/i-cube/I-CUBE-HUAWEI/Drivers/BSP/Components/lis2dw12\lis2dw12_reg.c ****  ******************************************************************************
   7:D:/fchai/work/i-cube/I-CUBE-HUAWEI/Drivers/BSP/Components/lis2dw12\lis2dw12_reg.c ****  * @attention
   8:D:/fchai/work/i-cube/I-CUBE-HUAWEI/Drivers/BSP/Components/lis2dw12\lis2dw12_reg.c ****  *
   9:D:/fchai/work/i-cube/I-CUBE-HUAWEI/Drivers/BSP/Components/lis2dw12\lis2dw12_reg.c ****  * <h2><center>&copy; Copyright (c) 2019 STMicroelectronics.
  10:D:/fchai/work/i-cube/I-CUBE-HUAWEI/Drivers/BSP/Components/lis2dw12\lis2dw12_reg.c ****  * All rights reserved.</center></h2>
  11:D:/fchai/work/i-cube/I-CUBE-HUAWEI/Drivers/BSP/Components/lis2dw12\lis2dw12_reg.c ****  *
  12:D:/fchai/work/i-cube/I-CUBE-HUAWEI/Drivers/BSP/Components/lis2dw12\lis2dw12_reg.c ****  * This software component is licensed by ST under BSD 3-Clause license,
  13:D:/fchai/work/i-cube/I-CUBE-HUAWEI/Drivers/BSP/Components/lis2dw12\lis2dw12_reg.c ****  * the "License"; You may not use this file except in compliance with the
  14:D:/fchai/work/i-cube/I-CUBE-HUAWEI/Drivers/BSP/Components/lis2dw12\lis2dw12_reg.c ****  * License. You may obtain a copy of the License at:
  15:D:/fchai/work/i-cube/I-CUBE-HUAWEI/Drivers/BSP/Components/lis2dw12\lis2dw12_reg.c ****  *                        opensource.org/licenses/BSD-3-Clause
  16:D:/fchai/work/i-cube/I-CUBE-HUAWEI/Drivers/BSP/Components/lis2dw12\lis2dw12_reg.c ****  *
  17:D:/fchai/work/i-cube/I-CUBE-HUAWEI/Drivers/BSP/Components/lis2dw12\lis2dw12_reg.c ****  ******************************************************************************
  18:D:/fchai/work/i-cube/I-CUBE-HUAWEI/Drivers/BSP/Components/lis2dw12\lis2dw12_reg.c ****  */
  19:D:/fchai/work/i-cube/I-CUBE-HUAWEI/Drivers/BSP/Components/lis2dw12\lis2dw12_reg.c **** 
  20:D:/fchai/work/i-cube/I-CUBE-HUAWEI/Drivers/BSP/Components/lis2dw12\lis2dw12_reg.c **** #include "lis2dw12_reg.h"
  21:D:/fchai/work/i-cube/I-CUBE-HUAWEI/Drivers/BSP/Components/lis2dw12\lis2dw12_reg.c **** 
  22:D:/fchai/work/i-cube/I-CUBE-HUAWEI/Drivers/BSP/Components/lis2dw12\lis2dw12_reg.c **** /**
  23:D:/fchai/work/i-cube/I-CUBE-HUAWEI/Drivers/BSP/Components/lis2dw12\lis2dw12_reg.c ****   * @defgroup  LIS2DW12
  24:D:/fchai/work/i-cube/I-CUBE-HUAWEI/Drivers/BSP/Components/lis2dw12\lis2dw12_reg.c ****   * @brief     This file provides a set of functions needed to drive the
  25:D:/fchai/work/i-cube/I-CUBE-HUAWEI/Drivers/BSP/Components/lis2dw12\lis2dw12_reg.c ****   *            lis2dw12 enhanced inertial module.
  26:D:/fchai/work/i-cube/I-CUBE-HUAWEI/Drivers/BSP/Components/lis2dw12\lis2dw12_reg.c ****   * @{
  27:D:/fchai/work/i-cube/I-CUBE-HUAWEI/Drivers/BSP/Components/lis2dw12\lis2dw12_reg.c ****   *
  28:D:/fchai/work/i-cube/I-CUBE-HUAWEI/Drivers/BSP/Components/lis2dw12\lis2dw12_reg.c ****   */
ARM GAS  T:\msys\tmp\ccye0a00.s 			page 2


  29:D:/fchai/work/i-cube/I-CUBE-HUAWEI/Drivers/BSP/Components/lis2dw12\lis2dw12_reg.c **** 
  30:D:/fchai/work/i-cube/I-CUBE-HUAWEI/Drivers/BSP/Components/lis2dw12\lis2dw12_reg.c **** /**
  31:D:/fchai/work/i-cube/I-CUBE-HUAWEI/Drivers/BSP/Components/lis2dw12\lis2dw12_reg.c ****   * @defgroup  LIS2DW12_Interfaces_Functions
  32:D:/fchai/work/i-cube/I-CUBE-HUAWEI/Drivers/BSP/Components/lis2dw12\lis2dw12_reg.c ****   * @brief     This section provide a set of functions used to read and
  33:D:/fchai/work/i-cube/I-CUBE-HUAWEI/Drivers/BSP/Components/lis2dw12\lis2dw12_reg.c ****   *            write a generic register of the device.
  34:D:/fchai/work/i-cube/I-CUBE-HUAWEI/Drivers/BSP/Components/lis2dw12\lis2dw12_reg.c ****   *            MANDATORY: return 0 -> no Error.
  35:D:/fchai/work/i-cube/I-CUBE-HUAWEI/Drivers/BSP/Components/lis2dw12\lis2dw12_reg.c ****   * @{
  36:D:/fchai/work/i-cube/I-CUBE-HUAWEI/Drivers/BSP/Components/lis2dw12\lis2dw12_reg.c ****   *
  37:D:/fchai/work/i-cube/I-CUBE-HUAWEI/Drivers/BSP/Components/lis2dw12\lis2dw12_reg.c ****   */
  38:D:/fchai/work/i-cube/I-CUBE-HUAWEI/Drivers/BSP/Components/lis2dw12\lis2dw12_reg.c **** 
  39:D:/fchai/work/i-cube/I-CUBE-HUAWEI/Drivers/BSP/Components/lis2dw12\lis2dw12_reg.c **** /**
  40:D:/fchai/work/i-cube/I-CUBE-HUAWEI/Drivers/BSP/Components/lis2dw12\lis2dw12_reg.c ****   * @brief  Read generic device register
  41:D:/fchai/work/i-cube/I-CUBE-HUAWEI/Drivers/BSP/Components/lis2dw12\lis2dw12_reg.c ****   *
  42:D:/fchai/work/i-cube/I-CUBE-HUAWEI/Drivers/BSP/Components/lis2dw12\lis2dw12_reg.c ****   * @param  ctx   read / write interface definitions(ptr)
  43:D:/fchai/work/i-cube/I-CUBE-HUAWEI/Drivers/BSP/Components/lis2dw12\lis2dw12_reg.c ****   * @param  reg   register to read
  44:D:/fchai/work/i-cube/I-CUBE-HUAWEI/Drivers/BSP/Components/lis2dw12\lis2dw12_reg.c ****   * @param  data  pointer to buffer that store the data read(ptr)
  45:D:/fchai/work/i-cube/I-CUBE-HUAWEI/Drivers/BSP/Components/lis2dw12\lis2dw12_reg.c ****   * @param  len   number of consecutive register to read
  46:D:/fchai/work/i-cube/I-CUBE-HUAWEI/Drivers/BSP/Components/lis2dw12\lis2dw12_reg.c ****   * @retval          interface status (MANDATORY: return 0 -> no Error)
  47:D:/fchai/work/i-cube/I-CUBE-HUAWEI/Drivers/BSP/Components/lis2dw12\lis2dw12_reg.c ****   *
  48:D:/fchai/work/i-cube/I-CUBE-HUAWEI/Drivers/BSP/Components/lis2dw12\lis2dw12_reg.c ****   */
  49:D:/fchai/work/i-cube/I-CUBE-HUAWEI/Drivers/BSP/Components/lis2dw12\lis2dw12_reg.c **** int32_t lis2dw12_read_reg(stmdev_ctx_t* ctx, uint8_t reg, uint8_t* data,
  50:D:/fchai/work/i-cube/I-CUBE-HUAWEI/Drivers/BSP/Components/lis2dw12\lis2dw12_reg.c ****                           uint16_t len)
  51:D:/fchai/work/i-cube/I-CUBE-HUAWEI/Drivers/BSP/Components/lis2dw12\lis2dw12_reg.c **** {
  31              		.loc 1 51 1 view -0
  32              		.cfi_startproc
  33              		@ args = 0, pretend = 0, frame = 0
  34              		@ frame_needed = 0, uses_anonymous_args = 0
  35              		@ link register save eliminated.
  52:D:/fchai/work/i-cube/I-CUBE-HUAWEI/Drivers/BSP/Components/lis2dw12\lis2dw12_reg.c ****   int32_t ret;
  36              		.loc 1 52 3 view .LVU1
  53:D:/fchai/work/i-cube/I-CUBE-HUAWEI/Drivers/BSP/Components/lis2dw12\lis2dw12_reg.c ****   ret = ctx->read_reg(ctx->handle, reg, data, len);
  37              		.loc 1 53 3 view .LVU2
  51:D:/fchai/work/i-cube/I-CUBE-HUAWEI/Drivers/BSP/Components/lis2dw12\lis2dw12_reg.c ****   int32_t ret;
  38              		.loc 1 51 1 is_stmt 0 view .LVU3
  39 0000 10B4     		push	{r4}
  40              	.LCFI0:
  41              		.cfi_def_cfa_offset 4
  42              		.cfi_offset 4, -4
  43              		.loc 1 53 9 view .LVU4
  44 0002 D0E90140 		ldrd	r4, r0, [r0, #4]
  45              	.LVL1:
  46              		.loc 1 53 9 view .LVU5
  47 0006 A446     		mov	ip, r4
  54:D:/fchai/work/i-cube/I-CUBE-HUAWEI/Drivers/BSP/Components/lis2dw12\lis2dw12_reg.c ****   return ret;
  55:D:/fchai/work/i-cube/I-CUBE-HUAWEI/Drivers/BSP/Components/lis2dw12\lis2dw12_reg.c **** }
  48              		.loc 1 55 1 view .LVU6
  49 0008 5DF8044B 		ldr	r4, [sp], #4
  50              	.LCFI1:
  51              		.cfi_restore 4
  52              		.cfi_def_cfa_offset 0
  53:D:/fchai/work/i-cube/I-CUBE-HUAWEI/Drivers/BSP/Components/lis2dw12\lis2dw12_reg.c ****   return ret;
  53              		.loc 1 53 9 view .LVU7
  54 000c 6047     		bx	ip
  55              	.LVL2:
  53:D:/fchai/work/i-cube/I-CUBE-HUAWEI/Drivers/BSP/Components/lis2dw12\lis2dw12_reg.c ****   return ret;
  56              		.loc 1 53 9 view .LVU8
  57              		.cfi_endproc
ARM GAS  T:\msys\tmp\ccye0a00.s 			page 3


  58              	.LFE0:
  60 000e 00BF     		.section	.text.lis2dw12_write_reg,"ax",%progbits
  61              		.align	1
  62              		.p2align 2,,3
  63              		.global	lis2dw12_write_reg
  64              		.syntax unified
  65              		.thumb
  66              		.thumb_func
  67              		.fpu fpv4-sp-d16
  69              	lis2dw12_write_reg:
  70              	.LVL3:
  71              	.LFB1:
  56:D:/fchai/work/i-cube/I-CUBE-HUAWEI/Drivers/BSP/Components/lis2dw12\lis2dw12_reg.c **** 
  57:D:/fchai/work/i-cube/I-CUBE-HUAWEI/Drivers/BSP/Components/lis2dw12\lis2dw12_reg.c **** /**
  58:D:/fchai/work/i-cube/I-CUBE-HUAWEI/Drivers/BSP/Components/lis2dw12\lis2dw12_reg.c ****   * @brief  Write generic device register
  59:D:/fchai/work/i-cube/I-CUBE-HUAWEI/Drivers/BSP/Components/lis2dw12\lis2dw12_reg.c ****   *
  60:D:/fchai/work/i-cube/I-CUBE-HUAWEI/Drivers/BSP/Components/lis2dw12\lis2dw12_reg.c ****   * @param  ctx   read / write interface definitions(ptr)
  61:D:/fchai/work/i-cube/I-CUBE-HUAWEI/Drivers/BSP/Components/lis2dw12\lis2dw12_reg.c ****   * @param  reg   register to write
  62:D:/fchai/work/i-cube/I-CUBE-HUAWEI/Drivers/BSP/Components/lis2dw12\lis2dw12_reg.c ****   * @param  data  pointer to data to write in register reg(ptr)
  63:D:/fchai/work/i-cube/I-CUBE-HUAWEI/Drivers/BSP/Components/lis2dw12\lis2dw12_reg.c ****   * @param  len   number of consecutive register to write
  64:D:/fchai/work/i-cube/I-CUBE-HUAWEI/Drivers/BSP/Components/lis2dw12\lis2dw12_reg.c ****   * @retval          interface status (MANDATORY: return 0 -> no Error)
  65:D:/fchai/work/i-cube/I-CUBE-HUAWEI/Drivers/BSP/Components/lis2dw12\lis2dw12_reg.c ****   *
  66:D:/fchai/work/i-cube/I-CUBE-HUAWEI/Drivers/BSP/Components/lis2dw12\lis2dw12_reg.c ****   */
  67:D:/fchai/work/i-cube/I-CUBE-HUAWEI/Drivers/BSP/Components/lis2dw12\lis2dw12_reg.c **** int32_t lis2dw12_write_reg(stmdev_ctx_t* ctx, uint8_t reg, uint8_t* data,
  68:D:/fchai/work/i-cube/I-CUBE-HUAWEI/Drivers/BSP/Components/lis2dw12\lis2dw12_reg.c ****                            uint16_t len)
  69:D:/fchai/work/i-cube/I-CUBE-HUAWEI/Drivers/BSP/Components/lis2dw12\lis2dw12_reg.c **** {
  72              		.loc 1 69 1 is_stmt 1 view -0
  73              		.cfi_startproc
  74              		@ args = 0, pretend = 0, frame = 0
  75              		@ frame_needed = 0, uses_anonymous_args = 0
  76              		@ link register save eliminated.
  70:D:/fchai/work/i-cube/I-CUBE-HUAWEI/Drivers/BSP/Components/lis2dw12\lis2dw12_reg.c ****   int32_t ret;
  77              		.loc 1 70 3 view .LVU10
  71:D:/fchai/work/i-cube/I-CUBE-HUAWEI/Drivers/BSP/Components/lis2dw12\lis2dw12_reg.c ****   ret = ctx->write_reg(ctx->handle, reg, data, len);
  78              		.loc 1 71 3 view .LVU11
  69:D:/fchai/work/i-cube/I-CUBE-HUAWEI/Drivers/BSP/Components/lis2dw12\lis2dw12_reg.c ****   int32_t ret;
  79              		.loc 1 69 1 is_stmt 0 view .LVU12
  80 0000 10B4     		push	{r4}
  81              	.LCFI2:
  82              		.cfi_def_cfa_offset 4
  83              		.cfi_offset 4, -4
  84              		.loc 1 71 9 view .LVU13
  85 0002 0468     		ldr	r4, [r0]
  86 0004 8068     		ldr	r0, [r0, #8]
  87              	.LVL4:
  88              		.loc 1 71 9 view .LVU14
  89 0006 A446     		mov	ip, r4
  72:D:/fchai/work/i-cube/I-CUBE-HUAWEI/Drivers/BSP/Components/lis2dw12\lis2dw12_reg.c ****   return ret;
  73:D:/fchai/work/i-cube/I-CUBE-HUAWEI/Drivers/BSP/Components/lis2dw12\lis2dw12_reg.c **** }
  90              		.loc 1 73 1 view .LVU15
  91 0008 5DF8044B 		ldr	r4, [sp], #4
  92              	.LCFI3:
  93              		.cfi_restore 4
  94              		.cfi_def_cfa_offset 0
  71:D:/fchai/work/i-cube/I-CUBE-HUAWEI/Drivers/BSP/Components/lis2dw12\lis2dw12_reg.c ****   return ret;
  95              		.loc 1 71 9 view .LVU16
  96 000c 6047     		bx	ip
ARM GAS  T:\msys\tmp\ccye0a00.s 			page 4


  97              	.LVL5:
  71:D:/fchai/work/i-cube/I-CUBE-HUAWEI/Drivers/BSP/Components/lis2dw12\lis2dw12_reg.c ****   return ret;
  98              		.loc 1 71 9 view .LVU17
  99              		.cfi_endproc
 100              	.LFE1:
 102 000e 00BF     		.section	.text.lis2dw12_from_fs2_to_mg,"ax",%progbits
 103              		.align	1
 104              		.p2align 2,,3
 105              		.global	lis2dw12_from_fs2_to_mg
 106              		.syntax unified
 107              		.thumb
 108              		.thumb_func
 109              		.fpu fpv4-sp-d16
 111              	lis2dw12_from_fs2_to_mg:
 112              	.LVL6:
 113              	.LFB2:
  74:D:/fchai/work/i-cube/I-CUBE-HUAWEI/Drivers/BSP/Components/lis2dw12\lis2dw12_reg.c **** 
  75:D:/fchai/work/i-cube/I-CUBE-HUAWEI/Drivers/BSP/Components/lis2dw12\lis2dw12_reg.c **** /**
  76:D:/fchai/work/i-cube/I-CUBE-HUAWEI/Drivers/BSP/Components/lis2dw12\lis2dw12_reg.c ****   * @}
  77:D:/fchai/work/i-cube/I-CUBE-HUAWEI/Drivers/BSP/Components/lis2dw12\lis2dw12_reg.c ****   *
  78:D:/fchai/work/i-cube/I-CUBE-HUAWEI/Drivers/BSP/Components/lis2dw12\lis2dw12_reg.c ****   */
  79:D:/fchai/work/i-cube/I-CUBE-HUAWEI/Drivers/BSP/Components/lis2dw12\lis2dw12_reg.c **** 
  80:D:/fchai/work/i-cube/I-CUBE-HUAWEI/Drivers/BSP/Components/lis2dw12\lis2dw12_reg.c **** /**
  81:D:/fchai/work/i-cube/I-CUBE-HUAWEI/Drivers/BSP/Components/lis2dw12\lis2dw12_reg.c ****   * @defgroup    LIS2DW12_Sensitivity
  82:D:/fchai/work/i-cube/I-CUBE-HUAWEI/Drivers/BSP/Components/lis2dw12\lis2dw12_reg.c ****   * @brief       These functions convert raw-data into engineering units.
  83:D:/fchai/work/i-cube/I-CUBE-HUAWEI/Drivers/BSP/Components/lis2dw12\lis2dw12_reg.c ****   * @{
  84:D:/fchai/work/i-cube/I-CUBE-HUAWEI/Drivers/BSP/Components/lis2dw12\lis2dw12_reg.c ****   *
  85:D:/fchai/work/i-cube/I-CUBE-HUAWEI/Drivers/BSP/Components/lis2dw12\lis2dw12_reg.c ****   */
  86:D:/fchai/work/i-cube/I-CUBE-HUAWEI/Drivers/BSP/Components/lis2dw12\lis2dw12_reg.c **** 
  87:D:/fchai/work/i-cube/I-CUBE-HUAWEI/Drivers/BSP/Components/lis2dw12\lis2dw12_reg.c **** float_t lis2dw12_from_fs2_to_mg(int16_t lsb)
  88:D:/fchai/work/i-cube/I-CUBE-HUAWEI/Drivers/BSP/Components/lis2dw12\lis2dw12_reg.c **** {
 114              		.loc 1 88 1 is_stmt 1 view -0
 115              		.cfi_startproc
 116              		@ args = 0, pretend = 0, frame = 0
 117              		@ frame_needed = 0, uses_anonymous_args = 0
 118              		@ link register save eliminated.
  89:D:/fchai/work/i-cube/I-CUBE-HUAWEI/Drivers/BSP/Components/lis2dw12\lis2dw12_reg.c ****   return ((float_t)lsb) * 0.061f;
 119              		.loc 1 89 3 view .LVU19
 120              		.loc 1 89 11 is_stmt 0 view .LVU20
 121 0000 07EE900A 		vmov	s15, r0	@ int
 122 0004 B8EEE70A 		vcvt.f32.s32	s0, s15
 123              		.loc 1 89 25 view .LVU21
 124 0008 DFED027A 		vldr.32	s15, .L7
  90:D:/fchai/work/i-cube/I-CUBE-HUAWEI/Drivers/BSP/Components/lis2dw12\lis2dw12_reg.c **** }
 125              		.loc 1 90 1 view .LVU22
 126 000c 20EE270A 		vmul.f32	s0, s0, s15
 127 0010 7047     		bx	lr
 128              	.L8:
 129 0012 00BF     		.align	2
 130              	.L7:
 131 0014 23DB793D 		.word	1031396131
 132              		.cfi_endproc
 133              	.LFE2:
 135              		.section	.text.lis2dw12_from_fs4_to_mg,"ax",%progbits
 136              		.align	1
 137              		.p2align 2,,3
 138              		.global	lis2dw12_from_fs4_to_mg
ARM GAS  T:\msys\tmp\ccye0a00.s 			page 5


 139              		.syntax unified
 140              		.thumb
 141              		.thumb_func
 142              		.fpu fpv4-sp-d16
 144              	lis2dw12_from_fs4_to_mg:
 145              	.LVL7:
 146              	.LFB3:
  91:D:/fchai/work/i-cube/I-CUBE-HUAWEI/Drivers/BSP/Components/lis2dw12\lis2dw12_reg.c **** 
  92:D:/fchai/work/i-cube/I-CUBE-HUAWEI/Drivers/BSP/Components/lis2dw12\lis2dw12_reg.c **** float_t lis2dw12_from_fs4_to_mg(int16_t lsb)
  93:D:/fchai/work/i-cube/I-CUBE-HUAWEI/Drivers/BSP/Components/lis2dw12\lis2dw12_reg.c **** {
 147              		.loc 1 93 1 is_stmt 1 view -0
 148              		.cfi_startproc
 149              		@ args = 0, pretend = 0, frame = 0
 150              		@ frame_needed = 0, uses_anonymous_args = 0
 151              		@ link register save eliminated.
  94:D:/fchai/work/i-cube/I-CUBE-HUAWEI/Drivers/BSP/Components/lis2dw12\lis2dw12_reg.c ****   return ((float_t)lsb) * 0.122f;
 152              		.loc 1 94 3 view .LVU24
 153              		.loc 1 94 11 is_stmt 0 view .LVU25
 154 0000 07EE900A 		vmov	s15, r0	@ int
 155 0004 B8EEE70A 		vcvt.f32.s32	s0, s15
 156              		.loc 1 94 25 view .LVU26
 157 0008 DFED027A 		vldr.32	s15, .L10
  95:D:/fchai/work/i-cube/I-CUBE-HUAWEI/Drivers/BSP/Components/lis2dw12\lis2dw12_reg.c **** }
 158              		.loc 1 95 1 view .LVU27
 159 000c 20EE270A 		vmul.f32	s0, s0, s15
 160 0010 7047     		bx	lr
 161              	.L11:
 162 0012 00BF     		.align	2
 163              	.L10:
 164 0014 23DBF93D 		.word	1039784739
 165              		.cfi_endproc
 166              	.LFE3:
 168              		.section	.text.lis2dw12_from_fs8_to_mg,"ax",%progbits
 169              		.align	1
 170              		.p2align 2,,3
 171              		.global	lis2dw12_from_fs8_to_mg
 172              		.syntax unified
 173              		.thumb
 174              		.thumb_func
 175              		.fpu fpv4-sp-d16
 177              	lis2dw12_from_fs8_to_mg:
 178              	.LVL8:
 179              	.LFB4:
  96:D:/fchai/work/i-cube/I-CUBE-HUAWEI/Drivers/BSP/Components/lis2dw12\lis2dw12_reg.c **** 
  97:D:/fchai/work/i-cube/I-CUBE-HUAWEI/Drivers/BSP/Components/lis2dw12\lis2dw12_reg.c **** float_t lis2dw12_from_fs8_to_mg(int16_t lsb)
  98:D:/fchai/work/i-cube/I-CUBE-HUAWEI/Drivers/BSP/Components/lis2dw12\lis2dw12_reg.c **** {
 180              		.loc 1 98 1 is_stmt 1 view -0
 181              		.cfi_startproc
 182              		@ args = 0, pretend = 0, frame = 0
 183              		@ frame_needed = 0, uses_anonymous_args = 0
 184              		@ link register save eliminated.
  99:D:/fchai/work/i-cube/I-CUBE-HUAWEI/Drivers/BSP/Components/lis2dw12\lis2dw12_reg.c ****   return ((float_t)lsb) * 0.244f;
 185              		.loc 1 99 3 view .LVU29
 186              		.loc 1 99 11 is_stmt 0 view .LVU30
 187 0000 07EE900A 		vmov	s15, r0	@ int
 188 0004 B8EEE70A 		vcvt.f32.s32	s0, s15
 189              		.loc 1 99 25 view .LVU31
ARM GAS  T:\msys\tmp\ccye0a00.s 			page 6


 190 0008 DFED027A 		vldr.32	s15, .L13
 100:D:/fchai/work/i-cube/I-CUBE-HUAWEI/Drivers/BSP/Components/lis2dw12\lis2dw12_reg.c **** }
 191              		.loc 1 100 1 view .LVU32
 192 000c 20EE270A 		vmul.f32	s0, s0, s15
 193 0010 7047     		bx	lr
 194              	.L14:
 195 0012 00BF     		.align	2
 196              	.L13:
 197 0014 23DB793E 		.word	1048173347
 198              		.cfi_endproc
 199              	.LFE4:
 201              		.section	.text.lis2dw12_from_fs16_to_mg,"ax",%progbits
 202              		.align	1
 203              		.p2align 2,,3
 204              		.global	lis2dw12_from_fs16_to_mg
 205              		.syntax unified
 206              		.thumb
 207              		.thumb_func
 208              		.fpu fpv4-sp-d16
 210              	lis2dw12_from_fs16_to_mg:
 211              	.LVL9:
 212              	.LFB5:
 101:D:/fchai/work/i-cube/I-CUBE-HUAWEI/Drivers/BSP/Components/lis2dw12\lis2dw12_reg.c **** 
 102:D:/fchai/work/i-cube/I-CUBE-HUAWEI/Drivers/BSP/Components/lis2dw12\lis2dw12_reg.c **** float_t lis2dw12_from_fs16_to_mg(int16_t lsb)
 103:D:/fchai/work/i-cube/I-CUBE-HUAWEI/Drivers/BSP/Components/lis2dw12\lis2dw12_reg.c **** {
 213              		.loc 1 103 1 is_stmt 1 view -0
 214              		.cfi_startproc
 215              		@ args = 0, pretend = 0, frame = 0
 216              		@ frame_needed = 0, uses_anonymous_args = 0
 217              		@ link register save eliminated.
 104:D:/fchai/work/i-cube/I-CUBE-HUAWEI/Drivers/BSP/Components/lis2dw12\lis2dw12_reg.c ****   return ((float_t)lsb) *0.488f;
 218              		.loc 1 104 3 view .LVU34
 219              		.loc 1 104 11 is_stmt 0 view .LVU35
 220 0000 07EE900A 		vmov	s15, r0	@ int
 221 0004 B8EEE70A 		vcvt.f32.s32	s0, s15
 222              		.loc 1 104 25 view .LVU36
 223 0008 DFED027A 		vldr.32	s15, .L16
 105:D:/fchai/work/i-cube/I-CUBE-HUAWEI/Drivers/BSP/Components/lis2dw12\lis2dw12_reg.c **** }
 224              		.loc 1 105 1 view .LVU37
 225 000c 20EE270A 		vmul.f32	s0, s0, s15
 226 0010 7047     		bx	lr
 227              	.L17:
 228 0012 00BF     		.align	2
 229              	.L16:
 230 0014 23DBF93E 		.word	1056561955
 231              		.cfi_endproc
 232              	.LFE5:
 234              		.section	.text.lis2dw12_from_fs2_lp1_to_mg,"ax",%progbits
 235              		.align	1
 236              		.p2align 2,,3
 237              		.global	lis2dw12_from_fs2_lp1_to_mg
 238              		.syntax unified
 239              		.thumb
 240              		.thumb_func
 241              		.fpu fpv4-sp-d16
 243              	lis2dw12_from_fs2_lp1_to_mg:
 244              	.LFB119:
ARM GAS  T:\msys\tmp\ccye0a00.s 			page 7


 245              		.cfi_startproc
 246              		@ args = 0, pretend = 0, frame = 0
 247              		@ frame_needed = 0, uses_anonymous_args = 0
 248              		@ link register save eliminated.
 249 0000 07EE900A 		vmov	s15, r0	@ int
 250 0004 B8EEE70A 		vcvt.f32.s32	s0, s15
 251 0008 DFED027A 		vldr.32	s15, .L19
 252 000c 20EE270A 		vmul.f32	s0, s0, s15
 253 0010 7047     		bx	lr
 254              	.L20:
 255 0012 00BF     		.align	2
 256              	.L19:
 257 0014 23DB793D 		.word	1031396131
 258              		.cfi_endproc
 259              	.LFE119:
 261              		.section	.text.lis2dw12_from_fs4_lp1_to_mg,"ax",%progbits
 262              		.align	1
 263              		.p2align 2,,3
 264              		.global	lis2dw12_from_fs4_lp1_to_mg
 265              		.syntax unified
 266              		.thumb
 267              		.thumb_func
 268              		.fpu fpv4-sp-d16
 270              	lis2dw12_from_fs4_lp1_to_mg:
 271              	.LFB121:
 272              		.cfi_startproc
 273              		@ args = 0, pretend = 0, frame = 0
 274              		@ frame_needed = 0, uses_anonymous_args = 0
 275              		@ link register save eliminated.
 276 0000 07EE900A 		vmov	s15, r0	@ int
 277 0004 B8EEE70A 		vcvt.f32.s32	s0, s15
 278 0008 DFED027A 		vldr.32	s15, .L22
 279 000c 20EE270A 		vmul.f32	s0, s0, s15
 280 0010 7047     		bx	lr
 281              	.L23:
 282 0012 00BF     		.align	2
 283              	.L22:
 284 0014 23DBF93D 		.word	1039784739
 285              		.cfi_endproc
 286              	.LFE121:
 288              		.section	.text.lis2dw12_from_fs8_lp1_to_mg,"ax",%progbits
 289              		.align	1
 290              		.p2align 2,,3
 291              		.global	lis2dw12_from_fs8_lp1_to_mg
 292              		.syntax unified
 293              		.thumb
 294              		.thumb_func
 295              		.fpu fpv4-sp-d16
 297              	lis2dw12_from_fs8_lp1_to_mg:
 298              	.LFB123:
 299              		.cfi_startproc
 300              		@ args = 0, pretend = 0, frame = 0
 301              		@ frame_needed = 0, uses_anonymous_args = 0
 302              		@ link register save eliminated.
 303 0000 07EE900A 		vmov	s15, r0	@ int
 304 0004 B8EEE70A 		vcvt.f32.s32	s0, s15
 305 0008 DFED027A 		vldr.32	s15, .L25
ARM GAS  T:\msys\tmp\ccye0a00.s 			page 8


 306 000c 20EE270A 		vmul.f32	s0, s0, s15
 307 0010 7047     		bx	lr
 308              	.L26:
 309 0012 00BF     		.align	2
 310              	.L25:
 311 0014 23DB793E 		.word	1048173347
 312              		.cfi_endproc
 313              	.LFE123:
 315              		.section	.text.lis2dw12_from_fs16_lp1_to_mg,"ax",%progbits
 316              		.align	1
 317              		.p2align 2,,3
 318              		.global	lis2dw12_from_fs16_lp1_to_mg
 319              		.syntax unified
 320              		.thumb
 321              		.thumb_func
 322              		.fpu fpv4-sp-d16
 324              	lis2dw12_from_fs16_lp1_to_mg:
 325              	.LFB125:
 326              		.cfi_startproc
 327              		@ args = 0, pretend = 0, frame = 0
 328              		@ frame_needed = 0, uses_anonymous_args = 0
 329              		@ link register save eliminated.
 330 0000 07EE900A 		vmov	s15, r0	@ int
 331 0004 B8EEE70A 		vcvt.f32.s32	s0, s15
 332 0008 DFED027A 		vldr.32	s15, .L28
 333 000c 20EE270A 		vmul.f32	s0, s0, s15
 334 0010 7047     		bx	lr
 335              	.L29:
 336 0012 00BF     		.align	2
 337              	.L28:
 338 0014 23DBF93E 		.word	1056561955
 339              		.cfi_endproc
 340              	.LFE125:
 342              		.section	.text.lis2dw12_from_lsb_to_celsius,"ax",%progbits
 343              		.align	1
 344              		.p2align 2,,3
 345              		.global	lis2dw12_from_lsb_to_celsius
 346              		.syntax unified
 347              		.thumb
 348              		.thumb_func
 349              		.fpu fpv4-sp-d16
 351              	lis2dw12_from_lsb_to_celsius:
 352              	.LVL10:
 353              	.LFB10:
 106:D:/fchai/work/i-cube/I-CUBE-HUAWEI/Drivers/BSP/Components/lis2dw12\lis2dw12_reg.c **** 
 107:D:/fchai/work/i-cube/I-CUBE-HUAWEI/Drivers/BSP/Components/lis2dw12\lis2dw12_reg.c **** float_t lis2dw12_from_fs2_lp1_to_mg(int16_t lsb)
 108:D:/fchai/work/i-cube/I-CUBE-HUAWEI/Drivers/BSP/Components/lis2dw12\lis2dw12_reg.c **** {
 109:D:/fchai/work/i-cube/I-CUBE-HUAWEI/Drivers/BSP/Components/lis2dw12\lis2dw12_reg.c ****   return ((float_t)lsb) * 0.061f;
 110:D:/fchai/work/i-cube/I-CUBE-HUAWEI/Drivers/BSP/Components/lis2dw12\lis2dw12_reg.c **** }
 111:D:/fchai/work/i-cube/I-CUBE-HUAWEI/Drivers/BSP/Components/lis2dw12\lis2dw12_reg.c **** 
 112:D:/fchai/work/i-cube/I-CUBE-HUAWEI/Drivers/BSP/Components/lis2dw12\lis2dw12_reg.c **** float_t lis2dw12_from_fs4_lp1_to_mg(int16_t lsb)
 113:D:/fchai/work/i-cube/I-CUBE-HUAWEI/Drivers/BSP/Components/lis2dw12\lis2dw12_reg.c **** {
 114:D:/fchai/work/i-cube/I-CUBE-HUAWEI/Drivers/BSP/Components/lis2dw12\lis2dw12_reg.c ****   return ((float_t)lsb) * 0.122f;
 115:D:/fchai/work/i-cube/I-CUBE-HUAWEI/Drivers/BSP/Components/lis2dw12\lis2dw12_reg.c **** }
 116:D:/fchai/work/i-cube/I-CUBE-HUAWEI/Drivers/BSP/Components/lis2dw12\lis2dw12_reg.c **** 
 117:D:/fchai/work/i-cube/I-CUBE-HUAWEI/Drivers/BSP/Components/lis2dw12\lis2dw12_reg.c **** float_t lis2dw12_from_fs8_lp1_to_mg(int16_t lsb)
 118:D:/fchai/work/i-cube/I-CUBE-HUAWEI/Drivers/BSP/Components/lis2dw12\lis2dw12_reg.c **** {
ARM GAS  T:\msys\tmp\ccye0a00.s 			page 9


 119:D:/fchai/work/i-cube/I-CUBE-HUAWEI/Drivers/BSP/Components/lis2dw12\lis2dw12_reg.c ****   return ((float_t)lsb) * 0.244f;
 120:D:/fchai/work/i-cube/I-CUBE-HUAWEI/Drivers/BSP/Components/lis2dw12\lis2dw12_reg.c **** }
 121:D:/fchai/work/i-cube/I-CUBE-HUAWEI/Drivers/BSP/Components/lis2dw12\lis2dw12_reg.c **** 
 122:D:/fchai/work/i-cube/I-CUBE-HUAWEI/Drivers/BSP/Components/lis2dw12\lis2dw12_reg.c **** float_t lis2dw12_from_fs16_lp1_to_mg(int16_t lsb)
 123:D:/fchai/work/i-cube/I-CUBE-HUAWEI/Drivers/BSP/Components/lis2dw12\lis2dw12_reg.c **** {
 124:D:/fchai/work/i-cube/I-CUBE-HUAWEI/Drivers/BSP/Components/lis2dw12\lis2dw12_reg.c ****   return ((float_t)lsb) * 0.488f;
 125:D:/fchai/work/i-cube/I-CUBE-HUAWEI/Drivers/BSP/Components/lis2dw12\lis2dw12_reg.c **** }
 126:D:/fchai/work/i-cube/I-CUBE-HUAWEI/Drivers/BSP/Components/lis2dw12\lis2dw12_reg.c **** 
 127:D:/fchai/work/i-cube/I-CUBE-HUAWEI/Drivers/BSP/Components/lis2dw12\lis2dw12_reg.c **** float_t lis2dw12_from_lsb_to_celsius(int16_t lsb)
 128:D:/fchai/work/i-cube/I-CUBE-HUAWEI/Drivers/BSP/Components/lis2dw12\lis2dw12_reg.c **** {
 354              		.loc 1 128 1 is_stmt 1 view -0
 355              		.cfi_startproc
 356              		@ args = 0, pretend = 0, frame = 0
 357              		@ frame_needed = 0, uses_anonymous_args = 0
 358              		@ link register save eliminated.
 129:D:/fchai/work/i-cube/I-CUBE-HUAWEI/Drivers/BSP/Components/lis2dw12\lis2dw12_reg.c ****   return (((float_t)lsb / 16.0f) + 25.0f);
 359              		.loc 1 129 3 view .LVU39
 360              		.loc 1 129 12 is_stmt 0 view .LVU40
 361 0000 07EE900A 		vmov	s15, r0	@ int
 362              		.loc 1 129 34 view .LVU41
 363 0004 9FED047A 		vldr.32	s14, .L31
 364              		.loc 1 129 12 view .LVU42
 365 0008 F8EEE77A 		vcvt.f32.s32	s15, s15
 366              		.loc 1 129 34 view .LVU43
 367 000c B3EE090A 		vmov.f32	s0, #2.5e+1
 130:D:/fchai/work/i-cube/I-CUBE-HUAWEI/Drivers/BSP/Components/lis2dw12\lis2dw12_reg.c **** }
 368              		.loc 1 130 1 view .LVU44
 369 0010 A7EE870A 		vfma.f32	s0, s15, s14
 370 0014 7047     		bx	lr
 371              	.L32:
 372 0016 00BF     		.align	2
 373              	.L31:
 374 0018 0000803D 		.word	1031798784
 375              		.cfi_endproc
 376              	.LFE10:
 378              		.section	.text.lis2dw12_power_mode_set,"ax",%progbits
 379              		.align	1
 380              		.p2align 2,,3
 381              		.global	lis2dw12_power_mode_set
 382              		.syntax unified
 383              		.thumb
 384              		.thumb_func
 385              		.fpu fpv4-sp-d16
 387              	lis2dw12_power_mode_set:
 388              	.LVL11:
 389              	.LFB11:
 131:D:/fchai/work/i-cube/I-CUBE-HUAWEI/Drivers/BSP/Components/lis2dw12\lis2dw12_reg.c **** 
 132:D:/fchai/work/i-cube/I-CUBE-HUAWEI/Drivers/BSP/Components/lis2dw12\lis2dw12_reg.c **** /**
 133:D:/fchai/work/i-cube/I-CUBE-HUAWEI/Drivers/BSP/Components/lis2dw12\lis2dw12_reg.c ****   * @}
 134:D:/fchai/work/i-cube/I-CUBE-HUAWEI/Drivers/BSP/Components/lis2dw12\lis2dw12_reg.c ****   *
 135:D:/fchai/work/i-cube/I-CUBE-HUAWEI/Drivers/BSP/Components/lis2dw12\lis2dw12_reg.c ****   */
 136:D:/fchai/work/i-cube/I-CUBE-HUAWEI/Drivers/BSP/Components/lis2dw12\lis2dw12_reg.c **** 
 137:D:/fchai/work/i-cube/I-CUBE-HUAWEI/Drivers/BSP/Components/lis2dw12\lis2dw12_reg.c **** /**
 138:D:/fchai/work/i-cube/I-CUBE-HUAWEI/Drivers/BSP/Components/lis2dw12\lis2dw12_reg.c ****   * @defgroup  LIS2DW12_Data_Generation
 139:D:/fchai/work/i-cube/I-CUBE-HUAWEI/Drivers/BSP/Components/lis2dw12\lis2dw12_reg.c ****   * @brief     This section groups all the functions concerning
 140:D:/fchai/work/i-cube/I-CUBE-HUAWEI/Drivers/BSP/Components/lis2dw12\lis2dw12_reg.c ****   *            data generation
 141:D:/fchai/work/i-cube/I-CUBE-HUAWEI/Drivers/BSP/Components/lis2dw12\lis2dw12_reg.c ****   * @{
ARM GAS  T:\msys\tmp\ccye0a00.s 			page 10


 142:D:/fchai/work/i-cube/I-CUBE-HUAWEI/Drivers/BSP/Components/lis2dw12\lis2dw12_reg.c ****   *
 143:D:/fchai/work/i-cube/I-CUBE-HUAWEI/Drivers/BSP/Components/lis2dw12\lis2dw12_reg.c ****   */
 144:D:/fchai/work/i-cube/I-CUBE-HUAWEI/Drivers/BSP/Components/lis2dw12\lis2dw12_reg.c **** 
 145:D:/fchai/work/i-cube/I-CUBE-HUAWEI/Drivers/BSP/Components/lis2dw12\lis2dw12_reg.c **** /**
 146:D:/fchai/work/i-cube/I-CUBE-HUAWEI/Drivers/BSP/Components/lis2dw12\lis2dw12_reg.c ****   * @brief  Select accelerometer operating modes.[set]
 147:D:/fchai/work/i-cube/I-CUBE-HUAWEI/Drivers/BSP/Components/lis2dw12\lis2dw12_reg.c ****   *
 148:D:/fchai/work/i-cube/I-CUBE-HUAWEI/Drivers/BSP/Components/lis2dw12\lis2dw12_reg.c ****   * @param  ctx      read / write interface definitions
 149:D:/fchai/work/i-cube/I-CUBE-HUAWEI/Drivers/BSP/Components/lis2dw12\lis2dw12_reg.c ****   * @param  val      change the values of mode / lp_mode in reg CTRL1
 150:D:/fchai/work/i-cube/I-CUBE-HUAWEI/Drivers/BSP/Components/lis2dw12\lis2dw12_reg.c ****   *                  and low_noise in reg CTRL6
 151:D:/fchai/work/i-cube/I-CUBE-HUAWEI/Drivers/BSP/Components/lis2dw12\lis2dw12_reg.c ****   * @retval          interface status (MANDATORY: return 0 -> no Error)
 152:D:/fchai/work/i-cube/I-CUBE-HUAWEI/Drivers/BSP/Components/lis2dw12\lis2dw12_reg.c ****   *
 153:D:/fchai/work/i-cube/I-CUBE-HUAWEI/Drivers/BSP/Components/lis2dw12\lis2dw12_reg.c ****   */
 154:D:/fchai/work/i-cube/I-CUBE-HUAWEI/Drivers/BSP/Components/lis2dw12\lis2dw12_reg.c **** int32_t lis2dw12_power_mode_set(stmdev_ctx_t *ctx, lis2dw12_mode_t val)
 155:D:/fchai/work/i-cube/I-CUBE-HUAWEI/Drivers/BSP/Components/lis2dw12\lis2dw12_reg.c **** {
 390              		.loc 1 155 1 is_stmt 1 view -0
 391              		.cfi_startproc
 392              		@ args = 0, pretend = 0, frame = 8
 393              		@ frame_needed = 0, uses_anonymous_args = 0
 156:D:/fchai/work/i-cube/I-CUBE-HUAWEI/Drivers/BSP/Components/lis2dw12\lis2dw12_reg.c ****   lis2dw12_ctrl1_t ctrl1;
 394              		.loc 1 156 3 view .LVU46
 157:D:/fchai/work/i-cube/I-CUBE-HUAWEI/Drivers/BSP/Components/lis2dw12\lis2dw12_reg.c ****   lis2dw12_ctrl6_t ctrl6;
 395              		.loc 1 157 3 view .LVU47
 158:D:/fchai/work/i-cube/I-CUBE-HUAWEI/Drivers/BSP/Components/lis2dw12\lis2dw12_reg.c ****   int32_t ret;
 396              		.loc 1 158 3 view .LVU48
 159:D:/fchai/work/i-cube/I-CUBE-HUAWEI/Drivers/BSP/Components/lis2dw12\lis2dw12_reg.c **** 
 160:D:/fchai/work/i-cube/I-CUBE-HUAWEI/Drivers/BSP/Components/lis2dw12\lis2dw12_reg.c ****   ret = lis2dw12_read_reg(ctx, LIS2DW12_CTRL1,(uint8_t*) &ctrl1, 1);
 397              		.loc 1 160 3 view .LVU49
 155:D:/fchai/work/i-cube/I-CUBE-HUAWEI/Drivers/BSP/Components/lis2dw12\lis2dw12_reg.c ****   lis2dw12_ctrl1_t ctrl1;
 398              		.loc 1 155 1 is_stmt 0 view .LVU50
 399 0000 70B5     		push	{r4, r5, r6, lr}
 400              	.LCFI4:
 401              		.cfi_def_cfa_offset 16
 402              		.cfi_offset 4, -16
 403              		.cfi_offset 5, -12
 404              		.cfi_offset 6, -8
 405              		.cfi_offset 14, -4
 406 0002 82B0     		sub	sp, sp, #8
 407              	.LCFI5:
 408              		.cfi_def_cfa_offset 24
 155:D:/fchai/work/i-cube/I-CUBE-HUAWEI/Drivers/BSP/Components/lis2dw12\lis2dw12_reg.c ****   lis2dw12_ctrl1_t ctrl1;
 409              		.loc 1 155 1 view .LVU51
 410 0004 0446     		mov	r4, r0
 411              	.LVL12:
 412              	.LBB344:
 413              	.LBI344:
  49:D:/fchai/work/i-cube/I-CUBE-HUAWEI/Drivers/BSP/Components/lis2dw12\lis2dw12_reg.c ****                           uint16_t len)
 414              		.loc 1 49 9 is_stmt 1 view .LVU52
 415              	.LBB345:
  52:D:/fchai/work/i-cube/I-CUBE-HUAWEI/Drivers/BSP/Components/lis2dw12\lis2dw12_reg.c ****   ret = ctx->read_reg(ctx->handle, reg, data, len);
 416              		.loc 1 52 3 view .LVU53
  53:D:/fchai/work/i-cube/I-CUBE-HUAWEI/Drivers/BSP/Components/lis2dw12\lis2dw12_reg.c ****   return ret;
 417              		.loc 1 53 3 view .LVU54
 418              	.LBE345:
 419              	.LBE344:
 155:D:/fchai/work/i-cube/I-CUBE-HUAWEI/Drivers/BSP/Components/lis2dw12\lis2dw12_reg.c ****   lis2dw12_ctrl1_t ctrl1;
 420              		.loc 1 155 1 is_stmt 0 view .LVU55
 421 0006 0D46     		mov	r5, r1
ARM GAS  T:\msys\tmp\ccye0a00.s 			page 11


 422              	.LBB347:
 423              	.LBB346:
  53:D:/fchai/work/i-cube/I-CUBE-HUAWEI/Drivers/BSP/Components/lis2dw12\lis2dw12_reg.c ****   return ret;
 424              		.loc 1 53 9 view .LVU56
 425 0008 D0E90160 		ldrd	r6, r0, [r0, #4]
 426              	.LVL13:
  53:D:/fchai/work/i-cube/I-CUBE-HUAWEI/Drivers/BSP/Components/lis2dw12\lis2dw12_reg.c ****   return ret;
 427              		.loc 1 53 9 view .LVU57
 428 000c 6A46     		mov	r2, sp
 429 000e 0123     		movs	r3, #1
 430 0010 2021     		movs	r1, #32
 431              	.LVL14:
  53:D:/fchai/work/i-cube/I-CUBE-HUAWEI/Drivers/BSP/Components/lis2dw12\lis2dw12_reg.c ****   return ret;
 432              		.loc 1 53 9 view .LVU58
 433 0012 B047     		blx	r6
 434              	.LVL15:
  54:D:/fchai/work/i-cube/I-CUBE-HUAWEI/Drivers/BSP/Components/lis2dw12\lis2dw12_reg.c **** }
 435              		.loc 1 54 3 is_stmt 1 view .LVU59
  54:D:/fchai/work/i-cube/I-CUBE-HUAWEI/Drivers/BSP/Components/lis2dw12\lis2dw12_reg.c **** }
 436              		.loc 1 54 3 is_stmt 0 view .LVU60
 437              	.LBE346:
 438              	.LBE347:
 161:D:/fchai/work/i-cube/I-CUBE-HUAWEI/Drivers/BSP/Components/lis2dw12\lis2dw12_reg.c ****   if (ret == 0) {
 439              		.loc 1 161 3 is_stmt 1 view .LVU61
 440              		.loc 1 161 6 is_stmt 0 view .LVU62
 441 0014 18BB     		cbnz	r0, .L33
 162:D:/fchai/work/i-cube/I-CUBE-HUAWEI/Drivers/BSP/Components/lis2dw12\lis2dw12_reg.c ****     ctrl1.mode = ( (uint8_t) val & 0x0CU ) >> 2;
 442              		.loc 1 162 5 is_stmt 1 view .LVU63
 163:D:/fchai/work/i-cube/I-CUBE-HUAWEI/Drivers/BSP/Components/lis2dw12\lis2dw12_reg.c ****     ctrl1.lp_mode = (uint8_t) val & 0x03U ;
 443              		.loc 1 163 5 view .LVU64
 444              		.loc 1 163 19 is_stmt 0 view .LVU65
 445 0016 9DF80030 		ldrb	r3, [sp]	@ zero_extendqisi2
 446              	.LBB348:
 447              	.LBB349:
  71:D:/fchai/work/i-cube/I-CUBE-HUAWEI/Drivers/BSP/Components/lis2dw12\lis2dw12_reg.c ****   return ret;
 448              		.loc 1 71 9 view .LVU66
 449 001a 2668     		ldr	r6, [r4]
 450 001c A068     		ldr	r0, [r4, #8]
 451              	.LVL16:
  71:D:/fchai/work/i-cube/I-CUBE-HUAWEI/Drivers/BSP/Components/lis2dw12\lis2dw12_reg.c ****   return ret;
 452              		.loc 1 71 9 view .LVU67
 453              	.LBE349:
 454              	.LBE348:
 455              		.loc 1 163 19 view .LVU68
 456 001e 23F00F02 		bic	r2, r3, #15
 457 0022 05F00F03 		and	r3, r5, #15
 458 0026 1343     		orrs	r3, r3, r2
 459 0028 8DF80030 		strb	r3, [sp]
 164:D:/fchai/work/i-cube/I-CUBE-HUAWEI/Drivers/BSP/Components/lis2dw12\lis2dw12_reg.c ****     ret = lis2dw12_write_reg(ctx, LIS2DW12_CTRL1,(uint8_t*) &ctrl1, 1);
 460              		.loc 1 164 5 is_stmt 1 view .LVU69
 461              	.LVL17:
 462              	.LBB351:
 463              	.LBI348:
  67:D:/fchai/work/i-cube/I-CUBE-HUAWEI/Drivers/BSP/Components/lis2dw12\lis2dw12_reg.c ****                            uint16_t len)
 464              		.loc 1 67 9 view .LVU70
 465              	.LBB350:
  70:D:/fchai/work/i-cube/I-CUBE-HUAWEI/Drivers/BSP/Components/lis2dw12\lis2dw12_reg.c ****   ret = ctx->write_reg(ctx->handle, reg, data, len);
ARM GAS  T:\msys\tmp\ccye0a00.s 			page 12


 466              		.loc 1 70 3 view .LVU71
  71:D:/fchai/work/i-cube/I-CUBE-HUAWEI/Drivers/BSP/Components/lis2dw12\lis2dw12_reg.c ****   return ret;
 467              		.loc 1 71 3 view .LVU72
  71:D:/fchai/work/i-cube/I-CUBE-HUAWEI/Drivers/BSP/Components/lis2dw12\lis2dw12_reg.c ****   return ret;
 468              		.loc 1 71 9 is_stmt 0 view .LVU73
 469 002c 6A46     		mov	r2, sp
 470 002e 0123     		movs	r3, #1
 471 0030 2021     		movs	r1, #32
 472 0032 B047     		blx	r6
 473              	.LVL18:
  72:D:/fchai/work/i-cube/I-CUBE-HUAWEI/Drivers/BSP/Components/lis2dw12\lis2dw12_reg.c **** }
 474              		.loc 1 72 3 is_stmt 1 view .LVU74
  72:D:/fchai/work/i-cube/I-CUBE-HUAWEI/Drivers/BSP/Components/lis2dw12\lis2dw12_reg.c **** }
 475              		.loc 1 72 3 is_stmt 0 view .LVU75
 476              	.LBE350:
 477              	.LBE351:
 165:D:/fchai/work/i-cube/I-CUBE-HUAWEI/Drivers/BSP/Components/lis2dw12\lis2dw12_reg.c ****   }
 166:D:/fchai/work/i-cube/I-CUBE-HUAWEI/Drivers/BSP/Components/lis2dw12\lis2dw12_reg.c ****   if (ret == 0) {
 478              		.loc 1 166 3 is_stmt 1 view .LVU76
 479              		.loc 1 166 6 is_stmt 0 view .LVU77
 480 0034 98B9     		cbnz	r0, .L33
 167:D:/fchai/work/i-cube/I-CUBE-HUAWEI/Drivers/BSP/Components/lis2dw12\lis2dw12_reg.c ****     ret = lis2dw12_read_reg(ctx, LIS2DW12_CTRL6,(uint8_t*) &ctrl6, 1);
 481              		.loc 1 167 5 is_stmt 1 view .LVU78
 482              	.LVL19:
 483              	.LBB352:
 484              	.LBI352:
  49:D:/fchai/work/i-cube/I-CUBE-HUAWEI/Drivers/BSP/Components/lis2dw12\lis2dw12_reg.c ****                           uint16_t len)
 485              		.loc 1 49 9 view .LVU79
 486              	.LBB353:
  52:D:/fchai/work/i-cube/I-CUBE-HUAWEI/Drivers/BSP/Components/lis2dw12\lis2dw12_reg.c ****   ret = ctx->read_reg(ctx->handle, reg, data, len);
 487              		.loc 1 52 3 view .LVU80
  53:D:/fchai/work/i-cube/I-CUBE-HUAWEI/Drivers/BSP/Components/lis2dw12\lis2dw12_reg.c ****   return ret;
 488              		.loc 1 53 3 view .LVU81
  53:D:/fchai/work/i-cube/I-CUBE-HUAWEI/Drivers/BSP/Components/lis2dw12\lis2dw12_reg.c ****   return ret;
 489              		.loc 1 53 9 is_stmt 0 view .LVU82
 490 0036 D4E90160 		ldrd	r6, r0, [r4, #4]
 491              	.LVL20:
  53:D:/fchai/work/i-cube/I-CUBE-HUAWEI/Drivers/BSP/Components/lis2dw12\lis2dw12_reg.c ****   return ret;
 492              		.loc 1 53 9 view .LVU83
 493 003a 01AA     		add	r2, sp, #4
 494              	.LVL21:
  53:D:/fchai/work/i-cube/I-CUBE-HUAWEI/Drivers/BSP/Components/lis2dw12\lis2dw12_reg.c ****   return ret;
 495              		.loc 1 53 9 view .LVU84
 496 003c 0123     		movs	r3, #1
 497 003e 2521     		movs	r1, #37
 498 0040 B047     		blx	r6
 499              	.LVL22:
  54:D:/fchai/work/i-cube/I-CUBE-HUAWEI/Drivers/BSP/Components/lis2dw12\lis2dw12_reg.c **** }
 500              		.loc 1 54 3 is_stmt 1 view .LVU85
  54:D:/fchai/work/i-cube/I-CUBE-HUAWEI/Drivers/BSP/Components/lis2dw12\lis2dw12_reg.c **** }
 501              		.loc 1 54 3 is_stmt 0 view .LVU86
 502              	.LBE353:
 503              	.LBE352:
 168:D:/fchai/work/i-cube/I-CUBE-HUAWEI/Drivers/BSP/Components/lis2dw12\lis2dw12_reg.c ****   }
 169:D:/fchai/work/i-cube/I-CUBE-HUAWEI/Drivers/BSP/Components/lis2dw12\lis2dw12_reg.c ****   if (ret == 0) {
 504              		.loc 1 169 3 is_stmt 1 view .LVU87
 505              		.loc 1 169 6 is_stmt 0 view .LVU88
ARM GAS  T:\msys\tmp\ccye0a00.s 			page 13


 506 0042 60B9     		cbnz	r0, .L33
 170:D:/fchai/work/i-cube/I-CUBE-HUAWEI/Drivers/BSP/Components/lis2dw12\lis2dw12_reg.c ****     ctrl6.low_noise = ( (uint8_t) val & 0x10U ) >> 4;
 507              		.loc 1 170 5 is_stmt 1 view .LVU89
 508              		.loc 1 170 21 is_stmt 0 view .LVU90
 509 0044 9DF80430 		ldrb	r3, [sp, #4]	@ zero_extendqisi2
 510              	.LBB354:
 511              	.LBB355:
  71:D:/fchai/work/i-cube/I-CUBE-HUAWEI/Drivers/BSP/Components/lis2dw12\lis2dw12_reg.c ****   return ret;
 512              		.loc 1 71 9 view .LVU91
 513 0048 2668     		ldr	r6, [r4]
 514 004a A068     		ldr	r0, [r4, #8]
 515              	.LVL23:
  71:D:/fchai/work/i-cube/I-CUBE-HUAWEI/Drivers/BSP/Components/lis2dw12\lis2dw12_reg.c ****   return ret;
 516              		.loc 1 71 9 view .LVU92
 517              	.LBE355:
 518              	.LBE354:
 519              		.loc 1 170 49 view .LVU93
 520 004c 2D09     		lsrs	r5, r5, #4
 521              		.loc 1 170 21 view .LVU94
 522 004e 65F38203 		bfi	r3, r5, #2, #1
 523 0052 8DF80430 		strb	r3, [sp, #4]
 171:D:/fchai/work/i-cube/I-CUBE-HUAWEI/Drivers/BSP/Components/lis2dw12\lis2dw12_reg.c ****     ret = lis2dw12_write_reg(ctx, LIS2DW12_CTRL6,(uint8_t*) &ctrl6, 1);
 524              		.loc 1 171 5 is_stmt 1 view .LVU95
 525              	.LVL24:
 526              	.LBB357:
 527              	.LBI354:
  67:D:/fchai/work/i-cube/I-CUBE-HUAWEI/Drivers/BSP/Components/lis2dw12\lis2dw12_reg.c ****                            uint16_t len)
 528              		.loc 1 67 9 view .LVU96
 529              	.LBB356:
  70:D:/fchai/work/i-cube/I-CUBE-HUAWEI/Drivers/BSP/Components/lis2dw12\lis2dw12_reg.c ****   ret = ctx->write_reg(ctx->handle, reg, data, len);
 530              		.loc 1 70 3 view .LVU97
  71:D:/fchai/work/i-cube/I-CUBE-HUAWEI/Drivers/BSP/Components/lis2dw12\lis2dw12_reg.c ****   return ret;
 531              		.loc 1 71 3 view .LVU98
  71:D:/fchai/work/i-cube/I-CUBE-HUAWEI/Drivers/BSP/Components/lis2dw12\lis2dw12_reg.c ****   return ret;
 532              		.loc 1 71 9 is_stmt 0 view .LVU99
 533 0056 01AA     		add	r2, sp, #4
 534              	.LVL25:
  71:D:/fchai/work/i-cube/I-CUBE-HUAWEI/Drivers/BSP/Components/lis2dw12\lis2dw12_reg.c ****   return ret;
 535              		.loc 1 71 9 view .LVU100
 536 0058 0123     		movs	r3, #1
 537 005a 2521     		movs	r1, #37
 538 005c B047     		blx	r6
 539              	.LVL26:
  72:D:/fchai/work/i-cube/I-CUBE-HUAWEI/Drivers/BSP/Components/lis2dw12\lis2dw12_reg.c **** }
 540              		.loc 1 72 3 is_stmt 1 view .LVU101
  72:D:/fchai/work/i-cube/I-CUBE-HUAWEI/Drivers/BSP/Components/lis2dw12\lis2dw12_reg.c **** }
 541              		.loc 1 72 3 is_stmt 0 view .LVU102
 542              	.LBE356:
 543              	.LBE357:
 172:D:/fchai/work/i-cube/I-CUBE-HUAWEI/Drivers/BSP/Components/lis2dw12\lis2dw12_reg.c ****   }
 173:D:/fchai/work/i-cube/I-CUBE-HUAWEI/Drivers/BSP/Components/lis2dw12\lis2dw12_reg.c ****   return ret;
 544              		.loc 1 173 3 is_stmt 1 view .LVU103
 545              	.L33:
 174:D:/fchai/work/i-cube/I-CUBE-HUAWEI/Drivers/BSP/Components/lis2dw12\lis2dw12_reg.c **** }
 546              		.loc 1 174 1 is_stmt 0 view .LVU104
 547 005e 02B0     		add	sp, sp, #8
 548              	.LCFI6:
ARM GAS  T:\msys\tmp\ccye0a00.s 			page 14


 549              		.cfi_def_cfa_offset 16
 550              		@ sp needed
 551 0060 70BD     		pop	{r4, r5, r6, pc}
 552              		.loc 1 174 1 view .LVU105
 553              		.cfi_endproc
 554              	.LFE11:
 556 0062 00BF     		.section	.text.lis2dw12_power_mode_get,"ax",%progbits
 557              		.align	1
 558              		.p2align 2,,3
 559              		.global	lis2dw12_power_mode_get
 560              		.syntax unified
 561              		.thumb
 562              		.thumb_func
 563              		.fpu fpv4-sp-d16
 565              	lis2dw12_power_mode_get:
 566              	.LVL27:
 567              	.LFB12:
 175:D:/fchai/work/i-cube/I-CUBE-HUAWEI/Drivers/BSP/Components/lis2dw12\lis2dw12_reg.c **** 
 176:D:/fchai/work/i-cube/I-CUBE-HUAWEI/Drivers/BSP/Components/lis2dw12\lis2dw12_reg.c **** /**
 177:D:/fchai/work/i-cube/I-CUBE-HUAWEI/Drivers/BSP/Components/lis2dw12\lis2dw12_reg.c ****   * @brief  Select accelerometer operating modes.[get]
 178:D:/fchai/work/i-cube/I-CUBE-HUAWEI/Drivers/BSP/Components/lis2dw12\lis2dw12_reg.c ****   *
 179:D:/fchai/work/i-cube/I-CUBE-HUAWEI/Drivers/BSP/Components/lis2dw12\lis2dw12_reg.c ****   * @param  ctx      read / write interface definitions
 180:D:/fchai/work/i-cube/I-CUBE-HUAWEI/Drivers/BSP/Components/lis2dw12\lis2dw12_reg.c ****   * @param  val      change the values of mode / lp_mode in reg CTRL1
 181:D:/fchai/work/i-cube/I-CUBE-HUAWEI/Drivers/BSP/Components/lis2dw12\lis2dw12_reg.c ****   *                  and low_noise in reg CTRL6
 182:D:/fchai/work/i-cube/I-CUBE-HUAWEI/Drivers/BSP/Components/lis2dw12\lis2dw12_reg.c ****   * @retval          interface status (MANDATORY: return 0 -> no Error)
 183:D:/fchai/work/i-cube/I-CUBE-HUAWEI/Drivers/BSP/Components/lis2dw12\lis2dw12_reg.c ****   *
 184:D:/fchai/work/i-cube/I-CUBE-HUAWEI/Drivers/BSP/Components/lis2dw12\lis2dw12_reg.c ****   */
 185:D:/fchai/work/i-cube/I-CUBE-HUAWEI/Drivers/BSP/Components/lis2dw12\lis2dw12_reg.c **** int32_t lis2dw12_power_mode_get(stmdev_ctx_t *ctx, lis2dw12_mode_t *val)
 186:D:/fchai/work/i-cube/I-CUBE-HUAWEI/Drivers/BSP/Components/lis2dw12\lis2dw12_reg.c **** {
 568              		.loc 1 186 1 is_stmt 1 view -0
 569              		.cfi_startproc
 570              		@ args = 0, pretend = 0, frame = 8
 571              		@ frame_needed = 0, uses_anonymous_args = 0
 187:D:/fchai/work/i-cube/I-CUBE-HUAWEI/Drivers/BSP/Components/lis2dw12\lis2dw12_reg.c ****   lis2dw12_ctrl1_t ctrl1;
 572              		.loc 1 187 3 view .LVU107
 188:D:/fchai/work/i-cube/I-CUBE-HUAWEI/Drivers/BSP/Components/lis2dw12\lis2dw12_reg.c ****   lis2dw12_ctrl6_t ctrl6;
 573              		.loc 1 188 3 view .LVU108
 189:D:/fchai/work/i-cube/I-CUBE-HUAWEI/Drivers/BSP/Components/lis2dw12\lis2dw12_reg.c ****   int32_t ret;
 574              		.loc 1 189 3 view .LVU109
 190:D:/fchai/work/i-cube/I-CUBE-HUAWEI/Drivers/BSP/Components/lis2dw12\lis2dw12_reg.c **** 
 191:D:/fchai/work/i-cube/I-CUBE-HUAWEI/Drivers/BSP/Components/lis2dw12\lis2dw12_reg.c ****   ret = lis2dw12_read_reg(ctx, LIS2DW12_CTRL1,(uint8_t*) &ctrl1, 1);
 575              		.loc 1 191 3 view .LVU110
 186:D:/fchai/work/i-cube/I-CUBE-HUAWEI/Drivers/BSP/Components/lis2dw12\lis2dw12_reg.c ****   lis2dw12_ctrl1_t ctrl1;
 576              		.loc 1 186 1 is_stmt 0 view .LVU111
 577 0000 70B5     		push	{r4, r5, r6, lr}
 578              	.LCFI7:
 579              		.cfi_def_cfa_offset 16
 580              		.cfi_offset 4, -16
 581              		.cfi_offset 5, -12
 582              		.cfi_offset 6, -8
 583              		.cfi_offset 14, -4
 584 0002 82B0     		sub	sp, sp, #8
 585              	.LCFI8:
 586              		.cfi_def_cfa_offset 24
 186:D:/fchai/work/i-cube/I-CUBE-HUAWEI/Drivers/BSP/Components/lis2dw12\lis2dw12_reg.c ****   lis2dw12_ctrl1_t ctrl1;
 587              		.loc 1 186 1 view .LVU112
 588 0004 0446     		mov	r4, r0
ARM GAS  T:\msys\tmp\ccye0a00.s 			page 15


 589              	.LVL28:
 590              	.LBB358:
 591              	.LBI358:
  49:D:/fchai/work/i-cube/I-CUBE-HUAWEI/Drivers/BSP/Components/lis2dw12\lis2dw12_reg.c ****                           uint16_t len)
 592              		.loc 1 49 9 is_stmt 1 view .LVU113
 593              	.LBB359:
  52:D:/fchai/work/i-cube/I-CUBE-HUAWEI/Drivers/BSP/Components/lis2dw12\lis2dw12_reg.c ****   ret = ctx->read_reg(ctx->handle, reg, data, len);
 594              		.loc 1 52 3 view .LVU114
  53:D:/fchai/work/i-cube/I-CUBE-HUAWEI/Drivers/BSP/Components/lis2dw12\lis2dw12_reg.c ****   return ret;
 595              		.loc 1 53 3 view .LVU115
 596              	.LBE359:
 597              	.LBE358:
 186:D:/fchai/work/i-cube/I-CUBE-HUAWEI/Drivers/BSP/Components/lis2dw12\lis2dw12_reg.c ****   lis2dw12_ctrl1_t ctrl1;
 598              		.loc 1 186 1 is_stmt 0 view .LVU116
 599 0006 0D46     		mov	r5, r1
 600              	.LBB361:
 601              	.LBB360:
  53:D:/fchai/work/i-cube/I-CUBE-HUAWEI/Drivers/BSP/Components/lis2dw12\lis2dw12_reg.c ****   return ret;
 602              		.loc 1 53 9 view .LVU117
 603 0008 D0E90160 		ldrd	r6, r0, [r0, #4]
 604              	.LVL29:
  53:D:/fchai/work/i-cube/I-CUBE-HUAWEI/Drivers/BSP/Components/lis2dw12\lis2dw12_reg.c ****   return ret;
 605              		.loc 1 53 9 view .LVU118
 606 000c 0123     		movs	r3, #1
 607 000e 6A46     		mov	r2, sp
 608 0010 2021     		movs	r1, #32
 609              	.LVL30:
  53:D:/fchai/work/i-cube/I-CUBE-HUAWEI/Drivers/BSP/Components/lis2dw12\lis2dw12_reg.c ****   return ret;
 610              		.loc 1 53 9 view .LVU119
 611 0012 B047     		blx	r6
 612              	.LVL31:
  54:D:/fchai/work/i-cube/I-CUBE-HUAWEI/Drivers/BSP/Components/lis2dw12\lis2dw12_reg.c **** }
 613              		.loc 1 54 3 is_stmt 1 view .LVU120
  54:D:/fchai/work/i-cube/I-CUBE-HUAWEI/Drivers/BSP/Components/lis2dw12\lis2dw12_reg.c **** }
 614              		.loc 1 54 3 is_stmt 0 view .LVU121
 615              	.LBE360:
 616              	.LBE361:
 192:D:/fchai/work/i-cube/I-CUBE-HUAWEI/Drivers/BSP/Components/lis2dw12\lis2dw12_reg.c ****   if (ret == 0) {
 617              		.loc 1 192 3 is_stmt 1 view .LVU122
 618              		.loc 1 192 6 is_stmt 0 view .LVU123
 619 0014 30BB     		cbnz	r0, .L36
 193:D:/fchai/work/i-cube/I-CUBE-HUAWEI/Drivers/BSP/Components/lis2dw12\lis2dw12_reg.c ****     ret = lis2dw12_read_reg(ctx, LIS2DW12_CTRL6,(uint8_t*) &ctrl6, 1);
 620              		.loc 1 193 5 is_stmt 1 view .LVU124
 621              	.LVL32:
 622              	.LBB362:
 623              	.LBI362:
  49:D:/fchai/work/i-cube/I-CUBE-HUAWEI/Drivers/BSP/Components/lis2dw12\lis2dw12_reg.c ****                           uint16_t len)
 624              		.loc 1 49 9 view .LVU125
 625              	.LBB363:
  52:D:/fchai/work/i-cube/I-CUBE-HUAWEI/Drivers/BSP/Components/lis2dw12\lis2dw12_reg.c ****   ret = ctx->read_reg(ctx->handle, reg, data, len);
 626              		.loc 1 52 3 view .LVU126
  53:D:/fchai/work/i-cube/I-CUBE-HUAWEI/Drivers/BSP/Components/lis2dw12\lis2dw12_reg.c ****   return ret;
 627              		.loc 1 53 3 view .LVU127
  53:D:/fchai/work/i-cube/I-CUBE-HUAWEI/Drivers/BSP/Components/lis2dw12\lis2dw12_reg.c ****   return ret;
 628              		.loc 1 53 9 is_stmt 0 view .LVU128
 629 0016 0123     		movs	r3, #1
 630 0018 01AA     		add	r2, sp, #4
ARM GAS  T:\msys\tmp\ccye0a00.s 			page 16


 631              	.LVL33:
  53:D:/fchai/work/i-cube/I-CUBE-HUAWEI/Drivers/BSP/Components/lis2dw12\lis2dw12_reg.c ****   return ret;
 632              		.loc 1 53 9 view .LVU129
 633 001a 2521     		movs	r1, #37
 634 001c D4E90160 		ldrd	r6, r0, [r4, #4]
 635              	.LVL34:
  53:D:/fchai/work/i-cube/I-CUBE-HUAWEI/Drivers/BSP/Components/lis2dw12\lis2dw12_reg.c ****   return ret;
 636              		.loc 1 53 9 view .LVU130
 637 0020 B047     		blx	r6
 638              	.LVL35:
  53:D:/fchai/work/i-cube/I-CUBE-HUAWEI/Drivers/BSP/Components/lis2dw12\lis2dw12_reg.c ****   return ret;
 639              		.loc 1 53 9 view .LVU131
 640              	.LBE363:
 641              	.LBE362:
 194:D:/fchai/work/i-cube/I-CUBE-HUAWEI/Drivers/BSP/Components/lis2dw12\lis2dw12_reg.c **** 
 195:D:/fchai/work/i-cube/I-CUBE-HUAWEI/Drivers/BSP/Components/lis2dw12\lis2dw12_reg.c ****     switch (((ctrl6.low_noise << 4) + (ctrl1.mode << 2) +
 642              		.loc 1 195 20 view .LVU132
 643 0022 9DF80430 		ldrb	r3, [sp, #4]	@ zero_extendqisi2
 644              		.loc 1 195 45 view .LVU133
 645 0026 9DF80020 		ldrb	r2, [sp]	@ zero_extendqisi2
 646              		.loc 1 195 20 view .LVU134
 647 002a C3F38001 		ubfx	r1, r3, #2, #1
 648              		.loc 1 195 51 view .LVU135
 649 002e 02F00C03 		and	r3, r2, #12
 650              		.loc 1 195 37 view .LVU136
 651 0032 03EB0113 		add	r3, r3, r1, lsl #4
 196:D:/fchai/work/i-cube/I-CUBE-HUAWEI/Drivers/BSP/Components/lis2dw12\lis2dw12_reg.c ****             ctrl1.lp_mode)) {
 652              		.loc 1 196 18 view .LVU137
 653 0036 02F00302 		and	r2, r2, #3
 195:D:/fchai/work/i-cube/I-CUBE-HUAWEI/Drivers/BSP/Components/lis2dw12\lis2dw12_reg.c ****             ctrl1.lp_mode)) {
 654              		.loc 1 195 57 view .LVU138
 655 003a 1344     		add	r3, r3, r2
 656              	.LVL36:
 657              	.LBB365:
 658              	.LBB364:
  54:D:/fchai/work/i-cube/I-CUBE-HUAWEI/Drivers/BSP/Components/lis2dw12\lis2dw12_reg.c **** }
 659              		.loc 1 54 3 is_stmt 1 view .LVU139
  54:D:/fchai/work/i-cube/I-CUBE-HUAWEI/Drivers/BSP/Components/lis2dw12\lis2dw12_reg.c **** }
 660              		.loc 1 54 3 is_stmt 0 view .LVU140
 661              	.LBE364:
 662              	.LBE365:
 195:D:/fchai/work/i-cube/I-CUBE-HUAWEI/Drivers/BSP/Components/lis2dw12\lis2dw12_reg.c ****             ctrl1.lp_mode)) {
 663              		.loc 1 195 5 is_stmt 1 view .LVU141
 664 003c 1B2B     		cmp	r3, #27
 665 003e 0FD8     		bhi	.L38
 666 0040 DFE803F0 		tbb	[pc, r3]
 667              	.L40:
 668 0044 12       		.byte	(.L57-.L40)/2
 669 0045 42       		.byte	(.L56-.L40)/2
 670 0046 3F       		.byte	(.L55-.L40)/2
 671 0047 3C       		.byte	(.L54-.L40)/2
 672 0048 0E       		.byte	(.L38-.L40)/2
 673 0049 0E       		.byte	(.L38-.L40)/2
 674 004a 0E       		.byte	(.L38-.L40)/2
 675 004b 0E       		.byte	(.L38-.L40)/2
 676 004c 36       		.byte	(.L52-.L40)/2
 677 004d 33       		.byte	(.L51-.L40)/2
ARM GAS  T:\msys\tmp\ccye0a00.s 			page 17


 678 004e 30       		.byte	(.L50-.L40)/2
 679 004f 2D       		.byte	(.L49-.L40)/2
 680 0050 0E       		.byte	(.L38-.L40)/2
 681 0051 0E       		.byte	(.L38-.L40)/2
 682 0052 0E       		.byte	(.L38-.L40)/2
 683 0053 0E       		.byte	(.L38-.L40)/2
 684 0054 2A       		.byte	(.L48-.L40)/2
 685 0055 27       		.byte	(.L47-.L40)/2
 686 0056 24       		.byte	(.L46-.L40)/2
 687 0057 21       		.byte	(.L45-.L40)/2
 688 0058 1E       		.byte	(.L44-.L40)/2
 689 0059 0E       		.byte	(.L38-.L40)/2
 690 005a 0E       		.byte	(.L38-.L40)/2
 691 005b 0E       		.byte	(.L38-.L40)/2
 692 005c 1B       		.byte	(.L43-.L40)/2
 693 005d 18       		.byte	(.L42-.L40)/2
 694 005e 15       		.byte	(.L41-.L40)/2
 695 005f 39       		.byte	(.L39-.L40)/2
 696              		.p2align 1
 697              	.L38:
 197:D:/fchai/work/i-cube/I-CUBE-HUAWEI/Drivers/BSP/Components/lis2dw12\lis2dw12_reg.c ****       case LIS2DW12_HIGH_PERFORMANCE:
 198:D:/fchai/work/i-cube/I-CUBE-HUAWEI/Drivers/BSP/Components/lis2dw12\lis2dw12_reg.c ****         *val = LIS2DW12_HIGH_PERFORMANCE;
 199:D:/fchai/work/i-cube/I-CUBE-HUAWEI/Drivers/BSP/Components/lis2dw12\lis2dw12_reg.c ****         break;
 200:D:/fchai/work/i-cube/I-CUBE-HUAWEI/Drivers/BSP/Components/lis2dw12\lis2dw12_reg.c ****       case LIS2DW12_CONT_LOW_PWR_4:
 201:D:/fchai/work/i-cube/I-CUBE-HUAWEI/Drivers/BSP/Components/lis2dw12\lis2dw12_reg.c ****         *val = LIS2DW12_CONT_LOW_PWR_4;
 202:D:/fchai/work/i-cube/I-CUBE-HUAWEI/Drivers/BSP/Components/lis2dw12\lis2dw12_reg.c ****         break;
 203:D:/fchai/work/i-cube/I-CUBE-HUAWEI/Drivers/BSP/Components/lis2dw12\lis2dw12_reg.c ****       case LIS2DW12_CONT_LOW_PWR_3:
 204:D:/fchai/work/i-cube/I-CUBE-HUAWEI/Drivers/BSP/Components/lis2dw12\lis2dw12_reg.c ****         *val = LIS2DW12_CONT_LOW_PWR_3;
 205:D:/fchai/work/i-cube/I-CUBE-HUAWEI/Drivers/BSP/Components/lis2dw12\lis2dw12_reg.c ****         break;
 206:D:/fchai/work/i-cube/I-CUBE-HUAWEI/Drivers/BSP/Components/lis2dw12\lis2dw12_reg.c ****       case LIS2DW12_CONT_LOW_PWR_2:
 207:D:/fchai/work/i-cube/I-CUBE-HUAWEI/Drivers/BSP/Components/lis2dw12\lis2dw12_reg.c ****         *val = LIS2DW12_CONT_LOW_PWR_2;
 208:D:/fchai/work/i-cube/I-CUBE-HUAWEI/Drivers/BSP/Components/lis2dw12\lis2dw12_reg.c ****         break;
 209:D:/fchai/work/i-cube/I-CUBE-HUAWEI/Drivers/BSP/Components/lis2dw12\lis2dw12_reg.c ****       case LIS2DW12_CONT_LOW_PWR_12bit:
 210:D:/fchai/work/i-cube/I-CUBE-HUAWEI/Drivers/BSP/Components/lis2dw12\lis2dw12_reg.c ****         *val = LIS2DW12_CONT_LOW_PWR_12bit;
 211:D:/fchai/work/i-cube/I-CUBE-HUAWEI/Drivers/BSP/Components/lis2dw12\lis2dw12_reg.c ****         break;
 212:D:/fchai/work/i-cube/I-CUBE-HUAWEI/Drivers/BSP/Components/lis2dw12\lis2dw12_reg.c ****       case LIS2DW12_SINGLE_LOW_PWR_4:
 213:D:/fchai/work/i-cube/I-CUBE-HUAWEI/Drivers/BSP/Components/lis2dw12\lis2dw12_reg.c ****         *val = LIS2DW12_SINGLE_LOW_PWR_4;
 214:D:/fchai/work/i-cube/I-CUBE-HUAWEI/Drivers/BSP/Components/lis2dw12\lis2dw12_reg.c ****         break;
 215:D:/fchai/work/i-cube/I-CUBE-HUAWEI/Drivers/BSP/Components/lis2dw12\lis2dw12_reg.c ****       case LIS2DW12_SINGLE_LOW_PWR_3:
 216:D:/fchai/work/i-cube/I-CUBE-HUAWEI/Drivers/BSP/Components/lis2dw12\lis2dw12_reg.c ****         *val = LIS2DW12_SINGLE_LOW_PWR_3;
 217:D:/fchai/work/i-cube/I-CUBE-HUAWEI/Drivers/BSP/Components/lis2dw12\lis2dw12_reg.c ****         break;
 218:D:/fchai/work/i-cube/I-CUBE-HUAWEI/Drivers/BSP/Components/lis2dw12\lis2dw12_reg.c ****       case LIS2DW12_SINGLE_LOW_PWR_2:
 219:D:/fchai/work/i-cube/I-CUBE-HUAWEI/Drivers/BSP/Components/lis2dw12\lis2dw12_reg.c ****         *val = LIS2DW12_SINGLE_LOW_PWR_2;
 220:D:/fchai/work/i-cube/I-CUBE-HUAWEI/Drivers/BSP/Components/lis2dw12\lis2dw12_reg.c ****         break;
 221:D:/fchai/work/i-cube/I-CUBE-HUAWEI/Drivers/BSP/Components/lis2dw12\lis2dw12_reg.c ****       case LIS2DW12_SINGLE_LOW_PWR_12bit:
 222:D:/fchai/work/i-cube/I-CUBE-HUAWEI/Drivers/BSP/Components/lis2dw12\lis2dw12_reg.c ****         *val = LIS2DW12_SINGLE_LOW_PWR_12bit;
 223:D:/fchai/work/i-cube/I-CUBE-HUAWEI/Drivers/BSP/Components/lis2dw12\lis2dw12_reg.c ****         break;
 224:D:/fchai/work/i-cube/I-CUBE-HUAWEI/Drivers/BSP/Components/lis2dw12\lis2dw12_reg.c ****       case LIS2DW12_HIGH_PERFORMANCE_LOW_NOISE:
 225:D:/fchai/work/i-cube/I-CUBE-HUAWEI/Drivers/BSP/Components/lis2dw12\lis2dw12_reg.c ****         *val = LIS2DW12_HIGH_PERFORMANCE_LOW_NOISE;
 226:D:/fchai/work/i-cube/I-CUBE-HUAWEI/Drivers/BSP/Components/lis2dw12\lis2dw12_reg.c ****         break;
 227:D:/fchai/work/i-cube/I-CUBE-HUAWEI/Drivers/BSP/Components/lis2dw12\lis2dw12_reg.c ****       case LIS2DW12_CONT_LOW_PWR_LOW_NOISE_4:
 228:D:/fchai/work/i-cube/I-CUBE-HUAWEI/Drivers/BSP/Components/lis2dw12\lis2dw12_reg.c ****         *val = LIS2DW12_CONT_LOW_PWR_LOW_NOISE_4;
 229:D:/fchai/work/i-cube/I-CUBE-HUAWEI/Drivers/BSP/Components/lis2dw12\lis2dw12_reg.c ****         break;
 230:D:/fchai/work/i-cube/I-CUBE-HUAWEI/Drivers/BSP/Components/lis2dw12\lis2dw12_reg.c ****       case LIS2DW12_CONT_LOW_PWR_LOW_NOISE_3:
 231:D:/fchai/work/i-cube/I-CUBE-HUAWEI/Drivers/BSP/Components/lis2dw12\lis2dw12_reg.c ****         *val = LIS2DW12_CONT_LOW_PWR_LOW_NOISE_3;
 232:D:/fchai/work/i-cube/I-CUBE-HUAWEI/Drivers/BSP/Components/lis2dw12\lis2dw12_reg.c ****         break;
 233:D:/fchai/work/i-cube/I-CUBE-HUAWEI/Drivers/BSP/Components/lis2dw12\lis2dw12_reg.c ****       case LIS2DW12_CONT_LOW_PWR_LOW_NOISE_2:
ARM GAS  T:\msys\tmp\ccye0a00.s 			page 18


 234:D:/fchai/work/i-cube/I-CUBE-HUAWEI/Drivers/BSP/Components/lis2dw12\lis2dw12_reg.c ****         *val = LIS2DW12_CONT_LOW_PWR_LOW_NOISE_2;
 235:D:/fchai/work/i-cube/I-CUBE-HUAWEI/Drivers/BSP/Components/lis2dw12\lis2dw12_reg.c ****         break;
 236:D:/fchai/work/i-cube/I-CUBE-HUAWEI/Drivers/BSP/Components/lis2dw12\lis2dw12_reg.c ****       case LIS2DW12_CONT_LOW_PWR_LOW_NOISE_12bit:
 237:D:/fchai/work/i-cube/I-CUBE-HUAWEI/Drivers/BSP/Components/lis2dw12\lis2dw12_reg.c ****         *val = LIS2DW12_CONT_LOW_PWR_LOW_NOISE_12bit;
 238:D:/fchai/work/i-cube/I-CUBE-HUAWEI/Drivers/BSP/Components/lis2dw12\lis2dw12_reg.c ****         break;
 239:D:/fchai/work/i-cube/I-CUBE-HUAWEI/Drivers/BSP/Components/lis2dw12\lis2dw12_reg.c ****       case LIS2DW12_SINGLE_LOW_PWR_LOW_NOISE_4:
 240:D:/fchai/work/i-cube/I-CUBE-HUAWEI/Drivers/BSP/Components/lis2dw12\lis2dw12_reg.c ****         *val = LIS2DW12_SINGLE_LOW_PWR_LOW_NOISE_4;
 241:D:/fchai/work/i-cube/I-CUBE-HUAWEI/Drivers/BSP/Components/lis2dw12\lis2dw12_reg.c ****         break;
 242:D:/fchai/work/i-cube/I-CUBE-HUAWEI/Drivers/BSP/Components/lis2dw12\lis2dw12_reg.c ****       case LIS2DW12_SINGLE_LOW_PWR_LOW_NOISE_3:
 243:D:/fchai/work/i-cube/I-CUBE-HUAWEI/Drivers/BSP/Components/lis2dw12\lis2dw12_reg.c ****         *val = LIS2DW12_SINGLE_LOW_PWR_LOW_NOISE_3;
 244:D:/fchai/work/i-cube/I-CUBE-HUAWEI/Drivers/BSP/Components/lis2dw12\lis2dw12_reg.c ****         break;
 245:D:/fchai/work/i-cube/I-CUBE-HUAWEI/Drivers/BSP/Components/lis2dw12\lis2dw12_reg.c ****       case LIS2DW12_SINGLE_LOW_PWR_LOW_NOISE_2:
 246:D:/fchai/work/i-cube/I-CUBE-HUAWEI/Drivers/BSP/Components/lis2dw12\lis2dw12_reg.c ****         *val = LIS2DW12_SINGLE_LOW_PWR_LOW_NOISE_2;
 247:D:/fchai/work/i-cube/I-CUBE-HUAWEI/Drivers/BSP/Components/lis2dw12\lis2dw12_reg.c ****         break;
 248:D:/fchai/work/i-cube/I-CUBE-HUAWEI/Drivers/BSP/Components/lis2dw12\lis2dw12_reg.c ****       case LIS2DW12_SINGLE_LOW_LOW_NOISE_PWR_12bit:
 249:D:/fchai/work/i-cube/I-CUBE-HUAWEI/Drivers/BSP/Components/lis2dw12\lis2dw12_reg.c ****         *val = LIS2DW12_SINGLE_LOW_LOW_NOISE_PWR_12bit;
 250:D:/fchai/work/i-cube/I-CUBE-HUAWEI/Drivers/BSP/Components/lis2dw12\lis2dw12_reg.c ****         break;
 251:D:/fchai/work/i-cube/I-CUBE-HUAWEI/Drivers/BSP/Components/lis2dw12\lis2dw12_reg.c ****       default:
 252:D:/fchai/work/i-cube/I-CUBE-HUAWEI/Drivers/BSP/Components/lis2dw12\lis2dw12_reg.c ****         *val = LIS2DW12_HIGH_PERFORMANCE;
 698              		.loc 1 252 9 view .LVU142
 699              		.loc 1 252 14 is_stmt 0 view .LVU143
 700 0060 0423     		movs	r3, #4
 701 0062 2B70     		strb	r3, [r5]
 253:D:/fchai/work/i-cube/I-CUBE-HUAWEI/Drivers/BSP/Components/lis2dw12\lis2dw12_reg.c ****         break;
 702              		.loc 1 253 9 is_stmt 1 view .LVU144
 254:D:/fchai/work/i-cube/I-CUBE-HUAWEI/Drivers/BSP/Components/lis2dw12\lis2dw12_reg.c ****     }
 255:D:/fchai/work/i-cube/I-CUBE-HUAWEI/Drivers/BSP/Components/lis2dw12\lis2dw12_reg.c ****   }
 256:D:/fchai/work/i-cube/I-CUBE-HUAWEI/Drivers/BSP/Components/lis2dw12\lis2dw12_reg.c ****   return ret;
 703              		.loc 1 256 3 view .LVU145
 704              	.L36:
 257:D:/fchai/work/i-cube/I-CUBE-HUAWEI/Drivers/BSP/Components/lis2dw12\lis2dw12_reg.c **** }
 705              		.loc 1 257 1 is_stmt 0 view .LVU146
 706 0064 02B0     		add	sp, sp, #8
 707              	.LCFI9:
 708              		.cfi_remember_state
 709              		.cfi_def_cfa_offset 16
 710              		@ sp needed
 711 0066 70BD     		pop	{r4, r5, r6, pc}
 712              	.LVL37:
 713              	.L57:
 714              	.LCFI10:
 715              		.cfi_restore_state
 210:D:/fchai/work/i-cube/I-CUBE-HUAWEI/Drivers/BSP/Components/lis2dw12\lis2dw12_reg.c ****         break;
 716              		.loc 1 210 9 is_stmt 1 view .LVU147
 210:D:/fchai/work/i-cube/I-CUBE-HUAWEI/Drivers/BSP/Components/lis2dw12\lis2dw12_reg.c ****         break;
 717              		.loc 1 210 14 is_stmt 0 view .LVU148
 718 0068 0023     		movs	r3, #0
 719 006a 2B70     		strb	r3, [r5]
 211:D:/fchai/work/i-cube/I-CUBE-HUAWEI/Drivers/BSP/Components/lis2dw12\lis2dw12_reg.c ****       case LIS2DW12_SINGLE_LOW_PWR_4:
 720              		.loc 1 211 9 is_stmt 1 view .LVU149
 721 006c FAE7     		b	.L36
 722              	.L41:
 243:D:/fchai/work/i-cube/I-CUBE-HUAWEI/Drivers/BSP/Components/lis2dw12\lis2dw12_reg.c ****         break;
 723              		.loc 1 243 9 view .LVU150
 243:D:/fchai/work/i-cube/I-CUBE-HUAWEI/Drivers/BSP/Components/lis2dw12\lis2dw12_reg.c ****         break;
 724              		.loc 1 243 14 is_stmt 0 view .LVU151
 725 006e 1A23     		movs	r3, #26
ARM GAS  T:\msys\tmp\ccye0a00.s 			page 19


 726 0070 2B70     		strb	r3, [r5]
 244:D:/fchai/work/i-cube/I-CUBE-HUAWEI/Drivers/BSP/Components/lis2dw12\lis2dw12_reg.c ****       case LIS2DW12_SINGLE_LOW_PWR_LOW_NOISE_2:
 727              		.loc 1 244 9 is_stmt 1 view .LVU152
 728 0072 F7E7     		b	.L36
 729              	.L42:
 246:D:/fchai/work/i-cube/I-CUBE-HUAWEI/Drivers/BSP/Components/lis2dw12\lis2dw12_reg.c ****         break;
 730              		.loc 1 246 9 view .LVU153
 246:D:/fchai/work/i-cube/I-CUBE-HUAWEI/Drivers/BSP/Components/lis2dw12\lis2dw12_reg.c ****         break;
 731              		.loc 1 246 14 is_stmt 0 view .LVU154
 732 0074 1923     		movs	r3, #25
 733 0076 2B70     		strb	r3, [r5]
 247:D:/fchai/work/i-cube/I-CUBE-HUAWEI/Drivers/BSP/Components/lis2dw12\lis2dw12_reg.c ****       case LIS2DW12_SINGLE_LOW_LOW_NOISE_PWR_12bit:
 734              		.loc 1 247 9 is_stmt 1 view .LVU155
 735 0078 F4E7     		b	.L36
 736              	.L43:
 249:D:/fchai/work/i-cube/I-CUBE-HUAWEI/Drivers/BSP/Components/lis2dw12\lis2dw12_reg.c ****         break;
 737              		.loc 1 249 9 view .LVU156
 249:D:/fchai/work/i-cube/I-CUBE-HUAWEI/Drivers/BSP/Components/lis2dw12\lis2dw12_reg.c ****         break;
 738              		.loc 1 249 14 is_stmt 0 view .LVU157
 739 007a 1823     		movs	r3, #24
 740 007c 2B70     		strb	r3, [r5]
 250:D:/fchai/work/i-cube/I-CUBE-HUAWEI/Drivers/BSP/Components/lis2dw12\lis2dw12_reg.c ****       default:
 741              		.loc 1 250 9 is_stmt 1 view .LVU158
 742 007e F1E7     		b	.L36
 743              	.L44:
 225:D:/fchai/work/i-cube/I-CUBE-HUAWEI/Drivers/BSP/Components/lis2dw12\lis2dw12_reg.c ****         break;
 744              		.loc 1 225 9 view .LVU159
 225:D:/fchai/work/i-cube/I-CUBE-HUAWEI/Drivers/BSP/Components/lis2dw12\lis2dw12_reg.c ****         break;
 745              		.loc 1 225 14 is_stmt 0 view .LVU160
 746 0080 1423     		movs	r3, #20
 747 0082 2B70     		strb	r3, [r5]
 226:D:/fchai/work/i-cube/I-CUBE-HUAWEI/Drivers/BSP/Components/lis2dw12\lis2dw12_reg.c ****       case LIS2DW12_CONT_LOW_PWR_LOW_NOISE_4:
 748              		.loc 1 226 9 is_stmt 1 view .LVU161
 749 0084 EEE7     		b	.L36
 750              	.L45:
 228:D:/fchai/work/i-cube/I-CUBE-HUAWEI/Drivers/BSP/Components/lis2dw12\lis2dw12_reg.c ****         break;
 751              		.loc 1 228 9 view .LVU162
 228:D:/fchai/work/i-cube/I-CUBE-HUAWEI/Drivers/BSP/Components/lis2dw12\lis2dw12_reg.c ****         break;
 752              		.loc 1 228 14 is_stmt 0 view .LVU163
 753 0086 1323     		movs	r3, #19
 754 0088 2B70     		strb	r3, [r5]
 229:D:/fchai/work/i-cube/I-CUBE-HUAWEI/Drivers/BSP/Components/lis2dw12\lis2dw12_reg.c ****       case LIS2DW12_CONT_LOW_PWR_LOW_NOISE_3:
 755              		.loc 1 229 9 is_stmt 1 view .LVU164
 756 008a EBE7     		b	.L36
 757              	.L46:
 231:D:/fchai/work/i-cube/I-CUBE-HUAWEI/Drivers/BSP/Components/lis2dw12\lis2dw12_reg.c ****         break;
 758              		.loc 1 231 9 view .LVU165
 231:D:/fchai/work/i-cube/I-CUBE-HUAWEI/Drivers/BSP/Components/lis2dw12\lis2dw12_reg.c ****         break;
 759              		.loc 1 231 14 is_stmt 0 view .LVU166
 760 008c 1223     		movs	r3, #18
 761 008e 2B70     		strb	r3, [r5]
 232:D:/fchai/work/i-cube/I-CUBE-HUAWEI/Drivers/BSP/Components/lis2dw12\lis2dw12_reg.c ****       case LIS2DW12_CONT_LOW_PWR_LOW_NOISE_2:
 762              		.loc 1 232 9 is_stmt 1 view .LVU167
 763 0090 E8E7     		b	.L36
 764              	.L47:
 234:D:/fchai/work/i-cube/I-CUBE-HUAWEI/Drivers/BSP/Components/lis2dw12\lis2dw12_reg.c ****         break;
 765              		.loc 1 234 9 view .LVU168
ARM GAS  T:\msys\tmp\ccye0a00.s 			page 20


 234:D:/fchai/work/i-cube/I-CUBE-HUAWEI/Drivers/BSP/Components/lis2dw12\lis2dw12_reg.c ****         break;
 766              		.loc 1 234 14 is_stmt 0 view .LVU169
 767 0092 1123     		movs	r3, #17
 768 0094 2B70     		strb	r3, [r5]
 235:D:/fchai/work/i-cube/I-CUBE-HUAWEI/Drivers/BSP/Components/lis2dw12\lis2dw12_reg.c ****       case LIS2DW12_CONT_LOW_PWR_LOW_NOISE_12bit:
 769              		.loc 1 235 9 is_stmt 1 view .LVU170
 770 0096 E5E7     		b	.L36
 771              	.L48:
 237:D:/fchai/work/i-cube/I-CUBE-HUAWEI/Drivers/BSP/Components/lis2dw12\lis2dw12_reg.c ****         break;
 772              		.loc 1 237 9 view .LVU171
 237:D:/fchai/work/i-cube/I-CUBE-HUAWEI/Drivers/BSP/Components/lis2dw12\lis2dw12_reg.c ****         break;
 773              		.loc 1 237 14 is_stmt 0 view .LVU172
 774 0098 1023     		movs	r3, #16
 775 009a 2B70     		strb	r3, [r5]
 238:D:/fchai/work/i-cube/I-CUBE-HUAWEI/Drivers/BSP/Components/lis2dw12\lis2dw12_reg.c ****       case LIS2DW12_SINGLE_LOW_PWR_LOW_NOISE_4:
 776              		.loc 1 238 9 is_stmt 1 view .LVU173
 777 009c E2E7     		b	.L36
 778              	.L49:
 213:D:/fchai/work/i-cube/I-CUBE-HUAWEI/Drivers/BSP/Components/lis2dw12\lis2dw12_reg.c ****         break;
 779              		.loc 1 213 9 view .LVU174
 213:D:/fchai/work/i-cube/I-CUBE-HUAWEI/Drivers/BSP/Components/lis2dw12\lis2dw12_reg.c ****         break;
 780              		.loc 1 213 14 is_stmt 0 view .LVU175
 781 009e 0B23     		movs	r3, #11
 782 00a0 2B70     		strb	r3, [r5]
 214:D:/fchai/work/i-cube/I-CUBE-HUAWEI/Drivers/BSP/Components/lis2dw12\lis2dw12_reg.c ****       case LIS2DW12_SINGLE_LOW_PWR_3:
 783              		.loc 1 214 9 is_stmt 1 view .LVU176
 784 00a2 DFE7     		b	.L36
 785              	.L50:
 216:D:/fchai/work/i-cube/I-CUBE-HUAWEI/Drivers/BSP/Components/lis2dw12\lis2dw12_reg.c ****         break;
 786              		.loc 1 216 9 view .LVU177
 216:D:/fchai/work/i-cube/I-CUBE-HUAWEI/Drivers/BSP/Components/lis2dw12\lis2dw12_reg.c ****         break;
 787              		.loc 1 216 14 is_stmt 0 view .LVU178
 788 00a4 0A23     		movs	r3, #10
 789 00a6 2B70     		strb	r3, [r5]
 217:D:/fchai/work/i-cube/I-CUBE-HUAWEI/Drivers/BSP/Components/lis2dw12\lis2dw12_reg.c ****       case LIS2DW12_SINGLE_LOW_PWR_2:
 790              		.loc 1 217 9 is_stmt 1 view .LVU179
 791 00a8 DCE7     		b	.L36
 792              	.L51:
 219:D:/fchai/work/i-cube/I-CUBE-HUAWEI/Drivers/BSP/Components/lis2dw12\lis2dw12_reg.c ****         break;
 793              		.loc 1 219 9 view .LVU180
 219:D:/fchai/work/i-cube/I-CUBE-HUAWEI/Drivers/BSP/Components/lis2dw12\lis2dw12_reg.c ****         break;
 794              		.loc 1 219 14 is_stmt 0 view .LVU181
 795 00aa 0923     		movs	r3, #9
 796 00ac 2B70     		strb	r3, [r5]
 220:D:/fchai/work/i-cube/I-CUBE-HUAWEI/Drivers/BSP/Components/lis2dw12\lis2dw12_reg.c ****       case LIS2DW12_SINGLE_LOW_PWR_12bit:
 797              		.loc 1 220 9 is_stmt 1 view .LVU182
 798 00ae D9E7     		b	.L36
 799              	.L52:
 222:D:/fchai/work/i-cube/I-CUBE-HUAWEI/Drivers/BSP/Components/lis2dw12\lis2dw12_reg.c ****         break;
 800              		.loc 1 222 9 view .LVU183
 222:D:/fchai/work/i-cube/I-CUBE-HUAWEI/Drivers/BSP/Components/lis2dw12\lis2dw12_reg.c ****         break;
 801              		.loc 1 222 14 is_stmt 0 view .LVU184
 802 00b0 0823     		movs	r3, #8
 803 00b2 2B70     		strb	r3, [r5]
 223:D:/fchai/work/i-cube/I-CUBE-HUAWEI/Drivers/BSP/Components/lis2dw12\lis2dw12_reg.c ****       case LIS2DW12_HIGH_PERFORMANCE_LOW_NOISE:
 804              		.loc 1 223 9 is_stmt 1 view .LVU185
 805 00b4 D6E7     		b	.L36
ARM GAS  T:\msys\tmp\ccye0a00.s 			page 21


 806              	.L39:
 240:D:/fchai/work/i-cube/I-CUBE-HUAWEI/Drivers/BSP/Components/lis2dw12\lis2dw12_reg.c ****         break;
 807              		.loc 1 240 9 view .LVU186
 240:D:/fchai/work/i-cube/I-CUBE-HUAWEI/Drivers/BSP/Components/lis2dw12\lis2dw12_reg.c ****         break;
 808              		.loc 1 240 14 is_stmt 0 view .LVU187
 809 00b6 1B23     		movs	r3, #27
 810 00b8 2B70     		strb	r3, [r5]
 241:D:/fchai/work/i-cube/I-CUBE-HUAWEI/Drivers/BSP/Components/lis2dw12\lis2dw12_reg.c ****       case LIS2DW12_SINGLE_LOW_PWR_LOW_NOISE_3:
 811              		.loc 1 241 9 is_stmt 1 view .LVU188
 812 00ba D3E7     		b	.L36
 813              	.L54:
 201:D:/fchai/work/i-cube/I-CUBE-HUAWEI/Drivers/BSP/Components/lis2dw12\lis2dw12_reg.c ****         break;
 814              		.loc 1 201 9 view .LVU189
 201:D:/fchai/work/i-cube/I-CUBE-HUAWEI/Drivers/BSP/Components/lis2dw12\lis2dw12_reg.c ****         break;
 815              		.loc 1 201 14 is_stmt 0 view .LVU190
 816 00bc 0323     		movs	r3, #3
 817 00be 2B70     		strb	r3, [r5]
 202:D:/fchai/work/i-cube/I-CUBE-HUAWEI/Drivers/BSP/Components/lis2dw12\lis2dw12_reg.c ****       case LIS2DW12_CONT_LOW_PWR_3:
 818              		.loc 1 202 9 is_stmt 1 view .LVU191
 819 00c0 D0E7     		b	.L36
 820              	.L55:
 204:D:/fchai/work/i-cube/I-CUBE-HUAWEI/Drivers/BSP/Components/lis2dw12\lis2dw12_reg.c ****         break;
 821              		.loc 1 204 9 view .LVU192
 204:D:/fchai/work/i-cube/I-CUBE-HUAWEI/Drivers/BSP/Components/lis2dw12\lis2dw12_reg.c ****         break;
 822              		.loc 1 204 14 is_stmt 0 view .LVU193
 823 00c2 0223     		movs	r3, #2
 824 00c4 2B70     		strb	r3, [r5]
 205:D:/fchai/work/i-cube/I-CUBE-HUAWEI/Drivers/BSP/Components/lis2dw12\lis2dw12_reg.c ****       case LIS2DW12_CONT_LOW_PWR_2:
 825              		.loc 1 205 9 is_stmt 1 view .LVU194
 826 00c6 CDE7     		b	.L36
 827              	.L56:
 207:D:/fchai/work/i-cube/I-CUBE-HUAWEI/Drivers/BSP/Components/lis2dw12\lis2dw12_reg.c ****         break;
 828              		.loc 1 207 9 view .LVU195
 207:D:/fchai/work/i-cube/I-CUBE-HUAWEI/Drivers/BSP/Components/lis2dw12\lis2dw12_reg.c ****         break;
 829              		.loc 1 207 14 is_stmt 0 view .LVU196
 830 00c8 0123     		movs	r3, #1
 831 00ca 2B70     		strb	r3, [r5]
 208:D:/fchai/work/i-cube/I-CUBE-HUAWEI/Drivers/BSP/Components/lis2dw12\lis2dw12_reg.c ****       case LIS2DW12_CONT_LOW_PWR_12bit:
 832              		.loc 1 208 9 is_stmt 1 view .LVU197
 833 00cc CAE7     		b	.L36
 834              		.cfi_endproc
 835              	.LFE12:
 837 00ce 00BF     		.section	.text.lis2dw12_data_rate_set,"ax",%progbits
 838              		.align	1
 839              		.p2align 2,,3
 840              		.global	lis2dw12_data_rate_set
 841              		.syntax unified
 842              		.thumb
 843              		.thumb_func
 844              		.fpu fpv4-sp-d16
 846              	lis2dw12_data_rate_set:
 847              	.LVL38:
 848              	.LFB13:
 258:D:/fchai/work/i-cube/I-CUBE-HUAWEI/Drivers/BSP/Components/lis2dw12\lis2dw12_reg.c **** 
 259:D:/fchai/work/i-cube/I-CUBE-HUAWEI/Drivers/BSP/Components/lis2dw12\lis2dw12_reg.c **** /**
 260:D:/fchai/work/i-cube/I-CUBE-HUAWEI/Drivers/BSP/Components/lis2dw12\lis2dw12_reg.c ****   * @brief  Accelerometer data rate selection.[set]
 261:D:/fchai/work/i-cube/I-CUBE-HUAWEI/Drivers/BSP/Components/lis2dw12\lis2dw12_reg.c ****   *
ARM GAS  T:\msys\tmp\ccye0a00.s 			page 22


 262:D:/fchai/work/i-cube/I-CUBE-HUAWEI/Drivers/BSP/Components/lis2dw12\lis2dw12_reg.c ****   * @param  ctx      read / write interface definitions
 263:D:/fchai/work/i-cube/I-CUBE-HUAWEI/Drivers/BSP/Components/lis2dw12\lis2dw12_reg.c ****   * @param  val      change the values of odr in reg CTRL1
 264:D:/fchai/work/i-cube/I-CUBE-HUAWEI/Drivers/BSP/Components/lis2dw12\lis2dw12_reg.c ****   * @retval          interface status (MANDATORY: return 0 -> no Error)
 265:D:/fchai/work/i-cube/I-CUBE-HUAWEI/Drivers/BSP/Components/lis2dw12\lis2dw12_reg.c ****   *
 266:D:/fchai/work/i-cube/I-CUBE-HUAWEI/Drivers/BSP/Components/lis2dw12\lis2dw12_reg.c ****   */
 267:D:/fchai/work/i-cube/I-CUBE-HUAWEI/Drivers/BSP/Components/lis2dw12\lis2dw12_reg.c **** int32_t lis2dw12_data_rate_set(stmdev_ctx_t *ctx, lis2dw12_odr_t val)
 268:D:/fchai/work/i-cube/I-CUBE-HUAWEI/Drivers/BSP/Components/lis2dw12\lis2dw12_reg.c **** {
 849              		.loc 1 268 1 view -0
 850              		.cfi_startproc
 851              		@ args = 0, pretend = 0, frame = 8
 852              		@ frame_needed = 0, uses_anonymous_args = 0
 269:D:/fchai/work/i-cube/I-CUBE-HUAWEI/Drivers/BSP/Components/lis2dw12\lis2dw12_reg.c ****   lis2dw12_ctrl1_t ctrl1;
 853              		.loc 1 269 3 view .LVU199
 270:D:/fchai/work/i-cube/I-CUBE-HUAWEI/Drivers/BSP/Components/lis2dw12\lis2dw12_reg.c ****   lis2dw12_ctrl3_t ctrl3;
 854              		.loc 1 270 3 view .LVU200
 271:D:/fchai/work/i-cube/I-CUBE-HUAWEI/Drivers/BSP/Components/lis2dw12\lis2dw12_reg.c ****   int32_t ret;
 855              		.loc 1 271 3 view .LVU201
 272:D:/fchai/work/i-cube/I-CUBE-HUAWEI/Drivers/BSP/Components/lis2dw12\lis2dw12_reg.c **** 
 273:D:/fchai/work/i-cube/I-CUBE-HUAWEI/Drivers/BSP/Components/lis2dw12\lis2dw12_reg.c ****   ret = lis2dw12_read_reg(ctx, LIS2DW12_CTRL1,(uint8_t*) &ctrl1, 1);
 856              		.loc 1 273 3 view .LVU202
 268:D:/fchai/work/i-cube/I-CUBE-HUAWEI/Drivers/BSP/Components/lis2dw12\lis2dw12_reg.c ****   lis2dw12_ctrl1_t ctrl1;
 857              		.loc 1 268 1 is_stmt 0 view .LVU203
 858 0000 70B5     		push	{r4, r5, r6, lr}
 859              	.LCFI11:
 860              		.cfi_def_cfa_offset 16
 861              		.cfi_offset 4, -16
 862              		.cfi_offset 5, -12
 863              		.cfi_offset 6, -8
 864              		.cfi_offset 14, -4
 865 0002 82B0     		sub	sp, sp, #8
 866              	.LCFI12:
 867              		.cfi_def_cfa_offset 24
 268:D:/fchai/work/i-cube/I-CUBE-HUAWEI/Drivers/BSP/Components/lis2dw12\lis2dw12_reg.c ****   lis2dw12_ctrl1_t ctrl1;
 868              		.loc 1 268 1 view .LVU204
 869 0004 0446     		mov	r4, r0
 870              	.LVL39:
 871              	.LBB366:
 872              	.LBI366:
  49:D:/fchai/work/i-cube/I-CUBE-HUAWEI/Drivers/BSP/Components/lis2dw12\lis2dw12_reg.c ****                           uint16_t len)
 873              		.loc 1 49 9 is_stmt 1 view .LVU205
 874              	.LBB367:
  52:D:/fchai/work/i-cube/I-CUBE-HUAWEI/Drivers/BSP/Components/lis2dw12\lis2dw12_reg.c ****   ret = ctx->read_reg(ctx->handle, reg, data, len);
 875              		.loc 1 52 3 view .LVU206
  53:D:/fchai/work/i-cube/I-CUBE-HUAWEI/Drivers/BSP/Components/lis2dw12\lis2dw12_reg.c ****   return ret;
 876              		.loc 1 53 3 view .LVU207
 877              	.LBE367:
 878              	.LBE366:
 268:D:/fchai/work/i-cube/I-CUBE-HUAWEI/Drivers/BSP/Components/lis2dw12\lis2dw12_reg.c ****   lis2dw12_ctrl1_t ctrl1;
 879              		.loc 1 268 1 is_stmt 0 view .LVU208
 880 0006 0D46     		mov	r5, r1
 881              	.LBB369:
 882              	.LBB368:
  53:D:/fchai/work/i-cube/I-CUBE-HUAWEI/Drivers/BSP/Components/lis2dw12\lis2dw12_reg.c ****   return ret;
 883              		.loc 1 53 9 view .LVU209
 884 0008 D0E90160 		ldrd	r6, r0, [r0, #4]
 885              	.LVL40:
  53:D:/fchai/work/i-cube/I-CUBE-HUAWEI/Drivers/BSP/Components/lis2dw12\lis2dw12_reg.c ****   return ret;
ARM GAS  T:\msys\tmp\ccye0a00.s 			page 23


 886              		.loc 1 53 9 view .LVU210
 887 000c 6A46     		mov	r2, sp
 888 000e 0123     		movs	r3, #1
 889 0010 2021     		movs	r1, #32
 890              	.LVL41:
  53:D:/fchai/work/i-cube/I-CUBE-HUAWEI/Drivers/BSP/Components/lis2dw12\lis2dw12_reg.c ****   return ret;
 891              		.loc 1 53 9 view .LVU211
 892 0012 B047     		blx	r6
 893              	.LVL42:
  54:D:/fchai/work/i-cube/I-CUBE-HUAWEI/Drivers/BSP/Components/lis2dw12\lis2dw12_reg.c **** }
 894              		.loc 1 54 3 is_stmt 1 view .LVU212
  54:D:/fchai/work/i-cube/I-CUBE-HUAWEI/Drivers/BSP/Components/lis2dw12\lis2dw12_reg.c **** }
 895              		.loc 1 54 3 is_stmt 0 view .LVU213
 896              	.LBE368:
 897              	.LBE369:
 274:D:/fchai/work/i-cube/I-CUBE-HUAWEI/Drivers/BSP/Components/lis2dw12\lis2dw12_reg.c ****   if (ret == 0) {
 898              		.loc 1 274 3 is_stmt 1 view .LVU214
 899              		.loc 1 274 6 is_stmt 0 view .LVU215
 900 0014 00BB     		cbnz	r0, .L59
 275:D:/fchai/work/i-cube/I-CUBE-HUAWEI/Drivers/BSP/Components/lis2dw12\lis2dw12_reg.c ****     ctrl1.odr = (uint8_t) val;
 901              		.loc 1 275 5 is_stmt 1 view .LVU216
 902              		.loc 1 275 15 is_stmt 0 view .LVU217
 903 0016 9DF80030 		ldrb	r3, [sp]	@ zero_extendqisi2
 904              	.LBB370:
 905              	.LBB371:
  71:D:/fchai/work/i-cube/I-CUBE-HUAWEI/Drivers/BSP/Components/lis2dw12\lis2dw12_reg.c ****   return ret;
 906              		.loc 1 71 9 view .LVU218
 907 001a 2668     		ldr	r6, [r4]
 908 001c A068     		ldr	r0, [r4, #8]
 909              	.LVL43:
  71:D:/fchai/work/i-cube/I-CUBE-HUAWEI/Drivers/BSP/Components/lis2dw12\lis2dw12_reg.c ****   return ret;
 910              		.loc 1 71 9 view .LVU219
 911              	.LBE371:
 912              	.LBE370:
 913              		.loc 1 275 15 view .LVU220
 914 001e 65F30713 		bfi	r3, r5, #4, #4
 915 0022 8DF80030 		strb	r3, [sp]
 276:D:/fchai/work/i-cube/I-CUBE-HUAWEI/Drivers/BSP/Components/lis2dw12\lis2dw12_reg.c ****     ret = lis2dw12_write_reg(ctx, LIS2DW12_CTRL1,(uint8_t*) &ctrl1, 1);
 916              		.loc 1 276 5 is_stmt 1 view .LVU221
 917              	.LVL44:
 918              	.LBB373:
 919              	.LBI370:
  67:D:/fchai/work/i-cube/I-CUBE-HUAWEI/Drivers/BSP/Components/lis2dw12\lis2dw12_reg.c ****                            uint16_t len)
 920              		.loc 1 67 9 view .LVU222
 921              	.LBB372:
  70:D:/fchai/work/i-cube/I-CUBE-HUAWEI/Drivers/BSP/Components/lis2dw12\lis2dw12_reg.c ****   ret = ctx->write_reg(ctx->handle, reg, data, len);
 922              		.loc 1 70 3 view .LVU223
  71:D:/fchai/work/i-cube/I-CUBE-HUAWEI/Drivers/BSP/Components/lis2dw12\lis2dw12_reg.c ****   return ret;
 923              		.loc 1 71 3 view .LVU224
  71:D:/fchai/work/i-cube/I-CUBE-HUAWEI/Drivers/BSP/Components/lis2dw12\lis2dw12_reg.c ****   return ret;
 924              		.loc 1 71 9 is_stmt 0 view .LVU225
 925 0026 6A46     		mov	r2, sp
 926 0028 0123     		movs	r3, #1
 927 002a 2021     		movs	r1, #32
 928 002c B047     		blx	r6
 929              	.LVL45:
  72:D:/fchai/work/i-cube/I-CUBE-HUAWEI/Drivers/BSP/Components/lis2dw12\lis2dw12_reg.c **** }
ARM GAS  T:\msys\tmp\ccye0a00.s 			page 24


 930              		.loc 1 72 3 is_stmt 1 view .LVU226
  72:D:/fchai/work/i-cube/I-CUBE-HUAWEI/Drivers/BSP/Components/lis2dw12\lis2dw12_reg.c **** }
 931              		.loc 1 72 3 is_stmt 0 view .LVU227
 932              	.LBE372:
 933              	.LBE373:
 277:D:/fchai/work/i-cube/I-CUBE-HUAWEI/Drivers/BSP/Components/lis2dw12\lis2dw12_reg.c ****   }
 278:D:/fchai/work/i-cube/I-CUBE-HUAWEI/Drivers/BSP/Components/lis2dw12\lis2dw12_reg.c ****   if (ret == 0) {
 934              		.loc 1 278 3 is_stmt 1 view .LVU228
 935              		.loc 1 278 6 is_stmt 0 view .LVU229
 936 002e 98B9     		cbnz	r0, .L59
 279:D:/fchai/work/i-cube/I-CUBE-HUAWEI/Drivers/BSP/Components/lis2dw12\lis2dw12_reg.c ****     ret = lis2dw12_read_reg(ctx, LIS2DW12_CTRL3,(uint8_t*) &ctrl3, 1);
 937              		.loc 1 279 5 is_stmt 1 view .LVU230
 938              	.LVL46:
 939              	.LBB374:
 940              	.LBI374:
  49:D:/fchai/work/i-cube/I-CUBE-HUAWEI/Drivers/BSP/Components/lis2dw12\lis2dw12_reg.c ****                           uint16_t len)
 941              		.loc 1 49 9 view .LVU231
 942              	.LBB375:
  52:D:/fchai/work/i-cube/I-CUBE-HUAWEI/Drivers/BSP/Components/lis2dw12\lis2dw12_reg.c ****   ret = ctx->read_reg(ctx->handle, reg, data, len);
 943              		.loc 1 52 3 view .LVU232
  53:D:/fchai/work/i-cube/I-CUBE-HUAWEI/Drivers/BSP/Components/lis2dw12\lis2dw12_reg.c ****   return ret;
 944              		.loc 1 53 3 view .LVU233
  53:D:/fchai/work/i-cube/I-CUBE-HUAWEI/Drivers/BSP/Components/lis2dw12\lis2dw12_reg.c ****   return ret;
 945              		.loc 1 53 9 is_stmt 0 view .LVU234
 946 0030 D4E90160 		ldrd	r6, r0, [r4, #4]
 947              	.LVL47:
  53:D:/fchai/work/i-cube/I-CUBE-HUAWEI/Drivers/BSP/Components/lis2dw12\lis2dw12_reg.c ****   return ret;
 948              		.loc 1 53 9 view .LVU235
 949 0034 01AA     		add	r2, sp, #4
 950              	.LVL48:
  53:D:/fchai/work/i-cube/I-CUBE-HUAWEI/Drivers/BSP/Components/lis2dw12\lis2dw12_reg.c ****   return ret;
 951              		.loc 1 53 9 view .LVU236
 952 0036 0123     		movs	r3, #1
 953 0038 2221     		movs	r1, #34
 954 003a B047     		blx	r6
 955              	.LVL49:
  54:D:/fchai/work/i-cube/I-CUBE-HUAWEI/Drivers/BSP/Components/lis2dw12\lis2dw12_reg.c **** }
 956              		.loc 1 54 3 is_stmt 1 view .LVU237
  54:D:/fchai/work/i-cube/I-CUBE-HUAWEI/Drivers/BSP/Components/lis2dw12\lis2dw12_reg.c **** }
 957              		.loc 1 54 3 is_stmt 0 view .LVU238
 958              	.LBE375:
 959              	.LBE374:
 280:D:/fchai/work/i-cube/I-CUBE-HUAWEI/Drivers/BSP/Components/lis2dw12\lis2dw12_reg.c ****   }
 281:D:/fchai/work/i-cube/I-CUBE-HUAWEI/Drivers/BSP/Components/lis2dw12\lis2dw12_reg.c ****   if (ret == 0) {
 960              		.loc 1 281 3 is_stmt 1 view .LVU239
 961              		.loc 1 281 6 is_stmt 0 view .LVU240
 962 003c 60B9     		cbnz	r0, .L59
 282:D:/fchai/work/i-cube/I-CUBE-HUAWEI/Drivers/BSP/Components/lis2dw12\lis2dw12_reg.c ****     ctrl3.slp_mode = ( (uint8_t) val & 0x30U ) >> 4;
 963              		.loc 1 282 5 is_stmt 1 view .LVU241
 964              		.loc 1 282 20 is_stmt 0 view .LVU242
 965 003e 9DF80430 		ldrb	r3, [sp, #4]	@ zero_extendqisi2
 966              	.LBB376:
 967              	.LBB377:
  71:D:/fchai/work/i-cube/I-CUBE-HUAWEI/Drivers/BSP/Components/lis2dw12\lis2dw12_reg.c ****   return ret;
 968              		.loc 1 71 9 view .LVU243
 969 0042 2668     		ldr	r6, [r4]
 970 0044 A068     		ldr	r0, [r4, #8]
ARM GAS  T:\msys\tmp\ccye0a00.s 			page 25


 971              	.LVL50:
  71:D:/fchai/work/i-cube/I-CUBE-HUAWEI/Drivers/BSP/Components/lis2dw12\lis2dw12_reg.c ****   return ret;
 972              		.loc 1 71 9 view .LVU244
 973              	.LBE377:
 974              	.LBE376:
 975              		.loc 1 282 48 view .LVU245
 976 0046 2D09     		lsrs	r5, r5, #4
 977              		.loc 1 282 20 view .LVU246
 978 0048 65F30103 		bfi	r3, r5, #0, #2
 979 004c 8DF80430 		strb	r3, [sp, #4]
 283:D:/fchai/work/i-cube/I-CUBE-HUAWEI/Drivers/BSP/Components/lis2dw12\lis2dw12_reg.c ****     ret = lis2dw12_write_reg(ctx, LIS2DW12_CTRL3,(uint8_t*) &ctrl3, 1);
 980              		.loc 1 283 5 is_stmt 1 view .LVU247
 981              	.LVL51:
 982              	.LBB379:
 983              	.LBI376:
  67:D:/fchai/work/i-cube/I-CUBE-HUAWEI/Drivers/BSP/Components/lis2dw12\lis2dw12_reg.c ****                            uint16_t len)
 984              		.loc 1 67 9 view .LVU248
 985              	.LBB378:
  70:D:/fchai/work/i-cube/I-CUBE-HUAWEI/Drivers/BSP/Components/lis2dw12\lis2dw12_reg.c ****   ret = ctx->write_reg(ctx->handle, reg, data, len);
 986              		.loc 1 70 3 view .LVU249
  71:D:/fchai/work/i-cube/I-CUBE-HUAWEI/Drivers/BSP/Components/lis2dw12\lis2dw12_reg.c ****   return ret;
 987              		.loc 1 71 3 view .LVU250
  71:D:/fchai/work/i-cube/I-CUBE-HUAWEI/Drivers/BSP/Components/lis2dw12\lis2dw12_reg.c ****   return ret;
 988              		.loc 1 71 9 is_stmt 0 view .LVU251
 989 0050 01AA     		add	r2, sp, #4
 990              	.LVL52:
  71:D:/fchai/work/i-cube/I-CUBE-HUAWEI/Drivers/BSP/Components/lis2dw12\lis2dw12_reg.c ****   return ret;
 991              		.loc 1 71 9 view .LVU252
 992 0052 0123     		movs	r3, #1
 993 0054 2221     		movs	r1, #34
 994 0056 B047     		blx	r6
 995              	.LVL53:
  72:D:/fchai/work/i-cube/I-CUBE-HUAWEI/Drivers/BSP/Components/lis2dw12\lis2dw12_reg.c **** }
 996              		.loc 1 72 3 is_stmt 1 view .LVU253
  72:D:/fchai/work/i-cube/I-CUBE-HUAWEI/Drivers/BSP/Components/lis2dw12\lis2dw12_reg.c **** }
 997              		.loc 1 72 3 is_stmt 0 view .LVU254
 998              	.LBE378:
 999              	.LBE379:
 284:D:/fchai/work/i-cube/I-CUBE-HUAWEI/Drivers/BSP/Components/lis2dw12\lis2dw12_reg.c ****   }
 285:D:/fchai/work/i-cube/I-CUBE-HUAWEI/Drivers/BSP/Components/lis2dw12\lis2dw12_reg.c ****   return ret;
 1000              		.loc 1 285 3 is_stmt 1 view .LVU255
 1001              	.L59:
 286:D:/fchai/work/i-cube/I-CUBE-HUAWEI/Drivers/BSP/Components/lis2dw12\lis2dw12_reg.c **** }
 1002              		.loc 1 286 1 is_stmt 0 view .LVU256
 1003 0058 02B0     		add	sp, sp, #8
 1004              	.LCFI13:
 1005              		.cfi_def_cfa_offset 16
 1006              		@ sp needed
 1007 005a 70BD     		pop	{r4, r5, r6, pc}
 1008              		.loc 1 286 1 view .LVU257
 1009              		.cfi_endproc
 1010              	.LFE13:
 1012              		.section	.text.lis2dw12_data_rate_get,"ax",%progbits
 1013              		.align	1
 1014              		.p2align 2,,3
 1015              		.global	lis2dw12_data_rate_get
 1016              		.syntax unified
ARM GAS  T:\msys\tmp\ccye0a00.s 			page 26


 1017              		.thumb
 1018              		.thumb_func
 1019              		.fpu fpv4-sp-d16
 1021              	lis2dw12_data_rate_get:
 1022              	.LVL54:
 1023              	.LFB14:
 287:D:/fchai/work/i-cube/I-CUBE-HUAWEI/Drivers/BSP/Components/lis2dw12\lis2dw12_reg.c **** 
 288:D:/fchai/work/i-cube/I-CUBE-HUAWEI/Drivers/BSP/Components/lis2dw12\lis2dw12_reg.c **** /**
 289:D:/fchai/work/i-cube/I-CUBE-HUAWEI/Drivers/BSP/Components/lis2dw12\lis2dw12_reg.c ****   * @brief  Accelerometer data rate selection.[get]
 290:D:/fchai/work/i-cube/I-CUBE-HUAWEI/Drivers/BSP/Components/lis2dw12\lis2dw12_reg.c ****   *
 291:D:/fchai/work/i-cube/I-CUBE-HUAWEI/Drivers/BSP/Components/lis2dw12\lis2dw12_reg.c ****   * @param  ctx      read / write interface definitions
 292:D:/fchai/work/i-cube/I-CUBE-HUAWEI/Drivers/BSP/Components/lis2dw12\lis2dw12_reg.c ****   * @param  val      Get the values of odr in reg CTRL1
 293:D:/fchai/work/i-cube/I-CUBE-HUAWEI/Drivers/BSP/Components/lis2dw12\lis2dw12_reg.c ****   * @retval          interface status (MANDATORY: return 0 -> no Error)
 294:D:/fchai/work/i-cube/I-CUBE-HUAWEI/Drivers/BSP/Components/lis2dw12\lis2dw12_reg.c ****   *
 295:D:/fchai/work/i-cube/I-CUBE-HUAWEI/Drivers/BSP/Components/lis2dw12\lis2dw12_reg.c ****   */
 296:D:/fchai/work/i-cube/I-CUBE-HUAWEI/Drivers/BSP/Components/lis2dw12\lis2dw12_reg.c **** int32_t lis2dw12_data_rate_get(stmdev_ctx_t *ctx, lis2dw12_odr_t *val)
 297:D:/fchai/work/i-cube/I-CUBE-HUAWEI/Drivers/BSP/Components/lis2dw12\lis2dw12_reg.c **** {
 1024              		.loc 1 297 1 is_stmt 1 view -0
 1025              		.cfi_startproc
 1026              		@ args = 0, pretend = 0, frame = 8
 1027              		@ frame_needed = 0, uses_anonymous_args = 0
 298:D:/fchai/work/i-cube/I-CUBE-HUAWEI/Drivers/BSP/Components/lis2dw12\lis2dw12_reg.c ****   lis2dw12_ctrl1_t ctrl1;
 1028              		.loc 1 298 3 view .LVU259
 299:D:/fchai/work/i-cube/I-CUBE-HUAWEI/Drivers/BSP/Components/lis2dw12\lis2dw12_reg.c ****   lis2dw12_ctrl3_t ctrl3;
 1029              		.loc 1 299 3 view .LVU260
 300:D:/fchai/work/i-cube/I-CUBE-HUAWEI/Drivers/BSP/Components/lis2dw12\lis2dw12_reg.c ****   int32_t ret;
 1030              		.loc 1 300 3 view .LVU261
 301:D:/fchai/work/i-cube/I-CUBE-HUAWEI/Drivers/BSP/Components/lis2dw12\lis2dw12_reg.c **** 
 302:D:/fchai/work/i-cube/I-CUBE-HUAWEI/Drivers/BSP/Components/lis2dw12\lis2dw12_reg.c ****   ret = lis2dw12_read_reg(ctx, LIS2DW12_CTRL1,(uint8_t*) &ctrl1, 1);
 1031              		.loc 1 302 3 view .LVU262
 297:D:/fchai/work/i-cube/I-CUBE-HUAWEI/Drivers/BSP/Components/lis2dw12\lis2dw12_reg.c ****   lis2dw12_ctrl1_t ctrl1;
 1032              		.loc 1 297 1 is_stmt 0 view .LVU263
 1033 0000 70B5     		push	{r4, r5, r6, lr}
 1034              	.LCFI14:
 1035              		.cfi_def_cfa_offset 16
 1036              		.cfi_offset 4, -16
 1037              		.cfi_offset 5, -12
 1038              		.cfi_offset 6, -8
 1039              		.cfi_offset 14, -4
 1040 0002 82B0     		sub	sp, sp, #8
 1041              	.LCFI15:
 1042              		.cfi_def_cfa_offset 24
 297:D:/fchai/work/i-cube/I-CUBE-HUAWEI/Drivers/BSP/Components/lis2dw12\lis2dw12_reg.c ****   lis2dw12_ctrl1_t ctrl1;
 1043              		.loc 1 297 1 view .LVU264
 1044 0004 0446     		mov	r4, r0
 1045              	.LVL55:
 1046              	.LBB380:
 1047              	.LBI380:
  49:D:/fchai/work/i-cube/I-CUBE-HUAWEI/Drivers/BSP/Components/lis2dw12\lis2dw12_reg.c ****                           uint16_t len)
 1048              		.loc 1 49 9 is_stmt 1 view .LVU265
 1049              	.LBB381:
  52:D:/fchai/work/i-cube/I-CUBE-HUAWEI/Drivers/BSP/Components/lis2dw12\lis2dw12_reg.c ****   ret = ctx->read_reg(ctx->handle, reg, data, len);
 1050              		.loc 1 52 3 view .LVU266
  53:D:/fchai/work/i-cube/I-CUBE-HUAWEI/Drivers/BSP/Components/lis2dw12\lis2dw12_reg.c ****   return ret;
 1051              		.loc 1 53 3 view .LVU267
 1052              	.LBE381:
 1053              	.LBE380:
ARM GAS  T:\msys\tmp\ccye0a00.s 			page 27


 297:D:/fchai/work/i-cube/I-CUBE-HUAWEI/Drivers/BSP/Components/lis2dw12\lis2dw12_reg.c ****   lis2dw12_ctrl1_t ctrl1;
 1054              		.loc 1 297 1 is_stmt 0 view .LVU268
 1055 0006 0D46     		mov	r5, r1
 1056              	.LBB383:
 1057              	.LBB382:
  53:D:/fchai/work/i-cube/I-CUBE-HUAWEI/Drivers/BSP/Components/lis2dw12\lis2dw12_reg.c ****   return ret;
 1058              		.loc 1 53 9 view .LVU269
 1059 0008 D0E90160 		ldrd	r6, r0, [r0, #4]
 1060              	.LVL56:
  53:D:/fchai/work/i-cube/I-CUBE-HUAWEI/Drivers/BSP/Components/lis2dw12\lis2dw12_reg.c ****   return ret;
 1061              		.loc 1 53 9 view .LVU270
 1062 000c 0123     		movs	r3, #1
 1063 000e 6A46     		mov	r2, sp
 1064 0010 2021     		movs	r1, #32
 1065              	.LVL57:
  53:D:/fchai/work/i-cube/I-CUBE-HUAWEI/Drivers/BSP/Components/lis2dw12\lis2dw12_reg.c ****   return ret;
 1066              		.loc 1 53 9 view .LVU271
 1067 0012 B047     		blx	r6
 1068              	.LVL58:
  54:D:/fchai/work/i-cube/I-CUBE-HUAWEI/Drivers/BSP/Components/lis2dw12\lis2dw12_reg.c **** }
 1069              		.loc 1 54 3 is_stmt 1 view .LVU272
  54:D:/fchai/work/i-cube/I-CUBE-HUAWEI/Drivers/BSP/Components/lis2dw12\lis2dw12_reg.c **** }
 1070              		.loc 1 54 3 is_stmt 0 view .LVU273
 1071              	.LBE382:
 1072              	.LBE383:
 303:D:/fchai/work/i-cube/I-CUBE-HUAWEI/Drivers/BSP/Components/lis2dw12\lis2dw12_reg.c ****   if (ret == 0) {
 1073              		.loc 1 303 3 is_stmt 1 view .LVU274
 1074              		.loc 1 303 6 is_stmt 0 view .LVU275
 1075 0014 70BB     		cbnz	r0, .L62
 304:D:/fchai/work/i-cube/I-CUBE-HUAWEI/Drivers/BSP/Components/lis2dw12\lis2dw12_reg.c ****     ret = lis2dw12_read_reg(ctx, LIS2DW12_CTRL3,(uint8_t*) &ctrl3, 1);
 1076              		.loc 1 304 5 is_stmt 1 view .LVU276
 1077              	.LVL59:
 1078              	.LBB384:
 1079              	.LBI384:
  49:D:/fchai/work/i-cube/I-CUBE-HUAWEI/Drivers/BSP/Components/lis2dw12\lis2dw12_reg.c ****                           uint16_t len)
 1080              		.loc 1 49 9 view .LVU277
 1081              	.LBB385:
  52:D:/fchai/work/i-cube/I-CUBE-HUAWEI/Drivers/BSP/Components/lis2dw12\lis2dw12_reg.c ****   ret = ctx->read_reg(ctx->handle, reg, data, len);
 1082              		.loc 1 52 3 view .LVU278
  53:D:/fchai/work/i-cube/I-CUBE-HUAWEI/Drivers/BSP/Components/lis2dw12\lis2dw12_reg.c ****   return ret;
 1083              		.loc 1 53 3 view .LVU279
  53:D:/fchai/work/i-cube/I-CUBE-HUAWEI/Drivers/BSP/Components/lis2dw12\lis2dw12_reg.c ****   return ret;
 1084              		.loc 1 53 9 is_stmt 0 view .LVU280
 1085 0016 0123     		movs	r3, #1
 1086 0018 01AA     		add	r2, sp, #4
 1087              	.LVL60:
  53:D:/fchai/work/i-cube/I-CUBE-HUAWEI/Drivers/BSP/Components/lis2dw12\lis2dw12_reg.c ****   return ret;
 1088              		.loc 1 53 9 view .LVU281
 1089 001a D4E90160 		ldrd	r6, r0, [r4, #4]
 1090              	.LVL61:
  53:D:/fchai/work/i-cube/I-CUBE-HUAWEI/Drivers/BSP/Components/lis2dw12\lis2dw12_reg.c ****   return ret;
 1091              		.loc 1 53 9 view .LVU282
 1092 001e 2221     		movs	r1, #34
 1093 0020 B047     		blx	r6
 1094              	.LVL62:
  53:D:/fchai/work/i-cube/I-CUBE-HUAWEI/Drivers/BSP/Components/lis2dw12\lis2dw12_reg.c ****   return ret;
 1095              		.loc 1 53 9 view .LVU283
ARM GAS  T:\msys\tmp\ccye0a00.s 			page 28


 1096              	.LBE385:
 1097              	.LBE384:
 305:D:/fchai/work/i-cube/I-CUBE-HUAWEI/Drivers/BSP/Components/lis2dw12\lis2dw12_reg.c **** 
 306:D:/fchai/work/i-cube/I-CUBE-HUAWEI/Drivers/BSP/Components/lis2dw12\lis2dw12_reg.c ****     switch ((ctrl3.slp_mode << 4) + ctrl1.odr) {
 1098              		.loc 1 306 19 view .LVU284
 1099 0022 9DF80420 		ldrb	r2, [sp, #4]	@ zero_extendqisi2
 1100              		.loc 1 306 42 view .LVU285
 1101 0026 9DF80030 		ldrb	r3, [sp]	@ zero_extendqisi2
 1102              		.loc 1 306 19 view .LVU286
 1103 002a 02F00302 		and	r2, r2, #3
 1104              		.loc 1 306 42 view .LVU287
 1105 002e 1B09     		lsrs	r3, r3, #4
 1106              		.loc 1 306 35 view .LVU288
 1107 0030 03EB0213 		add	r3, r3, r2, lsl #4
 1108              	.LVL63:
 1109              	.LBB387:
 1110              	.LBB386:
  54:D:/fchai/work/i-cube/I-CUBE-HUAWEI/Drivers/BSP/Components/lis2dw12\lis2dw12_reg.c **** }
 1111              		.loc 1 54 3 is_stmt 1 view .LVU289
  54:D:/fchai/work/i-cube/I-CUBE-HUAWEI/Drivers/BSP/Components/lis2dw12\lis2dw12_reg.c **** }
 1112              		.loc 1 54 3 is_stmt 0 view .LVU290
 1113              	.LBE386:
 1114              	.LBE387:
 1115              		.loc 1 306 5 is_stmt 1 view .LVU291
 1116 0034 322B     		cmp	r3, #50
 1117 0036 1BD8     		bhi	.L64
 1118 0038 DFE803F0 		tbb	[pc, r3]
 1119              	.L66:
 1120 003c 1A       		.byte	(.L64-.L66)/2
 1121 003d 3C       		.byte	(.L76-.L66)/2
 1122 003e 39       		.byte	(.L75-.L66)/2
 1123 003f 36       		.byte	(.L74-.L66)/2
 1124 0040 33       		.byte	(.L73-.L66)/2
 1125 0041 30       		.byte	(.L72-.L66)/2
 1126 0042 2D       		.byte	(.L71-.L66)/2
 1127 0043 2A       		.byte	(.L70-.L66)/2
 1128 0044 27       		.byte	(.L69-.L66)/2
 1129 0045 24       		.byte	(.L68-.L66)/2
 1130 0046 1A       		.byte	(.L64-.L66)/2
 1131 0047 1A       		.byte	(.L64-.L66)/2
 1132 0048 1A       		.byte	(.L64-.L66)/2
 1133 0049 1A       		.byte	(.L64-.L66)/2
 1134 004a 1A       		.byte	(.L64-.L66)/2
 1135 004b 1A       		.byte	(.L64-.L66)/2
 1136 004c 1A       		.byte	(.L64-.L66)/2
 1137 004d 1A       		.byte	(.L64-.L66)/2
 1138 004e 1A       		.byte	(.L64-.L66)/2
 1139 004f 1A       		.byte	(.L64-.L66)/2
 1140 0050 1A       		.byte	(.L64-.L66)/2
 1141 0051 1A       		.byte	(.L64-.L66)/2
 1142 0052 1A       		.byte	(.L64-.L66)/2
 1143 0053 1A       		.byte	(.L64-.L66)/2
 1144 0054 1A       		.byte	(.L64-.L66)/2
 1145 0055 1A       		.byte	(.L64-.L66)/2
 1146 0056 1A       		.byte	(.L64-.L66)/2
 1147 0057 1A       		.byte	(.L64-.L66)/2
 1148 0058 1A       		.byte	(.L64-.L66)/2
ARM GAS  T:\msys\tmp\ccye0a00.s 			page 29


 1149 0059 1A       		.byte	(.L64-.L66)/2
 1150 005a 1A       		.byte	(.L64-.L66)/2
 1151 005b 1A       		.byte	(.L64-.L66)/2
 1152 005c 1A       		.byte	(.L64-.L66)/2
 1153 005d 1A       		.byte	(.L64-.L66)/2
 1154 005e 21       		.byte	(.L67-.L66)/2
 1155 005f 1A       		.byte	(.L64-.L66)/2
 1156 0060 1A       		.byte	(.L64-.L66)/2
 1157 0061 1A       		.byte	(.L64-.L66)/2
 1158 0062 1A       		.byte	(.L64-.L66)/2
 1159 0063 1A       		.byte	(.L64-.L66)/2
 1160 0064 1A       		.byte	(.L64-.L66)/2
 1161 0065 1A       		.byte	(.L64-.L66)/2
 1162 0066 1A       		.byte	(.L64-.L66)/2
 1163 0067 1A       		.byte	(.L64-.L66)/2
 1164 0068 1A       		.byte	(.L64-.L66)/2
 1165 0069 1A       		.byte	(.L64-.L66)/2
 1166 006a 1A       		.byte	(.L64-.L66)/2
 1167 006b 1A       		.byte	(.L64-.L66)/2
 1168 006c 1A       		.byte	(.L64-.L66)/2
 1169 006d 1A       		.byte	(.L64-.L66)/2
 1170 006e 1E       		.byte	(.L65-.L66)/2
 1171 006f 00       		.p2align 1
 1172              	.L64:
 307:D:/fchai/work/i-cube/I-CUBE-HUAWEI/Drivers/BSP/Components/lis2dw12\lis2dw12_reg.c ****       case LIS2DW12_XL_ODR_OFF:
 308:D:/fchai/work/i-cube/I-CUBE-HUAWEI/Drivers/BSP/Components/lis2dw12\lis2dw12_reg.c ****         *val = LIS2DW12_XL_ODR_OFF;
 309:D:/fchai/work/i-cube/I-CUBE-HUAWEI/Drivers/BSP/Components/lis2dw12\lis2dw12_reg.c ****         break;
 310:D:/fchai/work/i-cube/I-CUBE-HUAWEI/Drivers/BSP/Components/lis2dw12\lis2dw12_reg.c ****       case LIS2DW12_XL_ODR_1Hz6_LP_ONLY:
 311:D:/fchai/work/i-cube/I-CUBE-HUAWEI/Drivers/BSP/Components/lis2dw12\lis2dw12_reg.c ****         *val = LIS2DW12_XL_ODR_1Hz6_LP_ONLY;
 312:D:/fchai/work/i-cube/I-CUBE-HUAWEI/Drivers/BSP/Components/lis2dw12\lis2dw12_reg.c ****         break;
 313:D:/fchai/work/i-cube/I-CUBE-HUAWEI/Drivers/BSP/Components/lis2dw12\lis2dw12_reg.c ****       case LIS2DW12_XL_ODR_12Hz5:
 314:D:/fchai/work/i-cube/I-CUBE-HUAWEI/Drivers/BSP/Components/lis2dw12\lis2dw12_reg.c ****         *val = LIS2DW12_XL_ODR_12Hz5;
 315:D:/fchai/work/i-cube/I-CUBE-HUAWEI/Drivers/BSP/Components/lis2dw12\lis2dw12_reg.c ****         break;
 316:D:/fchai/work/i-cube/I-CUBE-HUAWEI/Drivers/BSP/Components/lis2dw12\lis2dw12_reg.c ****       case LIS2DW12_XL_ODR_25Hz:
 317:D:/fchai/work/i-cube/I-CUBE-HUAWEI/Drivers/BSP/Components/lis2dw12\lis2dw12_reg.c ****         *val = LIS2DW12_XL_ODR_25Hz;
 318:D:/fchai/work/i-cube/I-CUBE-HUAWEI/Drivers/BSP/Components/lis2dw12\lis2dw12_reg.c ****         break;
 319:D:/fchai/work/i-cube/I-CUBE-HUAWEI/Drivers/BSP/Components/lis2dw12\lis2dw12_reg.c ****        case LIS2DW12_XL_ODR_50Hz:
 320:D:/fchai/work/i-cube/I-CUBE-HUAWEI/Drivers/BSP/Components/lis2dw12\lis2dw12_reg.c ****         *val = LIS2DW12_XL_ODR_50Hz;
 321:D:/fchai/work/i-cube/I-CUBE-HUAWEI/Drivers/BSP/Components/lis2dw12\lis2dw12_reg.c ****         break;
 322:D:/fchai/work/i-cube/I-CUBE-HUAWEI/Drivers/BSP/Components/lis2dw12\lis2dw12_reg.c ****       case LIS2DW12_XL_ODR_100Hz:
 323:D:/fchai/work/i-cube/I-CUBE-HUAWEI/Drivers/BSP/Components/lis2dw12\lis2dw12_reg.c ****         *val = LIS2DW12_XL_ODR_100Hz;
 324:D:/fchai/work/i-cube/I-CUBE-HUAWEI/Drivers/BSP/Components/lis2dw12\lis2dw12_reg.c ****         break;
 325:D:/fchai/work/i-cube/I-CUBE-HUAWEI/Drivers/BSP/Components/lis2dw12\lis2dw12_reg.c ****       case LIS2DW12_XL_ODR_200Hz:
 326:D:/fchai/work/i-cube/I-CUBE-HUAWEI/Drivers/BSP/Components/lis2dw12\lis2dw12_reg.c ****         *val = LIS2DW12_XL_ODR_200Hz;
 327:D:/fchai/work/i-cube/I-CUBE-HUAWEI/Drivers/BSP/Components/lis2dw12\lis2dw12_reg.c ****         break;
 328:D:/fchai/work/i-cube/I-CUBE-HUAWEI/Drivers/BSP/Components/lis2dw12\lis2dw12_reg.c ****       case LIS2DW12_XL_ODR_400Hz:
 329:D:/fchai/work/i-cube/I-CUBE-HUAWEI/Drivers/BSP/Components/lis2dw12\lis2dw12_reg.c ****         *val = LIS2DW12_XL_ODR_400Hz;
 330:D:/fchai/work/i-cube/I-CUBE-HUAWEI/Drivers/BSP/Components/lis2dw12\lis2dw12_reg.c ****         break;
 331:D:/fchai/work/i-cube/I-CUBE-HUAWEI/Drivers/BSP/Components/lis2dw12\lis2dw12_reg.c ****        case LIS2DW12_XL_ODR_800Hz:
 332:D:/fchai/work/i-cube/I-CUBE-HUAWEI/Drivers/BSP/Components/lis2dw12\lis2dw12_reg.c ****         *val = LIS2DW12_XL_ODR_800Hz;
 333:D:/fchai/work/i-cube/I-CUBE-HUAWEI/Drivers/BSP/Components/lis2dw12\lis2dw12_reg.c ****         break;
 334:D:/fchai/work/i-cube/I-CUBE-HUAWEI/Drivers/BSP/Components/lis2dw12\lis2dw12_reg.c ****       case LIS2DW12_XL_ODR_1k6Hz:
 335:D:/fchai/work/i-cube/I-CUBE-HUAWEI/Drivers/BSP/Components/lis2dw12\lis2dw12_reg.c ****         *val = LIS2DW12_XL_ODR_1k6Hz;
 336:D:/fchai/work/i-cube/I-CUBE-HUAWEI/Drivers/BSP/Components/lis2dw12\lis2dw12_reg.c ****         break;
 337:D:/fchai/work/i-cube/I-CUBE-HUAWEI/Drivers/BSP/Components/lis2dw12\lis2dw12_reg.c ****       case LIS2DW12_XL_SET_SW_TRIG:
 338:D:/fchai/work/i-cube/I-CUBE-HUAWEI/Drivers/BSP/Components/lis2dw12\lis2dw12_reg.c ****         *val = LIS2DW12_XL_SET_SW_TRIG;
 339:D:/fchai/work/i-cube/I-CUBE-HUAWEI/Drivers/BSP/Components/lis2dw12\lis2dw12_reg.c ****         break;
ARM GAS  T:\msys\tmp\ccye0a00.s 			page 30


 340:D:/fchai/work/i-cube/I-CUBE-HUAWEI/Drivers/BSP/Components/lis2dw12\lis2dw12_reg.c ****       case LIS2DW12_XL_SET_PIN_TRIG:
 341:D:/fchai/work/i-cube/I-CUBE-HUAWEI/Drivers/BSP/Components/lis2dw12\lis2dw12_reg.c ****         *val = LIS2DW12_XL_SET_PIN_TRIG;
 342:D:/fchai/work/i-cube/I-CUBE-HUAWEI/Drivers/BSP/Components/lis2dw12\lis2dw12_reg.c ****         break;
 343:D:/fchai/work/i-cube/I-CUBE-HUAWEI/Drivers/BSP/Components/lis2dw12\lis2dw12_reg.c ****       default:
 344:D:/fchai/work/i-cube/I-CUBE-HUAWEI/Drivers/BSP/Components/lis2dw12\lis2dw12_reg.c ****         *val = LIS2DW12_XL_ODR_OFF;
 1173              		.loc 1 344 9 view .LVU292
 1174              		.loc 1 344 14 is_stmt 0 view .LVU293
 1175 0070 0023     		movs	r3, #0
 1176 0072 2B70     		strb	r3, [r5]
 345:D:/fchai/work/i-cube/I-CUBE-HUAWEI/Drivers/BSP/Components/lis2dw12\lis2dw12_reg.c ****         break;
 1177              		.loc 1 345 9 is_stmt 1 view .LVU294
 346:D:/fchai/work/i-cube/I-CUBE-HUAWEI/Drivers/BSP/Components/lis2dw12\lis2dw12_reg.c ****     }
 347:D:/fchai/work/i-cube/I-CUBE-HUAWEI/Drivers/BSP/Components/lis2dw12\lis2dw12_reg.c ****   }
 348:D:/fchai/work/i-cube/I-CUBE-HUAWEI/Drivers/BSP/Components/lis2dw12\lis2dw12_reg.c ****   return ret;
 1178              		.loc 1 348 3 view .LVU295
 1179              	.L62:
 349:D:/fchai/work/i-cube/I-CUBE-HUAWEI/Drivers/BSP/Components/lis2dw12\lis2dw12_reg.c **** }
 1180              		.loc 1 349 1 is_stmt 0 view .LVU296
 1181 0074 02B0     		add	sp, sp, #8
 1182              	.LCFI16:
 1183              		.cfi_remember_state
 1184              		.cfi_def_cfa_offset 16
 1185              		@ sp needed
 1186 0076 70BD     		pop	{r4, r5, r6, pc}
 1187              	.LVL64:
 1188              	.L65:
 1189              	.LCFI17:
 1190              		.cfi_restore_state
 338:D:/fchai/work/i-cube/I-CUBE-HUAWEI/Drivers/BSP/Components/lis2dw12\lis2dw12_reg.c ****         break;
 1191              		.loc 1 338 9 is_stmt 1 view .LVU297
 338:D:/fchai/work/i-cube/I-CUBE-HUAWEI/Drivers/BSP/Components/lis2dw12\lis2dw12_reg.c ****         break;
 1192              		.loc 1 338 14 is_stmt 0 view .LVU298
 1193 0078 3223     		movs	r3, #50
 1194 007a 2B70     		strb	r3, [r5]
 339:D:/fchai/work/i-cube/I-CUBE-HUAWEI/Drivers/BSP/Components/lis2dw12\lis2dw12_reg.c ****       case LIS2DW12_XL_SET_PIN_TRIG:
 1195              		.loc 1 339 9 is_stmt 1 view .LVU299
 1196 007c FAE7     		b	.L62
 1197              	.L67:
 341:D:/fchai/work/i-cube/I-CUBE-HUAWEI/Drivers/BSP/Components/lis2dw12\lis2dw12_reg.c ****         break;
 1198              		.loc 1 341 9 view .LVU300
 341:D:/fchai/work/i-cube/I-CUBE-HUAWEI/Drivers/BSP/Components/lis2dw12\lis2dw12_reg.c ****         break;
 1199              		.loc 1 341 14 is_stmt 0 view .LVU301
 1200 007e 2223     		movs	r3, #34
 1201 0080 2B70     		strb	r3, [r5]
 342:D:/fchai/work/i-cube/I-CUBE-HUAWEI/Drivers/BSP/Components/lis2dw12\lis2dw12_reg.c ****       default:
 1202              		.loc 1 342 9 is_stmt 1 view .LVU302
 1203 0082 F7E7     		b	.L62
 1204              	.L68:
 335:D:/fchai/work/i-cube/I-CUBE-HUAWEI/Drivers/BSP/Components/lis2dw12\lis2dw12_reg.c ****         break;
 1205              		.loc 1 335 9 view .LVU303
 335:D:/fchai/work/i-cube/I-CUBE-HUAWEI/Drivers/BSP/Components/lis2dw12\lis2dw12_reg.c ****         break;
 1206              		.loc 1 335 14 is_stmt 0 view .LVU304
 1207 0084 0923     		movs	r3, #9
 1208 0086 2B70     		strb	r3, [r5]
 336:D:/fchai/work/i-cube/I-CUBE-HUAWEI/Drivers/BSP/Components/lis2dw12\lis2dw12_reg.c ****       case LIS2DW12_XL_SET_SW_TRIG:
 1209              		.loc 1 336 9 is_stmt 1 view .LVU305
 1210 0088 F4E7     		b	.L62
ARM GAS  T:\msys\tmp\ccye0a00.s 			page 31


 1211              	.L69:
 332:D:/fchai/work/i-cube/I-CUBE-HUAWEI/Drivers/BSP/Components/lis2dw12\lis2dw12_reg.c ****         break;
 1212              		.loc 1 332 9 view .LVU306
 332:D:/fchai/work/i-cube/I-CUBE-HUAWEI/Drivers/BSP/Components/lis2dw12\lis2dw12_reg.c ****         break;
 1213              		.loc 1 332 14 is_stmt 0 view .LVU307
 1214 008a 0823     		movs	r3, #8
 1215 008c 2B70     		strb	r3, [r5]
 333:D:/fchai/work/i-cube/I-CUBE-HUAWEI/Drivers/BSP/Components/lis2dw12\lis2dw12_reg.c ****       case LIS2DW12_XL_ODR_1k6Hz:
 1216              		.loc 1 333 9 is_stmt 1 view .LVU308
 1217 008e F1E7     		b	.L62
 1218              	.L70:
 329:D:/fchai/work/i-cube/I-CUBE-HUAWEI/Drivers/BSP/Components/lis2dw12\lis2dw12_reg.c ****         break;
 1219              		.loc 1 329 9 view .LVU309
 329:D:/fchai/work/i-cube/I-CUBE-HUAWEI/Drivers/BSP/Components/lis2dw12\lis2dw12_reg.c ****         break;
 1220              		.loc 1 329 14 is_stmt 0 view .LVU310
 1221 0090 0723     		movs	r3, #7
 1222 0092 2B70     		strb	r3, [r5]
 330:D:/fchai/work/i-cube/I-CUBE-HUAWEI/Drivers/BSP/Components/lis2dw12\lis2dw12_reg.c ****        case LIS2DW12_XL_ODR_800Hz:
 1223              		.loc 1 330 9 is_stmt 1 view .LVU311
 1224 0094 EEE7     		b	.L62
 1225              	.L71:
 326:D:/fchai/work/i-cube/I-CUBE-HUAWEI/Drivers/BSP/Components/lis2dw12\lis2dw12_reg.c ****         break;
 1226              		.loc 1 326 9 view .LVU312
 326:D:/fchai/work/i-cube/I-CUBE-HUAWEI/Drivers/BSP/Components/lis2dw12\lis2dw12_reg.c ****         break;
 1227              		.loc 1 326 14 is_stmt 0 view .LVU313
 1228 0096 0623     		movs	r3, #6
 1229 0098 2B70     		strb	r3, [r5]
 327:D:/fchai/work/i-cube/I-CUBE-HUAWEI/Drivers/BSP/Components/lis2dw12\lis2dw12_reg.c ****       case LIS2DW12_XL_ODR_400Hz:
 1230              		.loc 1 327 9 is_stmt 1 view .LVU314
 1231 009a EBE7     		b	.L62
 1232              	.L72:
 323:D:/fchai/work/i-cube/I-CUBE-HUAWEI/Drivers/BSP/Components/lis2dw12\lis2dw12_reg.c ****         break;
 1233              		.loc 1 323 9 view .LVU315
 323:D:/fchai/work/i-cube/I-CUBE-HUAWEI/Drivers/BSP/Components/lis2dw12\lis2dw12_reg.c ****         break;
 1234              		.loc 1 323 14 is_stmt 0 view .LVU316
 1235 009c 0523     		movs	r3, #5
 1236 009e 2B70     		strb	r3, [r5]
 324:D:/fchai/work/i-cube/I-CUBE-HUAWEI/Drivers/BSP/Components/lis2dw12\lis2dw12_reg.c ****       case LIS2DW12_XL_ODR_200Hz:
 1237              		.loc 1 324 9 is_stmt 1 view .LVU317
 1238 00a0 E8E7     		b	.L62
 1239              	.L73:
 320:D:/fchai/work/i-cube/I-CUBE-HUAWEI/Drivers/BSP/Components/lis2dw12\lis2dw12_reg.c ****         break;
 1240              		.loc 1 320 9 view .LVU318
 320:D:/fchai/work/i-cube/I-CUBE-HUAWEI/Drivers/BSP/Components/lis2dw12\lis2dw12_reg.c ****         break;
 1241              		.loc 1 320 14 is_stmt 0 view .LVU319
 1242 00a2 0423     		movs	r3, #4
 1243 00a4 2B70     		strb	r3, [r5]
 321:D:/fchai/work/i-cube/I-CUBE-HUAWEI/Drivers/BSP/Components/lis2dw12\lis2dw12_reg.c ****       case LIS2DW12_XL_ODR_100Hz:
 1244              		.loc 1 321 9 is_stmt 1 view .LVU320
 1245 00a6 E5E7     		b	.L62
 1246              	.L74:
 317:D:/fchai/work/i-cube/I-CUBE-HUAWEI/Drivers/BSP/Components/lis2dw12\lis2dw12_reg.c ****         break;
 1247              		.loc 1 317 9 view .LVU321
 317:D:/fchai/work/i-cube/I-CUBE-HUAWEI/Drivers/BSP/Components/lis2dw12\lis2dw12_reg.c ****         break;
 1248              		.loc 1 317 14 is_stmt 0 view .LVU322
 1249 00a8 0323     		movs	r3, #3
 1250 00aa 2B70     		strb	r3, [r5]
ARM GAS  T:\msys\tmp\ccye0a00.s 			page 32


 318:D:/fchai/work/i-cube/I-CUBE-HUAWEI/Drivers/BSP/Components/lis2dw12\lis2dw12_reg.c ****        case LIS2DW12_XL_ODR_50Hz:
 1251              		.loc 1 318 9 is_stmt 1 view .LVU323
 1252 00ac E2E7     		b	.L62
 1253              	.L75:
 314:D:/fchai/work/i-cube/I-CUBE-HUAWEI/Drivers/BSP/Components/lis2dw12\lis2dw12_reg.c ****         break;
 1254              		.loc 1 314 9 view .LVU324
 314:D:/fchai/work/i-cube/I-CUBE-HUAWEI/Drivers/BSP/Components/lis2dw12\lis2dw12_reg.c ****         break;
 1255              		.loc 1 314 14 is_stmt 0 view .LVU325
 1256 00ae 0223     		movs	r3, #2
 1257 00b0 2B70     		strb	r3, [r5]
 315:D:/fchai/work/i-cube/I-CUBE-HUAWEI/Drivers/BSP/Components/lis2dw12\lis2dw12_reg.c ****       case LIS2DW12_XL_ODR_25Hz:
 1258              		.loc 1 315 9 is_stmt 1 view .LVU326
 1259 00b2 DFE7     		b	.L62
 1260              	.L76:
 311:D:/fchai/work/i-cube/I-CUBE-HUAWEI/Drivers/BSP/Components/lis2dw12\lis2dw12_reg.c ****         break;
 1261              		.loc 1 311 9 view .LVU327
 311:D:/fchai/work/i-cube/I-CUBE-HUAWEI/Drivers/BSP/Components/lis2dw12\lis2dw12_reg.c ****         break;
 1262              		.loc 1 311 14 is_stmt 0 view .LVU328
 1263 00b4 0123     		movs	r3, #1
 1264 00b6 2B70     		strb	r3, [r5]
 312:D:/fchai/work/i-cube/I-CUBE-HUAWEI/Drivers/BSP/Components/lis2dw12\lis2dw12_reg.c ****       case LIS2DW12_XL_ODR_12Hz5:
 1265              		.loc 1 312 9 is_stmt 1 view .LVU329
 1266 00b8 DCE7     		b	.L62
 1267              		.cfi_endproc
 1268              	.LFE14:
 1270 00ba 00BF     		.section	.text.lis2dw12_block_data_update_set,"ax",%progbits
 1271              		.align	1
 1272              		.p2align 2,,3
 1273              		.global	lis2dw12_block_data_update_set
 1274              		.syntax unified
 1275              		.thumb
 1276              		.thumb_func
 1277              		.fpu fpv4-sp-d16
 1279              	lis2dw12_block_data_update_set:
 1280              	.LVL65:
 1281              	.LFB15:
 350:D:/fchai/work/i-cube/I-CUBE-HUAWEI/Drivers/BSP/Components/lis2dw12\lis2dw12_reg.c **** 
 351:D:/fchai/work/i-cube/I-CUBE-HUAWEI/Drivers/BSP/Components/lis2dw12\lis2dw12_reg.c **** /**
 352:D:/fchai/work/i-cube/I-CUBE-HUAWEI/Drivers/BSP/Components/lis2dw12\lis2dw12_reg.c ****   * @brief  Block data update.[set]
 353:D:/fchai/work/i-cube/I-CUBE-HUAWEI/Drivers/BSP/Components/lis2dw12\lis2dw12_reg.c ****   *
 354:D:/fchai/work/i-cube/I-CUBE-HUAWEI/Drivers/BSP/Components/lis2dw12\lis2dw12_reg.c ****   * @param  ctx      read / write interface definitions
 355:D:/fchai/work/i-cube/I-CUBE-HUAWEI/Drivers/BSP/Components/lis2dw12\lis2dw12_reg.c ****   * @param  val      change the values of bdu in reg CTRL2
 356:D:/fchai/work/i-cube/I-CUBE-HUAWEI/Drivers/BSP/Components/lis2dw12\lis2dw12_reg.c ****   * @retval          interface status (MANDATORY: return 0 -> no Error)
 357:D:/fchai/work/i-cube/I-CUBE-HUAWEI/Drivers/BSP/Components/lis2dw12\lis2dw12_reg.c ****   *
 358:D:/fchai/work/i-cube/I-CUBE-HUAWEI/Drivers/BSP/Components/lis2dw12\lis2dw12_reg.c ****   */
 359:D:/fchai/work/i-cube/I-CUBE-HUAWEI/Drivers/BSP/Components/lis2dw12\lis2dw12_reg.c **** int32_t lis2dw12_block_data_update_set(stmdev_ctx_t *ctx, uint8_t val)
 360:D:/fchai/work/i-cube/I-CUBE-HUAWEI/Drivers/BSP/Components/lis2dw12\lis2dw12_reg.c **** {
 1282              		.loc 1 360 1 view -0
 1283              		.cfi_startproc
 1284              		@ args = 0, pretend = 0, frame = 8
 1285              		@ frame_needed = 0, uses_anonymous_args = 0
 361:D:/fchai/work/i-cube/I-CUBE-HUAWEI/Drivers/BSP/Components/lis2dw12\lis2dw12_reg.c ****   lis2dw12_ctrl2_t reg;
 1286              		.loc 1 361 3 view .LVU331
 362:D:/fchai/work/i-cube/I-CUBE-HUAWEI/Drivers/BSP/Components/lis2dw12\lis2dw12_reg.c ****   int32_t ret;
 1287              		.loc 1 362 3 view .LVU332
 363:D:/fchai/work/i-cube/I-CUBE-HUAWEI/Drivers/BSP/Components/lis2dw12\lis2dw12_reg.c **** 
 364:D:/fchai/work/i-cube/I-CUBE-HUAWEI/Drivers/BSP/Components/lis2dw12\lis2dw12_reg.c ****   ret = lis2dw12_read_reg(ctx, LIS2DW12_CTRL2,(uint8_t*) &reg, 1);
ARM GAS  T:\msys\tmp\ccye0a00.s 			page 33


 1288              		.loc 1 364 3 view .LVU333
 360:D:/fchai/work/i-cube/I-CUBE-HUAWEI/Drivers/BSP/Components/lis2dw12\lis2dw12_reg.c ****   lis2dw12_ctrl2_t reg;
 1289              		.loc 1 360 1 is_stmt 0 view .LVU334
 1290 0000 70B5     		push	{r4, r5, r6, lr}
 1291              	.LCFI18:
 1292              		.cfi_def_cfa_offset 16
 1293              		.cfi_offset 4, -16
 1294              		.cfi_offset 5, -12
 1295              		.cfi_offset 6, -8
 1296              		.cfi_offset 14, -4
 1297 0002 82B0     		sub	sp, sp, #8
 1298              	.LCFI19:
 1299              		.cfi_def_cfa_offset 24
 360:D:/fchai/work/i-cube/I-CUBE-HUAWEI/Drivers/BSP/Components/lis2dw12\lis2dw12_reg.c ****   lis2dw12_ctrl2_t reg;
 1300              		.loc 1 360 1 view .LVU335
 1301 0004 0446     		mov	r4, r0
 1302              	.LVL66:
 1303              	.LBB388:
 1304              	.LBI388:
  49:D:/fchai/work/i-cube/I-CUBE-HUAWEI/Drivers/BSP/Components/lis2dw12\lis2dw12_reg.c ****                           uint16_t len)
 1305              		.loc 1 49 9 is_stmt 1 view .LVU336
 1306              	.LBB389:
  52:D:/fchai/work/i-cube/I-CUBE-HUAWEI/Drivers/BSP/Components/lis2dw12\lis2dw12_reg.c ****   ret = ctx->read_reg(ctx->handle, reg, data, len);
 1307              		.loc 1 52 3 view .LVU337
  53:D:/fchai/work/i-cube/I-CUBE-HUAWEI/Drivers/BSP/Components/lis2dw12\lis2dw12_reg.c ****   return ret;
 1308              		.loc 1 53 3 view .LVU338
 1309              	.LBE389:
 1310              	.LBE388:
 360:D:/fchai/work/i-cube/I-CUBE-HUAWEI/Drivers/BSP/Components/lis2dw12\lis2dw12_reg.c ****   lis2dw12_ctrl2_t reg;
 1311              		.loc 1 360 1 is_stmt 0 view .LVU339
 1312 0006 0D46     		mov	r5, r1
 1313              	.LBB391:
 1314              	.LBB390:
  53:D:/fchai/work/i-cube/I-CUBE-HUAWEI/Drivers/BSP/Components/lis2dw12\lis2dw12_reg.c ****   return ret;
 1315              		.loc 1 53 9 view .LVU340
 1316 0008 D0E90160 		ldrd	r6, r0, [r0, #4]
 1317              	.LVL67:
  53:D:/fchai/work/i-cube/I-CUBE-HUAWEI/Drivers/BSP/Components/lis2dw12\lis2dw12_reg.c ****   return ret;
 1318              		.loc 1 53 9 view .LVU341
 1319 000c 01AA     		add	r2, sp, #4
 1320              	.LVL68:
  53:D:/fchai/work/i-cube/I-CUBE-HUAWEI/Drivers/BSP/Components/lis2dw12\lis2dw12_reg.c ****   return ret;
 1321              		.loc 1 53 9 view .LVU342
 1322 000e 0123     		movs	r3, #1
 1323 0010 2121     		movs	r1, #33
 1324              	.LVL69:
  53:D:/fchai/work/i-cube/I-CUBE-HUAWEI/Drivers/BSP/Components/lis2dw12\lis2dw12_reg.c ****   return ret;
 1325              		.loc 1 53 9 view .LVU343
 1326 0012 B047     		blx	r6
 1327              	.LVL70:
  54:D:/fchai/work/i-cube/I-CUBE-HUAWEI/Drivers/BSP/Components/lis2dw12\lis2dw12_reg.c **** }
 1328              		.loc 1 54 3 is_stmt 1 view .LVU344
  54:D:/fchai/work/i-cube/I-CUBE-HUAWEI/Drivers/BSP/Components/lis2dw12\lis2dw12_reg.c **** }
 1329              		.loc 1 54 3 is_stmt 0 view .LVU345
 1330              	.LBE390:
 1331              	.LBE391:
 365:D:/fchai/work/i-cube/I-CUBE-HUAWEI/Drivers/BSP/Components/lis2dw12\lis2dw12_reg.c ****   if (ret == 0) {
ARM GAS  T:\msys\tmp\ccye0a00.s 			page 34


 1332              		.loc 1 365 3 is_stmt 1 view .LVU346
 1333              		.loc 1 365 6 is_stmt 0 view .LVU347
 1334 0014 58B9     		cbnz	r0, .L79
 366:D:/fchai/work/i-cube/I-CUBE-HUAWEI/Drivers/BSP/Components/lis2dw12\lis2dw12_reg.c ****     reg.bdu = val;
 1335              		.loc 1 366 5 is_stmt 1 view .LVU348
 1336              		.loc 1 366 13 is_stmt 0 view .LVU349
 1337 0016 9DF80430 		ldrb	r3, [sp, #4]	@ zero_extendqisi2
 1338              	.LBB392:
 1339              	.LBB393:
  71:D:/fchai/work/i-cube/I-CUBE-HUAWEI/Drivers/BSP/Components/lis2dw12\lis2dw12_reg.c ****   return ret;
 1340              		.loc 1 71 9 view .LVU350
 1341 001a 2668     		ldr	r6, [r4]
 1342 001c A068     		ldr	r0, [r4, #8]
 1343              	.LVL71:
  71:D:/fchai/work/i-cube/I-CUBE-HUAWEI/Drivers/BSP/Components/lis2dw12\lis2dw12_reg.c ****   return ret;
 1344              		.loc 1 71 9 view .LVU351
 1345              	.LBE393:
 1346              	.LBE392:
 1347              		.loc 1 366 13 view .LVU352
 1348 001e 65F3C303 		bfi	r3, r5, #3, #1
 1349 0022 8DF80430 		strb	r3, [sp, #4]
 367:D:/fchai/work/i-cube/I-CUBE-HUAWEI/Drivers/BSP/Components/lis2dw12\lis2dw12_reg.c ****     ret = lis2dw12_write_reg(ctx, LIS2DW12_CTRL2,(uint8_t*) &reg, 1);
 1350              		.loc 1 367 5 is_stmt 1 view .LVU353
 1351              	.LVL72:
 1352              	.LBB395:
 1353              	.LBI392:
  67:D:/fchai/work/i-cube/I-CUBE-HUAWEI/Drivers/BSP/Components/lis2dw12\lis2dw12_reg.c ****                            uint16_t len)
 1354              		.loc 1 67 9 view .LVU354
 1355              	.LBB394:
  70:D:/fchai/work/i-cube/I-CUBE-HUAWEI/Drivers/BSP/Components/lis2dw12\lis2dw12_reg.c ****   ret = ctx->write_reg(ctx->handle, reg, data, len);
 1356              		.loc 1 70 3 view .LVU355
  71:D:/fchai/work/i-cube/I-CUBE-HUAWEI/Drivers/BSP/Components/lis2dw12\lis2dw12_reg.c ****   return ret;
 1357              		.loc 1 71 3 view .LVU356
  71:D:/fchai/work/i-cube/I-CUBE-HUAWEI/Drivers/BSP/Components/lis2dw12\lis2dw12_reg.c ****   return ret;
 1358              		.loc 1 71 9 is_stmt 0 view .LVU357
 1359 0026 01AA     		add	r2, sp, #4
 1360              	.LVL73:
  71:D:/fchai/work/i-cube/I-CUBE-HUAWEI/Drivers/BSP/Components/lis2dw12\lis2dw12_reg.c ****   return ret;
 1361              		.loc 1 71 9 view .LVU358
 1362 0028 0123     		movs	r3, #1
 1363 002a 2121     		movs	r1, #33
 1364 002c B047     		blx	r6
 1365              	.LVL74:
  72:D:/fchai/work/i-cube/I-CUBE-HUAWEI/Drivers/BSP/Components/lis2dw12\lis2dw12_reg.c **** }
 1366              		.loc 1 72 3 is_stmt 1 view .LVU359
  72:D:/fchai/work/i-cube/I-CUBE-HUAWEI/Drivers/BSP/Components/lis2dw12\lis2dw12_reg.c **** }
 1367              		.loc 1 72 3 is_stmt 0 view .LVU360
 1368              	.LBE394:
 1369              	.LBE395:
 368:D:/fchai/work/i-cube/I-CUBE-HUAWEI/Drivers/BSP/Components/lis2dw12\lis2dw12_reg.c ****   }
 369:D:/fchai/work/i-cube/I-CUBE-HUAWEI/Drivers/BSP/Components/lis2dw12\lis2dw12_reg.c ****   return ret;
 1370              		.loc 1 369 3 is_stmt 1 view .LVU361
 1371              	.L79:
 370:D:/fchai/work/i-cube/I-CUBE-HUAWEI/Drivers/BSP/Components/lis2dw12\lis2dw12_reg.c **** }
 1372              		.loc 1 370 1 is_stmt 0 view .LVU362
 1373 002e 02B0     		add	sp, sp, #8
 1374              	.LCFI20:
ARM GAS  T:\msys\tmp\ccye0a00.s 			page 35


 1375              		.cfi_def_cfa_offset 16
 1376              		@ sp needed
 1377 0030 70BD     		pop	{r4, r5, r6, pc}
 1378              		.loc 1 370 1 view .LVU363
 1379              		.cfi_endproc
 1380              	.LFE15:
 1382 0032 00BF     		.section	.text.lis2dw12_block_data_update_get,"ax",%progbits
 1383              		.align	1
 1384              		.p2align 2,,3
 1385              		.global	lis2dw12_block_data_update_get
 1386              		.syntax unified
 1387              		.thumb
 1388              		.thumb_func
 1389              		.fpu fpv4-sp-d16
 1391              	lis2dw12_block_data_update_get:
 1392              	.LVL75:
 1393              	.LFB16:
 371:D:/fchai/work/i-cube/I-CUBE-HUAWEI/Drivers/BSP/Components/lis2dw12\lis2dw12_reg.c **** 
 372:D:/fchai/work/i-cube/I-CUBE-HUAWEI/Drivers/BSP/Components/lis2dw12\lis2dw12_reg.c **** /**
 373:D:/fchai/work/i-cube/I-CUBE-HUAWEI/Drivers/BSP/Components/lis2dw12\lis2dw12_reg.c ****   * @brief  Block data update.[get]
 374:D:/fchai/work/i-cube/I-CUBE-HUAWEI/Drivers/BSP/Components/lis2dw12\lis2dw12_reg.c ****   *
 375:D:/fchai/work/i-cube/I-CUBE-HUAWEI/Drivers/BSP/Components/lis2dw12\lis2dw12_reg.c ****   * @param  ctx      read / write interface definitions
 376:D:/fchai/work/i-cube/I-CUBE-HUAWEI/Drivers/BSP/Components/lis2dw12\lis2dw12_reg.c ****   * @param  val      change the values of bdu in reg CTRL2
 377:D:/fchai/work/i-cube/I-CUBE-HUAWEI/Drivers/BSP/Components/lis2dw12\lis2dw12_reg.c ****   * @retval          interface status (MANDATORY: return 0 -> no Error)
 378:D:/fchai/work/i-cube/I-CUBE-HUAWEI/Drivers/BSP/Components/lis2dw12\lis2dw12_reg.c ****   *
 379:D:/fchai/work/i-cube/I-CUBE-HUAWEI/Drivers/BSP/Components/lis2dw12\lis2dw12_reg.c ****   */
 380:D:/fchai/work/i-cube/I-CUBE-HUAWEI/Drivers/BSP/Components/lis2dw12\lis2dw12_reg.c **** int32_t lis2dw12_block_data_update_get(stmdev_ctx_t *ctx, uint8_t *val)
 381:D:/fchai/work/i-cube/I-CUBE-HUAWEI/Drivers/BSP/Components/lis2dw12\lis2dw12_reg.c **** {
 1394              		.loc 1 381 1 is_stmt 1 view -0
 1395              		.cfi_startproc
 1396              		@ args = 0, pretend = 0, frame = 8
 1397              		@ frame_needed = 0, uses_anonymous_args = 0
 382:D:/fchai/work/i-cube/I-CUBE-HUAWEI/Drivers/BSP/Components/lis2dw12\lis2dw12_reg.c ****   lis2dw12_ctrl2_t reg;
 1398              		.loc 1 382 3 view .LVU365
 383:D:/fchai/work/i-cube/I-CUBE-HUAWEI/Drivers/BSP/Components/lis2dw12\lis2dw12_reg.c ****   int32_t ret;
 1399              		.loc 1 383 3 view .LVU366
 384:D:/fchai/work/i-cube/I-CUBE-HUAWEI/Drivers/BSP/Components/lis2dw12\lis2dw12_reg.c **** 
 385:D:/fchai/work/i-cube/I-CUBE-HUAWEI/Drivers/BSP/Components/lis2dw12\lis2dw12_reg.c ****   ret = lis2dw12_read_reg(ctx, LIS2DW12_CTRL2,(uint8_t*) &reg, 1);
 1400              		.loc 1 385 3 view .LVU367
 381:D:/fchai/work/i-cube/I-CUBE-HUAWEI/Drivers/BSP/Components/lis2dw12\lis2dw12_reg.c ****   lis2dw12_ctrl2_t reg;
 1401              		.loc 1 381 1 is_stmt 0 view .LVU368
 1402 0000 30B5     		push	{r4, r5, lr}
 1403              	.LCFI21:
 1404              		.cfi_def_cfa_offset 12
 1405              		.cfi_offset 4, -12
 1406              		.cfi_offset 5, -8
 1407              		.cfi_offset 14, -4
 1408 0002 83B0     		sub	sp, sp, #12
 1409              	.LCFI22:
 1410              		.cfi_def_cfa_offset 24
 1411              	.LVL76:
 1412              	.LBB396:
 1413              	.LBI396:
  49:D:/fchai/work/i-cube/I-CUBE-HUAWEI/Drivers/BSP/Components/lis2dw12\lis2dw12_reg.c ****                           uint16_t len)
 1414              		.loc 1 49 9 is_stmt 1 view .LVU369
 1415              	.LBB397:
  52:D:/fchai/work/i-cube/I-CUBE-HUAWEI/Drivers/BSP/Components/lis2dw12\lis2dw12_reg.c ****   ret = ctx->read_reg(ctx->handle, reg, data, len);
ARM GAS  T:\msys\tmp\ccye0a00.s 			page 36


 1416              		.loc 1 52 3 view .LVU370
  53:D:/fchai/work/i-cube/I-CUBE-HUAWEI/Drivers/BSP/Components/lis2dw12\lis2dw12_reg.c ****   return ret;
 1417              		.loc 1 53 3 view .LVU371
 1418              	.LBE397:
 1419              	.LBE396:
 381:D:/fchai/work/i-cube/I-CUBE-HUAWEI/Drivers/BSP/Components/lis2dw12\lis2dw12_reg.c ****   lis2dw12_ctrl2_t reg;
 1420              		.loc 1 381 1 is_stmt 0 view .LVU372
 1421 0004 0C46     		mov	r4, r1
 1422              	.LBB399:
 1423              	.LBB398:
  53:D:/fchai/work/i-cube/I-CUBE-HUAWEI/Drivers/BSP/Components/lis2dw12\lis2dw12_reg.c ****   return ret;
 1424              		.loc 1 53 9 view .LVU373
 1425 0006 D0E90150 		ldrd	r5, r0, [r0, #4]
 1426              	.LVL77:
  53:D:/fchai/work/i-cube/I-CUBE-HUAWEI/Drivers/BSP/Components/lis2dw12\lis2dw12_reg.c ****   return ret;
 1427              		.loc 1 53 9 view .LVU374
 1428 000a 0123     		movs	r3, #1
 1429 000c 01AA     		add	r2, sp, #4
 1430              	.LVL78:
  53:D:/fchai/work/i-cube/I-CUBE-HUAWEI/Drivers/BSP/Components/lis2dw12\lis2dw12_reg.c ****   return ret;
 1431              		.loc 1 53 9 view .LVU375
 1432 000e 2121     		movs	r1, #33
 1433              	.LVL79:
  53:D:/fchai/work/i-cube/I-CUBE-HUAWEI/Drivers/BSP/Components/lis2dw12\lis2dw12_reg.c ****   return ret;
 1434              		.loc 1 53 9 view .LVU376
 1435 0010 A847     		blx	r5
 1436              	.LVL80:
  54:D:/fchai/work/i-cube/I-CUBE-HUAWEI/Drivers/BSP/Components/lis2dw12\lis2dw12_reg.c **** }
 1437              		.loc 1 54 3 is_stmt 1 view .LVU377
  54:D:/fchai/work/i-cube/I-CUBE-HUAWEI/Drivers/BSP/Components/lis2dw12\lis2dw12_reg.c **** }
 1438              		.loc 1 54 3 is_stmt 0 view .LVU378
 1439              	.LBE398:
 1440              	.LBE399:
 386:D:/fchai/work/i-cube/I-CUBE-HUAWEI/Drivers/BSP/Components/lis2dw12\lis2dw12_reg.c ****   *val = reg.bdu;
 1441              		.loc 1 386 3 is_stmt 1 view .LVU379
 1442              		.loc 1 386 13 is_stmt 0 view .LVU380
 1443 0012 9DF80430 		ldrb	r3, [sp, #4]	@ zero_extendqisi2
 1444 0016 C3F3C003 		ubfx	r3, r3, #3, #1
 1445              		.loc 1 386 8 view .LVU381
 1446 001a 2370     		strb	r3, [r4]
 387:D:/fchai/work/i-cube/I-CUBE-HUAWEI/Drivers/BSP/Components/lis2dw12\lis2dw12_reg.c **** 
 388:D:/fchai/work/i-cube/I-CUBE-HUAWEI/Drivers/BSP/Components/lis2dw12\lis2dw12_reg.c ****   return ret;
 1447              		.loc 1 388 3 is_stmt 1 view .LVU382
 389:D:/fchai/work/i-cube/I-CUBE-HUAWEI/Drivers/BSP/Components/lis2dw12\lis2dw12_reg.c **** }
 1448              		.loc 1 389 1 is_stmt 0 view .LVU383
 1449 001c 03B0     		add	sp, sp, #12
 1450              	.LCFI23:
 1451              		.cfi_def_cfa_offset 12
 1452              		@ sp needed
 1453 001e 30BD     		pop	{r4, r5, pc}
 1454              		.loc 1 389 1 view .LVU384
 1455              		.cfi_endproc
 1456              	.LFE16:
 1458              		.section	.text.lis2dw12_full_scale_set,"ax",%progbits
 1459              		.align	1
 1460              		.p2align 2,,3
 1461              		.global	lis2dw12_full_scale_set
ARM GAS  T:\msys\tmp\ccye0a00.s 			page 37


 1462              		.syntax unified
 1463              		.thumb
 1464              		.thumb_func
 1465              		.fpu fpv4-sp-d16
 1467              	lis2dw12_full_scale_set:
 1468              	.LVL81:
 1469              	.LFB17:
 390:D:/fchai/work/i-cube/I-CUBE-HUAWEI/Drivers/BSP/Components/lis2dw12\lis2dw12_reg.c **** 
 391:D:/fchai/work/i-cube/I-CUBE-HUAWEI/Drivers/BSP/Components/lis2dw12\lis2dw12_reg.c **** /**
 392:D:/fchai/work/i-cube/I-CUBE-HUAWEI/Drivers/BSP/Components/lis2dw12\lis2dw12_reg.c ****   * @brief  Accelerometer full-scale selection.[set]
 393:D:/fchai/work/i-cube/I-CUBE-HUAWEI/Drivers/BSP/Components/lis2dw12\lis2dw12_reg.c ****   *
 394:D:/fchai/work/i-cube/I-CUBE-HUAWEI/Drivers/BSP/Components/lis2dw12\lis2dw12_reg.c ****   * @param  ctx      read / write interface definitions
 395:D:/fchai/work/i-cube/I-CUBE-HUAWEI/Drivers/BSP/Components/lis2dw12\lis2dw12_reg.c ****   * @param  val      change the values of fs in reg CTRL6
 396:D:/fchai/work/i-cube/I-CUBE-HUAWEI/Drivers/BSP/Components/lis2dw12\lis2dw12_reg.c ****   * @retval          interface status (MANDATORY: return 0 -> no Error)
 397:D:/fchai/work/i-cube/I-CUBE-HUAWEI/Drivers/BSP/Components/lis2dw12\lis2dw12_reg.c ****   *
 398:D:/fchai/work/i-cube/I-CUBE-HUAWEI/Drivers/BSP/Components/lis2dw12\lis2dw12_reg.c ****   */
 399:D:/fchai/work/i-cube/I-CUBE-HUAWEI/Drivers/BSP/Components/lis2dw12\lis2dw12_reg.c **** int32_t lis2dw12_full_scale_set(stmdev_ctx_t *ctx, lis2dw12_fs_t val)
 400:D:/fchai/work/i-cube/I-CUBE-HUAWEI/Drivers/BSP/Components/lis2dw12\lis2dw12_reg.c **** {
 1470              		.loc 1 400 1 is_stmt 1 view -0
 1471              		.cfi_startproc
 1472              		@ args = 0, pretend = 0, frame = 8
 1473              		@ frame_needed = 0, uses_anonymous_args = 0
 401:D:/fchai/work/i-cube/I-CUBE-HUAWEI/Drivers/BSP/Components/lis2dw12\lis2dw12_reg.c ****   lis2dw12_ctrl6_t reg;
 1474              		.loc 1 401 3 view .LVU386
 402:D:/fchai/work/i-cube/I-CUBE-HUAWEI/Drivers/BSP/Components/lis2dw12\lis2dw12_reg.c ****   int32_t ret;
 1475              		.loc 1 402 3 view .LVU387
 403:D:/fchai/work/i-cube/I-CUBE-HUAWEI/Drivers/BSP/Components/lis2dw12\lis2dw12_reg.c **** 
 404:D:/fchai/work/i-cube/I-CUBE-HUAWEI/Drivers/BSP/Components/lis2dw12\lis2dw12_reg.c ****   ret = lis2dw12_read_reg(ctx, LIS2DW12_CTRL6,(uint8_t*) &reg, 1);
 1476              		.loc 1 404 3 view .LVU388
 400:D:/fchai/work/i-cube/I-CUBE-HUAWEI/Drivers/BSP/Components/lis2dw12\lis2dw12_reg.c ****   lis2dw12_ctrl6_t reg;
 1477              		.loc 1 400 1 is_stmt 0 view .LVU389
 1478 0000 70B5     		push	{r4, r5, r6, lr}
 1479              	.LCFI24:
 1480              		.cfi_def_cfa_offset 16
 1481              		.cfi_offset 4, -16
 1482              		.cfi_offset 5, -12
 1483              		.cfi_offset 6, -8
 1484              		.cfi_offset 14, -4
 1485 0002 82B0     		sub	sp, sp, #8
 1486              	.LCFI25:
 1487              		.cfi_def_cfa_offset 24
 400:D:/fchai/work/i-cube/I-CUBE-HUAWEI/Drivers/BSP/Components/lis2dw12\lis2dw12_reg.c ****   lis2dw12_ctrl6_t reg;
 1488              		.loc 1 400 1 view .LVU390
 1489 0004 0446     		mov	r4, r0
 1490              	.LVL82:
 1491              	.LBB400:
 1492              	.LBI400:
  49:D:/fchai/work/i-cube/I-CUBE-HUAWEI/Drivers/BSP/Components/lis2dw12\lis2dw12_reg.c ****                           uint16_t len)
 1493              		.loc 1 49 9 is_stmt 1 view .LVU391
 1494              	.LBB401:
  52:D:/fchai/work/i-cube/I-CUBE-HUAWEI/Drivers/BSP/Components/lis2dw12\lis2dw12_reg.c ****   ret = ctx->read_reg(ctx->handle, reg, data, len);
 1495              		.loc 1 52 3 view .LVU392
  53:D:/fchai/work/i-cube/I-CUBE-HUAWEI/Drivers/BSP/Components/lis2dw12\lis2dw12_reg.c ****   return ret;
 1496              		.loc 1 53 3 view .LVU393
 1497              	.LBE401:
 1498              	.LBE400:
 400:D:/fchai/work/i-cube/I-CUBE-HUAWEI/Drivers/BSP/Components/lis2dw12\lis2dw12_reg.c ****   lis2dw12_ctrl6_t reg;
ARM GAS  T:\msys\tmp\ccye0a00.s 			page 38


 1499              		.loc 1 400 1 is_stmt 0 view .LVU394
 1500 0006 0D46     		mov	r5, r1
 1501              	.LBB403:
 1502              	.LBB402:
  53:D:/fchai/work/i-cube/I-CUBE-HUAWEI/Drivers/BSP/Components/lis2dw12\lis2dw12_reg.c ****   return ret;
 1503              		.loc 1 53 9 view .LVU395
 1504 0008 D0E90160 		ldrd	r6, r0, [r0, #4]
 1505              	.LVL83:
  53:D:/fchai/work/i-cube/I-CUBE-HUAWEI/Drivers/BSP/Components/lis2dw12\lis2dw12_reg.c ****   return ret;
 1506              		.loc 1 53 9 view .LVU396
 1507 000c 01AA     		add	r2, sp, #4
 1508              	.LVL84:
  53:D:/fchai/work/i-cube/I-CUBE-HUAWEI/Drivers/BSP/Components/lis2dw12\lis2dw12_reg.c ****   return ret;
 1509              		.loc 1 53 9 view .LVU397
 1510 000e 0123     		movs	r3, #1
 1511 0010 2521     		movs	r1, #37
 1512              	.LVL85:
  53:D:/fchai/work/i-cube/I-CUBE-HUAWEI/Drivers/BSP/Components/lis2dw12\lis2dw12_reg.c ****   return ret;
 1513              		.loc 1 53 9 view .LVU398
 1514 0012 B047     		blx	r6
 1515              	.LVL86:
  54:D:/fchai/work/i-cube/I-CUBE-HUAWEI/Drivers/BSP/Components/lis2dw12\lis2dw12_reg.c **** }
 1516              		.loc 1 54 3 is_stmt 1 view .LVU399
  54:D:/fchai/work/i-cube/I-CUBE-HUAWEI/Drivers/BSP/Components/lis2dw12\lis2dw12_reg.c **** }
 1517              		.loc 1 54 3 is_stmt 0 view .LVU400
 1518              	.LBE402:
 1519              	.LBE403:
 405:D:/fchai/work/i-cube/I-CUBE-HUAWEI/Drivers/BSP/Components/lis2dw12\lis2dw12_reg.c ****   if (ret == 0) {
 1520              		.loc 1 405 3 is_stmt 1 view .LVU401
 1521              		.loc 1 405 6 is_stmt 0 view .LVU402
 1522 0014 58B9     		cbnz	r0, .L84
 406:D:/fchai/work/i-cube/I-CUBE-HUAWEI/Drivers/BSP/Components/lis2dw12\lis2dw12_reg.c ****     reg.fs = (uint8_t) val;
 1523              		.loc 1 406 5 is_stmt 1 view .LVU403
 1524              		.loc 1 406 12 is_stmt 0 view .LVU404
 1525 0016 9DF80430 		ldrb	r3, [sp, #4]	@ zero_extendqisi2
 1526              	.LBB404:
 1527              	.LBB405:
  71:D:/fchai/work/i-cube/I-CUBE-HUAWEI/Drivers/BSP/Components/lis2dw12\lis2dw12_reg.c ****   return ret;
 1528              		.loc 1 71 9 view .LVU405
 1529 001a 2668     		ldr	r6, [r4]
 1530 001c A068     		ldr	r0, [r4, #8]
 1531              	.LVL87:
  71:D:/fchai/work/i-cube/I-CUBE-HUAWEI/Drivers/BSP/Components/lis2dw12\lis2dw12_reg.c ****   return ret;
 1532              		.loc 1 71 9 view .LVU406
 1533              	.LBE405:
 1534              	.LBE404:
 1535              		.loc 1 406 12 view .LVU407
 1536 001e 65F30513 		bfi	r3, r5, #4, #2
 1537 0022 8DF80430 		strb	r3, [sp, #4]
 407:D:/fchai/work/i-cube/I-CUBE-HUAWEI/Drivers/BSP/Components/lis2dw12\lis2dw12_reg.c ****     ret = lis2dw12_write_reg(ctx, LIS2DW12_CTRL6,(uint8_t*) &reg, 1);
 1538              		.loc 1 407 5 is_stmt 1 view .LVU408
 1539              	.LVL88:
 1540              	.LBB407:
 1541              	.LBI404:
  67:D:/fchai/work/i-cube/I-CUBE-HUAWEI/Drivers/BSP/Components/lis2dw12\lis2dw12_reg.c ****                            uint16_t len)
 1542              		.loc 1 67 9 view .LVU409
 1543              	.LBB406:
ARM GAS  T:\msys\tmp\ccye0a00.s 			page 39


  70:D:/fchai/work/i-cube/I-CUBE-HUAWEI/Drivers/BSP/Components/lis2dw12\lis2dw12_reg.c ****   ret = ctx->write_reg(ctx->handle, reg, data, len);
 1544              		.loc 1 70 3 view .LVU410
  71:D:/fchai/work/i-cube/I-CUBE-HUAWEI/Drivers/BSP/Components/lis2dw12\lis2dw12_reg.c ****   return ret;
 1545              		.loc 1 71 3 view .LVU411
  71:D:/fchai/work/i-cube/I-CUBE-HUAWEI/Drivers/BSP/Components/lis2dw12\lis2dw12_reg.c ****   return ret;
 1546              		.loc 1 71 9 is_stmt 0 view .LVU412
 1547 0026 01AA     		add	r2, sp, #4
 1548              	.LVL89:
  71:D:/fchai/work/i-cube/I-CUBE-HUAWEI/Drivers/BSP/Components/lis2dw12\lis2dw12_reg.c ****   return ret;
 1549              		.loc 1 71 9 view .LVU413
 1550 0028 0123     		movs	r3, #1
 1551 002a 2521     		movs	r1, #37
 1552 002c B047     		blx	r6
 1553              	.LVL90:
  72:D:/fchai/work/i-cube/I-CUBE-HUAWEI/Drivers/BSP/Components/lis2dw12\lis2dw12_reg.c **** }
 1554              		.loc 1 72 3 is_stmt 1 view .LVU414
  72:D:/fchai/work/i-cube/I-CUBE-HUAWEI/Drivers/BSP/Components/lis2dw12\lis2dw12_reg.c **** }
 1555              		.loc 1 72 3 is_stmt 0 view .LVU415
 1556              	.LBE406:
 1557              	.LBE407:
 408:D:/fchai/work/i-cube/I-CUBE-HUAWEI/Drivers/BSP/Components/lis2dw12\lis2dw12_reg.c ****   }
 409:D:/fchai/work/i-cube/I-CUBE-HUAWEI/Drivers/BSP/Components/lis2dw12\lis2dw12_reg.c ****   return ret;
 1558              		.loc 1 409 3 is_stmt 1 view .LVU416
 1559              	.L84:
 410:D:/fchai/work/i-cube/I-CUBE-HUAWEI/Drivers/BSP/Components/lis2dw12\lis2dw12_reg.c **** }
 1560              		.loc 1 410 1 is_stmt 0 view .LVU417
 1561 002e 02B0     		add	sp, sp, #8
 1562              	.LCFI26:
 1563              		.cfi_def_cfa_offset 16
 1564              		@ sp needed
 1565 0030 70BD     		pop	{r4, r5, r6, pc}
 1566              		.loc 1 410 1 view .LVU418
 1567              		.cfi_endproc
 1568              	.LFE17:
 1570 0032 00BF     		.section	.text.lis2dw12_full_scale_get,"ax",%progbits
 1571              		.align	1
 1572              		.p2align 2,,3
 1573              		.global	lis2dw12_full_scale_get
 1574              		.syntax unified
 1575              		.thumb
 1576              		.thumb_func
 1577              		.fpu fpv4-sp-d16
 1579              	lis2dw12_full_scale_get:
 1580              	.LVL91:
 1581              	.LFB18:
 411:D:/fchai/work/i-cube/I-CUBE-HUAWEI/Drivers/BSP/Components/lis2dw12\lis2dw12_reg.c **** 
 412:D:/fchai/work/i-cube/I-CUBE-HUAWEI/Drivers/BSP/Components/lis2dw12\lis2dw12_reg.c **** /**
 413:D:/fchai/work/i-cube/I-CUBE-HUAWEI/Drivers/BSP/Components/lis2dw12\lis2dw12_reg.c ****   * @brief  Accelerometer full-scale selection.[get]
 414:D:/fchai/work/i-cube/I-CUBE-HUAWEI/Drivers/BSP/Components/lis2dw12\lis2dw12_reg.c ****   *
 415:D:/fchai/work/i-cube/I-CUBE-HUAWEI/Drivers/BSP/Components/lis2dw12\lis2dw12_reg.c ****   * @param  ctx      read / write interface definitions
 416:D:/fchai/work/i-cube/I-CUBE-HUAWEI/Drivers/BSP/Components/lis2dw12\lis2dw12_reg.c ****   * @param  val      Get the values of fs in reg CTRL6
 417:D:/fchai/work/i-cube/I-CUBE-HUAWEI/Drivers/BSP/Components/lis2dw12\lis2dw12_reg.c ****   * @retval          interface status (MANDATORY: return 0 -> no Error)
 418:D:/fchai/work/i-cube/I-CUBE-HUAWEI/Drivers/BSP/Components/lis2dw12\lis2dw12_reg.c ****   *
 419:D:/fchai/work/i-cube/I-CUBE-HUAWEI/Drivers/BSP/Components/lis2dw12\lis2dw12_reg.c ****   */
 420:D:/fchai/work/i-cube/I-CUBE-HUAWEI/Drivers/BSP/Components/lis2dw12\lis2dw12_reg.c **** int32_t lis2dw12_full_scale_get(stmdev_ctx_t *ctx, lis2dw12_fs_t *val)
 421:D:/fchai/work/i-cube/I-CUBE-HUAWEI/Drivers/BSP/Components/lis2dw12\lis2dw12_reg.c **** {
 1582              		.loc 1 421 1 is_stmt 1 view -0
ARM GAS  T:\msys\tmp\ccye0a00.s 			page 40


 1583              		.cfi_startproc
 1584              		@ args = 0, pretend = 0, frame = 8
 1585              		@ frame_needed = 0, uses_anonymous_args = 0
 422:D:/fchai/work/i-cube/I-CUBE-HUAWEI/Drivers/BSP/Components/lis2dw12\lis2dw12_reg.c ****   lis2dw12_ctrl6_t reg;
 1586              		.loc 1 422 3 view .LVU420
 423:D:/fchai/work/i-cube/I-CUBE-HUAWEI/Drivers/BSP/Components/lis2dw12\lis2dw12_reg.c ****   int32_t ret;
 1587              		.loc 1 423 3 view .LVU421
 424:D:/fchai/work/i-cube/I-CUBE-HUAWEI/Drivers/BSP/Components/lis2dw12\lis2dw12_reg.c **** 
 425:D:/fchai/work/i-cube/I-CUBE-HUAWEI/Drivers/BSP/Components/lis2dw12\lis2dw12_reg.c ****   ret = lis2dw12_read_reg(ctx, LIS2DW12_CTRL6,(uint8_t*) &reg, 1);
 1588              		.loc 1 425 3 view .LVU422
 421:D:/fchai/work/i-cube/I-CUBE-HUAWEI/Drivers/BSP/Components/lis2dw12\lis2dw12_reg.c ****   lis2dw12_ctrl6_t reg;
 1589              		.loc 1 421 1 is_stmt 0 view .LVU423
 1590 0000 30B5     		push	{r4, r5, lr}
 1591              	.LCFI27:
 1592              		.cfi_def_cfa_offset 12
 1593              		.cfi_offset 4, -12
 1594              		.cfi_offset 5, -8
 1595              		.cfi_offset 14, -4
 1596 0002 83B0     		sub	sp, sp, #12
 1597              	.LCFI28:
 1598              		.cfi_def_cfa_offset 24
 1599              	.LVL92:
 1600              	.LBB408:
 1601              	.LBI408:
  49:D:/fchai/work/i-cube/I-CUBE-HUAWEI/Drivers/BSP/Components/lis2dw12\lis2dw12_reg.c ****                           uint16_t len)
 1602              		.loc 1 49 9 is_stmt 1 view .LVU424
 1603              	.LBB409:
  52:D:/fchai/work/i-cube/I-CUBE-HUAWEI/Drivers/BSP/Components/lis2dw12\lis2dw12_reg.c ****   ret = ctx->read_reg(ctx->handle, reg, data, len);
 1604              		.loc 1 52 3 view .LVU425
  53:D:/fchai/work/i-cube/I-CUBE-HUAWEI/Drivers/BSP/Components/lis2dw12\lis2dw12_reg.c ****   return ret;
 1605              		.loc 1 53 3 view .LVU426
  53:D:/fchai/work/i-cube/I-CUBE-HUAWEI/Drivers/BSP/Components/lis2dw12\lis2dw12_reg.c ****   return ret;
 1606              		.loc 1 53 9 is_stmt 0 view .LVU427
 1607 0004 0123     		movs	r3, #1
 1608 0006 01AA     		add	r2, sp, #4
 1609              	.LVL93:
  53:D:/fchai/work/i-cube/I-CUBE-HUAWEI/Drivers/BSP/Components/lis2dw12\lis2dw12_reg.c ****   return ret;
 1610              		.loc 1 53 9 view .LVU428
 1611 0008 D0E90150 		ldrd	r5, r0, [r0, #4]
 1612              	.LVL94:
  53:D:/fchai/work/i-cube/I-CUBE-HUAWEI/Drivers/BSP/Components/lis2dw12\lis2dw12_reg.c ****   return ret;
 1613              		.loc 1 53 9 view .LVU429
 1614              	.LBE409:
 1615              	.LBE408:
 421:D:/fchai/work/i-cube/I-CUBE-HUAWEI/Drivers/BSP/Components/lis2dw12\lis2dw12_reg.c ****   lis2dw12_ctrl6_t reg;
 1616              		.loc 1 421 1 view .LVU430
 1617 000c 0C46     		mov	r4, r1
 1618              	.LBB412:
 1619              	.LBB410:
  53:D:/fchai/work/i-cube/I-CUBE-HUAWEI/Drivers/BSP/Components/lis2dw12\lis2dw12_reg.c ****   return ret;
 1620              		.loc 1 53 9 view .LVU431
 1621 000e 2521     		movs	r1, #37
 1622              	.LVL95:
  53:D:/fchai/work/i-cube/I-CUBE-HUAWEI/Drivers/BSP/Components/lis2dw12\lis2dw12_reg.c ****   return ret;
 1623              		.loc 1 53 9 view .LVU432
 1624 0010 A847     		blx	r5
 1625              	.LVL96:
ARM GAS  T:\msys\tmp\ccye0a00.s 			page 41


  53:D:/fchai/work/i-cube/I-CUBE-HUAWEI/Drivers/BSP/Components/lis2dw12\lis2dw12_reg.c ****   return ret;
 1626              		.loc 1 53 9 view .LVU433
 1627              	.LBE410:
 1628              	.LBE412:
 426:D:/fchai/work/i-cube/I-CUBE-HUAWEI/Drivers/BSP/Components/lis2dw12\lis2dw12_reg.c **** 
 427:D:/fchai/work/i-cube/I-CUBE-HUAWEI/Drivers/BSP/Components/lis2dw12\lis2dw12_reg.c ****   switch (reg.fs) {
 1629              		.loc 1 427 14 view .LVU434
 1630 0012 9DF80430 		ldrb	r3, [sp, #4]	@ zero_extendqisi2
 1631 0016 C3F30112 		ubfx	r2, r3, #4, #2
 1632              	.LVL97:
 1633              	.LBB413:
 1634              	.LBB411:
  54:D:/fchai/work/i-cube/I-CUBE-HUAWEI/Drivers/BSP/Components/lis2dw12\lis2dw12_reg.c **** }
 1635              		.loc 1 54 3 is_stmt 1 view .LVU435
  54:D:/fchai/work/i-cube/I-CUBE-HUAWEI/Drivers/BSP/Components/lis2dw12\lis2dw12_reg.c **** }
 1636              		.loc 1 54 3 is_stmt 0 view .LVU436
 1637              	.LBE411:
 1638              	.LBE413:
 1639              		.loc 1 427 3 is_stmt 1 view .LVU437
 1640 001a 022A     		cmp	r2, #2
 1641              		.loc 1 427 14 is_stmt 0 view .LVU438
 1642 001c 1346     		mov	r3, r2
 1643              		.loc 1 427 3 view .LVU439
 1644 001e 07D0     		beq	.L89
 1645 0020 032A     		cmp	r2, #3
 1646 0022 05D0     		beq	.L89
 1647 0024 012A     		cmp	r2, #1
 1648 0026 03D0     		beq	.L89
 428:D:/fchai/work/i-cube/I-CUBE-HUAWEI/Drivers/BSP/Components/lis2dw12\lis2dw12_reg.c ****     case LIS2DW12_2g:
 429:D:/fchai/work/i-cube/I-CUBE-HUAWEI/Drivers/BSP/Components/lis2dw12\lis2dw12_reg.c ****       *val = LIS2DW12_2g;
 1649              		.loc 1 429 7 is_stmt 1 view .LVU440
 1650              		.loc 1 429 12 is_stmt 0 view .LVU441
 1651 0028 0023     		movs	r3, #0
 1652 002a 2370     		strb	r3, [r4]
 430:D:/fchai/work/i-cube/I-CUBE-HUAWEI/Drivers/BSP/Components/lis2dw12\lis2dw12_reg.c ****       break;
 1653              		.loc 1 430 7 is_stmt 1 view .LVU442
 431:D:/fchai/work/i-cube/I-CUBE-HUAWEI/Drivers/BSP/Components/lis2dw12\lis2dw12_reg.c ****     case LIS2DW12_4g:
 432:D:/fchai/work/i-cube/I-CUBE-HUAWEI/Drivers/BSP/Components/lis2dw12\lis2dw12_reg.c ****       *val = LIS2DW12_4g;
 433:D:/fchai/work/i-cube/I-CUBE-HUAWEI/Drivers/BSP/Components/lis2dw12\lis2dw12_reg.c ****       break;
 434:D:/fchai/work/i-cube/I-CUBE-HUAWEI/Drivers/BSP/Components/lis2dw12\lis2dw12_reg.c ****     case LIS2DW12_8g:
 435:D:/fchai/work/i-cube/I-CUBE-HUAWEI/Drivers/BSP/Components/lis2dw12\lis2dw12_reg.c ****       *val = LIS2DW12_8g;
 436:D:/fchai/work/i-cube/I-CUBE-HUAWEI/Drivers/BSP/Components/lis2dw12\lis2dw12_reg.c ****       break;
 437:D:/fchai/work/i-cube/I-CUBE-HUAWEI/Drivers/BSP/Components/lis2dw12\lis2dw12_reg.c ****     case LIS2DW12_16g:
 438:D:/fchai/work/i-cube/I-CUBE-HUAWEI/Drivers/BSP/Components/lis2dw12\lis2dw12_reg.c ****       *val = LIS2DW12_16g;
 439:D:/fchai/work/i-cube/I-CUBE-HUAWEI/Drivers/BSP/Components/lis2dw12\lis2dw12_reg.c ****       break;
 440:D:/fchai/work/i-cube/I-CUBE-HUAWEI/Drivers/BSP/Components/lis2dw12\lis2dw12_reg.c ****     default:
 441:D:/fchai/work/i-cube/I-CUBE-HUAWEI/Drivers/BSP/Components/lis2dw12\lis2dw12_reg.c ****       *val = LIS2DW12_2g;
 442:D:/fchai/work/i-cube/I-CUBE-HUAWEI/Drivers/BSP/Components/lis2dw12\lis2dw12_reg.c ****       break;
 443:D:/fchai/work/i-cube/I-CUBE-HUAWEI/Drivers/BSP/Components/lis2dw12\lis2dw12_reg.c ****   }
 444:D:/fchai/work/i-cube/I-CUBE-HUAWEI/Drivers/BSP/Components/lis2dw12\lis2dw12_reg.c ****   return ret;
 445:D:/fchai/work/i-cube/I-CUBE-HUAWEI/Drivers/BSP/Components/lis2dw12\lis2dw12_reg.c **** }
 1654              		.loc 1 445 1 is_stmt 0 view .LVU443
 1655 002c 03B0     		add	sp, sp, #12
 1656              	.LCFI29:
 1657              		.cfi_remember_state
 1658              		.cfi_def_cfa_offset 12
 1659              		@ sp needed
ARM GAS  T:\msys\tmp\ccye0a00.s 			page 42


 1660 002e 30BD     		pop	{r4, r5, pc}
 1661              	.LVL98:
 1662              	.L89:
 1663              	.LCFI30:
 1664              		.cfi_restore_state
 438:D:/fchai/work/i-cube/I-CUBE-HUAWEI/Drivers/BSP/Components/lis2dw12\lis2dw12_reg.c ****       break;
 1665              		.loc 1 438 7 is_stmt 1 view .LVU444
 438:D:/fchai/work/i-cube/I-CUBE-HUAWEI/Drivers/BSP/Components/lis2dw12\lis2dw12_reg.c ****       break;
 1666              		.loc 1 438 12 is_stmt 0 view .LVU445
 1667 0030 2370     		strb	r3, [r4]
 439:D:/fchai/work/i-cube/I-CUBE-HUAWEI/Drivers/BSP/Components/lis2dw12\lis2dw12_reg.c ****     default:
 1668              		.loc 1 439 7 is_stmt 1 view .LVU446
 444:D:/fchai/work/i-cube/I-CUBE-HUAWEI/Drivers/BSP/Components/lis2dw12\lis2dw12_reg.c **** }
 1669              		.loc 1 444 3 view .LVU447
 1670              		.loc 1 445 1 is_stmt 0 view .LVU448
 1671 0032 03B0     		add	sp, sp, #12
 1672              	.LCFI31:
 1673              		.cfi_def_cfa_offset 12
 1674              		@ sp needed
 1675 0034 30BD     		pop	{r4, r5, pc}
 1676              		.loc 1 445 1 view .LVU449
 1677              		.cfi_endproc
 1678              	.LFE18:
 1680 0036 00BF     		.section	.text.lis2dw12_status_reg_get,"ax",%progbits
 1681              		.align	1
 1682              		.p2align 2,,3
 1683              		.global	lis2dw12_status_reg_get
 1684              		.syntax unified
 1685              		.thumb
 1686              		.thumb_func
 1687              		.fpu fpv4-sp-d16
 1689              	lis2dw12_status_reg_get:
 1690              	.LVL99:
 1691              	.LFB19:
 446:D:/fchai/work/i-cube/I-CUBE-HUAWEI/Drivers/BSP/Components/lis2dw12\lis2dw12_reg.c **** 
 447:D:/fchai/work/i-cube/I-CUBE-HUAWEI/Drivers/BSP/Components/lis2dw12\lis2dw12_reg.c **** /**
 448:D:/fchai/work/i-cube/I-CUBE-HUAWEI/Drivers/BSP/Components/lis2dw12\lis2dw12_reg.c ****   * @brief  The STATUS_REG register of the device.[get]
 449:D:/fchai/work/i-cube/I-CUBE-HUAWEI/Drivers/BSP/Components/lis2dw12\lis2dw12_reg.c ****   *
 450:D:/fchai/work/i-cube/I-CUBE-HUAWEI/Drivers/BSP/Components/lis2dw12\lis2dw12_reg.c ****   * @param  ctx      read / write interface definitions
 451:D:/fchai/work/i-cube/I-CUBE-HUAWEI/Drivers/BSP/Components/lis2dw12\lis2dw12_reg.c ****   * @param  val      union of registers from STATUS to
 452:D:/fchai/work/i-cube/I-CUBE-HUAWEI/Drivers/BSP/Components/lis2dw12\lis2dw12_reg.c ****   * @retval          interface status (MANDATORY: return 0 -> no Error)
 453:D:/fchai/work/i-cube/I-CUBE-HUAWEI/Drivers/BSP/Components/lis2dw12\lis2dw12_reg.c ****   *
 454:D:/fchai/work/i-cube/I-CUBE-HUAWEI/Drivers/BSP/Components/lis2dw12\lis2dw12_reg.c ****   */
 455:D:/fchai/work/i-cube/I-CUBE-HUAWEI/Drivers/BSP/Components/lis2dw12\lis2dw12_reg.c **** int32_t lis2dw12_status_reg_get(stmdev_ctx_t *ctx, lis2dw12_status_t *val)
 456:D:/fchai/work/i-cube/I-CUBE-HUAWEI/Drivers/BSP/Components/lis2dw12\lis2dw12_reg.c **** {
 1692              		.loc 1 456 1 is_stmt 1 view -0
 1693              		.cfi_startproc
 1694              		@ args = 0, pretend = 0, frame = 0
 1695              		@ frame_needed = 0, uses_anonymous_args = 0
 1696              		@ link register save eliminated.
 457:D:/fchai/work/i-cube/I-CUBE-HUAWEI/Drivers/BSP/Components/lis2dw12\lis2dw12_reg.c ****   int32_t ret;
 1697              		.loc 1 457 3 view .LVU451
 458:D:/fchai/work/i-cube/I-CUBE-HUAWEI/Drivers/BSP/Components/lis2dw12\lis2dw12_reg.c ****   ret = lis2dw12_read_reg(ctx, LIS2DW12_STATUS, (uint8_t*) val, 1);
 1698              		.loc 1 458 3 view .LVU452
 456:D:/fchai/work/i-cube/I-CUBE-HUAWEI/Drivers/BSP/Components/lis2dw12\lis2dw12_reg.c ****   int32_t ret;
 1699              		.loc 1 456 1 is_stmt 0 view .LVU453
 1700 0000 10B4     		push	{r4}
ARM GAS  T:\msys\tmp\ccye0a00.s 			page 43


 1701              	.LCFI32:
 1702              		.cfi_def_cfa_offset 4
 1703              		.cfi_offset 4, -4
 1704              	.LBB414:
 1705              	.LBB415:
  53:D:/fchai/work/i-cube/I-CUBE-HUAWEI/Drivers/BSP/Components/lis2dw12\lis2dw12_reg.c ****   return ret;
 1706              		.loc 1 53 9 view .LVU454
 1707 0002 D0E90140 		ldrd	r4, r0, [r0, #4]
 1708              	.LVL100:
  53:D:/fchai/work/i-cube/I-CUBE-HUAWEI/Drivers/BSP/Components/lis2dw12\lis2dw12_reg.c ****   return ret;
 1709              		.loc 1 53 9 view .LVU455
 1710              	.LBE415:
 1711              	.LBE414:
 456:D:/fchai/work/i-cube/I-CUBE-HUAWEI/Drivers/BSP/Components/lis2dw12\lis2dw12_reg.c ****   int32_t ret;
 1712              		.loc 1 456 1 view .LVU456
 1713 0006 0A46     		mov	r2, r1
 1714              	.LVL101:
 1715              	.LBB418:
 1716              	.LBI414:
  49:D:/fchai/work/i-cube/I-CUBE-HUAWEI/Drivers/BSP/Components/lis2dw12\lis2dw12_reg.c ****                           uint16_t len)
 1717              		.loc 1 49 9 is_stmt 1 view .LVU457
 1718              	.LBB416:
  52:D:/fchai/work/i-cube/I-CUBE-HUAWEI/Drivers/BSP/Components/lis2dw12\lis2dw12_reg.c ****   ret = ctx->read_reg(ctx->handle, reg, data, len);
 1719              		.loc 1 52 3 view .LVU458
  53:D:/fchai/work/i-cube/I-CUBE-HUAWEI/Drivers/BSP/Components/lis2dw12\lis2dw12_reg.c ****   return ret;
 1720              		.loc 1 53 3 view .LVU459
  53:D:/fchai/work/i-cube/I-CUBE-HUAWEI/Drivers/BSP/Components/lis2dw12\lis2dw12_reg.c ****   return ret;
 1721              		.loc 1 53 9 is_stmt 0 view .LVU460
 1722 0008 A446     		mov	ip, r4
 1723 000a 0123     		movs	r3, #1
 1724              	.LBE416:
 1725              	.LBE418:
 459:D:/fchai/work/i-cube/I-CUBE-HUAWEI/Drivers/BSP/Components/lis2dw12\lis2dw12_reg.c ****   return ret;
 460:D:/fchai/work/i-cube/I-CUBE-HUAWEI/Drivers/BSP/Components/lis2dw12\lis2dw12_reg.c **** }
 1726              		.loc 1 460 1 view .LVU461
 1727 000c 5DF8044B 		ldr	r4, [sp], #4
 1728              	.LCFI33:
 1729              		.cfi_restore 4
 1730              		.cfi_def_cfa_offset 0
 1731              	.LBB419:
 1732              	.LBB417:
  53:D:/fchai/work/i-cube/I-CUBE-HUAWEI/Drivers/BSP/Components/lis2dw12\lis2dw12_reg.c ****   return ret;
 1733              		.loc 1 53 9 view .LVU462
 1734 0010 2721     		movs	r1, #39
 1735              	.LVL102:
  53:D:/fchai/work/i-cube/I-CUBE-HUAWEI/Drivers/BSP/Components/lis2dw12\lis2dw12_reg.c ****   return ret;
 1736              		.loc 1 53 9 view .LVU463
 1737 0012 6047     		bx	ip
 1738              	.LVL103:
  53:D:/fchai/work/i-cube/I-CUBE-HUAWEI/Drivers/BSP/Components/lis2dw12\lis2dw12_reg.c ****   return ret;
 1739              		.loc 1 53 9 view .LVU464
 1740              	.LBE417:
 1741              	.LBE419:
 1742              		.cfi_endproc
 1743              	.LFE19:
 1745              		.section	.text.lis2dw12_flag_data_ready_get,"ax",%progbits
 1746              		.align	1
ARM GAS  T:\msys\tmp\ccye0a00.s 			page 44


 1747              		.p2align 2,,3
 1748              		.global	lis2dw12_flag_data_ready_get
 1749              		.syntax unified
 1750              		.thumb
 1751              		.thumb_func
 1752              		.fpu fpv4-sp-d16
 1754              	lis2dw12_flag_data_ready_get:
 1755              	.LVL104:
 1756              	.LFB20:
 461:D:/fchai/work/i-cube/I-CUBE-HUAWEI/Drivers/BSP/Components/lis2dw12\lis2dw12_reg.c **** 
 462:D:/fchai/work/i-cube/I-CUBE-HUAWEI/Drivers/BSP/Components/lis2dw12\lis2dw12_reg.c **** /**
 463:D:/fchai/work/i-cube/I-CUBE-HUAWEI/Drivers/BSP/Components/lis2dw12\lis2dw12_reg.c ****   * @brief  Accelerometer new data available.[get]
 464:D:/fchai/work/i-cube/I-CUBE-HUAWEI/Drivers/BSP/Components/lis2dw12\lis2dw12_reg.c ****   *
 465:D:/fchai/work/i-cube/I-CUBE-HUAWEI/Drivers/BSP/Components/lis2dw12\lis2dw12_reg.c ****   * @param  ctx      read / write interface definitions
 466:D:/fchai/work/i-cube/I-CUBE-HUAWEI/Drivers/BSP/Components/lis2dw12\lis2dw12_reg.c ****   * @param  val      change the values of drdy in reg STATUS
 467:D:/fchai/work/i-cube/I-CUBE-HUAWEI/Drivers/BSP/Components/lis2dw12\lis2dw12_reg.c ****   * @retval          interface status (MANDATORY: return 0 -> no Error)
 468:D:/fchai/work/i-cube/I-CUBE-HUAWEI/Drivers/BSP/Components/lis2dw12\lis2dw12_reg.c ****   *
 469:D:/fchai/work/i-cube/I-CUBE-HUAWEI/Drivers/BSP/Components/lis2dw12\lis2dw12_reg.c ****   */
 470:D:/fchai/work/i-cube/I-CUBE-HUAWEI/Drivers/BSP/Components/lis2dw12\lis2dw12_reg.c **** int32_t lis2dw12_flag_data_ready_get(stmdev_ctx_t *ctx, uint8_t *val)
 471:D:/fchai/work/i-cube/I-CUBE-HUAWEI/Drivers/BSP/Components/lis2dw12\lis2dw12_reg.c **** {
 1757              		.loc 1 471 1 is_stmt 1 view -0
 1758              		.cfi_startproc
 1759              		@ args = 0, pretend = 0, frame = 8
 1760              		@ frame_needed = 0, uses_anonymous_args = 0
 472:D:/fchai/work/i-cube/I-CUBE-HUAWEI/Drivers/BSP/Components/lis2dw12\lis2dw12_reg.c ****   lis2dw12_status_t reg;
 1761              		.loc 1 472 3 view .LVU466
 473:D:/fchai/work/i-cube/I-CUBE-HUAWEI/Drivers/BSP/Components/lis2dw12\lis2dw12_reg.c ****   int32_t ret;
 1762              		.loc 1 473 3 view .LVU467
 474:D:/fchai/work/i-cube/I-CUBE-HUAWEI/Drivers/BSP/Components/lis2dw12\lis2dw12_reg.c **** 
 475:D:/fchai/work/i-cube/I-CUBE-HUAWEI/Drivers/BSP/Components/lis2dw12\lis2dw12_reg.c ****   ret = lis2dw12_read_reg(ctx, LIS2DW12_STATUS,(uint8_t*) &reg, 1);
 1763              		.loc 1 475 3 view .LVU468
 471:D:/fchai/work/i-cube/I-CUBE-HUAWEI/Drivers/BSP/Components/lis2dw12\lis2dw12_reg.c ****   lis2dw12_status_t reg;
 1764              		.loc 1 471 1 is_stmt 0 view .LVU469
 1765 0000 30B5     		push	{r4, r5, lr}
 1766              	.LCFI34:
 1767              		.cfi_def_cfa_offset 12
 1768              		.cfi_offset 4, -12
 1769              		.cfi_offset 5, -8
 1770              		.cfi_offset 14, -4
 1771 0002 83B0     		sub	sp, sp, #12
 1772              	.LCFI35:
 1773              		.cfi_def_cfa_offset 24
 1774              	.LVL105:
 1775              	.LBB420:
 1776              	.LBI420:
  49:D:/fchai/work/i-cube/I-CUBE-HUAWEI/Drivers/BSP/Components/lis2dw12\lis2dw12_reg.c ****                           uint16_t len)
 1777              		.loc 1 49 9 is_stmt 1 view .LVU470
 1778              	.LBB421:
  52:D:/fchai/work/i-cube/I-CUBE-HUAWEI/Drivers/BSP/Components/lis2dw12\lis2dw12_reg.c ****   ret = ctx->read_reg(ctx->handle, reg, data, len);
 1779              		.loc 1 52 3 view .LVU471
  53:D:/fchai/work/i-cube/I-CUBE-HUAWEI/Drivers/BSP/Components/lis2dw12\lis2dw12_reg.c ****   return ret;
 1780              		.loc 1 53 3 view .LVU472
 1781              	.LBE421:
 1782              	.LBE420:
 471:D:/fchai/work/i-cube/I-CUBE-HUAWEI/Drivers/BSP/Components/lis2dw12\lis2dw12_reg.c ****   lis2dw12_status_t reg;
 1783              		.loc 1 471 1 is_stmt 0 view .LVU473
 1784 0004 0C46     		mov	r4, r1
ARM GAS  T:\msys\tmp\ccye0a00.s 			page 45


 1785              	.LBB423:
 1786              	.LBB422:
  53:D:/fchai/work/i-cube/I-CUBE-HUAWEI/Drivers/BSP/Components/lis2dw12\lis2dw12_reg.c ****   return ret;
 1787              		.loc 1 53 9 view .LVU474
 1788 0006 D0E90150 		ldrd	r5, r0, [r0, #4]
 1789              	.LVL106:
  53:D:/fchai/work/i-cube/I-CUBE-HUAWEI/Drivers/BSP/Components/lis2dw12\lis2dw12_reg.c ****   return ret;
 1790              		.loc 1 53 9 view .LVU475
 1791 000a 0123     		movs	r3, #1
 1792 000c 01AA     		add	r2, sp, #4
 1793              	.LVL107:
  53:D:/fchai/work/i-cube/I-CUBE-HUAWEI/Drivers/BSP/Components/lis2dw12\lis2dw12_reg.c ****   return ret;
 1794              		.loc 1 53 9 view .LVU476
 1795 000e 2721     		movs	r1, #39
 1796              	.LVL108:
  53:D:/fchai/work/i-cube/I-CUBE-HUAWEI/Drivers/BSP/Components/lis2dw12\lis2dw12_reg.c ****   return ret;
 1797              		.loc 1 53 9 view .LVU477
 1798 0010 A847     		blx	r5
 1799              	.LVL109:
  54:D:/fchai/work/i-cube/I-CUBE-HUAWEI/Drivers/BSP/Components/lis2dw12\lis2dw12_reg.c **** }
 1800              		.loc 1 54 3 is_stmt 1 view .LVU478
  54:D:/fchai/work/i-cube/I-CUBE-HUAWEI/Drivers/BSP/Components/lis2dw12\lis2dw12_reg.c **** }
 1801              		.loc 1 54 3 is_stmt 0 view .LVU479
 1802              	.LBE422:
 1803              	.LBE423:
 476:D:/fchai/work/i-cube/I-CUBE-HUAWEI/Drivers/BSP/Components/lis2dw12\lis2dw12_reg.c ****   *val = reg.drdy;
 1804              		.loc 1 476 3 is_stmt 1 view .LVU480
 1805              		.loc 1 476 13 is_stmt 0 view .LVU481
 1806 0012 9DF80430 		ldrb	r3, [sp, #4]	@ zero_extendqisi2
 1807 0016 C3F30003 		ubfx	r3, r3, #0, #1
 1808              		.loc 1 476 8 view .LVU482
 1809 001a 2370     		strb	r3, [r4]
 477:D:/fchai/work/i-cube/I-CUBE-HUAWEI/Drivers/BSP/Components/lis2dw12\lis2dw12_reg.c **** 
 478:D:/fchai/work/i-cube/I-CUBE-HUAWEI/Drivers/BSP/Components/lis2dw12\lis2dw12_reg.c ****   return ret;
 1810              		.loc 1 478 3 is_stmt 1 view .LVU483
 479:D:/fchai/work/i-cube/I-CUBE-HUAWEI/Drivers/BSP/Components/lis2dw12\lis2dw12_reg.c **** }
 1811              		.loc 1 479 1 is_stmt 0 view .LVU484
 1812 001c 03B0     		add	sp, sp, #12
 1813              	.LCFI36:
 1814              		.cfi_def_cfa_offset 12
 1815              		@ sp needed
 1816 001e 30BD     		pop	{r4, r5, pc}
 1817              		.loc 1 479 1 view .LVU485
 1818              		.cfi_endproc
 1819              	.LFE20:
 1821              		.section	.text.lis2dw12_all_sources_get,"ax",%progbits
 1822              		.align	1
 1823              		.p2align 2,,3
 1824              		.global	lis2dw12_all_sources_get
 1825              		.syntax unified
 1826              		.thumb
 1827              		.thumb_func
 1828              		.fpu fpv4-sp-d16
 1830              	lis2dw12_all_sources_get:
 1831              	.LVL110:
 1832              	.LFB21:
 480:D:/fchai/work/i-cube/I-CUBE-HUAWEI/Drivers/BSP/Components/lis2dw12\lis2dw12_reg.c **** /**
ARM GAS  T:\msys\tmp\ccye0a00.s 			page 46


 481:D:/fchai/work/i-cube/I-CUBE-HUAWEI/Drivers/BSP/Components/lis2dw12\lis2dw12_reg.c ****   * @brief   Read all the interrupt/status flag of the device.[get]
 482:D:/fchai/work/i-cube/I-CUBE-HUAWEI/Drivers/BSP/Components/lis2dw12\lis2dw12_reg.c ****   *
 483:D:/fchai/work/i-cube/I-CUBE-HUAWEI/Drivers/BSP/Components/lis2dw12\lis2dw12_reg.c ****   * @param  ctx      read / write interface definitions
 484:D:/fchai/work/i-cube/I-CUBE-HUAWEI/Drivers/BSP/Components/lis2dw12\lis2dw12_reg.c ****   * @param  val      registers STATUS_DUP, WAKE_UP_SRC,
 485:D:/fchai/work/i-cube/I-CUBE-HUAWEI/Drivers/BSP/Components/lis2dw12\lis2dw12_reg.c ****   *                  TAP_SRC, SIXD_SRC, ALL_INT_SRC
 486:D:/fchai/work/i-cube/I-CUBE-HUAWEI/Drivers/BSP/Components/lis2dw12\lis2dw12_reg.c ****   * @retval          interface status (MANDATORY: return 0 -> no Error)
 487:D:/fchai/work/i-cube/I-CUBE-HUAWEI/Drivers/BSP/Components/lis2dw12\lis2dw12_reg.c ****   *
 488:D:/fchai/work/i-cube/I-CUBE-HUAWEI/Drivers/BSP/Components/lis2dw12\lis2dw12_reg.c ****   */
 489:D:/fchai/work/i-cube/I-CUBE-HUAWEI/Drivers/BSP/Components/lis2dw12\lis2dw12_reg.c **** int32_t lis2dw12_all_sources_get(stmdev_ctx_t *ctx,
 490:D:/fchai/work/i-cube/I-CUBE-HUAWEI/Drivers/BSP/Components/lis2dw12\lis2dw12_reg.c ****                                  lis2dw12_all_sources_t *val)
 491:D:/fchai/work/i-cube/I-CUBE-HUAWEI/Drivers/BSP/Components/lis2dw12\lis2dw12_reg.c **** {
 1833              		.loc 1 491 1 is_stmt 1 view -0
 1834              		.cfi_startproc
 1835              		@ args = 0, pretend = 0, frame = 0
 1836              		@ frame_needed = 0, uses_anonymous_args = 0
 1837              		@ link register save eliminated.
 492:D:/fchai/work/i-cube/I-CUBE-HUAWEI/Drivers/BSP/Components/lis2dw12\lis2dw12_reg.c ****   int32_t ret;
 1838              		.loc 1 492 3 view .LVU487
 493:D:/fchai/work/i-cube/I-CUBE-HUAWEI/Drivers/BSP/Components/lis2dw12\lis2dw12_reg.c ****   ret = lis2dw12_read_reg(ctx, LIS2DW12_STATUS_DUP, (uint8_t*) val, 5);
 1839              		.loc 1 493 3 view .LVU488
 491:D:/fchai/work/i-cube/I-CUBE-HUAWEI/Drivers/BSP/Components/lis2dw12\lis2dw12_reg.c ****   int32_t ret;
 1840              		.loc 1 491 1 is_stmt 0 view .LVU489
 1841 0000 10B4     		push	{r4}
 1842              	.LCFI37:
 1843              		.cfi_def_cfa_offset 4
 1844              		.cfi_offset 4, -4
 1845              	.LBB424:
 1846              	.LBB425:
  53:D:/fchai/work/i-cube/I-CUBE-HUAWEI/Drivers/BSP/Components/lis2dw12\lis2dw12_reg.c ****   return ret;
 1847              		.loc 1 53 9 view .LVU490
 1848 0002 D0E90140 		ldrd	r4, r0, [r0, #4]
 1849              	.LVL111:
  53:D:/fchai/work/i-cube/I-CUBE-HUAWEI/Drivers/BSP/Components/lis2dw12\lis2dw12_reg.c ****   return ret;
 1850              		.loc 1 53 9 view .LVU491
 1851              	.LBE425:
 1852              	.LBE424:
 491:D:/fchai/work/i-cube/I-CUBE-HUAWEI/Drivers/BSP/Components/lis2dw12\lis2dw12_reg.c ****   int32_t ret;
 1853              		.loc 1 491 1 view .LVU492
 1854 0006 0A46     		mov	r2, r1
 1855              	.LVL112:
 1856              	.LBB428:
 1857              	.LBI424:
  49:D:/fchai/work/i-cube/I-CUBE-HUAWEI/Drivers/BSP/Components/lis2dw12\lis2dw12_reg.c ****                           uint16_t len)
 1858              		.loc 1 49 9 is_stmt 1 view .LVU493
 1859              	.LBB426:
  52:D:/fchai/work/i-cube/I-CUBE-HUAWEI/Drivers/BSP/Components/lis2dw12\lis2dw12_reg.c ****   ret = ctx->read_reg(ctx->handle, reg, data, len);
 1860              		.loc 1 52 3 view .LVU494
  53:D:/fchai/work/i-cube/I-CUBE-HUAWEI/Drivers/BSP/Components/lis2dw12\lis2dw12_reg.c ****   return ret;
 1861              		.loc 1 53 3 view .LVU495
  53:D:/fchai/work/i-cube/I-CUBE-HUAWEI/Drivers/BSP/Components/lis2dw12\lis2dw12_reg.c ****   return ret;
 1862              		.loc 1 53 9 is_stmt 0 view .LVU496
 1863 0008 A446     		mov	ip, r4
 1864 000a 0523     		movs	r3, #5
 1865              	.LBE426:
 1866              	.LBE428:
 494:D:/fchai/work/i-cube/I-CUBE-HUAWEI/Drivers/BSP/Components/lis2dw12\lis2dw12_reg.c ****   return ret;
 495:D:/fchai/work/i-cube/I-CUBE-HUAWEI/Drivers/BSP/Components/lis2dw12\lis2dw12_reg.c **** }
ARM GAS  T:\msys\tmp\ccye0a00.s 			page 47


 1867              		.loc 1 495 1 view .LVU497
 1868 000c 5DF8044B 		ldr	r4, [sp], #4
 1869              	.LCFI38:
 1870              		.cfi_restore 4
 1871              		.cfi_def_cfa_offset 0
 1872              	.LBB429:
 1873              	.LBB427:
  53:D:/fchai/work/i-cube/I-CUBE-HUAWEI/Drivers/BSP/Components/lis2dw12\lis2dw12_reg.c ****   return ret;
 1874              		.loc 1 53 9 view .LVU498
 1875 0010 3721     		movs	r1, #55
 1876              	.LVL113:
  53:D:/fchai/work/i-cube/I-CUBE-HUAWEI/Drivers/BSP/Components/lis2dw12\lis2dw12_reg.c ****   return ret;
 1877              		.loc 1 53 9 view .LVU499
 1878 0012 6047     		bx	ip
 1879              	.LVL114:
  53:D:/fchai/work/i-cube/I-CUBE-HUAWEI/Drivers/BSP/Components/lis2dw12\lis2dw12_reg.c ****   return ret;
 1880              		.loc 1 53 9 view .LVU500
 1881              	.LBE427:
 1882              	.LBE429:
 1883              		.cfi_endproc
 1884              	.LFE21:
 1886              		.section	.text.lis2dw12_usr_offset_x_set,"ax",%progbits
 1887              		.align	1
 1888              		.p2align 2,,3
 1889              		.global	lis2dw12_usr_offset_x_set
 1890              		.syntax unified
 1891              		.thumb
 1892              		.thumb_func
 1893              		.fpu fpv4-sp-d16
 1895              	lis2dw12_usr_offset_x_set:
 1896              	.LVL115:
 1897              	.LFB22:
 496:D:/fchai/work/i-cube/I-CUBE-HUAWEI/Drivers/BSP/Components/lis2dw12\lis2dw12_reg.c **** 
 497:D:/fchai/work/i-cube/I-CUBE-HUAWEI/Drivers/BSP/Components/lis2dw12\lis2dw12_reg.c **** /**
 498:D:/fchai/work/i-cube/I-CUBE-HUAWEI/Drivers/BSP/Components/lis2dw12\lis2dw12_reg.c ****   * @brief  Accelerometer X-axis user offset correction expressed in twos
 499:D:/fchai/work/i-cube/I-CUBE-HUAWEI/Drivers/BSP/Components/lis2dw12\lis2dw12_reg.c ****   *         complement, weight depends on bit USR_OFF_W. The value must be
 500:D:/fchai/work/i-cube/I-CUBE-HUAWEI/Drivers/BSP/Components/lis2dw12\lis2dw12_reg.c ****   *         in the range [-127 127].[set]
 501:D:/fchai/work/i-cube/I-CUBE-HUAWEI/Drivers/BSP/Components/lis2dw12\lis2dw12_reg.c ****   *
 502:D:/fchai/work/i-cube/I-CUBE-HUAWEI/Drivers/BSP/Components/lis2dw12\lis2dw12_reg.c ****   * @param  ctx      read / write interface definitions
 503:D:/fchai/work/i-cube/I-CUBE-HUAWEI/Drivers/BSP/Components/lis2dw12\lis2dw12_reg.c ****   * @param  buff     buffer that contains data to write
 504:D:/fchai/work/i-cube/I-CUBE-HUAWEI/Drivers/BSP/Components/lis2dw12\lis2dw12_reg.c ****   * @retval          interface status (MANDATORY: return 0 -> no Error)
 505:D:/fchai/work/i-cube/I-CUBE-HUAWEI/Drivers/BSP/Components/lis2dw12\lis2dw12_reg.c ****   *
 506:D:/fchai/work/i-cube/I-CUBE-HUAWEI/Drivers/BSP/Components/lis2dw12\lis2dw12_reg.c ****   */
 507:D:/fchai/work/i-cube/I-CUBE-HUAWEI/Drivers/BSP/Components/lis2dw12\lis2dw12_reg.c **** int32_t lis2dw12_usr_offset_x_set(stmdev_ctx_t *ctx, uint8_t *buff)
 508:D:/fchai/work/i-cube/I-CUBE-HUAWEI/Drivers/BSP/Components/lis2dw12\lis2dw12_reg.c **** {
 1898              		.loc 1 508 1 is_stmt 1 view -0
 1899              		.cfi_startproc
 1900              		@ args = 0, pretend = 0, frame = 0
 1901              		@ frame_needed = 0, uses_anonymous_args = 0
 1902              		@ link register save eliminated.
 509:D:/fchai/work/i-cube/I-CUBE-HUAWEI/Drivers/BSP/Components/lis2dw12\lis2dw12_reg.c ****   int32_t ret;
 1903              		.loc 1 509 3 view .LVU502
 510:D:/fchai/work/i-cube/I-CUBE-HUAWEI/Drivers/BSP/Components/lis2dw12\lis2dw12_reg.c ****   ret = lis2dw12_write_reg(ctx, LIS2DW12_X_OFS_USR, buff, 1);
 1904              		.loc 1 510 3 view .LVU503
 508:D:/fchai/work/i-cube/I-CUBE-HUAWEI/Drivers/BSP/Components/lis2dw12\lis2dw12_reg.c ****   int32_t ret;
 1905              		.loc 1 508 1 is_stmt 0 view .LVU504
 1906 0000 10B4     		push	{r4}
ARM GAS  T:\msys\tmp\ccye0a00.s 			page 48


 1907              	.LCFI39:
 1908              		.cfi_def_cfa_offset 4
 1909              		.cfi_offset 4, -4
 1910              	.LBB430:
 1911              	.LBB431:
  71:D:/fchai/work/i-cube/I-CUBE-HUAWEI/Drivers/BSP/Components/lis2dw12\lis2dw12_reg.c ****   return ret;
 1912              		.loc 1 71 9 view .LVU505
 1913 0002 0468     		ldr	r4, [r0]
 1914 0004 8068     		ldr	r0, [r0, #8]
 1915              	.LVL116:
  71:D:/fchai/work/i-cube/I-CUBE-HUAWEI/Drivers/BSP/Components/lis2dw12\lis2dw12_reg.c ****   return ret;
 1916              		.loc 1 71 9 view .LVU506
 1917              	.LBE431:
 1918              	.LBE430:
 508:D:/fchai/work/i-cube/I-CUBE-HUAWEI/Drivers/BSP/Components/lis2dw12\lis2dw12_reg.c ****   int32_t ret;
 1919              		.loc 1 508 1 view .LVU507
 1920 0006 0A46     		mov	r2, r1
 1921              	.LVL117:
 1922              	.LBB434:
 1923              	.LBI430:
  67:D:/fchai/work/i-cube/I-CUBE-HUAWEI/Drivers/BSP/Components/lis2dw12\lis2dw12_reg.c ****                            uint16_t len)
 1924              		.loc 1 67 9 is_stmt 1 view .LVU508
 1925              	.LBB432:
  70:D:/fchai/work/i-cube/I-CUBE-HUAWEI/Drivers/BSP/Components/lis2dw12\lis2dw12_reg.c ****   ret = ctx->write_reg(ctx->handle, reg, data, len);
 1926              		.loc 1 70 3 view .LVU509
  71:D:/fchai/work/i-cube/I-CUBE-HUAWEI/Drivers/BSP/Components/lis2dw12\lis2dw12_reg.c ****   return ret;
 1927              		.loc 1 71 3 view .LVU510
  71:D:/fchai/work/i-cube/I-CUBE-HUAWEI/Drivers/BSP/Components/lis2dw12\lis2dw12_reg.c ****   return ret;
 1928              		.loc 1 71 9 is_stmt 0 view .LVU511
 1929 0008 A446     		mov	ip, r4
 1930 000a 0123     		movs	r3, #1
 1931              	.LBE432:
 1932              	.LBE434:
 511:D:/fchai/work/i-cube/I-CUBE-HUAWEI/Drivers/BSP/Components/lis2dw12\lis2dw12_reg.c ****   return ret;
 512:D:/fchai/work/i-cube/I-CUBE-HUAWEI/Drivers/BSP/Components/lis2dw12\lis2dw12_reg.c **** }
 1933              		.loc 1 512 1 view .LVU512
 1934 000c 5DF8044B 		ldr	r4, [sp], #4
 1935              	.LCFI40:
 1936              		.cfi_restore 4
 1937              		.cfi_def_cfa_offset 0
 1938              	.LBB435:
 1939              	.LBB433:
  71:D:/fchai/work/i-cube/I-CUBE-HUAWEI/Drivers/BSP/Components/lis2dw12\lis2dw12_reg.c ****   return ret;
 1940              		.loc 1 71 9 view .LVU513
 1941 0010 3C21     		movs	r1, #60
 1942              	.LVL118:
  71:D:/fchai/work/i-cube/I-CUBE-HUAWEI/Drivers/BSP/Components/lis2dw12\lis2dw12_reg.c ****   return ret;
 1943              		.loc 1 71 9 view .LVU514
 1944 0012 6047     		bx	ip
 1945              	.LVL119:
  71:D:/fchai/work/i-cube/I-CUBE-HUAWEI/Drivers/BSP/Components/lis2dw12\lis2dw12_reg.c ****   return ret;
 1946              		.loc 1 71 9 view .LVU515
 1947              	.LBE433:
 1948              	.LBE435:
 1949              		.cfi_endproc
 1950              	.LFE22:
 1952              		.section	.text.lis2dw12_usr_offset_x_get,"ax",%progbits
ARM GAS  T:\msys\tmp\ccye0a00.s 			page 49


 1953              		.align	1
 1954              		.p2align 2,,3
 1955              		.global	lis2dw12_usr_offset_x_get
 1956              		.syntax unified
 1957              		.thumb
 1958              		.thumb_func
 1959              		.fpu fpv4-sp-d16
 1961              	lis2dw12_usr_offset_x_get:
 1962              	.LVL120:
 1963              	.LFB23:
 513:D:/fchai/work/i-cube/I-CUBE-HUAWEI/Drivers/BSP/Components/lis2dw12\lis2dw12_reg.c **** 
 514:D:/fchai/work/i-cube/I-CUBE-HUAWEI/Drivers/BSP/Components/lis2dw12\lis2dw12_reg.c **** /**
 515:D:/fchai/work/i-cube/I-CUBE-HUAWEI/Drivers/BSP/Components/lis2dw12\lis2dw12_reg.c ****   * @brief  Accelerometer X-axis user offset correction expressed in twos
 516:D:/fchai/work/i-cube/I-CUBE-HUAWEI/Drivers/BSP/Components/lis2dw12\lis2dw12_reg.c ****   *         complement, weight depends on bit USR_OFF_W. The value must be
 517:D:/fchai/work/i-cube/I-CUBE-HUAWEI/Drivers/BSP/Components/lis2dw12\lis2dw12_reg.c ****   *         in the range [-127 127].[get]
 518:D:/fchai/work/i-cube/I-CUBE-HUAWEI/Drivers/BSP/Components/lis2dw12\lis2dw12_reg.c ****   *
 519:D:/fchai/work/i-cube/I-CUBE-HUAWEI/Drivers/BSP/Components/lis2dw12\lis2dw12_reg.c ****   * @param  ctx      read / write interface definitions
 520:D:/fchai/work/i-cube/I-CUBE-HUAWEI/Drivers/BSP/Components/lis2dw12\lis2dw12_reg.c ****   * @param  buff     buffer that stores data read
 521:D:/fchai/work/i-cube/I-CUBE-HUAWEI/Drivers/BSP/Components/lis2dw12\lis2dw12_reg.c ****   * @retval          interface status (MANDATORY: return 0 -> no Error)
 522:D:/fchai/work/i-cube/I-CUBE-HUAWEI/Drivers/BSP/Components/lis2dw12\lis2dw12_reg.c ****   *
 523:D:/fchai/work/i-cube/I-CUBE-HUAWEI/Drivers/BSP/Components/lis2dw12\lis2dw12_reg.c ****   */
 524:D:/fchai/work/i-cube/I-CUBE-HUAWEI/Drivers/BSP/Components/lis2dw12\lis2dw12_reg.c **** int32_t lis2dw12_usr_offset_x_get(stmdev_ctx_t *ctx, uint8_t *buff)
 525:D:/fchai/work/i-cube/I-CUBE-HUAWEI/Drivers/BSP/Components/lis2dw12\lis2dw12_reg.c **** {
 1964              		.loc 1 525 1 is_stmt 1 view -0
 1965              		.cfi_startproc
 1966              		@ args = 0, pretend = 0, frame = 0
 1967              		@ frame_needed = 0, uses_anonymous_args = 0
 1968              		@ link register save eliminated.
 526:D:/fchai/work/i-cube/I-CUBE-HUAWEI/Drivers/BSP/Components/lis2dw12\lis2dw12_reg.c ****   int32_t ret;
 1969              		.loc 1 526 3 view .LVU517
 527:D:/fchai/work/i-cube/I-CUBE-HUAWEI/Drivers/BSP/Components/lis2dw12\lis2dw12_reg.c ****   ret = lis2dw12_read_reg(ctx, LIS2DW12_X_OFS_USR, buff, 1);
 1970              		.loc 1 527 3 view .LVU518
 525:D:/fchai/work/i-cube/I-CUBE-HUAWEI/Drivers/BSP/Components/lis2dw12\lis2dw12_reg.c ****   int32_t ret;
 1971              		.loc 1 525 1 is_stmt 0 view .LVU519
 1972 0000 10B4     		push	{r4}
 1973              	.LCFI41:
 1974              		.cfi_def_cfa_offset 4
 1975              		.cfi_offset 4, -4
 1976              	.LBB436:
 1977              	.LBB437:
  53:D:/fchai/work/i-cube/I-CUBE-HUAWEI/Drivers/BSP/Components/lis2dw12\lis2dw12_reg.c ****   return ret;
 1978              		.loc 1 53 9 view .LVU520
 1979 0002 D0E90140 		ldrd	r4, r0, [r0, #4]
 1980              	.LVL121:
  53:D:/fchai/work/i-cube/I-CUBE-HUAWEI/Drivers/BSP/Components/lis2dw12\lis2dw12_reg.c ****   return ret;
 1981              		.loc 1 53 9 view .LVU521
 1982              	.LBE437:
 1983              	.LBE436:
 525:D:/fchai/work/i-cube/I-CUBE-HUAWEI/Drivers/BSP/Components/lis2dw12\lis2dw12_reg.c ****   int32_t ret;
 1984              		.loc 1 525 1 view .LVU522
 1985 0006 0A46     		mov	r2, r1
 1986              	.LVL122:
 1987              	.LBB440:
 1988              	.LBI436:
  49:D:/fchai/work/i-cube/I-CUBE-HUAWEI/Drivers/BSP/Components/lis2dw12\lis2dw12_reg.c ****                           uint16_t len)
 1989              		.loc 1 49 9 is_stmt 1 view .LVU523
 1990              	.LBB438:
ARM GAS  T:\msys\tmp\ccye0a00.s 			page 50


  52:D:/fchai/work/i-cube/I-CUBE-HUAWEI/Drivers/BSP/Components/lis2dw12\lis2dw12_reg.c ****   ret = ctx->read_reg(ctx->handle, reg, data, len);
 1991              		.loc 1 52 3 view .LVU524
  53:D:/fchai/work/i-cube/I-CUBE-HUAWEI/Drivers/BSP/Components/lis2dw12\lis2dw12_reg.c ****   return ret;
 1992              		.loc 1 53 3 view .LVU525
  53:D:/fchai/work/i-cube/I-CUBE-HUAWEI/Drivers/BSP/Components/lis2dw12\lis2dw12_reg.c ****   return ret;
 1993              		.loc 1 53 9 is_stmt 0 view .LVU526
 1994 0008 A446     		mov	ip, r4
 1995 000a 0123     		movs	r3, #1
 1996              	.LBE438:
 1997              	.LBE440:
 528:D:/fchai/work/i-cube/I-CUBE-HUAWEI/Drivers/BSP/Components/lis2dw12\lis2dw12_reg.c ****   return ret;
 529:D:/fchai/work/i-cube/I-CUBE-HUAWEI/Drivers/BSP/Components/lis2dw12\lis2dw12_reg.c **** }
 1998              		.loc 1 529 1 view .LVU527
 1999 000c 5DF8044B 		ldr	r4, [sp], #4
 2000              	.LCFI42:
 2001              		.cfi_restore 4
 2002              		.cfi_def_cfa_offset 0
 2003              	.LBB441:
 2004              	.LBB439:
  53:D:/fchai/work/i-cube/I-CUBE-HUAWEI/Drivers/BSP/Components/lis2dw12\lis2dw12_reg.c ****   return ret;
 2005              		.loc 1 53 9 view .LVU528
 2006 0010 3C21     		movs	r1, #60
 2007              	.LVL123:
  53:D:/fchai/work/i-cube/I-CUBE-HUAWEI/Drivers/BSP/Components/lis2dw12\lis2dw12_reg.c ****   return ret;
 2008              		.loc 1 53 9 view .LVU529
 2009 0012 6047     		bx	ip
 2010              	.LVL124:
  53:D:/fchai/work/i-cube/I-CUBE-HUAWEI/Drivers/BSP/Components/lis2dw12\lis2dw12_reg.c ****   return ret;
 2011              		.loc 1 53 9 view .LVU530
 2012              	.LBE439:
 2013              	.LBE441:
 2014              		.cfi_endproc
 2015              	.LFE23:
 2017              		.section	.text.lis2dw12_usr_offset_y_set,"ax",%progbits
 2018              		.align	1
 2019              		.p2align 2,,3
 2020              		.global	lis2dw12_usr_offset_y_set
 2021              		.syntax unified
 2022              		.thumb
 2023              		.thumb_func
 2024              		.fpu fpv4-sp-d16
 2026              	lis2dw12_usr_offset_y_set:
 2027              	.LVL125:
 2028              	.LFB24:
 530:D:/fchai/work/i-cube/I-CUBE-HUAWEI/Drivers/BSP/Components/lis2dw12\lis2dw12_reg.c **** 
 531:D:/fchai/work/i-cube/I-CUBE-HUAWEI/Drivers/BSP/Components/lis2dw12\lis2dw12_reg.c **** /**
 532:D:/fchai/work/i-cube/I-CUBE-HUAWEI/Drivers/BSP/Components/lis2dw12\lis2dw12_reg.c ****   * @brief  Accelerometer Y-axis user offset correction expressed in twos
 533:D:/fchai/work/i-cube/I-CUBE-HUAWEI/Drivers/BSP/Components/lis2dw12\lis2dw12_reg.c ****   *         complement, weight depends on bit USR_OFF_W. The value must be
 534:D:/fchai/work/i-cube/I-CUBE-HUAWEI/Drivers/BSP/Components/lis2dw12\lis2dw12_reg.c ****   *         in the range [-127 127].[set]
 535:D:/fchai/work/i-cube/I-CUBE-HUAWEI/Drivers/BSP/Components/lis2dw12\lis2dw12_reg.c ****   *
 536:D:/fchai/work/i-cube/I-CUBE-HUAWEI/Drivers/BSP/Components/lis2dw12\lis2dw12_reg.c ****   * @param  ctx      read / write interface definitions
 537:D:/fchai/work/i-cube/I-CUBE-HUAWEI/Drivers/BSP/Components/lis2dw12\lis2dw12_reg.c ****   * @param  buff     buffer that contains data to write
 538:D:/fchai/work/i-cube/I-CUBE-HUAWEI/Drivers/BSP/Components/lis2dw12\lis2dw12_reg.c ****   * @retval          interface status (MANDATORY: return 0 -> no Error)
 539:D:/fchai/work/i-cube/I-CUBE-HUAWEI/Drivers/BSP/Components/lis2dw12\lis2dw12_reg.c ****   *
 540:D:/fchai/work/i-cube/I-CUBE-HUAWEI/Drivers/BSP/Components/lis2dw12\lis2dw12_reg.c ****   */
 541:D:/fchai/work/i-cube/I-CUBE-HUAWEI/Drivers/BSP/Components/lis2dw12\lis2dw12_reg.c **** int32_t lis2dw12_usr_offset_y_set(stmdev_ctx_t *ctx, uint8_t *buff)
 542:D:/fchai/work/i-cube/I-CUBE-HUAWEI/Drivers/BSP/Components/lis2dw12\lis2dw12_reg.c **** {
ARM GAS  T:\msys\tmp\ccye0a00.s 			page 51


 2029              		.loc 1 542 1 is_stmt 1 view -0
 2030              		.cfi_startproc
 2031              		@ args = 0, pretend = 0, frame = 0
 2032              		@ frame_needed = 0, uses_anonymous_args = 0
 2033              		@ link register save eliminated.
 543:D:/fchai/work/i-cube/I-CUBE-HUAWEI/Drivers/BSP/Components/lis2dw12\lis2dw12_reg.c ****   int32_t ret;
 2034              		.loc 1 543 3 view .LVU532
 544:D:/fchai/work/i-cube/I-CUBE-HUAWEI/Drivers/BSP/Components/lis2dw12\lis2dw12_reg.c ****   ret = lis2dw12_write_reg(ctx, LIS2DW12_Y_OFS_USR, buff, 1);
 2035              		.loc 1 544 3 view .LVU533
 542:D:/fchai/work/i-cube/I-CUBE-HUAWEI/Drivers/BSP/Components/lis2dw12\lis2dw12_reg.c ****   int32_t ret;
 2036              		.loc 1 542 1 is_stmt 0 view .LVU534
 2037 0000 10B4     		push	{r4}
 2038              	.LCFI43:
 2039              		.cfi_def_cfa_offset 4
 2040              		.cfi_offset 4, -4
 2041              	.LBB442:
 2042              	.LBB443:
  71:D:/fchai/work/i-cube/I-CUBE-HUAWEI/Drivers/BSP/Components/lis2dw12\lis2dw12_reg.c ****   return ret;
 2043              		.loc 1 71 9 view .LVU535
 2044 0002 0468     		ldr	r4, [r0]
 2045 0004 8068     		ldr	r0, [r0, #8]
 2046              	.LVL126:
  71:D:/fchai/work/i-cube/I-CUBE-HUAWEI/Drivers/BSP/Components/lis2dw12\lis2dw12_reg.c ****   return ret;
 2047              		.loc 1 71 9 view .LVU536
 2048              	.LBE443:
 2049              	.LBE442:
 542:D:/fchai/work/i-cube/I-CUBE-HUAWEI/Drivers/BSP/Components/lis2dw12\lis2dw12_reg.c ****   int32_t ret;
 2050              		.loc 1 542 1 view .LVU537
 2051 0006 0A46     		mov	r2, r1
 2052              	.LVL127:
 2053              	.LBB446:
 2054              	.LBI442:
  67:D:/fchai/work/i-cube/I-CUBE-HUAWEI/Drivers/BSP/Components/lis2dw12\lis2dw12_reg.c ****                            uint16_t len)
 2055              		.loc 1 67 9 is_stmt 1 view .LVU538
 2056              	.LBB444:
  70:D:/fchai/work/i-cube/I-CUBE-HUAWEI/Drivers/BSP/Components/lis2dw12\lis2dw12_reg.c ****   ret = ctx->write_reg(ctx->handle, reg, data, len);
 2057              		.loc 1 70 3 view .LVU539
  71:D:/fchai/work/i-cube/I-CUBE-HUAWEI/Drivers/BSP/Components/lis2dw12\lis2dw12_reg.c ****   return ret;
 2058              		.loc 1 71 3 view .LVU540
  71:D:/fchai/work/i-cube/I-CUBE-HUAWEI/Drivers/BSP/Components/lis2dw12\lis2dw12_reg.c ****   return ret;
 2059              		.loc 1 71 9 is_stmt 0 view .LVU541
 2060 0008 A446     		mov	ip, r4
 2061 000a 0123     		movs	r3, #1
 2062              	.LBE444:
 2063              	.LBE446:
 545:D:/fchai/work/i-cube/I-CUBE-HUAWEI/Drivers/BSP/Components/lis2dw12\lis2dw12_reg.c ****   return ret;
 546:D:/fchai/work/i-cube/I-CUBE-HUAWEI/Drivers/BSP/Components/lis2dw12\lis2dw12_reg.c **** }
 2064              		.loc 1 546 1 view .LVU542
 2065 000c 5DF8044B 		ldr	r4, [sp], #4
 2066              	.LCFI44:
 2067              		.cfi_restore 4
 2068              		.cfi_def_cfa_offset 0
 2069              	.LBB447:
 2070              	.LBB445:
  71:D:/fchai/work/i-cube/I-CUBE-HUAWEI/Drivers/BSP/Components/lis2dw12\lis2dw12_reg.c ****   return ret;
 2071              		.loc 1 71 9 view .LVU543
 2072 0010 3D21     		movs	r1, #61
ARM GAS  T:\msys\tmp\ccye0a00.s 			page 52


 2073              	.LVL128:
  71:D:/fchai/work/i-cube/I-CUBE-HUAWEI/Drivers/BSP/Components/lis2dw12\lis2dw12_reg.c ****   return ret;
 2074              		.loc 1 71 9 view .LVU544
 2075 0012 6047     		bx	ip
 2076              	.LVL129:
  71:D:/fchai/work/i-cube/I-CUBE-HUAWEI/Drivers/BSP/Components/lis2dw12\lis2dw12_reg.c ****   return ret;
 2077              		.loc 1 71 9 view .LVU545
 2078              	.LBE445:
 2079              	.LBE447:
 2080              		.cfi_endproc
 2081              	.LFE24:
 2083              		.section	.text.lis2dw12_usr_offset_y_get,"ax",%progbits
 2084              		.align	1
 2085              		.p2align 2,,3
 2086              		.global	lis2dw12_usr_offset_y_get
 2087              		.syntax unified
 2088              		.thumb
 2089              		.thumb_func
 2090              		.fpu fpv4-sp-d16
 2092              	lis2dw12_usr_offset_y_get:
 2093              	.LVL130:
 2094              	.LFB25:
 547:D:/fchai/work/i-cube/I-CUBE-HUAWEI/Drivers/BSP/Components/lis2dw12\lis2dw12_reg.c **** 
 548:D:/fchai/work/i-cube/I-CUBE-HUAWEI/Drivers/BSP/Components/lis2dw12\lis2dw12_reg.c **** /**
 549:D:/fchai/work/i-cube/I-CUBE-HUAWEI/Drivers/BSP/Components/lis2dw12\lis2dw12_reg.c ****   * @brief  Accelerometer Y-axis user offset correction expressed in twos
 550:D:/fchai/work/i-cube/I-CUBE-HUAWEI/Drivers/BSP/Components/lis2dw12\lis2dw12_reg.c ****   *         complement, weight depends on bit USR_OFF_W. The value must be
 551:D:/fchai/work/i-cube/I-CUBE-HUAWEI/Drivers/BSP/Components/lis2dw12\lis2dw12_reg.c ****   *         in the range [-127 127].[get]
 552:D:/fchai/work/i-cube/I-CUBE-HUAWEI/Drivers/BSP/Components/lis2dw12\lis2dw12_reg.c ****   *
 553:D:/fchai/work/i-cube/I-CUBE-HUAWEI/Drivers/BSP/Components/lis2dw12\lis2dw12_reg.c ****   * @param  ctx      read / write interface definitions
 554:D:/fchai/work/i-cube/I-CUBE-HUAWEI/Drivers/BSP/Components/lis2dw12\lis2dw12_reg.c ****   * @param  buff     buffer that stores data read
 555:D:/fchai/work/i-cube/I-CUBE-HUAWEI/Drivers/BSP/Components/lis2dw12\lis2dw12_reg.c ****   * @retval          interface status (MANDATORY: return 0 -> no Error)
 556:D:/fchai/work/i-cube/I-CUBE-HUAWEI/Drivers/BSP/Components/lis2dw12\lis2dw12_reg.c ****   *
 557:D:/fchai/work/i-cube/I-CUBE-HUAWEI/Drivers/BSP/Components/lis2dw12\lis2dw12_reg.c ****   */
 558:D:/fchai/work/i-cube/I-CUBE-HUAWEI/Drivers/BSP/Components/lis2dw12\lis2dw12_reg.c **** int32_t lis2dw12_usr_offset_y_get(stmdev_ctx_t *ctx, uint8_t *buff)
 559:D:/fchai/work/i-cube/I-CUBE-HUAWEI/Drivers/BSP/Components/lis2dw12\lis2dw12_reg.c **** {
 2095              		.loc 1 559 1 is_stmt 1 view -0
 2096              		.cfi_startproc
 2097              		@ args = 0, pretend = 0, frame = 0
 2098              		@ frame_needed = 0, uses_anonymous_args = 0
 2099              		@ link register save eliminated.
 560:D:/fchai/work/i-cube/I-CUBE-HUAWEI/Drivers/BSP/Components/lis2dw12\lis2dw12_reg.c ****   int32_t ret;
 2100              		.loc 1 560 3 view .LVU547
 561:D:/fchai/work/i-cube/I-CUBE-HUAWEI/Drivers/BSP/Components/lis2dw12\lis2dw12_reg.c ****   ret = lis2dw12_read_reg(ctx, LIS2DW12_Y_OFS_USR, buff, 1);
 2101              		.loc 1 561 3 view .LVU548
 559:D:/fchai/work/i-cube/I-CUBE-HUAWEI/Drivers/BSP/Components/lis2dw12\lis2dw12_reg.c ****   int32_t ret;
 2102              		.loc 1 559 1 is_stmt 0 view .LVU549
 2103 0000 10B4     		push	{r4}
 2104              	.LCFI45:
 2105              		.cfi_def_cfa_offset 4
 2106              		.cfi_offset 4, -4
 2107              	.LBB448:
 2108              	.LBB449:
  53:D:/fchai/work/i-cube/I-CUBE-HUAWEI/Drivers/BSP/Components/lis2dw12\lis2dw12_reg.c ****   return ret;
 2109              		.loc 1 53 9 view .LVU550
 2110 0002 D0E90140 		ldrd	r4, r0, [r0, #4]
 2111              	.LVL131:
  53:D:/fchai/work/i-cube/I-CUBE-HUAWEI/Drivers/BSP/Components/lis2dw12\lis2dw12_reg.c ****   return ret;
ARM GAS  T:\msys\tmp\ccye0a00.s 			page 53


 2112              		.loc 1 53 9 view .LVU551
 2113              	.LBE449:
 2114              	.LBE448:
 559:D:/fchai/work/i-cube/I-CUBE-HUAWEI/Drivers/BSP/Components/lis2dw12\lis2dw12_reg.c ****   int32_t ret;
 2115              		.loc 1 559 1 view .LVU552
 2116 0006 0A46     		mov	r2, r1
 2117              	.LVL132:
 2118              	.LBB452:
 2119              	.LBI448:
  49:D:/fchai/work/i-cube/I-CUBE-HUAWEI/Drivers/BSP/Components/lis2dw12\lis2dw12_reg.c ****                           uint16_t len)
 2120              		.loc 1 49 9 is_stmt 1 view .LVU553
 2121              	.LBB450:
  52:D:/fchai/work/i-cube/I-CUBE-HUAWEI/Drivers/BSP/Components/lis2dw12\lis2dw12_reg.c ****   ret = ctx->read_reg(ctx->handle, reg, data, len);
 2122              		.loc 1 52 3 view .LVU554
  53:D:/fchai/work/i-cube/I-CUBE-HUAWEI/Drivers/BSP/Components/lis2dw12\lis2dw12_reg.c ****   return ret;
 2123              		.loc 1 53 3 view .LVU555
  53:D:/fchai/work/i-cube/I-CUBE-HUAWEI/Drivers/BSP/Components/lis2dw12\lis2dw12_reg.c ****   return ret;
 2124              		.loc 1 53 9 is_stmt 0 view .LVU556
 2125 0008 A446     		mov	ip, r4
 2126 000a 0123     		movs	r3, #1
 2127              	.LBE450:
 2128              	.LBE452:
 562:D:/fchai/work/i-cube/I-CUBE-HUAWEI/Drivers/BSP/Components/lis2dw12\lis2dw12_reg.c ****   return ret;
 563:D:/fchai/work/i-cube/I-CUBE-HUAWEI/Drivers/BSP/Components/lis2dw12\lis2dw12_reg.c **** }
 2129              		.loc 1 563 1 view .LVU557
 2130 000c 5DF8044B 		ldr	r4, [sp], #4
 2131              	.LCFI46:
 2132              		.cfi_restore 4
 2133              		.cfi_def_cfa_offset 0
 2134              	.LBB453:
 2135              	.LBB451:
  53:D:/fchai/work/i-cube/I-CUBE-HUAWEI/Drivers/BSP/Components/lis2dw12\lis2dw12_reg.c ****   return ret;
 2136              		.loc 1 53 9 view .LVU558
 2137 0010 3D21     		movs	r1, #61
 2138              	.LVL133:
  53:D:/fchai/work/i-cube/I-CUBE-HUAWEI/Drivers/BSP/Components/lis2dw12\lis2dw12_reg.c ****   return ret;
 2139              		.loc 1 53 9 view .LVU559
 2140 0012 6047     		bx	ip
 2141              	.LVL134:
  53:D:/fchai/work/i-cube/I-CUBE-HUAWEI/Drivers/BSP/Components/lis2dw12\lis2dw12_reg.c ****   return ret;
 2142              		.loc 1 53 9 view .LVU560
 2143              	.LBE451:
 2144              	.LBE453:
 2145              		.cfi_endproc
 2146              	.LFE25:
 2148              		.section	.text.lis2dw12_usr_offset_z_set,"ax",%progbits
 2149              		.align	1
 2150              		.p2align 2,,3
 2151              		.global	lis2dw12_usr_offset_z_set
 2152              		.syntax unified
 2153              		.thumb
 2154              		.thumb_func
 2155              		.fpu fpv4-sp-d16
 2157              	lis2dw12_usr_offset_z_set:
 2158              	.LVL135:
 2159              	.LFB26:
 564:D:/fchai/work/i-cube/I-CUBE-HUAWEI/Drivers/BSP/Components/lis2dw12\lis2dw12_reg.c **** 
ARM GAS  T:\msys\tmp\ccye0a00.s 			page 54


 565:D:/fchai/work/i-cube/I-CUBE-HUAWEI/Drivers/BSP/Components/lis2dw12\lis2dw12_reg.c **** /**
 566:D:/fchai/work/i-cube/I-CUBE-HUAWEI/Drivers/BSP/Components/lis2dw12\lis2dw12_reg.c ****   * @brief  Accelerometer Z-axis user offset correction expressed in twos
 567:D:/fchai/work/i-cube/I-CUBE-HUAWEI/Drivers/BSP/Components/lis2dw12\lis2dw12_reg.c ****   *         complement, weight depends on bit USR_OFF_W. The value must be
 568:D:/fchai/work/i-cube/I-CUBE-HUAWEI/Drivers/BSP/Components/lis2dw12\lis2dw12_reg.c ****   *         in the range [-127 127].[set]
 569:D:/fchai/work/i-cube/I-CUBE-HUAWEI/Drivers/BSP/Components/lis2dw12\lis2dw12_reg.c ****   *
 570:D:/fchai/work/i-cube/I-CUBE-HUAWEI/Drivers/BSP/Components/lis2dw12\lis2dw12_reg.c ****   * @param  ctx      read / write interface definitions
 571:D:/fchai/work/i-cube/I-CUBE-HUAWEI/Drivers/BSP/Components/lis2dw12\lis2dw12_reg.c ****   * @param  buff     buffer that contains data to write
 572:D:/fchai/work/i-cube/I-CUBE-HUAWEI/Drivers/BSP/Components/lis2dw12\lis2dw12_reg.c ****   * @retval          interface status (MANDATORY: return 0 -> no Error)
 573:D:/fchai/work/i-cube/I-CUBE-HUAWEI/Drivers/BSP/Components/lis2dw12\lis2dw12_reg.c ****   *
 574:D:/fchai/work/i-cube/I-CUBE-HUAWEI/Drivers/BSP/Components/lis2dw12\lis2dw12_reg.c ****   */
 575:D:/fchai/work/i-cube/I-CUBE-HUAWEI/Drivers/BSP/Components/lis2dw12\lis2dw12_reg.c **** int32_t lis2dw12_usr_offset_z_set(stmdev_ctx_t *ctx, uint8_t *buff)
 576:D:/fchai/work/i-cube/I-CUBE-HUAWEI/Drivers/BSP/Components/lis2dw12\lis2dw12_reg.c **** {
 2160              		.loc 1 576 1 is_stmt 1 view -0
 2161              		.cfi_startproc
 2162              		@ args = 0, pretend = 0, frame = 0
 2163              		@ frame_needed = 0, uses_anonymous_args = 0
 2164              		@ link register save eliminated.
 577:D:/fchai/work/i-cube/I-CUBE-HUAWEI/Drivers/BSP/Components/lis2dw12\lis2dw12_reg.c ****   int32_t ret;
 2165              		.loc 1 577 3 view .LVU562
 578:D:/fchai/work/i-cube/I-CUBE-HUAWEI/Drivers/BSP/Components/lis2dw12\lis2dw12_reg.c ****   ret = lis2dw12_write_reg(ctx, LIS2DW12_Z_OFS_USR, buff, 1);
 2166              		.loc 1 578 3 view .LVU563
 576:D:/fchai/work/i-cube/I-CUBE-HUAWEI/Drivers/BSP/Components/lis2dw12\lis2dw12_reg.c ****   int32_t ret;
 2167              		.loc 1 576 1 is_stmt 0 view .LVU564
 2168 0000 10B4     		push	{r4}
 2169              	.LCFI47:
 2170              		.cfi_def_cfa_offset 4
 2171              		.cfi_offset 4, -4
 2172              	.LBB454:
 2173              	.LBB455:
  71:D:/fchai/work/i-cube/I-CUBE-HUAWEI/Drivers/BSP/Components/lis2dw12\lis2dw12_reg.c ****   return ret;
 2174              		.loc 1 71 9 view .LVU565
 2175 0002 0468     		ldr	r4, [r0]
 2176 0004 8068     		ldr	r0, [r0, #8]
 2177              	.LVL136:
  71:D:/fchai/work/i-cube/I-CUBE-HUAWEI/Drivers/BSP/Components/lis2dw12\lis2dw12_reg.c ****   return ret;
 2178              		.loc 1 71 9 view .LVU566
 2179              	.LBE455:
 2180              	.LBE454:
 576:D:/fchai/work/i-cube/I-CUBE-HUAWEI/Drivers/BSP/Components/lis2dw12\lis2dw12_reg.c ****   int32_t ret;
 2181              		.loc 1 576 1 view .LVU567
 2182 0006 0A46     		mov	r2, r1
 2183              	.LVL137:
 2184              	.LBB458:
 2185              	.LBI454:
  67:D:/fchai/work/i-cube/I-CUBE-HUAWEI/Drivers/BSP/Components/lis2dw12\lis2dw12_reg.c ****                            uint16_t len)
 2186              		.loc 1 67 9 is_stmt 1 view .LVU568
 2187              	.LBB456:
  70:D:/fchai/work/i-cube/I-CUBE-HUAWEI/Drivers/BSP/Components/lis2dw12\lis2dw12_reg.c ****   ret = ctx->write_reg(ctx->handle, reg, data, len);
 2188              		.loc 1 70 3 view .LVU569
  71:D:/fchai/work/i-cube/I-CUBE-HUAWEI/Drivers/BSP/Components/lis2dw12\lis2dw12_reg.c ****   return ret;
 2189              		.loc 1 71 3 view .LVU570
  71:D:/fchai/work/i-cube/I-CUBE-HUAWEI/Drivers/BSP/Components/lis2dw12\lis2dw12_reg.c ****   return ret;
 2190              		.loc 1 71 9 is_stmt 0 view .LVU571
 2191 0008 A446     		mov	ip, r4
 2192 000a 0123     		movs	r3, #1
 2193              	.LBE456:
 2194              	.LBE458:
ARM GAS  T:\msys\tmp\ccye0a00.s 			page 55


 579:D:/fchai/work/i-cube/I-CUBE-HUAWEI/Drivers/BSP/Components/lis2dw12\lis2dw12_reg.c ****   return ret;
 580:D:/fchai/work/i-cube/I-CUBE-HUAWEI/Drivers/BSP/Components/lis2dw12\lis2dw12_reg.c **** }
 2195              		.loc 1 580 1 view .LVU572
 2196 000c 5DF8044B 		ldr	r4, [sp], #4
 2197              	.LCFI48:
 2198              		.cfi_restore 4
 2199              		.cfi_def_cfa_offset 0
 2200              	.LBB459:
 2201              	.LBB457:
  71:D:/fchai/work/i-cube/I-CUBE-HUAWEI/Drivers/BSP/Components/lis2dw12\lis2dw12_reg.c ****   return ret;
 2202              		.loc 1 71 9 view .LVU573
 2203 0010 3E21     		movs	r1, #62
 2204              	.LVL138:
  71:D:/fchai/work/i-cube/I-CUBE-HUAWEI/Drivers/BSP/Components/lis2dw12\lis2dw12_reg.c ****   return ret;
 2205              		.loc 1 71 9 view .LVU574
 2206 0012 6047     		bx	ip
 2207              	.LVL139:
  71:D:/fchai/work/i-cube/I-CUBE-HUAWEI/Drivers/BSP/Components/lis2dw12\lis2dw12_reg.c ****   return ret;
 2208              		.loc 1 71 9 view .LVU575
 2209              	.LBE457:
 2210              	.LBE459:
 2211              		.cfi_endproc
 2212              	.LFE26:
 2214              		.section	.text.lis2dw12_usr_offset_z_get,"ax",%progbits
 2215              		.align	1
 2216              		.p2align 2,,3
 2217              		.global	lis2dw12_usr_offset_z_get
 2218              		.syntax unified
 2219              		.thumb
 2220              		.thumb_func
 2221              		.fpu fpv4-sp-d16
 2223              	lis2dw12_usr_offset_z_get:
 2224              	.LVL140:
 2225              	.LFB27:
 581:D:/fchai/work/i-cube/I-CUBE-HUAWEI/Drivers/BSP/Components/lis2dw12\lis2dw12_reg.c **** 
 582:D:/fchai/work/i-cube/I-CUBE-HUAWEI/Drivers/BSP/Components/lis2dw12\lis2dw12_reg.c **** /**
 583:D:/fchai/work/i-cube/I-CUBE-HUAWEI/Drivers/BSP/Components/lis2dw12\lis2dw12_reg.c ****   * @brief  Accelerometer Z-axis user offset correction expressed in twos
 584:D:/fchai/work/i-cube/I-CUBE-HUAWEI/Drivers/BSP/Components/lis2dw12\lis2dw12_reg.c ****   *         complement, weight depends on bit USR_OFF_W. The value must be
 585:D:/fchai/work/i-cube/I-CUBE-HUAWEI/Drivers/BSP/Components/lis2dw12\lis2dw12_reg.c ****   *         in the range [-127 127].[get]
 586:D:/fchai/work/i-cube/I-CUBE-HUAWEI/Drivers/BSP/Components/lis2dw12\lis2dw12_reg.c ****   *
 587:D:/fchai/work/i-cube/I-CUBE-HUAWEI/Drivers/BSP/Components/lis2dw12\lis2dw12_reg.c ****   * @param  ctx      read / write interface definitions
 588:D:/fchai/work/i-cube/I-CUBE-HUAWEI/Drivers/BSP/Components/lis2dw12\lis2dw12_reg.c ****   * @param  buff     buffer that stores data read
 589:D:/fchai/work/i-cube/I-CUBE-HUAWEI/Drivers/BSP/Components/lis2dw12\lis2dw12_reg.c ****   * @retval          interface status (MANDATORY: return 0 -> no Error)
 590:D:/fchai/work/i-cube/I-CUBE-HUAWEI/Drivers/BSP/Components/lis2dw12\lis2dw12_reg.c ****   *
 591:D:/fchai/work/i-cube/I-CUBE-HUAWEI/Drivers/BSP/Components/lis2dw12\lis2dw12_reg.c ****   */
 592:D:/fchai/work/i-cube/I-CUBE-HUAWEI/Drivers/BSP/Components/lis2dw12\lis2dw12_reg.c **** int32_t lis2dw12_usr_offset_z_get(stmdev_ctx_t *ctx, uint8_t *buff)
 593:D:/fchai/work/i-cube/I-CUBE-HUAWEI/Drivers/BSP/Components/lis2dw12\lis2dw12_reg.c **** {
 2226              		.loc 1 593 1 is_stmt 1 view -0
 2227              		.cfi_startproc
 2228              		@ args = 0, pretend = 0, frame = 0
 2229              		@ frame_needed = 0, uses_anonymous_args = 0
 2230              		@ link register save eliminated.
 594:D:/fchai/work/i-cube/I-CUBE-HUAWEI/Drivers/BSP/Components/lis2dw12\lis2dw12_reg.c ****   int32_t ret;
 2231              		.loc 1 594 3 view .LVU577
 595:D:/fchai/work/i-cube/I-CUBE-HUAWEI/Drivers/BSP/Components/lis2dw12\lis2dw12_reg.c ****   ret = lis2dw12_read_reg(ctx, LIS2DW12_Z_OFS_USR, buff, 1);
 2232              		.loc 1 595 3 view .LVU578
 593:D:/fchai/work/i-cube/I-CUBE-HUAWEI/Drivers/BSP/Components/lis2dw12\lis2dw12_reg.c ****   int32_t ret;
ARM GAS  T:\msys\tmp\ccye0a00.s 			page 56


 2233              		.loc 1 593 1 is_stmt 0 view .LVU579
 2234 0000 10B4     		push	{r4}
 2235              	.LCFI49:
 2236              		.cfi_def_cfa_offset 4
 2237              		.cfi_offset 4, -4
 2238              	.LBB460:
 2239              	.LBB461:
  53:D:/fchai/work/i-cube/I-CUBE-HUAWEI/Drivers/BSP/Components/lis2dw12\lis2dw12_reg.c ****   return ret;
 2240              		.loc 1 53 9 view .LVU580
 2241 0002 D0E90140 		ldrd	r4, r0, [r0, #4]
 2242              	.LVL141:
  53:D:/fchai/work/i-cube/I-CUBE-HUAWEI/Drivers/BSP/Components/lis2dw12\lis2dw12_reg.c ****   return ret;
 2243              		.loc 1 53 9 view .LVU581
 2244              	.LBE461:
 2245              	.LBE460:
 593:D:/fchai/work/i-cube/I-CUBE-HUAWEI/Drivers/BSP/Components/lis2dw12\lis2dw12_reg.c ****   int32_t ret;
 2246              		.loc 1 593 1 view .LVU582
 2247 0006 0A46     		mov	r2, r1
 2248              	.LVL142:
 2249              	.LBB464:
 2250              	.LBI460:
  49:D:/fchai/work/i-cube/I-CUBE-HUAWEI/Drivers/BSP/Components/lis2dw12\lis2dw12_reg.c ****                           uint16_t len)
 2251              		.loc 1 49 9 is_stmt 1 view .LVU583
 2252              	.LBB462:
  52:D:/fchai/work/i-cube/I-CUBE-HUAWEI/Drivers/BSP/Components/lis2dw12\lis2dw12_reg.c ****   ret = ctx->read_reg(ctx->handle, reg, data, len);
 2253              		.loc 1 52 3 view .LVU584
  53:D:/fchai/work/i-cube/I-CUBE-HUAWEI/Drivers/BSP/Components/lis2dw12\lis2dw12_reg.c ****   return ret;
 2254              		.loc 1 53 3 view .LVU585
  53:D:/fchai/work/i-cube/I-CUBE-HUAWEI/Drivers/BSP/Components/lis2dw12\lis2dw12_reg.c ****   return ret;
 2255              		.loc 1 53 9 is_stmt 0 view .LVU586
 2256 0008 A446     		mov	ip, r4
 2257 000a 0123     		movs	r3, #1
 2258              	.LBE462:
 2259              	.LBE464:
 596:D:/fchai/work/i-cube/I-CUBE-HUAWEI/Drivers/BSP/Components/lis2dw12\lis2dw12_reg.c ****   return ret;
 597:D:/fchai/work/i-cube/I-CUBE-HUAWEI/Drivers/BSP/Components/lis2dw12\lis2dw12_reg.c **** }
 2260              		.loc 1 597 1 view .LVU587
 2261 000c 5DF8044B 		ldr	r4, [sp], #4
 2262              	.LCFI50:
 2263              		.cfi_restore 4
 2264              		.cfi_def_cfa_offset 0
 2265              	.LBB465:
 2266              	.LBB463:
  53:D:/fchai/work/i-cube/I-CUBE-HUAWEI/Drivers/BSP/Components/lis2dw12\lis2dw12_reg.c ****   return ret;
 2267              		.loc 1 53 9 view .LVU588
 2268 0010 3E21     		movs	r1, #62
 2269              	.LVL143:
  53:D:/fchai/work/i-cube/I-CUBE-HUAWEI/Drivers/BSP/Components/lis2dw12\lis2dw12_reg.c ****   return ret;
 2270              		.loc 1 53 9 view .LVU589
 2271 0012 6047     		bx	ip
 2272              	.LVL144:
  53:D:/fchai/work/i-cube/I-CUBE-HUAWEI/Drivers/BSP/Components/lis2dw12\lis2dw12_reg.c ****   return ret;
 2273              		.loc 1 53 9 view .LVU590
 2274              	.LBE463:
 2275              	.LBE465:
 2276              		.cfi_endproc
 2277              	.LFE27:
ARM GAS  T:\msys\tmp\ccye0a00.s 			page 57


 2279              		.section	.text.lis2dw12_offset_weight_set,"ax",%progbits
 2280              		.align	1
 2281              		.p2align 2,,3
 2282              		.global	lis2dw12_offset_weight_set
 2283              		.syntax unified
 2284              		.thumb
 2285              		.thumb_func
 2286              		.fpu fpv4-sp-d16
 2288              	lis2dw12_offset_weight_set:
 2289              	.LVL145:
 2290              	.LFB28:
 598:D:/fchai/work/i-cube/I-CUBE-HUAWEI/Drivers/BSP/Components/lis2dw12\lis2dw12_reg.c **** 
 599:D:/fchai/work/i-cube/I-CUBE-HUAWEI/Drivers/BSP/Components/lis2dw12\lis2dw12_reg.c **** /**
 600:D:/fchai/work/i-cube/I-CUBE-HUAWEI/Drivers/BSP/Components/lis2dw12\lis2dw12_reg.c ****   * @brief  Weight of XL user offset bits of registers X_OFS_USR,
 601:D:/fchai/work/i-cube/I-CUBE-HUAWEI/Drivers/BSP/Components/lis2dw12\lis2dw12_reg.c ****   *         Y_OFS_USR, Z_OFS_USR.[set]
 602:D:/fchai/work/i-cube/I-CUBE-HUAWEI/Drivers/BSP/Components/lis2dw12\lis2dw12_reg.c ****   *
 603:D:/fchai/work/i-cube/I-CUBE-HUAWEI/Drivers/BSP/Components/lis2dw12\lis2dw12_reg.c ****   * @param  ctx      read / write interface definitions
 604:D:/fchai/work/i-cube/I-CUBE-HUAWEI/Drivers/BSP/Components/lis2dw12\lis2dw12_reg.c ****   * @param  val      change the values of usr_off_w in
 605:D:/fchai/work/i-cube/I-CUBE-HUAWEI/Drivers/BSP/Components/lis2dw12\lis2dw12_reg.c ****   *                               reg CTRL_REG7
 606:D:/fchai/work/i-cube/I-CUBE-HUAWEI/Drivers/BSP/Components/lis2dw12\lis2dw12_reg.c ****   * @retval          interface status (MANDATORY: return 0 -> no Error)
 607:D:/fchai/work/i-cube/I-CUBE-HUAWEI/Drivers/BSP/Components/lis2dw12\lis2dw12_reg.c ****   *
 608:D:/fchai/work/i-cube/I-CUBE-HUAWEI/Drivers/BSP/Components/lis2dw12\lis2dw12_reg.c ****   */
 609:D:/fchai/work/i-cube/I-CUBE-HUAWEI/Drivers/BSP/Components/lis2dw12\lis2dw12_reg.c **** int32_t lis2dw12_offset_weight_set(stmdev_ctx_t *ctx,
 610:D:/fchai/work/i-cube/I-CUBE-HUAWEI/Drivers/BSP/Components/lis2dw12\lis2dw12_reg.c ****                                    lis2dw12_usr_off_w_t val)
 611:D:/fchai/work/i-cube/I-CUBE-HUAWEI/Drivers/BSP/Components/lis2dw12\lis2dw12_reg.c **** {
 2291              		.loc 1 611 1 is_stmt 1 view -0
 2292              		.cfi_startproc
 2293              		@ args = 0, pretend = 0, frame = 8
 2294              		@ frame_needed = 0, uses_anonymous_args = 0
 612:D:/fchai/work/i-cube/I-CUBE-HUAWEI/Drivers/BSP/Components/lis2dw12\lis2dw12_reg.c ****   lis2dw12_ctrl_reg7_t reg;
 2295              		.loc 1 612 3 view .LVU592
 613:D:/fchai/work/i-cube/I-CUBE-HUAWEI/Drivers/BSP/Components/lis2dw12\lis2dw12_reg.c ****   int32_t ret;
 2296              		.loc 1 613 3 view .LVU593
 614:D:/fchai/work/i-cube/I-CUBE-HUAWEI/Drivers/BSP/Components/lis2dw12\lis2dw12_reg.c **** 
 615:D:/fchai/work/i-cube/I-CUBE-HUAWEI/Drivers/BSP/Components/lis2dw12\lis2dw12_reg.c ****   ret = lis2dw12_read_reg(ctx, LIS2DW12_CTRL_REG7,(uint8_t*) &reg, 1);
 2297              		.loc 1 615 3 view .LVU594
 611:D:/fchai/work/i-cube/I-CUBE-HUAWEI/Drivers/BSP/Components/lis2dw12\lis2dw12_reg.c ****   lis2dw12_ctrl_reg7_t reg;
 2298              		.loc 1 611 1 is_stmt 0 view .LVU595
 2299 0000 70B5     		push	{r4, r5, r6, lr}
 2300              	.LCFI51:
 2301              		.cfi_def_cfa_offset 16
 2302              		.cfi_offset 4, -16
 2303              		.cfi_offset 5, -12
 2304              		.cfi_offset 6, -8
 2305              		.cfi_offset 14, -4
 2306 0002 82B0     		sub	sp, sp, #8
 2307              	.LCFI52:
 2308              		.cfi_def_cfa_offset 24
 611:D:/fchai/work/i-cube/I-CUBE-HUAWEI/Drivers/BSP/Components/lis2dw12\lis2dw12_reg.c ****   lis2dw12_ctrl_reg7_t reg;
 2309              		.loc 1 611 1 view .LVU596
 2310 0004 0446     		mov	r4, r0
 2311              	.LVL146:
 2312              	.LBB466:
 2313              	.LBI466:
  49:D:/fchai/work/i-cube/I-CUBE-HUAWEI/Drivers/BSP/Components/lis2dw12\lis2dw12_reg.c ****                           uint16_t len)
 2314              		.loc 1 49 9 is_stmt 1 view .LVU597
 2315              	.LBB467:
ARM GAS  T:\msys\tmp\ccye0a00.s 			page 58


  52:D:/fchai/work/i-cube/I-CUBE-HUAWEI/Drivers/BSP/Components/lis2dw12\lis2dw12_reg.c ****   ret = ctx->read_reg(ctx->handle, reg, data, len);
 2316              		.loc 1 52 3 view .LVU598
  53:D:/fchai/work/i-cube/I-CUBE-HUAWEI/Drivers/BSP/Components/lis2dw12\lis2dw12_reg.c ****   return ret;
 2317              		.loc 1 53 3 view .LVU599
 2318              	.LBE467:
 2319              	.LBE466:
 611:D:/fchai/work/i-cube/I-CUBE-HUAWEI/Drivers/BSP/Components/lis2dw12\lis2dw12_reg.c ****   lis2dw12_ctrl_reg7_t reg;
 2320              		.loc 1 611 1 is_stmt 0 view .LVU600
 2321 0006 0D46     		mov	r5, r1
 2322              	.LBB469:
 2323              	.LBB468:
  53:D:/fchai/work/i-cube/I-CUBE-HUAWEI/Drivers/BSP/Components/lis2dw12\lis2dw12_reg.c ****   return ret;
 2324              		.loc 1 53 9 view .LVU601
 2325 0008 D0E90160 		ldrd	r6, r0, [r0, #4]
 2326              	.LVL147:
  53:D:/fchai/work/i-cube/I-CUBE-HUAWEI/Drivers/BSP/Components/lis2dw12\lis2dw12_reg.c ****   return ret;
 2327              		.loc 1 53 9 view .LVU602
 2328 000c 01AA     		add	r2, sp, #4
 2329              	.LVL148:
  53:D:/fchai/work/i-cube/I-CUBE-HUAWEI/Drivers/BSP/Components/lis2dw12\lis2dw12_reg.c ****   return ret;
 2330              		.loc 1 53 9 view .LVU603
 2331 000e 0123     		movs	r3, #1
 2332 0010 3F21     		movs	r1, #63
 2333              	.LVL149:
  53:D:/fchai/work/i-cube/I-CUBE-HUAWEI/Drivers/BSP/Components/lis2dw12\lis2dw12_reg.c ****   return ret;
 2334              		.loc 1 53 9 view .LVU604
 2335 0012 B047     		blx	r6
 2336              	.LVL150:
  54:D:/fchai/work/i-cube/I-CUBE-HUAWEI/Drivers/BSP/Components/lis2dw12\lis2dw12_reg.c **** }
 2337              		.loc 1 54 3 is_stmt 1 view .LVU605
  54:D:/fchai/work/i-cube/I-CUBE-HUAWEI/Drivers/BSP/Components/lis2dw12\lis2dw12_reg.c **** }
 2338              		.loc 1 54 3 is_stmt 0 view .LVU606
 2339              	.LBE468:
 2340              	.LBE469:
 616:D:/fchai/work/i-cube/I-CUBE-HUAWEI/Drivers/BSP/Components/lis2dw12\lis2dw12_reg.c ****   if (ret == 0) {
 2341              		.loc 1 616 3 is_stmt 1 view .LVU607
 2342              		.loc 1 616 6 is_stmt 0 view .LVU608
 2343 0014 58B9     		cbnz	r0, .L111
 617:D:/fchai/work/i-cube/I-CUBE-HUAWEI/Drivers/BSP/Components/lis2dw12\lis2dw12_reg.c ****     reg.usr_off_w = (uint8_t) val;
 2344              		.loc 1 617 5 is_stmt 1 view .LVU609
 2345              		.loc 1 617 19 is_stmt 0 view .LVU610
 2346 0016 9DF80430 		ldrb	r3, [sp, #4]	@ zero_extendqisi2
 2347              	.LBB470:
 2348              	.LBB471:
  71:D:/fchai/work/i-cube/I-CUBE-HUAWEI/Drivers/BSP/Components/lis2dw12\lis2dw12_reg.c ****   return ret;
 2349              		.loc 1 71 9 view .LVU611
 2350 001a 2668     		ldr	r6, [r4]
 2351 001c A068     		ldr	r0, [r4, #8]
 2352              	.LVL151:
  71:D:/fchai/work/i-cube/I-CUBE-HUAWEI/Drivers/BSP/Components/lis2dw12\lis2dw12_reg.c ****   return ret;
 2353              		.loc 1 71 9 view .LVU612
 2354              	.LBE471:
 2355              	.LBE470:
 2356              		.loc 1 617 19 view .LVU613
 2357 001e 65F38203 		bfi	r3, r5, #2, #1
 2358 0022 8DF80430 		strb	r3, [sp, #4]
 618:D:/fchai/work/i-cube/I-CUBE-HUAWEI/Drivers/BSP/Components/lis2dw12\lis2dw12_reg.c ****     ret = lis2dw12_write_reg(ctx, LIS2DW12_CTRL_REG7,(uint8_t*) &reg, 1);
ARM GAS  T:\msys\tmp\ccye0a00.s 			page 59


 2359              		.loc 1 618 5 is_stmt 1 view .LVU614
 2360              	.LVL152:
 2361              	.LBB473:
 2362              	.LBI470:
  67:D:/fchai/work/i-cube/I-CUBE-HUAWEI/Drivers/BSP/Components/lis2dw12\lis2dw12_reg.c ****                            uint16_t len)
 2363              		.loc 1 67 9 view .LVU615
 2364              	.LBB472:
  70:D:/fchai/work/i-cube/I-CUBE-HUAWEI/Drivers/BSP/Components/lis2dw12\lis2dw12_reg.c ****   ret = ctx->write_reg(ctx->handle, reg, data, len);
 2365              		.loc 1 70 3 view .LVU616
  71:D:/fchai/work/i-cube/I-CUBE-HUAWEI/Drivers/BSP/Components/lis2dw12\lis2dw12_reg.c ****   return ret;
 2366              		.loc 1 71 3 view .LVU617
  71:D:/fchai/work/i-cube/I-CUBE-HUAWEI/Drivers/BSP/Components/lis2dw12\lis2dw12_reg.c ****   return ret;
 2367              		.loc 1 71 9 is_stmt 0 view .LVU618
 2368 0026 01AA     		add	r2, sp, #4
 2369              	.LVL153:
  71:D:/fchai/work/i-cube/I-CUBE-HUAWEI/Drivers/BSP/Components/lis2dw12\lis2dw12_reg.c ****   return ret;
 2370              		.loc 1 71 9 view .LVU619
 2371 0028 0123     		movs	r3, #1
 2372 002a 3F21     		movs	r1, #63
 2373 002c B047     		blx	r6
 2374              	.LVL154:
  72:D:/fchai/work/i-cube/I-CUBE-HUAWEI/Drivers/BSP/Components/lis2dw12\lis2dw12_reg.c **** }
 2375              		.loc 1 72 3 is_stmt 1 view .LVU620
  72:D:/fchai/work/i-cube/I-CUBE-HUAWEI/Drivers/BSP/Components/lis2dw12\lis2dw12_reg.c **** }
 2376              		.loc 1 72 3 is_stmt 0 view .LVU621
 2377              	.LBE472:
 2378              	.LBE473:
 619:D:/fchai/work/i-cube/I-CUBE-HUAWEI/Drivers/BSP/Components/lis2dw12\lis2dw12_reg.c ****   }
 620:D:/fchai/work/i-cube/I-CUBE-HUAWEI/Drivers/BSP/Components/lis2dw12\lis2dw12_reg.c ****   return ret;
 2379              		.loc 1 620 3 is_stmt 1 view .LVU622
 2380              	.L111:
 621:D:/fchai/work/i-cube/I-CUBE-HUAWEI/Drivers/BSP/Components/lis2dw12\lis2dw12_reg.c **** }
 2381              		.loc 1 621 1 is_stmt 0 view .LVU623
 2382 002e 02B0     		add	sp, sp, #8
 2383              	.LCFI53:
 2384              		.cfi_def_cfa_offset 16
 2385              		@ sp needed
 2386 0030 70BD     		pop	{r4, r5, r6, pc}
 2387              		.loc 1 621 1 view .LVU624
 2388              		.cfi_endproc
 2389              	.LFE28:
 2391 0032 00BF     		.section	.text.lis2dw12_offset_weight_get,"ax",%progbits
 2392              		.align	1
 2393              		.p2align 2,,3
 2394              		.global	lis2dw12_offset_weight_get
 2395              		.syntax unified
 2396              		.thumb
 2397              		.thumb_func
 2398              		.fpu fpv4-sp-d16
 2400              	lis2dw12_offset_weight_get:
 2401              	.LVL155:
 2402              	.LFB29:
 622:D:/fchai/work/i-cube/I-CUBE-HUAWEI/Drivers/BSP/Components/lis2dw12\lis2dw12_reg.c **** 
 623:D:/fchai/work/i-cube/I-CUBE-HUAWEI/Drivers/BSP/Components/lis2dw12\lis2dw12_reg.c **** /**
 624:D:/fchai/work/i-cube/I-CUBE-HUAWEI/Drivers/BSP/Components/lis2dw12\lis2dw12_reg.c ****   * @brief  Weight of XL user offset bits of registers X_OFS_USR,
 625:D:/fchai/work/i-cube/I-CUBE-HUAWEI/Drivers/BSP/Components/lis2dw12\lis2dw12_reg.c ****   *         Y_OFS_USR, Z_OFS_USR.[get]
 626:D:/fchai/work/i-cube/I-CUBE-HUAWEI/Drivers/BSP/Components/lis2dw12\lis2dw12_reg.c ****   *
ARM GAS  T:\msys\tmp\ccye0a00.s 			page 60


 627:D:/fchai/work/i-cube/I-CUBE-HUAWEI/Drivers/BSP/Components/lis2dw12\lis2dw12_reg.c ****   * @param  ctx      read / write interface definitions
 628:D:/fchai/work/i-cube/I-CUBE-HUAWEI/Drivers/BSP/Components/lis2dw12\lis2dw12_reg.c ****   * @param  val      Get the values of usr_off_w in reg CTRL_REG7
 629:D:/fchai/work/i-cube/I-CUBE-HUAWEI/Drivers/BSP/Components/lis2dw12\lis2dw12_reg.c ****   * @retval          interface status (MANDATORY: return 0 -> no Error)
 630:D:/fchai/work/i-cube/I-CUBE-HUAWEI/Drivers/BSP/Components/lis2dw12\lis2dw12_reg.c ****   *
 631:D:/fchai/work/i-cube/I-CUBE-HUAWEI/Drivers/BSP/Components/lis2dw12\lis2dw12_reg.c ****   */
 632:D:/fchai/work/i-cube/I-CUBE-HUAWEI/Drivers/BSP/Components/lis2dw12\lis2dw12_reg.c **** int32_t lis2dw12_offset_weight_get(stmdev_ctx_t *ctx,
 633:D:/fchai/work/i-cube/I-CUBE-HUAWEI/Drivers/BSP/Components/lis2dw12\lis2dw12_reg.c ****                                    lis2dw12_usr_off_w_t *val)
 634:D:/fchai/work/i-cube/I-CUBE-HUAWEI/Drivers/BSP/Components/lis2dw12\lis2dw12_reg.c **** {
 2403              		.loc 1 634 1 is_stmt 1 view -0
 2404              		.cfi_startproc
 2405              		@ args = 0, pretend = 0, frame = 8
 2406              		@ frame_needed = 0, uses_anonymous_args = 0
 635:D:/fchai/work/i-cube/I-CUBE-HUAWEI/Drivers/BSP/Components/lis2dw12\lis2dw12_reg.c ****   lis2dw12_ctrl_reg7_t reg;
 2407              		.loc 1 635 3 view .LVU626
 636:D:/fchai/work/i-cube/I-CUBE-HUAWEI/Drivers/BSP/Components/lis2dw12\lis2dw12_reg.c ****   int32_t ret;
 2408              		.loc 1 636 3 view .LVU627
 637:D:/fchai/work/i-cube/I-CUBE-HUAWEI/Drivers/BSP/Components/lis2dw12\lis2dw12_reg.c **** 
 638:D:/fchai/work/i-cube/I-CUBE-HUAWEI/Drivers/BSP/Components/lis2dw12\lis2dw12_reg.c ****   ret = lis2dw12_read_reg(ctx, LIS2DW12_CTRL_REG7,(uint8_t*) &reg, 1);
 2409              		.loc 1 638 3 view .LVU628
 634:D:/fchai/work/i-cube/I-CUBE-HUAWEI/Drivers/BSP/Components/lis2dw12\lis2dw12_reg.c ****   lis2dw12_ctrl_reg7_t reg;
 2410              		.loc 1 634 1 is_stmt 0 view .LVU629
 2411 0000 30B5     		push	{r4, r5, lr}
 2412              	.LCFI54:
 2413              		.cfi_def_cfa_offset 12
 2414              		.cfi_offset 4, -12
 2415              		.cfi_offset 5, -8
 2416              		.cfi_offset 14, -4
 2417 0002 83B0     		sub	sp, sp, #12
 2418              	.LCFI55:
 2419              		.cfi_def_cfa_offset 24
 2420              	.LVL156:
 2421              	.LBB474:
 2422              	.LBI474:
  49:D:/fchai/work/i-cube/I-CUBE-HUAWEI/Drivers/BSP/Components/lis2dw12\lis2dw12_reg.c ****                           uint16_t len)
 2423              		.loc 1 49 9 is_stmt 1 view .LVU630
 2424              	.LBB475:
  52:D:/fchai/work/i-cube/I-CUBE-HUAWEI/Drivers/BSP/Components/lis2dw12\lis2dw12_reg.c ****   ret = ctx->read_reg(ctx->handle, reg, data, len);
 2425              		.loc 1 52 3 view .LVU631
  53:D:/fchai/work/i-cube/I-CUBE-HUAWEI/Drivers/BSP/Components/lis2dw12\lis2dw12_reg.c ****   return ret;
 2426              		.loc 1 53 3 view .LVU632
 2427              	.LBE475:
 2428              	.LBE474:
 634:D:/fchai/work/i-cube/I-CUBE-HUAWEI/Drivers/BSP/Components/lis2dw12\lis2dw12_reg.c ****   lis2dw12_ctrl_reg7_t reg;
 2429              		.loc 1 634 1 is_stmt 0 view .LVU633
 2430 0004 0C46     		mov	r4, r1
 2431              	.LBB478:
 2432              	.LBB476:
  53:D:/fchai/work/i-cube/I-CUBE-HUAWEI/Drivers/BSP/Components/lis2dw12\lis2dw12_reg.c ****   return ret;
 2433              		.loc 1 53 9 view .LVU634
 2434 0006 01AA     		add	r2, sp, #4
 2435              	.LVL157:
  53:D:/fchai/work/i-cube/I-CUBE-HUAWEI/Drivers/BSP/Components/lis2dw12\lis2dw12_reg.c ****   return ret;
 2436              		.loc 1 53 9 view .LVU635
 2437 0008 D0E90150 		ldrd	r5, r0, [r0, #4]
 2438              	.LVL158:
  53:D:/fchai/work/i-cube/I-CUBE-HUAWEI/Drivers/BSP/Components/lis2dw12\lis2dw12_reg.c ****   return ret;
 2439              		.loc 1 53 9 view .LVU636
ARM GAS  T:\msys\tmp\ccye0a00.s 			page 61


 2440 000c 0123     		movs	r3, #1
 2441 000e 3F21     		movs	r1, #63
 2442              	.LVL159:
  53:D:/fchai/work/i-cube/I-CUBE-HUAWEI/Drivers/BSP/Components/lis2dw12\lis2dw12_reg.c ****   return ret;
 2443              		.loc 1 53 9 view .LVU637
 2444 0010 A847     		blx	r5
 2445              	.LVL160:
  53:D:/fchai/work/i-cube/I-CUBE-HUAWEI/Drivers/BSP/Components/lis2dw12\lis2dw12_reg.c ****   return ret;
 2446              		.loc 1 53 9 view .LVU638
 2447              	.LBE476:
 2448              	.LBE478:
 639:D:/fchai/work/i-cube/I-CUBE-HUAWEI/Drivers/BSP/Components/lis2dw12\lis2dw12_reg.c ****   switch (reg.usr_off_w) {
 2449              		.loc 1 639 14 view .LVU639
 2450 0012 9DF80430 		ldrb	r3, [sp, #4]	@ zero_extendqisi2
 2451              	.LVL161:
 2452              	.LBB479:
 2453              	.LBB477:
  54:D:/fchai/work/i-cube/I-CUBE-HUAWEI/Drivers/BSP/Components/lis2dw12\lis2dw12_reg.c **** }
 2454              		.loc 1 54 3 is_stmt 1 view .LVU640
  54:D:/fchai/work/i-cube/I-CUBE-HUAWEI/Drivers/BSP/Components/lis2dw12\lis2dw12_reg.c **** }
 2455              		.loc 1 54 3 is_stmt 0 view .LVU641
 2456              	.LBE477:
 2457              	.LBE479:
 2458              		.loc 1 639 3 is_stmt 1 view .LVU642
 2459              		.loc 1 639 14 is_stmt 0 view .LVU643
 2460 0016 C3F38002 		ubfx	r2, r3, #2, #1
 2461              		.loc 1 639 3 view .LVU644
 2462 001a 5B07     		lsls	r3, r3, #29
 640:D:/fchai/work/i-cube/I-CUBE-HUAWEI/Drivers/BSP/Components/lis2dw12\lis2dw12_reg.c ****     case LIS2DW12_LSb_977ug:
 641:D:/fchai/work/i-cube/I-CUBE-HUAWEI/Drivers/BSP/Components/lis2dw12\lis2dw12_reg.c ****       *val = LIS2DW12_LSb_977ug;
 2463              		.loc 1 641 7 is_stmt 1 view .LVU645
 2464              		.loc 1 641 12 is_stmt 0 view .LVU646
 2465 001c 5ABF     		itte	pl
 2466 001e 0023     		movpl	r3, #0
 2467 0020 2370     		strbpl	r3, [r4]
 642:D:/fchai/work/i-cube/I-CUBE-HUAWEI/Drivers/BSP/Components/lis2dw12\lis2dw12_reg.c ****       break;
 2468              		.loc 1 642 7 is_stmt 1 view .LVU647
 643:D:/fchai/work/i-cube/I-CUBE-HUAWEI/Drivers/BSP/Components/lis2dw12\lis2dw12_reg.c ****     case LIS2DW12_LSb_15mg6:
 644:D:/fchai/work/i-cube/I-CUBE-HUAWEI/Drivers/BSP/Components/lis2dw12\lis2dw12_reg.c ****       *val = LIS2DW12_LSb_15mg6;
 2469              		.loc 1 644 7 view .LVU648
 2470              		.loc 1 644 12 is_stmt 0 view .LVU649
 2471 0022 2270     		strbmi	r2, [r4]
 645:D:/fchai/work/i-cube/I-CUBE-HUAWEI/Drivers/BSP/Components/lis2dw12\lis2dw12_reg.c ****       break;
 2472              		.loc 1 645 7 is_stmt 1 view .LVU650
 646:D:/fchai/work/i-cube/I-CUBE-HUAWEI/Drivers/BSP/Components/lis2dw12\lis2dw12_reg.c ****     default:
 647:D:/fchai/work/i-cube/I-CUBE-HUAWEI/Drivers/BSP/Components/lis2dw12\lis2dw12_reg.c ****       *val = LIS2DW12_LSb_977ug;
 648:D:/fchai/work/i-cube/I-CUBE-HUAWEI/Drivers/BSP/Components/lis2dw12\lis2dw12_reg.c ****       break;
 649:D:/fchai/work/i-cube/I-CUBE-HUAWEI/Drivers/BSP/Components/lis2dw12\lis2dw12_reg.c ****   }
 650:D:/fchai/work/i-cube/I-CUBE-HUAWEI/Drivers/BSP/Components/lis2dw12\lis2dw12_reg.c ****   return ret;
 2473              		.loc 1 650 3 view .LVU651
 651:D:/fchai/work/i-cube/I-CUBE-HUAWEI/Drivers/BSP/Components/lis2dw12\lis2dw12_reg.c **** }
 2474              		.loc 1 651 1 is_stmt 0 view .LVU652
 2475 0024 03B0     		add	sp, sp, #12
 2476              	.LCFI56:
 2477              		.cfi_def_cfa_offset 12
 2478              		@ sp needed
 2479 0026 30BD     		pop	{r4, r5, pc}
ARM GAS  T:\msys\tmp\ccye0a00.s 			page 62


 2480              		.loc 1 651 1 view .LVU653
 2481              		.cfi_endproc
 2482              	.LFE29:
 2484              		.section	.text.lis2dw12_temperature_raw_get,"ax",%progbits
 2485              		.align	1
 2486              		.p2align 2,,3
 2487              		.global	lis2dw12_temperature_raw_get
 2488              		.syntax unified
 2489              		.thumb
 2490              		.thumb_func
 2491              		.fpu fpv4-sp-d16
 2493              	lis2dw12_temperature_raw_get:
 2494              	.LVL162:
 2495              	.LFB30:
 652:D:/fchai/work/i-cube/I-CUBE-HUAWEI/Drivers/BSP/Components/lis2dw12\lis2dw12_reg.c **** 
 653:D:/fchai/work/i-cube/I-CUBE-HUAWEI/Drivers/BSP/Components/lis2dw12\lis2dw12_reg.c **** /**
 654:D:/fchai/work/i-cube/I-CUBE-HUAWEI/Drivers/BSP/Components/lis2dw12\lis2dw12_reg.c ****   * @}
 655:D:/fchai/work/i-cube/I-CUBE-HUAWEI/Drivers/BSP/Components/lis2dw12\lis2dw12_reg.c ****   *
 656:D:/fchai/work/i-cube/I-CUBE-HUAWEI/Drivers/BSP/Components/lis2dw12\lis2dw12_reg.c ****   */
 657:D:/fchai/work/i-cube/I-CUBE-HUAWEI/Drivers/BSP/Components/lis2dw12\lis2dw12_reg.c **** 
 658:D:/fchai/work/i-cube/I-CUBE-HUAWEI/Drivers/BSP/Components/lis2dw12\lis2dw12_reg.c **** /**
 659:D:/fchai/work/i-cube/I-CUBE-HUAWEI/Drivers/BSP/Components/lis2dw12\lis2dw12_reg.c ****   * @defgroup  LIS2DW12_Data_Output
 660:D:/fchai/work/i-cube/I-CUBE-HUAWEI/Drivers/BSP/Components/lis2dw12\lis2dw12_reg.c ****   * @brief     This section groups all the data output functions.
 661:D:/fchai/work/i-cube/I-CUBE-HUAWEI/Drivers/BSP/Components/lis2dw12\lis2dw12_reg.c ****   * @{
 662:D:/fchai/work/i-cube/I-CUBE-HUAWEI/Drivers/BSP/Components/lis2dw12\lis2dw12_reg.c ****   *
 663:D:/fchai/work/i-cube/I-CUBE-HUAWEI/Drivers/BSP/Components/lis2dw12\lis2dw12_reg.c ****   */
 664:D:/fchai/work/i-cube/I-CUBE-HUAWEI/Drivers/BSP/Components/lis2dw12\lis2dw12_reg.c **** 
 665:D:/fchai/work/i-cube/I-CUBE-HUAWEI/Drivers/BSP/Components/lis2dw12\lis2dw12_reg.c **** /**
 666:D:/fchai/work/i-cube/I-CUBE-HUAWEI/Drivers/BSP/Components/lis2dw12\lis2dw12_reg.c ****   * @brief  Temperature data output register (r). L and H registers
 667:D:/fchai/work/i-cube/I-CUBE-HUAWEI/Drivers/BSP/Components/lis2dw12\lis2dw12_reg.c ****   *         together express a 16-bit word in twos complement.[get]
 668:D:/fchai/work/i-cube/I-CUBE-HUAWEI/Drivers/BSP/Components/lis2dw12\lis2dw12_reg.c ****   *
 669:D:/fchai/work/i-cube/I-CUBE-HUAWEI/Drivers/BSP/Components/lis2dw12\lis2dw12_reg.c ****   * @param  ctx      read / write interface definitions
 670:D:/fchai/work/i-cube/I-CUBE-HUAWEI/Drivers/BSP/Components/lis2dw12\lis2dw12_reg.c ****   * @param  buff     buffer that stores data read
 671:D:/fchai/work/i-cube/I-CUBE-HUAWEI/Drivers/BSP/Components/lis2dw12\lis2dw12_reg.c ****   * @retval          interface status (MANDATORY: return 0 -> no Error)
 672:D:/fchai/work/i-cube/I-CUBE-HUAWEI/Drivers/BSP/Components/lis2dw12\lis2dw12_reg.c ****   *
 673:D:/fchai/work/i-cube/I-CUBE-HUAWEI/Drivers/BSP/Components/lis2dw12\lis2dw12_reg.c ****   */
 674:D:/fchai/work/i-cube/I-CUBE-HUAWEI/Drivers/BSP/Components/lis2dw12\lis2dw12_reg.c **** int32_t lis2dw12_temperature_raw_get(stmdev_ctx_t *ctx, uint8_t *buff)
 675:D:/fchai/work/i-cube/I-CUBE-HUAWEI/Drivers/BSP/Components/lis2dw12\lis2dw12_reg.c **** {
 2496              		.loc 1 675 1 is_stmt 1 view -0
 2497              		.cfi_startproc
 2498              		@ args = 0, pretend = 0, frame = 0
 2499              		@ frame_needed = 0, uses_anonymous_args = 0
 2500              		@ link register save eliminated.
 676:D:/fchai/work/i-cube/I-CUBE-HUAWEI/Drivers/BSP/Components/lis2dw12\lis2dw12_reg.c ****   int32_t ret;
 2501              		.loc 1 676 3 view .LVU655
 677:D:/fchai/work/i-cube/I-CUBE-HUAWEI/Drivers/BSP/Components/lis2dw12\lis2dw12_reg.c ****   ret = lis2dw12_read_reg(ctx, LIS2DW12_OUT_T_L, buff, 2);
 2502              		.loc 1 677 3 view .LVU656
 675:D:/fchai/work/i-cube/I-CUBE-HUAWEI/Drivers/BSP/Components/lis2dw12\lis2dw12_reg.c ****   int32_t ret;
 2503              		.loc 1 675 1 is_stmt 0 view .LVU657
 2504 0000 10B4     		push	{r4}
 2505              	.LCFI57:
 2506              		.cfi_def_cfa_offset 4
 2507              		.cfi_offset 4, -4
 2508              	.LBB480:
 2509              	.LBB481:
  53:D:/fchai/work/i-cube/I-CUBE-HUAWEI/Drivers/BSP/Components/lis2dw12\lis2dw12_reg.c ****   return ret;
 2510              		.loc 1 53 9 view .LVU658
ARM GAS  T:\msys\tmp\ccye0a00.s 			page 63


 2511 0002 D0E90140 		ldrd	r4, r0, [r0, #4]
 2512              	.LVL163:
  53:D:/fchai/work/i-cube/I-CUBE-HUAWEI/Drivers/BSP/Components/lis2dw12\lis2dw12_reg.c ****   return ret;
 2513              		.loc 1 53 9 view .LVU659
 2514              	.LBE481:
 2515              	.LBE480:
 675:D:/fchai/work/i-cube/I-CUBE-HUAWEI/Drivers/BSP/Components/lis2dw12\lis2dw12_reg.c ****   int32_t ret;
 2516              		.loc 1 675 1 view .LVU660
 2517 0006 0A46     		mov	r2, r1
 2518              	.LVL164:
 2519              	.LBB484:
 2520              	.LBI480:
  49:D:/fchai/work/i-cube/I-CUBE-HUAWEI/Drivers/BSP/Components/lis2dw12\lis2dw12_reg.c ****                           uint16_t len)
 2521              		.loc 1 49 9 is_stmt 1 view .LVU661
 2522              	.LBB482:
  52:D:/fchai/work/i-cube/I-CUBE-HUAWEI/Drivers/BSP/Components/lis2dw12\lis2dw12_reg.c ****   ret = ctx->read_reg(ctx->handle, reg, data, len);
 2523              		.loc 1 52 3 view .LVU662
  53:D:/fchai/work/i-cube/I-CUBE-HUAWEI/Drivers/BSP/Components/lis2dw12\lis2dw12_reg.c ****   return ret;
 2524              		.loc 1 53 3 view .LVU663
  53:D:/fchai/work/i-cube/I-CUBE-HUAWEI/Drivers/BSP/Components/lis2dw12\lis2dw12_reg.c ****   return ret;
 2525              		.loc 1 53 9 is_stmt 0 view .LVU664
 2526 0008 A446     		mov	ip, r4
 2527 000a 0223     		movs	r3, #2
 2528              	.LBE482:
 2529              	.LBE484:
 678:D:/fchai/work/i-cube/I-CUBE-HUAWEI/Drivers/BSP/Components/lis2dw12\lis2dw12_reg.c ****   return ret;
 679:D:/fchai/work/i-cube/I-CUBE-HUAWEI/Drivers/BSP/Components/lis2dw12\lis2dw12_reg.c **** }
 2530              		.loc 1 679 1 view .LVU665
 2531 000c 5DF8044B 		ldr	r4, [sp], #4
 2532              	.LCFI58:
 2533              		.cfi_restore 4
 2534              		.cfi_def_cfa_offset 0
 2535              	.LBB485:
 2536              	.LBB483:
  53:D:/fchai/work/i-cube/I-CUBE-HUAWEI/Drivers/BSP/Components/lis2dw12\lis2dw12_reg.c ****   return ret;
 2537              		.loc 1 53 9 view .LVU666
 2538 0010 0D21     		movs	r1, #13
 2539              	.LVL165:
  53:D:/fchai/work/i-cube/I-CUBE-HUAWEI/Drivers/BSP/Components/lis2dw12\lis2dw12_reg.c ****   return ret;
 2540              		.loc 1 53 9 view .LVU667
 2541 0012 6047     		bx	ip
 2542              	.LVL166:
  53:D:/fchai/work/i-cube/I-CUBE-HUAWEI/Drivers/BSP/Components/lis2dw12\lis2dw12_reg.c ****   return ret;
 2543              		.loc 1 53 9 view .LVU668
 2544              	.LBE483:
 2545              	.LBE485:
 2546              		.cfi_endproc
 2547              	.LFE30:
 2549              		.section	.text.lis2dw12_acceleration_raw_get,"ax",%progbits
 2550              		.align	1
 2551              		.p2align 2,,3
 2552              		.global	lis2dw12_acceleration_raw_get
 2553              		.syntax unified
 2554              		.thumb
 2555              		.thumb_func
 2556              		.fpu fpv4-sp-d16
 2558              	lis2dw12_acceleration_raw_get:
ARM GAS  T:\msys\tmp\ccye0a00.s 			page 64


 2559              	.LVL167:
 2560              	.LFB31:
 680:D:/fchai/work/i-cube/I-CUBE-HUAWEI/Drivers/BSP/Components/lis2dw12\lis2dw12_reg.c **** 
 681:D:/fchai/work/i-cube/I-CUBE-HUAWEI/Drivers/BSP/Components/lis2dw12\lis2dw12_reg.c **** /**
 682:D:/fchai/work/i-cube/I-CUBE-HUAWEI/Drivers/BSP/Components/lis2dw12\lis2dw12_reg.c ****   * @brief  Linear acceleration output register. The value is expressed as
 683:D:/fchai/work/i-cube/I-CUBE-HUAWEI/Drivers/BSP/Components/lis2dw12\lis2dw12_reg.c ****   *         a 16-bit word in twos complement.[get]
 684:D:/fchai/work/i-cube/I-CUBE-HUAWEI/Drivers/BSP/Components/lis2dw12\lis2dw12_reg.c ****   *
 685:D:/fchai/work/i-cube/I-CUBE-HUAWEI/Drivers/BSP/Components/lis2dw12\lis2dw12_reg.c ****   * @param  ctx      read / write interface definitions
 686:D:/fchai/work/i-cube/I-CUBE-HUAWEI/Drivers/BSP/Components/lis2dw12\lis2dw12_reg.c ****   * @param  buff     buffer that stores data read
 687:D:/fchai/work/i-cube/I-CUBE-HUAWEI/Drivers/BSP/Components/lis2dw12\lis2dw12_reg.c ****   * @retval          interface status (MANDATORY: return 0 -> no Error)
 688:D:/fchai/work/i-cube/I-CUBE-HUAWEI/Drivers/BSP/Components/lis2dw12\lis2dw12_reg.c ****   *
 689:D:/fchai/work/i-cube/I-CUBE-HUAWEI/Drivers/BSP/Components/lis2dw12\lis2dw12_reg.c ****   */
 690:D:/fchai/work/i-cube/I-CUBE-HUAWEI/Drivers/BSP/Components/lis2dw12\lis2dw12_reg.c **** int32_t lis2dw12_acceleration_raw_get(stmdev_ctx_t *ctx, uint8_t *buff)
 691:D:/fchai/work/i-cube/I-CUBE-HUAWEI/Drivers/BSP/Components/lis2dw12\lis2dw12_reg.c **** {
 2561              		.loc 1 691 1 is_stmt 1 view -0
 2562              		.cfi_startproc
 2563              		@ args = 0, pretend = 0, frame = 0
 2564              		@ frame_needed = 0, uses_anonymous_args = 0
 2565              		@ link register save eliminated.
 692:D:/fchai/work/i-cube/I-CUBE-HUAWEI/Drivers/BSP/Components/lis2dw12\lis2dw12_reg.c ****   int32_t ret;
 2566              		.loc 1 692 3 view .LVU670
 693:D:/fchai/work/i-cube/I-CUBE-HUAWEI/Drivers/BSP/Components/lis2dw12\lis2dw12_reg.c ****   ret = lis2dw12_read_reg(ctx, LIS2DW12_OUT_X_L, buff, 6);
 2567              		.loc 1 693 3 view .LVU671
 691:D:/fchai/work/i-cube/I-CUBE-HUAWEI/Drivers/BSP/Components/lis2dw12\lis2dw12_reg.c ****   int32_t ret;
 2568              		.loc 1 691 1 is_stmt 0 view .LVU672
 2569 0000 10B4     		push	{r4}
 2570              	.LCFI59:
 2571              		.cfi_def_cfa_offset 4
 2572              		.cfi_offset 4, -4
 2573              	.LBB486:
 2574              	.LBB487:
  53:D:/fchai/work/i-cube/I-CUBE-HUAWEI/Drivers/BSP/Components/lis2dw12\lis2dw12_reg.c ****   return ret;
 2575              		.loc 1 53 9 view .LVU673
 2576 0002 D0E90140 		ldrd	r4, r0, [r0, #4]
 2577              	.LVL168:
  53:D:/fchai/work/i-cube/I-CUBE-HUAWEI/Drivers/BSP/Components/lis2dw12\lis2dw12_reg.c ****   return ret;
 2578              		.loc 1 53 9 view .LVU674
 2579              	.LBE487:
 2580              	.LBE486:
 691:D:/fchai/work/i-cube/I-CUBE-HUAWEI/Drivers/BSP/Components/lis2dw12\lis2dw12_reg.c ****   int32_t ret;
 2581              		.loc 1 691 1 view .LVU675
 2582 0006 0A46     		mov	r2, r1
 2583              	.LVL169:
 2584              	.LBB490:
 2585              	.LBI486:
  49:D:/fchai/work/i-cube/I-CUBE-HUAWEI/Drivers/BSP/Components/lis2dw12\lis2dw12_reg.c ****                           uint16_t len)
 2586              		.loc 1 49 9 is_stmt 1 view .LVU676
 2587              	.LBB488:
  52:D:/fchai/work/i-cube/I-CUBE-HUAWEI/Drivers/BSP/Components/lis2dw12\lis2dw12_reg.c ****   ret = ctx->read_reg(ctx->handle, reg, data, len);
 2588              		.loc 1 52 3 view .LVU677
  53:D:/fchai/work/i-cube/I-CUBE-HUAWEI/Drivers/BSP/Components/lis2dw12\lis2dw12_reg.c ****   return ret;
 2589              		.loc 1 53 3 view .LVU678
  53:D:/fchai/work/i-cube/I-CUBE-HUAWEI/Drivers/BSP/Components/lis2dw12\lis2dw12_reg.c ****   return ret;
 2590              		.loc 1 53 9 is_stmt 0 view .LVU679
 2591 0008 A446     		mov	ip, r4
 2592 000a 0623     		movs	r3, #6
 2593              	.LBE488:
ARM GAS  T:\msys\tmp\ccye0a00.s 			page 65


 2594              	.LBE490:
 694:D:/fchai/work/i-cube/I-CUBE-HUAWEI/Drivers/BSP/Components/lis2dw12\lis2dw12_reg.c ****   return ret;
 695:D:/fchai/work/i-cube/I-CUBE-HUAWEI/Drivers/BSP/Components/lis2dw12\lis2dw12_reg.c **** }
 2595              		.loc 1 695 1 view .LVU680
 2596 000c 5DF8044B 		ldr	r4, [sp], #4
 2597              	.LCFI60:
 2598              		.cfi_restore 4
 2599              		.cfi_def_cfa_offset 0
 2600              	.LBB491:
 2601              	.LBB489:
  53:D:/fchai/work/i-cube/I-CUBE-HUAWEI/Drivers/BSP/Components/lis2dw12\lis2dw12_reg.c ****   return ret;
 2602              		.loc 1 53 9 view .LVU681
 2603 0010 2821     		movs	r1, #40
 2604              	.LVL170:
  53:D:/fchai/work/i-cube/I-CUBE-HUAWEI/Drivers/BSP/Components/lis2dw12\lis2dw12_reg.c ****   return ret;
 2605              		.loc 1 53 9 view .LVU682
 2606 0012 6047     		bx	ip
 2607              	.LVL171:
  53:D:/fchai/work/i-cube/I-CUBE-HUAWEI/Drivers/BSP/Components/lis2dw12\lis2dw12_reg.c ****   return ret;
 2608              		.loc 1 53 9 view .LVU683
 2609              	.LBE489:
 2610              	.LBE491:
 2611              		.cfi_endproc
 2612              	.LFE31:
 2614              		.section	.text.lis2dw12_device_id_get,"ax",%progbits
 2615              		.align	1
 2616              		.p2align 2,,3
 2617              		.global	lis2dw12_device_id_get
 2618              		.syntax unified
 2619              		.thumb
 2620              		.thumb_func
 2621              		.fpu fpv4-sp-d16
 2623              	lis2dw12_device_id_get:
 2624              	.LVL172:
 2625              	.LFB32:
 696:D:/fchai/work/i-cube/I-CUBE-HUAWEI/Drivers/BSP/Components/lis2dw12\lis2dw12_reg.c **** 
 697:D:/fchai/work/i-cube/I-CUBE-HUAWEI/Drivers/BSP/Components/lis2dw12\lis2dw12_reg.c **** /**
 698:D:/fchai/work/i-cube/I-CUBE-HUAWEI/Drivers/BSP/Components/lis2dw12\lis2dw12_reg.c ****   * @}
 699:D:/fchai/work/i-cube/I-CUBE-HUAWEI/Drivers/BSP/Components/lis2dw12\lis2dw12_reg.c ****   *
 700:D:/fchai/work/i-cube/I-CUBE-HUAWEI/Drivers/BSP/Components/lis2dw12\lis2dw12_reg.c ****   */
 701:D:/fchai/work/i-cube/I-CUBE-HUAWEI/Drivers/BSP/Components/lis2dw12\lis2dw12_reg.c **** 
 702:D:/fchai/work/i-cube/I-CUBE-HUAWEI/Drivers/BSP/Components/lis2dw12\lis2dw12_reg.c **** /**
 703:D:/fchai/work/i-cube/I-CUBE-HUAWEI/Drivers/BSP/Components/lis2dw12\lis2dw12_reg.c ****   * @defgroup  LIS2DW12_Common
 704:D:/fchai/work/i-cube/I-CUBE-HUAWEI/Drivers/BSP/Components/lis2dw12\lis2dw12_reg.c ****   * @brief     This section groups common useful functions.
 705:D:/fchai/work/i-cube/I-CUBE-HUAWEI/Drivers/BSP/Components/lis2dw12\lis2dw12_reg.c ****   * @{
 706:D:/fchai/work/i-cube/I-CUBE-HUAWEI/Drivers/BSP/Components/lis2dw12\lis2dw12_reg.c ****   *
 707:D:/fchai/work/i-cube/I-CUBE-HUAWEI/Drivers/BSP/Components/lis2dw12\lis2dw12_reg.c ****   */
 708:D:/fchai/work/i-cube/I-CUBE-HUAWEI/Drivers/BSP/Components/lis2dw12\lis2dw12_reg.c **** 
 709:D:/fchai/work/i-cube/I-CUBE-HUAWEI/Drivers/BSP/Components/lis2dw12\lis2dw12_reg.c **** /**
 710:D:/fchai/work/i-cube/I-CUBE-HUAWEI/Drivers/BSP/Components/lis2dw12\lis2dw12_reg.c ****   * @brief  Device Who am I.[get]
 711:D:/fchai/work/i-cube/I-CUBE-HUAWEI/Drivers/BSP/Components/lis2dw12\lis2dw12_reg.c ****   *
 712:D:/fchai/work/i-cube/I-CUBE-HUAWEI/Drivers/BSP/Components/lis2dw12\lis2dw12_reg.c ****   * @param  ctx      read / write interface definitions
 713:D:/fchai/work/i-cube/I-CUBE-HUAWEI/Drivers/BSP/Components/lis2dw12\lis2dw12_reg.c ****   * @param  buff     buffer that stores data read
 714:D:/fchai/work/i-cube/I-CUBE-HUAWEI/Drivers/BSP/Components/lis2dw12\lis2dw12_reg.c ****   * @retval          interface status (MANDATORY: return 0 -> no Error)
 715:D:/fchai/work/i-cube/I-CUBE-HUAWEI/Drivers/BSP/Components/lis2dw12\lis2dw12_reg.c ****   *
 716:D:/fchai/work/i-cube/I-CUBE-HUAWEI/Drivers/BSP/Components/lis2dw12\lis2dw12_reg.c ****   */
 717:D:/fchai/work/i-cube/I-CUBE-HUAWEI/Drivers/BSP/Components/lis2dw12\lis2dw12_reg.c **** int32_t lis2dw12_device_id_get(stmdev_ctx_t *ctx, uint8_t *buff)
ARM GAS  T:\msys\tmp\ccye0a00.s 			page 66


 718:D:/fchai/work/i-cube/I-CUBE-HUAWEI/Drivers/BSP/Components/lis2dw12\lis2dw12_reg.c **** {
 2626              		.loc 1 718 1 is_stmt 1 view -0
 2627              		.cfi_startproc
 2628              		@ args = 0, pretend = 0, frame = 0
 2629              		@ frame_needed = 0, uses_anonymous_args = 0
 2630              		@ link register save eliminated.
 719:D:/fchai/work/i-cube/I-CUBE-HUAWEI/Drivers/BSP/Components/lis2dw12\lis2dw12_reg.c ****   int32_t ret;
 2631              		.loc 1 719 3 view .LVU685
 720:D:/fchai/work/i-cube/I-CUBE-HUAWEI/Drivers/BSP/Components/lis2dw12\lis2dw12_reg.c ****   ret = lis2dw12_read_reg(ctx, LIS2DW12_WHO_AM_I, buff, 1);
 2632              		.loc 1 720 3 view .LVU686
 718:D:/fchai/work/i-cube/I-CUBE-HUAWEI/Drivers/BSP/Components/lis2dw12\lis2dw12_reg.c ****   int32_t ret;
 2633              		.loc 1 718 1 is_stmt 0 view .LVU687
 2634 0000 10B4     		push	{r4}
 2635              	.LCFI61:
 2636              		.cfi_def_cfa_offset 4
 2637              		.cfi_offset 4, -4
 2638              	.LBB492:
 2639              	.LBB493:
  53:D:/fchai/work/i-cube/I-CUBE-HUAWEI/Drivers/BSP/Components/lis2dw12\lis2dw12_reg.c ****   return ret;
 2640              		.loc 1 53 9 view .LVU688
 2641 0002 D0E90140 		ldrd	r4, r0, [r0, #4]
 2642              	.LVL173:
  53:D:/fchai/work/i-cube/I-CUBE-HUAWEI/Drivers/BSP/Components/lis2dw12\lis2dw12_reg.c ****   return ret;
 2643              		.loc 1 53 9 view .LVU689
 2644              	.LBE493:
 2645              	.LBE492:
 718:D:/fchai/work/i-cube/I-CUBE-HUAWEI/Drivers/BSP/Components/lis2dw12\lis2dw12_reg.c ****   int32_t ret;
 2646              		.loc 1 718 1 view .LVU690
 2647 0006 0A46     		mov	r2, r1
 2648              	.LVL174:
 2649              	.LBB496:
 2650              	.LBI492:
  49:D:/fchai/work/i-cube/I-CUBE-HUAWEI/Drivers/BSP/Components/lis2dw12\lis2dw12_reg.c ****                           uint16_t len)
 2651              		.loc 1 49 9 is_stmt 1 view .LVU691
 2652              	.LBB494:
  52:D:/fchai/work/i-cube/I-CUBE-HUAWEI/Drivers/BSP/Components/lis2dw12\lis2dw12_reg.c ****   ret = ctx->read_reg(ctx->handle, reg, data, len);
 2653              		.loc 1 52 3 view .LVU692
  53:D:/fchai/work/i-cube/I-CUBE-HUAWEI/Drivers/BSP/Components/lis2dw12\lis2dw12_reg.c ****   return ret;
 2654              		.loc 1 53 3 view .LVU693
  53:D:/fchai/work/i-cube/I-CUBE-HUAWEI/Drivers/BSP/Components/lis2dw12\lis2dw12_reg.c ****   return ret;
 2655              		.loc 1 53 9 is_stmt 0 view .LVU694
 2656 0008 A446     		mov	ip, r4
 2657 000a 0123     		movs	r3, #1
 2658              	.LBE494:
 2659              	.LBE496:
 721:D:/fchai/work/i-cube/I-CUBE-HUAWEI/Drivers/BSP/Components/lis2dw12\lis2dw12_reg.c ****   return ret;
 722:D:/fchai/work/i-cube/I-CUBE-HUAWEI/Drivers/BSP/Components/lis2dw12\lis2dw12_reg.c **** }
 2660              		.loc 1 722 1 view .LVU695
 2661 000c 5DF8044B 		ldr	r4, [sp], #4
 2662              	.LCFI62:
 2663              		.cfi_restore 4
 2664              		.cfi_def_cfa_offset 0
 2665              	.LBB497:
 2666              	.LBB495:
  53:D:/fchai/work/i-cube/I-CUBE-HUAWEI/Drivers/BSP/Components/lis2dw12\lis2dw12_reg.c ****   return ret;
 2667              		.loc 1 53 9 view .LVU696
 2668 0010 0F21     		movs	r1, #15
ARM GAS  T:\msys\tmp\ccye0a00.s 			page 67


 2669              	.LVL175:
  53:D:/fchai/work/i-cube/I-CUBE-HUAWEI/Drivers/BSP/Components/lis2dw12\lis2dw12_reg.c ****   return ret;
 2670              		.loc 1 53 9 view .LVU697
 2671 0012 6047     		bx	ip
 2672              	.LVL176:
  53:D:/fchai/work/i-cube/I-CUBE-HUAWEI/Drivers/BSP/Components/lis2dw12\lis2dw12_reg.c ****   return ret;
 2673              		.loc 1 53 9 view .LVU698
 2674              	.LBE495:
 2675              	.LBE497:
 2676              		.cfi_endproc
 2677              	.LFE32:
 2679              		.section	.text.lis2dw12_auto_increment_set,"ax",%progbits
 2680              		.align	1
 2681              		.p2align 2,,3
 2682              		.global	lis2dw12_auto_increment_set
 2683              		.syntax unified
 2684              		.thumb
 2685              		.thumb_func
 2686              		.fpu fpv4-sp-d16
 2688              	lis2dw12_auto_increment_set:
 2689              	.LVL177:
 2690              	.LFB33:
 723:D:/fchai/work/i-cube/I-CUBE-HUAWEI/Drivers/BSP/Components/lis2dw12\lis2dw12_reg.c **** 
 724:D:/fchai/work/i-cube/I-CUBE-HUAWEI/Drivers/BSP/Components/lis2dw12\lis2dw12_reg.c **** /**
 725:D:/fchai/work/i-cube/I-CUBE-HUAWEI/Drivers/BSP/Components/lis2dw12\lis2dw12_reg.c ****   * @brief  Register address automatically incremented during multiple byte
 726:D:/fchai/work/i-cube/I-CUBE-HUAWEI/Drivers/BSP/Components/lis2dw12\lis2dw12_reg.c ****   *         access with a serial interface.[set]
 727:D:/fchai/work/i-cube/I-CUBE-HUAWEI/Drivers/BSP/Components/lis2dw12\lis2dw12_reg.c ****   *
 728:D:/fchai/work/i-cube/I-CUBE-HUAWEI/Drivers/BSP/Components/lis2dw12\lis2dw12_reg.c ****   * @param  ctx      read / write interface definitions
 729:D:/fchai/work/i-cube/I-CUBE-HUAWEI/Drivers/BSP/Components/lis2dw12\lis2dw12_reg.c ****   * @param  val      change the values of if_add_inc in reg CTRL2
 730:D:/fchai/work/i-cube/I-CUBE-HUAWEI/Drivers/BSP/Components/lis2dw12\lis2dw12_reg.c ****   * @retval          interface status (MANDATORY: return 0 -> no Error)
 731:D:/fchai/work/i-cube/I-CUBE-HUAWEI/Drivers/BSP/Components/lis2dw12\lis2dw12_reg.c ****   *
 732:D:/fchai/work/i-cube/I-CUBE-HUAWEI/Drivers/BSP/Components/lis2dw12\lis2dw12_reg.c ****   */
 733:D:/fchai/work/i-cube/I-CUBE-HUAWEI/Drivers/BSP/Components/lis2dw12\lis2dw12_reg.c **** int32_t lis2dw12_auto_increment_set(stmdev_ctx_t *ctx, uint8_t val)
 734:D:/fchai/work/i-cube/I-CUBE-HUAWEI/Drivers/BSP/Components/lis2dw12\lis2dw12_reg.c **** {
 2691              		.loc 1 734 1 is_stmt 1 view -0
 2692              		.cfi_startproc
 2693              		@ args = 0, pretend = 0, frame = 8
 2694              		@ frame_needed = 0, uses_anonymous_args = 0
 735:D:/fchai/work/i-cube/I-CUBE-HUAWEI/Drivers/BSP/Components/lis2dw12\lis2dw12_reg.c ****   lis2dw12_ctrl2_t reg;
 2695              		.loc 1 735 3 view .LVU700
 736:D:/fchai/work/i-cube/I-CUBE-HUAWEI/Drivers/BSP/Components/lis2dw12\lis2dw12_reg.c ****   int32_t ret;
 2696              		.loc 1 736 3 view .LVU701
 737:D:/fchai/work/i-cube/I-CUBE-HUAWEI/Drivers/BSP/Components/lis2dw12\lis2dw12_reg.c **** 
 738:D:/fchai/work/i-cube/I-CUBE-HUAWEI/Drivers/BSP/Components/lis2dw12\lis2dw12_reg.c ****   ret = lis2dw12_read_reg(ctx, LIS2DW12_CTRL2,(uint8_t*) &reg, 1);
 2697              		.loc 1 738 3 view .LVU702
 734:D:/fchai/work/i-cube/I-CUBE-HUAWEI/Drivers/BSP/Components/lis2dw12\lis2dw12_reg.c ****   lis2dw12_ctrl2_t reg;
 2698              		.loc 1 734 1 is_stmt 0 view .LVU703
 2699 0000 70B5     		push	{r4, r5, r6, lr}
 2700              	.LCFI63:
 2701              		.cfi_def_cfa_offset 16
 2702              		.cfi_offset 4, -16
 2703              		.cfi_offset 5, -12
 2704              		.cfi_offset 6, -8
 2705              		.cfi_offset 14, -4
 2706 0002 82B0     		sub	sp, sp, #8
 2707              	.LCFI64:
 2708              		.cfi_def_cfa_offset 24
ARM GAS  T:\msys\tmp\ccye0a00.s 			page 68


 734:D:/fchai/work/i-cube/I-CUBE-HUAWEI/Drivers/BSP/Components/lis2dw12\lis2dw12_reg.c ****   lis2dw12_ctrl2_t reg;
 2709              		.loc 1 734 1 view .LVU704
 2710 0004 0446     		mov	r4, r0
 2711              	.LVL178:
 2712              	.LBB498:
 2713              	.LBI498:
  49:D:/fchai/work/i-cube/I-CUBE-HUAWEI/Drivers/BSP/Components/lis2dw12\lis2dw12_reg.c ****                           uint16_t len)
 2714              		.loc 1 49 9 is_stmt 1 view .LVU705
 2715              	.LBB499:
  52:D:/fchai/work/i-cube/I-CUBE-HUAWEI/Drivers/BSP/Components/lis2dw12\lis2dw12_reg.c ****   ret = ctx->read_reg(ctx->handle, reg, data, len);
