ARM GAS  T:\msys\tmp\ccjkW8JM.s 			page 1


   1              		.cpu cortex-m4
   2              		.eabi_attribute 27, 1
   3              		.eabi_attribute 28, 1
   4              		.eabi_attribute 20, 1
   5              		.eabi_attribute 21, 1
   6              		.eabi_attribute 23, 3
   7              		.eabi_attribute 24, 1
   8              		.eabi_attribute 25, 1
   9              		.eabi_attribute 26, 1
  10              		.eabi_attribute 30, 2
  11              		.eabi_attribute 34, 1
  12              		.eabi_attribute 18, 4
  13              		.file	"los_dispatch.c"
  14              		.text
  15              	.Ltext0:
  16              		.cfi_sections	.debug_frame
  17              		.section	.text.LOS_StartToRun,"ax",%progbits
  18              		.align	1
  19              		.p2align 2,,3
  20              		.global	LOS_StartToRun
  21              		.arch armv7e-m
  22              		.syntax unified
  23              		.thumb
  24              		.thumb_func
  25              		.fpu fpv4-sp-d16
  27              	LOS_StartToRun:
  28              	.LFB123:
  29              		.file 1 "D:/fchai/work/i-cube/I-CUBE-HUAWEI/Middlewares/Third_Party/Huawei/iot_link/os/liteos/arch
   1:D:/fchai/work/i-cube/I-CUBE-HUAWEI/Middlewares/Third_Party/Huawei/iot_link/os/liteos/arch/arm/arm-m/armv7-m/gcc\los_dispatch.c **** /** ----------------------------------------------------------------------------
   2:D:/fchai/work/i-cube/I-CUBE-HUAWEI/Middlewares/Third_Party/Huawei/iot_link/os/liteos/arch/arm/arm-m/armv7-m/gcc\los_dispatch.c ****  * Copyright (c) <2019>, <Huawei Technologies Co., Ltd>
   3:D:/fchai/work/i-cube/I-CUBE-HUAWEI/Middlewares/Third_Party/Huawei/iot_link/os/liteos/arch/arm/arm-m/armv7-m/gcc\los_dispatch.c ****  * All rights reserved.
   4:D:/fchai/work/i-cube/I-CUBE-HUAWEI/Middlewares/Third_Party/Huawei/iot_link/os/liteos/arch/arm/arm-m/armv7-m/gcc\los_dispatch.c ****  * Redistribution and use in source and binary forms, with or without modification,
   5:D:/fchai/work/i-cube/I-CUBE-HUAWEI/Middlewares/Third_Party/Huawei/iot_link/os/liteos/arch/arm/arm-m/armv7-m/gcc\los_dispatch.c ****  * are permitted provided that the following conditions are met:
   6:D:/fchai/work/i-cube/I-CUBE-HUAWEI/Middlewares/Third_Party/Huawei/iot_link/os/liteos/arch/arm/arm-m/armv7-m/gcc\los_dispatch.c ****  * 1. Redistributions of source code must retain the above copyright notice, this list of
   7:D:/fchai/work/i-cube/I-CUBE-HUAWEI/Middlewares/Third_Party/Huawei/iot_link/os/liteos/arch/arm/arm-m/armv7-m/gcc\los_dispatch.c ****  * conditions and the following disclaimer.
   8:D:/fchai/work/i-cube/I-CUBE-HUAWEI/Middlewares/Third_Party/Huawei/iot_link/os/liteos/arch/arm/arm-m/armv7-m/gcc\los_dispatch.c ****  * 2. Redistributions in binary form must reproduce the above copyright notice, this list
   9:D:/fchai/work/i-cube/I-CUBE-HUAWEI/Middlewares/Third_Party/Huawei/iot_link/os/liteos/arch/arm/arm-m/armv7-m/gcc\los_dispatch.c ****  * of conditions and the following disclaimer in the documentation and/or other materials
  10:D:/fchai/work/i-cube/I-CUBE-HUAWEI/Middlewares/Third_Party/Huawei/iot_link/os/liteos/arch/arm/arm-m/armv7-m/gcc\los_dispatch.c ****  * provided with the distribution.
  11:D:/fchai/work/i-cube/I-CUBE-HUAWEI/Middlewares/Third_Party/Huawei/iot_link/os/liteos/arch/arm/arm-m/armv7-m/gcc\los_dispatch.c ****  * 3. Neither the name of the copyright holder nor the names of its contributors may be used
  12:D:/fchai/work/i-cube/I-CUBE-HUAWEI/Middlewares/Third_Party/Huawei/iot_link/os/liteos/arch/arm/arm-m/armv7-m/gcc\los_dispatch.c ****  * to endorse or promote products derived from this software without specific prior written
  13:D:/fchai/work/i-cube/I-CUBE-HUAWEI/Middlewares/Third_Party/Huawei/iot_link/os/liteos/arch/arm/arm-m/armv7-m/gcc\los_dispatch.c ****  * permission.
  14:D:/fchai/work/i-cube/I-CUBE-HUAWEI/Middlewares/Third_Party/Huawei/iot_link/os/liteos/arch/arm/arm-m/armv7-m/gcc\los_dispatch.c ****  * THIS SOFTWARE IS PROVIDED BY THE COPYRIGHT HOLDERS AND CONTRIBUTORS
  15:D:/fchai/work/i-cube/I-CUBE-HUAWEI/Middlewares/Third_Party/Huawei/iot_link/os/liteos/arch/arm/arm-m/armv7-m/gcc\los_dispatch.c ****  * "AS IS" AND ANY EXPRESS OR IMPLIED WARRANTIES, INCLUDING, BUT NOT LIMITED TO,
  16:D:/fchai/work/i-cube/I-CUBE-HUAWEI/Middlewares/Third_Party/Huawei/iot_link/os/liteos/arch/arm/arm-m/armv7-m/gcc\los_dispatch.c ****  * THE IMPLIED WARRANTIES OF MERCHANTABILITY AND FITNESS FOR A PARTICULAR
  17:D:/fchai/work/i-cube/I-CUBE-HUAWEI/Middlewares/Third_Party/Huawei/iot_link/os/liteos/arch/arm/arm-m/armv7-m/gcc\los_dispatch.c ****  * PURPOSE ARE DISCLAIMED. IN NO EVENT SHALL THE COPYRIGHT HOLDER OR
  18:D:/fchai/work/i-cube/I-CUBE-HUAWEI/Middlewares/Third_Party/Huawei/iot_link/os/liteos/arch/arm/arm-m/armv7-m/gcc\los_dispatch.c ****  * CONTRIBUTORS BE LIABLE FOR ANY DIRECT, INDIRECT, INCIDENTAL, SPECIAL,
  19:D:/fchai/work/i-cube/I-CUBE-HUAWEI/Middlewares/Third_Party/Huawei/iot_link/os/liteos/arch/arm/arm-m/armv7-m/gcc\los_dispatch.c ****  * EXEMPLARY, OR CONSEQUENTIAL DAMAGES (INCLUDING, BUT NOT LIMITED TO,
  20:D:/fchai/work/i-cube/I-CUBE-HUAWEI/Middlewares/Third_Party/Huawei/iot_link/os/liteos/arch/arm/arm-m/armv7-m/gcc\los_dispatch.c ****  * PROCUREMENT OF SUBSTITUTE GOODS OR SERVICES; LOSS OF USE, DATA, OR PROFITS;
  21:D:/fchai/work/i-cube/I-CUBE-HUAWEI/Middlewares/Third_Party/Huawei/iot_link/os/liteos/arch/arm/arm-m/armv7-m/gcc\los_dispatch.c ****  * OR BUSINESS INTERRUPTION) HOWEVER CAUSED AND ON ANY THEORY OF LIABILITY,
  22:D:/fchai/work/i-cube/I-CUBE-HUAWEI/Middlewares/Third_Party/Huawei/iot_link/os/liteos/arch/arm/arm-m/armv7-m/gcc\los_dispatch.c ****  * WHETHER IN CONTRACT, STRICT LIABILITY, OR TORT (INCLUDING NEGLIGENCE OR
  23:D:/fchai/work/i-cube/I-CUBE-HUAWEI/Middlewares/Third_Party/Huawei/iot_link/os/liteos/arch/arm/arm-m/armv7-m/gcc\los_dispatch.c ****  * OTHERWISE) ARISING IN ANY WAY OUT OF THE USE OF THIS SOFTWARE, EVEN IF
  24:D:/fchai/work/i-cube/I-CUBE-HUAWEI/Middlewares/Third_Party/Huawei/iot_link/os/liteos/arch/arm/arm-m/armv7-m/gcc\los_dispatch.c ****  * ADVISED OF THE POSSIBILITY OF SUCH DAMAGE.
  25:D:/fchai/work/i-cube/I-CUBE-HUAWEI/Middlewares/Third_Party/Huawei/iot_link/os/liteos/arch/arm/arm-m/armv7-m/gcc\los_dispatch.c ****  *---------------------------------------------------------------------------*/
  26:D:/fchai/work/i-cube/I-CUBE-HUAWEI/Middlewares/Third_Party/Huawei/iot_link/os/liteos/arch/arm/arm-m/armv7-m/gcc\los_dispatch.c **** /** ----------------------------------------------------------------------------
  27:D:/fchai/work/i-cube/I-CUBE-HUAWEI/Middlewares/Third_Party/Huawei/iot_link/os/liteos/arch/arm/arm-m/armv7-m/gcc\los_dispatch.c ****  * Notice of Export Control Law
  28:D:/fchai/work/i-cube/I-CUBE-HUAWEI/Middlewares/Third_Party/Huawei/iot_link/os/liteos/arch/arm/arm-m/armv7-m/gcc\los_dispatch.c ****  * ===============================================
  29:D:/fchai/work/i-cube/I-CUBE-HUAWEI/Middlewares/Third_Party/Huawei/iot_link/os/liteos/arch/arm/arm-m/armv7-m/gcc\los_dispatch.c ****  * Huawei LiteOS may be subject to applicable export control laws and regulations, which might
ARM GAS  T:\msys\tmp\ccjkW8JM.s 			page 2


  30:D:/fchai/work/i-cube/I-CUBE-HUAWEI/Middlewares/Third_Party/Huawei/iot_link/os/liteos/arch/arm/arm-m/armv7-m/gcc\los_dispatch.c ****  * include those applicable to Huawei LiteOS of U.S. and the country in which you are located.
  31:D:/fchai/work/i-cube/I-CUBE-HUAWEI/Middlewares/Third_Party/Huawei/iot_link/os/liteos/arch/arm/arm-m/armv7-m/gcc\los_dispatch.c ****  * Import, export and usage of Huawei LiteOS in any manner by you shall be in compliance with such
  32:D:/fchai/work/i-cube/I-CUBE-HUAWEI/Middlewares/Third_Party/Huawei/iot_link/os/liteos/arch/arm/arm-m/armv7-m/gcc\los_dispatch.c ****  * applicable export control laws and regulations.
  33:D:/fchai/work/i-cube/I-CUBE-HUAWEI/Middlewares/Third_Party/Huawei/iot_link/os/liteos/arch/arm/arm-m/armv7-m/gcc\los_dispatch.c ****  *---------------------------------------------------------------------------*/
  34:D:/fchai/work/i-cube/I-CUBE-HUAWEI/Middlewares/Third_Party/Huawei/iot_link/os/liteos/arch/arm/arm-m/armv7-m/gcc\los_dispatch.c ****  
  35:D:/fchai/work/i-cube/I-CUBE-HUAWEI/Middlewares/Third_Party/Huawei/iot_link/os/liteos/arch/arm/arm-m/armv7-m/gcc\los_dispatch.c **** #include <los_config.h>
  36:D:/fchai/work/i-cube/I-CUBE-HUAWEI/Middlewares/Third_Party/Huawei/iot_link/os/liteos/arch/arm/arm-m/armv7-m/gcc\los_dispatch.c **** #include <los_typedef.h>
  37:D:/fchai/work/i-cube/I-CUBE-HUAWEI/Middlewares/Third_Party/Huawei/iot_link/os/liteos/arch/arm/arm-m/armv7-m/gcc\los_dispatch.c **** 
  38:D:/fchai/work/i-cube/I-CUBE-HUAWEI/Middlewares/Third_Party/Huawei/iot_link/os/liteos/arch/arm/arm-m/armv7-m/gcc\los_dispatch.c **** #define NVIC_INT_CTRL                   0xE000ED04  /* Interrupt Control and State Register. */
  39:D:/fchai/work/i-cube/I-CUBE-HUAWEI/Middlewares/Third_Party/Huawei/iot_link/os/liteos/arch/arm/arm-m/armv7-m/gcc\los_dispatch.c **** #define NVIC_PENDSVSET                  0x10000000  /* Value to trigger PendSV exception. */
  40:D:/fchai/work/i-cube/I-CUBE-HUAWEI/Middlewares/Third_Party/Huawei/iot_link/os/liteos/arch/arm/arm-m/armv7-m/gcc\los_dispatch.c **** 
  41:D:/fchai/work/i-cube/I-CUBE-HUAWEI/Middlewares/Third_Party/Huawei/iot_link/os/liteos/arch/arm/arm-m/armv7-m/gcc\los_dispatch.c **** #define NVIC_SYSPRI2                    0xE000ED20  /* System Handler Priority Register 2. */
  42:D:/fchai/work/i-cube/I-CUBE-HUAWEI/Middlewares/Third_Party/Huawei/iot_link/os/liteos/arch/arm/arm-m/armv7-m/gcc\los_dispatch.c **** #define NVIC_PENDSV_SYSTICK_PRI         0xFFFF0000  /* SysTick + PendSV priority level (lowest). */
  43:D:/fchai/work/i-cube/I-CUBE-HUAWEI/Middlewares/Third_Party/Huawei/iot_link/os/liteos/arch/arm/arm-m/armv7-m/gcc\los_dispatch.c **** #define MPU_RBAR                        0xE000ED9C  /* MPU Region Base Address register */
  44:D:/fchai/work/i-cube/I-CUBE-HUAWEI/Middlewares/Third_Party/Huawei/iot_link/os/liteos/arch/arm/arm-m/armv7-m/gcc\los_dispatch.c **** 
  45:D:/fchai/work/i-cube/I-CUBE-HUAWEI/Middlewares/Third_Party/Huawei/iot_link/os/liteos/arch/arm/arm-m/armv7-m/gcc\los_dispatch.c **** #define OS_TASK_STATUS_RUNNING          0x00000010  /* Task Status Flag (RUNNING). */
  46:D:/fchai/work/i-cube/I-CUBE-HUAWEI/Middlewares/Third_Party/Huawei/iot_link/os/liteos/arch/arm/arm-m/armv7-m/gcc\los_dispatch.c **** 
  47:D:/fchai/work/i-cube/I-CUBE-HUAWEI/Middlewares/Third_Party/Huawei/iot_link/os/liteos/arch/arm/arm-m/armv7-m/gcc\los_dispatch.c **** /****************************************************************************************
  48:D:/fchai/work/i-cube/I-CUBE-HUAWEI/Middlewares/Third_Party/Huawei/iot_link/os/liteos/arch/arm/arm-m/armv7-m/gcc\los_dispatch.c **** * Function:
  49:D:/fchai/work/i-cube/I-CUBE-HUAWEI/Middlewares/Third_Party/Huawei/iot_link/os/liteos/arch/arm/arm-m/armv7-m/gcc\los_dispatch.c **** *        VOID LOS_StartToRun(VOID);
  50:D:/fchai/work/i-cube/I-CUBE-HUAWEI/Middlewares/Third_Party/Huawei/iot_link/os/liteos/arch/arm/arm-m/armv7-m/gcc\los_dispatch.c **** * Description:
  51:D:/fchai/work/i-cube/I-CUBE-HUAWEI/Middlewares/Third_Party/Huawei/iot_link/os/liteos/arch/arm/arm-m/armv7-m/gcc\los_dispatch.c **** *        Start the first task, which is the highest priority task in the priority queue.
  52:D:/fchai/work/i-cube/I-CUBE-HUAWEI/Middlewares/Third_Party/Huawei/iot_link/os/liteos/arch/arm/arm-m/armv7-m/gcc\los_dispatch.c **** *        Other tasks are started by task scheduling.
  53:D:/fchai/work/i-cube/I-CUBE-HUAWEI/Middlewares/Third_Party/Huawei/iot_link/os/liteos/arch/arm/arm-m/armv7-m/gcc\los_dispatch.c **** ****************************************************************************************/
  54:D:/fchai/work/i-cube/I-CUBE-HUAWEI/Middlewares/Third_Party/Huawei/iot_link/os/liteos/arch/arm/arm-m/armv7-m/gcc\los_dispatch.c **** __attribute__((naked)) void LOS_StartToRun(void)
  55:D:/fchai/work/i-cube/I-CUBE-HUAWEI/Middlewares/Third_Party/Huawei/iot_link/os/liteos/arch/arm/arm-m/armv7-m/gcc\los_dispatch.c **** {
  30              		.loc 1 55 1 view -0
  31              		.cfi_startproc
  32              		@ Naked Function: prologue and epilogue provided by programmer.
  33              		@ args = 0, pretend = 0, frame = 0
  34              		@ frame_needed = 0, uses_anonymous_args = 0
  56:D:/fchai/work/i-cube/I-CUBE-HUAWEI/Middlewares/Third_Party/Huawei/iot_link/os/liteos/arch/arm/arm-m/armv7-m/gcc\los_dispatch.c ****     asm (
  35              		.loc 1 56 5 view .LVU1
  36              		.syntax unified
  37              	@ 56 "D:/fchai/work/i-cube/I-CUBE-HUAWEI/Middlewares/Third_Party/Huawei/iot_link/os/liteos/arch/arm
  38              		.syntax unified
  39 0000 72B6     		CPSID  I
  40 0002 1548     		LDR    R0, =#-536810208                 @ NVIC_SYSPRI2
  41 0004 1549     		LDR    R1, =#-65536                 @ NVIC_PENDSV_SYSTICK_PRI
  42 0006 0268     		LDR    R2, [R0]
  43 0008 41EA0201 		ORR    R1, R1, R2
  44 000c 0160     		STR    R1, [R0]
  45 000e 1448     		LDR    R0, =g_bTaskScheduled
  46 0010 4FF00101 		MOV    R1, #1
  47 0014 0160     		STR    R1, [R0]
  48 0016 1348     		LDR    R0, =g_stLosTask
  49 0018 4168     		LDR    R1, [R0, #4]
  50 001a 0160     		STR    R1, [R0]
  51 001c 0168     		LDR    R1, [R0]
  52 001e 8A88     		LDRH   R2, [R1, #4]
  53 0020 4FF01003 		MOV    R3, #16                  @ OS_TASK_STATUS_RUNNING
  54 0024 42EA0302 		ORR    R2, R2, R3
  55 0028 8A80     		STRH   R2, [R1, #4]
  56 002a D1F800C0 		LDR    R12, [R1]
  57 002e 4FF00203 		MOV    R3, #2
  58 0032 0CF1240C 		ADD    R12, R12, #36           @ skip R4-R11, PRIMASK.
  59 0036 0CF1040C 		ADD    R12, R12, #4            @ if FPU exist, skip EXC_RETURN.
ARM GAS  T:\msys\tmp\ccjkW8JM.s 			page 3


  60 003a DCF80000 		LDR    R0, [R12]
  61 003e DCF814E0 		LDR    LR, [R12, #4 * 5]
  62 0042 DCF81820 		LDR    R2, [R12, #4 * 6]
  63 0046 0CF1200C 		ADD    R12, R12, #4 * 8
  64 004a 8CF30988 		MSR    PSP, R12
  65 004e 62B6     		CPSIE  I
  66 0050 83F31488 		MSR    CONTROL, R3
  67 0054 1047     		BX     R2
  68              		
  69              	@ 0 "" 2
  57:D:/fchai/work/i-cube/I-CUBE-HUAWEI/Middlewares/Third_Party/Huawei/iot_link/os/liteos/arch/arm/arm-m/armv7-m/gcc\los_dispatch.c ****     ".syntax unified\n\t"
  58:D:/fchai/work/i-cube/I-CUBE-HUAWEI/Middlewares/Third_Party/Huawei/iot_link/os/liteos/arch/arm/arm-m/armv7-m/gcc\los_dispatch.c **** 
  59:D:/fchai/work/i-cube/I-CUBE-HUAWEI/Middlewares/Third_Party/Huawei/iot_link/os/liteos/arch/arm/arm-m/armv7-m/gcc\los_dispatch.c ****     "CPSID  I\n\t"
  60:D:/fchai/work/i-cube/I-CUBE-HUAWEI/Middlewares/Third_Party/Huawei/iot_link/os/liteos/arch/arm/arm-m/armv7-m/gcc\los_dispatch.c **** 
  61:D:/fchai/work/i-cube/I-CUBE-HUAWEI/Middlewares/Third_Party/Huawei/iot_link/os/liteos/arch/arm/arm-m/armv7-m/gcc\los_dispatch.c ****     /**
  62:D:/fchai/work/i-cube/I-CUBE-HUAWEI/Middlewares/Third_Party/Huawei/iot_link/os/liteos/arch/arm/arm-m/armv7-m/gcc\los_dispatch.c ****      * Set PendSV and SysTick prority to the lowest.
  63:D:/fchai/work/i-cube/I-CUBE-HUAWEI/Middlewares/Third_Party/Huawei/iot_link/os/liteos/arch/arm/arm-m/armv7-m/gcc\los_dispatch.c ****      * read ---> modify ---> write-back.
  64:D:/fchai/work/i-cube/I-CUBE-HUAWEI/Middlewares/Third_Party/Huawei/iot_link/os/liteos/arch/arm/arm-m/armv7-m/gcc\los_dispatch.c ****      */
  65:D:/fchai/work/i-cube/I-CUBE-HUAWEI/Middlewares/Third_Party/Huawei/iot_link/os/liteos/arch/arm/arm-m/armv7-m/gcc\los_dispatch.c **** 
  66:D:/fchai/work/i-cube/I-CUBE-HUAWEI/Middlewares/Third_Party/Huawei/iot_link/os/liteos/arch/arm/arm-m/armv7-m/gcc\los_dispatch.c ****     "LDR    R0, =%0                 @ NVIC_SYSPRI2\n\t"
  67:D:/fchai/work/i-cube/I-CUBE-HUAWEI/Middlewares/Third_Party/Huawei/iot_link/os/liteos/arch/arm/arm-m/armv7-m/gcc\los_dispatch.c ****     "LDR    R1, =%1                 @ NVIC_PENDSV_SYSTICK_PRI\n\t"
  68:D:/fchai/work/i-cube/I-CUBE-HUAWEI/Middlewares/Third_Party/Huawei/iot_link/os/liteos/arch/arm/arm-m/armv7-m/gcc\los_dispatch.c ****     "LDR    R2, [R0]\n\t"
  69:D:/fchai/work/i-cube/I-CUBE-HUAWEI/Middlewares/Third_Party/Huawei/iot_link/os/liteos/arch/arm/arm-m/armv7-m/gcc\los_dispatch.c ****     "ORR    R1, R1, R2\n\t"
  70:D:/fchai/work/i-cube/I-CUBE-HUAWEI/Middlewares/Third_Party/Huawei/iot_link/os/liteos/arch/arm/arm-m/armv7-m/gcc\los_dispatch.c ****     "STR    R1, [R0]\n\t"
  71:D:/fchai/work/i-cube/I-CUBE-HUAWEI/Middlewares/Third_Party/Huawei/iot_link/os/liteos/arch/arm/arm-m/armv7-m/gcc\los_dispatch.c **** 
  72:D:/fchai/work/i-cube/I-CUBE-HUAWEI/Middlewares/Third_Party/Huawei/iot_link/os/liteos/arch/arm/arm-m/armv7-m/gcc\los_dispatch.c ****     /**
  73:D:/fchai/work/i-cube/I-CUBE-HUAWEI/Middlewares/Third_Party/Huawei/iot_link/os/liteos/arch/arm/arm-m/armv7-m/gcc\los_dispatch.c ****      * Set g_bTaskScheduled = 1.
  74:D:/fchai/work/i-cube/I-CUBE-HUAWEI/Middlewares/Third_Party/Huawei/iot_link/os/liteos/arch/arm/arm-m/armv7-m/gcc\los_dispatch.c ****      */
  75:D:/fchai/work/i-cube/I-CUBE-HUAWEI/Middlewares/Third_Party/Huawei/iot_link/os/liteos/arch/arm/arm-m/armv7-m/gcc\los_dispatch.c **** 
  76:D:/fchai/work/i-cube/I-CUBE-HUAWEI/Middlewares/Third_Party/Huawei/iot_link/os/liteos/arch/arm/arm-m/armv7-m/gcc\los_dispatch.c ****     "LDR    R0, =g_bTaskScheduled\n\t"
  77:D:/fchai/work/i-cube/I-CUBE-HUAWEI/Middlewares/Third_Party/Huawei/iot_link/os/liteos/arch/arm/arm-m/armv7-m/gcc\los_dispatch.c ****     "MOV    R1, #1\n\t"
  78:D:/fchai/work/i-cube/I-CUBE-HUAWEI/Middlewares/Third_Party/Huawei/iot_link/os/liteos/arch/arm/arm-m/armv7-m/gcc\los_dispatch.c ****     "STR    R1, [R0]\n\t"
  79:D:/fchai/work/i-cube/I-CUBE-HUAWEI/Middlewares/Third_Party/Huawei/iot_link/os/liteos/arch/arm/arm-m/armv7-m/gcc\los_dispatch.c **** 
  80:D:/fchai/work/i-cube/I-CUBE-HUAWEI/Middlewares/Third_Party/Huawei/iot_link/os/liteos/arch/arm/arm-m/armv7-m/gcc\los_dispatch.c ****     /**
  81:D:/fchai/work/i-cube/I-CUBE-HUAWEI/Middlewares/Third_Party/Huawei/iot_link/os/liteos/arch/arm/arm-m/armv7-m/gcc\los_dispatch.c ****      * Set g_stLosTask.pstRunTask = g_stLosTask.pstNewTask.
  82:D:/fchai/work/i-cube/I-CUBE-HUAWEI/Middlewares/Third_Party/Huawei/iot_link/os/liteos/arch/arm/arm-m/armv7-m/gcc\los_dispatch.c ****      */
  83:D:/fchai/work/i-cube/I-CUBE-HUAWEI/Middlewares/Third_Party/Huawei/iot_link/os/liteos/arch/arm/arm-m/armv7-m/gcc\los_dispatch.c ****     "LDR    R0, =g_stLosTask\n\t"
  84:D:/fchai/work/i-cube/I-CUBE-HUAWEI/Middlewares/Third_Party/Huawei/iot_link/os/liteos/arch/arm/arm-m/armv7-m/gcc\los_dispatch.c ****     "LDR    R1, [R0, #4]\n\t"
  85:D:/fchai/work/i-cube/I-CUBE-HUAWEI/Middlewares/Third_Party/Huawei/iot_link/os/liteos/arch/arm/arm-m/armv7-m/gcc\los_dispatch.c ****     "STR    R1, [R0]\n\t"
  86:D:/fchai/work/i-cube/I-CUBE-HUAWEI/Middlewares/Third_Party/Huawei/iot_link/os/liteos/arch/arm/arm-m/armv7-m/gcc\los_dispatch.c **** 
  87:D:/fchai/work/i-cube/I-CUBE-HUAWEI/Middlewares/Third_Party/Huawei/iot_link/os/liteos/arch/arm/arm-m/armv7-m/gcc\los_dispatch.c ****     /**
  88:D:/fchai/work/i-cube/I-CUBE-HUAWEI/Middlewares/Third_Party/Huawei/iot_link/os/liteos/arch/arm/arm-m/armv7-m/gcc\los_dispatch.c ****      * Set g_stLosTask.pstRunTask->usTaskStatus |= OS_TASK_STATUS_RUNNING.
  89:D:/fchai/work/i-cube/I-CUBE-HUAWEI/Middlewares/Third_Party/Huawei/iot_link/os/liteos/arch/arm/arm-m/armv7-m/gcc\los_dispatch.c ****      */
  90:D:/fchai/work/i-cube/I-CUBE-HUAWEI/Middlewares/Third_Party/Huawei/iot_link/os/liteos/arch/arm/arm-m/armv7-m/gcc\los_dispatch.c ****     "LDR    R1, [R0]\n\t"
  91:D:/fchai/work/i-cube/I-CUBE-HUAWEI/Middlewares/Third_Party/Huawei/iot_link/os/liteos/arch/arm/arm-m/armv7-m/gcc\los_dispatch.c ****     "LDRH   R2, [R1, #4]\n\t"
  92:D:/fchai/work/i-cube/I-CUBE-HUAWEI/Middlewares/Third_Party/Huawei/iot_link/os/liteos/arch/arm/arm-m/armv7-m/gcc\los_dispatch.c ****     "MOV    R3, %2                  @ OS_TASK_STATUS_RUNNING\n\t"
  93:D:/fchai/work/i-cube/I-CUBE-HUAWEI/Middlewares/Third_Party/Huawei/iot_link/os/liteos/arch/arm/arm-m/armv7-m/gcc\los_dispatch.c ****     "ORR    R2, R2, R3\n\t"
  94:D:/fchai/work/i-cube/I-CUBE-HUAWEI/Middlewares/Third_Party/Huawei/iot_link/os/liteos/arch/arm/arm-m/armv7-m/gcc\los_dispatch.c ****     "STRH   R2, [R1, #4]\n\t"
  95:D:/fchai/work/i-cube/I-CUBE-HUAWEI/Middlewares/Third_Party/Huawei/iot_link/os/liteos/arch/arm/arm-m/armv7-m/gcc\los_dispatch.c **** 
  96:D:/fchai/work/i-cube/I-CUBE-HUAWEI/Middlewares/Third_Party/Huawei/iot_link/os/liteos/arch/arm/arm-m/armv7-m/gcc\los_dispatch.c ****     /**
  97:D:/fchai/work/i-cube/I-CUBE-HUAWEI/Middlewares/Third_Party/Huawei/iot_link/os/liteos/arch/arm/arm-m/armv7-m/gcc\los_dispatch.c ****      * Restore the default stack frame(R0-R3,R12,LR,PC,xPSR) of g_stLosTask.pstRunTask to R0-R7.
  98:D:/fchai/work/i-cube/I-CUBE-HUAWEI/Middlewares/Third_Party/Huawei/iot_link/os/liteos/arch/arm/arm-m/armv7-m/gcc\los_dispatch.c ****      * [Initial EXC_RETURN ignore, if FPU supported] return by setting the CONTROL register.
  99:D:/fchai/work/i-cube/I-CUBE-HUAWEI/Middlewares/Third_Party/Huawei/iot_link/os/liteos/arch/arm/arm-m/armv7-m/gcc\los_dispatch.c ****      *
 100:D:/fchai/work/i-cube/I-CUBE-HUAWEI/Middlewares/Third_Party/Huawei/iot_link/os/liteos/arch/arm/arm-m/armv7-m/gcc\los_dispatch.c ****      * The initial stack of the current running task is as follows:
 101:D:/fchai/work/i-cube/I-CUBE-HUAWEI/Middlewares/Third_Party/Huawei/iot_link/os/liteos/arch/arm/arm-m/armv7-m/gcc\los_dispatch.c ****      *
 102:D:/fchai/work/i-cube/I-CUBE-HUAWEI/Middlewares/Third_Party/Huawei/iot_link/os/liteos/arch/arm/arm-m/armv7-m/gcc\los_dispatch.c ****      *       POP: Restore the context of the current running task ===>|
 103:D:/fchai/work/i-cube/I-CUBE-HUAWEI/Middlewares/Third_Party/Huawei/iot_link/os/liteos/arch/arm/arm-m/armv7-m/gcc\los_dispatch.c ****      *                                                   High addr--->|
ARM GAS  T:\msys\tmp\ccjkW8JM.s 			page 4


 104:D:/fchai/work/i-cube/I-CUBE-HUAWEI/Middlewares/Third_Party/Huawei/iot_link/os/liteos/arch/arm/arm-m/armv7-m/gcc\los_dispatch.c ****      *                                         Bottom of the stack--->|
 105:D:/fchai/work/i-cube/I-CUBE-HUAWEI/Middlewares/Third_Party/Huawei/iot_link/os/liteos/arch/arm/arm-m/armv7-m/gcc\los_dispatch.c ****      * ----------+-----------------------------+----------------------+
 106:D:/fchai/work/i-cube/I-CUBE-HUAWEI/Middlewares/Third_Party/Huawei/iot_link/os/liteos/arch/arm/arm-m/armv7-m/gcc\los_dispatch.c ****      *           | R4-R11,PRIMASK[,EXC_RETURN] | R0-R3,R12,LR,PC,xPSR |
 107:D:/fchai/work/i-cube/I-CUBE-HUAWEI/Middlewares/Third_Party/Huawei/iot_link/os/liteos/arch/arm/arm-m/armv7-m/gcc\los_dispatch.c ****      * ----------+-----------------------------+----------------------+
 108:D:/fchai/work/i-cube/I-CUBE-HUAWEI/Middlewares/Third_Party/Huawei/iot_link/os/liteos/arch/arm/arm-m/armv7-m/gcc\los_dispatch.c ****      *           |<---Top of the stack, restored from g_stLosTask.pstRunTask->pStackPointer
 109:D:/fchai/work/i-cube/I-CUBE-HUAWEI/Middlewares/Third_Party/Huawei/iot_link/os/liteos/arch/arm/arm-m/armv7-m/gcc\los_dispatch.c ****      *           |<---         skip        --->|<--- get r0,lr,pc --->|
 110:D:/fchai/work/i-cube/I-CUBE-HUAWEI/Middlewares/Third_Party/Huawei/iot_link/os/liteos/arch/arm/arm-m/armv7-m/gcc\los_dispatch.c ****      *                                                  R12 to PSP--->|
 111:D:/fchai/work/i-cube/I-CUBE-HUAWEI/Middlewares/Third_Party/Huawei/iot_link/os/liteos/arch/arm/arm-m/armv7-m/gcc\los_dispatch.c ****      *                          Stack pointer after LOS_StartToRun--->|
 112:D:/fchai/work/i-cube/I-CUBE-HUAWEI/Middlewares/Third_Party/Huawei/iot_link/os/liteos/arch/arm/arm-m/armv7-m/gcc\los_dispatch.c ****      */
 113:D:/fchai/work/i-cube/I-CUBE-HUAWEI/Middlewares/Third_Party/Huawei/iot_link/os/liteos/arch/arm/arm-m/armv7-m/gcc\los_dispatch.c **** 
 114:D:/fchai/work/i-cube/I-CUBE-HUAWEI/Middlewares/Third_Party/Huawei/iot_link/os/liteos/arch/arm/arm-m/armv7-m/gcc\los_dispatch.c ****     "LDR    R12, [R1]\n\t"
 115:D:/fchai/work/i-cube/I-CUBE-HUAWEI/Middlewares/Third_Party/Huawei/iot_link/os/liteos/arch/arm/arm-m/armv7-m/gcc\los_dispatch.c **** 
 116:D:/fchai/work/i-cube/I-CUBE-HUAWEI/Middlewares/Third_Party/Huawei/iot_link/os/liteos/arch/arm/arm-m/armv7-m/gcc\los_dispatch.c **** #if (LOSCFG_ENABLE_MPU == YES)
 117:D:/fchai/work/i-cube/I-CUBE-HUAWEI/Middlewares/Third_Party/Huawei/iot_link/os/liteos/arch/arm/arm-m/armv7-m/gcc\los_dispatch.c ****     "LDR    R0, [R1, #8]            @ TCB->pMpuSettings\n\t"
 118:D:/fchai/work/i-cube/I-CUBE-HUAWEI/Middlewares/Third_Party/Huawei/iot_link/os/liteos/arch/arm/arm-m/armv7-m/gcc\los_dispatch.c ****     "LDR    R1, =%3                 @ MPU_RBAR\n\t"
 119:D:/fchai/work/i-cube/I-CUBE-HUAWEI/Middlewares/Third_Party/Huawei/iot_link/os/liteos/arch/arm/arm-m/armv7-m/gcc\los_dispatch.c ****     "LDM    R0!, {R2-R7}\n\t"
 120:D:/fchai/work/i-cube/I-CUBE-HUAWEI/Middlewares/Third_Party/Huawei/iot_link/os/liteos/arch/arm/arm-m/armv7-m/gcc\los_dispatch.c ****     "STM    R1, {R2-R7}\n\t"
 121:D:/fchai/work/i-cube/I-CUBE-HUAWEI/Middlewares/Third_Party/Huawei/iot_link/os/liteos/arch/arm/arm-m/armv7-m/gcc\los_dispatch.c ****     "LDM    R0!, {R2-R7}\n\t"
 122:D:/fchai/work/i-cube/I-CUBE-HUAWEI/Middlewares/Third_Party/Huawei/iot_link/os/liteos/arch/arm/arm-m/armv7-m/gcc\los_dispatch.c ****     "STM    R1, {R2-R7}\n\t"
 123:D:/fchai/work/i-cube/I-CUBE-HUAWEI/Middlewares/Third_Party/Huawei/iot_link/os/liteos/arch/arm/arm-m/armv7-m/gcc\los_dispatch.c **** 
 124:D:/fchai/work/i-cube/I-CUBE-HUAWEI/Middlewares/Third_Party/Huawei/iot_link/os/liteos/arch/arm/arm-m/armv7-m/gcc\los_dispatch.c ****     "LDR    R3, [R12], #4           @ get the CONTROL value\n\t"
 125:D:/fchai/work/i-cube/I-CUBE-HUAWEI/Middlewares/Third_Party/Huawei/iot_link/os/liteos/arch/arm/arm-m/armv7-m/gcc\los_dispatch.c ****     "ORR    R3, #2                  @ set CONTROL.SPSEL\n\t"
 126:D:/fchai/work/i-cube/I-CUBE-HUAWEI/Middlewares/Third_Party/Huawei/iot_link/os/liteos/arch/arm/arm-m/armv7-m/gcc\los_dispatch.c **** #else
 127:D:/fchai/work/i-cube/I-CUBE-HUAWEI/Middlewares/Third_Party/Huawei/iot_link/os/liteos/arch/arm/arm-m/armv7-m/gcc\los_dispatch.c ****     "MOV    R3, #2\n\t"
 128:D:/fchai/work/i-cube/I-CUBE-HUAWEI/Middlewares/Third_Party/Huawei/iot_link/os/liteos/arch/arm/arm-m/armv7-m/gcc\los_dispatch.c **** #endif
 129:D:/fchai/work/i-cube/I-CUBE-HUAWEI/Middlewares/Third_Party/Huawei/iot_link/os/liteos/arch/arm/arm-m/armv7-m/gcc\los_dispatch.c **** 
 130:D:/fchai/work/i-cube/I-CUBE-HUAWEI/Middlewares/Third_Party/Huawei/iot_link/os/liteos/arch/arm/arm-m/armv7-m/gcc\los_dispatch.c ****     "ADD    R12, R12, #36           @ skip R4-R11, PRIMASK.\n\t"
 131:D:/fchai/work/i-cube/I-CUBE-HUAWEI/Middlewares/Third_Party/Huawei/iot_link/os/liteos/arch/arm/arm-m/armv7-m/gcc\los_dispatch.c **** 
 132:D:/fchai/work/i-cube/I-CUBE-HUAWEI/Middlewares/Third_Party/Huawei/iot_link/os/liteos/arch/arm/arm-m/armv7-m/gcc\los_dispatch.c **** #if defined (__VFP_FP__) && !defined(__SOFTFP__)
 133:D:/fchai/work/i-cube/I-CUBE-HUAWEI/Middlewares/Third_Party/Huawei/iot_link/os/liteos/arch/arm/arm-m/armv7-m/gcc\los_dispatch.c ****     "ADD    R12, R12, #4            @ if FPU exist, skip EXC_RETURN.\n\t"
 134:D:/fchai/work/i-cube/I-CUBE-HUAWEI/Middlewares/Third_Party/Huawei/iot_link/os/liteos/arch/arm/arm-m/armv7-m/gcc\los_dispatch.c **** #endif
 135:D:/fchai/work/i-cube/I-CUBE-HUAWEI/Middlewares/Third_Party/Huawei/iot_link/os/liteos/arch/arm/arm-m/armv7-m/gcc\los_dispatch.c **** 
 136:D:/fchai/work/i-cube/I-CUBE-HUAWEI/Middlewares/Third_Party/Huawei/iot_link/os/liteos/arch/arm/arm-m/armv7-m/gcc\los_dispatch.c ****     "LDR    R0, [R12]\n\t"
 137:D:/fchai/work/i-cube/I-CUBE-HUAWEI/Middlewares/Third_Party/Huawei/iot_link/os/liteos/arch/arm/arm-m/armv7-m/gcc\los_dispatch.c ****     "LDR    LR, [R12, #4 * 5]\n\t"
 138:D:/fchai/work/i-cube/I-CUBE-HUAWEI/Middlewares/Third_Party/Huawei/iot_link/os/liteos/arch/arm/arm-m/armv7-m/gcc\los_dispatch.c ****     "LDR    R2, [R12, #4 * 6]\n\t"
 139:D:/fchai/work/i-cube/I-CUBE-HUAWEI/Middlewares/Third_Party/Huawei/iot_link/os/liteos/arch/arm/arm-m/armv7-m/gcc\los_dispatch.c **** 
 140:D:/fchai/work/i-cube/I-CUBE-HUAWEI/Middlewares/Third_Party/Huawei/iot_link/os/liteos/arch/arm/arm-m/armv7-m/gcc\los_dispatch.c ****     "ADD    R12, R12, #4 * 8\n\t"
 141:D:/fchai/work/i-cube/I-CUBE-HUAWEI/Middlewares/Third_Party/Huawei/iot_link/os/liteos/arch/arm/arm-m/armv7-m/gcc\los_dispatch.c **** 
 142:D:/fchai/work/i-cube/I-CUBE-HUAWEI/Middlewares/Third_Party/Huawei/iot_link/os/liteos/arch/arm/arm-m/armv7-m/gcc\los_dispatch.c ****     /**
 143:D:/fchai/work/i-cube/I-CUBE-HUAWEI/Middlewares/Third_Party/Huawei/iot_link/os/liteos/arch/arm/arm-m/armv7-m/gcc\los_dispatch.c ****      * Set the stack pointer of g_stLosTask.pstRunTask to PSP.
 144:D:/fchai/work/i-cube/I-CUBE-HUAWEI/Middlewares/Third_Party/Huawei/iot_link/os/liteos/arch/arm/arm-m/armv7-m/gcc\los_dispatch.c ****      */
 145:D:/fchai/work/i-cube/I-CUBE-HUAWEI/Middlewares/Third_Party/Huawei/iot_link/os/liteos/arch/arm/arm-m/armv7-m/gcc\los_dispatch.c ****     "MSR    PSP, R12\n\t"
 146:D:/fchai/work/i-cube/I-CUBE-HUAWEI/Middlewares/Third_Party/Huawei/iot_link/os/liteos/arch/arm/arm-m/armv7-m/gcc\los_dispatch.c **** 
 147:D:/fchai/work/i-cube/I-CUBE-HUAWEI/Middlewares/Third_Party/Huawei/iot_link/os/liteos/arch/arm/arm-m/armv7-m/gcc\los_dispatch.c ****     /**
 148:D:/fchai/work/i-cube/I-CUBE-HUAWEI/Middlewares/Third_Party/Huawei/iot_link/os/liteos/arch/arm/arm-m/armv7-m/gcc\los_dispatch.c ****      * Enable interrupt. (The default PRIMASK value is 0, so enable directly)
 149:D:/fchai/work/i-cube/I-CUBE-HUAWEI/Middlewares/Third_Party/Huawei/iot_link/os/liteos/arch/arm/arm-m/armv7-m/gcc\los_dispatch.c ****      */
 150:D:/fchai/work/i-cube/I-CUBE-HUAWEI/Middlewares/Third_Party/Huawei/iot_link/os/liteos/arch/arm/arm-m/armv7-m/gcc\los_dispatch.c ****     "CPSIE  I\n\t"
 151:D:/fchai/work/i-cube/I-CUBE-HUAWEI/Middlewares/Third_Party/Huawei/iot_link/os/liteos/arch/arm/arm-m/armv7-m/gcc\los_dispatch.c **** 
 152:D:/fchai/work/i-cube/I-CUBE-HUAWEI/Middlewares/Third_Party/Huawei/iot_link/os/liteos/arch/arm/arm-m/armv7-m/gcc\los_dispatch.c ****     /**
 153:D:/fchai/work/i-cube/I-CUBE-HUAWEI/Middlewares/Third_Party/Huawei/iot_link/os/liteos/arch/arm/arm-m/armv7-m/gcc\los_dispatch.c ****      * Set the CONTROL register, after schedule start, privilege level and stack = PSP.
 154:D:/fchai/work/i-cube/I-CUBE-HUAWEI/Middlewares/Third_Party/Huawei/iot_link/os/liteos/arch/arm/arm-m/armv7-m/gcc\los_dispatch.c ****      */
 155:D:/fchai/work/i-cube/I-CUBE-HUAWEI/Middlewares/Third_Party/Huawei/iot_link/os/liteos/arch/arm/arm-m/armv7-m/gcc\los_dispatch.c ****     "MSR    CONTROL, R3\n\t"
 156:D:/fchai/work/i-cube/I-CUBE-HUAWEI/Middlewares/Third_Party/Huawei/iot_link/os/liteos/arch/arm/arm-m/armv7-m/gcc\los_dispatch.c **** 
 157:D:/fchai/work/i-cube/I-CUBE-HUAWEI/Middlewares/Third_Party/Huawei/iot_link/os/liteos/arch/arm/arm-m/armv7-m/gcc\los_dispatch.c ****     /**
 158:D:/fchai/work/i-cube/I-CUBE-HUAWEI/Middlewares/Third_Party/Huawei/iot_link/os/liteos/arch/arm/arm-m/armv7-m/gcc\los_dispatch.c ****      * Jump directly to the default PC of g_stLosTask.pstRunTask, the field information
 159:D:/fchai/work/i-cube/I-CUBE-HUAWEI/Middlewares/Third_Party/Huawei/iot_link/os/liteos/arch/arm/arm-m/armv7-m/gcc\los_dispatch.c ****      * of the main function will be destroyed and will never be returned.
 160:D:/fchai/work/i-cube/I-CUBE-HUAWEI/Middlewares/Third_Party/Huawei/iot_link/os/liteos/arch/arm/arm-m/armv7-m/gcc\los_dispatch.c ****      */
ARM GAS  T:\msys\tmp\ccjkW8JM.s 			page 5


 161:D:/fchai/work/i-cube/I-CUBE-HUAWEI/Middlewares/Third_Party/Huawei/iot_link/os/liteos/arch/arm/arm-m/armv7-m/gcc\los_dispatch.c ****     "BX     R2\n\t"
 162:D:/fchai/work/i-cube/I-CUBE-HUAWEI/Middlewares/Third_Party/Huawei/iot_link/os/liteos/arch/arm/arm-m/armv7-m/gcc\los_dispatch.c ****     :
 163:D:/fchai/work/i-cube/I-CUBE-HUAWEI/Middlewares/Third_Party/Huawei/iot_link/os/liteos/arch/arm/arm-m/armv7-m/gcc\los_dispatch.c ****     : "X" (NVIC_SYSPRI2), "X" (NVIC_PENDSV_SYSTICK_PRI),
 164:D:/fchai/work/i-cube/I-CUBE-HUAWEI/Middlewares/Third_Party/Huawei/iot_link/os/liteos/arch/arm/arm-m/armv7-m/gcc\los_dispatch.c ****       "I" (OS_TASK_STATUS_RUNNING), "X" (MPU_RBAR)
 165:D:/fchai/work/i-cube/I-CUBE-HUAWEI/Middlewares/Third_Party/Huawei/iot_link/os/liteos/arch/arm/arm-m/armv7-m/gcc\los_dispatch.c ****     );
 166:D:/fchai/work/i-cube/I-CUBE-HUAWEI/Middlewares/Third_Party/Huawei/iot_link/os/liteos/arch/arm/arm-m/armv7-m/gcc\los_dispatch.c **** }
  70              		.loc 1 166 1 is_stmt 0 view .LVU2
  71              		.thumb
  72              		.syntax unified
  73              		.cfi_endproc
  74              	.LFE123:
  76 0056 0000     		.section	.text.LOS_IntLock,"ax",%progbits
  77              		.align	1
  78              		.p2align 2,,3
  79              		.global	LOS_IntLock
  80              		.syntax unified
  81              		.thumb
  82              		.thumb_func
  83              		.fpu fpv4-sp-d16
  85              	LOS_IntLock:
  86              	.LFB124:
 167:D:/fchai/work/i-cube/I-CUBE-HUAWEI/Middlewares/Third_Party/Huawei/iot_link/os/liteos/arch/arm/arm-m/armv7-m/gcc\los_dispatch.c **** 
 168:D:/fchai/work/i-cube/I-CUBE-HUAWEI/Middlewares/Third_Party/Huawei/iot_link/os/liteos/arch/arm/arm-m/armv7-m/gcc\los_dispatch.c **** /****************************************************************************************
 169:D:/fchai/work/i-cube/I-CUBE-HUAWEI/Middlewares/Third_Party/Huawei/iot_link/os/liteos/arch/arm/arm-m/armv7-m/gcc\los_dispatch.c **** * Function:
 170:D:/fchai/work/i-cube/I-CUBE-HUAWEI/Middlewares/Third_Party/Huawei/iot_link/os/liteos/arch/arm/arm-m/armv7-m/gcc\los_dispatch.c **** *        UINTPTR LOS_IntLock(VOID);
 171:D:/fchai/work/i-cube/I-CUBE-HUAWEI/Middlewares/Third_Party/Huawei/iot_link/os/liteos/arch/arm/arm-m/armv7-m/gcc\los_dispatch.c **** * Description:
 172:D:/fchai/work/i-cube/I-CUBE-HUAWEI/Middlewares/Third_Party/Huawei/iot_link/os/liteos/arch/arm/arm-m/armv7-m/gcc\los_dispatch.c **** *        Disable all interrupts except Reset,NMI and HardFault.
 173:D:/fchai/work/i-cube/I-CUBE-HUAWEI/Middlewares/Third_Party/Huawei/iot_link/os/liteos/arch/arm/arm-m/armv7-m/gcc\los_dispatch.c **** *        The value of currnet interruption state will be returned to the caller to save.
 174:D:/fchai/work/i-cube/I-CUBE-HUAWEI/Middlewares/Third_Party/Huawei/iot_link/os/liteos/arch/arm/arm-m/armv7-m/gcc\los_dispatch.c **** *
 175:D:/fchai/work/i-cube/I-CUBE-HUAWEI/Middlewares/Third_Party/Huawei/iot_link/os/liteos/arch/arm/arm-m/armv7-m/gcc\los_dispatch.c **** * Function:
 176:D:/fchai/work/i-cube/I-CUBE-HUAWEI/Middlewares/Third_Party/Huawei/iot_link/os/liteos/arch/arm/arm-m/armv7-m/gcc\los_dispatch.c **** *        VOID LOS_IntRestore(UINTPTR uvIntSave);
 177:D:/fchai/work/i-cube/I-CUBE-HUAWEI/Middlewares/Third_Party/Huawei/iot_link/os/liteos/arch/arm/arm-m/armv7-m/gcc\los_dispatch.c **** * Description:
 178:D:/fchai/work/i-cube/I-CUBE-HUAWEI/Middlewares/Third_Party/Huawei/iot_link/os/liteos/arch/arm/arm-m/armv7-m/gcc\los_dispatch.c **** *        Restore the locked interruption of LOS_IntLock.
 179:D:/fchai/work/i-cube/I-CUBE-HUAWEI/Middlewares/Third_Party/Huawei/iot_link/os/liteos/arch/arm/arm-m/armv7-m/gcc\los_dispatch.c **** *        The caller must pass in the value of interruption state previously saved.
 180:D:/fchai/work/i-cube/I-CUBE-HUAWEI/Middlewares/Third_Party/Huawei/iot_link/os/liteos/arch/arm/arm-m/armv7-m/gcc\los_dispatch.c **** ****************************************************************************************/
 181:D:/fchai/work/i-cube/I-CUBE-HUAWEI/Middlewares/Third_Party/Huawei/iot_link/os/liteos/arch/arm/arm-m/armv7-m/gcc\los_dispatch.c **** __attribute__((naked)) UINTPTR LOS_IntLock(void)
 182:D:/fchai/work/i-cube/I-CUBE-HUAWEI/Middlewares/Third_Party/Huawei/iot_link/os/liteos/arch/arm/arm-m/armv7-m/gcc\los_dispatch.c **** {
  87              		.loc 1 182 1 is_stmt 1 view -0
  88              		.cfi_startproc
  89              		@ Naked Function: prologue and epilogue provided by programmer.
  90              		@ args = 0, pretend = 0, frame = 0
  91              		@ frame_needed = 0, uses_anonymous_args = 0
 183:D:/fchai/work/i-cube/I-CUBE-HUAWEI/Middlewares/Third_Party/Huawei/iot_link/os/liteos/arch/arm/arm-m/armv7-m/gcc\los_dispatch.c ****     asm (
  92              		.loc 1 183 5 view .LVU4
  93              		.syntax unified
  94              	@ 183 "D:/fchai/work/i-cube/I-CUBE-HUAWEI/Middlewares/Third_Party/Huawei/iot_link/os/liteos/arch/ar
  95              		.syntax unified
  96 0000 EFF31080 		MRS    R0, PRIMASK
  97 0004 72B6     		CPSID  I
  98 0006 7047     		BX     LR
  99              		
 100              	@ 0 "" 2
 184:D:/fchai/work/i-cube/I-CUBE-HUAWEI/Middlewares/Third_Party/Huawei/iot_link/os/liteos/arch/arm/arm-m/armv7-m/gcc\los_dispatch.c ****     ".syntax unified\n\t"
 185:D:/fchai/work/i-cube/I-CUBE-HUAWEI/Middlewares/Third_Party/Huawei/iot_link/os/liteos/arch/arm/arm-m/armv7-m/gcc\los_dispatch.c **** 
 186:D:/fchai/work/i-cube/I-CUBE-HUAWEI/Middlewares/Third_Party/Huawei/iot_link/os/liteos/arch/arm/arm-m/armv7-m/gcc\los_dispatch.c ****     "MRS    R0, PRIMASK\n\t"
 187:D:/fchai/work/i-cube/I-CUBE-HUAWEI/Middlewares/Third_Party/Huawei/iot_link/os/liteos/arch/arm/arm-m/armv7-m/gcc\los_dispatch.c ****     "CPSID  I\n\t"
 188:D:/fchai/work/i-cube/I-CUBE-HUAWEI/Middlewares/Third_Party/Huawei/iot_link/os/liteos/arch/arm/arm-m/armv7-m/gcc\los_dispatch.c ****     "BX     LR\n\t"
ARM GAS  T:\msys\tmp\ccjkW8JM.s 			page 6


 189:D:/fchai/work/i-cube/I-CUBE-HUAWEI/Middlewares/Third_Party/Huawei/iot_link/os/liteos/arch/arm/arm-m/armv7-m/gcc\los_dispatch.c ****     );
 190:D:/fchai/work/i-cube/I-CUBE-HUAWEI/Middlewares/Third_Party/Huawei/iot_link/os/liteos/arch/arm/arm-m/armv7-m/gcc\los_dispatch.c **** }
 101              		.loc 1 190 1 is_stmt 0 view .LVU5
 102              		.thumb
 103              		.syntax unified
 104              		.cfi_endproc
 105              	.LFE124:
 107              		.section	.text.LOS_IntUnLock,"ax",%progbits
 108              		.align	1
 109              		.p2align 2,,3
 110              		.global	LOS_IntUnLock
 111              		.syntax unified
 112              		.thumb
 113              		.thumb_func
 114              		.fpu fpv4-sp-d16
 116              	LOS_IntUnLock:
 117              	.LFB125:
 191:D:/fchai/work/i-cube/I-CUBE-HUAWEI/Middlewares/Third_Party/Huawei/iot_link/os/liteos/arch/arm/arm-m/armv7-m/gcc\los_dispatch.c **** 
 192:D:/fchai/work/i-cube/I-CUBE-HUAWEI/Middlewares/Third_Party/Huawei/iot_link/os/liteos/arch/arm/arm-m/armv7-m/gcc\los_dispatch.c **** __attribute__((naked)) UINTPTR LOS_IntUnLock(void)
 193:D:/fchai/work/i-cube/I-CUBE-HUAWEI/Middlewares/Third_Party/Huawei/iot_link/os/liteos/arch/arm/arm-m/armv7-m/gcc\los_dispatch.c **** {
 118              		.loc 1 193 1 is_stmt 1 view -0
 119              		.cfi_startproc
 120              		@ Naked Function: prologue and epilogue provided by programmer.
 121              		@ args = 0, pretend = 0, frame = 0
 122              		@ frame_needed = 0, uses_anonymous_args = 0
 194:D:/fchai/work/i-cube/I-CUBE-HUAWEI/Middlewares/Third_Party/Huawei/iot_link/os/liteos/arch/arm/arm-m/armv7-m/gcc\los_dispatch.c ****     asm (
 123              		.loc 1 194 5 view .LVU7
 124              		.syntax unified
 125              	@ 194 "D:/fchai/work/i-cube/I-CUBE-HUAWEI/Middlewares/Third_Party/Huawei/iot_link/os/liteos/arch/ar
 126              		.syntax unified
 127 0000 EFF31080 		MRS    R0, PRIMASK
 128 0004 62B6     		CPSIE  I
 129 0006 7047     		BX     LR
 130              		
 131              	@ 0 "" 2
 195:D:/fchai/work/i-cube/I-CUBE-HUAWEI/Middlewares/Third_Party/Huawei/iot_link/os/liteos/arch/arm/arm-m/armv7-m/gcc\los_dispatch.c ****     ".syntax unified\n\t"
 196:D:/fchai/work/i-cube/I-CUBE-HUAWEI/Middlewares/Third_Party/Huawei/iot_link/os/liteos/arch/arm/arm-m/armv7-m/gcc\los_dispatch.c **** 
 197:D:/fchai/work/i-cube/I-CUBE-HUAWEI/Middlewares/Third_Party/Huawei/iot_link/os/liteos/arch/arm/arm-m/armv7-m/gcc\los_dispatch.c ****     "MRS    R0, PRIMASK\n\t"
 198:D:/fchai/work/i-cube/I-CUBE-HUAWEI/Middlewares/Third_Party/Huawei/iot_link/os/liteos/arch/arm/arm-m/armv7-m/gcc\los_dispatch.c ****     "CPSIE  I\n\t"
 199:D:/fchai/work/i-cube/I-CUBE-HUAWEI/Middlewares/Third_Party/Huawei/iot_link/os/liteos/arch/arm/arm-m/armv7-m/gcc\los_dispatch.c ****     "BX     LR\n\t"
 200:D:/fchai/work/i-cube/I-CUBE-HUAWEI/Middlewares/Third_Party/Huawei/iot_link/os/liteos/arch/arm/arm-m/armv7-m/gcc\los_dispatch.c ****     );
 201:D:/fchai/work/i-cube/I-CUBE-HUAWEI/Middlewares/Third_Party/Huawei/iot_link/os/liteos/arch/arm/arm-m/armv7-m/gcc\los_dispatch.c **** }
 132              		.loc 1 201 1 is_stmt 0 view .LVU8
 133              		.thumb
 134              		.syntax unified
 135              		.cfi_endproc
 136              	.LFE125:
 138              		.section	.text.LOS_IntRestore,"ax",%progbits
 139              		.align	1
 140              		.p2align 2,,3
 141              		.global	LOS_IntRestore
 142              		.syntax unified
 143              		.thumb
 144              		.thumb_func
 145              		.fpu fpv4-sp-d16
 147              	LOS_IntRestore:
 148              	.LVL0:
ARM GAS  T:\msys\tmp\ccjkW8JM.s 			page 7


 149              	.LFB126:
 202:D:/fchai/work/i-cube/I-CUBE-HUAWEI/Middlewares/Third_Party/Huawei/iot_link/os/liteos/arch/arm/arm-m/armv7-m/gcc\los_dispatch.c **** 
 203:D:/fchai/work/i-cube/I-CUBE-HUAWEI/Middlewares/Third_Party/Huawei/iot_link/os/liteos/arch/arm/arm-m/armv7-m/gcc\los_dispatch.c **** __attribute__((naked)) VOID LOS_IntRestore(UINTPTR key)
 204:D:/fchai/work/i-cube/I-CUBE-HUAWEI/Middlewares/Third_Party/Huawei/iot_link/os/liteos/arch/arm/arm-m/armv7-m/gcc\los_dispatch.c **** {
 150              		.loc 1 204 1 is_stmt 1 view -0
 151              		.cfi_startproc
 152              		@ Naked Function: prologue and epilogue provided by programmer.
 153              		@ args = 0, pretend = 0, frame = 0
 154              		@ frame_needed = 0, uses_anonymous_args = 0
 205:D:/fchai/work/i-cube/I-CUBE-HUAWEI/Middlewares/Third_Party/Huawei/iot_link/os/liteos/arch/arm/arm-m/armv7-m/gcc\los_dispatch.c ****     asm (
 155              		.loc 1 205 5 view .LVU10
 156              		.syntax unified
 157              	@ 205 "D:/fchai/work/i-cube/I-CUBE-HUAWEI/Middlewares/Third_Party/Huawei/iot_link/os/liteos/arch/ar
 158              		.syntax unified
 159 0000 80F31088 		MSR    PRIMASK, R0
 160 0004 7047     		BX     LR
 161              		
 162              	@ 0 "" 2
 206:D:/fchai/work/i-cube/I-CUBE-HUAWEI/Middlewares/Third_Party/Huawei/iot_link/os/liteos/arch/arm/arm-m/armv7-m/gcc\los_dispatch.c ****     ".syntax unified\n\t"
 207:D:/fchai/work/i-cube/I-CUBE-HUAWEI/Middlewares/Third_Party/Huawei/iot_link/os/liteos/arch/arm/arm-m/armv7-m/gcc\los_dispatch.c **** 
 208:D:/fchai/work/i-cube/I-CUBE-HUAWEI/Middlewares/Third_Party/Huawei/iot_link/os/liteos/arch/arm/arm-m/armv7-m/gcc\los_dispatch.c ****     "MSR    PRIMASK, R0\n\t"
 209:D:/fchai/work/i-cube/I-CUBE-HUAWEI/Middlewares/Third_Party/Huawei/iot_link/os/liteos/arch/arm/arm-m/armv7-m/gcc\los_dispatch.c ****     "BX     LR\n\t"
 210:D:/fchai/work/i-cube/I-CUBE-HUAWEI/Middlewares/Third_Party/Huawei/iot_link/os/liteos/arch/arm/arm-m/armv7-m/gcc\los_dispatch.c ****     );
 211:D:/fchai/work/i-cube/I-CUBE-HUAWEI/Middlewares/Third_Party/Huawei/iot_link/os/liteos/arch/arm/arm-m/armv7-m/gcc\los_dispatch.c **** }
 163              		.loc 1 211 1 is_stmt 0 view .LVU11
 164              		.thumb
 165              		.syntax unified
 166              		.cfi_endproc
 167              	.LFE126:
 169 0006 00BF     		.section	.text.osTaskSchedule,"ax",%progbits
 170              		.align	1
 171              		.p2align 2,,3
 172              		.global	osTaskSchedule
 173              		.syntax unified
 174              		.thumb
 175              		.thumb_func
 176              		.fpu fpv4-sp-d16
 178              	osTaskSchedule:
 179              	.LFB127:
 212:D:/fchai/work/i-cube/I-CUBE-HUAWEI/Middlewares/Third_Party/Huawei/iot_link/os/liteos/arch/arm/arm-m/armv7-m/gcc\los_dispatch.c **** 
 213:D:/fchai/work/i-cube/I-CUBE-HUAWEI/Middlewares/Third_Party/Huawei/iot_link/os/liteos/arch/arm/arm-m/armv7-m/gcc\los_dispatch.c **** /****************************************************************************************
 214:D:/fchai/work/i-cube/I-CUBE-HUAWEI/Middlewares/Third_Party/Huawei/iot_link/os/liteos/arch/arm/arm-m/armv7-m/gcc\los_dispatch.c **** * Function:
 215:D:/fchai/work/i-cube/I-CUBE-HUAWEI/Middlewares/Third_Party/Huawei/iot_link/os/liteos/arch/arm/arm-m/armv7-m/gcc\los_dispatch.c **** *        VOID osTaskSchedule(VOID);
 216:D:/fchai/work/i-cube/I-CUBE-HUAWEI/Middlewares/Third_Party/Huawei/iot_link/os/liteos/arch/arm/arm-m/armv7-m/gcc\los_dispatch.c **** * Description:
 217:D:/fchai/work/i-cube/I-CUBE-HUAWEI/Middlewares/Third_Party/Huawei/iot_link/os/liteos/arch/arm/arm-m/armv7-m/gcc\los_dispatch.c **** *        Start the task swtich process by software trigger PendSV interrupt.
 218:D:/fchai/work/i-cube/I-CUBE-HUAWEI/Middlewares/Third_Party/Huawei/iot_link/os/liteos/arch/arm/arm-m/armv7-m/gcc\los_dispatch.c **** ****************************************************************************************/
 219:D:/fchai/work/i-cube/I-CUBE-HUAWEI/Middlewares/Third_Party/Huawei/iot_link/os/liteos/arch/arm/arm-m/armv7-m/gcc\los_dispatch.c **** __attribute__((naked)) VOID osTaskSchedule(VOID)
 220:D:/fchai/work/i-cube/I-CUBE-HUAWEI/Middlewares/Third_Party/Huawei/iot_link/os/liteos/arch/arm/arm-m/armv7-m/gcc\los_dispatch.c **** {
 180              		.loc 1 220 1 is_stmt 1 view -0
 181              		.cfi_startproc
 182              		@ Naked Function: prologue and epilogue provided by programmer.
 183              		@ args = 0, pretend = 0, frame = 0
 184              		@ frame_needed = 0, uses_anonymous_args = 0
 221:D:/fchai/work/i-cube/I-CUBE-HUAWEI/Middlewares/Third_Party/Huawei/iot_link/os/liteos/arch/arm/arm-m/armv7-m/gcc\los_dispatch.c ****     asm (
 185              		.loc 1 221 5 view .LVU13
 186              		.syntax unified
 187              	@ 221 "D:/fchai/work/i-cube/I-CUBE-HUAWEI/Middlewares/Third_Party/Huawei/iot_link/os/liteos/arch/ar
ARM GAS  T:\msys\tmp\ccjkW8JM.s 			page 8


 188              		.syntax unified
 189 0000 0248     		LDR    R0, =#-536810236                 @ NVIC_INT_CTRL
 190 0002 4FF08051 		LDR    R1, =#268435456                 @ NVIC_PENDSVSET
 191 0006 0160     		STR    R1, [R0]
 192 0008 7047     		BX     LR
 193              		
 194              	@ 0 "" 2
 222:D:/fchai/work/i-cube/I-CUBE-HUAWEI/Middlewares/Third_Party/Huawei/iot_link/os/liteos/arch/arm/arm-m/armv7-m/gcc\los_dispatch.c ****     ".syntax unified\n\t"
 223:D:/fchai/work/i-cube/I-CUBE-HUAWEI/Middlewares/Third_Party/Huawei/iot_link/os/liteos/arch/arm/arm-m/armv7-m/gcc\los_dispatch.c **** 
 224:D:/fchai/work/i-cube/I-CUBE-HUAWEI/Middlewares/Third_Party/Huawei/iot_link/os/liteos/arch/arm/arm-m/armv7-m/gcc\los_dispatch.c ****     "LDR    R0, =%0                 @ NVIC_INT_CTRL\n\t"
 225:D:/fchai/work/i-cube/I-CUBE-HUAWEI/Middlewares/Third_Party/Huawei/iot_link/os/liteos/arch/arm/arm-m/armv7-m/gcc\los_dispatch.c ****     "LDR    R1, =%1                 @ NVIC_PENDSVSET\n\t"
 226:D:/fchai/work/i-cube/I-CUBE-HUAWEI/Middlewares/Third_Party/Huawei/iot_link/os/liteos/arch/arm/arm-m/armv7-m/gcc\los_dispatch.c ****     "STR    R1, [R0]\n\t"
 227:D:/fchai/work/i-cube/I-CUBE-HUAWEI/Middlewares/Third_Party/Huawei/iot_link/os/liteos/arch/arm/arm-m/armv7-m/gcc\los_dispatch.c ****     "BX     LR\n\t"
 228:D:/fchai/work/i-cube/I-CUBE-HUAWEI/Middlewares/Third_Party/Huawei/iot_link/os/liteos/arch/arm/arm-m/armv7-m/gcc\los_dispatch.c ****     :
 229:D:/fchai/work/i-cube/I-CUBE-HUAWEI/Middlewares/Third_Party/Huawei/iot_link/os/liteos/arch/arm/arm-m/armv7-m/gcc\los_dispatch.c ****     : "X" (NVIC_INT_CTRL), "X" (NVIC_PENDSVSET)
 230:D:/fchai/work/i-cube/I-CUBE-HUAWEI/Middlewares/Third_Party/Huawei/iot_link/os/liteos/arch/arm/arm-m/armv7-m/gcc\los_dispatch.c ****     );
 231:D:/fchai/work/i-cube/I-CUBE-HUAWEI/Middlewares/Third_Party/Huawei/iot_link/os/liteos/arch/arm/arm-m/armv7-m/gcc\los_dispatch.c **** }
 195              		.loc 1 231 1 is_stmt 0 view .LVU14
 196              		.thumb
 197              		.syntax unified
 198              		.cfi_endproc
 199              	.LFE127:
 201 000a 0000     		.section	.text.PendSV_Handler,"ax",%progbits
 202              		.align	1
 203              		.p2align 2,,3
 204              		.global	PendSV_Handler
 205              		.syntax unified
 206              		.thumb
 207              		.thumb_func
 208              		.fpu fpv4-sp-d16
 210              	PendSV_Handler:
 211              	.LFB128:
 232:D:/fchai/work/i-cube/I-CUBE-HUAWEI/Middlewares/Third_Party/Huawei/iot_link/os/liteos/arch/arm/arm-m/armv7-m/gcc\los_dispatch.c **** 
 233:D:/fchai/work/i-cube/I-CUBE-HUAWEI/Middlewares/Third_Party/Huawei/iot_link/os/liteos/arch/arm/arm-m/armv7-m/gcc\los_dispatch.c **** /****************************************************************************************
 234:D:/fchai/work/i-cube/I-CUBE-HUAWEI/Middlewares/Third_Party/Huawei/iot_link/os/liteos/arch/arm/arm-m/armv7-m/gcc\los_dispatch.c **** * Function:
 235:D:/fchai/work/i-cube/I-CUBE-HUAWEI/Middlewares/Third_Party/Huawei/iot_link/os/liteos/arch/arm/arm-m/armv7-m/gcc\los_dispatch.c **** *        VOID PendSV_Handler(VOID);
 236:D:/fchai/work/i-cube/I-CUBE-HUAWEI/Middlewares/Third_Party/Huawei/iot_link/os/liteos/arch/arm/arm-m/armv7-m/gcc\los_dispatch.c **** * Description:
 237:D:/fchai/work/i-cube/I-CUBE-HUAWEI/Middlewares/Third_Party/Huawei/iot_link/os/liteos/arch/arm/arm-m/armv7-m/gcc\los_dispatch.c **** *        PendSV interrupt handler, switch the context of the task.
 238:D:/fchai/work/i-cube/I-CUBE-HUAWEI/Middlewares/Third_Party/Huawei/iot_link/os/liteos/arch/arm/arm-m/armv7-m/gcc\los_dispatch.c **** *        First: Save the context of the current running task(g_stLosTask.pstRunTask)
 239:D:/fchai/work/i-cube/I-CUBE-HUAWEI/Middlewares/Third_Party/Huawei/iot_link/os/liteos/arch/arm/arm-m/armv7-m/gcc\los_dispatch.c **** *               to its own stack.
 240:D:/fchai/work/i-cube/I-CUBE-HUAWEI/Middlewares/Third_Party/Huawei/iot_link/os/liteos/arch/arm/arm-m/armv7-m/gcc\los_dispatch.c **** *        Second: Restore the context of the next running task(g_stLosTask.pstNewTask)
 241:D:/fchai/work/i-cube/I-CUBE-HUAWEI/Middlewares/Third_Party/Huawei/iot_link/os/liteos/arch/arm/arm-m/armv7-m/gcc\los_dispatch.c **** *                from its own stack.
 242:D:/fchai/work/i-cube/I-CUBE-HUAWEI/Middlewares/Third_Party/Huawei/iot_link/os/liteos/arch/arm/arm-m/armv7-m/gcc\los_dispatch.c **** ****************************************************************************************/
 243:D:/fchai/work/i-cube/I-CUBE-HUAWEI/Middlewares/Third_Party/Huawei/iot_link/os/liteos/arch/arm/arm-m/armv7-m/gcc\los_dispatch.c **** __attribute__((naked)) VOID PendSV_Handler(VOID)
 244:D:/fchai/work/i-cube/I-CUBE-HUAWEI/Middlewares/Third_Party/Huawei/iot_link/os/liteos/arch/arm/arm-m/armv7-m/gcc\los_dispatch.c **** {
 212              		.loc 1 244 1 is_stmt 1 view -0
 213              		.cfi_startproc
 214              		@ Naked Function: prologue and epilogue provided by programmer.
 215              		@ args = 0, pretend = 0, frame = 0
 216              		@ frame_needed = 0, uses_anonymous_args = 0
 245:D:/fchai/work/i-cube/I-CUBE-HUAWEI/Middlewares/Third_Party/Huawei/iot_link/os/liteos/arch/arm/arm-m/armv7-m/gcc\los_dispatch.c ****     asm (
 217              		.loc 1 245 5 view .LVU16
 218              		.syntax unified
 219              	@ 245 "D:/fchai/work/i-cube/I-CUBE-HUAWEI/Middlewares/Third_Party/Huawei/iot_link/os/liteos/arch/ar
 220              		.syntax unified
 221 0000 EFF3108C 		MRS    R12, PRIMASK
 222 0004 72B6     		CPSID  I
ARM GAS  T:\msys\tmp\ccjkW8JM.s 			page 9


 223 0006 184A     		LDR    R2, =g_pfnTskSwitchHook
 224 0008 1268     		LDR    R2, [R2]
 225 000a 22B1     		CBZ    R2, 0f
 226 000c 2DE90050 		PUSH   {R12, LR}
 227 0010 9047     		BLX    R2
 228 0012 BDE80050 		POP    {R12, LR}
 229              		0:
 230 0016 EFF30980 		MRS    R0, PSP
 231 001a 1EF0100F 		TST    R14, #0x10              @ if the task using the FPU context
 232 001e 01D1     		BNE    0f
 233 0020 20ED108B 		VSTMDB R0!, {D8-D15}
 234              		0:
 235 0024 40F804ED 		STMFD  R0!, {R14}              @ save EXC_RETURN
 236 0028 20E9F01F 		STMFD  R0!, {R4-R12}           @ save the core registers and PRIMASK.
 237 002c 0F4D     		LDR    R5, =g_stLosTask
 238 002e 4FF01008 		MOV    R8, #16                 @ OS_TASK_STATUS_RUNNING
 239 0032 2E68     		LDR    R6, [R5]
 240 0034 3060     		STR    R0, [R6]
 241 0036 B788     		LDRH   R7, [R6, #4]
 242 0038 27EA0807 		BIC    R7, R7, R8
 243 003c B780     		STRH   R7, [R6, #4]
 244 003e 6868     		LDR    R0, [R5, #4]
 245 0040 2860     		STR    R0, [R5]
 246 0042 8788     		LDRH   R7, [R0, #4]
 247 0044 47EA0807 		ORR    R7, R7, R8
 248 0048 8780     		STRH   R7, [R0, #4]
 249 004a 0168     		LDR    R1, [R0]
 250 004c B1E8F01F 		LDMFD  R1!, {R4-R12}           @ restore the core registers and PRIMASK
 251 0050 51F804EB 		LDMFD  R1!, {R14}              @ restore EXC_RETURN
 252 0054 1EF0100F 		TST    R14, #0x10              @ if the task using the FPU context
 253 0058 01D1     		BNE    0f
 254 005a B1EC108B 		VLDMIA R1!, {D8-D15}
 255              		0:
 256 005e 81F30988 		MSR    PSP, R1
 257 0062 8CF31088 		MSR    PRIMASK, R12
 258 0066 7047     		BX     LR
 259              		
 260              	@ 0 "" 2
 246:D:/fchai/work/i-cube/I-CUBE-HUAWEI/Middlewares/Third_Party/Huawei/iot_link/os/liteos/arch/arm/arm-m/armv7-m/gcc\los_dispatch.c ****     ".syntax unified\n\t"
 247:D:/fchai/work/i-cube/I-CUBE-HUAWEI/Middlewares/Third_Party/Huawei/iot_link/os/liteos/arch/arm/arm-m/armv7-m/gcc\los_dispatch.c **** 
 248:D:/fchai/work/i-cube/I-CUBE-HUAWEI/Middlewares/Third_Party/Huawei/iot_link/os/liteos/arch/arm/arm-m/armv7-m/gcc\los_dispatch.c ****     /**
 249:D:/fchai/work/i-cube/I-CUBE-HUAWEI/Middlewares/Third_Party/Huawei/iot_link/os/liteos/arch/arm/arm-m/armv7-m/gcc\los_dispatch.c ****      * R12: Save the interruption state of the current running task.
 250:D:/fchai/work/i-cube/I-CUBE-HUAWEI/Middlewares/Third_Party/Huawei/iot_link/os/liteos/arch/arm/arm-m/armv7-m/gcc\los_dispatch.c ****      * Disable all interrupts except Reset,NMI and HardFault
 251:D:/fchai/work/i-cube/I-CUBE-HUAWEI/Middlewares/Third_Party/Huawei/iot_link/os/liteos/arch/arm/arm-m/armv7-m/gcc\los_dispatch.c ****      */
 252:D:/fchai/work/i-cube/I-CUBE-HUAWEI/Middlewares/Third_Party/Huawei/iot_link/os/liteos/arch/arm/arm-m/armv7-m/gcc\los_dispatch.c ****     "MRS    R12, PRIMASK\n\t"
 253:D:/fchai/work/i-cube/I-CUBE-HUAWEI/Middlewares/Third_Party/Huawei/iot_link/os/liteos/arch/arm/arm-m/armv7-m/gcc\los_dispatch.c ****     "CPSID  I\n\t"
 254:D:/fchai/work/i-cube/I-CUBE-HUAWEI/Middlewares/Third_Party/Huawei/iot_link/os/liteos/arch/arm/arm-m/armv7-m/gcc\los_dispatch.c **** 
 255:D:/fchai/work/i-cube/I-CUBE-HUAWEI/Middlewares/Third_Party/Huawei/iot_link/os/liteos/arch/arm/arm-m/armv7-m/gcc\los_dispatch.c ****     /**
 256:D:/fchai/work/i-cube/I-CUBE-HUAWEI/Middlewares/Third_Party/Huawei/iot_link/os/liteos/arch/arm/arm-m/armv7-m/gcc\los_dispatch.c ****      * Call task switch hook.
 257:D:/fchai/work/i-cube/I-CUBE-HUAWEI/Middlewares/Third_Party/Huawei/iot_link/os/liteos/arch/arm/arm-m/armv7-m/gcc\los_dispatch.c ****      */
 258:D:/fchai/work/i-cube/I-CUBE-HUAWEI/Middlewares/Third_Party/Huawei/iot_link/os/liteos/arch/arm/arm-m/armv7-m/gcc\los_dispatch.c ****     "LDR    R2, =g_pfnTskSwitchHook\n\t"
 259:D:/fchai/work/i-cube/I-CUBE-HUAWEI/Middlewares/Third_Party/Huawei/iot_link/os/liteos/arch/arm/arm-m/armv7-m/gcc\los_dispatch.c ****     "LDR    R2, [R2]\n\t"
 260:D:/fchai/work/i-cube/I-CUBE-HUAWEI/Middlewares/Third_Party/Huawei/iot_link/os/liteos/arch/arm/arm-m/armv7-m/gcc\los_dispatch.c ****     "CBZ    R2, 0f\n\t"
 261:D:/fchai/work/i-cube/I-CUBE-HUAWEI/Middlewares/Third_Party/Huawei/iot_link/os/liteos/arch/arm/arm-m/armv7-m/gcc\los_dispatch.c ****     "PUSH   {R12, LR}\n\t"
 262:D:/fchai/work/i-cube/I-CUBE-HUAWEI/Middlewares/Third_Party/Huawei/iot_link/os/liteos/arch/arm/arm-m/armv7-m/gcc\los_dispatch.c ****     "BLX    R2\n\t"
 263:D:/fchai/work/i-cube/I-CUBE-HUAWEI/Middlewares/Third_Party/Huawei/iot_link/os/liteos/arch/arm/arm-m/armv7-m/gcc\los_dispatch.c ****     "POP    {R12, LR}\n\t"
 264:D:/fchai/work/i-cube/I-CUBE-HUAWEI/Middlewares/Third_Party/Huawei/iot_link/os/liteos/arch/arm/arm-m/armv7-m/gcc\los_dispatch.c **** 
ARM GAS  T:\msys\tmp\ccjkW8JM.s 			page 10


 265:D:/fchai/work/i-cube/I-CUBE-HUAWEI/Middlewares/Third_Party/Huawei/iot_link/os/liteos/arch/arm/arm-m/armv7-m/gcc\los_dispatch.c ****     "0:\n\t"
 266:D:/fchai/work/i-cube/I-CUBE-HUAWEI/Middlewares/Third_Party/Huawei/iot_link/os/liteos/arch/arm/arm-m/armv7-m/gcc\los_dispatch.c **** 
 267:D:/fchai/work/i-cube/I-CUBE-HUAWEI/Middlewares/Third_Party/Huawei/iot_link/os/liteos/arch/arm/arm-m/armv7-m/gcc\los_dispatch.c ****     /**
 268:D:/fchai/work/i-cube/I-CUBE-HUAWEI/Middlewares/Third_Party/Huawei/iot_link/os/liteos/arch/arm/arm-m/armv7-m/gcc\los_dispatch.c ****      * R0 = now stack pointer of the current running task.
 269:D:/fchai/work/i-cube/I-CUBE-HUAWEI/Middlewares/Third_Party/Huawei/iot_link/os/liteos/arch/arm/arm-m/armv7-m/gcc\los_dispatch.c ****      */
 270:D:/fchai/work/i-cube/I-CUBE-HUAWEI/Middlewares/Third_Party/Huawei/iot_link/os/liteos/arch/arm/arm-m/armv7-m/gcc\los_dispatch.c ****     "MRS    R0, PSP\n\t"
 271:D:/fchai/work/i-cube/I-CUBE-HUAWEI/Middlewares/Third_Party/Huawei/iot_link/os/liteos/arch/arm/arm-m/armv7-m/gcc\los_dispatch.c **** 
 272:D:/fchai/work/i-cube/I-CUBE-HUAWEI/Middlewares/Third_Party/Huawei/iot_link/os/liteos/arch/arm/arm-m/armv7-m/gcc\los_dispatch.c ****     /**
 273:D:/fchai/work/i-cube/I-CUBE-HUAWEI/Middlewares/Third_Party/Huawei/iot_link/os/liteos/arch/arm/arm-m/armv7-m/gcc\los_dispatch.c ****      * Save the stack frame([S16-S31,]R4-R11) of the current running task.
 274:D:/fchai/work/i-cube/I-CUBE-HUAWEI/Middlewares/Third_Party/Huawei/iot_link/os/liteos/arch/arm/arm-m/armv7-m/gcc\los_dispatch.c ****      * R12 save the PRIMASK value of the current running task.
 275:D:/fchai/work/i-cube/I-CUBE-HUAWEI/Middlewares/Third_Party/Huawei/iot_link/os/liteos/arch/arm/arm-m/armv7-m/gcc\los_dispatch.c ****      * NOTE: 1. Before entering the exception handler function, these registers
 276:D:/fchai/work/i-cube/I-CUBE-HUAWEI/Middlewares/Third_Party/Huawei/iot_link/os/liteos/arch/arm/arm-m/armv7-m/gcc\los_dispatch.c ****      *       ([NO_NAME,FPSCR,S15-S0],xPSR,PC,LR,R12,R3-R0) have been automatically
 277:D:/fchai/work/i-cube/I-CUBE-HUAWEI/Middlewares/Third_Party/Huawei/iot_link/os/liteos/arch/arm/arm-m/armv7-m/gcc\los_dispatch.c ****      *       saved by the CPU in the stack of the current running task.
 278:D:/fchai/work/i-cube/I-CUBE-HUAWEI/Middlewares/Third_Party/Huawei/iot_link/os/liteos/arch/arm/arm-m/armv7-m/gcc\los_dispatch.c ****      *       2. If lazy stacking is enabled, space is reserved on the stack for
 279:D:/fchai/work/i-cube/I-CUBE-HUAWEI/Middlewares/Third_Party/Huawei/iot_link/os/liteos/arch/arm/arm-m/armv7-m/gcc\los_dispatch.c ****      *       the floating-point context(FPSCR,S15-S0), but the floating-point state
 280:D:/fchai/work/i-cube/I-CUBE-HUAWEI/Middlewares/Third_Party/Huawei/iot_link/os/liteos/arch/arm/arm-m/armv7-m/gcc\los_dispatch.c ****      *       is not saved. when the floating-point instruction(VSTMDBEQ  R0!, {D8-D15})
 281:D:/fchai/work/i-cube/I-CUBE-HUAWEI/Middlewares/Third_Party/Huawei/iot_link/os/liteos/arch/arm/arm-m/armv7-m/gcc\los_dispatch.c ****      *       is executed, the floating-point context(FPSCR,S15-S0) is first saved into
 282:D:/fchai/work/i-cube/I-CUBE-HUAWEI/Middlewares/Third_Party/Huawei/iot_link/os/liteos/arch/arm/arm-m/armv7-m/gcc\los_dispatch.c ****      *       the space reserved on the stack. In other words, the instruction
 283:D:/fchai/work/i-cube/I-CUBE-HUAWEI/Middlewares/Third_Party/Huawei/iot_link/os/liteos/arch/arm/arm-m/armv7-m/gcc\los_dispatch.c ****      *       'VSTMDBEQ  R0!, {D8-D15}' will trigger the CPU to save 'FPSCR,S15-S0' first.
 284:D:/fchai/work/i-cube/I-CUBE-HUAWEI/Middlewares/Third_Party/Huawei/iot_link/os/liteos/arch/arm/arm-m/armv7-m/gcc\los_dispatch.c ****      *
 285:D:/fchai/work/i-cube/I-CUBE-HUAWEI/Middlewares/Third_Party/Huawei/iot_link/os/liteos/arch/arm/arm-m/armv7-m/gcc\los_dispatch.c ****      * The stack of the current running task is as follows:
 286:D:/fchai/work/i-cube/I-CUBE-HUAWEI/Middlewares/Third_Party/Huawei/iot_link/os/liteos/arch/arm/arm-m/armv7-m/gcc\los_dispatch.c ****      *
 287:D:/fchai/work/i-cube/I-CUBE-HUAWEI/Middlewares/Third_Party/Huawei/iot_link/os/liteos/arch/arm/arm-m/armv7-m/gcc\los_dispatch.c ****      *   |<=== PUSH: Save the context of the current running task
 288:D:/fchai/work/i-cube/I-CUBE-HUAWEI/Middlewares/Third_Party/Huawei/iot_link/os/liteos/arch/arm/arm-m/armv7-m/gcc\los_dispatch.c ****      *   |                                                                        High addr--->|
 289:D:/fchai/work/i-cube/I-CUBE-HUAWEI/Middlewares/Third_Party/Huawei/iot_link/os/liteos/arch/arm/arm-m/armv7-m/gcc\los_dispatch.c ****      * --+---------------------------------------+---------------------------------------------+---
 290:D:/fchai/work/i-cube/I-CUBE-HUAWEI/Middlewares/Third_Party/Huawei/iot_link/os/liteos/arch/arm/arm-m/armv7-m/gcc\los_dispatch.c ****      *   | R4-R11,PRIMASK[,EXC_RETURN[,S16-S31]] | R0-R3,R12,LR,PC,xPSR[,S0-S15,FPSCR,NO_NAME] |
 291:D:/fchai/work/i-cube/I-CUBE-HUAWEI/Middlewares/Third_Party/Huawei/iot_link/os/liteos/arch/arm/arm-m/armv7-m/gcc\los_dispatch.c ****      *   |                                                             [    lazy stacking    ] |
 292:D:/fchai/work/i-cube/I-CUBE-HUAWEI/Middlewares/Third_Party/Huawei/iot_link/os/liteos/arch/arm/arm-m/armv7-m/gcc\los_dispatch.c ****      * --+---------------------------------------+---------------------------------------------+---
 293:D:/fchai/work/i-cube/I-CUBE-HUAWEI/Middlewares/Third_Party/Huawei/iot_link/os/liteos/arch/arm/arm-m/armv7-m/gcc\los_dispatch.c ****      *                                              Stack pointer before entering exception--->|
 294:D:/fchai/work/i-cube/I-CUBE-HUAWEI/Middlewares/Third_Party/Huawei/iot_link/os/liteos/arch/arm/arm-m/armv7-m/gcc\los_dispatch.c ****      *                                           |<---            cpu auto saved           --->|
 295:D:/fchai/work/i-cube/I-CUBE-HUAWEI/Middlewares/Third_Party/Huawei/iot_link/os/liteos/arch/arm/arm-m/armv7-m/gcc\los_dispatch.c ****      *                                           |<---PSP to R0
 296:D:/fchai/work/i-cube/I-CUBE-HUAWEI/Middlewares/Third_Party/Huawei/iot_link/os/liteos/arch/arm/arm-m/armv7-m/gcc\los_dispatch.c ****      *   |<---Top of the stack, save to g_stLosTask.pstRunTask->pStackPointer
 297:D:/fchai/work/i-cube/I-CUBE-HUAWEI/Middlewares/Third_Party/Huawei/iot_link/os/liteos/arch/arm/arm-m/armv7-m/gcc\los_dispatch.c ****      */
 298:D:/fchai/work/i-cube/I-CUBE-HUAWEI/Middlewares/Third_Party/Huawei/iot_link/os/liteos/arch/arm/arm-m/armv7-m/gcc\los_dispatch.c **** #if defined (__VFP_FP__) && !defined(__SOFTFP__)       /* if FPU exist. */
 299:D:/fchai/work/i-cube/I-CUBE-HUAWEI/Middlewares/Third_Party/Huawei/iot_link/os/liteos/arch/arm/arm-m/armv7-m/gcc\los_dispatch.c ****     "TST    R14, #0x10              @ if the task using the FPU context\n\t"
 300:D:/fchai/work/i-cube/I-CUBE-HUAWEI/Middlewares/Third_Party/Huawei/iot_link/os/liteos/arch/arm/arm-m/armv7-m/gcc\los_dispatch.c ****     "BNE    0f\n\t"
 301:D:/fchai/work/i-cube/I-CUBE-HUAWEI/Middlewares/Third_Party/Huawei/iot_link/os/liteos/arch/arm/arm-m/armv7-m/gcc\los_dispatch.c ****     "VSTMDB R0!, {D8-D15}\n\t"
 302:D:/fchai/work/i-cube/I-CUBE-HUAWEI/Middlewares/Third_Party/Huawei/iot_link/os/liteos/arch/arm/arm-m/armv7-m/gcc\los_dispatch.c ****     "0:\n\t"
 303:D:/fchai/work/i-cube/I-CUBE-HUAWEI/Middlewares/Third_Party/Huawei/iot_link/os/liteos/arch/arm/arm-m/armv7-m/gcc\los_dispatch.c ****     "STMFD  R0!, {R14}              @ save EXC_RETURN\n\t"
 304:D:/fchai/work/i-cube/I-CUBE-HUAWEI/Middlewares/Third_Party/Huawei/iot_link/os/liteos/arch/arm/arm-m/armv7-m/gcc\los_dispatch.c **** #endif
 305:D:/fchai/work/i-cube/I-CUBE-HUAWEI/Middlewares/Third_Party/Huawei/iot_link/os/liteos/arch/arm/arm-m/armv7-m/gcc\los_dispatch.c **** 
 306:D:/fchai/work/i-cube/I-CUBE-HUAWEI/Middlewares/Third_Party/Huawei/iot_link/os/liteos/arch/arm/arm-m/armv7-m/gcc\los_dispatch.c ****     "STMFD  R0!, {R4-R12}           @ save the core registers and PRIMASK.\n\t"
 307:D:/fchai/work/i-cube/I-CUBE-HUAWEI/Middlewares/Third_Party/Huawei/iot_link/os/liteos/arch/arm/arm-m/armv7-m/gcc\los_dispatch.c **** 
 308:D:/fchai/work/i-cube/I-CUBE-HUAWEI/Middlewares/Third_Party/Huawei/iot_link/os/liteos/arch/arm/arm-m/armv7-m/gcc\los_dispatch.c **** #if (LOSCFG_ENABLE_MPU == YES)
 309:D:/fchai/work/i-cube/I-CUBE-HUAWEI/Middlewares/Third_Party/Huawei/iot_link/os/liteos/arch/arm/arm-m/armv7-m/gcc\los_dispatch.c ****     "MRS    R1, CONTROL\n\t"
 310:D:/fchai/work/i-cube/I-CUBE-HUAWEI/Middlewares/Third_Party/Huawei/iot_link/os/liteos/arch/arm/arm-m/armv7-m/gcc\los_dispatch.c ****     "STR    R1, [R0, #-4]!\n\t"
 311:D:/fchai/work/i-cube/I-CUBE-HUAWEI/Middlewares/Third_Party/Huawei/iot_link/os/liteos/arch/arm/arm-m/armv7-m/gcc\los_dispatch.c **** #endif
 312:D:/fchai/work/i-cube/I-CUBE-HUAWEI/Middlewares/Third_Party/Huawei/iot_link/os/liteos/arch/arm/arm-m/armv7-m/gcc\los_dispatch.c **** 
 313:D:/fchai/work/i-cube/I-CUBE-HUAWEI/Middlewares/Third_Party/Huawei/iot_link/os/liteos/arch/arm/arm-m/armv7-m/gcc\los_dispatch.c ****     /**
 314:D:/fchai/work/i-cube/I-CUBE-HUAWEI/Middlewares/Third_Party/Huawei/iot_link/os/liteos/arch/arm/arm-m/armv7-m/gcc\los_dispatch.c ****      * R5,R8.
 315:D:/fchai/work/i-cube/I-CUBE-HUAWEI/Middlewares/Third_Party/Huawei/iot_link/os/liteos/arch/arm/arm-m/armv7-m/gcc\los_dispatch.c ****      */
 316:D:/fchai/work/i-cube/I-CUBE-HUAWEI/Middlewares/Third_Party/Huawei/iot_link/os/liteos/arch/arm/arm-m/armv7-m/gcc\los_dispatch.c ****     "LDR    R5, =g_stLosTask\n\t"
 317:D:/fchai/work/i-cube/I-CUBE-HUAWEI/Middlewares/Third_Party/Huawei/iot_link/os/liteos/arch/arm/arm-m/armv7-m/gcc\los_dispatch.c ****     "MOV    R8, %0                 @ OS_TASK_STATUS_RUNNING\n\t"
 318:D:/fchai/work/i-cube/I-CUBE-HUAWEI/Middlewares/Third_Party/Huawei/iot_link/os/liteos/arch/arm/arm-m/armv7-m/gcc\los_dispatch.c **** 
 319:D:/fchai/work/i-cube/I-CUBE-HUAWEI/Middlewares/Third_Party/Huawei/iot_link/os/liteos/arch/arm/arm-m/armv7-m/gcc\los_dispatch.c ****     /**
 320:D:/fchai/work/i-cube/I-CUBE-HUAWEI/Middlewares/Third_Party/Huawei/iot_link/os/liteos/arch/arm/arm-m/armv7-m/gcc\los_dispatch.c ****      * Save the stack pointer of the current running task to TCB.
 321:D:/fchai/work/i-cube/I-CUBE-HUAWEI/Middlewares/Third_Party/Huawei/iot_link/os/liteos/arch/arm/arm-m/armv7-m/gcc\los_dispatch.c ****      * (g_stLosTask.pstRunTask->pStackPointer = R0)
ARM GAS  T:\msys\tmp\ccjkW8JM.s 			page 11


 322:D:/fchai/work/i-cube/I-CUBE-HUAWEI/Middlewares/Third_Party/Huawei/iot_link/os/liteos/arch/arm/arm-m/armv7-m/gcc\los_dispatch.c ****      */
 323:D:/fchai/work/i-cube/I-CUBE-HUAWEI/Middlewares/Third_Party/Huawei/iot_link/os/liteos/arch/arm/arm-m/armv7-m/gcc\los_dispatch.c ****     "LDR    R6, [R5]\n\t"
 324:D:/fchai/work/i-cube/I-CUBE-HUAWEI/Middlewares/Third_Party/Huawei/iot_link/os/liteos/arch/arm/arm-m/armv7-m/gcc\los_dispatch.c ****     "STR    R0, [R6]\n\t"
 325:D:/fchai/work/i-cube/I-CUBE-HUAWEI/Middlewares/Third_Party/Huawei/iot_link/os/liteos/arch/arm/arm-m/armv7-m/gcc\los_dispatch.c **** 
 326:D:/fchai/work/i-cube/I-CUBE-HUAWEI/Middlewares/Third_Party/Huawei/iot_link/os/liteos/arch/arm/arm-m/armv7-m/gcc\los_dispatch.c ****     /**
 327:D:/fchai/work/i-cube/I-CUBE-HUAWEI/Middlewares/Third_Party/Huawei/iot_link/os/liteos/arch/arm/arm-m/armv7-m/gcc\los_dispatch.c ****      * Clear the RUNNING state of the current running task.
 328:D:/fchai/work/i-cube/I-CUBE-HUAWEI/Middlewares/Third_Party/Huawei/iot_link/os/liteos/arch/arm/arm-m/armv7-m/gcc\los_dispatch.c ****      * (g_stLosTask.pstRunTask->usTaskStatus &= ~OS_TASK_STATUS_RUNNING)
 329:D:/fchai/work/i-cube/I-CUBE-HUAWEI/Middlewares/Third_Party/Huawei/iot_link/os/liteos/arch/arm/arm-m/armv7-m/gcc\los_dispatch.c ****      */
 330:D:/fchai/work/i-cube/I-CUBE-HUAWEI/Middlewares/Third_Party/Huawei/iot_link/os/liteos/arch/arm/arm-m/armv7-m/gcc\los_dispatch.c ****     "LDRH   R7, [R6, #4]\n\t"
 331:D:/fchai/work/i-cube/I-CUBE-HUAWEI/Middlewares/Third_Party/Huawei/iot_link/os/liteos/arch/arm/arm-m/armv7-m/gcc\los_dispatch.c ****     "BIC    R7, R7, R8\n\t"
 332:D:/fchai/work/i-cube/I-CUBE-HUAWEI/Middlewares/Third_Party/Huawei/iot_link/os/liteos/arch/arm/arm-m/armv7-m/gcc\los_dispatch.c ****     "STRH   R7, [R6, #4]\n\t"
 333:D:/fchai/work/i-cube/I-CUBE-HUAWEI/Middlewares/Third_Party/Huawei/iot_link/os/liteos/arch/arm/arm-m/armv7-m/gcc\los_dispatch.c **** 
 334:D:/fchai/work/i-cube/I-CUBE-HUAWEI/Middlewares/Third_Party/Huawei/iot_link/os/liteos/arch/arm/arm-m/armv7-m/gcc\los_dispatch.c ****     /**
 335:D:/fchai/work/i-cube/I-CUBE-HUAWEI/Middlewares/Third_Party/Huawei/iot_link/os/liteos/arch/arm/arm-m/armv7-m/gcc\los_dispatch.c ****      * Switch the current running task to the next running task.
 336:D:/fchai/work/i-cube/I-CUBE-HUAWEI/Middlewares/Third_Party/Huawei/iot_link/os/liteos/arch/arm/arm-m/armv7-m/gcc\los_dispatch.c ****      * (g_stLosTask.pstRunTask = g_stLosTask.pstNewTask)
 337:D:/fchai/work/i-cube/I-CUBE-HUAWEI/Middlewares/Third_Party/Huawei/iot_link/os/liteos/arch/arm/arm-m/armv7-m/gcc\los_dispatch.c ****      */
 338:D:/fchai/work/i-cube/I-CUBE-HUAWEI/Middlewares/Third_Party/Huawei/iot_link/os/liteos/arch/arm/arm-m/armv7-m/gcc\los_dispatch.c ****     "LDR    R0, [R5, #4]\n\t"
 339:D:/fchai/work/i-cube/I-CUBE-HUAWEI/Middlewares/Third_Party/Huawei/iot_link/os/liteos/arch/arm/arm-m/armv7-m/gcc\los_dispatch.c ****     "STR    R0, [R5]\n\t"
 340:D:/fchai/work/i-cube/I-CUBE-HUAWEI/Middlewares/Third_Party/Huawei/iot_link/os/liteos/arch/arm/arm-m/armv7-m/gcc\los_dispatch.c **** 
 341:D:/fchai/work/i-cube/I-CUBE-HUAWEI/Middlewares/Third_Party/Huawei/iot_link/os/liteos/arch/arm/arm-m/armv7-m/gcc\los_dispatch.c ****     /**
 342:D:/fchai/work/i-cube/I-CUBE-HUAWEI/Middlewares/Third_Party/Huawei/iot_link/os/liteos/arch/arm/arm-m/armv7-m/gcc\los_dispatch.c ****      * Set the RUNNING state of the next running task.
 343:D:/fchai/work/i-cube/I-CUBE-HUAWEI/Middlewares/Third_Party/Huawei/iot_link/os/liteos/arch/arm/arm-m/armv7-m/gcc\los_dispatch.c ****      * (g_stLosTask.pstNewTask->usTaskStatus |= OS_TASK_STATUS_RUNNING)
 344:D:/fchai/work/i-cube/I-CUBE-HUAWEI/Middlewares/Third_Party/Huawei/iot_link/os/liteos/arch/arm/arm-m/armv7-m/gcc\los_dispatch.c ****      */
 345:D:/fchai/work/i-cube/I-CUBE-HUAWEI/Middlewares/Third_Party/Huawei/iot_link/os/liteos/arch/arm/arm-m/armv7-m/gcc\los_dispatch.c ****     "LDRH   R7, [R0, #4]\n\t"
 346:D:/fchai/work/i-cube/I-CUBE-HUAWEI/Middlewares/Third_Party/Huawei/iot_link/os/liteos/arch/arm/arm-m/armv7-m/gcc\los_dispatch.c ****     "ORR    R7, R7, R8\n\t"
 347:D:/fchai/work/i-cube/I-CUBE-HUAWEI/Middlewares/Third_Party/Huawei/iot_link/os/liteos/arch/arm/arm-m/armv7-m/gcc\los_dispatch.c ****     "STRH   R7, [R0, #4]\n\t"
 348:D:/fchai/work/i-cube/I-CUBE-HUAWEI/Middlewares/Third_Party/Huawei/iot_link/os/liteos/arch/arm/arm-m/armv7-m/gcc\los_dispatch.c **** 
 349:D:/fchai/work/i-cube/I-CUBE-HUAWEI/Middlewares/Third_Party/Huawei/iot_link/os/liteos/arch/arm/arm-m/armv7-m/gcc\los_dispatch.c ****     /**
 350:D:/fchai/work/i-cube/I-CUBE-HUAWEI/Middlewares/Third_Party/Huawei/iot_link/os/liteos/arch/arm/arm-m/armv7-m/gcc\los_dispatch.c ****      * Restore the stack pointer of the next running task from TCB.
 351:D:/fchai/work/i-cube/I-CUBE-HUAWEI/Middlewares/Third_Party/Huawei/iot_link/os/liteos/arch/arm/arm-m/armv7-m/gcc\los_dispatch.c ****      * (R1 = g_stLosTask.pstNewTask->pStackPointer)
 352:D:/fchai/work/i-cube/I-CUBE-HUAWEI/Middlewares/Third_Party/Huawei/iot_link/os/liteos/arch/arm/arm-m/armv7-m/gcc\los_dispatch.c ****      */
 353:D:/fchai/work/i-cube/I-CUBE-HUAWEI/Middlewares/Third_Party/Huawei/iot_link/os/liteos/arch/arm/arm-m/armv7-m/gcc\los_dispatch.c ****     "LDR    R1, [R0]\n\t"
 354:D:/fchai/work/i-cube/I-CUBE-HUAWEI/Middlewares/Third_Party/Huawei/iot_link/os/liteos/arch/arm/arm-m/armv7-m/gcc\los_dispatch.c **** 
 355:D:/fchai/work/i-cube/I-CUBE-HUAWEI/Middlewares/Third_Party/Huawei/iot_link/os/liteos/arch/arm/arm-m/armv7-m/gcc\los_dispatch.c **** #if (LOSCFG_ENABLE_MPU == YES)
 356:D:/fchai/work/i-cube/I-CUBE-HUAWEI/Middlewares/Third_Party/Huawei/iot_link/os/liteos/arch/arm/arm-m/armv7-m/gcc\los_dispatch.c ****     /**
 357:D:/fchai/work/i-cube/I-CUBE-HUAWEI/Middlewares/Third_Party/Huawei/iot_link/os/liteos/arch/arm/arm-m/armv7-m/gcc\los_dispatch.c ****      * Set the CONTROL register
 358:D:/fchai/work/i-cube/I-CUBE-HUAWEI/Middlewares/Third_Party/Huawei/iot_link/os/liteos/arch/arm/arm-m/armv7-m/gcc\los_dispatch.c ****      */
 359:D:/fchai/work/i-cube/I-CUBE-HUAWEI/Middlewares/Third_Party/Huawei/iot_link/os/liteos/arch/arm/arm-m/armv7-m/gcc\los_dispatch.c **** 
 360:D:/fchai/work/i-cube/I-CUBE-HUAWEI/Middlewares/Third_Party/Huawei/iot_link/os/liteos/arch/arm/arm-m/armv7-m/gcc\los_dispatch.c ****     "LDR    R4, [R0, #8]            @ TCB->pMpuSettings\n\t"
 361:D:/fchai/work/i-cube/I-CUBE-HUAWEI/Middlewares/Third_Party/Huawei/iot_link/os/liteos/arch/arm/arm-m/armv7-m/gcc\los_dispatch.c ****     "LDR    R5, =%1                 @ MPU_RBAR\n\t"
 362:D:/fchai/work/i-cube/I-CUBE-HUAWEI/Middlewares/Third_Party/Huawei/iot_link/os/liteos/arch/arm/arm-m/armv7-m/gcc\los_dispatch.c ****     "LDM    R4!, {R6-R11}\n\t"
 363:D:/fchai/work/i-cube/I-CUBE-HUAWEI/Middlewares/Third_Party/Huawei/iot_link/os/liteos/arch/arm/arm-m/armv7-m/gcc\los_dispatch.c ****     "STM    R5, {R6-R11}\n\t"
 364:D:/fchai/work/i-cube/I-CUBE-HUAWEI/Middlewares/Third_Party/Huawei/iot_link/os/liteos/arch/arm/arm-m/armv7-m/gcc\los_dispatch.c ****     "LDM    R4!, {R6-R11}\n\t"
 365:D:/fchai/work/i-cube/I-CUBE-HUAWEI/Middlewares/Third_Party/Huawei/iot_link/os/liteos/arch/arm/arm-m/armv7-m/gcc\los_dispatch.c ****     "STM    R5, {R6-R11}\n\t"
 366:D:/fchai/work/i-cube/I-CUBE-HUAWEI/Middlewares/Third_Party/Huawei/iot_link/os/liteos/arch/arm/arm-m/armv7-m/gcc\los_dispatch.c ****     "LDR    R4, [R1], #4\n\t"
 367:D:/fchai/work/i-cube/I-CUBE-HUAWEI/Middlewares/Third_Party/Huawei/iot_link/os/liteos/arch/arm/arm-m/armv7-m/gcc\los_dispatch.c ****     "MSR    CONTROL, R4\n\t"
 368:D:/fchai/work/i-cube/I-CUBE-HUAWEI/Middlewares/Third_Party/Huawei/iot_link/os/liteos/arch/arm/arm-m/armv7-m/gcc\los_dispatch.c **** #endif
 369:D:/fchai/work/i-cube/I-CUBE-HUAWEI/Middlewares/Third_Party/Huawei/iot_link/os/liteos/arch/arm/arm-m/armv7-m/gcc\los_dispatch.c **** 
 370:D:/fchai/work/i-cube/I-CUBE-HUAWEI/Middlewares/Third_Party/Huawei/iot_link/os/liteos/arch/arm/arm-m/armv7-m/gcc\los_dispatch.c ****     /**
 371:D:/fchai/work/i-cube/I-CUBE-HUAWEI/Middlewares/Third_Party/Huawei/iot_link/os/liteos/arch/arm/arm-m/armv7-m/gcc\los_dispatch.c ****      * Restore the stack frame(R4-R11[,S16-S31]) of the next running task.
 372:D:/fchai/work/i-cube/I-CUBE-HUAWEI/Middlewares/Third_Party/Huawei/iot_link/os/liteos/arch/arm/arm-m/armv7-m/gcc\los_dispatch.c ****      * R12 restore the PRIMASK value of the next running task.
 373:D:/fchai/work/i-cube/I-CUBE-HUAWEI/Middlewares/Third_Party/Huawei/iot_link/os/liteos/arch/arm/arm-m/armv7-m/gcc\los_dispatch.c ****      * NOTE: After exiting the exception handler function, these registers
 374:D:/fchai/work/i-cube/I-CUBE-HUAWEI/Middlewares/Third_Party/Huawei/iot_link/os/liteos/arch/arm/arm-m/armv7-m/gcc\los_dispatch.c ****      *       (PC,xPSR,R0-R3,R12,LR[,S0-S15,FPSCR,NO_NAME]) will be automatically
 375:D:/fchai/work/i-cube/I-CUBE-HUAWEI/Middlewares/Third_Party/Huawei/iot_link/os/liteos/arch/arm/arm-m/armv7-m/gcc\los_dispatch.c ****      *       restored by the CPU from the stack of the next running task.
 376:D:/fchai/work/i-cube/I-CUBE-HUAWEI/Middlewares/Third_Party/Huawei/iot_link/os/liteos/arch/arm/arm-m/armv7-m/gcc\los_dispatch.c ****      *
 377:D:/fchai/work/i-cube/I-CUBE-HUAWEI/Middlewares/Third_Party/Huawei/iot_link/os/liteos/arch/arm/arm-m/armv7-m/gcc\los_dispatch.c ****      * 1. The stack of the next running task is as follows:
 378:D:/fchai/work/i-cube/I-CUBE-HUAWEI/Middlewares/Third_Party/Huawei/iot_link/os/liteos/arch/arm/arm-m/armv7-m/gcc\los_dispatch.c ****      *
ARM GAS  T:\msys\tmp\ccjkW8JM.s 			page 12


 379:D:/fchai/work/i-cube/I-CUBE-HUAWEI/Middlewares/Third_Party/Huawei/iot_link/os/liteos/arch/arm/arm-m/armv7-m/gcc\los_dispatch.c ****      *                                   POP: Restore the context of the next running task ===>|
 380:D:/fchai/work/i-cube/I-CUBE-HUAWEI/Middlewares/Third_Party/Huawei/iot_link/os/liteos/arch/arm/arm-m/armv7-m/gcc\los_dispatch.c ****      *                                                                            High addr--->|
 381:D:/fchai/work/i-cube/I-CUBE-HUAWEI/Middlewares/Third_Party/Huawei/iot_link/os/liteos/arch/arm/arm-m/armv7-m/gcc\los_dispatch.c ****      * --+---------------------------------------+---------------------------------------------+---
 382:D:/fchai/work/i-cube/I-CUBE-HUAWEI/Middlewares/Third_Party/Huawei/iot_link/os/liteos/arch/arm/arm-m/armv7-m/gcc\los_dispatch.c ****      *   | R4-R11,PRIMASK[,EXC_RETURN[,S16-S31]] | R0-R3,R12,LR,PC,xPSR[,S0-S15,FPSCR,NO_NAME] |
 383:D:/fchai/work/i-cube/I-CUBE-HUAWEI/Middlewares/Third_Party/Huawei/iot_link/os/liteos/arch/arm/arm-m/armv7-m/gcc\los_dispatch.c ****      * --+---------------------------------------+---------------------------------------------+---
 384:D:/fchai/work/i-cube/I-CUBE-HUAWEI/Middlewares/Third_Party/Huawei/iot_link/os/liteos/arch/arm/arm-m/armv7-m/gcc\los_dispatch.c ****      *   |<---Top of the stack, restored from g_stLosTask.pstNewTask->pStackPointer
 385:D:/fchai/work/i-cube/I-CUBE-HUAWEI/Middlewares/Third_Party/Huawei/iot_link/os/liteos/arch/arm/arm-m/armv7-m/gcc\los_dispatch.c ****      *                              R1 to PSP--->|
 386:D:/fchai/work/i-cube/I-CUBE-HUAWEI/Middlewares/Third_Party/Huawei/iot_link/os/liteos/arch/arm/arm-m/armv7-m/gcc\los_dispatch.c ****      *                                           |<---         cpu auto restoring          --->|
 387:D:/fchai/work/i-cube/I-CUBE-HUAWEI/Middlewares/Third_Party/Huawei/iot_link/os/liteos/arch/arm/arm-m/armv7-m/gcc\los_dispatch.c ****      *                                                Stack pointer after exiting exception--->|
 388:D:/fchai/work/i-cube/I-CUBE-HUAWEI/Middlewares/Third_Party/Huawei/iot_link/os/liteos/arch/arm/arm-m/armv7-m/gcc\los_dispatch.c ****      *
 389:D:/fchai/work/i-cube/I-CUBE-HUAWEI/Middlewares/Third_Party/Huawei/iot_link/os/liteos/arch/arm/arm-m/armv7-m/gcc\los_dispatch.c ****      * 2. If the next running task is run for the first time, the stack is as follows:
 390:D:/fchai/work/i-cube/I-CUBE-HUAWEI/Middlewares/Third_Party/Huawei/iot_link/os/liteos/arch/arm/arm-m/armv7-m/gcc\los_dispatch.c ****      *
 391:D:/fchai/work/i-cube/I-CUBE-HUAWEI/Middlewares/Third_Party/Huawei/iot_link/os/liteos/arch/arm/arm-m/armv7-m/gcc\los_dispatch.c ****      *          POP: Restore the context of the next running task ===>|
 392:D:/fchai/work/i-cube/I-CUBE-HUAWEI/Middlewares/Third_Party/Huawei/iot_link/os/liteos/arch/arm/arm-m/armv7-m/gcc\los_dispatch.c ****      *                                                   High addr--->|
 393:D:/fchai/work/i-cube/I-CUBE-HUAWEI/Middlewares/Third_Party/Huawei/iot_link/os/liteos/arch/arm/arm-m/armv7-m/gcc\los_dispatch.c ****      *                                         Bottom of the stack--->|
 394:D:/fchai/work/i-cube/I-CUBE-HUAWEI/Middlewares/Third_Party/Huawei/iot_link/os/liteos/arch/arm/arm-m/armv7-m/gcc\los_dispatch.c ****      * ----------+-----------------------------+----------------------+
 395:D:/fchai/work/i-cube/I-CUBE-HUAWEI/Middlewares/Third_Party/Huawei/iot_link/os/liteos/arch/arm/arm-m/armv7-m/gcc\los_dispatch.c ****      *           | R4-R11,PRIMASK[,EXC_RETURN] | R0-R3,R12,LR,PC,xPSR |
 396:D:/fchai/work/i-cube/I-CUBE-HUAWEI/Middlewares/Third_Party/Huawei/iot_link/os/liteos/arch/arm/arm-m/armv7-m/gcc\los_dispatch.c ****      * ----------+-----------------------------+----------------------+
 397:D:/fchai/work/i-cube/I-CUBE-HUAWEI/Middlewares/Third_Party/Huawei/iot_link/os/liteos/arch/arm/arm-m/armv7-m/gcc\los_dispatch.c ****      *           |<---Top of the stack, restored from g_stLosTask.pstNewTask->pStackPointer
 398:D:/fchai/work/i-cube/I-CUBE-HUAWEI/Middlewares/Third_Party/Huawei/iot_link/os/liteos/arch/arm/arm-m/armv7-m/gcc\los_dispatch.c ****      *                            R1 to PSP--->|
 399:D:/fchai/work/i-cube/I-CUBE-HUAWEI/Middlewares/Third_Party/Huawei/iot_link/os/liteos/arch/arm/arm-m/armv7-m/gcc\los_dispatch.c ****      *                                         |<---auto restoring--->|
 400:D:/fchai/work/i-cube/I-CUBE-HUAWEI/Middlewares/Third_Party/Huawei/iot_link/os/liteos/arch/arm/arm-m/armv7-m/gcc\los_dispatch.c ****      *                       Stack pointer after exiting exception--->|
 401:D:/fchai/work/i-cube/I-CUBE-HUAWEI/Middlewares/Third_Party/Huawei/iot_link/os/liteos/arch/arm/arm-m/armv7-m/gcc\los_dispatch.c ****      */
 402:D:/fchai/work/i-cube/I-CUBE-HUAWEI/Middlewares/Third_Party/Huawei/iot_link/os/liteos/arch/arm/arm-m/armv7-m/gcc\los_dispatch.c ****     "LDMFD  R1!, {R4-R12}           @ restore the core registers and PRIMASK\n\t"
 403:D:/fchai/work/i-cube/I-CUBE-HUAWEI/Middlewares/Third_Party/Huawei/iot_link/os/liteos/arch/arm/arm-m/armv7-m/gcc\los_dispatch.c **** 
 404:D:/fchai/work/i-cube/I-CUBE-HUAWEI/Middlewares/Third_Party/Huawei/iot_link/os/liteos/arch/arm/arm-m/armv7-m/gcc\los_dispatch.c **** #if defined (__VFP_FP__) && !defined(__SOFTFP__)       /* if FPU exist. */
 405:D:/fchai/work/i-cube/I-CUBE-HUAWEI/Middlewares/Third_Party/Huawei/iot_link/os/liteos/arch/arm/arm-m/armv7-m/gcc\los_dispatch.c ****     "LDMFD  R1!, {R14}              @ restore EXC_RETURN\n\t"
 406:D:/fchai/work/i-cube/I-CUBE-HUAWEI/Middlewares/Third_Party/Huawei/iot_link/os/liteos/arch/arm/arm-m/armv7-m/gcc\los_dispatch.c ****     "TST    R14, #0x10              @ if the task using the FPU context\n\t"
 407:D:/fchai/work/i-cube/I-CUBE-HUAWEI/Middlewares/Third_Party/Huawei/iot_link/os/liteos/arch/arm/arm-m/armv7-m/gcc\los_dispatch.c ****     "BNE    0f\n\t"
 408:D:/fchai/work/i-cube/I-CUBE-HUAWEI/Middlewares/Third_Party/Huawei/iot_link/os/liteos/arch/arm/arm-m/armv7-m/gcc\los_dispatch.c ****     "VLDMIA R1!, {D8-D15}\n\t"
 409:D:/fchai/work/i-cube/I-CUBE-HUAWEI/Middlewares/Third_Party/Huawei/iot_link/os/liteos/arch/arm/arm-m/armv7-m/gcc\los_dispatch.c ****     "0:\n\t"
 410:D:/fchai/work/i-cube/I-CUBE-HUAWEI/Middlewares/Third_Party/Huawei/iot_link/os/liteos/arch/arm/arm-m/armv7-m/gcc\los_dispatch.c **** #endif
 411:D:/fchai/work/i-cube/I-CUBE-HUAWEI/Middlewares/Third_Party/Huawei/iot_link/os/liteos/arch/arm/arm-m/armv7-m/gcc\los_dispatch.c **** 
 412:D:/fchai/work/i-cube/I-CUBE-HUAWEI/Middlewares/Third_Party/Huawei/iot_link/os/liteos/arch/arm/arm-m/armv7-m/gcc\los_dispatch.c ****     /**
 413:D:/fchai/work/i-cube/I-CUBE-HUAWEI/Middlewares/Third_Party/Huawei/iot_link/os/liteos/arch/arm/arm-m/armv7-m/gcc\los_dispatch.c ****      * Set the stack pointer of the next running task to PSP.
 414:D:/fchai/work/i-cube/I-CUBE-HUAWEI/Middlewares/Third_Party/Huawei/iot_link/os/liteos/arch/arm/arm-m/armv7-m/gcc\los_dispatch.c ****      */
 415:D:/fchai/work/i-cube/I-CUBE-HUAWEI/Middlewares/Third_Party/Huawei/iot_link/os/liteos/arch/arm/arm-m/armv7-m/gcc\los_dispatch.c ****     "MSR    PSP, R1\n\t"
 416:D:/fchai/work/i-cube/I-CUBE-HUAWEI/Middlewares/Third_Party/Huawei/iot_link/os/liteos/arch/arm/arm-m/armv7-m/gcc\los_dispatch.c **** 
 417:D:/fchai/work/i-cube/I-CUBE-HUAWEI/Middlewares/Third_Party/Huawei/iot_link/os/liteos/arch/arm/arm-m/armv7-m/gcc\los_dispatch.c ****     /**
 418:D:/fchai/work/i-cube/I-CUBE-HUAWEI/Middlewares/Third_Party/Huawei/iot_link/os/liteos/arch/arm/arm-m/armv7-m/gcc\los_dispatch.c ****      * Restore the interruption state of the next running task.
 419:D:/fchai/work/i-cube/I-CUBE-HUAWEI/Middlewares/Third_Party/Huawei/iot_link/os/liteos/arch/arm/arm-m/armv7-m/gcc\los_dispatch.c ****      */
 420:D:/fchai/work/i-cube/I-CUBE-HUAWEI/Middlewares/Third_Party/Huawei/iot_link/os/liteos/arch/arm/arm-m/armv7-m/gcc\los_dispatch.c ****     "MSR    PRIMASK, R12\n\t"
 421:D:/fchai/work/i-cube/I-CUBE-HUAWEI/Middlewares/Third_Party/Huawei/iot_link/os/liteos/arch/arm/arm-m/armv7-m/gcc\los_dispatch.c ****     "BX     LR\n\t"
 422:D:/fchai/work/i-cube/I-CUBE-HUAWEI/Middlewares/Third_Party/Huawei/iot_link/os/liteos/arch/arm/arm-m/armv7-m/gcc\los_dispatch.c ****     :
 423:D:/fchai/work/i-cube/I-CUBE-HUAWEI/Middlewares/Third_Party/Huawei/iot_link/os/liteos/arch/arm/arm-m/armv7-m/gcc\los_dispatch.c ****     : "I" (OS_TASK_STATUS_RUNNING), "X" (MPU_RBAR)
 424:D:/fchai/work/i-cube/I-CUBE-HUAWEI/Middlewares/Third_Party/Huawei/iot_link/os/liteos/arch/arm/arm-m/armv7-m/gcc\los_dispatch.c ****     );
 425:D:/fchai/work/i-cube/I-CUBE-HUAWEI/Middlewares/Third_Party/Huawei/iot_link/os/liteos/arch/arm/arm-m/armv7-m/gcc\los_dispatch.c **** }
 261              		.loc 1 425 1 is_stmt 0 view .LVU17
 262              		.thumb
 263              		.syntax unified
 264              		.cfi_endproc
 265              	.LFE128:
 267              		.text
 268              	.Letext0:
 269              		.file 2 "t:\\msys\\3rd\\gcc-arm-none-eabi-9-2020-q2-update-win32\\lib\\gcc\\arm-none-eabi\\9.3.1\\
 270              		.file 3 "t:\\msys\\3rd\\gcc-arm-none-eabi-9-2020-q2-update-win32\\arm-none-eabi\\include\\machine\
 271              		.file 4 "t:\\msys\\3rd\\gcc-arm-none-eabi-9-2020-q2-update-win32\\arm-none-eabi\\include\\sys\\_ty
ARM GAS  T:\msys\tmp\ccjkW8JM.s 			page 13


 272              		.file 5 "t:\\msys\\3rd\\gcc-arm-none-eabi-9-2020-q2-update-win32\\arm-none-eabi\\include\\sys\\ree
 273              		.file 6 "t:\\msys\\3rd\\gcc-arm-none-eabi-9-2020-q2-update-win32\\arm-none-eabi\\include\\sys\\loc
 274              		.file 7 "D:/fchai/work/i-cube/I-CUBE-HUAWEI/Middlewares/Third_Party/Huawei/iot_link/os/liteos/incl
 275              		.file 8 "t:\\msys\\3rd\\gcc-arm-none-eabi-9-2020-q2-update-win32\\arm-none-eabi\\include\\sys\\_st
 276              		.file 9 "D:/fchai/work/i-cube/I-CUBE-HUAWEI/Middlewares/Third_Party/Huawei/iot_link/os/liteos/arch
 277              		.file 10 "D:/fchai/work/i-cube/I-CUBE-HUAWEI/Drivers/CMSIS/Device/ST/STM32L4xx/Include/system_stm3
 278              		.file 11 "D:/fchai/work/i-cube/I-CUBE-HUAWEI/Drivers/STM32L4xx_HAL_Driver/Inc/stm32l4xx_hal_def.h"
 279              		.file 12 "D:/fchai/work/i-cube/I-CUBE-HUAWEI/Drivers/STM32L4xx_HAL_Driver/Inc/stm32l4xx_hal_flash.
 280              		.file 13 "D:/fchai/work/i-cube/I-CUBE-HUAWEI/Drivers/STM32L4xx_HAL_Driver/Inc/stm32l4xx_hal.h"
 281              		.file 14 "D:/fchai/work/i-cube/I-CUBE-HUAWEI/Middlewares/Third_Party/Huawei/iot_link/os/liteos/inc
ARM GAS  T:\msys\tmp\ccjkW8JM.s 			page 14

