ARM GAS  T:\msys\tmp\cc68iQTc.s 			page 1


   1              		.cpu cortex-m4
   2              		.eabi_attribute 27, 1
   3              		.eabi_attribute 28, 1
   4              		.eabi_attribute 20, 1
   5              		.eabi_attribute 21, 1
   6              		.eabi_attribute 23, 3
   7              		.eabi_attribute 24, 1
   8              		.eabi_attribute 25, 1
   9              		.eabi_attribute 26, 1
  10              		.eabi_attribute 30, 2
  11              		.eabi_attribute 34, 1
  12              		.eabi_attribute 18, 4
  13              		.file	"stts751_reg.c"
  14              		.text
  15              	.Ltext0:
  16              		.cfi_sections	.debug_frame
  17              		.section	.text.stts751_read_reg,"ax",%progbits
  18              		.align	1
  19              		.p2align 2,,3
  20              		.global	stts751_read_reg
  21              		.arch armv7e-m
  22              		.syntax unified
  23              		.thumb
  24              		.thumb_func
  25              		.fpu fpv4-sp-d16
  27              	stts751_read_reg:
  28              	.LVL0:
  29              	.LFB0:
  30              		.file 1 "D:/fchai/work/i-cube/I-CUBE-HUAWEI/Drivers/BSP/Components/stts751/stts751_reg.c"
   1:D:/fchai/work/i-cube/I-CUBE-HUAWEI/Drivers/BSP/Components/stts751\stts751_reg.c **** /*
   2:D:/fchai/work/i-cube/I-CUBE-HUAWEI/Drivers/BSP/Components/stts751\stts751_reg.c ****  ******************************************************************************
   3:D:/fchai/work/i-cube/I-CUBE-HUAWEI/Drivers/BSP/Components/stts751\stts751_reg.c ****  * @file    stts751_reg.c
   4:D:/fchai/work/i-cube/I-CUBE-HUAWEI/Drivers/BSP/Components/stts751\stts751_reg.c ****  * @author  Sensors Software Solution Team
   5:D:/fchai/work/i-cube/I-CUBE-HUAWEI/Drivers/BSP/Components/stts751\stts751_reg.c ****  * @brief   STTS751 driver file
   6:D:/fchai/work/i-cube/I-CUBE-HUAWEI/Drivers/BSP/Components/stts751\stts751_reg.c ****  ******************************************************************************
   7:D:/fchai/work/i-cube/I-CUBE-HUAWEI/Drivers/BSP/Components/stts751\stts751_reg.c ****  * @attention
   8:D:/fchai/work/i-cube/I-CUBE-HUAWEI/Drivers/BSP/Components/stts751\stts751_reg.c ****  *
   9:D:/fchai/work/i-cube/I-CUBE-HUAWEI/Drivers/BSP/Components/stts751\stts751_reg.c ****  * <h2><center>&copy; Copyright (c) 2019 STMicroelectronics.
  10:D:/fchai/work/i-cube/I-CUBE-HUAWEI/Drivers/BSP/Components/stts751\stts751_reg.c ****  * All rights reserved.</center></h2>
  11:D:/fchai/work/i-cube/I-CUBE-HUAWEI/Drivers/BSP/Components/stts751\stts751_reg.c ****  *
  12:D:/fchai/work/i-cube/I-CUBE-HUAWEI/Drivers/BSP/Components/stts751\stts751_reg.c ****  * This software component is licensed by ST under BSD 3-Clause license,
  13:D:/fchai/work/i-cube/I-CUBE-HUAWEI/Drivers/BSP/Components/stts751\stts751_reg.c ****  * the "License"; You may not use this file except in compliance with the
  14:D:/fchai/work/i-cube/I-CUBE-HUAWEI/Drivers/BSP/Components/stts751\stts751_reg.c ****  * License. You may obtain a copy of the License at:
  15:D:/fchai/work/i-cube/I-CUBE-HUAWEI/Drivers/BSP/Components/stts751\stts751_reg.c ****  *                        opensource.org/licenses/BSD-3-Clause
  16:D:/fchai/work/i-cube/I-CUBE-HUAWEI/Drivers/BSP/Components/stts751\stts751_reg.c ****  *
  17:D:/fchai/work/i-cube/I-CUBE-HUAWEI/Drivers/BSP/Components/stts751\stts751_reg.c ****  ******************************************************************************
  18:D:/fchai/work/i-cube/I-CUBE-HUAWEI/Drivers/BSP/Components/stts751\stts751_reg.c ****  */
  19:D:/fchai/work/i-cube/I-CUBE-HUAWEI/Drivers/BSP/Components/stts751\stts751_reg.c **** 
  20:D:/fchai/work/i-cube/I-CUBE-HUAWEI/Drivers/BSP/Components/stts751\stts751_reg.c **** #include "stts751_reg.h"
  21:D:/fchai/work/i-cube/I-CUBE-HUAWEI/Drivers/BSP/Components/stts751\stts751_reg.c **** 
  22:D:/fchai/work/i-cube/I-CUBE-HUAWEI/Drivers/BSP/Components/stts751\stts751_reg.c **** /**
  23:D:/fchai/work/i-cube/I-CUBE-HUAWEI/Drivers/BSP/Components/stts751\stts751_reg.c ****   * @defgroup  STTS751
  24:D:/fchai/work/i-cube/I-CUBE-HUAWEI/Drivers/BSP/Components/stts751\stts751_reg.c ****   * @brief     This file provides a set of functions needed to drive the
  25:D:/fchai/work/i-cube/I-CUBE-HUAWEI/Drivers/BSP/Components/stts751\stts751_reg.c ****   *            stts751 enhanced inertial module.
  26:D:/fchai/work/i-cube/I-CUBE-HUAWEI/Drivers/BSP/Components/stts751\stts751_reg.c ****   * @{
  27:D:/fchai/work/i-cube/I-CUBE-HUAWEI/Drivers/BSP/Components/stts751\stts751_reg.c ****   *
  28:D:/fchai/work/i-cube/I-CUBE-HUAWEI/Drivers/BSP/Components/stts751\stts751_reg.c ****   */
ARM GAS  T:\msys\tmp\cc68iQTc.s 			page 2


  29:D:/fchai/work/i-cube/I-CUBE-HUAWEI/Drivers/BSP/Components/stts751\stts751_reg.c **** 
  30:D:/fchai/work/i-cube/I-CUBE-HUAWEI/Drivers/BSP/Components/stts751\stts751_reg.c **** /**
  31:D:/fchai/work/i-cube/I-CUBE-HUAWEI/Drivers/BSP/Components/stts751\stts751_reg.c ****   * @defgroup  STTS751_Interfaces_Functions
  32:D:/fchai/work/i-cube/I-CUBE-HUAWEI/Drivers/BSP/Components/stts751\stts751_reg.c ****   * @brief     This section provide a set of functions used to read and
  33:D:/fchai/work/i-cube/I-CUBE-HUAWEI/Drivers/BSP/Components/stts751\stts751_reg.c ****   *            write a generic register of the device.
  34:D:/fchai/work/i-cube/I-CUBE-HUAWEI/Drivers/BSP/Components/stts751\stts751_reg.c ****   *            MANDATORY: return 0 -> no Error.
  35:D:/fchai/work/i-cube/I-CUBE-HUAWEI/Drivers/BSP/Components/stts751\stts751_reg.c ****   * @{
  36:D:/fchai/work/i-cube/I-CUBE-HUAWEI/Drivers/BSP/Components/stts751\stts751_reg.c ****   *
  37:D:/fchai/work/i-cube/I-CUBE-HUAWEI/Drivers/BSP/Components/stts751\stts751_reg.c ****   */
  38:D:/fchai/work/i-cube/I-CUBE-HUAWEI/Drivers/BSP/Components/stts751\stts751_reg.c **** 
  39:D:/fchai/work/i-cube/I-CUBE-HUAWEI/Drivers/BSP/Components/stts751\stts751_reg.c **** /**
  40:D:/fchai/work/i-cube/I-CUBE-HUAWEI/Drivers/BSP/Components/stts751\stts751_reg.c ****   * @brief  Read generic device register
  41:D:/fchai/work/i-cube/I-CUBE-HUAWEI/Drivers/BSP/Components/stts751\stts751_reg.c ****   *
  42:D:/fchai/work/i-cube/I-CUBE-HUAWEI/Drivers/BSP/Components/stts751\stts751_reg.c ****   * @param  ctx   read / write interface definitions(ptr)
  43:D:/fchai/work/i-cube/I-CUBE-HUAWEI/Drivers/BSP/Components/stts751\stts751_reg.c ****   * @param  reg   register to read
  44:D:/fchai/work/i-cube/I-CUBE-HUAWEI/Drivers/BSP/Components/stts751\stts751_reg.c ****   * @param  data  pointer to buffer that store the data read(ptr)
  45:D:/fchai/work/i-cube/I-CUBE-HUAWEI/Drivers/BSP/Components/stts751\stts751_reg.c ****   * @param  len   number of consecutive register to read
  46:D:/fchai/work/i-cube/I-CUBE-HUAWEI/Drivers/BSP/Components/stts751\stts751_reg.c ****   * @retval          interface status (MANDATORY: return 0 -> no Error)
  47:D:/fchai/work/i-cube/I-CUBE-HUAWEI/Drivers/BSP/Components/stts751\stts751_reg.c ****   *
  48:D:/fchai/work/i-cube/I-CUBE-HUAWEI/Drivers/BSP/Components/stts751\stts751_reg.c ****   */
  49:D:/fchai/work/i-cube/I-CUBE-HUAWEI/Drivers/BSP/Components/stts751\stts751_reg.c **** int32_t stts751_read_reg(stmdev_ctx_t* ctx, uint8_t reg, uint8_t* data,
  50:D:/fchai/work/i-cube/I-CUBE-HUAWEI/Drivers/BSP/Components/stts751\stts751_reg.c ****                           uint16_t len)
  51:D:/fchai/work/i-cube/I-CUBE-HUAWEI/Drivers/BSP/Components/stts751\stts751_reg.c **** {
  31              		.loc 1 51 1 view -0
  32              		.cfi_startproc
  33              		@ args = 0, pretend = 0, frame = 0
  34              		@ frame_needed = 0, uses_anonymous_args = 0
  35              		@ link register save eliminated.
  52:D:/fchai/work/i-cube/I-CUBE-HUAWEI/Drivers/BSP/Components/stts751\stts751_reg.c ****   int32_t ret;
  36              		.loc 1 52 3 view .LVU1
  53:D:/fchai/work/i-cube/I-CUBE-HUAWEI/Drivers/BSP/Components/stts751\stts751_reg.c ****   ret = ctx->read_reg(ctx->handle, reg, data, len);
  37              		.loc 1 53 3 view .LVU2
  51:D:/fchai/work/i-cube/I-CUBE-HUAWEI/Drivers/BSP/Components/stts751\stts751_reg.c ****   int32_t ret;
  38              		.loc 1 51 1 is_stmt 0 view .LVU3
  39 0000 10B4     		push	{r4}
  40              	.LCFI0:
  41              		.cfi_def_cfa_offset 4
  42              		.cfi_offset 4, -4
  43              		.loc 1 53 9 view .LVU4
  44 0002 D0E90140 		ldrd	r4, r0, [r0, #4]
  45              	.LVL1:
  46              		.loc 1 53 9 view .LVU5
  47 0006 A446     		mov	ip, r4
  54:D:/fchai/work/i-cube/I-CUBE-HUAWEI/Drivers/BSP/Components/stts751\stts751_reg.c ****   return ret;
  55:D:/fchai/work/i-cube/I-CUBE-HUAWEI/Drivers/BSP/Components/stts751\stts751_reg.c **** }
  48              		.loc 1 55 1 view .LVU6
  49 0008 5DF8044B 		ldr	r4, [sp], #4
  50              	.LCFI1:
  51              		.cfi_restore 4
  52              		.cfi_def_cfa_offset 0
  53:D:/fchai/work/i-cube/I-CUBE-HUAWEI/Drivers/BSP/Components/stts751\stts751_reg.c ****   return ret;
  53              		.loc 1 53 9 view .LVU7
  54 000c 6047     		bx	ip
  55              	.LVL2:
  53:D:/fchai/work/i-cube/I-CUBE-HUAWEI/Drivers/BSP/Components/stts751\stts751_reg.c ****   return ret;
  56              		.loc 1 53 9 view .LVU8
  57              		.cfi_endproc
ARM GAS  T:\msys\tmp\cc68iQTc.s 			page 3


  58              	.LFE0:
  60 000e 00BF     		.section	.text.stts751_write_reg,"ax",%progbits
  61              		.align	1
  62              		.p2align 2,,3
  63              		.global	stts751_write_reg
  64              		.syntax unified
  65              		.thumb
  66              		.thumb_func
  67              		.fpu fpv4-sp-d16
  69              	stts751_write_reg:
  70              	.LVL3:
  71              	.LFB1:
  56:D:/fchai/work/i-cube/I-CUBE-HUAWEI/Drivers/BSP/Components/stts751\stts751_reg.c **** 
  57:D:/fchai/work/i-cube/I-CUBE-HUAWEI/Drivers/BSP/Components/stts751\stts751_reg.c **** /**
  58:D:/fchai/work/i-cube/I-CUBE-HUAWEI/Drivers/BSP/Components/stts751\stts751_reg.c ****   * @brief  Write generic device register
  59:D:/fchai/work/i-cube/I-CUBE-HUAWEI/Drivers/BSP/Components/stts751\stts751_reg.c ****   *
  60:D:/fchai/work/i-cube/I-CUBE-HUAWEI/Drivers/BSP/Components/stts751\stts751_reg.c ****   * @param  ctx   read / write interface definitions(ptr)
  61:D:/fchai/work/i-cube/I-CUBE-HUAWEI/Drivers/BSP/Components/stts751\stts751_reg.c ****   * @param  reg   register to write
  62:D:/fchai/work/i-cube/I-CUBE-HUAWEI/Drivers/BSP/Components/stts751\stts751_reg.c ****   * @param  data  pointer to data to write in register reg(ptr)
  63:D:/fchai/work/i-cube/I-CUBE-HUAWEI/Drivers/BSP/Components/stts751\stts751_reg.c ****   * @param  len   number of consecutive register to write
  64:D:/fchai/work/i-cube/I-CUBE-HUAWEI/Drivers/BSP/Components/stts751\stts751_reg.c ****   * @retval          interface status (MANDATORY: return 0 -> no Error)
  65:D:/fchai/work/i-cube/I-CUBE-HUAWEI/Drivers/BSP/Components/stts751\stts751_reg.c ****   *
  66:D:/fchai/work/i-cube/I-CUBE-HUAWEI/Drivers/BSP/Components/stts751\stts751_reg.c ****   */
  67:D:/fchai/work/i-cube/I-CUBE-HUAWEI/Drivers/BSP/Components/stts751\stts751_reg.c **** int32_t stts751_write_reg(stmdev_ctx_t* ctx, uint8_t reg, uint8_t* data,
  68:D:/fchai/work/i-cube/I-CUBE-HUAWEI/Drivers/BSP/Components/stts751\stts751_reg.c ****                            uint16_t len)
  69:D:/fchai/work/i-cube/I-CUBE-HUAWEI/Drivers/BSP/Components/stts751\stts751_reg.c **** {
  72              		.loc 1 69 1 is_stmt 1 view -0
  73              		.cfi_startproc
  74              		@ args = 0, pretend = 0, frame = 0
  75              		@ frame_needed = 0, uses_anonymous_args = 0
  76              		@ link register save eliminated.
  70:D:/fchai/work/i-cube/I-CUBE-HUAWEI/Drivers/BSP/Components/stts751\stts751_reg.c ****   int32_t ret;
  77              		.loc 1 70 3 view .LVU10
  71:D:/fchai/work/i-cube/I-CUBE-HUAWEI/Drivers/BSP/Components/stts751\stts751_reg.c ****   ret = ctx->write_reg(ctx->handle, reg, data, len);
  78              		.loc 1 71 3 view .LVU11
  69:D:/fchai/work/i-cube/I-CUBE-HUAWEI/Drivers/BSP/Components/stts751\stts751_reg.c ****   int32_t ret;
  79              		.loc 1 69 1 is_stmt 0 view .LVU12
  80 0000 10B4     		push	{r4}
  81              	.LCFI2:
  82              		.cfi_def_cfa_offset 4
  83              		.cfi_offset 4, -4
  84              		.loc 1 71 9 view .LVU13
  85 0002 0468     		ldr	r4, [r0]
  86 0004 8068     		ldr	r0, [r0, #8]
  87              	.LVL4:
  88              		.loc 1 71 9 view .LVU14
  89 0006 A446     		mov	ip, r4
  72:D:/fchai/work/i-cube/I-CUBE-HUAWEI/Drivers/BSP/Components/stts751\stts751_reg.c ****   return ret;
  73:D:/fchai/work/i-cube/I-CUBE-HUAWEI/Drivers/BSP/Components/stts751\stts751_reg.c **** }
  90              		.loc 1 73 1 view .LVU15
  91 0008 5DF8044B 		ldr	r4, [sp], #4
  92              	.LCFI3:
  93              		.cfi_restore 4
  94              		.cfi_def_cfa_offset 0
  71:D:/fchai/work/i-cube/I-CUBE-HUAWEI/Drivers/BSP/Components/stts751\stts751_reg.c ****   return ret;
  95              		.loc 1 71 9 view .LVU16
  96 000c 6047     		bx	ip
ARM GAS  T:\msys\tmp\cc68iQTc.s 			page 4


  97              	.LVL5:
  71:D:/fchai/work/i-cube/I-CUBE-HUAWEI/Drivers/BSP/Components/stts751\stts751_reg.c ****   return ret;
  98              		.loc 1 71 9 view .LVU17
  99              		.cfi_endproc
 100              	.LFE1:
 102 000e 00BF     		.section	.text.stts751_from_lsb_to_celsius,"ax",%progbits
 103              		.align	1
 104              		.p2align 2,,3
 105              		.global	stts751_from_lsb_to_celsius
 106              		.syntax unified
 107              		.thumb
 108              		.thumb_func
 109              		.fpu fpv4-sp-d16
 111              	stts751_from_lsb_to_celsius:
 112              	.LVL6:
 113              	.LFB2:
  74:D:/fchai/work/i-cube/I-CUBE-HUAWEI/Drivers/BSP/Components/stts751\stts751_reg.c **** 
  75:D:/fchai/work/i-cube/I-CUBE-HUAWEI/Drivers/BSP/Components/stts751\stts751_reg.c **** /**
  76:D:/fchai/work/i-cube/I-CUBE-HUAWEI/Drivers/BSP/Components/stts751\stts751_reg.c ****   * @}
  77:D:/fchai/work/i-cube/I-CUBE-HUAWEI/Drivers/BSP/Components/stts751\stts751_reg.c ****   *
  78:D:/fchai/work/i-cube/I-CUBE-HUAWEI/Drivers/BSP/Components/stts751\stts751_reg.c ****   */
  79:D:/fchai/work/i-cube/I-CUBE-HUAWEI/Drivers/BSP/Components/stts751\stts751_reg.c **** 
  80:D:/fchai/work/i-cube/I-CUBE-HUAWEI/Drivers/BSP/Components/stts751\stts751_reg.c **** /**
  81:D:/fchai/work/i-cube/I-CUBE-HUAWEI/Drivers/BSP/Components/stts751\stts751_reg.c ****   * @defgroup    STTS751_Sensitivity
  82:D:/fchai/work/i-cube/I-CUBE-HUAWEI/Drivers/BSP/Components/stts751\stts751_reg.c ****   * @brief       These functions convert raw-data into engineering units and
  83:D:/fchai/work/i-cube/I-CUBE-HUAWEI/Drivers/BSP/Components/stts751\stts751_reg.c ****   *              vice-versa .
  84:D:/fchai/work/i-cube/I-CUBE-HUAWEI/Drivers/BSP/Components/stts751\stts751_reg.c ****   * @{
  85:D:/fchai/work/i-cube/I-CUBE-HUAWEI/Drivers/BSP/Components/stts751\stts751_reg.c ****   *
  86:D:/fchai/work/i-cube/I-CUBE-HUAWEI/Drivers/BSP/Components/stts751\stts751_reg.c ****   */
  87:D:/fchai/work/i-cube/I-CUBE-HUAWEI/Drivers/BSP/Components/stts751\stts751_reg.c **** 
  88:D:/fchai/work/i-cube/I-CUBE-HUAWEI/Drivers/BSP/Components/stts751\stts751_reg.c **** float stts751_from_lsb_to_celsius(int16_t lsb)
  89:D:/fchai/work/i-cube/I-CUBE-HUAWEI/Drivers/BSP/Components/stts751\stts751_reg.c **** {
 114              		.loc 1 89 1 is_stmt 1 view -0
 115              		.cfi_startproc
 116              		@ args = 0, pretend = 0, frame = 0
 117              		@ frame_needed = 0, uses_anonymous_args = 0
 118              		@ link register save eliminated.
  90:D:/fchai/work/i-cube/I-CUBE-HUAWEI/Drivers/BSP/Components/stts751\stts751_reg.c ****   return ((float)lsb) / 256.0f;
 119              		.loc 1 90 3 view .LVU19
  89:D:/fchai/work/i-cube/I-CUBE-HUAWEI/Drivers/BSP/Components/stts751\stts751_reg.c ****   return ((float)lsb) / 256.0f;
 120              		.loc 1 89 1 is_stmt 0 view .LVU20
 121 0000 00EE100A 		vmov	s0, r0	@ int
  91:D:/fchai/work/i-cube/I-CUBE-HUAWEI/Drivers/BSP/Components/stts751\stts751_reg.c **** }
 122              		.loc 1 91 1 view .LVU21
 123 0004 BAEECC0A 		vcvt.f32.s32	s0, s0, #8
 124 0008 7047     		bx	lr
 125              		.cfi_endproc
 126              	.LFE2:
 128 000a 00BF     		.section	.text.stts751_from_celsius_to_lsb,"ax",%progbits
 129              		.align	1
 130              		.p2align 2,,3
 131              		.global	stts751_from_celsius_to_lsb
 132              		.syntax unified
 133              		.thumb
 134              		.thumb_func
 135              		.fpu fpv4-sp-d16
 137              	stts751_from_celsius_to_lsb:
ARM GAS  T:\msys\tmp\cc68iQTc.s 			page 5


 138              	.LVL7:
 139              	.LFB3:
  92:D:/fchai/work/i-cube/I-CUBE-HUAWEI/Drivers/BSP/Components/stts751\stts751_reg.c **** 
  93:D:/fchai/work/i-cube/I-CUBE-HUAWEI/Drivers/BSP/Components/stts751\stts751_reg.c **** /**
  94:D:/fchai/work/i-cube/I-CUBE-HUAWEI/Drivers/BSP/Components/stts751\stts751_reg.c ****   * @}
  95:D:/fchai/work/i-cube/I-CUBE-HUAWEI/Drivers/BSP/Components/stts751\stts751_reg.c ****   *
  96:D:/fchai/work/i-cube/I-CUBE-HUAWEI/Drivers/BSP/Components/stts751\stts751_reg.c ****   */
  97:D:/fchai/work/i-cube/I-CUBE-HUAWEI/Drivers/BSP/Components/stts751\stts751_reg.c **** 
  98:D:/fchai/work/i-cube/I-CUBE-HUAWEI/Drivers/BSP/Components/stts751\stts751_reg.c **** /**
  99:D:/fchai/work/i-cube/I-CUBE-HUAWEI/Drivers/BSP/Components/stts751\stts751_reg.c ****   * @defgroup STTS751_Sensitivity_Reverse
 100:D:/fchai/work/i-cube/I-CUBE-HUAWEI/Drivers/BSP/Components/stts751\stts751_reg.c ****   * @brief    This conversion is useful but not need by the driver.
 101:D:/fchai/work/i-cube/I-CUBE-HUAWEI/Drivers/BSP/Components/stts751\stts751_reg.c ****   *
 102:D:/fchai/work/i-cube/I-CUBE-HUAWEI/Drivers/BSP/Components/stts751\stts751_reg.c ****   *           REMOVING this union you are compliant with:
 103:D:/fchai/work/i-cube/I-CUBE-HUAWEI/Drivers/BSP/Components/stts751\stts751_reg.c ****   *           MISRA-C 2012 [Rule 10.8] -> " Explicit cast of composite
 104:D:/fchai/work/i-cube/I-CUBE-HUAWEI/Drivers/BSP/Components/stts751\stts751_reg.c ****   *                                         expression "
 105:D:/fchai/work/i-cube/I-CUBE-HUAWEI/Drivers/BSP/Components/stts751\stts751_reg.c ****   *
 106:D:/fchai/work/i-cube/I-CUBE-HUAWEI/Drivers/BSP/Components/stts751\stts751_reg.c ****   * @{
 107:D:/fchai/work/i-cube/I-CUBE-HUAWEI/Drivers/BSP/Components/stts751\stts751_reg.c ****   *
 108:D:/fchai/work/i-cube/I-CUBE-HUAWEI/Drivers/BSP/Components/stts751\stts751_reg.c ****   */
 109:D:/fchai/work/i-cube/I-CUBE-HUAWEI/Drivers/BSP/Components/stts751\stts751_reg.c **** 
 110:D:/fchai/work/i-cube/I-CUBE-HUAWEI/Drivers/BSP/Components/stts751\stts751_reg.c **** int16_t stts751_from_celsius_to_lsb(float celsius)
 111:D:/fchai/work/i-cube/I-CUBE-HUAWEI/Drivers/BSP/Components/stts751\stts751_reg.c **** {
 140              		.loc 1 111 1 is_stmt 1 view -0
 141              		.cfi_startproc
 142              		@ args = 0, pretend = 0, frame = 0
 143              		@ frame_needed = 0, uses_anonymous_args = 0
 144              		@ link register save eliminated.
 112:D:/fchai/work/i-cube/I-CUBE-HUAWEI/Drivers/BSP/Components/stts751\stts751_reg.c ****   return (int16_t)(celsius * 256.0f);
 145              		.loc 1 112 3 view .LVU23
 146              		.loc 1 112 10 is_stmt 0 view .LVU24
 147 0000 BEEECC0A 		vcvt.s32.f32	s0, s0, #8
 148              	.LVL8:
 113:D:/fchai/work/i-cube/I-CUBE-HUAWEI/Drivers/BSP/Components/stts751\stts751_reg.c **** }
 149              		.loc 1 113 1 view .LVU25
 150 0004 10EE103A 		vmov	r3, s0	@ int
 151 0008 18B2     		sxth	r0, r3
 152 000a 7047     		bx	lr
 153              		.cfi_endproc
 154              	.LFE3:
 156              		.section	.text.stts751_temp_data_rate_set,"ax",%progbits
 157              		.align	1
 158              		.p2align 2,,3
 159              		.global	stts751_temp_data_rate_set
 160              		.syntax unified
 161              		.thumb
 162              		.thumb_func
 163              		.fpu fpv4-sp-d16
 165              	stts751_temp_data_rate_set:
 166              	.LVL9:
 167              	.LFB4:
 114:D:/fchai/work/i-cube/I-CUBE-HUAWEI/Drivers/BSP/Components/stts751\stts751_reg.c **** 
 115:D:/fchai/work/i-cube/I-CUBE-HUAWEI/Drivers/BSP/Components/stts751\stts751_reg.c **** /**
 116:D:/fchai/work/i-cube/I-CUBE-HUAWEI/Drivers/BSP/Components/stts751\stts751_reg.c ****   * @}
 117:D:/fchai/work/i-cube/I-CUBE-HUAWEI/Drivers/BSP/Components/stts751\stts751_reg.c ****   *
 118:D:/fchai/work/i-cube/I-CUBE-HUAWEI/Drivers/BSP/Components/stts751\stts751_reg.c ****   */
 119:D:/fchai/work/i-cube/I-CUBE-HUAWEI/Drivers/BSP/Components/stts751\stts751_reg.c **** 
 120:D:/fchai/work/i-cube/I-CUBE-HUAWEI/Drivers/BSP/Components/stts751\stts751_reg.c **** /**
ARM GAS  T:\msys\tmp\cc68iQTc.s 			page 6


 121:D:/fchai/work/i-cube/I-CUBE-HUAWEI/Drivers/BSP/Components/stts751\stts751_reg.c ****   * @defgroup  STTS751_Data_Generation
 122:D:/fchai/work/i-cube/I-CUBE-HUAWEI/Drivers/BSP/Components/stts751\stts751_reg.c ****   * @brief     This section groups all the functions concerning
 123:D:/fchai/work/i-cube/I-CUBE-HUAWEI/Drivers/BSP/Components/stts751\stts751_reg.c ****   *            data generation
 124:D:/fchai/work/i-cube/I-CUBE-HUAWEI/Drivers/BSP/Components/stts751\stts751_reg.c ****   * @{
 125:D:/fchai/work/i-cube/I-CUBE-HUAWEI/Drivers/BSP/Components/stts751\stts751_reg.c ****   *
 126:D:/fchai/work/i-cube/I-CUBE-HUAWEI/Drivers/BSP/Components/stts751\stts751_reg.c ****   */
 127:D:/fchai/work/i-cube/I-CUBE-HUAWEI/Drivers/BSP/Components/stts751\stts751_reg.c **** 
 128:D:/fchai/work/i-cube/I-CUBE-HUAWEI/Drivers/BSP/Components/stts751\stts751_reg.c **** /**
 129:D:/fchai/work/i-cube/I-CUBE-HUAWEI/Drivers/BSP/Components/stts751\stts751_reg.c ****   * @brief  Temperature sensor data rate selection.[set]
 130:D:/fchai/work/i-cube/I-CUBE-HUAWEI/Drivers/BSP/Components/stts751\stts751_reg.c ****   *
 131:D:/fchai/work/i-cube/I-CUBE-HUAWEI/Drivers/BSP/Components/stts751\stts751_reg.c ****   * @param  ctx      read / write interface definitions
 132:D:/fchai/work/i-cube/I-CUBE-HUAWEI/Drivers/BSP/Components/stts751\stts751_reg.c ****   * @param  val      change the sensor data rate
 133:D:/fchai/work/i-cube/I-CUBE-HUAWEI/Drivers/BSP/Components/stts751\stts751_reg.c ****   * @retval          interface status (MANDATORY: return 0 -> no Error)
 134:D:/fchai/work/i-cube/I-CUBE-HUAWEI/Drivers/BSP/Components/stts751\stts751_reg.c ****   *
 135:D:/fchai/work/i-cube/I-CUBE-HUAWEI/Drivers/BSP/Components/stts751\stts751_reg.c ****   */
 136:D:/fchai/work/i-cube/I-CUBE-HUAWEI/Drivers/BSP/Components/stts751\stts751_reg.c **** int32_t stts751_temp_data_rate_set(stmdev_ctx_t *ctx, stts751_odr_t val)
 137:D:/fchai/work/i-cube/I-CUBE-HUAWEI/Drivers/BSP/Components/stts751\stts751_reg.c **** {
 168              		.loc 1 137 1 is_stmt 1 view -0
 169              		.cfi_startproc
 170              		@ args = 0, pretend = 0, frame = 8
 171              		@ frame_needed = 0, uses_anonymous_args = 0
 138:D:/fchai/work/i-cube/I-CUBE-HUAWEI/Drivers/BSP/Components/stts751\stts751_reg.c ****   stts751_configuration_t configuration;
 172              		.loc 1 138 3 view .LVU27
 139:D:/fchai/work/i-cube/I-CUBE-HUAWEI/Drivers/BSP/Components/stts751\stts751_reg.c ****   stts751_conversion_rate_t conversion_rate;
 173              		.loc 1 139 3 view .LVU28
 140:D:/fchai/work/i-cube/I-CUBE-HUAWEI/Drivers/BSP/Components/stts751\stts751_reg.c ****   uint8_t dummy_value = 0xAA;
 174              		.loc 1 140 3 view .LVU29
 137:D:/fchai/work/i-cube/I-CUBE-HUAWEI/Drivers/BSP/Components/stts751\stts751_reg.c ****   stts751_configuration_t configuration;
 175              		.loc 1 137 1 is_stmt 0 view .LVU30
 176 0000 70B5     		push	{r4, r5, r6, lr}
 177              	.LCFI4:
 178              		.cfi_def_cfa_offset 16
 179              		.cfi_offset 4, -16
 180              		.cfi_offset 5, -12
 181              		.cfi_offset 6, -8
 182              		.cfi_offset 14, -4
 183 0002 82B0     		sub	sp, sp, #8
 184              	.LCFI5:
 185              		.cfi_def_cfa_offset 24
 186              		.loc 1 140 11 view .LVU31
 187 0004 AA23     		movs	r3, #170
 137:D:/fchai/work/i-cube/I-CUBE-HUAWEI/Drivers/BSP/Components/stts751\stts751_reg.c ****   stts751_configuration_t configuration;
 188              		.loc 1 137 1 view .LVU32
 189 0006 0446     		mov	r4, r0
 190 0008 0D46     		mov	r5, r1
 191              		.loc 1 140 11 view .LVU33
 192 000a 8DF80730 		strb	r3, [sp, #7]
 141:D:/fchai/work/i-cube/I-CUBE-HUAWEI/Drivers/BSP/Components/stts751\stts751_reg.c ****   int32_t ret;
 193              		.loc 1 141 3 is_stmt 1 view .LVU34
 142:D:/fchai/work/i-cube/I-CUBE-HUAWEI/Drivers/BSP/Components/stts751\stts751_reg.c **** 
 143:D:/fchai/work/i-cube/I-CUBE-HUAWEI/Drivers/BSP/Components/stts751\stts751_reg.c ****   ret = stts751_read_reg(ctx, STTS751_CONVERSION_RATE,
 194              		.loc 1 143 3 view .LVU35
 195              	.LVL10:
 196              	.LBB72:
 197              	.LBI72:
  49:D:/fchai/work/i-cube/I-CUBE-HUAWEI/Drivers/BSP/Components/stts751\stts751_reg.c ****                           uint16_t len)
 198              		.loc 1 49 9 view .LVU36
ARM GAS  T:\msys\tmp\cc68iQTc.s 			page 7


 199              	.LBB73:
  52:D:/fchai/work/i-cube/I-CUBE-HUAWEI/Drivers/BSP/Components/stts751\stts751_reg.c ****   ret = ctx->read_reg(ctx->handle, reg, data, len);
 200              		.loc 1 52 3 view .LVU37
  53:D:/fchai/work/i-cube/I-CUBE-HUAWEI/Drivers/BSP/Components/stts751\stts751_reg.c ****   return ret;
 201              		.loc 1 53 3 view .LVU38
  53:D:/fchai/work/i-cube/I-CUBE-HUAWEI/Drivers/BSP/Components/stts751\stts751_reg.c ****   return ret;
 202              		.loc 1 53 9 is_stmt 0 view .LVU39
 203 000e D0E90160 		ldrd	r6, r0, [r0, #4]
 204              	.LVL11:
  53:D:/fchai/work/i-cube/I-CUBE-HUAWEI/Drivers/BSP/Components/stts751\stts751_reg.c ****   return ret;
 205              		.loc 1 53 9 view .LVU40
 206 0012 01AA     		add	r2, sp, #4
 207              	.LVL12:
  53:D:/fchai/work/i-cube/I-CUBE-HUAWEI/Drivers/BSP/Components/stts751\stts751_reg.c ****   return ret;
 208              		.loc 1 53 9 view .LVU41
 209 0014 0123     		movs	r3, #1
 210 0016 0421     		movs	r1, #4
 211              	.LVL13:
  53:D:/fchai/work/i-cube/I-CUBE-HUAWEI/Drivers/BSP/Components/stts751\stts751_reg.c ****   return ret;
 212              		.loc 1 53 9 view .LVU42
 213 0018 B047     		blx	r6
 214              	.LVL14:
  54:D:/fchai/work/i-cube/I-CUBE-HUAWEI/Drivers/BSP/Components/stts751\stts751_reg.c **** }
 215              		.loc 1 54 3 is_stmt 1 view .LVU43
  54:D:/fchai/work/i-cube/I-CUBE-HUAWEI/Drivers/BSP/Components/stts751\stts751_reg.c **** }
 216              		.loc 1 54 3 is_stmt 0 view .LVU44
 217              	.LBE73:
 218              	.LBE72:
 144:D:/fchai/work/i-cube/I-CUBE-HUAWEI/Drivers/BSP/Components/stts751\stts751_reg.c ****                          (uint8_t*)&conversion_rate, 1);
 145:D:/fchai/work/i-cube/I-CUBE-HUAWEI/Drivers/BSP/Components/stts751\stts751_reg.c ****   if (ret == 0) {
 219              		.loc 1 145 3 is_stmt 1 view .LVU45
 220              		.loc 1 145 6 is_stmt 0 view .LVU46
 221 001a 18BB     		cbnz	r0, .L8
 146:D:/fchai/work/i-cube/I-CUBE-HUAWEI/Drivers/BSP/Components/stts751\stts751_reg.c ****     conversion_rate.conv = (uint8_t)val & 0x0FU;
 222              		.loc 1 146 5 is_stmt 1 view .LVU47
 223              		.loc 1 146 26 is_stmt 0 view .LVU48
 224 001c 9DF80430 		ldrb	r3, [sp, #4]	@ zero_extendqisi2
 225              	.LBB74:
 226              	.LBB75:
  71:D:/fchai/work/i-cube/I-CUBE-HUAWEI/Drivers/BSP/Components/stts751\stts751_reg.c ****   return ret;
 227              		.loc 1 71 9 view .LVU49
 228 0020 2668     		ldr	r6, [r4]
 229 0022 A068     		ldr	r0, [r4, #8]
 230              	.LVL15:
  71:D:/fchai/work/i-cube/I-CUBE-HUAWEI/Drivers/BSP/Components/stts751\stts751_reg.c ****   return ret;
 231              		.loc 1 71 9 view .LVU50
 232              	.LBE75:
 233              	.LBE74:
 234              		.loc 1 146 26 view .LVU51
 235 0024 65F30303 		bfi	r3, r5, #0, #4
 236 0028 8DF80430 		strb	r3, [sp, #4]
 147:D:/fchai/work/i-cube/I-CUBE-HUAWEI/Drivers/BSP/Components/stts751\stts751_reg.c ****     ret = stts751_write_reg(ctx, STTS751_CONVERSION_RATE,
 237              		.loc 1 147 5 is_stmt 1 view .LVU52
 238              	.LVL16:
 239              	.LBB77:
 240              	.LBI74:
  67:D:/fchai/work/i-cube/I-CUBE-HUAWEI/Drivers/BSP/Components/stts751\stts751_reg.c ****                            uint16_t len)
ARM GAS  T:\msys\tmp\cc68iQTc.s 			page 8


 241              		.loc 1 67 9 view .LVU53
 242              	.LBB76:
  70:D:/fchai/work/i-cube/I-CUBE-HUAWEI/Drivers/BSP/Components/stts751\stts751_reg.c ****   ret = ctx->write_reg(ctx->handle, reg, data, len);
 243              		.loc 1 70 3 view .LVU54
  71:D:/fchai/work/i-cube/I-CUBE-HUAWEI/Drivers/BSP/Components/stts751\stts751_reg.c ****   return ret;
 244              		.loc 1 71 3 view .LVU55
  71:D:/fchai/work/i-cube/I-CUBE-HUAWEI/Drivers/BSP/Components/stts751\stts751_reg.c ****   return ret;
 245              		.loc 1 71 9 is_stmt 0 view .LVU56
 246 002c 01AA     		add	r2, sp, #4
 247              	.LVL17:
  71:D:/fchai/work/i-cube/I-CUBE-HUAWEI/Drivers/BSP/Components/stts751\stts751_reg.c ****   return ret;
 248              		.loc 1 71 9 view .LVU57
 249 002e 0123     		movs	r3, #1
 250 0030 0421     		movs	r1, #4
 251 0032 B047     		blx	r6
 252              	.LVL18:
  72:D:/fchai/work/i-cube/I-CUBE-HUAWEI/Drivers/BSP/Components/stts751\stts751_reg.c **** }
 253              		.loc 1 72 3 is_stmt 1 view .LVU58
  72:D:/fchai/work/i-cube/I-CUBE-HUAWEI/Drivers/BSP/Components/stts751\stts751_reg.c **** }
 254              		.loc 1 72 3 is_stmt 0 view .LVU59
 255              	.LBE76:
 256              	.LBE77:
 148:D:/fchai/work/i-cube/I-CUBE-HUAWEI/Drivers/BSP/Components/stts751\stts751_reg.c ****                             (uint8_t*)&conversion_rate, 1);
 149:D:/fchai/work/i-cube/I-CUBE-HUAWEI/Drivers/BSP/Components/stts751\stts751_reg.c ****   }
 150:D:/fchai/work/i-cube/I-CUBE-HUAWEI/Drivers/BSP/Components/stts751\stts751_reg.c ****   if (ret == 0) {
 257              		.loc 1 150 3 is_stmt 1 view .LVU60
 258              		.loc 1 150 6 is_stmt 0 view .LVU61
 259 0034 B0B9     		cbnz	r0, .L8
 151:D:/fchai/work/i-cube/I-CUBE-HUAWEI/Drivers/BSP/Components/stts751\stts751_reg.c ****     ret = stts751_read_reg(ctx, STTS751_CONFIGURATION,
 260              		.loc 1 151 5 is_stmt 1 view .LVU62
 261              	.LVL19:
 262              	.LBB78:
 263              	.LBI78:
  49:D:/fchai/work/i-cube/I-CUBE-HUAWEI/Drivers/BSP/Components/stts751\stts751_reg.c ****                           uint16_t len)
 264              		.loc 1 49 9 view .LVU63
 265              	.LBB79:
  52:D:/fchai/work/i-cube/I-CUBE-HUAWEI/Drivers/BSP/Components/stts751\stts751_reg.c ****   ret = ctx->read_reg(ctx->handle, reg, data, len);
 266              		.loc 1 52 3 view .LVU64
  53:D:/fchai/work/i-cube/I-CUBE-HUAWEI/Drivers/BSP/Components/stts751\stts751_reg.c ****   return ret;
 267              		.loc 1 53 3 view .LVU65
  53:D:/fchai/work/i-cube/I-CUBE-HUAWEI/Drivers/BSP/Components/stts751\stts751_reg.c ****   return ret;
 268              		.loc 1 53 9 is_stmt 0 view .LVU66
 269 0036 D4E90160 		ldrd	r6, r0, [r4, #4]
 270              	.LVL20:
  53:D:/fchai/work/i-cube/I-CUBE-HUAWEI/Drivers/BSP/Components/stts751\stts751_reg.c ****   return ret;
 271              		.loc 1 53 9 view .LVU67
 272 003a 6A46     		mov	r2, sp
 273 003c 0123     		movs	r3, #1
 274 003e 0321     		movs	r1, #3
 275 0040 B047     		blx	r6
 276              	.LVL21:
  54:D:/fchai/work/i-cube/I-CUBE-HUAWEI/Drivers/BSP/Components/stts751\stts751_reg.c **** }
 277              		.loc 1 54 3 is_stmt 1 view .LVU68
  54:D:/fchai/work/i-cube/I-CUBE-HUAWEI/Drivers/BSP/Components/stts751\stts751_reg.c **** }
 278              		.loc 1 54 3 is_stmt 0 view .LVU69
 279              	.LBE79:
 280              	.LBE78:
ARM GAS  T:\msys\tmp\cc68iQTc.s 			page 9


 152:D:/fchai/work/i-cube/I-CUBE-HUAWEI/Drivers/BSP/Components/stts751\stts751_reg.c ****                            (uint8_t*)&configuration, 1);
 153:D:/fchai/work/i-cube/I-CUBE-HUAWEI/Drivers/BSP/Components/stts751\stts751_reg.c ****   }
 154:D:/fchai/work/i-cube/I-CUBE-HUAWEI/Drivers/BSP/Components/stts751\stts751_reg.c ****   if (ret == 0) {
 281              		.loc 1 154 3 is_stmt 1 view .LVU70
 282              		.loc 1 154 6 is_stmt 0 view .LVU71
 283 0042 78B9     		cbnz	r0, .L8
 155:D:/fchai/work/i-cube/I-CUBE-HUAWEI/Drivers/BSP/Components/stts751\stts751_reg.c ****     configuration.stop = ((uint8_t)val & 0x80U) >> 7;
 284              		.loc 1 155 5 is_stmt 1 view .LVU72
 285              		.loc 1 155 24 is_stmt 0 view .LVU73
 286 0044 9DF80030 		ldrb	r3, [sp]	@ zero_extendqisi2
 287              	.LBB80:
 288              	.LBB81:
  71:D:/fchai/work/i-cube/I-CUBE-HUAWEI/Drivers/BSP/Components/stts751\stts751_reg.c ****   return ret;
 289              		.loc 1 71 9 view .LVU74
 290 0048 2668     		ldr	r6, [r4]
 291 004a A068     		ldr	r0, [r4, #8]
 292              	.LVL22:
  71:D:/fchai/work/i-cube/I-CUBE-HUAWEI/Drivers/BSP/Components/stts751\stts751_reg.c ****   return ret;
 293              		.loc 1 71 9 view .LVU75
 294              	.LBE81:
 295              	.LBE80:
 296              		.loc 1 155 49 view .LVU76
 297 004c EA09     		lsrs	r2, r5, #7
 298              		.loc 1 155 24 view .LVU77
 299 004e 62F38613 		bfi	r3, r2, #6, #1
 300 0052 8DF80030 		strb	r3, [sp]
 156:D:/fchai/work/i-cube/I-CUBE-HUAWEI/Drivers/BSP/Components/stts751\stts751_reg.c ****     ret = stts751_write_reg(ctx, STTS751_CONFIGURATION,
 301              		.loc 1 156 5 is_stmt 1 view .LVU78
 302              	.LVL23:
 303              	.LBB83:
 304              	.LBI80:
  67:D:/fchai/work/i-cube/I-CUBE-HUAWEI/Drivers/BSP/Components/stts751\stts751_reg.c ****                            uint16_t len)
 305              		.loc 1 67 9 view .LVU79
 306              	.LBB82:
  70:D:/fchai/work/i-cube/I-CUBE-HUAWEI/Drivers/BSP/Components/stts751\stts751_reg.c ****   ret = ctx->write_reg(ctx->handle, reg, data, len);
 307              		.loc 1 70 3 view .LVU80
  71:D:/fchai/work/i-cube/I-CUBE-HUAWEI/Drivers/BSP/Components/stts751\stts751_reg.c ****   return ret;
 308              		.loc 1 71 3 view .LVU81
  71:D:/fchai/work/i-cube/I-CUBE-HUAWEI/Drivers/BSP/Components/stts751\stts751_reg.c ****   return ret;
 309              		.loc 1 71 9 is_stmt 0 view .LVU82
 310 0056 6A46     		mov	r2, sp
 311 0058 0123     		movs	r3, #1
 312 005a 0321     		movs	r1, #3
 313 005c B047     		blx	r6
 314              	.LVL24:
  72:D:/fchai/work/i-cube/I-CUBE-HUAWEI/Drivers/BSP/Components/stts751\stts751_reg.c **** }
 315              		.loc 1 72 3 is_stmt 1 view .LVU83
  72:D:/fchai/work/i-cube/I-CUBE-HUAWEI/Drivers/BSP/Components/stts751\stts751_reg.c **** }
 316              		.loc 1 72 3 is_stmt 0 view .LVU84
 317              	.LBE82:
 318              	.LBE83:
 157:D:/fchai/work/i-cube/I-CUBE-HUAWEI/Drivers/BSP/Components/stts751\stts751_reg.c ****                             (uint8_t*)&configuration, 1);
 158:D:/fchai/work/i-cube/I-CUBE-HUAWEI/Drivers/BSP/Components/stts751\stts751_reg.c ****   }
 159:D:/fchai/work/i-cube/I-CUBE-HUAWEI/Drivers/BSP/Components/stts751\stts751_reg.c ****   if ((ret == 0) && (val == STTS751_TEMP_ODR_ONE_SHOT)) {
 319              		.loc 1 159 3 is_stmt 1 view .LVU85
 320              		.loc 1 159 6 is_stmt 0 view .LVU86
 321 005e 08B9     		cbnz	r0, .L8
ARM GAS  T:\msys\tmp\cc68iQTc.s 			page 10


 322              		.loc 1 159 18 discriminator 1 view .LVU87
 323 0060 902D     		cmp	r5, #144
 324 0062 01D0     		beq	.L11
 325              	.L8:
 160:D:/fchai/work/i-cube/I-CUBE-HUAWEI/Drivers/BSP/Components/stts751\stts751_reg.c ****     ret = stts751_write_reg(ctx, STTS751_ONE_SHOT, &dummy_value, 1);
 161:D:/fchai/work/i-cube/I-CUBE-HUAWEI/Drivers/BSP/Components/stts751\stts751_reg.c ****   }
 162:D:/fchai/work/i-cube/I-CUBE-HUAWEI/Drivers/BSP/Components/stts751\stts751_reg.c ****   return ret;
 163:D:/fchai/work/i-cube/I-CUBE-HUAWEI/Drivers/BSP/Components/stts751\stts751_reg.c **** }
 326              		.loc 1 163 1 view .LVU88
 327 0064 02B0     		add	sp, sp, #8
 328              	.LCFI6:
 329              		.cfi_remember_state
 330              		.cfi_def_cfa_offset 16
 331              		@ sp needed
 332 0066 70BD     		pop	{r4, r5, r6, pc}
 333              	.LVL25:
 334              	.L11:
 335              	.LCFI7:
 336              		.cfi_restore_state
 160:D:/fchai/work/i-cube/I-CUBE-HUAWEI/Drivers/BSP/Components/stts751\stts751_reg.c ****     ret = stts751_write_reg(ctx, STTS751_ONE_SHOT, &dummy_value, 1);
 337              		.loc 1 160 5 is_stmt 1 view .LVU89
 338              	.LBB84:
 339              	.LBI84:
  67:D:/fchai/work/i-cube/I-CUBE-HUAWEI/Drivers/BSP/Components/stts751\stts751_reg.c ****                            uint16_t len)
 340              		.loc 1 67 9 view .LVU90
 341              	.LBB85:
  70:D:/fchai/work/i-cube/I-CUBE-HUAWEI/Drivers/BSP/Components/stts751\stts751_reg.c ****   ret = ctx->write_reg(ctx->handle, reg, data, len);
 342              		.loc 1 70 3 view .LVU91
  71:D:/fchai/work/i-cube/I-CUBE-HUAWEI/Drivers/BSP/Components/stts751\stts751_reg.c ****   return ret;
 343              		.loc 1 71 3 view .LVU92
  71:D:/fchai/work/i-cube/I-CUBE-HUAWEI/Drivers/BSP/Components/stts751\stts751_reg.c ****   return ret;
 344              		.loc 1 71 9 is_stmt 0 view .LVU93
 345 0068 2568     		ldr	r5, [r4]
 346 006a A068     		ldr	r0, [r4, #8]
 347              	.LVL26:
  71:D:/fchai/work/i-cube/I-CUBE-HUAWEI/Drivers/BSP/Components/stts751\stts751_reg.c ****   return ret;
 348              		.loc 1 71 9 view .LVU94
 349 006c 0123     		movs	r3, #1
 350 006e 0DF10702 		add	r2, sp, #7
 351              	.LVL27:
  71:D:/fchai/work/i-cube/I-CUBE-HUAWEI/Drivers/BSP/Components/stts751\stts751_reg.c ****   return ret;
 352              		.loc 1 71 9 view .LVU95
 353 0072 0F21     		movs	r1, #15
 354 0074 A847     		blx	r5
 355              	.LVL28:
  72:D:/fchai/work/i-cube/I-CUBE-HUAWEI/Drivers/BSP/Components/stts751\stts751_reg.c **** }
 356              		.loc 1 72 3 is_stmt 1 view .LVU96
  72:D:/fchai/work/i-cube/I-CUBE-HUAWEI/Drivers/BSP/Components/stts751\stts751_reg.c **** }
 357              		.loc 1 72 3 is_stmt 0 view .LVU97
 358              	.LBE85:
 359              	.LBE84:
 162:D:/fchai/work/i-cube/I-CUBE-HUAWEI/Drivers/BSP/Components/stts751\stts751_reg.c **** }
 360              		.loc 1 162 3 is_stmt 1 view .LVU98
 361              		.loc 1 163 1 is_stmt 0 view .LVU99
 362 0076 02B0     		add	sp, sp, #8
 363              	.LCFI8:
 364              		.cfi_def_cfa_offset 16
ARM GAS  T:\msys\tmp\cc68iQTc.s 			page 11


 365              		@ sp needed
 366 0078 70BD     		pop	{r4, r5, r6, pc}
 367              		.loc 1 163 1 view .LVU100
 368              		.cfi_endproc
 369              	.LFE4:
 371 007a 00BF     		.section	.text.stts751_temp_data_rate_get,"ax",%progbits
 372              		.align	1
 373              		.p2align 2,,3
 374              		.global	stts751_temp_data_rate_get
 375              		.syntax unified
 376              		.thumb
 377              		.thumb_func
 378              		.fpu fpv4-sp-d16
 380              	stts751_temp_data_rate_get:
 381              	.LVL29:
 382              	.LFB5:
 164:D:/fchai/work/i-cube/I-CUBE-HUAWEI/Drivers/BSP/Components/stts751\stts751_reg.c **** 
 165:D:/fchai/work/i-cube/I-CUBE-HUAWEI/Drivers/BSP/Components/stts751\stts751_reg.c **** /**
 166:D:/fchai/work/i-cube/I-CUBE-HUAWEI/Drivers/BSP/Components/stts751\stts751_reg.c ****   * @brief  Temperature sensor data rate selection.[get]
 167:D:/fchai/work/i-cube/I-CUBE-HUAWEI/Drivers/BSP/Components/stts751\stts751_reg.c ****   *
 168:D:/fchai/work/i-cube/I-CUBE-HUAWEI/Drivers/BSP/Components/stts751\stts751_reg.c ****   * @param  ctx      read / write interface definitions
 169:D:/fchai/work/i-cube/I-CUBE-HUAWEI/Drivers/BSP/Components/stts751\stts751_reg.c ****   * @param  val      Get the sensor data rate
 170:D:/fchai/work/i-cube/I-CUBE-HUAWEI/Drivers/BSP/Components/stts751\stts751_reg.c ****   * @retval          interface status (MANDATORY: return 0 -> no Error)
 171:D:/fchai/work/i-cube/I-CUBE-HUAWEI/Drivers/BSP/Components/stts751\stts751_reg.c ****   *
 172:D:/fchai/work/i-cube/I-CUBE-HUAWEI/Drivers/BSP/Components/stts751\stts751_reg.c ****   */
 173:D:/fchai/work/i-cube/I-CUBE-HUAWEI/Drivers/BSP/Components/stts751\stts751_reg.c **** int32_t stts751_temp_data_rate_get(stmdev_ctx_t *ctx, stts751_odr_t *val)
 174:D:/fchai/work/i-cube/I-CUBE-HUAWEI/Drivers/BSP/Components/stts751\stts751_reg.c **** {
 383              		.loc 1 174 1 is_stmt 1 view -0
 384              		.cfi_startproc
 385              		@ args = 0, pretend = 0, frame = 8
 386              		@ frame_needed = 0, uses_anonymous_args = 0
 175:D:/fchai/work/i-cube/I-CUBE-HUAWEI/Drivers/BSP/Components/stts751\stts751_reg.c ****   stts751_conversion_rate_t conversion_rate;
 387              		.loc 1 175 3 view .LVU102
 176:D:/fchai/work/i-cube/I-CUBE-HUAWEI/Drivers/BSP/Components/stts751\stts751_reg.c ****   stts751_configuration_t configuration;
 388              		.loc 1 176 3 view .LVU103
 177:D:/fchai/work/i-cube/I-CUBE-HUAWEI/Drivers/BSP/Components/stts751\stts751_reg.c ****   int32_t ret;
 389              		.loc 1 177 3 view .LVU104
 178:D:/fchai/work/i-cube/I-CUBE-HUAWEI/Drivers/BSP/Components/stts751\stts751_reg.c **** 
 179:D:/fchai/work/i-cube/I-CUBE-HUAWEI/Drivers/BSP/Components/stts751\stts751_reg.c ****   ret = stts751_read_reg(ctx, STTS751_CONVERSION_RATE,
 390              		.loc 1 179 3 view .LVU105
 174:D:/fchai/work/i-cube/I-CUBE-HUAWEI/Drivers/BSP/Components/stts751\stts751_reg.c ****   stts751_conversion_rate_t conversion_rate;
 391              		.loc 1 174 1 is_stmt 0 view .LVU106
 392 0000 70B5     		push	{r4, r5, r6, lr}
 393              	.LCFI9:
 394              		.cfi_def_cfa_offset 16
 395              		.cfi_offset 4, -16
 396              		.cfi_offset 5, -12
 397              		.cfi_offset 6, -8
 398              		.cfi_offset 14, -4
 399 0002 82B0     		sub	sp, sp, #8
 400              	.LCFI10:
 401              		.cfi_def_cfa_offset 24
 174:D:/fchai/work/i-cube/I-CUBE-HUAWEI/Drivers/BSP/Components/stts751\stts751_reg.c ****   stts751_conversion_rate_t conversion_rate;
 402              		.loc 1 174 1 view .LVU107
 403 0004 0446     		mov	r4, r0
 404              	.LVL30:
 405              	.LBB86:
ARM GAS  T:\msys\tmp\cc68iQTc.s 			page 12


 406              	.LBI86:
  49:D:/fchai/work/i-cube/I-CUBE-HUAWEI/Drivers/BSP/Components/stts751\stts751_reg.c ****                           uint16_t len)
 407              		.loc 1 49 9 is_stmt 1 view .LVU108
 408              	.LBB87:
  52:D:/fchai/work/i-cube/I-CUBE-HUAWEI/Drivers/BSP/Components/stts751\stts751_reg.c ****   ret = ctx->read_reg(ctx->handle, reg, data, len);
 409              		.loc 1 52 3 view .LVU109
  53:D:/fchai/work/i-cube/I-CUBE-HUAWEI/Drivers/BSP/Components/stts751\stts751_reg.c ****   return ret;
 410              		.loc 1 53 3 view .LVU110
 411              	.LBE87:
 412              	.LBE86:
 174:D:/fchai/work/i-cube/I-CUBE-HUAWEI/Drivers/BSP/Components/stts751\stts751_reg.c ****   stts751_conversion_rate_t conversion_rate;
 413              		.loc 1 174 1 is_stmt 0 view .LVU111
 414 0006 0D46     		mov	r5, r1
 415              	.LBB89:
 416              	.LBB88:
  53:D:/fchai/work/i-cube/I-CUBE-HUAWEI/Drivers/BSP/Components/stts751\stts751_reg.c ****   return ret;
 417              		.loc 1 53 9 view .LVU112
 418 0008 D0E90160 		ldrd	r6, r0, [r0, #4]
 419              	.LVL31:
  53:D:/fchai/work/i-cube/I-CUBE-HUAWEI/Drivers/BSP/Components/stts751\stts751_reg.c ****   return ret;
 420              		.loc 1 53 9 view .LVU113
 421 000c 0123     		movs	r3, #1
 422 000e 6A46     		mov	r2, sp
 423 0010 0421     		movs	r1, #4
 424              	.LVL32:
  53:D:/fchai/work/i-cube/I-CUBE-HUAWEI/Drivers/BSP/Components/stts751\stts751_reg.c ****   return ret;
 425              		.loc 1 53 9 view .LVU114
 426 0012 B047     		blx	r6
 427              	.LVL33:
  54:D:/fchai/work/i-cube/I-CUBE-HUAWEI/Drivers/BSP/Components/stts751\stts751_reg.c **** }
 428              		.loc 1 54 3 is_stmt 1 view .LVU115
  54:D:/fchai/work/i-cube/I-CUBE-HUAWEI/Drivers/BSP/Components/stts751\stts751_reg.c **** }
 429              		.loc 1 54 3 is_stmt 0 view .LVU116
 430              	.LBE88:
 431              	.LBE89:
 180:D:/fchai/work/i-cube/I-CUBE-HUAWEI/Drivers/BSP/Components/stts751\stts751_reg.c ****                          (uint8_t*)&conversion_rate, 1);
 181:D:/fchai/work/i-cube/I-CUBE-HUAWEI/Drivers/BSP/Components/stts751\stts751_reg.c ****   if (ret == 0) {
 432              		.loc 1 181 3 is_stmt 1 view .LVU117
 433              		.loc 1 181 6 is_stmt 0 view .LVU118
 434 0014 28B9     		cbnz	r0, .L13
 182:D:/fchai/work/i-cube/I-CUBE-HUAWEI/Drivers/BSP/Components/stts751\stts751_reg.c ****     ret = stts751_read_reg(ctx, STTS751_CONFIGURATION,
 435              		.loc 1 182 5 is_stmt 1 view .LVU119
 436              	.LVL34:
 437              	.LBB90:
 438              	.LBI90:
  49:D:/fchai/work/i-cube/I-CUBE-HUAWEI/Drivers/BSP/Components/stts751\stts751_reg.c ****                           uint16_t len)
 439              		.loc 1 49 9 view .LVU120
 440              	.LBB91:
  52:D:/fchai/work/i-cube/I-CUBE-HUAWEI/Drivers/BSP/Components/stts751\stts751_reg.c ****   ret = ctx->read_reg(ctx->handle, reg, data, len);
 441              		.loc 1 52 3 view .LVU121
  53:D:/fchai/work/i-cube/I-CUBE-HUAWEI/Drivers/BSP/Components/stts751\stts751_reg.c ****   return ret;
 442              		.loc 1 53 3 view .LVU122
  53:D:/fchai/work/i-cube/I-CUBE-HUAWEI/Drivers/BSP/Components/stts751\stts751_reg.c ****   return ret;
 443              		.loc 1 53 9 is_stmt 0 view .LVU123
 444 0016 D4E90160 		ldrd	r6, r0, [r4, #4]
 445              	.LVL35:
  53:D:/fchai/work/i-cube/I-CUBE-HUAWEI/Drivers/BSP/Components/stts751\stts751_reg.c ****   return ret;
ARM GAS  T:\msys\tmp\cc68iQTc.s 			page 13


 446              		.loc 1 53 9 view .LVU124
 447 001a 0123     		movs	r3, #1
 448 001c 01AA     		add	r2, sp, #4
 449              	.LVL36:
  53:D:/fchai/work/i-cube/I-CUBE-HUAWEI/Drivers/BSP/Components/stts751\stts751_reg.c ****   return ret;
 450              		.loc 1 53 9 view .LVU125
 451 001e 0321     		movs	r1, #3
 452 0020 B047     		blx	r6
 453              	.LVL37:
  54:D:/fchai/work/i-cube/I-CUBE-HUAWEI/Drivers/BSP/Components/stts751\stts751_reg.c **** }
 454              		.loc 1 54 3 is_stmt 1 view .LVU126
 455              	.L13:
  54:D:/fchai/work/i-cube/I-CUBE-HUAWEI/Drivers/BSP/Components/stts751\stts751_reg.c **** }
 456              		.loc 1 54 3 is_stmt 0 view .LVU127
 457              	.LBE91:
 458              	.LBE90:
 183:D:/fchai/work/i-cube/I-CUBE-HUAWEI/Drivers/BSP/Components/stts751\stts751_reg.c ****                            (uint8_t*)&configuration, 1);
 184:D:/fchai/work/i-cube/I-CUBE-HUAWEI/Drivers/BSP/Components/stts751\stts751_reg.c ****   }
 185:D:/fchai/work/i-cube/I-CUBE-HUAWEI/Drivers/BSP/Components/stts751\stts751_reg.c ****   switch ( (configuration.stop << 7) + conversion_rate.conv) {
 459              		.loc 1 185 3 is_stmt 1 view .LVU128
 460              		.loc 1 185 26 is_stmt 0 view .LVU129
 461 0022 9DF80420 		ldrb	r2, [sp, #4]	@ zero_extendqisi2
 462              		.loc 1 185 55 view .LVU130
 463 0026 9DF80030 		ldrb	r3, [sp]	@ zero_extendqisi2
 464              		.loc 1 185 26 view .LVU131
 465 002a C2F38012 		ubfx	r2, r2, #6, #1
 466              		.loc 1 185 55 view .LVU132
 467 002e 03F00F03 		and	r3, r3, #15
 468              		.loc 1 185 38 view .LVU133
 469 0032 03EBC213 		add	r3, r3, r2, lsl #7
 470              		.loc 1 185 3 view .LVU134
 471 0036 092B     		cmp	r3, #9
 472 0038 09DC     		bgt	.L14
 473              		.loc 1 185 3 view .LVU135
 474 003a 013B     		subs	r3, r3, #1
 475 003c 082B     		cmp	r3, #8
 476 003e 2AD8     		bhi	.L15
 477 0040 DFE803F0 		tbb	[pc, r3]
 478              	.L17:
 479 0044 11       		.byte	(.L25-.L17)/2
 480 0045 14       		.byte	(.L24-.L17)/2
 481 0046 17       		.byte	(.L23-.L17)/2
 482 0047 1A       		.byte	(.L22-.L17)/2
 483 0048 1D       		.byte	(.L21-.L17)/2
 484 0049 20       		.byte	(.L20-.L17)/2
 485 004a 23       		.byte	(.L19-.L17)/2
 486 004b 0A       		.byte	(.L18-.L17)/2
 487 004c 0E       		.byte	(.L16-.L17)/2
 488 004d 00       		.p2align 1
 489              	.L14:
 490 004e 802B     		cmp	r3, #128
 491 0050 1ED1     		bne	.L26
 186:D:/fchai/work/i-cube/I-CUBE-HUAWEI/Drivers/BSP/Components/stts751\stts751_reg.c ****     case STTS751_TEMP_ODR_OFF:
 187:D:/fchai/work/i-cube/I-CUBE-HUAWEI/Drivers/BSP/Components/stts751\stts751_reg.c ****       *val = STTS751_TEMP_ODR_OFF;
 188:D:/fchai/work/i-cube/I-CUBE-HUAWEI/Drivers/BSP/Components/stts751\stts751_reg.c ****       break;
 189:D:/fchai/work/i-cube/I-CUBE-HUAWEI/Drivers/BSP/Components/stts751\stts751_reg.c ****     case STTS751_TEMP_ODR_ONE_SHOT:
 190:D:/fchai/work/i-cube/I-CUBE-HUAWEI/Drivers/BSP/Components/stts751\stts751_reg.c ****       *val = STTS751_TEMP_ODR_ONE_SHOT;
ARM GAS  T:\msys\tmp\cc68iQTc.s 			page 14


 191:D:/fchai/work/i-cube/I-CUBE-HUAWEI/Drivers/BSP/Components/stts751\stts751_reg.c ****       break;
 192:D:/fchai/work/i-cube/I-CUBE-HUAWEI/Drivers/BSP/Components/stts751\stts751_reg.c ****     case STTS751_TEMP_ODR_62mHz5:
 193:D:/fchai/work/i-cube/I-CUBE-HUAWEI/Drivers/BSP/Components/stts751\stts751_reg.c ****       *val = STTS751_TEMP_ODR_62mHz5;
 194:D:/fchai/work/i-cube/I-CUBE-HUAWEI/Drivers/BSP/Components/stts751\stts751_reg.c ****       break;
 195:D:/fchai/work/i-cube/I-CUBE-HUAWEI/Drivers/BSP/Components/stts751\stts751_reg.c ****     case STTS751_TEMP_ODR_125mHz:
 196:D:/fchai/work/i-cube/I-CUBE-HUAWEI/Drivers/BSP/Components/stts751\stts751_reg.c ****       *val = STTS751_TEMP_ODR_125mHz;
 197:D:/fchai/work/i-cube/I-CUBE-HUAWEI/Drivers/BSP/Components/stts751\stts751_reg.c ****       break;
 198:D:/fchai/work/i-cube/I-CUBE-HUAWEI/Drivers/BSP/Components/stts751\stts751_reg.c ****      case STTS751_TEMP_ODR_250mHz:
 199:D:/fchai/work/i-cube/I-CUBE-HUAWEI/Drivers/BSP/Components/stts751\stts751_reg.c ****       *val = STTS751_TEMP_ODR_250mHz;
 200:D:/fchai/work/i-cube/I-CUBE-HUAWEI/Drivers/BSP/Components/stts751\stts751_reg.c ****       break;
 201:D:/fchai/work/i-cube/I-CUBE-HUAWEI/Drivers/BSP/Components/stts751\stts751_reg.c ****     case STTS751_TEMP_ODR_500mHz:
 202:D:/fchai/work/i-cube/I-CUBE-HUAWEI/Drivers/BSP/Components/stts751\stts751_reg.c ****       *val = STTS751_TEMP_ODR_500mHz;
 203:D:/fchai/work/i-cube/I-CUBE-HUAWEI/Drivers/BSP/Components/stts751\stts751_reg.c ****       break;
 204:D:/fchai/work/i-cube/I-CUBE-HUAWEI/Drivers/BSP/Components/stts751\stts751_reg.c ****     case STTS751_TEMP_ODR_1Hz:
 205:D:/fchai/work/i-cube/I-CUBE-HUAWEI/Drivers/BSP/Components/stts751\stts751_reg.c ****       *val = STTS751_TEMP_ODR_1Hz;
 206:D:/fchai/work/i-cube/I-CUBE-HUAWEI/Drivers/BSP/Components/stts751\stts751_reg.c ****       break;
 207:D:/fchai/work/i-cube/I-CUBE-HUAWEI/Drivers/BSP/Components/stts751\stts751_reg.c ****     case STTS751_TEMP_ODR_2Hz:
 208:D:/fchai/work/i-cube/I-CUBE-HUAWEI/Drivers/BSP/Components/stts751\stts751_reg.c ****       *val = STTS751_TEMP_ODR_2Hz;
 209:D:/fchai/work/i-cube/I-CUBE-HUAWEI/Drivers/BSP/Components/stts751\stts751_reg.c ****       break;
 210:D:/fchai/work/i-cube/I-CUBE-HUAWEI/Drivers/BSP/Components/stts751\stts751_reg.c ****      case STTS751_TEMP_ODR_4Hz:
 211:D:/fchai/work/i-cube/I-CUBE-HUAWEI/Drivers/BSP/Components/stts751\stts751_reg.c ****       *val = STTS751_TEMP_ODR_4Hz;
 212:D:/fchai/work/i-cube/I-CUBE-HUAWEI/Drivers/BSP/Components/stts751\stts751_reg.c ****       break;
 213:D:/fchai/work/i-cube/I-CUBE-HUAWEI/Drivers/BSP/Components/stts751\stts751_reg.c ****     case STTS751_TEMP_ODR_8Hz:
 214:D:/fchai/work/i-cube/I-CUBE-HUAWEI/Drivers/BSP/Components/stts751\stts751_reg.c ****       *val = STTS751_TEMP_ODR_8Hz;
 215:D:/fchai/work/i-cube/I-CUBE-HUAWEI/Drivers/BSP/Components/stts751\stts751_reg.c ****       break;
 216:D:/fchai/work/i-cube/I-CUBE-HUAWEI/Drivers/BSP/Components/stts751\stts751_reg.c ****     case STTS751_TEMP_ODR_16Hz:
 217:D:/fchai/work/i-cube/I-CUBE-HUAWEI/Drivers/BSP/Components/stts751\stts751_reg.c ****       *val = STTS751_TEMP_ODR_16Hz;
 218:D:/fchai/work/i-cube/I-CUBE-HUAWEI/Drivers/BSP/Components/stts751\stts751_reg.c ****       break;
 219:D:/fchai/work/i-cube/I-CUBE-HUAWEI/Drivers/BSP/Components/stts751\stts751_reg.c ****     case STTS751_TEMP_ODR_32Hz:
 220:D:/fchai/work/i-cube/I-CUBE-HUAWEI/Drivers/BSP/Components/stts751\stts751_reg.c ****       *val = STTS751_TEMP_ODR_32Hz;
 221:D:/fchai/work/i-cube/I-CUBE-HUAWEI/Drivers/BSP/Components/stts751\stts751_reg.c ****       break;
 222:D:/fchai/work/i-cube/I-CUBE-HUAWEI/Drivers/BSP/Components/stts751\stts751_reg.c ****     default:
 223:D:/fchai/work/i-cube/I-CUBE-HUAWEI/Drivers/BSP/Components/stts751\stts751_reg.c ****       *val = STTS751_TEMP_ODR_OFF;
 492              		.loc 1 223 12 view .LVU136
 493 0052 2B70     		strb	r3, [r5]
 224:D:/fchai/work/i-cube/I-CUBE-HUAWEI/Drivers/BSP/Components/stts751\stts751_reg.c ****       break;
 494              		.loc 1 224 7 is_stmt 1 view .LVU137
 225:D:/fchai/work/i-cube/I-CUBE-HUAWEI/Drivers/BSP/Components/stts751\stts751_reg.c ****   }
 226:D:/fchai/work/i-cube/I-CUBE-HUAWEI/Drivers/BSP/Components/stts751\stts751_reg.c ****   return ret;
 495              		.loc 1 226 3 view .LVU138
 496              	.L30:
 227:D:/fchai/work/i-cube/I-CUBE-HUAWEI/Drivers/BSP/Components/stts751\stts751_reg.c **** }
 497              		.loc 1 227 1 is_stmt 0 view .LVU139
 498 0054 02B0     		add	sp, sp, #8
 499              	.LCFI11:
 500              		.cfi_remember_state
 501              		.cfi_def_cfa_offset 16
 502              		@ sp needed
 503 0056 70BD     		pop	{r4, r5, r6, pc}
 504              	.LVL38:
 505              	.L18:
 506              	.LCFI12:
 507              		.cfi_restore_state
 217:D:/fchai/work/i-cube/I-CUBE-HUAWEI/Drivers/BSP/Components/stts751\stts751_reg.c ****       break;
 508              		.loc 1 217 7 is_stmt 1 view .LVU140
 217:D:/fchai/work/i-cube/I-CUBE-HUAWEI/Drivers/BSP/Components/stts751\stts751_reg.c ****       break;
 509              		.loc 1 217 12 is_stmt 0 view .LVU141
ARM GAS  T:\msys\tmp\cc68iQTc.s 			page 15


 510 0058 0823     		movs	r3, #8
 511 005a 2B70     		strb	r3, [r5]
 218:D:/fchai/work/i-cube/I-CUBE-HUAWEI/Drivers/BSP/Components/stts751\stts751_reg.c ****     case STTS751_TEMP_ODR_32Hz:
 512              		.loc 1 218 7 is_stmt 1 view .LVU142
 513              	.L12:
 514              		.loc 1 227 1 is_stmt 0 view .LVU143
 515 005c 02B0     		add	sp, sp, #8
 516              	.LCFI13:
 517              		.cfi_remember_state
 518              		.cfi_def_cfa_offset 16
 519              		@ sp needed
 520 005e 70BD     		pop	{r4, r5, r6, pc}
 521              	.LVL39:
 522              	.L16:
 523              	.LCFI14:
 524              		.cfi_restore_state
 220:D:/fchai/work/i-cube/I-CUBE-HUAWEI/Drivers/BSP/Components/stts751\stts751_reg.c ****       break;
 525              		.loc 1 220 7 is_stmt 1 view .LVU144
 220:D:/fchai/work/i-cube/I-CUBE-HUAWEI/Drivers/BSP/Components/stts751\stts751_reg.c ****       break;
 526              		.loc 1 220 12 is_stmt 0 view .LVU145
 527 0060 0923     		movs	r3, #9
 528 0062 2B70     		strb	r3, [r5]
 221:D:/fchai/work/i-cube/I-CUBE-HUAWEI/Drivers/BSP/Components/stts751\stts751_reg.c ****     default:
 529              		.loc 1 221 7 is_stmt 1 view .LVU146
 530 0064 FAE7     		b	.L12
 531              	.L25:
 196:D:/fchai/work/i-cube/I-CUBE-HUAWEI/Drivers/BSP/Components/stts751\stts751_reg.c ****       break;
 532              		.loc 1 196 7 view .LVU147
 196:D:/fchai/work/i-cube/I-CUBE-HUAWEI/Drivers/BSP/Components/stts751\stts751_reg.c ****       break;
 533              		.loc 1 196 12 is_stmt 0 view .LVU148
 534 0066 0123     		movs	r3, #1
 535 0068 2B70     		strb	r3, [r5]
 197:D:/fchai/work/i-cube/I-CUBE-HUAWEI/Drivers/BSP/Components/stts751\stts751_reg.c ****      case STTS751_TEMP_ODR_250mHz:
 536              		.loc 1 197 7 is_stmt 1 view .LVU149
 537 006a F7E7     		b	.L12
 538              	.L24:
 199:D:/fchai/work/i-cube/I-CUBE-HUAWEI/Drivers/BSP/Components/stts751\stts751_reg.c ****       break;
 539              		.loc 1 199 7 view .LVU150
 199:D:/fchai/work/i-cube/I-CUBE-HUAWEI/Drivers/BSP/Components/stts751\stts751_reg.c ****       break;
 540              		.loc 1 199 12 is_stmt 0 view .LVU151
 541 006c 0223     		movs	r3, #2
 542 006e 2B70     		strb	r3, [r5]
 200:D:/fchai/work/i-cube/I-CUBE-HUAWEI/Drivers/BSP/Components/stts751\stts751_reg.c ****     case STTS751_TEMP_ODR_500mHz:
 543              		.loc 1 200 7 is_stmt 1 view .LVU152
 544 0070 F4E7     		b	.L12
 545              	.L23:
 202:D:/fchai/work/i-cube/I-CUBE-HUAWEI/Drivers/BSP/Components/stts751\stts751_reg.c ****       break;
 546              		.loc 1 202 7 view .LVU153
 202:D:/fchai/work/i-cube/I-CUBE-HUAWEI/Drivers/BSP/Components/stts751\stts751_reg.c ****       break;
 547              		.loc 1 202 12 is_stmt 0 view .LVU154
 548 0072 0323     		movs	r3, #3
 549 0074 2B70     		strb	r3, [r5]
 203:D:/fchai/work/i-cube/I-CUBE-HUAWEI/Drivers/BSP/Components/stts751\stts751_reg.c ****     case STTS751_TEMP_ODR_1Hz:
 550              		.loc 1 203 7 is_stmt 1 view .LVU155
 551 0076 F1E7     		b	.L12
 552              	.L22:
 205:D:/fchai/work/i-cube/I-CUBE-HUAWEI/Drivers/BSP/Components/stts751\stts751_reg.c ****       break;
ARM GAS  T:\msys\tmp\cc68iQTc.s 			page 16


 553              		.loc 1 205 7 view .LVU156
 205:D:/fchai/work/i-cube/I-CUBE-HUAWEI/Drivers/BSP/Components/stts751\stts751_reg.c ****       break;
 554              		.loc 1 205 12 is_stmt 0 view .LVU157
 555 0078 0423     		movs	r3, #4
 556 007a 2B70     		strb	r3, [r5]
 206:D:/fchai/work/i-cube/I-CUBE-HUAWEI/Drivers/BSP/Components/stts751\stts751_reg.c ****     case STTS751_TEMP_ODR_2Hz:
 557              		.loc 1 206 7 is_stmt 1 view .LVU158
 558 007c EEE7     		b	.L12
 559              	.L21:
 208:D:/fchai/work/i-cube/I-CUBE-HUAWEI/Drivers/BSP/Components/stts751\stts751_reg.c ****       break;
 560              		.loc 1 208 7 view .LVU159
 208:D:/fchai/work/i-cube/I-CUBE-HUAWEI/Drivers/BSP/Components/stts751\stts751_reg.c ****       break;
 561              		.loc 1 208 12 is_stmt 0 view .LVU160
 562 007e 0523     		movs	r3, #5
 563 0080 2B70     		strb	r3, [r5]
 209:D:/fchai/work/i-cube/I-CUBE-HUAWEI/Drivers/BSP/Components/stts751\stts751_reg.c ****      case STTS751_TEMP_ODR_4Hz:
 564              		.loc 1 209 7 is_stmt 1 view .LVU161
 565 0082 EBE7     		b	.L12
 566              	.L20:
 211:D:/fchai/work/i-cube/I-CUBE-HUAWEI/Drivers/BSP/Components/stts751\stts751_reg.c ****       break;
 567              		.loc 1 211 7 view .LVU162
 211:D:/fchai/work/i-cube/I-CUBE-HUAWEI/Drivers/BSP/Components/stts751\stts751_reg.c ****       break;
 568              		.loc 1 211 12 is_stmt 0 view .LVU163
 569 0084 0623     		movs	r3, #6
 570 0086 2B70     		strb	r3, [r5]
 212:D:/fchai/work/i-cube/I-CUBE-HUAWEI/Drivers/BSP/Components/stts751\stts751_reg.c ****     case STTS751_TEMP_ODR_8Hz:
 571              		.loc 1 212 7 is_stmt 1 view .LVU164
 572 0088 E8E7     		b	.L12
 573              	.L19:
 214:D:/fchai/work/i-cube/I-CUBE-HUAWEI/Drivers/BSP/Components/stts751\stts751_reg.c ****       break;
 574              		.loc 1 214 7 view .LVU165
 214:D:/fchai/work/i-cube/I-CUBE-HUAWEI/Drivers/BSP/Components/stts751\stts751_reg.c ****       break;
 575              		.loc 1 214 12 is_stmt 0 view .LVU166
 576 008a 0723     		movs	r3, #7
 577 008c 2B70     		strb	r3, [r5]
 215:D:/fchai/work/i-cube/I-CUBE-HUAWEI/Drivers/BSP/Components/stts751\stts751_reg.c ****     case STTS751_TEMP_ODR_16Hz:
 578              		.loc 1 215 7 is_stmt 1 view .LVU167
 579 008e E5E7     		b	.L12
 580              	.L26:
 223:D:/fchai/work/i-cube/I-CUBE-HUAWEI/Drivers/BSP/Components/stts751\stts751_reg.c ****       break;
 581              		.loc 1 223 7 view .LVU168
 223:D:/fchai/work/i-cube/I-CUBE-HUAWEI/Drivers/BSP/Components/stts751\stts751_reg.c ****       break;
 582              		.loc 1 223 12 is_stmt 0 view .LVU169
 583 0090 8023     		movs	r3, #128
 584 0092 2B70     		strb	r3, [r5]
 224:D:/fchai/work/i-cube/I-CUBE-HUAWEI/Drivers/BSP/Components/stts751\stts751_reg.c ****   }
 585              		.loc 1 224 7 is_stmt 1 view .LVU170
 226:D:/fchai/work/i-cube/I-CUBE-HUAWEI/Drivers/BSP/Components/stts751\stts751_reg.c **** }
 586              		.loc 1 226 3 view .LVU171
 587 0094 DEE7     		b	.L30
 588              	.L15:
 193:D:/fchai/work/i-cube/I-CUBE-HUAWEI/Drivers/BSP/Components/stts751\stts751_reg.c ****       break;
 589              		.loc 1 193 7 view .LVU172
 193:D:/fchai/work/i-cube/I-CUBE-HUAWEI/Drivers/BSP/Components/stts751\stts751_reg.c ****       break;
 590              		.loc 1 193 12 is_stmt 0 view .LVU173
 591 0096 0023     		movs	r3, #0
 592 0098 2B70     		strb	r3, [r5]
ARM GAS  T:\msys\tmp\cc68iQTc.s 			page 17


 194:D:/fchai/work/i-cube/I-CUBE-HUAWEI/Drivers/BSP/Components/stts751\stts751_reg.c ****     case STTS751_TEMP_ODR_125mHz:
 593              		.loc 1 194 7 is_stmt 1 view .LVU174
 594 009a DFE7     		b	.L12
 595              		.cfi_endproc
 596              	.LFE5:
 598              		.section	.text.stts751_resolution_set,"ax",%progbits
 599              		.align	1
 600              		.p2align 2,,3
 601              		.global	stts751_resolution_set
 602              		.syntax unified
 603              		.thumb
 604              		.thumb_func
 605              		.fpu fpv4-sp-d16
 607              	stts751_resolution_set:
 608              	.LVL40:
 609              	.LFB6:
 228:D:/fchai/work/i-cube/I-CUBE-HUAWEI/Drivers/BSP/Components/stts751\stts751_reg.c **** 
 229:D:/fchai/work/i-cube/I-CUBE-HUAWEI/Drivers/BSP/Components/stts751\stts751_reg.c **** /**
 230:D:/fchai/work/i-cube/I-CUBE-HUAWEI/Drivers/BSP/Components/stts751\stts751_reg.c ****   * @brief  Temperature sensor resolution selection.[set]
 231:D:/fchai/work/i-cube/I-CUBE-HUAWEI/Drivers/BSP/Components/stts751\stts751_reg.c ****   *
 232:D:/fchai/work/i-cube/I-CUBE-HUAWEI/Drivers/BSP/Components/stts751\stts751_reg.c ****   * @param  ctx      read / write interface definitions
 233:D:/fchai/work/i-cube/I-CUBE-HUAWEI/Drivers/BSP/Components/stts751\stts751_reg.c ****   * @param  val      change the values of tres in reg CONFIGURATION
 234:D:/fchai/work/i-cube/I-CUBE-HUAWEI/Drivers/BSP/Components/stts751\stts751_reg.c ****   * @retval          interface status (MANDATORY: return 0 -> no Error)
 235:D:/fchai/work/i-cube/I-CUBE-HUAWEI/Drivers/BSP/Components/stts751\stts751_reg.c ****   *
 236:D:/fchai/work/i-cube/I-CUBE-HUAWEI/Drivers/BSP/Components/stts751\stts751_reg.c ****   */
 237:D:/fchai/work/i-cube/I-CUBE-HUAWEI/Drivers/BSP/Components/stts751\stts751_reg.c **** int32_t stts751_resolution_set(stmdev_ctx_t *ctx, stts751_tres_t val)
 238:D:/fchai/work/i-cube/I-CUBE-HUAWEI/Drivers/BSP/Components/stts751\stts751_reg.c **** {
 610              		.loc 1 238 1 view -0
 611              		.cfi_startproc
 612              		@ args = 0, pretend = 0, frame = 8
 613              		@ frame_needed = 0, uses_anonymous_args = 0
 239:D:/fchai/work/i-cube/I-CUBE-HUAWEI/Drivers/BSP/Components/stts751\stts751_reg.c ****   stts751_configuration_t reg;
 614              		.loc 1 239 3 view .LVU176
 240:D:/fchai/work/i-cube/I-CUBE-HUAWEI/Drivers/BSP/Components/stts751\stts751_reg.c ****   int32_t ret;
 615              		.loc 1 240 3 view .LVU177
 241:D:/fchai/work/i-cube/I-CUBE-HUAWEI/Drivers/BSP/Components/stts751\stts751_reg.c **** 
 242:D:/fchai/work/i-cube/I-CUBE-HUAWEI/Drivers/BSP/Components/stts751\stts751_reg.c ****   ret = stts751_read_reg(ctx, STTS751_CONFIGURATION,(uint8_t*) &reg, 1);
 616              		.loc 1 242 3 view .LVU178
 238:D:/fchai/work/i-cube/I-CUBE-HUAWEI/Drivers/BSP/Components/stts751\stts751_reg.c ****   stts751_configuration_t reg;
 617              		.loc 1 238 1 is_stmt 0 view .LVU179
 618 0000 70B5     		push	{r4, r5, r6, lr}
 619              	.LCFI15:
 620              		.cfi_def_cfa_offset 16
 621              		.cfi_offset 4, -16
 622              		.cfi_offset 5, -12
 623              		.cfi_offset 6, -8
 624              		.cfi_offset 14, -4
 625 0002 82B0     		sub	sp, sp, #8
 626              	.LCFI16:
 627              		.cfi_def_cfa_offset 24
 238:D:/fchai/work/i-cube/I-CUBE-HUAWEI/Drivers/BSP/Components/stts751\stts751_reg.c ****   stts751_configuration_t reg;
 628              		.loc 1 238 1 view .LVU180
 629 0004 0446     		mov	r4, r0
 630              	.LVL41:
 631              	.LBB92:
 632              	.LBI92:
  49:D:/fchai/work/i-cube/I-CUBE-HUAWEI/Drivers/BSP/Components/stts751\stts751_reg.c ****                           uint16_t len)
ARM GAS  T:\msys\tmp\cc68iQTc.s 			page 18


 633              		.loc 1 49 9 is_stmt 1 view .LVU181
 634              	.LBB93:
  52:D:/fchai/work/i-cube/I-CUBE-HUAWEI/Drivers/BSP/Components/stts751\stts751_reg.c ****   ret = ctx->read_reg(ctx->handle, reg, data, len);
 635              		.loc 1 52 3 view .LVU182
  53:D:/fchai/work/i-cube/I-CUBE-HUAWEI/Drivers/BSP/Components/stts751\stts751_reg.c ****   return ret;
 636              		.loc 1 53 3 view .LVU183
 637              	.LBE93:
 638              	.LBE92:
 238:D:/fchai/work/i-cube/I-CUBE-HUAWEI/Drivers/BSP/Components/stts751\stts751_reg.c ****   stts751_configuration_t reg;
 639              		.loc 1 238 1 is_stmt 0 view .LVU184
 640 0006 0D46     		mov	r5, r1
 641              	.LBB95:
 642              	.LBB94:
  53:D:/fchai/work/i-cube/I-CUBE-HUAWEI/Drivers/BSP/Components/stts751\stts751_reg.c ****   return ret;
 643              		.loc 1 53 9 view .LVU185
 644 0008 D0E90160 		ldrd	r6, r0, [r0, #4]
 645              	.LVL42:
  53:D:/fchai/work/i-cube/I-CUBE-HUAWEI/Drivers/BSP/Components/stts751\stts751_reg.c ****   return ret;
 646              		.loc 1 53 9 view .LVU186
 647 000c 01AA     		add	r2, sp, #4
 648              	.LVL43:
  53:D:/fchai/work/i-cube/I-CUBE-HUAWEI/Drivers/BSP/Components/stts751\stts751_reg.c ****   return ret;
 649              		.loc 1 53 9 view .LVU187
 650 000e 0123     		movs	r3, #1
 651 0010 0321     		movs	r1, #3
 652              	.LVL44:
  53:D:/fchai/work/i-cube/I-CUBE-HUAWEI/Drivers/BSP/Components/stts751\stts751_reg.c ****   return ret;
 653              		.loc 1 53 9 view .LVU188
 654 0012 B047     		blx	r6
 655              	.LVL45:
  54:D:/fchai/work/i-cube/I-CUBE-HUAWEI/Drivers/BSP/Components/stts751\stts751_reg.c **** }
 656              		.loc 1 54 3 is_stmt 1 view .LVU189
  54:D:/fchai/work/i-cube/I-CUBE-HUAWEI/Drivers/BSP/Components/stts751\stts751_reg.c **** }
 657              		.loc 1 54 3 is_stmt 0 view .LVU190
 658              	.LBE94:
 659              	.LBE95:
 243:D:/fchai/work/i-cube/I-CUBE-HUAWEI/Drivers/BSP/Components/stts751\stts751_reg.c ****   if (ret == 0) {
 660              		.loc 1 243 3 is_stmt 1 view .LVU191
 661              		.loc 1 243 6 is_stmt 0 view .LVU192
 662 0014 58B9     		cbnz	r0, .L31
 244:D:/fchai/work/i-cube/I-CUBE-HUAWEI/Drivers/BSP/Components/stts751\stts751_reg.c ****     reg.tres = (uint8_t) val;
 663              		.loc 1 244 5 is_stmt 1 view .LVU193
 664              		.loc 1 244 14 is_stmt 0 view .LVU194
 665 0016 9DF80430 		ldrb	r3, [sp, #4]	@ zero_extendqisi2
 666              	.LBB96:
 667              	.LBB97:
  71:D:/fchai/work/i-cube/I-CUBE-HUAWEI/Drivers/BSP/Components/stts751\stts751_reg.c ****   return ret;
 668              		.loc 1 71 9 view .LVU195
 669 001a 2668     		ldr	r6, [r4]
 670 001c A068     		ldr	r0, [r4, #8]
 671              	.LVL46:
  71:D:/fchai/work/i-cube/I-CUBE-HUAWEI/Drivers/BSP/Components/stts751\stts751_reg.c ****   return ret;
 672              		.loc 1 71 9 view .LVU196
 673              	.LBE97:
 674              	.LBE96:
 675              		.loc 1 244 14 view .LVU197
 676 001e 65F38303 		bfi	r3, r5, #2, #2
ARM GAS  T:\msys\tmp\cc68iQTc.s 			page 19


 677 0022 8DF80430 		strb	r3, [sp, #4]
 245:D:/fchai/work/i-cube/I-CUBE-HUAWEI/Drivers/BSP/Components/stts751\stts751_reg.c ****     ret = stts751_write_reg(ctx, STTS751_CONFIGURATION,(uint8_t*) &reg, 1);
 678              		.loc 1 245 5 is_stmt 1 view .LVU198
 679              	.LVL47:
 680              	.LBB99:
 681              	.LBI96:
  67:D:/fchai/work/i-cube/I-CUBE-HUAWEI/Drivers/BSP/Components/stts751\stts751_reg.c ****                            uint16_t len)
 682              		.loc 1 67 9 view .LVU199
 683              	.LBB98:
  70:D:/fchai/work/i-cube/I-CUBE-HUAWEI/Drivers/BSP/Components/stts751\stts751_reg.c ****   ret = ctx->write_reg(ctx->handle, reg, data, len);
 684              		.loc 1 70 3 view .LVU200
  71:D:/fchai/work/i-cube/I-CUBE-HUAWEI/Drivers/BSP/Components/stts751\stts751_reg.c ****   return ret;
 685              		.loc 1 71 3 view .LVU201
  71:D:/fchai/work/i-cube/I-CUBE-HUAWEI/Drivers/BSP/Components/stts751\stts751_reg.c ****   return ret;
 686              		.loc 1 71 9 is_stmt 0 view .LVU202
 687 0026 01AA     		add	r2, sp, #4
 688              	.LVL48:
  71:D:/fchai/work/i-cube/I-CUBE-HUAWEI/Drivers/BSP/Components/stts751\stts751_reg.c ****   return ret;
 689              		.loc 1 71 9 view .LVU203
 690 0028 0123     		movs	r3, #1
 691 002a 0321     		movs	r1, #3
 692 002c B047     		blx	r6
 693              	.LVL49:
  72:D:/fchai/work/i-cube/I-CUBE-HUAWEI/Drivers/BSP/Components/stts751\stts751_reg.c **** }
 694              		.loc 1 72 3 is_stmt 1 view .LVU204
  72:D:/fchai/work/i-cube/I-CUBE-HUAWEI/Drivers/BSP/Components/stts751\stts751_reg.c **** }
 695              		.loc 1 72 3 is_stmt 0 view .LVU205
 696              	.LBE98:
 697              	.LBE99:
 246:D:/fchai/work/i-cube/I-CUBE-HUAWEI/Drivers/BSP/Components/stts751\stts751_reg.c ****   }
 247:D:/fchai/work/i-cube/I-CUBE-HUAWEI/Drivers/BSP/Components/stts751\stts751_reg.c ****   return ret;
 698              		.loc 1 247 3 is_stmt 1 view .LVU206
 699              	.L31:
 248:D:/fchai/work/i-cube/I-CUBE-HUAWEI/Drivers/BSP/Components/stts751\stts751_reg.c **** }
 700              		.loc 1 248 1 is_stmt 0 view .LVU207
 701 002e 02B0     		add	sp, sp, #8
 702              	.LCFI17:
 703              		.cfi_def_cfa_offset 16
 704              		@ sp needed
 705 0030 70BD     		pop	{r4, r5, r6, pc}
 706              		.loc 1 248 1 view .LVU208
 707              		.cfi_endproc
 708              	.LFE6:
 710 0032 00BF     		.section	.text.stts751_resolution_get,"ax",%progbits
 711              		.align	1
 712              		.p2align 2,,3
 713              		.global	stts751_resolution_get
 714              		.syntax unified
 715              		.thumb
 716              		.thumb_func
 717              		.fpu fpv4-sp-d16
 719              	stts751_resolution_get:
 720              	.LVL50:
 721              	.LFB7:
 249:D:/fchai/work/i-cube/I-CUBE-HUAWEI/Drivers/BSP/Components/stts751\stts751_reg.c **** 
 250:D:/fchai/work/i-cube/I-CUBE-HUAWEI/Drivers/BSP/Components/stts751\stts751_reg.c **** /**
 251:D:/fchai/work/i-cube/I-CUBE-HUAWEI/Drivers/BSP/Components/stts751\stts751_reg.c ****   * @brief Temperature sensor resolution selection.[get]
ARM GAS  T:\msys\tmp\cc68iQTc.s 			page 20


 252:D:/fchai/work/i-cube/I-CUBE-HUAWEI/Drivers/BSP/Components/stts751\stts751_reg.c ****   *
 253:D:/fchai/work/i-cube/I-CUBE-HUAWEI/Drivers/BSP/Components/stts751\stts751_reg.c ****   * @param  ctx      read / write interface definitions
 254:D:/fchai/work/i-cube/I-CUBE-HUAWEI/Drivers/BSP/Components/stts751\stts751_reg.c ****   * @param  val      Get the values of tres in reg CONFIGURATION
 255:D:/fchai/work/i-cube/I-CUBE-HUAWEI/Drivers/BSP/Components/stts751\stts751_reg.c ****   * @retval          interface status (MANDATORY: return 0 -> no Error)
 256:D:/fchai/work/i-cube/I-CUBE-HUAWEI/Drivers/BSP/Components/stts751\stts751_reg.c ****   *
 257:D:/fchai/work/i-cube/I-CUBE-HUAWEI/Drivers/BSP/Components/stts751\stts751_reg.c ****   */
 258:D:/fchai/work/i-cube/I-CUBE-HUAWEI/Drivers/BSP/Components/stts751\stts751_reg.c **** int32_t stts751_resolution_get(stmdev_ctx_t *ctx, stts751_tres_t *val)
 259:D:/fchai/work/i-cube/I-CUBE-HUAWEI/Drivers/BSP/Components/stts751\stts751_reg.c **** {
 722              		.loc 1 259 1 is_stmt 1 view -0
 723              		.cfi_startproc
 724              		@ args = 0, pretend = 0, frame = 8
 725              		@ frame_needed = 0, uses_anonymous_args = 0
 260:D:/fchai/work/i-cube/I-CUBE-HUAWEI/Drivers/BSP/Components/stts751\stts751_reg.c ****   stts751_configuration_t reg;
 726              		.loc 1 260 3 view .LVU210
 261:D:/fchai/work/i-cube/I-CUBE-HUAWEI/Drivers/BSP/Components/stts751\stts751_reg.c ****   int32_t ret;
 727              		.loc 1 261 3 view .LVU211
 262:D:/fchai/work/i-cube/I-CUBE-HUAWEI/Drivers/BSP/Components/stts751\stts751_reg.c **** 
 263:D:/fchai/work/i-cube/I-CUBE-HUAWEI/Drivers/BSP/Components/stts751\stts751_reg.c ****   ret = stts751_read_reg(ctx, STTS751_CONFIGURATION,(uint8_t*) &reg, 1);
 728              		.loc 1 263 3 view .LVU212
 259:D:/fchai/work/i-cube/I-CUBE-HUAWEI/Drivers/BSP/Components/stts751\stts751_reg.c ****   stts751_configuration_t reg;
 729              		.loc 1 259 1 is_stmt 0 view .LVU213
 730 0000 30B5     		push	{r4, r5, lr}
 731              	.LCFI18:
 732              		.cfi_def_cfa_offset 12
 733              		.cfi_offset 4, -12
 734              		.cfi_offset 5, -8
 735              		.cfi_offset 14, -4
 736 0002 83B0     		sub	sp, sp, #12
 737              	.LCFI19:
 738              		.cfi_def_cfa_offset 24
 739              	.LVL51:
 740              	.LBB100:
 741              	.LBI100:
  49:D:/fchai/work/i-cube/I-CUBE-HUAWEI/Drivers/BSP/Components/stts751\stts751_reg.c ****                           uint16_t len)
 742              		.loc 1 49 9 is_stmt 1 view .LVU214
 743              	.LBB101:
  52:D:/fchai/work/i-cube/I-CUBE-HUAWEI/Drivers/BSP/Components/stts751\stts751_reg.c ****   ret = ctx->read_reg(ctx->handle, reg, data, len);
 744              		.loc 1 52 3 view .LVU215
  53:D:/fchai/work/i-cube/I-CUBE-HUAWEI/Drivers/BSP/Components/stts751\stts751_reg.c ****   return ret;
 745              		.loc 1 53 3 view .LVU216
  53:D:/fchai/work/i-cube/I-CUBE-HUAWEI/Drivers/BSP/Components/stts751\stts751_reg.c ****   return ret;
 746              		.loc 1 53 9 is_stmt 0 view .LVU217
 747 0004 0123     		movs	r3, #1
 748 0006 01AA     		add	r2, sp, #4
 749              	.LVL52:
  53:D:/fchai/work/i-cube/I-CUBE-HUAWEI/Drivers/BSP/Components/stts751\stts751_reg.c ****   return ret;
 750              		.loc 1 53 9 view .LVU218
 751 0008 D0E90150 		ldrd	r5, r0, [r0, #4]
 752              	.LVL53:
  53:D:/fchai/work/i-cube/I-CUBE-HUAWEI/Drivers/BSP/Components/stts751\stts751_reg.c ****   return ret;
 753              		.loc 1 53 9 view .LVU219
 754              	.LBE101:
 755              	.LBE100:
 259:D:/fchai/work/i-cube/I-CUBE-HUAWEI/Drivers/BSP/Components/stts751\stts751_reg.c ****   stts751_configuration_t reg;
 756              		.loc 1 259 1 view .LVU220
 757 000c 0C46     		mov	r4, r1
 758              	.LBB104:
ARM GAS  T:\msys\tmp\cc68iQTc.s 			page 21


 759              	.LBB102:
  53:D:/fchai/work/i-cube/I-CUBE-HUAWEI/Drivers/BSP/Components/stts751\stts751_reg.c ****   return ret;
 760              		.loc 1 53 9 view .LVU221
 761 000e 0321     		movs	r1, #3
 762              	.LVL54:
  53:D:/fchai/work/i-cube/I-CUBE-HUAWEI/Drivers/BSP/Components/stts751\stts751_reg.c ****   return ret;
 763              		.loc 1 53 9 view .LVU222
 764 0010 A847     		blx	r5
 765              	.LVL55:
  53:D:/fchai/work/i-cube/I-CUBE-HUAWEI/Drivers/BSP/Components/stts751\stts751_reg.c ****   return ret;
 766              		.loc 1 53 9 view .LVU223
 767              	.LBE102:
 768              	.LBE104:
 264:D:/fchai/work/i-cube/I-CUBE-HUAWEI/Drivers/BSP/Components/stts751\stts751_reg.c **** 
 265:D:/fchai/work/i-cube/I-CUBE-HUAWEI/Drivers/BSP/Components/stts751\stts751_reg.c ****   switch (reg.tres) {
 769              		.loc 1 265 14 view .LVU224
 770 0012 9DF80430 		ldrb	r3, [sp, #4]	@ zero_extendqisi2
 771 0016 C3F38102 		ubfx	r2, r3, #2, #2
 772              	.LVL56:
 773              	.LBB105:
 774              	.LBB103:
  54:D:/fchai/work/i-cube/I-CUBE-HUAWEI/Drivers/BSP/Components/stts751\stts751_reg.c **** }
 775              		.loc 1 54 3 is_stmt 1 view .LVU225
  54:D:/fchai/work/i-cube/I-CUBE-HUAWEI/Drivers/BSP/Components/stts751\stts751_reg.c **** }
 776              		.loc 1 54 3 is_stmt 0 view .LVU226
 777              	.LBE103:
 778              	.LBE105:
 779              		.loc 1 265 3 is_stmt 1 view .LVU227
 780 001a 012A     		cmp	r2, #1
 781              		.loc 1 265 14 is_stmt 0 view .LVU228
 782 001c 1346     		mov	r3, r2
 783              		.loc 1 265 3 view .LVU229
 784 001e 06D0     		beq	.L36
 785 0020 032A     		cmp	r2, #3
 786 0022 04D0     		beq	.L36
 787 0024 1AB1     		cbz	r2, .L36
 266:D:/fchai/work/i-cube/I-CUBE-HUAWEI/Drivers/BSP/Components/stts751\stts751_reg.c ****     case STTS751_9bit:
 267:D:/fchai/work/i-cube/I-CUBE-HUAWEI/Drivers/BSP/Components/stts751\stts751_reg.c ****       *val = STTS751_9bit;
 788              		.loc 1 267 7 is_stmt 1 view .LVU230
 789              		.loc 1 267 12 is_stmt 0 view .LVU231
 790 0026 0223     		movs	r3, #2
 791 0028 2370     		strb	r3, [r4]
 268:D:/fchai/work/i-cube/I-CUBE-HUAWEI/Drivers/BSP/Components/stts751\stts751_reg.c ****       break;
 792              		.loc 1 268 7 is_stmt 1 view .LVU232
 269:D:/fchai/work/i-cube/I-CUBE-HUAWEI/Drivers/BSP/Components/stts751\stts751_reg.c ****     case STTS751_10bit:
 270:D:/fchai/work/i-cube/I-CUBE-HUAWEI/Drivers/BSP/Components/stts751\stts751_reg.c ****       *val = STTS751_10bit;
 271:D:/fchai/work/i-cube/I-CUBE-HUAWEI/Drivers/BSP/Components/stts751\stts751_reg.c ****       break;
 272:D:/fchai/work/i-cube/I-CUBE-HUAWEI/Drivers/BSP/Components/stts751\stts751_reg.c ****     case STTS751_11bit:
 273:D:/fchai/work/i-cube/I-CUBE-HUAWEI/Drivers/BSP/Components/stts751\stts751_reg.c ****       *val = STTS751_11bit;
 274:D:/fchai/work/i-cube/I-CUBE-HUAWEI/Drivers/BSP/Components/stts751\stts751_reg.c ****       break;
 275:D:/fchai/work/i-cube/I-CUBE-HUAWEI/Drivers/BSP/Components/stts751\stts751_reg.c ****     case STTS751_12bit:
 276:D:/fchai/work/i-cube/I-CUBE-HUAWEI/Drivers/BSP/Components/stts751\stts751_reg.c ****       *val = STTS751_12bit;
 277:D:/fchai/work/i-cube/I-CUBE-HUAWEI/Drivers/BSP/Components/stts751\stts751_reg.c ****       break;
 278:D:/fchai/work/i-cube/I-CUBE-HUAWEI/Drivers/BSP/Components/stts751\stts751_reg.c ****     default:
 279:D:/fchai/work/i-cube/I-CUBE-HUAWEI/Drivers/BSP/Components/stts751\stts751_reg.c ****       *val = STTS751_9bit;
 280:D:/fchai/work/i-cube/I-CUBE-HUAWEI/Drivers/BSP/Components/stts751\stts751_reg.c ****       break;
 281:D:/fchai/work/i-cube/I-CUBE-HUAWEI/Drivers/BSP/Components/stts751\stts751_reg.c ****   }
ARM GAS  T:\msys\tmp\cc68iQTc.s 			page 22


 282:D:/fchai/work/i-cube/I-CUBE-HUAWEI/Drivers/BSP/Components/stts751\stts751_reg.c ****   return ret;
 283:D:/fchai/work/i-cube/I-CUBE-HUAWEI/Drivers/BSP/Components/stts751\stts751_reg.c **** }
 793              		.loc 1 283 1 is_stmt 0 view .LVU233
 794 002a 03B0     		add	sp, sp, #12
 795              	.LCFI20:
 796              		.cfi_remember_state
 797              		.cfi_def_cfa_offset 12
 798              		@ sp needed
 799 002c 30BD     		pop	{r4, r5, pc}
 800              	.LVL57:
 801              	.L36:
 802              	.LCFI21:
 803              		.cfi_restore_state
 276:D:/fchai/work/i-cube/I-CUBE-HUAWEI/Drivers/BSP/Components/stts751\stts751_reg.c ****       break;
 804              		.loc 1 276 7 is_stmt 1 view .LVU234
 276:D:/fchai/work/i-cube/I-CUBE-HUAWEI/Drivers/BSP/Components/stts751\stts751_reg.c ****       break;
 805              		.loc 1 276 12 is_stmt 0 view .LVU235
 806 002e 2370     		strb	r3, [r4]
 277:D:/fchai/work/i-cube/I-CUBE-HUAWEI/Drivers/BSP/Components/stts751\stts751_reg.c ****     default:
 807              		.loc 1 277 7 is_stmt 1 view .LVU236
 282:D:/fchai/work/i-cube/I-CUBE-HUAWEI/Drivers/BSP/Components/stts751\stts751_reg.c **** }
 808              		.loc 1 282 3 view .LVU237
 809              		.loc 1 283 1 is_stmt 0 view .LVU238
 810 0030 03B0     		add	sp, sp, #12
 811              	.LCFI22:
 812              		.cfi_def_cfa_offset 12
 813              		@ sp needed
 814 0032 30BD     		pop	{r4, r5, pc}
 815              		.loc 1 283 1 view .LVU239
 816              		.cfi_endproc
 817              	.LFE7:
 819              		.section	.text.stts751_status_reg_get,"ax",%progbits
 820              		.align	1
 821              		.p2align 2,,3
 822              		.global	stts751_status_reg_get
 823              		.syntax unified
 824              		.thumb
 825              		.thumb_func
 826              		.fpu fpv4-sp-d16
 828              	stts751_status_reg_get:
 829              	.LVL58:
 830              	.LFB8:
 284:D:/fchai/work/i-cube/I-CUBE-HUAWEI/Drivers/BSP/Components/stts751\stts751_reg.c **** 
 285:D:/fchai/work/i-cube/I-CUBE-HUAWEI/Drivers/BSP/Components/stts751\stts751_reg.c **** /**
 286:D:/fchai/work/i-cube/I-CUBE-HUAWEI/Drivers/BSP/Components/stts751\stts751_reg.c ****   * @brief  The STATUS_REG register of the device.[get]
 287:D:/fchai/work/i-cube/I-CUBE-HUAWEI/Drivers/BSP/Components/stts751\stts751_reg.c ****   *
 288:D:/fchai/work/i-cube/I-CUBE-HUAWEI/Drivers/BSP/Components/stts751\stts751_reg.c ****   * @param  ctx      read / write interface definitions
 289:D:/fchai/work/i-cube/I-CUBE-HUAWEI/Drivers/BSP/Components/stts751\stts751_reg.c ****   * @param  val      union of registers from STATUS to
 290:D:/fchai/work/i-cube/I-CUBE-HUAWEI/Drivers/BSP/Components/stts751\stts751_reg.c ****   * @retval          interface status (MANDATORY: return 0 -> no Error)
 291:D:/fchai/work/i-cube/I-CUBE-HUAWEI/Drivers/BSP/Components/stts751\stts751_reg.c ****   *
 292:D:/fchai/work/i-cube/I-CUBE-HUAWEI/Drivers/BSP/Components/stts751\stts751_reg.c ****   */
 293:D:/fchai/work/i-cube/I-CUBE-HUAWEI/Drivers/BSP/Components/stts751\stts751_reg.c **** int32_t stts751_status_reg_get(stmdev_ctx_t *ctx, stts751_status_t *val)
 294:D:/fchai/work/i-cube/I-CUBE-HUAWEI/Drivers/BSP/Components/stts751\stts751_reg.c **** {
 831              		.loc 1 294 1 is_stmt 1 view -0
 832              		.cfi_startproc
 833              		@ args = 0, pretend = 0, frame = 0
 834              		@ frame_needed = 0, uses_anonymous_args = 0
ARM GAS  T:\msys\tmp\cc68iQTc.s 			page 23


 835              		@ link register save eliminated.
 295:D:/fchai/work/i-cube/I-CUBE-HUAWEI/Drivers/BSP/Components/stts751\stts751_reg.c ****   int32_t ret;
 836              		.loc 1 295 3 view .LVU241
 296:D:/fchai/work/i-cube/I-CUBE-HUAWEI/Drivers/BSP/Components/stts751\stts751_reg.c ****   ret = stts751_read_reg(ctx, STTS751_STATUS, (uint8_t*) val, 1);
 837              		.loc 1 296 3 view .LVU242
 294:D:/fchai/work/i-cube/I-CUBE-HUAWEI/Drivers/BSP/Components/stts751\stts751_reg.c ****   int32_t ret;
 838              		.loc 1 294 1 is_stmt 0 view .LVU243
 839 0000 10B4     		push	{r4}
 840              	.LCFI23:
 841              		.cfi_def_cfa_offset 4
 842              		.cfi_offset 4, -4
 843              	.LBB106:
 844              	.LBB107:
  53:D:/fchai/work/i-cube/I-CUBE-HUAWEI/Drivers/BSP/Components/stts751\stts751_reg.c ****   return ret;
 845              		.loc 1 53 9 view .LVU244
 846 0002 D0E90140 		ldrd	r4, r0, [r0, #4]
 847              	.LVL59:
  53:D:/fchai/work/i-cube/I-CUBE-HUAWEI/Drivers/BSP/Components/stts751\stts751_reg.c ****   return ret;
 848              		.loc 1 53 9 view .LVU245
 849 0006 0123     		movs	r3, #1
 850              	.LBE107:
 851              	.LBE106:
 294:D:/fchai/work/i-cube/I-CUBE-HUAWEI/Drivers/BSP/Components/stts751\stts751_reg.c ****   int32_t ret;
 852              		.loc 1 294 1 view .LVU246
 853 0008 0A46     		mov	r2, r1
 854              	.LVL60:
 855              	.LBB110:
 856              	.LBI106:
  49:D:/fchai/work/i-cube/I-CUBE-HUAWEI/Drivers/BSP/Components/stts751\stts751_reg.c ****                           uint16_t len)
 857              		.loc 1 49 9 is_stmt 1 view .LVU247
 858              	.LBB108:
  52:D:/fchai/work/i-cube/I-CUBE-HUAWEI/Drivers/BSP/Components/stts751\stts751_reg.c ****   ret = ctx->read_reg(ctx->handle, reg, data, len);
 859              		.loc 1 52 3 view .LVU248
  53:D:/fchai/work/i-cube/I-CUBE-HUAWEI/Drivers/BSP/Components/stts751\stts751_reg.c ****   return ret;
 860              		.loc 1 53 3 view .LVU249
  53:D:/fchai/work/i-cube/I-CUBE-HUAWEI/Drivers/BSP/Components/stts751\stts751_reg.c ****   return ret;
 861              		.loc 1 53 9 is_stmt 0 view .LVU250
 862 000a A446     		mov	ip, r4
 863 000c 1946     		mov	r1, r3
 864              	.LVL61:
  53:D:/fchai/work/i-cube/I-CUBE-HUAWEI/Drivers/BSP/Components/stts751\stts751_reg.c ****   return ret;
 865              		.loc 1 53 9 view .LVU251
 866              	.LBE108:
 867              	.LBE110:
 297:D:/fchai/work/i-cube/I-CUBE-HUAWEI/Drivers/BSP/Components/stts751\stts751_reg.c ****   return ret;
 298:D:/fchai/work/i-cube/I-CUBE-HUAWEI/Drivers/BSP/Components/stts751\stts751_reg.c **** }
 868              		.loc 1 298 1 view .LVU252
 869 000e 5DF8044B 		ldr	r4, [sp], #4
 870              	.LCFI24:
 871              		.cfi_restore 4
 872              		.cfi_def_cfa_offset 0
 873              	.LBB111:
 874              	.LBB109:
  53:D:/fchai/work/i-cube/I-CUBE-HUAWEI/Drivers/BSP/Components/stts751\stts751_reg.c ****   return ret;
 875              		.loc 1 53 9 view .LVU253
 876 0012 6047     		bx	ip
 877              	.LVL62:
ARM GAS  T:\msys\tmp\cc68iQTc.s 			page 24


  53:D:/fchai/work/i-cube/I-CUBE-HUAWEI/Drivers/BSP/Components/stts751\stts751_reg.c ****   return ret;
 878              		.loc 1 53 9 view .LVU254
 879              	.LBE109:
 880              	.LBE111:
 881              		.cfi_endproc
 882              	.LFE8:
 884              		.section	.text.stts751_flag_busy_get,"ax",%progbits
 885              		.align	1
 886              		.p2align 2,,3
 887              		.global	stts751_flag_busy_get
 888              		.syntax unified
 889              		.thumb
 890              		.thumb_func
 891              		.fpu fpv4-sp-d16
 893              	stts751_flag_busy_get:
 894              	.LVL63:
 895              	.LFB9:
 299:D:/fchai/work/i-cube/I-CUBE-HUAWEI/Drivers/BSP/Components/stts751\stts751_reg.c **** 
 300:D:/fchai/work/i-cube/I-CUBE-HUAWEI/Drivers/BSP/Components/stts751\stts751_reg.c **** /**
 301:D:/fchai/work/i-cube/I-CUBE-HUAWEI/Drivers/BSP/Components/stts751\stts751_reg.c ****   * @brief  Temperature sensor "conversion on-going" flag.[get]
 302:D:/fchai/work/i-cube/I-CUBE-HUAWEI/Drivers/BSP/Components/stts751\stts751_reg.c ****   *
 303:D:/fchai/work/i-cube/I-CUBE-HUAWEI/Drivers/BSP/Components/stts751\stts751_reg.c ****   * @param  ctx      read / write interface definitions
 304:D:/fchai/work/i-cube/I-CUBE-HUAWEI/Drivers/BSP/Components/stts751\stts751_reg.c ****   * @param  val      get the values of busy in reg STATUS
 305:D:/fchai/work/i-cube/I-CUBE-HUAWEI/Drivers/BSP/Components/stts751\stts751_reg.c ****   * @retval          interface status (MANDATORY: return 0 -> no Error)
 306:D:/fchai/work/i-cube/I-CUBE-HUAWEI/Drivers/BSP/Components/stts751\stts751_reg.c ****   *
 307:D:/fchai/work/i-cube/I-CUBE-HUAWEI/Drivers/BSP/Components/stts751\stts751_reg.c ****   */
 308:D:/fchai/work/i-cube/I-CUBE-HUAWEI/Drivers/BSP/Components/stts751\stts751_reg.c **** int32_t stts751_flag_busy_get(stmdev_ctx_t *ctx, uint8_t *val)
 309:D:/fchai/work/i-cube/I-CUBE-HUAWEI/Drivers/BSP/Components/stts751\stts751_reg.c **** {
 896              		.loc 1 309 1 is_stmt 1 view -0
 897              		.cfi_startproc
 898              		@ args = 0, pretend = 0, frame = 8
 899              		@ frame_needed = 0, uses_anonymous_args = 0
 310:D:/fchai/work/i-cube/I-CUBE-HUAWEI/Drivers/BSP/Components/stts751\stts751_reg.c ****   stts751_status_t reg;
 900              		.loc 1 310 3 view .LVU256
 311:D:/fchai/work/i-cube/I-CUBE-HUAWEI/Drivers/BSP/Components/stts751\stts751_reg.c ****   int32_t ret;
 901              		.loc 1 311 3 view .LVU257
 312:D:/fchai/work/i-cube/I-CUBE-HUAWEI/Drivers/BSP/Components/stts751\stts751_reg.c **** 
 313:D:/fchai/work/i-cube/I-CUBE-HUAWEI/Drivers/BSP/Components/stts751\stts751_reg.c ****   ret = stts751_read_reg(ctx, STTS751_STATUS, (uint8_t*)&reg, 1);
 902              		.loc 1 313 3 view .LVU258
 309:D:/fchai/work/i-cube/I-CUBE-HUAWEI/Drivers/BSP/Components/stts751\stts751_reg.c ****   stts751_status_t reg;
 903              		.loc 1 309 1 is_stmt 0 view .LVU259
 904 0000 30B5     		push	{r4, r5, lr}
 905              	.LCFI25:
 906              		.cfi_def_cfa_offset 12
 907              		.cfi_offset 4, -12
 908              		.cfi_offset 5, -8
 909              		.cfi_offset 14, -4
 910              	.LBB112:
 911              	.LBB113:
  53:D:/fchai/work/i-cube/I-CUBE-HUAWEI/Drivers/BSP/Components/stts751\stts751_reg.c ****   return ret;
 912              		.loc 1 53 9 view .LVU260
 913 0002 0123     		movs	r3, #1
 914              	.LBE113:
 915              	.LBE112:
 309:D:/fchai/work/i-cube/I-CUBE-HUAWEI/Drivers/BSP/Components/stts751\stts751_reg.c ****   stts751_status_t reg;
 916              		.loc 1 309 1 view .LVU261
 917 0004 83B0     		sub	sp, sp, #12
ARM GAS  T:\msys\tmp\cc68iQTc.s 			page 25


 918              	.LCFI26:
 919              		.cfi_def_cfa_offset 24
 920              	.LVL64:
 921              	.LBB116:
 922              	.LBI112:
  49:D:/fchai/work/i-cube/I-CUBE-HUAWEI/Drivers/BSP/Components/stts751\stts751_reg.c ****                           uint16_t len)
 923              		.loc 1 49 9 is_stmt 1 view .LVU262
 924              	.LBB114:
  52:D:/fchai/work/i-cube/I-CUBE-HUAWEI/Drivers/BSP/Components/stts751\stts751_reg.c ****   ret = ctx->read_reg(ctx->handle, reg, data, len);
 925              		.loc 1 52 3 view .LVU263
  53:D:/fchai/work/i-cube/I-CUBE-HUAWEI/Drivers/BSP/Components/stts751\stts751_reg.c ****   return ret;
 926              		.loc 1 53 3 view .LVU264
 927              	.LBE114:
 928              	.LBE116:
 309:D:/fchai/work/i-cube/I-CUBE-HUAWEI/Drivers/BSP/Components/stts751\stts751_reg.c ****   stts751_status_t reg;
 929              		.loc 1 309 1 is_stmt 0 view .LVU265
 930 0006 0C46     		mov	r4, r1
 931              	.LBB117:
 932              	.LBB115:
  53:D:/fchai/work/i-cube/I-CUBE-HUAWEI/Drivers/BSP/Components/stts751\stts751_reg.c ****   return ret;
 933              		.loc 1 53 9 view .LVU266
 934 0008 D0E90150 		ldrd	r5, r0, [r0, #4]
 935              	.LVL65:
  53:D:/fchai/work/i-cube/I-CUBE-HUAWEI/Drivers/BSP/Components/stts751\stts751_reg.c ****   return ret;
 936              		.loc 1 53 9 view .LVU267
 937 000c 1946     		mov	r1, r3
 938              	.LVL66:
  53:D:/fchai/work/i-cube/I-CUBE-HUAWEI/Drivers/BSP/Components/stts751\stts751_reg.c ****   return ret;
 939              		.loc 1 53 9 view .LVU268
 940 000e 01AA     		add	r2, sp, #4
 941              	.LVL67:
  53:D:/fchai/work/i-cube/I-CUBE-HUAWEI/Drivers/BSP/Components/stts751\stts751_reg.c ****   return ret;
 942              		.loc 1 53 9 view .LVU269
 943 0010 A847     		blx	r5
 944              	.LVL68:
  54:D:/fchai/work/i-cube/I-CUBE-HUAWEI/Drivers/BSP/Components/stts751\stts751_reg.c **** }
 945              		.loc 1 54 3 is_stmt 1 view .LVU270
  54:D:/fchai/work/i-cube/I-CUBE-HUAWEI/Drivers/BSP/Components/stts751\stts751_reg.c **** }
 946              		.loc 1 54 3 is_stmt 0 view .LVU271
 947              	.LBE115:
 948              	.LBE117:
 314:D:/fchai/work/i-cube/I-CUBE-HUAWEI/Drivers/BSP/Components/stts751\stts751_reg.c ****   *val = reg.busy;
 949              		.loc 1 314 3 is_stmt 1 view .LVU272
 950              		.loc 1 314 13 is_stmt 0 view .LVU273
 951 0012 9DF80430 		ldrb	r3, [sp, #4]	@ zero_extendqisi2
 952 0016 C3F3C013 		ubfx	r3, r3, #7, #1
 953              		.loc 1 314 8 view .LVU274
 954 001a 2370     		strb	r3, [r4]
 315:D:/fchai/work/i-cube/I-CUBE-HUAWEI/Drivers/BSP/Components/stts751\stts751_reg.c **** 
 316:D:/fchai/work/i-cube/I-CUBE-HUAWEI/Drivers/BSP/Components/stts751\stts751_reg.c ****   return ret;
 955              		.loc 1 316 3 is_stmt 1 view .LVU275
 317:D:/fchai/work/i-cube/I-CUBE-HUAWEI/Drivers/BSP/Components/stts751\stts751_reg.c **** }
 956              		.loc 1 317 1 is_stmt 0 view .LVU276
 957 001c 03B0     		add	sp, sp, #12
 958              	.LCFI27:
 959              		.cfi_def_cfa_offset 12
 960              		@ sp needed
ARM GAS  T:\msys\tmp\cc68iQTc.s 			page 26


 961 001e 30BD     		pop	{r4, r5, pc}
 962              		.loc 1 317 1 view .LVU277
 963              		.cfi_endproc
 964              	.LFE9:
 966              		.section	.text.stts751_temperature_raw_get,"ax",%progbits
 967              		.align	1
 968              		.p2align 2,,3
 969              		.global	stts751_temperature_raw_get
 970              		.syntax unified
 971              		.thumb
 972              		.thumb_func
 973              		.fpu fpv4-sp-d16
 975              	stts751_temperature_raw_get:
 976              	.LVL69:
 977              	.LFB10:
 318:D:/fchai/work/i-cube/I-CUBE-HUAWEI/Drivers/BSP/Components/stts751\stts751_reg.c **** 
 319:D:/fchai/work/i-cube/I-CUBE-HUAWEI/Drivers/BSP/Components/stts751\stts751_reg.c **** /**
 320:D:/fchai/work/i-cube/I-CUBE-HUAWEI/Drivers/BSP/Components/stts751\stts751_reg.c ****   * @}
 321:D:/fchai/work/i-cube/I-CUBE-HUAWEI/Drivers/BSP/Components/stts751\stts751_reg.c ****   *
 322:D:/fchai/work/i-cube/I-CUBE-HUAWEI/Drivers/BSP/Components/stts751\stts751_reg.c ****   */
 323:D:/fchai/work/i-cube/I-CUBE-HUAWEI/Drivers/BSP/Components/stts751\stts751_reg.c **** 
 324:D:/fchai/work/i-cube/I-CUBE-HUAWEI/Drivers/BSP/Components/stts751\stts751_reg.c **** /**
 325:D:/fchai/work/i-cube/I-CUBE-HUAWEI/Drivers/BSP/Components/stts751\stts751_reg.c ****   * @defgroup  STTS751_Data_Output
 326:D:/fchai/work/i-cube/I-CUBE-HUAWEI/Drivers/BSP/Components/stts751\stts751_reg.c ****   * @brief     This section groups all the data output functions.
 327:D:/fchai/work/i-cube/I-CUBE-HUAWEI/Drivers/BSP/Components/stts751\stts751_reg.c ****   * @{
 328:D:/fchai/work/i-cube/I-CUBE-HUAWEI/Drivers/BSP/Components/stts751\stts751_reg.c ****   *
 329:D:/fchai/work/i-cube/I-CUBE-HUAWEI/Drivers/BSP/Components/stts751\stts751_reg.c ****   */
 330:D:/fchai/work/i-cube/I-CUBE-HUAWEI/Drivers/BSP/Components/stts751\stts751_reg.c **** 
 331:D:/fchai/work/i-cube/I-CUBE-HUAWEI/Drivers/BSP/Components/stts751\stts751_reg.c **** /**
 332:D:/fchai/work/i-cube/I-CUBE-HUAWEI/Drivers/BSP/Components/stts751\stts751_reg.c ****   * @brief  Temperature data output register (r). L and H registers
 333:D:/fchai/work/i-cube/I-CUBE-HUAWEI/Drivers/BSP/Components/stts751\stts751_reg.c ****   *         together express a 16-bit word in twos complement.[get]
 334:D:/fchai/work/i-cube/I-CUBE-HUAWEI/Drivers/BSP/Components/stts751\stts751_reg.c ****   *
 335:D:/fchai/work/i-cube/I-CUBE-HUAWEI/Drivers/BSP/Components/stts751\stts751_reg.c ****   * @param  ctx      read / write interface definitions
 336:D:/fchai/work/i-cube/I-CUBE-HUAWEI/Drivers/BSP/Components/stts751\stts751_reg.c ****   * @param  buff     buffer that stores data read
 337:D:/fchai/work/i-cube/I-CUBE-HUAWEI/Drivers/BSP/Components/stts751\stts751_reg.c ****   * @retval          interface status (MANDATORY: return 0 -> no Error)
 338:D:/fchai/work/i-cube/I-CUBE-HUAWEI/Drivers/BSP/Components/stts751\stts751_reg.c ****   *
 339:D:/fchai/work/i-cube/I-CUBE-HUAWEI/Drivers/BSP/Components/stts751\stts751_reg.c ****   */
 340:D:/fchai/work/i-cube/I-CUBE-HUAWEI/Drivers/BSP/Components/stts751\stts751_reg.c **** int32_t stts751_temperature_raw_get(stmdev_ctx_t *ctx, int16_t *buff)
 341:D:/fchai/work/i-cube/I-CUBE-HUAWEI/Drivers/BSP/Components/stts751\stts751_reg.c **** {
 978              		.loc 1 341 1 is_stmt 1 view -0
 979              		.cfi_startproc
 980              		@ args = 0, pretend = 0, frame = 8
 981              		@ frame_needed = 0, uses_anonymous_args = 0
 342:D:/fchai/work/i-cube/I-CUBE-HUAWEI/Drivers/BSP/Components/stts751\stts751_reg.c ****   uint16_t temperature;
 982              		.loc 1 342 3 view .LVU279
 343:D:/fchai/work/i-cube/I-CUBE-HUAWEI/Drivers/BSP/Components/stts751\stts751_reg.c ****   uint8_t temperature_low;
 983              		.loc 1 343 3 view .LVU280
 344:D:/fchai/work/i-cube/I-CUBE-HUAWEI/Drivers/BSP/Components/stts751\stts751_reg.c ****   int32_t ret;
 984              		.loc 1 344 3 view .LVU281
 345:D:/fchai/work/i-cube/I-CUBE-HUAWEI/Drivers/BSP/Components/stts751\stts751_reg.c **** 
 346:D:/fchai/work/i-cube/I-CUBE-HUAWEI/Drivers/BSP/Components/stts751\stts751_reg.c ****   ret = stts751_read_reg(ctx, STTS751_TEMPERATURE_HIGH,
 985              		.loc 1 346 3 view .LVU282
 341:D:/fchai/work/i-cube/I-CUBE-HUAWEI/Drivers/BSP/Components/stts751\stts751_reg.c ****   uint16_t temperature;
 986              		.loc 1 341 1 is_stmt 0 view .LVU283
 987 0000 70B5     		push	{r4, r5, r6, lr}
 988              	.LCFI28:
 989              		.cfi_def_cfa_offset 16
ARM GAS  T:\msys\tmp\cc68iQTc.s 			page 27


 990              		.cfi_offset 4, -16
 991              		.cfi_offset 5, -12
 992              		.cfi_offset 6, -8
 993              		.cfi_offset 14, -4
 994 0002 82B0     		sub	sp, sp, #8
 995              	.LCFI29:
 996              		.cfi_def_cfa_offset 24
 341:D:/fchai/work/i-cube/I-CUBE-HUAWEI/Drivers/BSP/Components/stts751\stts751_reg.c ****   uint16_t temperature;
 997              		.loc 1 341 1 view .LVU284
 998 0004 0446     		mov	r4, r0
 999              	.LVL70:
 1000              	.LBB118:
 1001              	.LBI118:
  49:D:/fchai/work/i-cube/I-CUBE-HUAWEI/Drivers/BSP/Components/stts751\stts751_reg.c ****                           uint16_t len)
 1002              		.loc 1 49 9 is_stmt 1 view .LVU285
 1003              	.LBB119:
  52:D:/fchai/work/i-cube/I-CUBE-HUAWEI/Drivers/BSP/Components/stts751\stts751_reg.c ****   ret = ctx->read_reg(ctx->handle, reg, data, len);
 1004              		.loc 1 52 3 view .LVU286
  53:D:/fchai/work/i-cube/I-CUBE-HUAWEI/Drivers/BSP/Components/stts751\stts751_reg.c ****   return ret;
 1005              		.loc 1 53 3 view .LVU287
 1006              	.LBE119:
 1007              	.LBE118:
 341:D:/fchai/work/i-cube/I-CUBE-HUAWEI/Drivers/BSP/Components/stts751\stts751_reg.c ****   uint16_t temperature;
 1008              		.loc 1 341 1 is_stmt 0 view .LVU288
 1009 0006 0E46     		mov	r6, r1
 1010              	.LBB121:
 1011              	.LBB120:
  53:D:/fchai/work/i-cube/I-CUBE-HUAWEI/Drivers/BSP/Components/stts751\stts751_reg.c ****   return ret;
 1012              		.loc 1 53 9 view .LVU289
 1013 0008 D0E90150 		ldrd	r5, r0, [r0, #4]
 1014              	.LVL71:
  53:D:/fchai/work/i-cube/I-CUBE-HUAWEI/Drivers/BSP/Components/stts751\stts751_reg.c ****   return ret;
 1015              		.loc 1 53 9 view .LVU290
 1016 000c 0123     		movs	r3, #1
 1017 000e 0DF10602 		add	r2, sp, #6
 1018              	.LVL72:
  53:D:/fchai/work/i-cube/I-CUBE-HUAWEI/Drivers/BSP/Components/stts751\stts751_reg.c ****   return ret;
 1019              		.loc 1 53 9 view .LVU291
 1020 0012 0021     		movs	r1, #0
 1021              	.LVL73:
  53:D:/fchai/work/i-cube/I-CUBE-HUAWEI/Drivers/BSP/Components/stts751\stts751_reg.c ****   return ret;
 1022              		.loc 1 53 9 view .LVU292
 1023 0014 A847     		blx	r5
 1024              	.LVL74:
  54:D:/fchai/work/i-cube/I-CUBE-HUAWEI/Drivers/BSP/Components/stts751\stts751_reg.c **** }
 1025              		.loc 1 54 3 is_stmt 1 view .LVU293
  54:D:/fchai/work/i-cube/I-CUBE-HUAWEI/Drivers/BSP/Components/stts751\stts751_reg.c **** }
 1026              		.loc 1 54 3 is_stmt 0 view .LVU294
 1027              	.LBE120:
 1028              	.LBE121:
 347:D:/fchai/work/i-cube/I-CUBE-HUAWEI/Drivers/BSP/Components/stts751\stts751_reg.c ****                          (uint8_t*)&temperature, 1);
 348:D:/fchai/work/i-cube/I-CUBE-HUAWEI/Drivers/BSP/Components/stts751\stts751_reg.c ****   if (ret == 0) {
 1029              		.loc 1 348 3 is_stmt 1 view .LVU295
 1030              		.loc 1 348 6 is_stmt 0 view .LVU296
 1031 0016 68B9     		cbnz	r0, .L44
 349:D:/fchai/work/i-cube/I-CUBE-HUAWEI/Drivers/BSP/Components/stts751\stts751_reg.c ****     ret = stts751_read_reg(ctx, STTS751_TEMPERATURE_LOW,
 1032              		.loc 1 349 5 is_stmt 1 view .LVU297
ARM GAS  T:\msys\tmp\cc68iQTc.s 			page 28


 1033              	.LVL75:
 1034              	.LBB122:
 1035              	.LBI122:
  49:D:/fchai/work/i-cube/I-CUBE-HUAWEI/Drivers/BSP/Components/stts751\stts751_reg.c ****                           uint16_t len)
 1036              		.loc 1 49 9 view .LVU298
 1037              	.LBB123:
  52:D:/fchai/work/i-cube/I-CUBE-HUAWEI/Drivers/BSP/Components/stts751\stts751_reg.c ****   ret = ctx->read_reg(ctx->handle, reg, data, len);
 1038              		.loc 1 52 3 view .LVU299
  53:D:/fchai/work/i-cube/I-CUBE-HUAWEI/Drivers/BSP/Components/stts751\stts751_reg.c ****   return ret;
 1039              		.loc 1 53 3 view .LVU300
  53:D:/fchai/work/i-cube/I-CUBE-HUAWEI/Drivers/BSP/Components/stts751\stts751_reg.c ****   return ret;
 1040              		.loc 1 53 9 is_stmt 0 view .LVU301
 1041 0018 0123     		movs	r3, #1
 1042 001a 0DF10502 		add	r2, sp, #5
 1043              	.LVL76:
  53:D:/fchai/work/i-cube/I-CUBE-HUAWEI/Drivers/BSP/Components/stts751\stts751_reg.c ****   return ret;
 1044              		.loc 1 53 9 view .LVU302
 1045 001e D4E90150 		ldrd	r5, r0, [r4, #4]
 1046              	.LVL77:
  53:D:/fchai/work/i-cube/I-CUBE-HUAWEI/Drivers/BSP/Components/stts751\stts751_reg.c ****   return ret;
 1047              		.loc 1 53 9 view .LVU303
 1048 0022 0221     		movs	r1, #2
 1049 0024 A847     		blx	r5
 1050              	.LVL78:
  53:D:/fchai/work/i-cube/I-CUBE-HUAWEI/Drivers/BSP/Components/stts751\stts751_reg.c ****   return ret;
 1051              		.loc 1 53 9 view .LVU304
 1052              	.LBE123:
 1053              	.LBE122:
 350:D:/fchai/work/i-cube/I-CUBE-HUAWEI/Drivers/BSP/Components/stts751\stts751_reg.c ****                            &temperature_low, 1);
 351:D:/fchai/work/i-cube/I-CUBE-HUAWEI/Drivers/BSP/Components/stts751\stts751_reg.c **** 
 352:D:/fchai/work/i-cube/I-CUBE-HUAWEI/Drivers/BSP/Components/stts751\stts751_reg.c ****     temperature  = (temperature << 8) + temperature_low;
 1054              		.loc 1 352 33 view .LVU305
 1055 0026 BDF80620 		ldrh	r2, [sp, #6]
 1056              		.loc 1 352 39 view .LVU306
 1057 002a 9DF80530 		ldrb	r3, [sp, #5]	@ zero_extendqisi2
 1058 002e 03EB0223 		add	r3, r3, r2, lsl #8
 1059              	.LVL79:
 1060              	.LBB125:
 1061              	.LBB124:
  54:D:/fchai/work/i-cube/I-CUBE-HUAWEI/Drivers/BSP/Components/stts751\stts751_reg.c **** }
 1062              		.loc 1 54 3 is_stmt 1 view .LVU307
  54:D:/fchai/work/i-cube/I-CUBE-HUAWEI/Drivers/BSP/Components/stts751\stts751_reg.c **** }
 1063              		.loc 1 54 3 is_stmt 0 view .LVU308
 1064              	.LBE124:
 1065              	.LBE125:
 1066              		.loc 1 352 5 is_stmt 1 view .LVU309
 353:D:/fchai/work/i-cube/I-CUBE-HUAWEI/Drivers/BSP/Components/stts751\stts751_reg.c ****     *buff = (int16_t)temperature;
 1067              		.loc 1 353 5 view .LVU310
 1068              		.loc 1 353 11 is_stmt 0 view .LVU311
 1069 0032 3380     		strh	r3, [r6]	@ movhi
 354:D:/fchai/work/i-cube/I-CUBE-HUAWEI/Drivers/BSP/Components/stts751\stts751_reg.c ****   }
 355:D:/fchai/work/i-cube/I-CUBE-HUAWEI/Drivers/BSP/Components/stts751\stts751_reg.c ****   return ret;
 1070              		.loc 1 355 3 is_stmt 1 view .LVU312
 1071              	.L44:
 356:D:/fchai/work/i-cube/I-CUBE-HUAWEI/Drivers/BSP/Components/stts751\stts751_reg.c **** }
 1072              		.loc 1 356 1 is_stmt 0 view .LVU313
 1073 0034 02B0     		add	sp, sp, #8
ARM GAS  T:\msys\tmp\cc68iQTc.s 			page 29


 1074              	.LCFI30:
 1075              		.cfi_def_cfa_offset 16
 1076              		@ sp needed
 1077 0036 70BD     		pop	{r4, r5, r6, pc}
 1078              		.loc 1 356 1 view .LVU314
 1079              		.cfi_endproc
 1080              	.LFE10:
 1082              		.section	.text.stts751_pin_event_route_set,"ax",%progbits
 1083              		.align	1
 1084              		.p2align 2,,3
 1085              		.global	stts751_pin_event_route_set
 1086              		.syntax unified
 1087              		.thumb
 1088              		.thumb_func
 1089              		.fpu fpv4-sp-d16
 1091              	stts751_pin_event_route_set:
 1092              	.LVL80:
 1093              	.LFB11:
 357:D:/fchai/work/i-cube/I-CUBE-HUAWEI/Drivers/BSP/Components/stts751\stts751_reg.c **** 
 358:D:/fchai/work/i-cube/I-CUBE-HUAWEI/Drivers/BSP/Components/stts751\stts751_reg.c **** /**
 359:D:/fchai/work/i-cube/I-CUBE-HUAWEI/Drivers/BSP/Components/stts751\stts751_reg.c ****   * @}
 360:D:/fchai/work/i-cube/I-CUBE-HUAWEI/Drivers/BSP/Components/stts751\stts751_reg.c ****   *
 361:D:/fchai/work/i-cube/I-CUBE-HUAWEI/Drivers/BSP/Components/stts751\stts751_reg.c ****   */
 362:D:/fchai/work/i-cube/I-CUBE-HUAWEI/Drivers/BSP/Components/stts751\stts751_reg.c **** 
 363:D:/fchai/work/i-cube/I-CUBE-HUAWEI/Drivers/BSP/Components/stts751\stts751_reg.c **** /**
 364:D:/fchai/work/i-cube/I-CUBE-HUAWEI/Drivers/BSP/Components/stts751\stts751_reg.c ****   * @defgroup  STTS751_Interrupt_Pins
 365:D:/fchai/work/i-cube/I-CUBE-HUAWEI/Drivers/BSP/Components/stts751\stts751_reg.c ****   * @brief     This section groups all the functions that manage event pin
 366:D:/fchai/work/i-cube/I-CUBE-HUAWEI/Drivers/BSP/Components/stts751\stts751_reg.c ****   * @{
 367:D:/fchai/work/i-cube/I-CUBE-HUAWEI/Drivers/BSP/Components/stts751\stts751_reg.c ****   *
 368:D:/fchai/work/i-cube/I-CUBE-HUAWEI/Drivers/BSP/Components/stts751\stts751_reg.c ****   */
 369:D:/fchai/work/i-cube/I-CUBE-HUAWEI/Drivers/BSP/Components/stts751\stts751_reg.c **** 
 370:D:/fchai/work/i-cube/I-CUBE-HUAWEI/Drivers/BSP/Components/stts751\stts751_reg.c **** /**
 371:D:/fchai/work/i-cube/I-CUBE-HUAWEI/Drivers/BSP/Components/stts751\stts751_reg.c ****   * @brief  Route interrupt signal threshold on event pad.[set]
 372:D:/fchai/work/i-cube/I-CUBE-HUAWEI/Drivers/BSP/Components/stts751\stts751_reg.c ****   *
 373:D:/fchai/work/i-cube/I-CUBE-HUAWEI/Drivers/BSP/Components/stts751\stts751_reg.c ****   * @param  ctx      read / write interface definitions
 374:D:/fchai/work/i-cube/I-CUBE-HUAWEI/Drivers/BSP/Components/stts751\stts751_reg.c ****   * @param  val      set mask1 bit in register CONFIGURATION.
 375:D:/fchai/work/i-cube/I-CUBE-HUAWEI/Drivers/BSP/Components/stts751\stts751_reg.c ****   * @retval          interface status (MANDATORY: return 0 -> no Error)
 376:D:/fchai/work/i-cube/I-CUBE-HUAWEI/Drivers/BSP/Components/stts751\stts751_reg.c ****   *
 377:D:/fchai/work/i-cube/I-CUBE-HUAWEI/Drivers/BSP/Components/stts751\stts751_reg.c ****   */
 378:D:/fchai/work/i-cube/I-CUBE-HUAWEI/Drivers/BSP/Components/stts751\stts751_reg.c **** int32_t stts751_pin_event_route_set(stmdev_ctx_t *ctx, uint8_t val)
 379:D:/fchai/work/i-cube/I-CUBE-HUAWEI/Drivers/BSP/Components/stts751\stts751_reg.c **** {
 1094              		.loc 1 379 1 is_stmt 1 view -0
 1095              		.cfi_startproc
 1096              		@ args = 0, pretend = 0, frame = 8
 1097              		@ frame_needed = 0, uses_anonymous_args = 0
 380:D:/fchai/work/i-cube/I-CUBE-HUAWEI/Drivers/BSP/Components/stts751\stts751_reg.c ****   stts751_configuration_t reg;
 1098              		.loc 1 380 3 view .LVU316
 381:D:/fchai/work/i-cube/I-CUBE-HUAWEI/Drivers/BSP/Components/stts751\stts751_reg.c ****   int32_t ret;
 1099              		.loc 1 381 3 view .LVU317
 382:D:/fchai/work/i-cube/I-CUBE-HUAWEI/Drivers/BSP/Components/stts751\stts751_reg.c **** 
 383:D:/fchai/work/i-cube/I-CUBE-HUAWEI/Drivers/BSP/Components/stts751\stts751_reg.c ****   ret = stts751_read_reg(ctx, STTS751_CONFIGURATION,(uint8_t*)&reg, 1);
 1100              		.loc 1 383 3 view .LVU318
 379:D:/fchai/work/i-cube/I-CUBE-HUAWEI/Drivers/BSP/Components/stts751\stts751_reg.c ****   stts751_configuration_t reg;
 1101              		.loc 1 379 1 is_stmt 0 view .LVU319
 1102 0000 70B5     		push	{r4, r5, r6, lr}
 1103              	.LCFI31:
 1104              		.cfi_def_cfa_offset 16
ARM GAS  T:\msys\tmp\cc68iQTc.s 			page 30


 1105              		.cfi_offset 4, -16
 1106              		.cfi_offset 5, -12
 1107              		.cfi_offset 6, -8
 1108              		.cfi_offset 14, -4
 1109 0002 82B0     		sub	sp, sp, #8
 1110              	.LCFI32:
 1111              		.cfi_def_cfa_offset 24
 379:D:/fchai/work/i-cube/I-CUBE-HUAWEI/Drivers/BSP/Components/stts751\stts751_reg.c ****   stts751_configuration_t reg;
 1112              		.loc 1 379 1 view .LVU320
 1113 0004 0446     		mov	r4, r0
 1114              	.LVL81:
 1115              	.LBB126:
 1116              	.LBI126:
  49:D:/fchai/work/i-cube/I-CUBE-HUAWEI/Drivers/BSP/Components/stts751\stts751_reg.c ****                           uint16_t len)
 1117              		.loc 1 49 9 is_stmt 1 view .LVU321
 1118              	.LBB127:
  52:D:/fchai/work/i-cube/I-CUBE-HUAWEI/Drivers/BSP/Components/stts751\stts751_reg.c ****   ret = ctx->read_reg(ctx->handle, reg, data, len);
 1119              		.loc 1 52 3 view .LVU322
  53:D:/fchai/work/i-cube/I-CUBE-HUAWEI/Drivers/BSP/Components/stts751\stts751_reg.c ****   return ret;
 1120              		.loc 1 53 3 view .LVU323
 1121              	.LBE127:
 1122              	.LBE126:
 379:D:/fchai/work/i-cube/I-CUBE-HUAWEI/Drivers/BSP/Components/stts751\stts751_reg.c ****   stts751_configuration_t reg;
 1123              		.loc 1 379 1 is_stmt 0 view .LVU324
 1124 0006 0D46     		mov	r5, r1
 1125              	.LBB129:
 1126              	.LBB128:
  53:D:/fchai/work/i-cube/I-CUBE-HUAWEI/Drivers/BSP/Components/stts751\stts751_reg.c ****   return ret;
 1127              		.loc 1 53 9 view .LVU325
 1128 0008 D0E90160 		ldrd	r6, r0, [r0, #4]
 1129              	.LVL82:
  53:D:/fchai/work/i-cube/I-CUBE-HUAWEI/Drivers/BSP/Components/stts751\stts751_reg.c ****   return ret;
 1130              		.loc 1 53 9 view .LVU326
 1131 000c 01AA     		add	r2, sp, #4
 1132              	.LVL83:
  53:D:/fchai/work/i-cube/I-CUBE-HUAWEI/Drivers/BSP/Components/stts751\stts751_reg.c ****   return ret;
 1133              		.loc 1 53 9 view .LVU327
 1134 000e 0123     		movs	r3, #1
 1135 0010 0321     		movs	r1, #3
 1136              	.LVL84:
  53:D:/fchai/work/i-cube/I-CUBE-HUAWEI/Drivers/BSP/Components/stts751\stts751_reg.c ****   return ret;
 1137              		.loc 1 53 9 view .LVU328
 1138 0012 B047     		blx	r6
 1139              	.LVL85:
  54:D:/fchai/work/i-cube/I-CUBE-HUAWEI/Drivers/BSP/Components/stts751\stts751_reg.c **** }
 1140              		.loc 1 54 3 is_stmt 1 view .LVU329
  54:D:/fchai/work/i-cube/I-CUBE-HUAWEI/Drivers/BSP/Components/stts751\stts751_reg.c **** }
 1141              		.loc 1 54 3 is_stmt 0 view .LVU330
 1142              	.LBE128:
 1143              	.LBE129:
 384:D:/fchai/work/i-cube/I-CUBE-HUAWEI/Drivers/BSP/Components/stts751\stts751_reg.c ****   if (ret == 0) {
 1144              		.loc 1 384 3 is_stmt 1 view .LVU331
 1145              		.loc 1 384 6 is_stmt 0 view .LVU332
 1146 0014 58B9     		cbnz	r0, .L47
 385:D:/fchai/work/i-cube/I-CUBE-HUAWEI/Drivers/BSP/Components/stts751\stts751_reg.c ****     reg.mask1 = val;
 1147              		.loc 1 385 5 is_stmt 1 view .LVU333
 1148              		.loc 1 385 15 is_stmt 0 view .LVU334
ARM GAS  T:\msys\tmp\cc68iQTc.s 			page 31


 1149 0016 9DF80430 		ldrb	r3, [sp, #4]	@ zero_extendqisi2
 1150              	.LBB130:
 1151              	.LBB131:
  71:D:/fchai/work/i-cube/I-CUBE-HUAWEI/Drivers/BSP/Components/stts751\stts751_reg.c ****   return ret;
 1152              		.loc 1 71 9 view .LVU335
 1153 001a 2668     		ldr	r6, [r4]
 1154 001c A068     		ldr	r0, [r4, #8]
 1155              	.LVL86:
  71:D:/fchai/work/i-cube/I-CUBE-HUAWEI/Drivers/BSP/Components/stts751\stts751_reg.c ****   return ret;
 1156              		.loc 1 71 9 view .LVU336
 1157              	.LBE131:
 1158              	.LBE130:
 1159              		.loc 1 385 15 view .LVU337
 1160 001e 65F3C713 		bfi	r3, r5, #7, #1
 1161 0022 8DF80430 		strb	r3, [sp, #4]
 386:D:/fchai/work/i-cube/I-CUBE-HUAWEI/Drivers/BSP/Components/stts751\stts751_reg.c ****     ret = stts751_write_reg(ctx, STTS751_CONFIGURATION, (uint8_t*)&reg, 1);
 1162              		.loc 1 386 5 is_stmt 1 view .LVU338
 1163              	.LVL87:
 1164              	.LBB133:
 1165              	.LBI130:
  67:D:/fchai/work/i-cube/I-CUBE-HUAWEI/Drivers/BSP/Components/stts751\stts751_reg.c ****                            uint16_t len)
 1166              		.loc 1 67 9 view .LVU339
 1167              	.LBB132:
  70:D:/fchai/work/i-cube/I-CUBE-HUAWEI/Drivers/BSP/Components/stts751\stts751_reg.c ****   ret = ctx->write_reg(ctx->handle, reg, data, len);
 1168              		.loc 1 70 3 view .LVU340
  71:D:/fchai/work/i-cube/I-CUBE-HUAWEI/Drivers/BSP/Components/stts751\stts751_reg.c ****   return ret;
 1169              		.loc 1 71 3 view .LVU341
  71:D:/fchai/work/i-cube/I-CUBE-HUAWEI/Drivers/BSP/Components/stts751\stts751_reg.c ****   return ret;
 1170              		.loc 1 71 9 is_stmt 0 view .LVU342
 1171 0026 01AA     		add	r2, sp, #4
 1172              	.LVL88:
  71:D:/fchai/work/i-cube/I-CUBE-HUAWEI/Drivers/BSP/Components/stts751\stts751_reg.c ****   return ret;
 1173              		.loc 1 71 9 view .LVU343
 1174 0028 0123     		movs	r3, #1
 1175 002a 0321     		movs	r1, #3
 1176 002c B047     		blx	r6
 1177              	.LVL89:
  72:D:/fchai/work/i-cube/I-CUBE-HUAWEI/Drivers/BSP/Components/stts751\stts751_reg.c **** }
 1178              		.loc 1 72 3 is_stmt 1 view .LVU344
  72:D:/fchai/work/i-cube/I-CUBE-HUAWEI/Drivers/BSP/Components/stts751\stts751_reg.c **** }
 1179              		.loc 1 72 3 is_stmt 0 view .LVU345
 1180              	.LBE132:
 1181              	.LBE133:
 387:D:/fchai/work/i-cube/I-CUBE-HUAWEI/Drivers/BSP/Components/stts751\stts751_reg.c ****   }
 388:D:/fchai/work/i-cube/I-CUBE-HUAWEI/Drivers/BSP/Components/stts751\stts751_reg.c ****   return ret;
 1182              		.loc 1 388 3 is_stmt 1 view .LVU346
 1183              	.L47:
 389:D:/fchai/work/i-cube/I-CUBE-HUAWEI/Drivers/BSP/Components/stts751\stts751_reg.c **** }
 1184              		.loc 1 389 1 is_stmt 0 view .LVU347
 1185 002e 02B0     		add	sp, sp, #8
 1186              	.LCFI33:
 1187              		.cfi_def_cfa_offset 16
 1188              		@ sp needed
 1189 0030 70BD     		pop	{r4, r5, r6, pc}
 1190              		.loc 1 389 1 view .LVU348
 1191              		.cfi_endproc
 1192              	.LFE11:
ARM GAS  T:\msys\tmp\cc68iQTc.s 			page 32


 1194 0032 00BF     		.section	.text.stts751_pin_event_route_get,"ax",%progbits
 1195              		.align	1
 1196              		.p2align 2,,3
 1197              		.global	stts751_pin_event_route_get
 1198              		.syntax unified
 1199              		.thumb
 1200              		.thumb_func
 1201              		.fpu fpv4-sp-d16
 1203              	stts751_pin_event_route_get:
 1204              	.LVL90:
 1205              	.LFB12:
 390:D:/fchai/work/i-cube/I-CUBE-HUAWEI/Drivers/BSP/Components/stts751\stts751_reg.c **** 
 391:D:/fchai/work/i-cube/I-CUBE-HUAWEI/Drivers/BSP/Components/stts751\stts751_reg.c **** /**
 392:D:/fchai/work/i-cube/I-CUBE-HUAWEI/Drivers/BSP/Components/stts751\stts751_reg.c ****   * @brief  Route interrupt signal threshold on event pad.[get]
 393:D:/fchai/work/i-cube/I-CUBE-HUAWEI/Drivers/BSP/Components/stts751\stts751_reg.c ****   *
 394:D:/fchai/work/i-cube/I-CUBE-HUAWEI/Drivers/BSP/Components/stts751\stts751_reg.c ****   * @param  ctx      read / write interface definitions
 395:D:/fchai/work/i-cube/I-CUBE-HUAWEI/Drivers/BSP/Components/stts751\stts751_reg.c ****   * @param  val      get mask1 bit in register CONFIGURATION.
 396:D:/fchai/work/i-cube/I-CUBE-HUAWEI/Drivers/BSP/Components/stts751\stts751_reg.c ****   * @retval          interface status (MANDATORY: return 0 -> no Error)
 397:D:/fchai/work/i-cube/I-CUBE-HUAWEI/Drivers/BSP/Components/stts751\stts751_reg.c ****   *
 398:D:/fchai/work/i-cube/I-CUBE-HUAWEI/Drivers/BSP/Components/stts751\stts751_reg.c ****   */
 399:D:/fchai/work/i-cube/I-CUBE-HUAWEI/Drivers/BSP/Components/stts751\stts751_reg.c **** int32_t stts751_pin_event_route_get(stmdev_ctx_t *ctx, uint8_t *val)
 400:D:/fchai/work/i-cube/I-CUBE-HUAWEI/Drivers/BSP/Components/stts751\stts751_reg.c **** {
 1206              		.loc 1 400 1 is_stmt 1 view -0
 1207              		.cfi_startproc
 1208              		@ args = 0, pretend = 0, frame = 8
 1209              		@ frame_needed = 0, uses_anonymous_args = 0
 401:D:/fchai/work/i-cube/I-CUBE-HUAWEI/Drivers/BSP/Components/stts751\stts751_reg.c ****   stts751_configuration_t reg;
 1210              		.loc 1 401 3 view .LVU350
 402:D:/fchai/work/i-cube/I-CUBE-HUAWEI/Drivers/BSP/Components/stts751\stts751_reg.c ****   int32_t ret;
 1211              		.loc 1 402 3 view .LVU351
 403:D:/fchai/work/i-cube/I-CUBE-HUAWEI/Drivers/BSP/Components/stts751\stts751_reg.c ****   ret = stts751_read_reg(ctx, STTS751_CONFIGURATION, (uint8_t*)&reg, 1);
 1212              		.loc 1 403 3 view .LVU352
 400:D:/fchai/work/i-cube/I-CUBE-HUAWEI/Drivers/BSP/Components/stts751\stts751_reg.c ****   stts751_configuration_t reg;
 1213              		.loc 1 400 1 is_stmt 0 view .LVU353
 1214 0000 30B5     		push	{r4, r5, lr}
 1215              	.LCFI34:
 1216              		.cfi_def_cfa_offset 12
 1217              		.cfi_offset 4, -12
 1218              		.cfi_offset 5, -8
 1219              		.cfi_offset 14, -4
 1220 0002 83B0     		sub	sp, sp, #12
 1221              	.LCFI35:
 1222              		.cfi_def_cfa_offset 24
 1223              	.LVL91:
 1224              	.LBB134:
 1225              	.LBI134:
  49:D:/fchai/work/i-cube/I-CUBE-HUAWEI/Drivers/BSP/Components/stts751\stts751_reg.c ****                           uint16_t len)
 1226              		.loc 1 49 9 is_stmt 1 view .LVU354
 1227              	.LBB135:
  52:D:/fchai/work/i-cube/I-CUBE-HUAWEI/Drivers/BSP/Components/stts751\stts751_reg.c ****   ret = ctx->read_reg(ctx->handle, reg, data, len);
 1228              		.loc 1 52 3 view .LVU355
  53:D:/fchai/work/i-cube/I-CUBE-HUAWEI/Drivers/BSP/Components/stts751\stts751_reg.c ****   return ret;
 1229              		.loc 1 53 3 view .LVU356
 1230              	.LBE135:
 1231              	.LBE134:
 400:D:/fchai/work/i-cube/I-CUBE-HUAWEI/Drivers/BSP/Components/stts751\stts751_reg.c ****   stts751_configuration_t reg;
 1232              		.loc 1 400 1 is_stmt 0 view .LVU357
ARM GAS  T:\msys\tmp\cc68iQTc.s 			page 33


 1233 0004 0C46     		mov	r4, r1
 1234              	.LBB137:
 1235              	.LBB136:
  53:D:/fchai/work/i-cube/I-CUBE-HUAWEI/Drivers/BSP/Components/stts751\stts751_reg.c ****   return ret;
 1236              		.loc 1 53 9 view .LVU358
 1237 0006 D0E90150 		ldrd	r5, r0, [r0, #4]
 1238              	.LVL92:
  53:D:/fchai/work/i-cube/I-CUBE-HUAWEI/Drivers/BSP/Components/stts751\stts751_reg.c ****   return ret;
 1239              		.loc 1 53 9 view .LVU359
 1240 000a 0123     		movs	r3, #1
 1241 000c 01AA     		add	r2, sp, #4
 1242              	.LVL93:
  53:D:/fchai/work/i-cube/I-CUBE-HUAWEI/Drivers/BSP/Components/stts751\stts751_reg.c ****   return ret;
 1243              		.loc 1 53 9 view .LVU360
 1244 000e 0321     		movs	r1, #3
 1245              	.LVL94:
  53:D:/fchai/work/i-cube/I-CUBE-HUAWEI/Drivers/BSP/Components/stts751\stts751_reg.c ****   return ret;
 1246              		.loc 1 53 9 view .LVU361
 1247 0010 A847     		blx	r5
 1248              	.LVL95:
  54:D:/fchai/work/i-cube/I-CUBE-HUAWEI/Drivers/BSP/Components/stts751\stts751_reg.c **** }
 1249              		.loc 1 54 3 is_stmt 1 view .LVU362
  54:D:/fchai/work/i-cube/I-CUBE-HUAWEI/Drivers/BSP/Components/stts751\stts751_reg.c **** }
 1250              		.loc 1 54 3 is_stmt 0 view .LVU363
 1251              	.LBE136:
 1252              	.LBE137:
 404:D:/fchai/work/i-cube/I-CUBE-HUAWEI/Drivers/BSP/Components/stts751\stts751_reg.c ****   *val = reg.mask1;
 1253              		.loc 1 404 3 is_stmt 1 view .LVU364
 1254              		.loc 1 404 13 is_stmt 0 view .LVU365
 1255 0012 9DF80430 		ldrb	r3, [sp, #4]	@ zero_extendqisi2
 1256 0016 C3F3C013 		ubfx	r3, r3, #7, #1
 1257              		.loc 1 404 8 view .LVU366
 1258 001a 2370     		strb	r3, [r4]
 405:D:/fchai/work/i-cube/I-CUBE-HUAWEI/Drivers/BSP/Components/stts751\stts751_reg.c ****   return ret;
 1259              		.loc 1 405 3 is_stmt 1 view .LVU367
 406:D:/fchai/work/i-cube/I-CUBE-HUAWEI/Drivers/BSP/Components/stts751\stts751_reg.c **** }
 1260              		.loc 1 406 1 is_stmt 0 view .LVU368
 1261 001c 03B0     		add	sp, sp, #12
 1262              	.LCFI36:
 1263              		.cfi_def_cfa_offset 12
 1264              		@ sp needed
 1265 001e 30BD     		pop	{r4, r5, pc}
 1266              		.loc 1 406 1 view .LVU369
 1267              		.cfi_endproc
 1268              	.LFE12:
 1270              		.section	.text.stts751_high_temperature_threshold_set,"ax",%progbits
 1271              		.align	1
 1272              		.p2align 2,,3
 1273              		.global	stts751_high_temperature_threshold_set
 1274              		.syntax unified
 1275              		.thumb
 1276              		.thumb_func
 1277              		.fpu fpv4-sp-d16
 1279              	stts751_high_temperature_threshold_set:
 1280              	.LVL96:
 1281              	.LFB13:
 407:D:/fchai/work/i-cube/I-CUBE-HUAWEI/Drivers/BSP/Components/stts751\stts751_reg.c **** 
ARM GAS  T:\msys\tmp\cc68iQTc.s 			page 34


 408:D:/fchai/work/i-cube/I-CUBE-HUAWEI/Drivers/BSP/Components/stts751\stts751_reg.c **** /**
 409:D:/fchai/work/i-cube/I-CUBE-HUAWEI/Drivers/BSP/Components/stts751\stts751_reg.c ****   * @}
 410:D:/fchai/work/i-cube/I-CUBE-HUAWEI/Drivers/BSP/Components/stts751\stts751_reg.c ****   *
 411:D:/fchai/work/i-cube/I-CUBE-HUAWEI/Drivers/BSP/Components/stts751\stts751_reg.c ****   */
 412:D:/fchai/work/i-cube/I-CUBE-HUAWEI/Drivers/BSP/Components/stts751\stts751_reg.c **** 
 413:D:/fchai/work/i-cube/I-CUBE-HUAWEI/Drivers/BSP/Components/stts751\stts751_reg.c **** /**
 414:D:/fchai/work/i-cube/I-CUBE-HUAWEI/Drivers/BSP/Components/stts751\stts751_reg.c ****   * @defgroup  STTS751_Interrupt_on_threshold
 415:D:/fchai/work/i-cube/I-CUBE-HUAWEI/Drivers/BSP/Components/stts751\stts751_reg.c ****   * @brief     This section groups all the functions that manage interrupt
 416:D:/fchai/work/i-cube/I-CUBE-HUAWEI/Drivers/BSP/Components/stts751\stts751_reg.c ****   *            on threshold event
 417:D:/fchai/work/i-cube/I-CUBE-HUAWEI/Drivers/BSP/Components/stts751\stts751_reg.c ****   * @{
 418:D:/fchai/work/i-cube/I-CUBE-HUAWEI/Drivers/BSP/Components/stts751\stts751_reg.c ****   *
 419:D:/fchai/work/i-cube/I-CUBE-HUAWEI/Drivers/BSP/Components/stts751\stts751_reg.c ****   */
 420:D:/fchai/work/i-cube/I-CUBE-HUAWEI/Drivers/BSP/Components/stts751\stts751_reg.c **** 
 421:D:/fchai/work/i-cube/I-CUBE-HUAWEI/Drivers/BSP/Components/stts751\stts751_reg.c **** /**
 422:D:/fchai/work/i-cube/I-CUBE-HUAWEI/Drivers/BSP/Components/stts751\stts751_reg.c ****   * @brief  high temperature theshold.[set]
 423:D:/fchai/work/i-cube/I-CUBE-HUAWEI/Drivers/BSP/Components/stts751\stts751_reg.c ****   *
 424:D:/fchai/work/i-cube/I-CUBE-HUAWEI/Drivers/BSP/Components/stts751\stts751_reg.c ****   * @param  ctx      read / write interface definitions
 425:D:/fchai/work/i-cube/I-CUBE-HUAWEI/Drivers/BSP/Components/stts751\stts751_reg.c ****   * @param  buff     buffer that contains data to write
 426:D:/fchai/work/i-cube/I-CUBE-HUAWEI/Drivers/BSP/Components/stts751\stts751_reg.c ****   * @retval          interface status (MANDATORY: return 0 -> no Error)
 427:D:/fchai/work/i-cube/I-CUBE-HUAWEI/Drivers/BSP/Components/stts751\stts751_reg.c ****   *
 428:D:/fchai/work/i-cube/I-CUBE-HUAWEI/Drivers/BSP/Components/stts751\stts751_reg.c ****   */
 429:D:/fchai/work/i-cube/I-CUBE-HUAWEI/Drivers/BSP/Components/stts751\stts751_reg.c **** int32_t stts751_high_temperature_threshold_set(stmdev_ctx_t *ctx,
 430:D:/fchai/work/i-cube/I-CUBE-HUAWEI/Drivers/BSP/Components/stts751\stts751_reg.c ****                                                int16_t buff)
 431:D:/fchai/work/i-cube/I-CUBE-HUAWEI/Drivers/BSP/Components/stts751\stts751_reg.c **** {
 1282              		.loc 1 431 1 is_stmt 1 view -0
 1283              		.cfi_startproc
 1284              		@ args = 0, pretend = 0, frame = 8
 1285              		@ frame_needed = 0, uses_anonymous_args = 0
 432:D:/fchai/work/i-cube/I-CUBE-HUAWEI/Drivers/BSP/Components/stts751\stts751_reg.c ****   uint8_t *temperature_ptr;
 1286              		.loc 1 432 3 view .LVU371
 433:D:/fchai/work/i-cube/I-CUBE-HUAWEI/Drivers/BSP/Components/stts751\stts751_reg.c ****   int32_t ret;
 1287              		.loc 1 433 3 view .LVU372
 434:D:/fchai/work/i-cube/I-CUBE-HUAWEI/Drivers/BSP/Components/stts751\stts751_reg.c **** 
 435:D:/fchai/work/i-cube/I-CUBE-HUAWEI/Drivers/BSP/Components/stts751\stts751_reg.c ****   temperature_ptr = (uint8_t*)&buff;
 1288              		.loc 1 435 3 view .LVU373
 431:D:/fchai/work/i-cube/I-CUBE-HUAWEI/Drivers/BSP/Components/stts751\stts751_reg.c ****   uint8_t *temperature_ptr;
 1289              		.loc 1 431 1 is_stmt 0 view .LVU374
 1290 0000 30B5     		push	{r4, r5, lr}
 1291              	.LCFI37:
 1292              		.cfi_def_cfa_offset 12
 1293              		.cfi_offset 4, -12
 1294              		.cfi_offset 5, -8
 1295              		.cfi_offset 14, -4
 1296 0002 83B0     		sub	sp, sp, #12
 1297              	.LCFI38:
 1298              		.cfi_def_cfa_offset 24
 1299              	.LVL97:
 436:D:/fchai/work/i-cube/I-CUBE-HUAWEI/Drivers/BSP/Components/stts751\stts751_reg.c ****   ret = stts751_write_reg(ctx, STTS751_TEMPERATURE_HIGH_LIMIT_LOW,
 1300              		.loc 1 436 3 is_stmt 1 view .LVU375
 1301              	.LBB138:
 1302              	.LBB139:
  71:D:/fchai/work/i-cube/I-CUBE-HUAWEI/Drivers/BSP/Components/stts751\stts751_reg.c ****   return ret;
 1303              		.loc 1 71 9 is_stmt 0 view .LVU376
 1304 0004 0568     		ldr	r5, [r0]
 1305              	.LBE139:
 1306              	.LBE138:
 431:D:/fchai/work/i-cube/I-CUBE-HUAWEI/Drivers/BSP/Components/stts751\stts751_reg.c ****   uint8_t *temperature_ptr;
ARM GAS  T:\msys\tmp\cc68iQTc.s 			page 35


 1307              		.loc 1 431 1 view .LVU377
 1308 0006 ADF80610 		strh	r1, [sp, #6]	@ movhi
 1309 000a 0446     		mov	r4, r0
 1310              	.LVL98:
 1311              	.LBB141:
 1312              	.LBI138:
  67:D:/fchai/work/i-cube/I-CUBE-HUAWEI/Drivers/BSP/Components/stts751\stts751_reg.c ****                            uint16_t len)
 1313              		.loc 1 67 9 is_stmt 1 view .LVU378
 1314              	.LBB140:
  70:D:/fchai/work/i-cube/I-CUBE-HUAWEI/Drivers/BSP/Components/stts751\stts751_reg.c ****   ret = ctx->write_reg(ctx->handle, reg, data, len);
 1315              		.loc 1 70 3 view .LVU379
  71:D:/fchai/work/i-cube/I-CUBE-HUAWEI/Drivers/BSP/Components/stts751\stts751_reg.c ****   return ret;
 1316              		.loc 1 71 3 view .LVU380
  71:D:/fchai/work/i-cube/I-CUBE-HUAWEI/Drivers/BSP/Components/stts751\stts751_reg.c ****   return ret;
 1317              		.loc 1 71 9 is_stmt 0 view .LVU381
 1318 000c 0123     		movs	r3, #1
 1319 000e 8068     		ldr	r0, [r0, #8]
 1320              	.LVL99:
  71:D:/fchai/work/i-cube/I-CUBE-HUAWEI/Drivers/BSP/Components/stts751\stts751_reg.c ****   return ret;
 1321              		.loc 1 71 9 view .LVU382
 1322 0010 0DF10602 		add	r2, sp, #6
 1323              	.LVL100:
  71:D:/fchai/work/i-cube/I-CUBE-HUAWEI/Drivers/BSP/Components/stts751\stts751_reg.c ****   return ret;
 1324              		.loc 1 71 9 view .LVU383
 1325 0014 0621     		movs	r1, #6
 1326              	.LVL101:
  71:D:/fchai/work/i-cube/I-CUBE-HUAWEI/Drivers/BSP/Components/stts751\stts751_reg.c ****   return ret;
 1327              		.loc 1 71 9 view .LVU384
 1328 0016 A847     		blx	r5
 1329              	.LVL102:
  72:D:/fchai/work/i-cube/I-CUBE-HUAWEI/Drivers/BSP/Components/stts751\stts751_reg.c **** }
 1330              		.loc 1 72 3 is_stmt 1 view .LVU385
  72:D:/fchai/work/i-cube/I-CUBE-HUAWEI/Drivers/BSP/Components/stts751\stts751_reg.c **** }
 1331              		.loc 1 72 3 is_stmt 0 view .LVU386
 1332              	.LBE140:
 1333              	.LBE141:
 437:D:/fchai/work/i-cube/I-CUBE-HUAWEI/Drivers/BSP/Components/stts751\stts751_reg.c ****                           (uint8_t*)temperature_ptr, 1);
 438:D:/fchai/work/i-cube/I-CUBE-HUAWEI/Drivers/BSP/Components/stts751\stts751_reg.c **** 
 439:D:/fchai/work/i-cube/I-CUBE-HUAWEI/Drivers/BSP/Components/stts751\stts751_reg.c ****   if (ret == 0) {
 1334              		.loc 1 439 3 is_stmt 1 view .LVU387
 1335              		.loc 1 439 6 is_stmt 0 view .LVU388
 1336 0018 30B9     		cbnz	r0, .L52
 440:D:/fchai/work/i-cube/I-CUBE-HUAWEI/Drivers/BSP/Components/stts751\stts751_reg.c ****     temperature_ptr++;
 1337              		.loc 1 440 5 is_stmt 1 view .LVU389
 1338              	.LVL103:
 441:D:/fchai/work/i-cube/I-CUBE-HUAWEI/Drivers/BSP/Components/stts751\stts751_reg.c ****     ret = stts751_write_reg(ctx, STTS751_TEMPERATURE_HIGH_LIMIT_HIGH,
 1339              		.loc 1 441 5 view .LVU390
 1340              	.LBB142:
 1341              	.LBI142:
  67:D:/fchai/work/i-cube/I-CUBE-HUAWEI/Drivers/BSP/Components/stts751\stts751_reg.c ****                            uint16_t len)
 1342              		.loc 1 67 9 view .LVU391
 1343              	.LBB143:
  70:D:/fchai/work/i-cube/I-CUBE-HUAWEI/Drivers/BSP/Components/stts751\stts751_reg.c ****   ret = ctx->write_reg(ctx->handle, reg, data, len);
 1344              		.loc 1 70 3 view .LVU392
  71:D:/fchai/work/i-cube/I-CUBE-HUAWEI/Drivers/BSP/Components/stts751\stts751_reg.c ****   return ret;
 1345              		.loc 1 71 3 view .LVU393
  71:D:/fchai/work/i-cube/I-CUBE-HUAWEI/Drivers/BSP/Components/stts751\stts751_reg.c ****   return ret;
ARM GAS  T:\msys\tmp\cc68iQTc.s 			page 36


 1346              		.loc 1 71 9 is_stmt 0 view .LVU394
 1347 001a 2568     		ldr	r5, [r4]
 1348 001c A068     		ldr	r0, [r4, #8]
 1349              	.LVL104:
  71:D:/fchai/work/i-cube/I-CUBE-HUAWEI/Drivers/BSP/Components/stts751\stts751_reg.c ****   return ret;
 1350              		.loc 1 71 9 view .LVU395
 1351 001e 0123     		movs	r3, #1
 1352 0020 0DF10702 		add	r2, sp, #7
 1353              	.LVL105:
  71:D:/fchai/work/i-cube/I-CUBE-HUAWEI/Drivers/BSP/Components/stts751\stts751_reg.c ****   return ret;
 1354              		.loc 1 71 9 view .LVU396
 1355 0024 0521     		movs	r1, #5
 1356 0026 A847     		blx	r5
 1357              	.LVL106:
  72:D:/fchai/work/i-cube/I-CUBE-HUAWEI/Drivers/BSP/Components/stts751\stts751_reg.c **** }
 1358              		.loc 1 72 3 is_stmt 1 view .LVU397
  72:D:/fchai/work/i-cube/I-CUBE-HUAWEI/Drivers/BSP/Components/stts751\stts751_reg.c **** }
 1359              		.loc 1 72 3 is_stmt 0 view .LVU398
 1360              	.LBE143:
 1361              	.LBE142:
 442:D:/fchai/work/i-cube/I-CUBE-HUAWEI/Drivers/BSP/Components/stts751\stts751_reg.c ****                             (uint8_t*)temperature_ptr, 1);
 443:D:/fchai/work/i-cube/I-CUBE-HUAWEI/Drivers/BSP/Components/stts751\stts751_reg.c ****   }
 444:D:/fchai/work/i-cube/I-CUBE-HUAWEI/Drivers/BSP/Components/stts751\stts751_reg.c **** 
 445:D:/fchai/work/i-cube/I-CUBE-HUAWEI/Drivers/BSP/Components/stts751\stts751_reg.c ****   return ret;
 1362              		.loc 1 445 3 is_stmt 1 view .LVU399
 1363              	.L52:
 446:D:/fchai/work/i-cube/I-CUBE-HUAWEI/Drivers/BSP/Components/stts751\stts751_reg.c **** }
 1364              		.loc 1 446 1 is_stmt 0 view .LVU400
 1365 0028 03B0     		add	sp, sp, #12
 1366              	.LCFI39:
 1367              		.cfi_def_cfa_offset 12
 1368              		@ sp needed
 1369 002a 30BD     		pop	{r4, r5, pc}
 1370              		.loc 1 446 1 view .LVU401
 1371              		.cfi_endproc
 1372              	.LFE13:
 1374              		.section	.text.stts751_high_temperature_threshold_get,"ax",%progbits
 1375              		.align	1
 1376              		.p2align 2,,3
 1377              		.global	stts751_high_temperature_threshold_get
 1378              		.syntax unified
 1379              		.thumb
 1380              		.thumb_func
 1381              		.fpu fpv4-sp-d16
 1383              	stts751_high_temperature_threshold_get:
 1384              	.LVL107:
 1385              	.LFB14:
 447:D:/fchai/work/i-cube/I-CUBE-HUAWEI/Drivers/BSP/Components/stts751\stts751_reg.c **** 
 448:D:/fchai/work/i-cube/I-CUBE-HUAWEI/Drivers/BSP/Components/stts751\stts751_reg.c **** /**
 449:D:/fchai/work/i-cube/I-CUBE-HUAWEI/Drivers/BSP/Components/stts751\stts751_reg.c ****   * @brief  high temperature theshold.[get]
 450:D:/fchai/work/i-cube/I-CUBE-HUAWEI/Drivers/BSP/Components/stts751\stts751_reg.c ****   *
 451:D:/fchai/work/i-cube/I-CUBE-HUAWEI/Drivers/BSP/Components/stts751\stts751_reg.c ****   * @param  ctx      read / write interface definitions
 452:D:/fchai/work/i-cube/I-CUBE-HUAWEI/Drivers/BSP/Components/stts751\stts751_reg.c ****   * @param  buff     buffer that stores data read
 453:D:/fchai/work/i-cube/I-CUBE-HUAWEI/Drivers/BSP/Components/stts751\stts751_reg.c ****   * @retval          interface status (MANDATORY: return 0 -> no Error)
 454:D:/fchai/work/i-cube/I-CUBE-HUAWEI/Drivers/BSP/Components/stts751\stts751_reg.c ****   *
 455:D:/fchai/work/i-cube/I-CUBE-HUAWEI/Drivers/BSP/Components/stts751\stts751_reg.c ****   */
 456:D:/fchai/work/i-cube/I-CUBE-HUAWEI/Drivers/BSP/Components/stts751\stts751_reg.c **** int32_t stts751_high_temperature_threshold_get(stmdev_ctx_t *ctx,
ARM GAS  T:\msys\tmp\cc68iQTc.s 			page 37


 457:D:/fchai/work/i-cube/I-CUBE-HUAWEI/Drivers/BSP/Components/stts751\stts751_reg.c ****                                                int16_t *buff)
 458:D:/fchai/work/i-cube/I-CUBE-HUAWEI/Drivers/BSP/Components/stts751\stts751_reg.c **** {
 1386              		.loc 1 458 1 is_stmt 1 view -0
 1387              		.cfi_startproc
 1388              		@ args = 0, pretend = 0, frame = 8
 1389              		@ frame_needed = 0, uses_anonymous_args = 0
 459:D:/fchai/work/i-cube/I-CUBE-HUAWEI/Drivers/BSP/Components/stts751\stts751_reg.c ****   uint16_t temperature;
 1390              		.loc 1 459 3 view .LVU403
 460:D:/fchai/work/i-cube/I-CUBE-HUAWEI/Drivers/BSP/Components/stts751\stts751_reg.c ****   uint8_t temperature_low;
 1391              		.loc 1 460 3 view .LVU404
 461:D:/fchai/work/i-cube/I-CUBE-HUAWEI/Drivers/BSP/Components/stts751\stts751_reg.c ****   int32_t ret;
 1392              		.loc 1 461 3 view .LVU405
 462:D:/fchai/work/i-cube/I-CUBE-HUAWEI/Drivers/BSP/Components/stts751\stts751_reg.c **** 
 463:D:/fchai/work/i-cube/I-CUBE-HUAWEI/Drivers/BSP/Components/stts751\stts751_reg.c ****   ret = stts751_read_reg(ctx, STTS751_TEMPERATURE_HIGH_LIMIT_HIGH,
 1393              		.loc 1 463 3 view .LVU406
 458:D:/fchai/work/i-cube/I-CUBE-HUAWEI/Drivers/BSP/Components/stts751\stts751_reg.c ****   uint16_t temperature;
 1394              		.loc 1 458 1 is_stmt 0 view .LVU407
 1395 0000 70B5     		push	{r4, r5, r6, lr}
 1396              	.LCFI40:
 1397              		.cfi_def_cfa_offset 16
 1398              		.cfi_offset 4, -16
 1399              		.cfi_offset 5, -12
 1400              		.cfi_offset 6, -8
 1401              		.cfi_offset 14, -4
 1402 0002 82B0     		sub	sp, sp, #8
 1403              	.LCFI41:
 1404              		.cfi_def_cfa_offset 24
 458:D:/fchai/work/i-cube/I-CUBE-HUAWEI/Drivers/BSP/Components/stts751\stts751_reg.c ****   uint16_t temperature;
 1405              		.loc 1 458 1 view .LVU408
 1406 0004 0446     		mov	r4, r0
 1407              	.LVL108:
 1408              	.LBB144:
 1409              	.LBI144:
  49:D:/fchai/work/i-cube/I-CUBE-HUAWEI/Drivers/BSP/Components/stts751\stts751_reg.c ****                           uint16_t len)
 1410              		.loc 1 49 9 is_stmt 1 view .LVU409
 1411              	.LBB145:
  52:D:/fchai/work/i-cube/I-CUBE-HUAWEI/Drivers/BSP/Components/stts751\stts751_reg.c ****   ret = ctx->read_reg(ctx->handle, reg, data, len);
 1412              		.loc 1 52 3 view .LVU410
  53:D:/fchai/work/i-cube/I-CUBE-HUAWEI/Drivers/BSP/Components/stts751\stts751_reg.c ****   return ret;
 1413              		.loc 1 53 3 view .LVU411
 1414              	.LBE145:
 1415              	.LBE144:
 458:D:/fchai/work/i-cube/I-CUBE-HUAWEI/Drivers/BSP/Components/stts751\stts751_reg.c ****   uint16_t temperature;
 1416              		.loc 1 458 1 is_stmt 0 view .LVU412
 1417 0006 0E46     		mov	r6, r1
 1418              	.LBB147:
 1419              	.LBB146:
  53:D:/fchai/work/i-cube/I-CUBE-HUAWEI/Drivers/BSP/Components/stts751\stts751_reg.c ****   return ret;
 1420              		.loc 1 53 9 view .LVU413
 1421 0008 D0E90150 		ldrd	r5, r0, [r0, #4]
 1422              	.LVL109:
  53:D:/fchai/work/i-cube/I-CUBE-HUAWEI/Drivers/BSP/Components/stts751\stts751_reg.c ****   return ret;
 1423              		.loc 1 53 9 view .LVU414
 1424 000c 0123     		movs	r3, #1
 1425 000e 0DF10602 		add	r2, sp, #6
 1426              	.LVL110:
  53:D:/fchai/work/i-cube/I-CUBE-HUAWEI/Drivers/BSP/Components/stts751\stts751_reg.c ****   return ret;
ARM GAS  T:\msys\tmp\cc68iQTc.s 			page 38


 1427              		.loc 1 53 9 view .LVU415
 1428 0012 0521     		movs	r1, #5
 1429              	.LVL111:
  53:D:/fchai/work/i-cube/I-CUBE-HUAWEI/Drivers/BSP/Components/stts751\stts751_reg.c ****   return ret;
 1430              		.loc 1 53 9 view .LVU416
 1431 0014 A847     		blx	r5
 1432              	.LVL112:
  54:D:/fchai/work/i-cube/I-CUBE-HUAWEI/Drivers/BSP/Components/stts751\stts751_reg.c **** }
 1433              		.loc 1 54 3 is_stmt 1 view .LVU417
  54:D:/fchai/work/i-cube/I-CUBE-HUAWEI/Drivers/BSP/Components/stts751\stts751_reg.c **** }
 1434              		.loc 1 54 3 is_stmt 0 view .LVU418
 1435              	.LBE146:
 1436              	.LBE147:
 464:D:/fchai/work/i-cube/I-CUBE-HUAWEI/Drivers/BSP/Components/stts751\stts751_reg.c ****                          (uint8_t*)&temperature, 1);
 465:D:/fchai/work/i-cube/I-CUBE-HUAWEI/Drivers/BSP/Components/stts751\stts751_reg.c ****   if (ret == 0) {
 1437              		.loc 1 465 3 is_stmt 1 view .LVU419
 1438              		.loc 1 465 6 is_stmt 0 view .LVU420
 1439 0016 68B9     		cbnz	r0, .L55
 466:D:/fchai/work/i-cube/I-CUBE-HUAWEI/Drivers/BSP/Components/stts751\stts751_reg.c ****     ret = stts751_read_reg(ctx, STTS751_TEMPERATURE_HIGH_LIMIT_LOW,
 1440              		.loc 1 466 5 is_stmt 1 view .LVU421
 1441              	.LVL113:
 1442              	.LBB148:
 1443              	.LBI148:
  49:D:/fchai/work/i-cube/I-CUBE-HUAWEI/Drivers/BSP/Components/stts751\stts751_reg.c ****                           uint16_t len)
 1444              		.loc 1 49 9 view .LVU422
 1445              	.LBB149:
  52:D:/fchai/work/i-cube/I-CUBE-HUAWEI/Drivers/BSP/Components/stts751\stts751_reg.c ****   ret = ctx->read_reg(ctx->handle, reg, data, len);
 1446              		.loc 1 52 3 view .LVU423
  53:D:/fchai/work/i-cube/I-CUBE-HUAWEI/Drivers/BSP/Components/stts751\stts751_reg.c ****   return ret;
 1447              		.loc 1 53 3 view .LVU424
  53:D:/fchai/work/i-cube/I-CUBE-HUAWEI/Drivers/BSP/Components/stts751\stts751_reg.c ****   return ret;
 1448              		.loc 1 53 9 is_stmt 0 view .LVU425
 1449 0018 0123     		movs	r3, #1
 1450 001a 0DF10502 		add	r2, sp, #5
 1451              	.LVL114:
  53:D:/fchai/work/i-cube/I-CUBE-HUAWEI/Drivers/BSP/Components/stts751\stts751_reg.c ****   return ret;
 1452              		.loc 1 53 9 view .LVU426
 1453 001e D4E90150 		ldrd	r5, r0, [r4, #4]
 1454              	.LVL115:
  53:D:/fchai/work/i-cube/I-CUBE-HUAWEI/Drivers/BSP/Components/stts751\stts751_reg.c ****   return ret;
 1455              		.loc 1 53 9 view .LVU427
 1456 0022 0621     		movs	r1, #6
 1457 0024 A847     		blx	r5
 1458              	.LVL116:
  53:D:/fchai/work/i-cube/I-CUBE-HUAWEI/Drivers/BSP/Components/stts751\stts751_reg.c ****   return ret;
 1459              		.loc 1 53 9 view .LVU428
 1460              	.LBE149:
 1461              	.LBE148:
 467:D:/fchai/work/i-cube/I-CUBE-HUAWEI/Drivers/BSP/Components/stts751\stts751_reg.c ****                            &temperature_low, 1);
 468:D:/fchai/work/i-cube/I-CUBE-HUAWEI/Drivers/BSP/Components/stts751\stts751_reg.c **** 
 469:D:/fchai/work/i-cube/I-CUBE-HUAWEI/Drivers/BSP/Components/stts751\stts751_reg.c ****     temperature  = (temperature << 8) + temperature_low;
 1462              		.loc 1 469 33 view .LVU429
 1463 0026 BDF80620 		ldrh	r2, [sp, #6]
 1464              		.loc 1 469 39 view .LVU430
 1465 002a 9DF80530 		ldrb	r3, [sp, #5]	@ zero_extendqisi2
 1466 002e 03EB0223 		add	r3, r3, r2, lsl #8
 1467              	.LVL117:
ARM GAS  T:\msys\tmp\cc68iQTc.s 			page 39


 1468              	.LBB151:
 1469              	.LBB150:
  54:D:/fchai/work/i-cube/I-CUBE-HUAWEI/Drivers/BSP/Components/stts751\stts751_reg.c **** }
 1470              		.loc 1 54 3 is_stmt 1 view .LVU431
  54:D:/fchai/work/i-cube/I-CUBE-HUAWEI/Drivers/BSP/Components/stts751\stts751_reg.c **** }
 1471              		.loc 1 54 3 is_stmt 0 view .LVU432
 1472              	.LBE150:
 1473              	.LBE151:
 1474              		.loc 1 469 5 is_stmt 1 view .LVU433
 470:D:/fchai/work/i-cube/I-CUBE-HUAWEI/Drivers/BSP/Components/stts751\stts751_reg.c ****     *buff = (int16_t)temperature;
 1475              		.loc 1 470 5 view .LVU434
 1476              		.loc 1 470 11 is_stmt 0 view .LVU435
 1477 0032 3380     		strh	r3, [r6]	@ movhi
 471:D:/fchai/work/i-cube/I-CUBE-HUAWEI/Drivers/BSP/Components/stts751\stts751_reg.c ****   }
 472:D:/fchai/work/i-cube/I-CUBE-HUAWEI/Drivers/BSP/Components/stts751\stts751_reg.c ****   return ret;
 1478              		.loc 1 472 3 is_stmt 1 view .LVU436
 1479              	.L55:
 473:D:/fchai/work/i-cube/I-CUBE-HUAWEI/Drivers/BSP/Components/stts751\stts751_reg.c **** }
 1480              		.loc 1 473 1 is_stmt 0 view .LVU437
 1481 0034 02B0     		add	sp, sp, #8
 1482              	.LCFI42:
 1483              		.cfi_def_cfa_offset 16
 1484              		@ sp needed
 1485 0036 70BD     		pop	{r4, r5, r6, pc}
 1486              		.loc 1 473 1 view .LVU438
 1487              		.cfi_endproc
 1488              	.LFE14:
 1490              		.section	.text.stts751_low_temperature_threshold_set,"ax",%progbits
 1491              		.align	1
 1492              		.p2align 2,,3
 1493              		.global	stts751_low_temperature_threshold_set
 1494              		.syntax unified
 1495              		.thumb
 1496              		.thumb_func
 1497              		.fpu fpv4-sp-d16
 1499              	stts751_low_temperature_threshold_set:
 1500              	.LVL118:
 1501              	.LFB15:
 474:D:/fchai/work/i-cube/I-CUBE-HUAWEI/Drivers/BSP/Components/stts751\stts751_reg.c **** 
 475:D:/fchai/work/i-cube/I-CUBE-HUAWEI/Drivers/BSP/Components/stts751\stts751_reg.c **** /**
 476:D:/fchai/work/i-cube/I-CUBE-HUAWEI/Drivers/BSP/Components/stts751\stts751_reg.c ****   * @brief  low temperature theshold.[set]
 477:D:/fchai/work/i-cube/I-CUBE-HUAWEI/Drivers/BSP/Components/stts751\stts751_reg.c ****   *
 478:D:/fchai/work/i-cube/I-CUBE-HUAWEI/Drivers/BSP/Components/stts751\stts751_reg.c ****   * @param  ctx      read / write interface definitions
 479:D:/fchai/work/i-cube/I-CUBE-HUAWEI/Drivers/BSP/Components/stts751\stts751_reg.c ****   * @param  buff     buffer that contains data to write
 480:D:/fchai/work/i-cube/I-CUBE-HUAWEI/Drivers/BSP/Components/stts751\stts751_reg.c ****   * @retval          interface status (MANDATORY: return 0 -> no Error)
 481:D:/fchai/work/i-cube/I-CUBE-HUAWEI/Drivers/BSP/Components/stts751\stts751_reg.c ****   *
 482:D:/fchai/work/i-cube/I-CUBE-HUAWEI/Drivers/BSP/Components/stts751\stts751_reg.c ****   */
 483:D:/fchai/work/i-cube/I-CUBE-HUAWEI/Drivers/BSP/Components/stts751\stts751_reg.c **** int32_t stts751_low_temperature_threshold_set(stmdev_ctx_t *ctx,
 484:D:/fchai/work/i-cube/I-CUBE-HUAWEI/Drivers/BSP/Components/stts751\stts751_reg.c ****                                               int16_t buff)
 485:D:/fchai/work/i-cube/I-CUBE-HUAWEI/Drivers/BSP/Components/stts751\stts751_reg.c **** {
 1502              		.loc 1 485 1 is_stmt 1 view -0
 1503              		.cfi_startproc
 1504              		@ args = 0, pretend = 0, frame = 8
 1505              		@ frame_needed = 0, uses_anonymous_args = 0
 486:D:/fchai/work/i-cube/I-CUBE-HUAWEI/Drivers/BSP/Components/stts751\stts751_reg.c **** 
 487:D:/fchai/work/i-cube/I-CUBE-HUAWEI/Drivers/BSP/Components/stts751\stts751_reg.c ****   uint8_t *temperature_ptr;
 1506              		.loc 1 487 3 view .LVU440
ARM GAS  T:\msys\tmp\cc68iQTc.s 			page 40


 488:D:/fchai/work/i-cube/I-CUBE-HUAWEI/Drivers/BSP/Components/stts751\stts751_reg.c ****   int32_t ret;
 1507              		.loc 1 488 3 view .LVU441
 489:D:/fchai/work/i-cube/I-CUBE-HUAWEI/Drivers/BSP/Components/stts751\stts751_reg.c **** 
 490:D:/fchai/work/i-cube/I-CUBE-HUAWEI/Drivers/BSP/Components/stts751\stts751_reg.c ****   temperature_ptr = (uint8_t*)&buff;
 1508              		.loc 1 490 3 view .LVU442
 485:D:/fchai/work/i-cube/I-CUBE-HUAWEI/Drivers/BSP/Components/stts751\stts751_reg.c **** 
 1509              		.loc 1 485 1 is_stmt 0 view .LVU443
 1510 0000 30B5     		push	{r4, r5, lr}
 1511              	.LCFI43:
 1512              		.cfi_def_cfa_offset 12
 1513              		.cfi_offset 4, -12
 1514              		.cfi_offset 5, -8
 1515              		.cfi_offset 14, -4
 1516 0002 83B0     		sub	sp, sp, #12
 1517              	.LCFI44:
 1518              		.cfi_def_cfa_offset 24
 1519              	.LVL119:
 491:D:/fchai/work/i-cube/I-CUBE-HUAWEI/Drivers/BSP/Components/stts751\stts751_reg.c ****   ret = stts751_write_reg(ctx, STTS751_TEMPERATURE_LOW_LIMIT_LOW,
 1520              		.loc 1 491 3 is_stmt 1 view .LVU444
 1521              	.LBB152:
 1522              	.LBB153:
  71:D:/fchai/work/i-cube/I-CUBE-HUAWEI/Drivers/BSP/Components/stts751\stts751_reg.c ****   return ret;
 1523              		.loc 1 71 9 is_stmt 0 view .LVU445
 1524 0004 0568     		ldr	r5, [r0]
 1525              	.LBE153:
 1526              	.LBE152:
 485:D:/fchai/work/i-cube/I-CUBE-HUAWEI/Drivers/BSP/Components/stts751\stts751_reg.c **** 
 1527              		.loc 1 485 1 view .LVU446
 1528 0006 ADF80610 		strh	r1, [sp, #6]	@ movhi
 1529 000a 0446     		mov	r4, r0
 1530              	.LVL120:
 1531              	.LBB155:
 1532              	.LBI152:
  67:D:/fchai/work/i-cube/I-CUBE-HUAWEI/Drivers/BSP/Components/stts751\stts751_reg.c ****                            uint16_t len)
 1533              		.loc 1 67 9 is_stmt 1 view .LVU447
 1534              	.LBB154:
  70:D:/fchai/work/i-cube/I-CUBE-HUAWEI/Drivers/BSP/Components/stts751\stts751_reg.c ****   ret = ctx->write_reg(ctx->handle, reg, data, len);
 1535              		.loc 1 70 3 view .LVU448
  71:D:/fchai/work/i-cube/I-CUBE-HUAWEI/Drivers/BSP/Components/stts751\stts751_reg.c ****   return ret;
 1536              		.loc 1 71 3 view .LVU449
  71:D:/fchai/work/i-cube/I-CUBE-HUAWEI/Drivers/BSP/Components/stts751\stts751_reg.c ****   return ret;
 1537              		.loc 1 71 9 is_stmt 0 view .LVU450
 1538 000c 0123     		movs	r3, #1
 1539 000e 8068     		ldr	r0, [r0, #8]
 1540              	.LVL121:
  71:D:/fchai/work/i-cube/I-CUBE-HUAWEI/Drivers/BSP/Components/stts751\stts751_reg.c ****   return ret;
 1541              		.loc 1 71 9 view .LVU451
 1542 0010 0DF10602 		add	r2, sp, #6
 1543              	.LVL122:
  71:D:/fchai/work/i-cube/I-CUBE-HUAWEI/Drivers/BSP/Components/stts751\stts751_reg.c ****   return ret;
 1544              		.loc 1 71 9 view .LVU452
 1545 0014 0821     		movs	r1, #8
 1546              	.LVL123:
  71:D:/fchai/work/i-cube/I-CUBE-HUAWEI/Drivers/BSP/Components/stts751\stts751_reg.c ****   return ret;
 1547              		.loc 1 71 9 view .LVU453
 1548 0016 A847     		blx	r5
 1549              	.LVL124:
ARM GAS  T:\msys\tmp\cc68iQTc.s 			page 41


  72:D:/fchai/work/i-cube/I-CUBE-HUAWEI/Drivers/BSP/Components/stts751\stts751_reg.c **** }
 1550              		.loc 1 72 3 is_stmt 1 view .LVU454
  72:D:/fchai/work/i-cube/I-CUBE-HUAWEI/Drivers/BSP/Components/stts751\stts751_reg.c **** }
 1551              		.loc 1 72 3 is_stmt 0 view .LVU455
 1552              	.LBE154:
 1553              	.LBE155:
 492:D:/fchai/work/i-cube/I-CUBE-HUAWEI/Drivers/BSP/Components/stts751\stts751_reg.c ****                           (uint8_t*)temperature_ptr, 1);
 493:D:/fchai/work/i-cube/I-CUBE-HUAWEI/Drivers/BSP/Components/stts751\stts751_reg.c **** 
 494:D:/fchai/work/i-cube/I-CUBE-HUAWEI/Drivers/BSP/Components/stts751\stts751_reg.c ****   if (ret == 0) {
 1554              		.loc 1 494 3 is_stmt 1 view .LVU456
 1555              		.loc 1 494 6 is_stmt 0 view .LVU457
 1556 0018 30B9     		cbnz	r0, .L58
 495:D:/fchai/work/i-cube/I-CUBE-HUAWEI/Drivers/BSP/Components/stts751\stts751_reg.c ****     temperature_ptr++;
 1557              		.loc 1 495 5 is_stmt 1 view .LVU458
 1558              	.LVL125:
 496:D:/fchai/work/i-cube/I-CUBE-HUAWEI/Drivers/BSP/Components/stts751\stts751_reg.c ****     ret = stts751_write_reg(ctx, STTS751_TEMPERATURE_LOW_LIMIT_HIGH,
 1559              		.loc 1 496 5 view .LVU459
 1560              	.LBB156:
 1561              	.LBI156:
  67:D:/fchai/work/i-cube/I-CUBE-HUAWEI/Drivers/BSP/Components/stts751\stts751_reg.c ****                            uint16_t len)
 1562              		.loc 1 67 9 view .LVU460
 1563              	.LBB157:
  70:D:/fchai/work/i-cube/I-CUBE-HUAWEI/Drivers/BSP/Components/stts751\stts751_reg.c ****   ret = ctx->write_reg(ctx->handle, reg, data, len);
 1564              		.loc 1 70 3 view .LVU461
  71:D:/fchai/work/i-cube/I-CUBE-HUAWEI/Drivers/BSP/Components/stts751\stts751_reg.c ****   return ret;
 1565              		.loc 1 71 3 view .LVU462
  71:D:/fchai/work/i-cube/I-CUBE-HUAWEI/Drivers/BSP/Components/stts751\stts751_reg.c ****   return ret;
 1566              		.loc 1 71 9 is_stmt 0 view .LVU463
 1567 001a 2568     		ldr	r5, [r4]
 1568 001c A068     		ldr	r0, [r4, #8]
 1569              	.LVL126:
  71:D:/fchai/work/i-cube/I-CUBE-HUAWEI/Drivers/BSP/Components/stts751\stts751_reg.c ****   return ret;
 1570              		.loc 1 71 9 view .LVU464
 1571 001e 0123     		movs	r3, #1
 1572 0020 0DF10702 		add	r2, sp, #7
 1573              	.LVL127:
  71:D:/fchai/work/i-cube/I-CUBE-HUAWEI/Drivers/BSP/Components/stts751\stts751_reg.c ****   return ret;
 1574              		.loc 1 71 9 view .LVU465
 1575 0024 0721     		movs	r1, #7
 1576 0026 A847     		blx	r5
 1577              	.LVL128:
  72:D:/fchai/work/i-cube/I-CUBE-HUAWEI/Drivers/BSP/Components/stts751\stts751_reg.c **** }
 1578              		.loc 1 72 3 is_stmt 1 view .LVU466
  72:D:/fchai/work/i-cube/I-CUBE-HUAWEI/Drivers/BSP/Components/stts751\stts751_reg.c **** }
 1579              		.loc 1 72 3 is_stmt 0 view .LVU467
 1580              	.LBE157:
 1581              	.LBE156:
 497:D:/fchai/work/i-cube/I-CUBE-HUAWEI/Drivers/BSP/Components/stts751\stts751_reg.c ****                             (uint8_t*)temperature_ptr, 1);
 498:D:/fchai/work/i-cube/I-CUBE-HUAWEI/Drivers/BSP/Components/stts751\stts751_reg.c ****   }
 499:D:/fchai/work/i-cube/I-CUBE-HUAWEI/Drivers/BSP/Components/stts751\stts751_reg.c **** 
 500:D:/fchai/work/i-cube/I-CUBE-HUAWEI/Drivers/BSP/Components/stts751\stts751_reg.c ****   return ret;
 1582              		.loc 1 500 3 is_stmt 1 view .LVU468
 1583              	.L58:
 501:D:/fchai/work/i-cube/I-CUBE-HUAWEI/Drivers/BSP/Components/stts751\stts751_reg.c **** }
 1584              		.loc 1 501 1 is_stmt 0 view .LVU469
 1585 0028 03B0     		add	sp, sp, #12
 1586              	.LCFI45:
ARM GAS  T:\msys\tmp\cc68iQTc.s 			page 42


 1587              		.cfi_def_cfa_offset 12
 1588              		@ sp needed
 1589 002a 30BD     		pop	{r4, r5, pc}
 1590              		.loc 1 501 1 view .LVU470
 1591              		.cfi_endproc
 1592              	.LFE15:
 1594              		.section	.text.stts751_low_temperature_threshold_get,"ax",%progbits
 1595              		.align	1
 1596              		.p2align 2,,3
 1597              		.global	stts751_low_temperature_threshold_get
 1598              		.syntax unified
 1599              		.thumb
 1600              		.thumb_func
 1601              		.fpu fpv4-sp-d16
 1603              	stts751_low_temperature_threshold_get:
 1604              	.LVL129:
 1605              	.LFB16:
 502:D:/fchai/work/i-cube/I-CUBE-HUAWEI/Drivers/BSP/Components/stts751\stts751_reg.c **** 
 503:D:/fchai/work/i-cube/I-CUBE-HUAWEI/Drivers/BSP/Components/stts751\stts751_reg.c **** /**
 504:D:/fchai/work/i-cube/I-CUBE-HUAWEI/Drivers/BSP/Components/stts751\stts751_reg.c ****   * @brief  low temperature theshold.[get]
 505:D:/fchai/work/i-cube/I-CUBE-HUAWEI/Drivers/BSP/Components/stts751\stts751_reg.c ****   *
 506:D:/fchai/work/i-cube/I-CUBE-HUAWEI/Drivers/BSP/Components/stts751\stts751_reg.c ****   * @param  ctx      read / write interface definitions
 507:D:/fchai/work/i-cube/I-CUBE-HUAWEI/Drivers/BSP/Components/stts751\stts751_reg.c ****   * @param  buff     buffer that stores data read
 508:D:/fchai/work/i-cube/I-CUBE-HUAWEI/Drivers/BSP/Components/stts751\stts751_reg.c ****   * @retval          interface status (MANDATORY: return 0 -> no Error)
 509:D:/fchai/work/i-cube/I-CUBE-HUAWEI/Drivers/BSP/Components/stts751\stts751_reg.c ****   *
 510:D:/fchai/work/i-cube/I-CUBE-HUAWEI/Drivers/BSP/Components/stts751\stts751_reg.c ****   */
 511:D:/fchai/work/i-cube/I-CUBE-HUAWEI/Drivers/BSP/Components/stts751\stts751_reg.c **** int32_t stts751_low_temperature_threshold_get(stmdev_ctx_t *ctx,
 512:D:/fchai/work/i-cube/I-CUBE-HUAWEI/Drivers/BSP/Components/stts751\stts751_reg.c ****                                               int16_t *buff)
 513:D:/fchai/work/i-cube/I-CUBE-HUAWEI/Drivers/BSP/Components/stts751\stts751_reg.c **** {
 1606              		.loc 1 513 1 is_stmt 1 view -0
 1607              		.cfi_startproc
 1608              		@ args = 0, pretend = 0, frame = 8
 1609              		@ frame_needed = 0, uses_anonymous_args = 0
 514:D:/fchai/work/i-cube/I-CUBE-HUAWEI/Drivers/BSP/Components/stts751\stts751_reg.c ****   uint16_t temperature;
 1610              		.loc 1 514 3 view .LVU472
 515:D:/fchai/work/i-cube/I-CUBE-HUAWEI/Drivers/BSP/Components/stts751\stts751_reg.c ****   uint8_t temperature_low;
 1611              		.loc 1 515 3 view .LVU473
 516:D:/fchai/work/i-cube/I-CUBE-HUAWEI/Drivers/BSP/Components/stts751\stts751_reg.c ****   int32_t ret;
 1612              		.loc 1 516 3 view .LVU474
 517:D:/fchai/work/i-cube/I-CUBE-HUAWEI/Drivers/BSP/Components/stts751\stts751_reg.c **** 
 518:D:/fchai/work/i-cube/I-CUBE-HUAWEI/Drivers/BSP/Components/stts751\stts751_reg.c ****   ret = stts751_read_reg(ctx, STTS751_TEMPERATURE_LOW_LIMIT_HIGH,
 1613              		.loc 1 518 3 view .LVU475
 513:D:/fchai/work/i-cube/I-CUBE-HUAWEI/Drivers/BSP/Components/stts751\stts751_reg.c ****   uint16_t temperature;
 1614              		.loc 1 513 1 is_stmt 0 view .LVU476
 1615 0000 70B5     		push	{r4, r5, r6, lr}
 1616              	.LCFI46:
 1617              		.cfi_def_cfa_offset 16
 1618              		.cfi_offset 4, -16
 1619              		.cfi_offset 5, -12
 1620              		.cfi_offset 6, -8
 1621              		.cfi_offset 14, -4
 1622 0002 82B0     		sub	sp, sp, #8
 1623              	.LCFI47:
 1624              		.cfi_def_cfa_offset 24
 513:D:/fchai/work/i-cube/I-CUBE-HUAWEI/Drivers/BSP/Components/stts751\stts751_reg.c ****   uint16_t temperature;
 1625              		.loc 1 513 1 view .LVU477
 1626 0004 0446     		mov	r4, r0
ARM GAS  T:\msys\tmp\cc68iQTc.s 			page 43


 1627              	.LVL130:
 1628              	.LBB158:
 1629              	.LBI158:
  49:D:/fchai/work/i-cube/I-CUBE-HUAWEI/Drivers/BSP/Components/stts751\stts751_reg.c ****                           uint16_t len)
 1630              		.loc 1 49 9 is_stmt 1 view .LVU478
 1631              	.LBB159:
  52:D:/fchai/work/i-cube/I-CUBE-HUAWEI/Drivers/BSP/Components/stts751\stts751_reg.c ****   ret = ctx->read_reg(ctx->handle, reg, data, len);
 1632              		.loc 1 52 3 view .LVU479
  53:D:/fchai/work/i-cube/I-CUBE-HUAWEI/Drivers/BSP/Components/stts751\stts751_reg.c ****   return ret;
 1633              		.loc 1 53 3 view .LVU480
 1634              	.LBE159:
 1635              	.LBE158:
 513:D:/fchai/work/i-cube/I-CUBE-HUAWEI/Drivers/BSP/Components/stts751\stts751_reg.c ****   uint16_t temperature;
 1636              		.loc 1 513 1 is_stmt 0 view .LVU481
 1637 0006 0E46     		mov	r6, r1
 1638              	.LBB161:
 1639              	.LBB160:
  53:D:/fchai/work/i-cube/I-CUBE-HUAWEI/Drivers/BSP/Components/stts751\stts751_reg.c ****   return ret;
 1640              		.loc 1 53 9 view .LVU482
 1641 0008 D0E90150 		ldrd	r5, r0, [r0, #4]
 1642              	.LVL131:
  53:D:/fchai/work/i-cube/I-CUBE-HUAWEI/Drivers/BSP/Components/stts751\stts751_reg.c ****   return ret;
 1643              		.loc 1 53 9 view .LVU483
 1644 000c 0123     		movs	r3, #1
 1645 000e 0DF10602 		add	r2, sp, #6
 1646              	.LVL132:
  53:D:/fchai/work/i-cube/I-CUBE-HUAWEI/Drivers/BSP/Components/stts751\stts751_reg.c ****   return ret;
 1647              		.loc 1 53 9 view .LVU484
 1648 0012 0721     		movs	r1, #7
 1649              	.LVL133:
  53:D:/fchai/work/i-cube/I-CUBE-HUAWEI/Drivers/BSP/Components/stts751\stts751_reg.c ****   return ret;
 1650              		.loc 1 53 9 view .LVU485
 1651 0014 A847     		blx	r5
 1652              	.LVL134:
  54:D:/fchai/work/i-cube/I-CUBE-HUAWEI/Drivers/BSP/Components/stts751\stts751_reg.c **** }
 1653              		.loc 1 54 3 is_stmt 1 view .LVU486
  54:D:/fchai/work/i-cube/I-CUBE-HUAWEI/Drivers/BSP/Components/stts751\stts751_reg.c **** }
 1654              		.loc 1 54 3 is_stmt 0 view .LVU487
 1655              	.LBE160:
 1656              	.LBE161:
 519:D:/fchai/work/i-cube/I-CUBE-HUAWEI/Drivers/BSP/Components/stts751\stts751_reg.c ****                          (uint8_t*)&temperature, 1);
 520:D:/fchai/work/i-cube/I-CUBE-HUAWEI/Drivers/BSP/Components/stts751\stts751_reg.c ****   if (ret == 0) {
 1657              		.loc 1 520 3 is_stmt 1 view .LVU488
 1658              		.loc 1 520 6 is_stmt 0 view .LVU489
 1659 0016 68B9     		cbnz	r0, .L61
 521:D:/fchai/work/i-cube/I-CUBE-HUAWEI/Drivers/BSP/Components/stts751\stts751_reg.c ****     ret = stts751_read_reg(ctx, STTS751_TEMPERATURE_LOW_LIMIT_LOW,
 1660              		.loc 1 521 5 is_stmt 1 view .LVU490
 1661              	.LVL135:
 1662              	.LBB162:
 1663              	.LBI162:
  49:D:/fchai/work/i-cube/I-CUBE-HUAWEI/Drivers/BSP/Components/stts751\stts751_reg.c ****                           uint16_t len)
 1664              		.loc 1 49 9 view .LVU491
 1665              	.LBB163:
  52:D:/fchai/work/i-cube/I-CUBE-HUAWEI/Drivers/BSP/Components/stts751\stts751_reg.c ****   ret = ctx->read_reg(ctx->handle, reg, data, len);
 1666              		.loc 1 52 3 view .LVU492
  53:D:/fchai/work/i-cube/I-CUBE-HUAWEI/Drivers/BSP/Components/stts751\stts751_reg.c ****   return ret;
 1667              		.loc 1 53 3 view .LVU493
ARM GAS  T:\msys\tmp\cc68iQTc.s 			page 44


  53:D:/fchai/work/i-cube/I-CUBE-HUAWEI/Drivers/BSP/Components/stts751\stts751_reg.c ****   return ret;
 1668              		.loc 1 53 9 is_stmt 0 view .LVU494
 1669 0018 0123     		movs	r3, #1
 1670 001a 0DF10502 		add	r2, sp, #5
 1671              	.LVL136:
  53:D:/fchai/work/i-cube/I-CUBE-HUAWEI/Drivers/BSP/Components/stts751\stts751_reg.c ****   return ret;
 1672              		.loc 1 53 9 view .LVU495
 1673 001e D4E90150 		ldrd	r5, r0, [r4, #4]
 1674              	.LVL137:
  53:D:/fchai/work/i-cube/I-CUBE-HUAWEI/Drivers/BSP/Components/stts751\stts751_reg.c ****   return ret;
 1675              		.loc 1 53 9 view .LVU496
 1676 0022 0821     		movs	r1, #8
 1677 0024 A847     		blx	r5
 1678              	.LVL138:
  53:D:/fchai/work/i-cube/I-CUBE-HUAWEI/Drivers/BSP/Components/stts751\stts751_reg.c ****   return ret;
 1679              		.loc 1 53 9 view .LVU497
 1680              	.LBE163:
 1681              	.LBE162:
 522:D:/fchai/work/i-cube/I-CUBE-HUAWEI/Drivers/BSP/Components/stts751\stts751_reg.c ****                            &temperature_low, 1);
 523:D:/fchai/work/i-cube/I-CUBE-HUAWEI/Drivers/BSP/Components/stts751\stts751_reg.c **** 
 524:D:/fchai/work/i-cube/I-CUBE-HUAWEI/Drivers/BSP/Components/stts751\stts751_reg.c ****     temperature  = (temperature << 8) + temperature_low;
 1682              		.loc 1 524 33 view .LVU498
 1683 0026 BDF80620 		ldrh	r2, [sp, #6]
 1684              		.loc 1 524 39 view .LVU499
 1685 002a 9DF80530 		ldrb	r3, [sp, #5]	@ zero_extendqisi2
 1686 002e 03EB0223 		add	r3, r3, r2, lsl #8
 1687              	.LVL139:
 1688              	.LBB165:
 1689              	.LBB164:
  54:D:/fchai/work/i-cube/I-CUBE-HUAWEI/Drivers/BSP/Components/stts751\stts751_reg.c **** }
 1690              		.loc 1 54 3 is_stmt 1 view .LVU500
  54:D:/fchai/work/i-cube/I-CUBE-HUAWEI/Drivers/BSP/Components/stts751\stts751_reg.c **** }
 1691              		.loc 1 54 3 is_stmt 0 view .LVU501
 1692              	.LBE164:
 1693              	.LBE165:
 1694              		.loc 1 524 5 is_stmt 1 view .LVU502
 525:D:/fchai/work/i-cube/I-CUBE-HUAWEI/Drivers/BSP/Components/stts751\stts751_reg.c ****     *buff = (int16_t)temperature;
 1695              		.loc 1 525 5 view .LVU503
 1696              		.loc 1 525 11 is_stmt 0 view .LVU504
 1697 0032 3380     		strh	r3, [r6]	@ movhi
 526:D:/fchai/work/i-cube/I-CUBE-HUAWEI/Drivers/BSP/Components/stts751\stts751_reg.c ****   }
 527:D:/fchai/work/i-cube/I-CUBE-HUAWEI/Drivers/BSP/Components/stts751\stts751_reg.c **** 
 528:D:/fchai/work/i-cube/I-CUBE-HUAWEI/Drivers/BSP/Components/stts751\stts751_reg.c ****   return ret;
 1698              		.loc 1 528 3 is_stmt 1 view .LVU505
 1699              	.L61:
 529:D:/fchai/work/i-cube/I-CUBE-HUAWEI/Drivers/BSP/Components/stts751\stts751_reg.c **** }
 1700              		.loc 1 529 1 is_stmt 0 view .LVU506
 1701 0034 02B0     		add	sp, sp, #8
 1702              	.LCFI48:
 1703              		.cfi_def_cfa_offset 16
 1704              		@ sp needed
 1705 0036 70BD     		pop	{r4, r5, r6, pc}
 1706              		.loc 1 529 1 view .LVU507
 1707              		.cfi_endproc
 1708              	.LFE16:
 1710              		.section	.text.stts751_ota_thermal_limit_set,"ax",%progbits
 1711              		.align	1
ARM GAS  T:\msys\tmp\cc68iQTc.s 			page 45


 1712              		.p2align 2,,3
 1713              		.global	stts751_ota_thermal_limit_set
 1714              		.syntax unified
 1715              		.thumb
 1716              		.thumb_func
 1717              		.fpu fpv4-sp-d16
 1719              	stts751_ota_thermal_limit_set:
 1720              	.LVL140:
 1721              	.LFB17:
 530:D:/fchai/work/i-cube/I-CUBE-HUAWEI/Drivers/BSP/Components/stts751\stts751_reg.c **** 
 531:D:/fchai/work/i-cube/I-CUBE-HUAWEI/Drivers/BSP/Components/stts751\stts751_reg.c **** /**
 532:D:/fchai/work/i-cube/I-CUBE-HUAWEI/Drivers/BSP/Components/stts751\stts751_reg.c ****   * @}
 533:D:/fchai/work/i-cube/I-CUBE-HUAWEI/Drivers/BSP/Components/stts751\stts751_reg.c ****   *
 534:D:/fchai/work/i-cube/I-CUBE-HUAWEI/Drivers/BSP/Components/stts751\stts751_reg.c ****   */
 535:D:/fchai/work/i-cube/I-CUBE-HUAWEI/Drivers/BSP/Components/stts751\stts751_reg.c **** 
 536:D:/fchai/work/i-cube/I-CUBE-HUAWEI/Drivers/BSP/Components/stts751\stts751_reg.c **** 
 537:D:/fchai/work/i-cube/I-CUBE-HUAWEI/Drivers/BSP/Components/stts751\stts751_reg.c ****   /**
 538:D:/fchai/work/i-cube/I-CUBE-HUAWEI/Drivers/BSP/Components/stts751\stts751_reg.c ****   * @defgroup  STTS751 over temperature alarm
 539:D:/fchai/work/i-cube/I-CUBE-HUAWEI/Drivers/BSP/Components/stts751\stts751_reg.c ****   * @brief     This section groups all the functions that manage
 540:D:/fchai/work/i-cube/I-CUBE-HUAWEI/Drivers/BSP/Components/stts751\stts751_reg.c ****   *            over temperature alarm functionality.
 541:D:/fchai/work/i-cube/I-CUBE-HUAWEI/Drivers/BSP/Components/stts751\stts751_reg.c ****   * @{
 542:D:/fchai/work/i-cube/I-CUBE-HUAWEI/Drivers/BSP/Components/stts751\stts751_reg.c ****   *
 543:D:/fchai/work/i-cube/I-CUBE-HUAWEI/Drivers/BSP/Components/stts751\stts751_reg.c ****   */
 544:D:/fchai/work/i-cube/I-CUBE-HUAWEI/Drivers/BSP/Components/stts751\stts751_reg.c **** 
 545:D:/fchai/work/i-cube/I-CUBE-HUAWEI/Drivers/BSP/Components/stts751\stts751_reg.c **** /**
 546:D:/fchai/work/i-cube/I-CUBE-HUAWEI/Drivers/BSP/Components/stts751\stts751_reg.c ****   * @brief  Thermal Limit. 1 LSB = 1 degC (max 127 degC min -127 degC ).[set]
 547:D:/fchai/work/i-cube/I-CUBE-HUAWEI/Drivers/BSP/Components/stts751\stts751_reg.c ****   *
 548:D:/fchai/work/i-cube/I-CUBE-HUAWEI/Drivers/BSP/Components/stts751\stts751_reg.c ****   * @param  ctx      read / write interface definitions
 549:D:/fchai/work/i-cube/I-CUBE-HUAWEI/Drivers/BSP/Components/stts751\stts751_reg.c ****   * @param  val      change the values of reg THERM_LIMIT
 550:D:/fchai/work/i-cube/I-CUBE-HUAWEI/Drivers/BSP/Components/stts751\stts751_reg.c ****   * @retval          interface status (MANDATORY: return 0 -> no Error)
 551:D:/fchai/work/i-cube/I-CUBE-HUAWEI/Drivers/BSP/Components/stts751\stts751_reg.c ****   *
 552:D:/fchai/work/i-cube/I-CUBE-HUAWEI/Drivers/BSP/Components/stts751\stts751_reg.c ****   */
 553:D:/fchai/work/i-cube/I-CUBE-HUAWEI/Drivers/BSP/Components/stts751\stts751_reg.c **** int32_t stts751_ota_thermal_limit_set(stmdev_ctx_t *ctx, int8_t val)
 554:D:/fchai/work/i-cube/I-CUBE-HUAWEI/Drivers/BSP/Components/stts751\stts751_reg.c **** {
 1722              		.loc 1 554 1 is_stmt 1 view -0
 1723              		.cfi_startproc
 1724              		@ args = 0, pretend = 0, frame = 8
 1725              		@ frame_needed = 0, uses_anonymous_args = 0
 555:D:/fchai/work/i-cube/I-CUBE-HUAWEI/Drivers/BSP/Components/stts751\stts751_reg.c ****   int32_t ret;
 1726              		.loc 1 555 3 view .LVU509
 556:D:/fchai/work/i-cube/I-CUBE-HUAWEI/Drivers/BSP/Components/stts751\stts751_reg.c ****   ret = stts751_write_reg(ctx, STTS751_THERM_LIMIT, (uint8_t*)&val, 1);
 1727              		.loc 1 556 3 view .LVU510
 554:D:/fchai/work/i-cube/I-CUBE-HUAWEI/Drivers/BSP/Components/stts751\stts751_reg.c ****   int32_t ret;
 1728              		.loc 1 554 1 is_stmt 0 view .LVU511
 1729 0000 10B5     		push	{r4, lr}
 1730              	.LCFI49:
 1731              		.cfi_def_cfa_offset 8
 1732              		.cfi_offset 4, -8
 1733              		.cfi_offset 14, -4
 1734 0002 82B0     		sub	sp, sp, #8
 1735              	.LCFI50:
 1736              		.cfi_def_cfa_offset 16
 1737              	.LVL141:
 1738              	.LBB166:
 1739              	.LBI166:
  67:D:/fchai/work/i-cube/I-CUBE-HUAWEI/Drivers/BSP/Components/stts751\stts751_reg.c ****                            uint16_t len)
 1740              		.loc 1 67 9 is_stmt 1 view .LVU512
ARM GAS  T:\msys\tmp\cc68iQTc.s 			page 46


 1741              	.LBB167:
  70:D:/fchai/work/i-cube/I-CUBE-HUAWEI/Drivers/BSP/Components/stts751\stts751_reg.c ****   ret = ctx->write_reg(ctx->handle, reg, data, len);
 1742              		.loc 1 70 3 view .LVU513
  71:D:/fchai/work/i-cube/I-CUBE-HUAWEI/Drivers/BSP/Components/stts751\stts751_reg.c ****   return ret;
 1743              		.loc 1 71 3 view .LVU514
  71:D:/fchai/work/i-cube/I-CUBE-HUAWEI/Drivers/BSP/Components/stts751\stts751_reg.c ****   return ret;
 1744              		.loc 1 71 9 is_stmt 0 view .LVU515
 1745 0004 0468     		ldr	r4, [r0]
 1746              	.LBE167:
 1747              	.LBE166:
 554:D:/fchai/work/i-cube/I-CUBE-HUAWEI/Drivers/BSP/Components/stts751\stts751_reg.c ****   int32_t ret;
 1748              		.loc 1 554 1 view .LVU516
 1749 0006 8DF80710 		strb	r1, [sp, #7]
 1750              	.LBB169:
 1751              	.LBB168:
  71:D:/fchai/work/i-cube/I-CUBE-HUAWEI/Drivers/BSP/Components/stts751\stts751_reg.c ****   return ret;
 1752              		.loc 1 71 9 view .LVU517
 1753 000a 0123     		movs	r3, #1
 1754 000c 0DF10702 		add	r2, sp, #7
 1755              	.LVL142:
  71:D:/fchai/work/i-cube/I-CUBE-HUAWEI/Drivers/BSP/Components/stts751\stts751_reg.c ****   return ret;
 1756              		.loc 1 71 9 view .LVU518
 1757 0010 2021     		movs	r1, #32
 1758              	.LVL143:
  71:D:/fchai/work/i-cube/I-CUBE-HUAWEI/Drivers/BSP/Components/stts751\stts751_reg.c ****   return ret;
 1759              		.loc 1 71 9 view .LVU519
 1760 0012 8068     		ldr	r0, [r0, #8]
 1761              	.LVL144:
  71:D:/fchai/work/i-cube/I-CUBE-HUAWEI/Drivers/BSP/Components/stts751\stts751_reg.c ****   return ret;
 1762              		.loc 1 71 9 view .LVU520
 1763 0014 A047     		blx	r4
 1764              	.LVL145:
  72:D:/fchai/work/i-cube/I-CUBE-HUAWEI/Drivers/BSP/Components/stts751\stts751_reg.c **** }
 1765              		.loc 1 72 3 is_stmt 1 view .LVU521
  72:D:/fchai/work/i-cube/I-CUBE-HUAWEI/Drivers/BSP/Components/stts751\stts751_reg.c **** }
 1766              		.loc 1 72 3 is_stmt 0 view .LVU522
 1767              	.LBE168:
 1768              	.LBE169:
 557:D:/fchai/work/i-cube/I-CUBE-HUAWEI/Drivers/BSP/Components/stts751\stts751_reg.c ****   return ret;
 1769              		.loc 1 557 3 is_stmt 1 view .LVU523
 558:D:/fchai/work/i-cube/I-CUBE-HUAWEI/Drivers/BSP/Components/stts751\stts751_reg.c **** }
 1770              		.loc 1 558 1 is_stmt 0 view .LVU524
 1771 0016 02B0     		add	sp, sp, #8
 1772              	.LCFI51:
 1773              		.cfi_def_cfa_offset 8
 1774              		@ sp needed
 1775 0018 10BD     		pop	{r4, pc}
 1776              		.cfi_endproc
 1777              	.LFE17:
 1779 001a 00BF     		.section	.text.stts751_ota_thermal_limit_get,"ax",%progbits
 1780              		.align	1
 1781              		.p2align 2,,3
 1782              		.global	stts751_ota_thermal_limit_get
 1783              		.syntax unified
 1784              		.thumb
 1785              		.thumb_func
 1786              		.fpu fpv4-sp-d16
ARM GAS  T:\msys\tmp\cc68iQTc.s 			page 47


 1788              	stts751_ota_thermal_limit_get:
 1789              	.LVL146:
 1790              	.LFB18:
 559:D:/fchai/work/i-cube/I-CUBE-HUAWEI/Drivers/BSP/Components/stts751\stts751_reg.c **** 
 560:D:/fchai/work/i-cube/I-CUBE-HUAWEI/Drivers/BSP/Components/stts751\stts751_reg.c **** /**
 561:D:/fchai/work/i-cube/I-CUBE-HUAWEI/Drivers/BSP/Components/stts751\stts751_reg.c ****   * @brief  Thermal Limit. 1 LSB = 1 degC (max 127 degC min -127 degC ).[get]
 562:D:/fchai/work/i-cube/I-CUBE-HUAWEI/Drivers/BSP/Components/stts751\stts751_reg.c ****   *
 563:D:/fchai/work/i-cube/I-CUBE-HUAWEI/Drivers/BSP/Components/stts751\stts751_reg.c ****   * @param  ctx      read / write interface definitions
 564:D:/fchai/work/i-cube/I-CUBE-HUAWEI/Drivers/BSP/Components/stts751\stts751_reg.c ****   * @param  val      get the values of reg THERM_LIMIT
 565:D:/fchai/work/i-cube/I-CUBE-HUAWEI/Drivers/BSP/Components/stts751\stts751_reg.c ****   * @retval          interface status (MANDATORY: return 0 -> no Error)
 566:D:/fchai/work/i-cube/I-CUBE-HUAWEI/Drivers/BSP/Components/stts751\stts751_reg.c ****   *
 567:D:/fchai/work/i-cube/I-CUBE-HUAWEI/Drivers/BSP/Components/stts751\stts751_reg.c ****   */
 568:D:/fchai/work/i-cube/I-CUBE-HUAWEI/Drivers/BSP/Components/stts751\stts751_reg.c **** int32_t stts751_ota_thermal_limit_get(stmdev_ctx_t *ctx, int8_t *val)
 569:D:/fchai/work/i-cube/I-CUBE-HUAWEI/Drivers/BSP/Components/stts751\stts751_reg.c **** {
 1791              		.loc 1 569 1 is_stmt 1 view -0
 1792              		.cfi_startproc
 1793              		@ args = 0, pretend = 0, frame = 0
 1794              		@ frame_needed = 0, uses_anonymous_args = 0
 1795              		@ link register save eliminated.
 570:D:/fchai/work/i-cube/I-CUBE-HUAWEI/Drivers/BSP/Components/stts751\stts751_reg.c ****   int32_t ret;
 1796              		.loc 1 570 3 view .LVU526
 571:D:/fchai/work/i-cube/I-CUBE-HUAWEI/Drivers/BSP/Components/stts751\stts751_reg.c **** 
 572:D:/fchai/work/i-cube/I-CUBE-HUAWEI/Drivers/BSP/Components/stts751\stts751_reg.c ****   ret = stts751_read_reg(ctx, STTS751_THERM_LIMIT, (uint8_t*)val, 1);
 1797              		.loc 1 572 3 view .LVU527
 569:D:/fchai/work/i-cube/I-CUBE-HUAWEI/Drivers/BSP/Components/stts751\stts751_reg.c ****   int32_t ret;
 1798              		.loc 1 569 1 is_stmt 0 view .LVU528
 1799 0000 10B4     		push	{r4}
 1800              	.LCFI52:
 1801              		.cfi_def_cfa_offset 4
 1802              		.cfi_offset 4, -4
 1803              	.LBB170:
 1804              	.LBB171:
  53:D:/fchai/work/i-cube/I-CUBE-HUAWEI/Drivers/BSP/Components/stts751\stts751_reg.c ****   return ret;
 1805              		.loc 1 53 9 view .LVU529
 1806 0002 D0E90140 		ldrd	r4, r0, [r0, #4]
 1807              	.LVL147:
  53:D:/fchai/work/i-cube/I-CUBE-HUAWEI/Drivers/BSP/Components/stts751\stts751_reg.c ****   return ret;
 1808              		.loc 1 53 9 view .LVU530
 1809              	.LBE171:
 1810              	.LBE170:
 569:D:/fchai/work/i-cube/I-CUBE-HUAWEI/Drivers/BSP/Components/stts751\stts751_reg.c ****   int32_t ret;
 1811              		.loc 1 569 1 view .LVU531
 1812 0006 0A46     		mov	r2, r1
 1813              	.LVL148:
 1814              	.LBB174:
 1815              	.LBI170:
  49:D:/fchai/work/i-cube/I-CUBE-HUAWEI/Drivers/BSP/Components/stts751\stts751_reg.c ****                           uint16_t len)
 1816              		.loc 1 49 9 is_stmt 1 view .LVU532
 1817              	.LBB172:
  52:D:/fchai/work/i-cube/I-CUBE-HUAWEI/Drivers/BSP/Components/stts751\stts751_reg.c ****   ret = ctx->read_reg(ctx->handle, reg, data, len);
 1818              		.loc 1 52 3 view .LVU533
  53:D:/fchai/work/i-cube/I-CUBE-HUAWEI/Drivers/BSP/Components/stts751\stts751_reg.c ****   return ret;
 1819              		.loc 1 53 3 view .LVU534
  53:D:/fchai/work/i-cube/I-CUBE-HUAWEI/Drivers/BSP/Components/stts751\stts751_reg.c ****   return ret;
 1820              		.loc 1 53 9 is_stmt 0 view .LVU535
 1821 0008 A446     		mov	ip, r4
 1822 000a 0123     		movs	r3, #1
ARM GAS  T:\msys\tmp\cc68iQTc.s 			page 48


 1823              	.LBE172:
 1824              	.LBE174:
 573:D:/fchai/work/i-cube/I-CUBE-HUAWEI/Drivers/BSP/Components/stts751\stts751_reg.c ****   return ret;
 574:D:/fchai/work/i-cube/I-CUBE-HUAWEI/Drivers/BSP/Components/stts751\stts751_reg.c **** }
 1825              		.loc 1 574 1 view .LVU536
 1826 000c 5DF8044B 		ldr	r4, [sp], #4
 1827              	.LCFI53:
 1828              		.cfi_restore 4
 1829              		.cfi_def_cfa_offset 0
 1830              	.LBB175:
 1831              	.LBB173:
  53:D:/fchai/work/i-cube/I-CUBE-HUAWEI/Drivers/BSP/Components/stts751\stts751_reg.c ****   return ret;
 1832              		.loc 1 53 9 view .LVU537
 1833 0010 2021     		movs	r1, #32
 1834              	.LVL149:
  53:D:/fchai/work/i-cube/I-CUBE-HUAWEI/Drivers/BSP/Components/stts751\stts751_reg.c ****   return ret;
 1835              		.loc 1 53 9 view .LVU538
 1836 0012 6047     		bx	ip
 1837              	.LVL150:
  53:D:/fchai/work/i-cube/I-CUBE-HUAWEI/Drivers/BSP/Components/stts751\stts751_reg.c ****   return ret;
 1838              		.loc 1 53 9 view .LVU539
 1839              	.LBE173:
 1840              	.LBE175:
 1841              		.cfi_endproc
 1842              	.LFE18:
 1844              		.section	.text.stts751_ota_thermal_hyst_set,"ax",%progbits
 1845              		.align	1
 1846              		.p2align 2,,3
 1847              		.global	stts751_ota_thermal_hyst_set
 1848              		.syntax unified
 1849              		.thumb
 1850              		.thumb_func
 1851              		.fpu fpv4-sp-d16
 1853              	stts751_ota_thermal_hyst_set:
 1854              	.LVL151:
 1855              	.LFB19:
 575:D:/fchai/work/i-cube/I-CUBE-HUAWEI/Drivers/BSP/Components/stts751\stts751_reg.c **** 
 576:D:/fchai/work/i-cube/I-CUBE-HUAWEI/Drivers/BSP/Components/stts751\stts751_reg.c **** /**
 577:D:/fchai/work/i-cube/I-CUBE-HUAWEI/Drivers/BSP/Components/stts751\stts751_reg.c ****   * @brief  Thermal hysteresis. 1 LSB = 1 degC.[set]
 578:D:/fchai/work/i-cube/I-CUBE-HUAWEI/Drivers/BSP/Components/stts751\stts751_reg.c ****   *         max 127 degC min -127 degC.
 579:D:/fchai/work/i-cube/I-CUBE-HUAWEI/Drivers/BSP/Components/stts751\stts751_reg.c ****   *
 580:D:/fchai/work/i-cube/I-CUBE-HUAWEI/Drivers/BSP/Components/stts751\stts751_reg.c ****   * @param  ctx      read / write interface definitions
 581:D:/fchai/work/i-cube/I-CUBE-HUAWEI/Drivers/BSP/Components/stts751\stts751_reg.c ****   * @param  val      change the values of reg THERM_HYSTERESIS
 582:D:/fchai/work/i-cube/I-CUBE-HUAWEI/Drivers/BSP/Components/stts751\stts751_reg.c ****   * @retval          interface status (MANDATORY: return 0 -> no Error)
 583:D:/fchai/work/i-cube/I-CUBE-HUAWEI/Drivers/BSP/Components/stts751\stts751_reg.c ****   *
 584:D:/fchai/work/i-cube/I-CUBE-HUAWEI/Drivers/BSP/Components/stts751\stts751_reg.c ****   */
 585:D:/fchai/work/i-cube/I-CUBE-HUAWEI/Drivers/BSP/Components/stts751\stts751_reg.c **** int32_t stts751_ota_thermal_hyst_set(stmdev_ctx_t *ctx, int8_t val)
 586:D:/fchai/work/i-cube/I-CUBE-HUAWEI/Drivers/BSP/Components/stts751\stts751_reg.c **** {
 1856              		.loc 1 586 1 is_stmt 1 view -0
 1857              		.cfi_startproc
 1858              		@ args = 0, pretend = 0, frame = 8
 1859              		@ frame_needed = 0, uses_anonymous_args = 0
 587:D:/fchai/work/i-cube/I-CUBE-HUAWEI/Drivers/BSP/Components/stts751\stts751_reg.c ****   int32_t ret;
 1860              		.loc 1 587 3 view .LVU541
 588:D:/fchai/work/i-cube/I-CUBE-HUAWEI/Drivers/BSP/Components/stts751\stts751_reg.c **** 
 589:D:/fchai/work/i-cube/I-CUBE-HUAWEI/Drivers/BSP/Components/stts751\stts751_reg.c ****   ret = stts751_write_reg(ctx, STTS751_THERM_HYSTERESIS, (uint8_t*)&val, 1);
 1861              		.loc 1 589 3 view .LVU542
ARM GAS  T:\msys\tmp\cc68iQTc.s 			page 49


 586:D:/fchai/work/i-cube/I-CUBE-HUAWEI/Drivers/BSP/Components/stts751\stts751_reg.c ****   int32_t ret;
 1862              		.loc 1 586 1 is_stmt 0 view .LVU543
 1863 0000 10B5     		push	{r4, lr}
 1864              	.LCFI54:
 1865              		.cfi_def_cfa_offset 8
 1866              		.cfi_offset 4, -8
 1867              		.cfi_offset 14, -4
 1868 0002 82B0     		sub	sp, sp, #8
 1869              	.LCFI55:
 1870              		.cfi_def_cfa_offset 16
 1871              	.LVL152:
 1872              	.LBB176:
 1873              	.LBI176:
  67:D:/fchai/work/i-cube/I-CUBE-HUAWEI/Drivers/BSP/Components/stts751\stts751_reg.c ****                            uint16_t len)
 1874              		.loc 1 67 9 is_stmt 1 view .LVU544
 1875              	.LBB177:
  70:D:/fchai/work/i-cube/I-CUBE-HUAWEI/Drivers/BSP/Components/stts751\stts751_reg.c ****   ret = ctx->write_reg(ctx->handle, reg, data, len);
 1876              		.loc 1 70 3 view .LVU545
  71:D:/fchai/work/i-cube/I-CUBE-HUAWEI/Drivers/BSP/Components/stts751\stts751_reg.c ****   return ret;
 1877              		.loc 1 71 3 view .LVU546
  71:D:/fchai/work/i-cube/I-CUBE-HUAWEI/Drivers/BSP/Components/stts751\stts751_reg.c ****   return ret;
 1878              		.loc 1 71 9 is_stmt 0 view .LVU547
 1879 0004 0468     		ldr	r4, [r0]
 1880              	.LBE177:
 1881              	.LBE176:
 586:D:/fchai/work/i-cube/I-CUBE-HUAWEI/Drivers/BSP/Components/stts751\stts751_reg.c ****   int32_t ret;
 1882              		.loc 1 586 1 view .LVU548
 1883 0006 8DF80710 		strb	r1, [sp, #7]
 1884              	.LBB179:
 1885              	.LBB178:
  71:D:/fchai/work/i-cube/I-CUBE-HUAWEI/Drivers/BSP/Components/stts751\stts751_reg.c ****   return ret;
 1886              		.loc 1 71 9 view .LVU549
 1887 000a 0123     		movs	r3, #1
 1888 000c 0DF10702 		add	r2, sp, #7
 1889              	.LVL153:
  71:D:/fchai/work/i-cube/I-CUBE-HUAWEI/Drivers/BSP/Components/stts751\stts751_reg.c ****   return ret;
 1890              		.loc 1 71 9 view .LVU550
 1891 0010 2121     		movs	r1, #33
 1892              	.LVL154:
  71:D:/fchai/work/i-cube/I-CUBE-HUAWEI/Drivers/BSP/Components/stts751\stts751_reg.c ****   return ret;
 1893              		.loc 1 71 9 view .LVU551
 1894 0012 8068     		ldr	r0, [r0, #8]
 1895              	.LVL155:
  71:D:/fchai/work/i-cube/I-CUBE-HUAWEI/Drivers/BSP/Components/stts751\stts751_reg.c ****   return ret;
 1896              		.loc 1 71 9 view .LVU552
 1897 0014 A047     		blx	r4
 1898              	.LVL156:
  72:D:/fchai/work/i-cube/I-CUBE-HUAWEI/Drivers/BSP/Components/stts751\stts751_reg.c **** }
 1899              		.loc 1 72 3 is_stmt 1 view .LVU553
  72:D:/fchai/work/i-cube/I-CUBE-HUAWEI/Drivers/BSP/Components/stts751\stts751_reg.c **** }
 1900              		.loc 1 72 3 is_stmt 0 view .LVU554
 1901              	.LBE178:
 1902              	.LBE179:
 590:D:/fchai/work/i-cube/I-CUBE-HUAWEI/Drivers/BSP/Components/stts751\stts751_reg.c ****   return ret;
 1903              		.loc 1 590 3 is_stmt 1 view .LVU555
 591:D:/fchai/work/i-cube/I-CUBE-HUAWEI/Drivers/BSP/Components/stts751\stts751_reg.c **** }
 1904              		.loc 1 591 1 is_stmt 0 view .LVU556
ARM GAS  T:\msys\tmp\cc68iQTc.s 			page 50


 1905 0016 02B0     		add	sp, sp, #8
 1906              	.LCFI56:
 1907              		.cfi_def_cfa_offset 8
 1908              		@ sp needed
 1909 0018 10BD     		pop	{r4, pc}
 1910              		.cfi_endproc
 1911              	.LFE19:
 1913 001a 00BF     		.section	.text.stts751_ota_thermal_hyst_get,"ax",%progbits
 1914              		.align	1
 1915              		.p2align 2,,3
 1916              		.global	stts751_ota_thermal_hyst_get
 1917              		.syntax unified
 1918              		.thumb
 1919              		.thumb_func
 1920              		.fpu fpv4-sp-d16
 1922              	stts751_ota_thermal_hyst_get:
 1923              	.LVL157:
 1924              	.LFB20:
 592:D:/fchai/work/i-cube/I-CUBE-HUAWEI/Drivers/BSP/Components/stts751\stts751_reg.c **** 
 593:D:/fchai/work/i-cube/I-CUBE-HUAWEI/Drivers/BSP/Components/stts751\stts751_reg.c **** /**
 594:D:/fchai/work/i-cube/I-CUBE-HUAWEI/Drivers/BSP/Components/stts751\stts751_reg.c ****   * @brief  Thermal hysteresis. 1 LSB = 1 degC.[get]
 595:D:/fchai/work/i-cube/I-CUBE-HUAWEI/Drivers/BSP/Components/stts751\stts751_reg.c ****   *         max 127 degC min -127 degC.
 596:D:/fchai/work/i-cube/I-CUBE-HUAWEI/Drivers/BSP/Components/stts751\stts751_reg.c ****   *
 597:D:/fchai/work/i-cube/I-CUBE-HUAWEI/Drivers/BSP/Components/stts751\stts751_reg.c ****   * @param  ctx      read / write interface definitions
 598:D:/fchai/work/i-cube/I-CUBE-HUAWEI/Drivers/BSP/Components/stts751\stts751_reg.c ****   * @param  val      get the values of reg THERM_HYSTERESIS
 599:D:/fchai/work/i-cube/I-CUBE-HUAWEI/Drivers/BSP/Components/stts751\stts751_reg.c ****   * @retval          interface status (MANDATORY: return 0 -> no Error)
 600:D:/fchai/work/i-cube/I-CUBE-HUAWEI/Drivers/BSP/Components/stts751\stts751_reg.c ****   *
 601:D:/fchai/work/i-cube/I-CUBE-HUAWEI/Drivers/BSP/Components/stts751\stts751_reg.c ****   */
 602:D:/fchai/work/i-cube/I-CUBE-HUAWEI/Drivers/BSP/Components/stts751\stts751_reg.c **** int32_t stts751_ota_thermal_hyst_get(stmdev_ctx_t *ctx, int8_t *val)
 603:D:/fchai/work/i-cube/I-CUBE-HUAWEI/Drivers/BSP/Components/stts751\stts751_reg.c **** {
 1925              		.loc 1 603 1 is_stmt 1 view -0
 1926              		.cfi_startproc
 1927              		@ args = 0, pretend = 0, frame = 0
 1928              		@ frame_needed = 0, uses_anonymous_args = 0
 1929              		@ link register save eliminated.
 604:D:/fchai/work/i-cube/I-CUBE-HUAWEI/Drivers/BSP/Components/stts751\stts751_reg.c ****   int32_t ret;
 1930              		.loc 1 604 3 view .LVU558
 605:D:/fchai/work/i-cube/I-CUBE-HUAWEI/Drivers/BSP/Components/stts751\stts751_reg.c **** 
 606:D:/fchai/work/i-cube/I-CUBE-HUAWEI/Drivers/BSP/Components/stts751\stts751_reg.c ****   ret = stts751_read_reg(ctx, STTS751_THERM_HYSTERESIS, (uint8_t*)val, 1);
 1931              		.loc 1 606 3 view .LVU559
 603:D:/fchai/work/i-cube/I-CUBE-HUAWEI/Drivers/BSP/Components/stts751\stts751_reg.c ****   int32_t ret;
 1932              		.loc 1 603 1 is_stmt 0 view .LVU560
 1933 0000 10B4     		push	{r4}
 1934              	.LCFI57:
 1935              		.cfi_def_cfa_offset 4
 1936              		.cfi_offset 4, -4
 1937              	.LBB180:
 1938              	.LBB181:
  53:D:/fchai/work/i-cube/I-CUBE-HUAWEI/Drivers/BSP/Components/stts751\stts751_reg.c ****   return ret;
 1939              		.loc 1 53 9 view .LVU561
 1940 0002 D0E90140 		ldrd	r4, r0, [r0, #4]
 1941              	.LVL158:
  53:D:/fchai/work/i-cube/I-CUBE-HUAWEI/Drivers/BSP/Components/stts751\stts751_reg.c ****   return ret;
 1942              		.loc 1 53 9 view .LVU562
 1943              	.LBE181:
 1944              	.LBE180:
 603:D:/fchai/work/i-cube/I-CUBE-HUAWEI/Drivers/BSP/Components/stts751\stts751_reg.c ****   int32_t ret;
ARM GAS  T:\msys\tmp\cc68iQTc.s 			page 51


 1945              		.loc 1 603 1 view .LVU563
 1946 0006 0A46     		mov	r2, r1
 1947              	.LVL159:
 1948              	.LBB184:
 1949              	.LBI180:
  49:D:/fchai/work/i-cube/I-CUBE-HUAWEI/Drivers/BSP/Components/stts751\stts751_reg.c ****                           uint16_t len)
 1950              		.loc 1 49 9 is_stmt 1 view .LVU564
 1951              	.LBB182:
  52:D:/fchai/work/i-cube/I-CUBE-HUAWEI/Drivers/BSP/Components/stts751\stts751_reg.c ****   ret = ctx->read_reg(ctx->handle, reg, data, len);
 1952              		.loc 1 52 3 view .LVU565
  53:D:/fchai/work/i-cube/I-CUBE-HUAWEI/Drivers/BSP/Components/stts751\stts751_reg.c ****   return ret;
 1953              		.loc 1 53 3 view .LVU566
  53:D:/fchai/work/i-cube/I-CUBE-HUAWEI/Drivers/BSP/Components/stts751\stts751_reg.c ****   return ret;
 1954              		.loc 1 53 9 is_stmt 0 view .LVU567
 1955 0008 A446     		mov	ip, r4
 1956 000a 0123     		movs	r3, #1
 1957              	.LBE182:
 1958              	.LBE184:
 607:D:/fchai/work/i-cube/I-CUBE-HUAWEI/Drivers/BSP/Components/stts751\stts751_reg.c ****   return ret;
 608:D:/fchai/work/i-cube/I-CUBE-HUAWEI/Drivers/BSP/Components/stts751\stts751_reg.c **** }
 1959              		.loc 1 608 1 view .LVU568
 1960 000c 5DF8044B 		ldr	r4, [sp], #4
 1961              	.LCFI58:
 1962              		.cfi_restore 4
 1963              		.cfi_def_cfa_offset 0
 1964              	.LBB185:
 1965              	.LBB183:
  53:D:/fchai/work/i-cube/I-CUBE-HUAWEI/Drivers/BSP/Components/stts751\stts751_reg.c ****   return ret;
 1966              		.loc 1 53 9 view .LVU569
 1967 0010 2121     		movs	r1, #33
 1968              	.LVL160:
  53:D:/fchai/work/i-cube/I-CUBE-HUAWEI/Drivers/BSP/Components/stts751\stts751_reg.c ****   return ret;
 1969              		.loc 1 53 9 view .LVU570
 1970 0012 6047     		bx	ip
 1971              	.LVL161:
  53:D:/fchai/work/i-cube/I-CUBE-HUAWEI/Drivers/BSP/Components/stts751\stts751_reg.c ****   return ret;
 1972              		.loc 1 53 9 view .LVU571
 1973              	.LBE183:
 1974              	.LBE185:
 1975              		.cfi_endproc
 1976              	.LFE20:
 1978              		.section	.text.stts751_smbus_timeout_set,"ax",%progbits
 1979              		.align	1
 1980              		.p2align 2,,3
 1981              		.global	stts751_smbus_timeout_set
 1982              		.syntax unified
 1983              		.thumb
 1984              		.thumb_func
 1985              		.fpu fpv4-sp-d16
 1987              	stts751_smbus_timeout_set:
 1988              	.LVL162:
 1989              	.LFB21:
 609:D:/fchai/work/i-cube/I-CUBE-HUAWEI/Drivers/BSP/Components/stts751\stts751_reg.c **** 
 610:D:/fchai/work/i-cube/I-CUBE-HUAWEI/Drivers/BSP/Components/stts751\stts751_reg.c **** /**
 611:D:/fchai/work/i-cube/I-CUBE-HUAWEI/Drivers/BSP/Components/stts751\stts751_reg.c ****   * @}
 612:D:/fchai/work/i-cube/I-CUBE-HUAWEI/Drivers/BSP/Components/stts751\stts751_reg.c ****   *
 613:D:/fchai/work/i-cube/I-CUBE-HUAWEI/Drivers/BSP/Components/stts751\stts751_reg.c ****   */
ARM GAS  T:\msys\tmp\cc68iQTc.s 			page 52


 614:D:/fchai/work/i-cube/I-CUBE-HUAWEI/Drivers/BSP/Components/stts751\stts751_reg.c **** 
 615:D:/fchai/work/i-cube/I-CUBE-HUAWEI/Drivers/BSP/Components/stts751\stts751_reg.c **** /**
 616:D:/fchai/work/i-cube/I-CUBE-HUAWEI/Drivers/BSP/Components/stts751\stts751_reg.c ****   * @defgroup  STTS751_Common
 617:D:/fchai/work/i-cube/I-CUBE-HUAWEI/Drivers/BSP/Components/stts751\stts751_reg.c ****   * @brief     This section groups common useful functions.
 618:D:/fchai/work/i-cube/I-CUBE-HUAWEI/Drivers/BSP/Components/stts751\stts751_reg.c ****   * @{
 619:D:/fchai/work/i-cube/I-CUBE-HUAWEI/Drivers/BSP/Components/stts751\stts751_reg.c ****   *
 620:D:/fchai/work/i-cube/I-CUBE-HUAWEI/Drivers/BSP/Components/stts751\stts751_reg.c ****   */
 621:D:/fchai/work/i-cube/I-CUBE-HUAWEI/Drivers/BSP/Components/stts751\stts751_reg.c **** 
 622:D:/fchai/work/i-cube/I-CUBE-HUAWEI/Drivers/BSP/Components/stts751\stts751_reg.c **** /**
 623:D:/fchai/work/i-cube/I-CUBE-HUAWEI/Drivers/BSP/Components/stts751\stts751_reg.c ****   * @brief  SMBus timeout.At power-up, the STTS751 is configured with an
 624:D:/fchai/work/i-cube/I-CUBE-HUAWEI/Drivers/BSP/Components/stts751\stts751_reg.c ****   *         SMBus timeout of 25 to 35 milliseconds.[set]
 625:D:/fchai/work/i-cube/I-CUBE-HUAWEI/Drivers/BSP/Components/stts751\stts751_reg.c ****   *
 626:D:/fchai/work/i-cube/I-CUBE-HUAWEI/Drivers/BSP/Components/stts751\stts751_reg.c ****   * @param  ctx      read / write interface definitions
 627:D:/fchai/work/i-cube/I-CUBE-HUAWEI/Drivers/BSP/Components/stts751\stts751_reg.c ****   * @param  val      set timeout bit in register SMBUS_TIMEOUT.
 628:D:/fchai/work/i-cube/I-CUBE-HUAWEI/Drivers/BSP/Components/stts751\stts751_reg.c ****   * @retval          interface status (MANDATORY: return 0 -> no Error)
 629:D:/fchai/work/i-cube/I-CUBE-HUAWEI/Drivers/BSP/Components/stts751\stts751_reg.c ****   *
 630:D:/fchai/work/i-cube/I-CUBE-HUAWEI/Drivers/BSP/Components/stts751\stts751_reg.c ****   */
 631:D:/fchai/work/i-cube/I-CUBE-HUAWEI/Drivers/BSP/Components/stts751\stts751_reg.c **** int32_t stts751_smbus_timeout_set(stmdev_ctx_t *ctx, uint8_t val)
 632:D:/fchai/work/i-cube/I-CUBE-HUAWEI/Drivers/BSP/Components/stts751\stts751_reg.c **** {
 1990              		.loc 1 632 1 is_stmt 1 view -0
 1991              		.cfi_startproc
 1992              		@ args = 0, pretend = 0, frame = 8
 1993              		@ frame_needed = 0, uses_anonymous_args = 0
 633:D:/fchai/work/i-cube/I-CUBE-HUAWEI/Drivers/BSP/Components/stts751\stts751_reg.c ****   stts751_smbus_timeout_t reg;
 1994              		.loc 1 633 3 view .LVU573
 634:D:/fchai/work/i-cube/I-CUBE-HUAWEI/Drivers/BSP/Components/stts751\stts751_reg.c ****   int32_t ret;
 1995              		.loc 1 634 3 view .LVU574
 635:D:/fchai/work/i-cube/I-CUBE-HUAWEI/Drivers/BSP/Components/stts751\stts751_reg.c **** 
 636:D:/fchai/work/i-cube/I-CUBE-HUAWEI/Drivers/BSP/Components/stts751\stts751_reg.c ****   ret = stts751_read_reg(ctx, STTS751_SMBUS_TIMEOUT,(uint8_t*)&reg, 1);
 1996              		.loc 1 636 3 view .LVU575
 632:D:/fchai/work/i-cube/I-CUBE-HUAWEI/Drivers/BSP/Components/stts751\stts751_reg.c ****   stts751_smbus_timeout_t reg;
 1997              		.loc 1 632 1 is_stmt 0 view .LVU576
 1998 0000 70B5     		push	{r4, r5, r6, lr}
 1999              	.LCFI59:
 2000              		.cfi_def_cfa_offset 16
 2001              		.cfi_offset 4, -16
 2002              		.cfi_offset 5, -12
 2003              		.cfi_offset 6, -8
 2004              		.cfi_offset 14, -4
 2005 0002 82B0     		sub	sp, sp, #8
 2006              	.LCFI60:
 2007              		.cfi_def_cfa_offset 24
 632:D:/fchai/work/i-cube/I-CUBE-HUAWEI/Drivers/BSP/Components/stts751\stts751_reg.c ****   stts751_smbus_timeout_t reg;
 2008              		.loc 1 632 1 view .LVU577
 2009 0004 0446     		mov	r4, r0
 2010              	.LVL163:
 2011              	.LBB186:
 2012              	.LBI186:
  49:D:/fchai/work/i-cube/I-CUBE-HUAWEI/Drivers/BSP/Components/stts751\stts751_reg.c ****                           uint16_t len)
 2013              		.loc 1 49 9 is_stmt 1 view .LVU578
 2014              	.LBB187:
  52:D:/fchai/work/i-cube/I-CUBE-HUAWEI/Drivers/BSP/Components/stts751\stts751_reg.c ****   ret = ctx->read_reg(ctx->handle, reg, data, len);
 2015              		.loc 1 52 3 view .LVU579
  53:D:/fchai/work/i-cube/I-CUBE-HUAWEI/Drivers/BSP/Components/stts751\stts751_reg.c ****   return ret;
 2016              		.loc 1 53 3 view .LVU580
 2017              	.LBE187:
 2018              	.LBE186:
ARM GAS  T:\msys\tmp\cc68iQTc.s 			page 53


 632:D:/fchai/work/i-cube/I-CUBE-HUAWEI/Drivers/BSP/Components/stts751\stts751_reg.c ****   stts751_smbus_timeout_t reg;
 2019              		.loc 1 632 1 is_stmt 0 view .LVU581
 2020 0006 0D46     		mov	r5, r1
 2021              	.LBB189:
 2022              	.LBB188:
  53:D:/fchai/work/i-cube/I-CUBE-HUAWEI/Drivers/BSP/Components/stts751\stts751_reg.c ****   return ret;
 2023              		.loc 1 53 9 view .LVU582
 2024 0008 D0E90160 		ldrd	r6, r0, [r0, #4]
 2025              	.LVL164:
  53:D:/fchai/work/i-cube/I-CUBE-HUAWEI/Drivers/BSP/Components/stts751\stts751_reg.c ****   return ret;
 2026              		.loc 1 53 9 view .LVU583
 2027 000c 01AA     		add	r2, sp, #4
 2028              	.LVL165:
  53:D:/fchai/work/i-cube/I-CUBE-HUAWEI/Drivers/BSP/Components/stts751\stts751_reg.c ****   return ret;
 2029              		.loc 1 53 9 view .LVU584
 2030 000e 0123     		movs	r3, #1
 2031 0010 2221     		movs	r1, #34
 2032              	.LVL166:
  53:D:/fchai/work/i-cube/I-CUBE-HUAWEI/Drivers/BSP/Components/stts751\stts751_reg.c ****   return ret;
 2033              		.loc 1 53 9 view .LVU585
 2034 0012 B047     		blx	r6
 2035              	.LVL167:
  54:D:/fchai/work/i-cube/I-CUBE-HUAWEI/Drivers/BSP/Components/stts751\stts751_reg.c **** }
 2036              		.loc 1 54 3 is_stmt 1 view .LVU586
  54:D:/fchai/work/i-cube/I-CUBE-HUAWEI/Drivers/BSP/Components/stts751\stts751_reg.c **** }
 2037              		.loc 1 54 3 is_stmt 0 view .LVU587
 2038              	.LBE188:
 2039              	.LBE189:
 637:D:/fchai/work/i-cube/I-CUBE-HUAWEI/Drivers/BSP/Components/stts751\stts751_reg.c ****   if (ret == 0) {
 2040              		.loc 1 637 3 is_stmt 1 view .LVU588
 2041              		.loc 1 637 6 is_stmt 0 view .LVU589
 2042 0014 58B9     		cbnz	r0, .L72
 638:D:/fchai/work/i-cube/I-CUBE-HUAWEI/Drivers/BSP/Components/stts751\stts751_reg.c ****     reg.timeout = val;
 2043              		.loc 1 638 5 is_stmt 1 view .LVU590
 2044              		.loc 1 638 17 is_stmt 0 view .LVU591
 2045 0016 9DF80430 		ldrb	r3, [sp, #4]	@ zero_extendqisi2
 2046              	.LBB190:
 2047              	.LBB191:
  71:D:/fchai/work/i-cube/I-CUBE-HUAWEI/Drivers/BSP/Components/stts751\stts751_reg.c ****   return ret;
 2048              		.loc 1 71 9 view .LVU592
 2049 001a 2668     		ldr	r6, [r4]
 2050 001c A068     		ldr	r0, [r4, #8]
 2051              	.LVL168:
  71:D:/fchai/work/i-cube/I-CUBE-HUAWEI/Drivers/BSP/Components/stts751\stts751_reg.c ****   return ret;
 2052              		.loc 1 71 9 view .LVU593
 2053              	.LBE191:
 2054              	.LBE190:
 2055              		.loc 1 638 17 view .LVU594
 2056 001e 65F3C713 		bfi	r3, r5, #7, #1
 2057 0022 8DF80430 		strb	r3, [sp, #4]
 639:D:/fchai/work/i-cube/I-CUBE-HUAWEI/Drivers/BSP/Components/stts751\stts751_reg.c ****     ret = stts751_write_reg(ctx, STTS751_SMBUS_TIMEOUT, (uint8_t*)&reg, 1);
 2058              		.loc 1 639 5 is_stmt 1 view .LVU595
 2059              	.LVL169:
 2060              	.LBB193:
 2061              	.LBI190:
  67:D:/fchai/work/i-cube/I-CUBE-HUAWEI/Drivers/BSP/Components/stts751\stts751_reg.c ****                            uint16_t len)
 2062              		.loc 1 67 9 view .LVU596
ARM GAS  T:\msys\tmp\cc68iQTc.s 			page 54


 2063              	.LBB192:
  70:D:/fchai/work/i-cube/I-CUBE-HUAWEI/Drivers/BSP/Components/stts751\stts751_reg.c ****   ret = ctx->write_reg(ctx->handle, reg, data, len);
 2064              		.loc 1 70 3 view .LVU597
  71:D:/fchai/work/i-cube/I-CUBE-HUAWEI/Drivers/BSP/Components/stts751\stts751_reg.c ****   return ret;
 2065              		.loc 1 71 3 view .LVU598
  71:D:/fchai/work/i-cube/I-CUBE-HUAWEI/Drivers/BSP/Components/stts751\stts751_reg.c ****   return ret;
 2066              		.loc 1 71 9 is_stmt 0 view .LVU599
 2067 0026 01AA     		add	r2, sp, #4
 2068              	.LVL170:
  71:D:/fchai/work/i-cube/I-CUBE-HUAWEI/Drivers/BSP/Components/stts751\stts751_reg.c ****   return ret;
 2069              		.loc 1 71 9 view .LVU600
 2070 0028 0123     		movs	r3, #1
 2071 002a 2221     		movs	r1, #34
 2072 002c B047     		blx	r6
 2073              	.LVL171:
  72:D:/fchai/work/i-cube/I-CUBE-HUAWEI/Drivers/BSP/Components/stts751\stts751_reg.c **** }
 2074              		.loc 1 72 3 is_stmt 1 view .LVU601
  72:D:/fchai/work/i-cube/I-CUBE-HUAWEI/Drivers/BSP/Components/stts751\stts751_reg.c **** }
 2075              		.loc 1 72 3 is_stmt 0 view .LVU602
 2076              	.LBE192:
 2077              	.LBE193:
 640:D:/fchai/work/i-cube/I-CUBE-HUAWEI/Drivers/BSP/Components/stts751\stts751_reg.c ****   }
 641:D:/fchai/work/i-cube/I-CUBE-HUAWEI/Drivers/BSP/Components/stts751\stts751_reg.c ****   return ret;
 2078              		.loc 1 641 3 is_stmt 1 view .LVU603
 2079              	.L72:
 642:D:/fchai/work/i-cube/I-CUBE-HUAWEI/Drivers/BSP/Components/stts751\stts751_reg.c **** }
 2080              		.loc 1 642 1 is_stmt 0 view .LVU604
 2081 002e 02B0     		add	sp, sp, #8
 2082              	.LCFI61:
 2083              		.cfi_def_cfa_offset 16
 2084              		@ sp needed
 2085 0030 70BD     		pop	{r4, r5, r6, pc}
 2086              		.loc 1 642 1 view .LVU605
 2087              		.cfi_endproc
 2088              	.LFE21:
 2090 0032 00BF     		.section	.text.stts751_smbus_timeout_get,"ax",%progbits
 2091              		.align	1
 2092              		.p2align 2,,3
 2093              		.global	stts751_smbus_timeout_get
 2094              		.syntax unified
 2095              		.thumb
 2096              		.thumb_func
 2097              		.fpu fpv4-sp-d16
 2099              	stts751_smbus_timeout_get:
 2100              	.LVL172:
 2101              	.LFB22:
 643:D:/fchai/work/i-cube/I-CUBE-HUAWEI/Drivers/BSP/Components/stts751\stts751_reg.c **** 
 644:D:/fchai/work/i-cube/I-CUBE-HUAWEI/Drivers/BSP/Components/stts751\stts751_reg.c **** /**
 645:D:/fchai/work/i-cube/I-CUBE-HUAWEI/Drivers/BSP/Components/stts751\stts751_reg.c ****   * @brief  SMBus timeout.At power-up, the STTS751 is configured with an
 646:D:/fchai/work/i-cube/I-CUBE-HUAWEI/Drivers/BSP/Components/stts751\stts751_reg.c ****   *         SMBus timeout of 25 to 35 milliseconds.[get]
 647:D:/fchai/work/i-cube/I-CUBE-HUAWEI/Drivers/BSP/Components/stts751\stts751_reg.c ****   *
 648:D:/fchai/work/i-cube/I-CUBE-HUAWEI/Drivers/BSP/Components/stts751\stts751_reg.c ****   * @param  ctx      read / write interface definitions
 649:D:/fchai/work/i-cube/I-CUBE-HUAWEI/Drivers/BSP/Components/stts751\stts751_reg.c ****   * @param  val      get timeout bit in register SMBUS_TIMEOUT.
 650:D:/fchai/work/i-cube/I-CUBE-HUAWEI/Drivers/BSP/Components/stts751\stts751_reg.c ****   * @retval          interface status (MANDATORY: return 0 -> no Error)
 651:D:/fchai/work/i-cube/I-CUBE-HUAWEI/Drivers/BSP/Components/stts751\stts751_reg.c ****   *
 652:D:/fchai/work/i-cube/I-CUBE-HUAWEI/Drivers/BSP/Components/stts751\stts751_reg.c ****   */
 653:D:/fchai/work/i-cube/I-CUBE-HUAWEI/Drivers/BSP/Components/stts751\stts751_reg.c **** int32_t stts751_smbus_timeout_get(stmdev_ctx_t *ctx, uint8_t *val)
ARM GAS  T:\msys\tmp\cc68iQTc.s 			page 55


 654:D:/fchai/work/i-cube/I-CUBE-HUAWEI/Drivers/BSP/Components/stts751\stts751_reg.c **** {
 2102              		.loc 1 654 1 is_stmt 1 view -0
 2103              		.cfi_startproc
 2104              		@ args = 0, pretend = 0, frame = 8
 2105              		@ frame_needed = 0, uses_anonymous_args = 0
 655:D:/fchai/work/i-cube/I-CUBE-HUAWEI/Drivers/BSP/Components/stts751\stts751_reg.c ****   stts751_smbus_timeout_t reg;
 2106              		.loc 1 655 3 view .LVU607
 656:D:/fchai/work/i-cube/I-CUBE-HUAWEI/Drivers/BSP/Components/stts751\stts751_reg.c ****   int32_t ret;
 2107              		.loc 1 656 3 view .LVU608
 657:D:/fchai/work/i-cube/I-CUBE-HUAWEI/Drivers/BSP/Components/stts751\stts751_reg.c ****   ret = stts751_read_reg(ctx, STTS751_SMBUS_TIMEOUT, (uint8_t*)&reg, 1);
 2108              		.loc 1 657 3 view .LVU609
 654:D:/fchai/work/i-cube/I-CUBE-HUAWEI/Drivers/BSP/Components/stts751\stts751_reg.c ****   stts751_smbus_timeout_t reg;
 2109              		.loc 1 654 1 is_stmt 0 view .LVU610
 2110 0000 30B5     		push	{r4, r5, lr}
 2111              	.LCFI62:
 2112              		.cfi_def_cfa_offset 12
 2113              		.cfi_offset 4, -12
 2114              		.cfi_offset 5, -8
 2115              		.cfi_offset 14, -4
 2116 0002 83B0     		sub	sp, sp, #12
 2117              	.LCFI63:
 2118              		.cfi_def_cfa_offset 24
 2119              	.LVL173:
 2120              	.LBB194:
 2121              	.LBI194:
  49:D:/fchai/work/i-cube/I-CUBE-HUAWEI/Drivers/BSP/Components/stts751\stts751_reg.c ****                           uint16_t len)
 2122              		.loc 1 49 9 is_stmt 1 view .LVU611
 2123              	.LBB195:
  52:D:/fchai/work/i-cube/I-CUBE-HUAWEI/Drivers/BSP/Components/stts751\stts751_reg.c ****   ret = ctx->read_reg(ctx->handle, reg, data, len);
 2124              		.loc 1 52 3 view .LVU612
  53:D:/fchai/work/i-cube/I-CUBE-HUAWEI/Drivers/BSP/Components/stts751\stts751_reg.c ****   return ret;
 2125              		.loc 1 53 3 view .LVU613
 2126              	.LBE195:
 2127              	.LBE194:
 654:D:/fchai/work/i-cube/I-CUBE-HUAWEI/Drivers/BSP/Components/stts751\stts751_reg.c ****   stts751_smbus_timeout_t reg;
 2128              		.loc 1 654 1 is_stmt 0 view .LVU614
 2129 0004 0C46     		mov	r4, r1
 2130              	.LBB197:
 2131              	.LBB196:
  53:D:/fchai/work/i-cube/I-CUBE-HUAWEI/Drivers/BSP/Components/stts751\stts751_reg.c ****   return ret;
 2132              		.loc 1 53 9 view .LVU615
 2133 0006 D0E90150 		ldrd	r5, r0, [r0, #4]
 2134              	.LVL174:
  53:D:/fchai/work/i-cube/I-CUBE-HUAWEI/Drivers/BSP/Components/stts751\stts751_reg.c ****   return ret;
 2135              		.loc 1 53 9 view .LVU616
 2136 000a 0123     		movs	r3, #1
 2137 000c 01AA     		add	r2, sp, #4
 2138              	.LVL175:
  53:D:/fchai/work/i-cube/I-CUBE-HUAWEI/Drivers/BSP/Components/stts751\stts751_reg.c ****   return ret;
 2139              		.loc 1 53 9 view .LVU617
 2140 000e 2221     		movs	r1, #34
 2141              	.LVL176:
  53:D:/fchai/work/i-cube/I-CUBE-HUAWEI/Drivers/BSP/Components/stts751\stts751_reg.c ****   return ret;
 2142              		.loc 1 53 9 view .LVU618
 2143 0010 A847     		blx	r5
 2144              	.LVL177:
  54:D:/fchai/work/i-cube/I-CUBE-HUAWEI/Drivers/BSP/Components/stts751\stts751_reg.c **** }
ARM GAS  T:\msys\tmp\cc68iQTc.s 			page 56


 2145              		.loc 1 54 3 is_stmt 1 view .LVU619
  54:D:/fchai/work/i-cube/I-CUBE-HUAWEI/Drivers/BSP/Components/stts751\stts751_reg.c **** }
 2146              		.loc 1 54 3 is_stmt 0 view .LVU620
 2147              	.LBE196:
 2148              	.LBE197:
 658:D:/fchai/work/i-cube/I-CUBE-HUAWEI/Drivers/BSP/Components/stts751\stts751_reg.c ****   *val = reg.timeout;
 2149              		.loc 1 658 3 is_stmt 1 view .LVU621
 2150              		.loc 1 658 13 is_stmt 0 view .LVU622
 2151 0012 9DF80430 		ldrb	r3, [sp, #4]	@ zero_extendqisi2
 2152 0016 C3F3C013 		ubfx	r3, r3, #7, #1
 2153              		.loc 1 658 8 view .LVU623
 2154 001a 2370     		strb	r3, [r4]
 659:D:/fchai/work/i-cube/I-CUBE-HUAWEI/Drivers/BSP/Components/stts751\stts751_reg.c ****   return ret;
 2155              		.loc 1 659 3 is_stmt 1 view .LVU624
 660:D:/fchai/work/i-cube/I-CUBE-HUAWEI/Drivers/BSP/Components/stts751\stts751_reg.c **** }
 2156              		.loc 1 660 1 is_stmt 0 view .LVU625
 2157 001c 03B0     		add	sp, sp, #12
 2158              	.LCFI64:
 2159              		.cfi_def_cfa_offset 12
 2160              		@ sp needed
 2161 001e 30BD     		pop	{r4, r5, pc}
 2162              		.loc 1 660 1 view .LVU626
 2163              		.cfi_endproc
 2164              	.LFE22:
 2166              		.section	.text.stts751_device_id_get,"ax",%progbits
 2167              		.align	1
 2168              		.p2align 2,,3
 2169              		.global	stts751_device_id_get
 2170              		.syntax unified
 2171              		.thumb
 2172              		.thumb_func
 2173              		.fpu fpv4-sp-d16
 2175              	stts751_device_id_get:
 2176              	.LVL178:
 2177              	.LFB23:
 661:D:/fchai/work/i-cube/I-CUBE-HUAWEI/Drivers/BSP/Components/stts751\stts751_reg.c **** 
 662:D:/fchai/work/i-cube/I-CUBE-HUAWEI/Drivers/BSP/Components/stts751\stts751_reg.c **** /**
 663:D:/fchai/work/i-cube/I-CUBE-HUAWEI/Drivers/BSP/Components/stts751\stts751_reg.c ****   * @brief  Device Who am I.[get]
 664:D:/fchai/work/i-cube/I-CUBE-HUAWEI/Drivers/BSP/Components/stts751\stts751_reg.c ****   *
 665:D:/fchai/work/i-cube/I-CUBE-HUAWEI/Drivers/BSP/Components/stts751\stts751_reg.c ****   * @param  ctx      read / write interface definitions
 666:D:/fchai/work/i-cube/I-CUBE-HUAWEI/Drivers/BSP/Components/stts751\stts751_reg.c ****   * @param  buff     buffer that stores data read
 667:D:/fchai/work/i-cube/I-CUBE-HUAWEI/Drivers/BSP/Components/stts751\stts751_reg.c ****   * @retval          interface status (MANDATORY: return 0 -> no Error)
 668:D:/fchai/work/i-cube/I-CUBE-HUAWEI/Drivers/BSP/Components/stts751\stts751_reg.c ****   *
 669:D:/fchai/work/i-cube/I-CUBE-HUAWEI/Drivers/BSP/Components/stts751\stts751_reg.c ****   */
 670:D:/fchai/work/i-cube/I-CUBE-HUAWEI/Drivers/BSP/Components/stts751\stts751_reg.c **** int32_t stts751_device_id_get(stmdev_ctx_t *ctx, stts751_id_t *buff)
 671:D:/fchai/work/i-cube/I-CUBE-HUAWEI/Drivers/BSP/Components/stts751\stts751_reg.c **** {
 2178              		.loc 1 671 1 is_stmt 1 view -0
 2179              		.cfi_startproc
 2180              		@ args = 0, pretend = 0, frame = 0
 2181              		@ frame_needed = 0, uses_anonymous_args = 0
 672:D:/fchai/work/i-cube/I-CUBE-HUAWEI/Drivers/BSP/Components/stts751\stts751_reg.c ****   int32_t ret;
 2182              		.loc 1 672 3 view .LVU628
 673:D:/fchai/work/i-cube/I-CUBE-HUAWEI/Drivers/BSP/Components/stts751\stts751_reg.c ****   ret = stts751_read_reg(ctx, STTS751_PRODUCT_ID,
 2183              		.loc 1 673 3 view .LVU629
 671:D:/fchai/work/i-cube/I-CUBE-HUAWEI/Drivers/BSP/Components/stts751\stts751_reg.c ****   int32_t ret;
 2184              		.loc 1 671 1 is_stmt 0 view .LVU630
 2185 0000 70B5     		push	{r4, r5, r6, lr}
ARM GAS  T:\msys\tmp\cc68iQTc.s 			page 57


 2186              	.LCFI65:
 2187              		.cfi_def_cfa_offset 16
 2188              		.cfi_offset 4, -16
 2189              		.cfi_offset 5, -12
 2190              		.cfi_offset 6, -8
 2191              		.cfi_offset 14, -4
 2192              	.LBB198:
 2193              	.LBB199:
  53:D:/fchai/work/i-cube/I-CUBE-HUAWEI/Drivers/BSP/Components/stts751\stts751_reg.c ****   return ret;
 2194              		.loc 1 53 9 view .LVU631
 2195 0002 0A46     		mov	r2, r1
 2196              	.LBE199:
 2197              	.LBE198:
 671:D:/fchai/work/i-cube/I-CUBE-HUAWEI/Drivers/BSP/Components/stts751\stts751_reg.c ****   int32_t ret;
 2198              		.loc 1 671 1 view .LVU632
 2199 0004 0446     		mov	r4, r0
 2200              	.LVL179:
 671:D:/fchai/work/i-cube/I-CUBE-HUAWEI/Drivers/BSP/Components/stts751\stts751_reg.c ****   int32_t ret;
 2201              		.loc 1 671 1 view .LVU633
 2202 0006 0D46     		mov	r5, r1
 2203              	.LVL180:
 2204              	.LBB201:
 2205              	.LBI198:
  49:D:/fchai/work/i-cube/I-CUBE-HUAWEI/Drivers/BSP/Components/stts751\stts751_reg.c ****                           uint16_t len)
 2206              		.loc 1 49 9 is_stmt 1 view .LVU634
 2207              	.LBB200:
  52:D:/fchai/work/i-cube/I-CUBE-HUAWEI/Drivers/BSP/Components/stts751\stts751_reg.c ****   ret = ctx->read_reg(ctx->handle, reg, data, len);
 2208              		.loc 1 52 3 view .LVU635
  53:D:/fchai/work/i-cube/I-CUBE-HUAWEI/Drivers/BSP/Components/stts751\stts751_reg.c ****   return ret;
 2209              		.loc 1 53 3 view .LVU636
  53:D:/fchai/work/i-cube/I-CUBE-HUAWEI/Drivers/BSP/Components/stts751\stts751_reg.c ****   return ret;
 2210              		.loc 1 53 9 is_stmt 0 view .LVU637
 2211 0008 D0E90160 		ldrd	r6, r0, [r0, #4]
 2212              	.LVL181:
  53:D:/fchai/work/i-cube/I-CUBE-HUAWEI/Drivers/BSP/Components/stts751\stts751_reg.c ****   return ret;
 2213              		.loc 1 53 9 view .LVU638
 2214 000c 0123     		movs	r3, #1
 2215 000e FD21     		movs	r1, #253
 2216              	.LVL182:
  53:D:/fchai/work/i-cube/I-CUBE-HUAWEI/Drivers/BSP/Components/stts751\stts751_reg.c ****   return ret;
 2217              		.loc 1 53 9 view .LVU639
 2218 0010 B047     		blx	r6
 2219              	.LVL183:
  54:D:/fchai/work/i-cube/I-CUBE-HUAWEI/Drivers/BSP/Components/stts751\stts751_reg.c **** }
 2220              		.loc 1 54 3 is_stmt 1 view .LVU640
  54:D:/fchai/work/i-cube/I-CUBE-HUAWEI/Drivers/BSP/Components/stts751\stts751_reg.c **** }
 2221              		.loc 1 54 3 is_stmt 0 view .LVU641
 2222              	.LBE200:
 2223              	.LBE201:
 674:D:/fchai/work/i-cube/I-CUBE-HUAWEI/Drivers/BSP/Components/stts751\stts751_reg.c ****                          (uint8_t*)&buff->product_id, 1);
 675:D:/fchai/work/i-cube/I-CUBE-HUAWEI/Drivers/BSP/Components/stts751\stts751_reg.c ****   if (ret == 0){
 2224              		.loc 1 675 3 is_stmt 1 view .LVU642
 2225              		.loc 1 675 6 is_stmt 0 view .LVU643
 2226 0012 78B9     		cbnz	r0, .L77
 676:D:/fchai/work/i-cube/I-CUBE-HUAWEI/Drivers/BSP/Components/stts751\stts751_reg.c ****   ret = stts751_read_reg(ctx, STTS751_MANUFACTURER_ID,
 2227              		.loc 1 676 3 is_stmt 1 view .LVU644
 2228              	.LVL184:
ARM GAS  T:\msys\tmp\cc68iQTc.s 			page 58


 2229              	.LBB202:
 2230              	.LBI202:
  49:D:/fchai/work/i-cube/I-CUBE-HUAWEI/Drivers/BSP/Components/stts751\stts751_reg.c ****                           uint16_t len)
 2231              		.loc 1 49 9 view .LVU645
 2232              	.LBB203:
  52:D:/fchai/work/i-cube/I-CUBE-HUAWEI/Drivers/BSP/Components/stts751\stts751_reg.c ****   ret = ctx->read_reg(ctx->handle, reg, data, len);
 2233              		.loc 1 52 3 view .LVU646
  53:D:/fchai/work/i-cube/I-CUBE-HUAWEI/Drivers/BSP/Components/stts751\stts751_reg.c ****   return ret;
 2234              		.loc 1 53 3 view .LVU647
  53:D:/fchai/work/i-cube/I-CUBE-HUAWEI/Drivers/BSP/Components/stts751\stts751_reg.c ****   return ret;
 2235              		.loc 1 53 9 is_stmt 0 view .LVU648
 2236 0014 0123     		movs	r3, #1
 2237 0016 D4E90160 		ldrd	r6, r0, [r4, #4]
 2238              	.LVL185:
  53:D:/fchai/work/i-cube/I-CUBE-HUAWEI/Drivers/BSP/Components/stts751\stts751_reg.c ****   return ret;
 2239              		.loc 1 53 9 view .LVU649
 2240 001a EA18     		adds	r2, r5, r3
 2241              	.LVL186:
  53:D:/fchai/work/i-cube/I-CUBE-HUAWEI/Drivers/BSP/Components/stts751\stts751_reg.c ****   return ret;
 2242              		.loc 1 53 9 view .LVU650
 2243 001c FE21     		movs	r1, #254
 2244 001e B047     		blx	r6
 2245              	.LVL187:
  54:D:/fchai/work/i-cube/I-CUBE-HUAWEI/Drivers/BSP/Components/stts751\stts751_reg.c **** }
 2246              		.loc 1 54 3 is_stmt 1 view .LVU651
  54:D:/fchai/work/i-cube/I-CUBE-HUAWEI/Drivers/BSP/Components/stts751\stts751_reg.c **** }
 2247              		.loc 1 54 3 is_stmt 0 view .LVU652
 2248              	.LBE203:
 2249              	.LBE202:
 677:D:/fchai/work/i-cube/I-CUBE-HUAWEI/Drivers/BSP/Components/stts751\stts751_reg.c ****                          (uint8_t*)&buff->manufacturer_id, 1);
 678:D:/fchai/work/i-cube/I-CUBE-HUAWEI/Drivers/BSP/Components/stts751\stts751_reg.c ****   }
 679:D:/fchai/work/i-cube/I-CUBE-HUAWEI/Drivers/BSP/Components/stts751\stts751_reg.c ****   if (ret == 0){
 2250              		.loc 1 679 3 is_stmt 1 view .LVU653
 2251              		.loc 1 679 6 is_stmt 0 view .LVU654
 2252 0020 40B9     		cbnz	r0, .L77
 680:D:/fchai/work/i-cube/I-CUBE-HUAWEI/Drivers/BSP/Components/stts751\stts751_reg.c ****   ret = stts751_read_reg(ctx, STTS751_REVISION_ID,
 2253              		.loc 1 680 3 is_stmt 1 view .LVU655
 2254              	.LVL188:
 2255              	.LBB204:
 2256              	.LBI204:
  49:D:/fchai/work/i-cube/I-CUBE-HUAWEI/Drivers/BSP/Components/stts751\stts751_reg.c ****                           uint16_t len)
 2257              		.loc 1 49 9 view .LVU656
 2258              	.LBB205:
  52:D:/fchai/work/i-cube/I-CUBE-HUAWEI/Drivers/BSP/Components/stts751\stts751_reg.c ****   ret = ctx->read_reg(ctx->handle, reg, data, len);
 2259              		.loc 1 52 3 view .LVU657
  53:D:/fchai/work/i-cube/I-CUBE-HUAWEI/Drivers/BSP/Components/stts751\stts751_reg.c ****   return ret;
 2260              		.loc 1 53 3 view .LVU658
  53:D:/fchai/work/i-cube/I-CUBE-HUAWEI/Drivers/BSP/Components/stts751\stts751_reg.c ****   return ret;
 2261              		.loc 1 53 9 is_stmt 0 view .LVU659
 2262 0022 AA1C     		adds	r2, r5, #2
 2263              	.LVL189:
  53:D:/fchai/work/i-cube/I-CUBE-HUAWEI/Drivers/BSP/Components/stts751\stts751_reg.c ****   return ret;
 2264              		.loc 1 53 9 view .LVU660
 2265 0024 D4E90150 		ldrd	r5, r0, [r4, #4]
 2266              	.LVL190:
  53:D:/fchai/work/i-cube/I-CUBE-HUAWEI/Drivers/BSP/Components/stts751\stts751_reg.c ****   return ret;
 2267              		.loc 1 53 9 view .LVU661
ARM GAS  T:\msys\tmp\cc68iQTc.s 			page 59


 2268 0028 0123     		movs	r3, #1
 2269 002a AC46     		mov	ip, r5
 2270 002c FF21     		movs	r1, #255
 2271              	.LBE205:
 2272              	.LBE204:
 681:D:/fchai/work/i-cube/I-CUBE-HUAWEI/Drivers/BSP/Components/stts751\stts751_reg.c ****                          (uint8_t*)&buff->revision_id, 1);
 682:D:/fchai/work/i-cube/I-CUBE-HUAWEI/Drivers/BSP/Components/stts751\stts751_reg.c ****   }
 683:D:/fchai/work/i-cube/I-CUBE-HUAWEI/Drivers/BSP/Components/stts751\stts751_reg.c ****   return ret;
 684:D:/fchai/work/i-cube/I-CUBE-HUAWEI/Drivers/BSP/Components/stts751\stts751_reg.c **** }
 2273              		.loc 1 684 1 view .LVU662
 2274 002e BDE87040 		pop	{r4, r5, r6, lr}
 2275              	.LCFI66:
 2276              		.cfi_remember_state
 2277              		.cfi_restore 14
 2278              		.cfi_restore 6
 2279              		.cfi_restore 5
 2280              		.cfi_restore 4
 2281              		.cfi_def_cfa_offset 0
 2282              	.LVL191:
 2283              	.LBB207:
 2284              	.LBB206:
  53:D:/fchai/work/i-cube/I-CUBE-HUAWEI/Drivers/BSP/Components/stts751\stts751_reg.c ****   return ret;
 2285              		.loc 1 53 9 view .LVU663
 2286 0032 6047     		bx	ip
 2287              	.LVL192:
 2288              	.L77:
 2289              	.LCFI67:
 2290              		.cfi_restore_state
  53:D:/fchai/work/i-cube/I-CUBE-HUAWEI/Drivers/BSP/Components/stts751\stts751_reg.c ****   return ret;
 2291              		.loc 1 53 9 view .LVU664
 2292              	.LBE206:
 2293              	.LBE207:
 2294              		.loc 1 684 1 view .LVU665
 2295 0034 70BD     		pop	{r4, r5, r6, pc}
 2296              		.loc 1 684 1 view .LVU666
 2297              		.cfi_endproc
 2298              	.LFE23:
 2300 0036 00BF     		.text
 2301              	.Letext0:
 2302              		.file 2 "t:\\msys\\3rd\\gcc-arm-none-eabi-9-2020-q2-update-win32\\arm-none-eabi\\include\\machine\
 2303              		.file 3 "t:\\msys\\3rd\\gcc-arm-none-eabi-9-2020-q2-update-win32\\arm-none-eabi\\include\\sys\\_st
 2304              		.file 4 "t:\\msys\\3rd\\gcc-arm-none-eabi-9-2020-q2-update-win32\\lib\\gcc\\arm-none-eabi\\9.3.1\\
 2305              		.file 5 "t:\\msys\\3rd\\gcc-arm-none-eabi-9-2020-q2-update-win32\\arm-none-eabi\\include\\sys\\_ty
 2306              		.file 6 "t:\\msys\\3rd\\gcc-arm-none-eabi-9-2020-q2-update-win32\\arm-none-eabi\\include\\sys\\ree
 2307              		.file 7 "t:\\msys\\3rd\\gcc-arm-none-eabi-9-2020-q2-update-win32\\arm-none-eabi\\include\\sys\\loc
 2308              		.file 8 "t:\\msys\\3rd\\gcc-arm-none-eabi-9-2020-q2-update-win32\\arm-none-eabi\\include\\math.h"
 2309              		.file 9 "D:/fchai/work/i-cube/I-CUBE-HUAWEI/Drivers/BSP/Components/stts751/stts751_reg.h"
ARM GAS  T:\msys\tmp\cc68iQTc.s 			page 60

