ARM GAS  T:\msys\tmp\cciVJco4.s 			page 1


   1              		.cpu cortex-m4
   2              		.eabi_attribute 27, 1
   3              		.eabi_attribute 28, 1
   4              		.eabi_attribute 20, 1
   5              		.eabi_attribute 21, 1
   6              		.eabi_attribute 23, 3
   7              		.eabi_attribute 24, 1
   8              		.eabi_attribute 25, 1
   9              		.eabi_attribute 26, 1
  10              		.eabi_attribute 30, 2
  11              		.eabi_attribute 34, 1
  12              		.eabi_attribute 18, 4
  13              		.file	"stts751.c"
  14              		.text
  15              	.Ltext0:
  16              		.cfi_sections	.debug_frame
  17              		.section	.text.STTS751_GetCapabilities,"ax",%progbits
  18              		.align	1
  19              		.p2align 2,,3
  20              		.global	STTS751_GetCapabilities
  21              		.arch armv7e-m
  22              		.syntax unified
  23              		.thumb
  24              		.thumb_func
  25              		.fpu fpv4-sp-d16
  27              	STTS751_GetCapabilities:
  28              	.LVL0:
  29              	.LFB4:
  30              		.file 1 "D:/fchai/work/i-cube/I-CUBE-HUAWEI/Drivers/BSP/Components/stts751/stts751.c"
   1:D:/fchai/work/i-cube/I-CUBE-HUAWEI/Drivers/BSP/Components/stts751\stts751.c **** /**
   2:D:/fchai/work/i-cube/I-CUBE-HUAWEI/Drivers/BSP/Components/stts751\stts751.c ****  ******************************************************************************
   3:D:/fchai/work/i-cube/I-CUBE-HUAWEI/Drivers/BSP/Components/stts751\stts751.c ****  * @file    stts751.c
   4:D:/fchai/work/i-cube/I-CUBE-HUAWEI/Drivers/BSP/Components/stts751\stts751.c ****  * @author  MEMS Software Solutions Team
   5:D:/fchai/work/i-cube/I-CUBE-HUAWEI/Drivers/BSP/Components/stts751\stts751.c ****  * @brief   STTS751 driver file
   6:D:/fchai/work/i-cube/I-CUBE-HUAWEI/Drivers/BSP/Components/stts751\stts751.c ****  ******************************************************************************
   7:D:/fchai/work/i-cube/I-CUBE-HUAWEI/Drivers/BSP/Components/stts751\stts751.c ****  * @attention
   8:D:/fchai/work/i-cube/I-CUBE-HUAWEI/Drivers/BSP/Components/stts751\stts751.c ****  *
   9:D:/fchai/work/i-cube/I-CUBE-HUAWEI/Drivers/BSP/Components/stts751\stts751.c ****  * <h2><center>&copy; Copyright (c) 2019 STMicroelectronics.
  10:D:/fchai/work/i-cube/I-CUBE-HUAWEI/Drivers/BSP/Components/stts751\stts751.c ****  * All rights reserved.</center></h2>
  11:D:/fchai/work/i-cube/I-CUBE-HUAWEI/Drivers/BSP/Components/stts751\stts751.c ****  *
  12:D:/fchai/work/i-cube/I-CUBE-HUAWEI/Drivers/BSP/Components/stts751\stts751.c ****  * This software component is licensed by ST under BSD 3-Clause license,
  13:D:/fchai/work/i-cube/I-CUBE-HUAWEI/Drivers/BSP/Components/stts751\stts751.c ****  * the "License"; You may not use this file except in compliance with the
  14:D:/fchai/work/i-cube/I-CUBE-HUAWEI/Drivers/BSP/Components/stts751\stts751.c ****  * License. You may obtain a copy of the License at:
  15:D:/fchai/work/i-cube/I-CUBE-HUAWEI/Drivers/BSP/Components/stts751\stts751.c ****  *                        opensource.org/licenses/BSD-3-Clause
  16:D:/fchai/work/i-cube/I-CUBE-HUAWEI/Drivers/BSP/Components/stts751\stts751.c ****  *
  17:D:/fchai/work/i-cube/I-CUBE-HUAWEI/Drivers/BSP/Components/stts751\stts751.c ****  ******************************************************************************
  18:D:/fchai/work/i-cube/I-CUBE-HUAWEI/Drivers/BSP/Components/stts751\stts751.c ****  */
  19:D:/fchai/work/i-cube/I-CUBE-HUAWEI/Drivers/BSP/Components/stts751\stts751.c **** 
  20:D:/fchai/work/i-cube/I-CUBE-HUAWEI/Drivers/BSP/Components/stts751\stts751.c **** /* Includes ------------------------------------------------------------------*/
  21:D:/fchai/work/i-cube/I-CUBE-HUAWEI/Drivers/BSP/Components/stts751\stts751.c **** #include "stts751.h"
  22:D:/fchai/work/i-cube/I-CUBE-HUAWEI/Drivers/BSP/Components/stts751\stts751.c **** 
  23:D:/fchai/work/i-cube/I-CUBE-HUAWEI/Drivers/BSP/Components/stts751\stts751.c **** /** @addtogroup BSP BSP
  24:D:/fchai/work/i-cube/I-CUBE-HUAWEI/Drivers/BSP/Components/stts751\stts751.c ****  * @{
  25:D:/fchai/work/i-cube/I-CUBE-HUAWEI/Drivers/BSP/Components/stts751\stts751.c ****  */
  26:D:/fchai/work/i-cube/I-CUBE-HUAWEI/Drivers/BSP/Components/stts751\stts751.c **** 
  27:D:/fchai/work/i-cube/I-CUBE-HUAWEI/Drivers/BSP/Components/stts751\stts751.c **** /** @addtogroup Component Component
  28:D:/fchai/work/i-cube/I-CUBE-HUAWEI/Drivers/BSP/Components/stts751\stts751.c ****  * @{
ARM GAS  T:\msys\tmp\cciVJco4.s 			page 2


  29:D:/fchai/work/i-cube/I-CUBE-HUAWEI/Drivers/BSP/Components/stts751\stts751.c ****  */
  30:D:/fchai/work/i-cube/I-CUBE-HUAWEI/Drivers/BSP/Components/stts751\stts751.c **** 
  31:D:/fchai/work/i-cube/I-CUBE-HUAWEI/Drivers/BSP/Components/stts751\stts751.c **** /** @defgroup STTS751 STTS751
  32:D:/fchai/work/i-cube/I-CUBE-HUAWEI/Drivers/BSP/Components/stts751\stts751.c ****  * @{
  33:D:/fchai/work/i-cube/I-CUBE-HUAWEI/Drivers/BSP/Components/stts751\stts751.c ****  */
  34:D:/fchai/work/i-cube/I-CUBE-HUAWEI/Drivers/BSP/Components/stts751\stts751.c **** 
  35:D:/fchai/work/i-cube/I-CUBE-HUAWEI/Drivers/BSP/Components/stts751\stts751.c **** /** @defgroup STTS751_Exported_Variables STTS751 Exported Variables
  36:D:/fchai/work/i-cube/I-CUBE-HUAWEI/Drivers/BSP/Components/stts751\stts751.c ****  * @{
  37:D:/fchai/work/i-cube/I-CUBE-HUAWEI/Drivers/BSP/Components/stts751\stts751.c ****  */
  38:D:/fchai/work/i-cube/I-CUBE-HUAWEI/Drivers/BSP/Components/stts751\stts751.c **** 
  39:D:/fchai/work/i-cube/I-CUBE-HUAWEI/Drivers/BSP/Components/stts751\stts751.c **** STTS751_CommonDrv_t STTS751_COMMON_Driver =
  40:D:/fchai/work/i-cube/I-CUBE-HUAWEI/Drivers/BSP/Components/stts751\stts751.c **** {
  41:D:/fchai/work/i-cube/I-CUBE-HUAWEI/Drivers/BSP/Components/stts751\stts751.c ****   STTS751_Init,
  42:D:/fchai/work/i-cube/I-CUBE-HUAWEI/Drivers/BSP/Components/stts751\stts751.c ****   STTS751_DeInit,
  43:D:/fchai/work/i-cube/I-CUBE-HUAWEI/Drivers/BSP/Components/stts751\stts751.c ****   STTS751_ReadID,
  44:D:/fchai/work/i-cube/I-CUBE-HUAWEI/Drivers/BSP/Components/stts751\stts751.c ****   STTS751_GetCapabilities,
  45:D:/fchai/work/i-cube/I-CUBE-HUAWEI/Drivers/BSP/Components/stts751\stts751.c **** };
  46:D:/fchai/work/i-cube/I-CUBE-HUAWEI/Drivers/BSP/Components/stts751\stts751.c **** 
  47:D:/fchai/work/i-cube/I-CUBE-HUAWEI/Drivers/BSP/Components/stts751\stts751.c **** STTS751_TEMP_Drv_t STTS751_TEMP_Driver =
  48:D:/fchai/work/i-cube/I-CUBE-HUAWEI/Drivers/BSP/Components/stts751\stts751.c **** {
  49:D:/fchai/work/i-cube/I-CUBE-HUAWEI/Drivers/BSP/Components/stts751\stts751.c ****   STTS751_TEMP_Enable,
  50:D:/fchai/work/i-cube/I-CUBE-HUAWEI/Drivers/BSP/Components/stts751\stts751.c ****   STTS751_TEMP_Disable,
  51:D:/fchai/work/i-cube/I-CUBE-HUAWEI/Drivers/BSP/Components/stts751\stts751.c ****   STTS751_TEMP_GetOutputDataRate,
  52:D:/fchai/work/i-cube/I-CUBE-HUAWEI/Drivers/BSP/Components/stts751\stts751.c ****   STTS751_TEMP_SetOutputDataRate,
  53:D:/fchai/work/i-cube/I-CUBE-HUAWEI/Drivers/BSP/Components/stts751\stts751.c ****   STTS751_TEMP_GetTemperature,
  54:D:/fchai/work/i-cube/I-CUBE-HUAWEI/Drivers/BSP/Components/stts751\stts751.c **** };
  55:D:/fchai/work/i-cube/I-CUBE-HUAWEI/Drivers/BSP/Components/stts751\stts751.c **** 
  56:D:/fchai/work/i-cube/I-CUBE-HUAWEI/Drivers/BSP/Components/stts751\stts751.c **** /**
  57:D:/fchai/work/i-cube/I-CUBE-HUAWEI/Drivers/BSP/Components/stts751\stts751.c ****  * @}
  58:D:/fchai/work/i-cube/I-CUBE-HUAWEI/Drivers/BSP/Components/stts751\stts751.c ****  */
  59:D:/fchai/work/i-cube/I-CUBE-HUAWEI/Drivers/BSP/Components/stts751\stts751.c **** 
  60:D:/fchai/work/i-cube/I-CUBE-HUAWEI/Drivers/BSP/Components/stts751\stts751.c **** /** @defgroup STTS751_Private_Function_Prototypes STTS751 Private Function Prototypes
  61:D:/fchai/work/i-cube/I-CUBE-HUAWEI/Drivers/BSP/Components/stts751\stts751.c ****  * @{
  62:D:/fchai/work/i-cube/I-CUBE-HUAWEI/Drivers/BSP/Components/stts751\stts751.c ****  */
  63:D:/fchai/work/i-cube/I-CUBE-HUAWEI/Drivers/BSP/Components/stts751\stts751.c **** 
  64:D:/fchai/work/i-cube/I-CUBE-HUAWEI/Drivers/BSP/Components/stts751\stts751.c **** static int32_t ReadRegWrap(void *Handle, uint8_t Reg, uint8_t *pData, uint16_t Length);
  65:D:/fchai/work/i-cube/I-CUBE-HUAWEI/Drivers/BSP/Components/stts751\stts751.c **** static int32_t WriteRegWrap(void *Handle, uint8_t Reg, uint8_t *pData, uint16_t Length);
  66:D:/fchai/work/i-cube/I-CUBE-HUAWEI/Drivers/BSP/Components/stts751\stts751.c **** 
  67:D:/fchai/work/i-cube/I-CUBE-HUAWEI/Drivers/BSP/Components/stts751\stts751.c **** /**
  68:D:/fchai/work/i-cube/I-CUBE-HUAWEI/Drivers/BSP/Components/stts751\stts751.c ****  * @}
  69:D:/fchai/work/i-cube/I-CUBE-HUAWEI/Drivers/BSP/Components/stts751\stts751.c ****  */
  70:D:/fchai/work/i-cube/I-CUBE-HUAWEI/Drivers/BSP/Components/stts751\stts751.c **** 
  71:D:/fchai/work/i-cube/I-CUBE-HUAWEI/Drivers/BSP/Components/stts751\stts751.c **** /** @defgroup STTS751_Exported_Functions STTS751 Exported Functions
  72:D:/fchai/work/i-cube/I-CUBE-HUAWEI/Drivers/BSP/Components/stts751\stts751.c ****  * @{
  73:D:/fchai/work/i-cube/I-CUBE-HUAWEI/Drivers/BSP/Components/stts751\stts751.c ****  */
  74:D:/fchai/work/i-cube/I-CUBE-HUAWEI/Drivers/BSP/Components/stts751\stts751.c **** 
  75:D:/fchai/work/i-cube/I-CUBE-HUAWEI/Drivers/BSP/Components/stts751\stts751.c **** /**
  76:D:/fchai/work/i-cube/I-CUBE-HUAWEI/Drivers/BSP/Components/stts751\stts751.c ****  * @brief  Register Component Bus IO operations
  77:D:/fchai/work/i-cube/I-CUBE-HUAWEI/Drivers/BSP/Components/stts751\stts751.c ****  * @param  pObj the device pObj
  78:D:/fchai/work/i-cube/I-CUBE-HUAWEI/Drivers/BSP/Components/stts751\stts751.c ****  * @retval 0 in case of success, an error code otherwise
  79:D:/fchai/work/i-cube/I-CUBE-HUAWEI/Drivers/BSP/Components/stts751\stts751.c ****  */
  80:D:/fchai/work/i-cube/I-CUBE-HUAWEI/Drivers/BSP/Components/stts751\stts751.c **** int32_t STTS751_RegisterBusIO(STTS751_Object_t *pObj, STTS751_IO_t *pIO)
  81:D:/fchai/work/i-cube/I-CUBE-HUAWEI/Drivers/BSP/Components/stts751\stts751.c **** {
  82:D:/fchai/work/i-cube/I-CUBE-HUAWEI/Drivers/BSP/Components/stts751\stts751.c ****   int32_t ret;
  83:D:/fchai/work/i-cube/I-CUBE-HUAWEI/Drivers/BSP/Components/stts751\stts751.c **** 
  84:D:/fchai/work/i-cube/I-CUBE-HUAWEI/Drivers/BSP/Components/stts751\stts751.c ****   if (pObj == NULL)
  85:D:/fchai/work/i-cube/I-CUBE-HUAWEI/Drivers/BSP/Components/stts751\stts751.c ****   {
ARM GAS  T:\msys\tmp\cciVJco4.s 			page 3


  86:D:/fchai/work/i-cube/I-CUBE-HUAWEI/Drivers/BSP/Components/stts751\stts751.c ****     ret = STTS751_ERROR;
  87:D:/fchai/work/i-cube/I-CUBE-HUAWEI/Drivers/BSP/Components/stts751\stts751.c ****   }
  88:D:/fchai/work/i-cube/I-CUBE-HUAWEI/Drivers/BSP/Components/stts751\stts751.c ****   else
  89:D:/fchai/work/i-cube/I-CUBE-HUAWEI/Drivers/BSP/Components/stts751\stts751.c ****   {
  90:D:/fchai/work/i-cube/I-CUBE-HUAWEI/Drivers/BSP/Components/stts751\stts751.c ****     pObj->IO.Init      = pIO->Init;
  91:D:/fchai/work/i-cube/I-CUBE-HUAWEI/Drivers/BSP/Components/stts751\stts751.c ****     pObj->IO.DeInit    = pIO->DeInit;
  92:D:/fchai/work/i-cube/I-CUBE-HUAWEI/Drivers/BSP/Components/stts751\stts751.c ****     pObj->IO.BusType   = pIO->BusType;
  93:D:/fchai/work/i-cube/I-CUBE-HUAWEI/Drivers/BSP/Components/stts751\stts751.c ****     pObj->IO.Address   = pIO->Address;
  94:D:/fchai/work/i-cube/I-CUBE-HUAWEI/Drivers/BSP/Components/stts751\stts751.c ****     pObj->IO.WriteReg  = pIO->WriteReg;
  95:D:/fchai/work/i-cube/I-CUBE-HUAWEI/Drivers/BSP/Components/stts751\stts751.c ****     pObj->IO.ReadReg   = pIO->ReadReg;
  96:D:/fchai/work/i-cube/I-CUBE-HUAWEI/Drivers/BSP/Components/stts751\stts751.c ****     pObj->IO.GetTick   = pIO->GetTick;
  97:D:/fchai/work/i-cube/I-CUBE-HUAWEI/Drivers/BSP/Components/stts751\stts751.c **** 
  98:D:/fchai/work/i-cube/I-CUBE-HUAWEI/Drivers/BSP/Components/stts751\stts751.c ****     pObj->Ctx.read_reg  = ReadRegWrap;
  99:D:/fchai/work/i-cube/I-CUBE-HUAWEI/Drivers/BSP/Components/stts751\stts751.c ****     pObj->Ctx.write_reg = WriteRegWrap;
 100:D:/fchai/work/i-cube/I-CUBE-HUAWEI/Drivers/BSP/Components/stts751\stts751.c ****     pObj->Ctx.handle   = pObj;
 101:D:/fchai/work/i-cube/I-CUBE-HUAWEI/Drivers/BSP/Components/stts751\stts751.c **** 
 102:D:/fchai/work/i-cube/I-CUBE-HUAWEI/Drivers/BSP/Components/stts751\stts751.c ****     if (pObj->IO.Init != NULL)
 103:D:/fchai/work/i-cube/I-CUBE-HUAWEI/Drivers/BSP/Components/stts751\stts751.c ****     {
 104:D:/fchai/work/i-cube/I-CUBE-HUAWEI/Drivers/BSP/Components/stts751\stts751.c ****       ret = pObj->IO.Init();
 105:D:/fchai/work/i-cube/I-CUBE-HUAWEI/Drivers/BSP/Components/stts751\stts751.c ****     }
 106:D:/fchai/work/i-cube/I-CUBE-HUAWEI/Drivers/BSP/Components/stts751\stts751.c ****     else
 107:D:/fchai/work/i-cube/I-CUBE-HUAWEI/Drivers/BSP/Components/stts751\stts751.c ****     {
 108:D:/fchai/work/i-cube/I-CUBE-HUAWEI/Drivers/BSP/Components/stts751\stts751.c ****       ret = STTS751_ERROR;
 109:D:/fchai/work/i-cube/I-CUBE-HUAWEI/Drivers/BSP/Components/stts751\stts751.c ****     }
 110:D:/fchai/work/i-cube/I-CUBE-HUAWEI/Drivers/BSP/Components/stts751\stts751.c ****   }
 111:D:/fchai/work/i-cube/I-CUBE-HUAWEI/Drivers/BSP/Components/stts751\stts751.c **** 
 112:D:/fchai/work/i-cube/I-CUBE-HUAWEI/Drivers/BSP/Components/stts751\stts751.c ****   return ret;
 113:D:/fchai/work/i-cube/I-CUBE-HUAWEI/Drivers/BSP/Components/stts751\stts751.c **** }
 114:D:/fchai/work/i-cube/I-CUBE-HUAWEI/Drivers/BSP/Components/stts751\stts751.c **** 
 115:D:/fchai/work/i-cube/I-CUBE-HUAWEI/Drivers/BSP/Components/stts751\stts751.c **** /**
 116:D:/fchai/work/i-cube/I-CUBE-HUAWEI/Drivers/BSP/Components/stts751\stts751.c ****  * @brief  Initialize the STTS751 sensor
 117:D:/fchai/work/i-cube/I-CUBE-HUAWEI/Drivers/BSP/Components/stts751\stts751.c ****  * @param  pObj the device pObj
 118:D:/fchai/work/i-cube/I-CUBE-HUAWEI/Drivers/BSP/Components/stts751\stts751.c ****  * @retval 0 in case of success, an error code otherwise
 119:D:/fchai/work/i-cube/I-CUBE-HUAWEI/Drivers/BSP/Components/stts751\stts751.c ****  */
 120:D:/fchai/work/i-cube/I-CUBE-HUAWEI/Drivers/BSP/Components/stts751\stts751.c **** int32_t STTS751_Init(STTS751_Object_t *pObj)
 121:D:/fchai/work/i-cube/I-CUBE-HUAWEI/Drivers/BSP/Components/stts751\stts751.c **** {
 122:D:/fchai/work/i-cube/I-CUBE-HUAWEI/Drivers/BSP/Components/stts751\stts751.c ****   if (pObj->is_initialized == 0U)
 123:D:/fchai/work/i-cube/I-CUBE-HUAWEI/Drivers/BSP/Components/stts751\stts751.c ****   {
 124:D:/fchai/work/i-cube/I-CUBE-HUAWEI/Drivers/BSP/Components/stts751\stts751.c ****     /* Disable EVENT pin of SMBus. */
 125:D:/fchai/work/i-cube/I-CUBE-HUAWEI/Drivers/BSP/Components/stts751\stts751.c ****     if (stts751_pin_event_route_set(&(pObj->Ctx),  PROPERTY_ENABLE) != STTS751_OK)
 126:D:/fchai/work/i-cube/I-CUBE-HUAWEI/Drivers/BSP/Components/stts751\stts751.c ****     {
 127:D:/fchai/work/i-cube/I-CUBE-HUAWEI/Drivers/BSP/Components/stts751\stts751.c ****       return STTS751_ERROR;
 128:D:/fchai/work/i-cube/I-CUBE-HUAWEI/Drivers/BSP/Components/stts751\stts751.c ****     }
 129:D:/fchai/work/i-cube/I-CUBE-HUAWEI/Drivers/BSP/Components/stts751\stts751.c **** 
 130:D:/fchai/work/i-cube/I-CUBE-HUAWEI/Drivers/BSP/Components/stts751\stts751.c ****     /* Set default ODR */
 131:D:/fchai/work/i-cube/I-CUBE-HUAWEI/Drivers/BSP/Components/stts751\stts751.c ****     pObj->temp_odr = 1.0f;
 132:D:/fchai/work/i-cube/I-CUBE-HUAWEI/Drivers/BSP/Components/stts751\stts751.c **** 
 133:D:/fchai/work/i-cube/I-CUBE-HUAWEI/Drivers/BSP/Components/stts751\stts751.c ****     /* Set the resolution to the maximum allowed value */
 134:D:/fchai/work/i-cube/I-CUBE-HUAWEI/Drivers/BSP/Components/stts751\stts751.c ****     if (stts751_resolution_set(&(pObj->Ctx), STTS751_12bit) != STTS751_OK)
 135:D:/fchai/work/i-cube/I-CUBE-HUAWEI/Drivers/BSP/Components/stts751\stts751.c ****     {
 136:D:/fchai/work/i-cube/I-CUBE-HUAWEI/Drivers/BSP/Components/stts751\stts751.c ****       return STTS751_ERROR;
 137:D:/fchai/work/i-cube/I-CUBE-HUAWEI/Drivers/BSP/Components/stts751\stts751.c ****     }
 138:D:/fchai/work/i-cube/I-CUBE-HUAWEI/Drivers/BSP/Components/stts751\stts751.c **** 
 139:D:/fchai/work/i-cube/I-CUBE-HUAWEI/Drivers/BSP/Components/stts751\stts751.c ****     /* Put the component in standby mode. */
 140:D:/fchai/work/i-cube/I-CUBE-HUAWEI/Drivers/BSP/Components/stts751\stts751.c ****     if (stts751_temp_data_rate_set(&(pObj->Ctx), STTS751_TEMP_ODR_OFF) != STTS751_OK)
 141:D:/fchai/work/i-cube/I-CUBE-HUAWEI/Drivers/BSP/Components/stts751\stts751.c ****     {
 142:D:/fchai/work/i-cube/I-CUBE-HUAWEI/Drivers/BSP/Components/stts751\stts751.c ****       return STTS751_ERROR;
ARM GAS  T:\msys\tmp\cciVJco4.s 			page 4


 143:D:/fchai/work/i-cube/I-CUBE-HUAWEI/Drivers/BSP/Components/stts751\stts751.c ****     }
 144:D:/fchai/work/i-cube/I-CUBE-HUAWEI/Drivers/BSP/Components/stts751\stts751.c ****   }
 145:D:/fchai/work/i-cube/I-CUBE-HUAWEI/Drivers/BSP/Components/stts751\stts751.c **** 
 146:D:/fchai/work/i-cube/I-CUBE-HUAWEI/Drivers/BSP/Components/stts751\stts751.c ****   pObj->is_initialized = 1;
 147:D:/fchai/work/i-cube/I-CUBE-HUAWEI/Drivers/BSP/Components/stts751\stts751.c **** 
 148:D:/fchai/work/i-cube/I-CUBE-HUAWEI/Drivers/BSP/Components/stts751\stts751.c ****   return STTS751_OK;
 149:D:/fchai/work/i-cube/I-CUBE-HUAWEI/Drivers/BSP/Components/stts751\stts751.c **** }
 150:D:/fchai/work/i-cube/I-CUBE-HUAWEI/Drivers/BSP/Components/stts751\stts751.c **** 
 151:D:/fchai/work/i-cube/I-CUBE-HUAWEI/Drivers/BSP/Components/stts751\stts751.c **** /**
 152:D:/fchai/work/i-cube/I-CUBE-HUAWEI/Drivers/BSP/Components/stts751\stts751.c ****  * @brief  Deinitialize the STTS751 sensor
 153:D:/fchai/work/i-cube/I-CUBE-HUAWEI/Drivers/BSP/Components/stts751\stts751.c ****  * @param  pObj the device pObj
 154:D:/fchai/work/i-cube/I-CUBE-HUAWEI/Drivers/BSP/Components/stts751\stts751.c ****  * @retval 0 in case of success, an error code otherwise
 155:D:/fchai/work/i-cube/I-CUBE-HUAWEI/Drivers/BSP/Components/stts751\stts751.c ****  */
 156:D:/fchai/work/i-cube/I-CUBE-HUAWEI/Drivers/BSP/Components/stts751\stts751.c **** int32_t STTS751_DeInit(STTS751_Object_t *pObj)
 157:D:/fchai/work/i-cube/I-CUBE-HUAWEI/Drivers/BSP/Components/stts751\stts751.c **** {
 158:D:/fchai/work/i-cube/I-CUBE-HUAWEI/Drivers/BSP/Components/stts751\stts751.c ****   if (pObj->is_initialized == 1U)
 159:D:/fchai/work/i-cube/I-CUBE-HUAWEI/Drivers/BSP/Components/stts751\stts751.c ****   {
 160:D:/fchai/work/i-cube/I-CUBE-HUAWEI/Drivers/BSP/Components/stts751\stts751.c ****     /* Put the component in standby mode */
 161:D:/fchai/work/i-cube/I-CUBE-HUAWEI/Drivers/BSP/Components/stts751\stts751.c ****     if (STTS751_TEMP_Disable(pObj) != STTS751_OK)
 162:D:/fchai/work/i-cube/I-CUBE-HUAWEI/Drivers/BSP/Components/stts751\stts751.c ****     {
 163:D:/fchai/work/i-cube/I-CUBE-HUAWEI/Drivers/BSP/Components/stts751\stts751.c ****       return STTS751_ERROR;
 164:D:/fchai/work/i-cube/I-CUBE-HUAWEI/Drivers/BSP/Components/stts751\stts751.c ****     }
 165:D:/fchai/work/i-cube/I-CUBE-HUAWEI/Drivers/BSP/Components/stts751\stts751.c ****   }
 166:D:/fchai/work/i-cube/I-CUBE-HUAWEI/Drivers/BSP/Components/stts751\stts751.c **** 
 167:D:/fchai/work/i-cube/I-CUBE-HUAWEI/Drivers/BSP/Components/stts751\stts751.c ****   pObj->is_initialized = 0;
 168:D:/fchai/work/i-cube/I-CUBE-HUAWEI/Drivers/BSP/Components/stts751\stts751.c **** 
 169:D:/fchai/work/i-cube/I-CUBE-HUAWEI/Drivers/BSP/Components/stts751\stts751.c ****   return STTS751_OK;
 170:D:/fchai/work/i-cube/I-CUBE-HUAWEI/Drivers/BSP/Components/stts751\stts751.c **** }
 171:D:/fchai/work/i-cube/I-CUBE-HUAWEI/Drivers/BSP/Components/stts751\stts751.c **** 
 172:D:/fchai/work/i-cube/I-CUBE-HUAWEI/Drivers/BSP/Components/stts751\stts751.c **** /**
 173:D:/fchai/work/i-cube/I-CUBE-HUAWEI/Drivers/BSP/Components/stts751\stts751.c ****  * @brief  Get WHO_AM_I value
 174:D:/fchai/work/i-cube/I-CUBE-HUAWEI/Drivers/BSP/Components/stts751\stts751.c ****  * @param  pObj the device pObj
 175:D:/fchai/work/i-cube/I-CUBE-HUAWEI/Drivers/BSP/Components/stts751\stts751.c ****  * @param  Id the WHO_AM_I value
 176:D:/fchai/work/i-cube/I-CUBE-HUAWEI/Drivers/BSP/Components/stts751\stts751.c ****  * @retval 0 in case of success, an error code otherwise
 177:D:/fchai/work/i-cube/I-CUBE-HUAWEI/Drivers/BSP/Components/stts751\stts751.c ****  */
 178:D:/fchai/work/i-cube/I-CUBE-HUAWEI/Drivers/BSP/Components/stts751\stts751.c **** int32_t STTS751_ReadID(STTS751_Object_t *pObj, uint8_t *Id)
 179:D:/fchai/work/i-cube/I-CUBE-HUAWEI/Drivers/BSP/Components/stts751\stts751.c **** {
 180:D:/fchai/work/i-cube/I-CUBE-HUAWEI/Drivers/BSP/Components/stts751\stts751.c ****   stts751_id_t buf;
 181:D:/fchai/work/i-cube/I-CUBE-HUAWEI/Drivers/BSP/Components/stts751\stts751.c **** 
 182:D:/fchai/work/i-cube/I-CUBE-HUAWEI/Drivers/BSP/Components/stts751\stts751.c ****   if (stts751_device_id_get(&(pObj->Ctx), &buf) != STTS751_OK)
 183:D:/fchai/work/i-cube/I-CUBE-HUAWEI/Drivers/BSP/Components/stts751\stts751.c ****   {
 184:D:/fchai/work/i-cube/I-CUBE-HUAWEI/Drivers/BSP/Components/stts751\stts751.c ****     return STTS751_ERROR;
 185:D:/fchai/work/i-cube/I-CUBE-HUAWEI/Drivers/BSP/Components/stts751\stts751.c ****   }
 186:D:/fchai/work/i-cube/I-CUBE-HUAWEI/Drivers/BSP/Components/stts751\stts751.c **** 
 187:D:/fchai/work/i-cube/I-CUBE-HUAWEI/Drivers/BSP/Components/stts751\stts751.c ****   *Id = buf.manufacturer_id;
 188:D:/fchai/work/i-cube/I-CUBE-HUAWEI/Drivers/BSP/Components/stts751\stts751.c **** 
 189:D:/fchai/work/i-cube/I-CUBE-HUAWEI/Drivers/BSP/Components/stts751\stts751.c ****   return STTS751_OK;
 190:D:/fchai/work/i-cube/I-CUBE-HUAWEI/Drivers/BSP/Components/stts751\stts751.c **** }
 191:D:/fchai/work/i-cube/I-CUBE-HUAWEI/Drivers/BSP/Components/stts751\stts751.c **** 
 192:D:/fchai/work/i-cube/I-CUBE-HUAWEI/Drivers/BSP/Components/stts751\stts751.c **** /**
 193:D:/fchai/work/i-cube/I-CUBE-HUAWEI/Drivers/BSP/Components/stts751\stts751.c ****  * @brief  Get STTS751 sensor capabilities
 194:D:/fchai/work/i-cube/I-CUBE-HUAWEI/Drivers/BSP/Components/stts751\stts751.c ****  * @param  pObj Component object pointer
 195:D:/fchai/work/i-cube/I-CUBE-HUAWEI/Drivers/BSP/Components/stts751\stts751.c ****  * @param  Capabilities pointer to STTS751 sensor capabilities
 196:D:/fchai/work/i-cube/I-CUBE-HUAWEI/Drivers/BSP/Components/stts751\stts751.c ****  * @retval 0 in case of success, an error code otherwise
 197:D:/fchai/work/i-cube/I-CUBE-HUAWEI/Drivers/BSP/Components/stts751\stts751.c ****  */
 198:D:/fchai/work/i-cube/I-CUBE-HUAWEI/Drivers/BSP/Components/stts751\stts751.c **** int32_t STTS751_GetCapabilities(STTS751_Object_t *pObj, STTS751_Capabilities_t *Capabilities)
 199:D:/fchai/work/i-cube/I-CUBE-HUAWEI/Drivers/BSP/Components/stts751\stts751.c **** {
ARM GAS  T:\msys\tmp\cciVJco4.s 			page 5


  31              		.loc 1 199 1 view -0
  32              		.cfi_startproc
  33              		@ args = 0, pretend = 0, frame = 0
  34              		@ frame_needed = 0, uses_anonymous_args = 0
  35              		@ link register save eliminated.
 200:D:/fchai/work/i-cube/I-CUBE-HUAWEI/Drivers/BSP/Components/stts751\stts751.c ****   /* Prevent unused argument(s) compilation warning */
 201:D:/fchai/work/i-cube/I-CUBE-HUAWEI/Drivers/BSP/Components/stts751\stts751.c ****   (void)(pObj);
  36              		.loc 1 201 3 view .LVU1
 202:D:/fchai/work/i-cube/I-CUBE-HUAWEI/Drivers/BSP/Components/stts751\stts751.c **** 
 203:D:/fchai/work/i-cube/I-CUBE-HUAWEI/Drivers/BSP/Components/stts751\stts751.c ****   Capabilities->Humidity    = 0;
  37              		.loc 1 203 3 view .LVU2
 204:D:/fchai/work/i-cube/I-CUBE-HUAWEI/Drivers/BSP/Components/stts751\stts751.c ****   Capabilities->Pressure    = 0;
  38              		.loc 1 204 3 view .LVU3
 205:D:/fchai/work/i-cube/I-CUBE-HUAWEI/Drivers/BSP/Components/stts751\stts751.c ****   Capabilities->Temperature = 1;
  39              		.loc 1 205 3 view .LVU4
 206:D:/fchai/work/i-cube/I-CUBE-HUAWEI/Drivers/BSP/Components/stts751\stts751.c ****   Capabilities->LowPower    = 0;
  40              		.loc 1 206 3 view .LVU5
 207:D:/fchai/work/i-cube/I-CUBE-HUAWEI/Drivers/BSP/Components/stts751\stts751.c ****   Capabilities->HumMaxOdr   = 0.0f;
  41              		.loc 1 207 3 view .LVU6
 208:D:/fchai/work/i-cube/I-CUBE-HUAWEI/Drivers/BSP/Components/stts751\stts751.c ****   Capabilities->TempMaxOdr  = 32.0f;
  42              		.loc 1 208 3 view .LVU7
 209:D:/fchai/work/i-cube/I-CUBE-HUAWEI/Drivers/BSP/Components/stts751\stts751.c ****   Capabilities->PressMaxOdr = 0.0f;
  43              		.loc 1 209 3 view .LVU8
 208:D:/fchai/work/i-cube/I-CUBE-HUAWEI/Drivers/BSP/Components/stts751\stts751.c ****   Capabilities->TempMaxOdr  = 32.0f;
  44              		.loc 1 208 29 is_stmt 0 view .LVU9
  45 0000 4FF08442 		mov	r2, #1107296256
 207:D:/fchai/work/i-cube/I-CUBE-HUAWEI/Drivers/BSP/Components/stts751\stts751.c ****   Capabilities->HumMaxOdr   = 0.0f;
  46              		.loc 1 207 29 view .LVU10
  47 0004 0023     		movs	r3, #0
 208:D:/fchai/work/i-cube/I-CUBE-HUAWEI/Drivers/BSP/Components/stts751\stts751.c ****   Capabilities->TempMaxOdr  = 32.0f;
  48              		.loc 1 208 29 view .LVU11
  49 0006 8A60     		str	r2, [r1, #8]	@ float
 205:D:/fchai/work/i-cube/I-CUBE-HUAWEI/Drivers/BSP/Components/stts751\stts751.c ****   Capabilities->LowPower    = 0;
  50              		.loc 1 205 29 view .LVU12
  51 0008 0122     		movs	r2, #1
  52 000a 0A60     		str	r2, [r1]
 207:D:/fchai/work/i-cube/I-CUBE-HUAWEI/Drivers/BSP/Components/stts751\stts751.c ****   Capabilities->TempMaxOdr  = 32.0f;
  53              		.loc 1 207 29 view .LVU13
  54 000c 4B60     		str	r3, [r1, #4]	@ float
  55              		.loc 1 209 29 view .LVU14
  56 000e CB60     		str	r3, [r1, #12]	@ float
 210:D:/fchai/work/i-cube/I-CUBE-HUAWEI/Drivers/BSP/Components/stts751\stts751.c ****   return STTS751_OK;
  57              		.loc 1 210 3 is_stmt 1 view .LVU15
 211:D:/fchai/work/i-cube/I-CUBE-HUAWEI/Drivers/BSP/Components/stts751\stts751.c **** }
  58              		.loc 1 211 1 is_stmt 0 view .LVU16
  59 0010 0020     		movs	r0, #0
  60              	.LVL1:
  61              		.loc 1 211 1 view .LVU17
  62 0012 7047     		bx	lr
  63              		.cfi_endproc
  64              	.LFE4:
  66              		.section	.text.STTS751_Init,"ax",%progbits
  67              		.align	1
  68              		.p2align 2,,3
  69              		.global	STTS751_Init
  70              		.syntax unified
  71              		.thumb
ARM GAS  T:\msys\tmp\cciVJco4.s 			page 6


  72              		.thumb_func
  73              		.fpu fpv4-sp-d16
  75              	STTS751_Init:
  76              	.LVL2:
  77              	.LFB1:
 121:D:/fchai/work/i-cube/I-CUBE-HUAWEI/Drivers/BSP/Components/stts751\stts751.c ****   if (pObj->is_initialized == 0U)
  78              		.loc 1 121 1 is_stmt 1 view -0
  79              		.cfi_startproc
  80              		@ args = 0, pretend = 0, frame = 0
  81              		@ frame_needed = 0, uses_anonymous_args = 0
 122:D:/fchai/work/i-cube/I-CUBE-HUAWEI/Drivers/BSP/Components/stts751\stts751.c ****   {
  82              		.loc 1 122 3 view .LVU19
 121:D:/fchai/work/i-cube/I-CUBE-HUAWEI/Drivers/BSP/Components/stts751\stts751.c ****   if (pObj->is_initialized == 0U)
  83              		.loc 1 121 1 is_stmt 0 view .LVU20
  84 0000 38B5     		push	{r3, r4, r5, lr}
  85              	.LCFI0:
  86              		.cfi_def_cfa_offset 16
  87              		.cfi_offset 3, -16
  88              		.cfi_offset 4, -12
  89              		.cfi_offset 5, -8
  90              		.cfi_offset 14, -4
 122:D:/fchai/work/i-cube/I-CUBE-HUAWEI/Drivers/BSP/Components/stts751\stts751.c ****   {
  91              		.loc 1 122 6 view .LVU21
  92 0002 90F82830 		ldrb	r3, [r0, #40]	@ zero_extendqisi2
 121:D:/fchai/work/i-cube/I-CUBE-HUAWEI/Drivers/BSP/Components/stts751\stts751.c ****   if (pObj->is_initialized == 0U)
  93              		.loc 1 121 1 view .LVU22
  94 0006 0446     		mov	r4, r0
 122:D:/fchai/work/i-cube/I-CUBE-HUAWEI/Drivers/BSP/Components/stts751\stts751.c ****   {
  95              		.loc 1 122 6 view .LVU23
  96 0008 23B1     		cbz	r3, .L4
  97              	.LVL3:
  98              	.L8:
 146:D:/fchai/work/i-cube/I-CUBE-HUAWEI/Drivers/BSP/Components/stts751\stts751.c **** 
  99              		.loc 1 146 3 is_stmt 1 view .LVU24
 146:D:/fchai/work/i-cube/I-CUBE-HUAWEI/Drivers/BSP/Components/stts751\stts751.c **** 
 100              		.loc 1 146 24 is_stmt 0 view .LVU25
 101 000a 0123     		movs	r3, #1
 102 000c 84F82830 		strb	r3, [r4, #40]
 148:D:/fchai/work/i-cube/I-CUBE-HUAWEI/Drivers/BSP/Components/stts751\stts751.c **** }
 103              		.loc 1 148 3 is_stmt 1 view .LVU26
 148:D:/fchai/work/i-cube/I-CUBE-HUAWEI/Drivers/BSP/Components/stts751\stts751.c **** }
 104              		.loc 1 148 10 is_stmt 0 view .LVU27
 105 0010 0020     		movs	r0, #0
 149:D:/fchai/work/i-cube/I-CUBE-HUAWEI/Drivers/BSP/Components/stts751\stts751.c **** 
 106              		.loc 1 149 1 view .LVU28
 107 0012 38BD     		pop	{r3, r4, r5, pc}
 108              	.LVL4:
 109              	.L4:
 125:D:/fchai/work/i-cube/I-CUBE-HUAWEI/Drivers/BSP/Components/stts751\stts751.c ****     {
 110              		.loc 1 125 5 is_stmt 1 view .LVU29
 125:D:/fchai/work/i-cube/I-CUBE-HUAWEI/Drivers/BSP/Components/stts751\stts751.c ****     {
 111              		.loc 1 125 9 is_stmt 0 view .LVU30
 112 0014 00F11C05 		add	r5, r0, #28
 113 0018 2846     		mov	r0, r5
 114              	.LVL5:
 125:D:/fchai/work/i-cube/I-CUBE-HUAWEI/Drivers/BSP/Components/stts751\stts751.c ****     {
 115              		.loc 1 125 9 view .LVU31
ARM GAS  T:\msys\tmp\cciVJco4.s 			page 7


 116 001a 0121     		movs	r1, #1
 117 001c FFF7FEFF 		bl	stts751_pin_event_route_set
 118              	.LVL6:
 125:D:/fchai/work/i-cube/I-CUBE-HUAWEI/Drivers/BSP/Components/stts751\stts751.c ****     {
 119              		.loc 1 125 8 view .LVU32
 120 0020 68B9     		cbnz	r0, .L7
 131:D:/fchai/work/i-cube/I-CUBE-HUAWEI/Drivers/BSP/Components/stts751\stts751.c **** 
 121              		.loc 1 131 5 is_stmt 1 view .LVU33
 131:D:/fchai/work/i-cube/I-CUBE-HUAWEI/Drivers/BSP/Components/stts751\stts751.c **** 
 122              		.loc 1 131 20 is_stmt 0 view .LVU34
 123 0022 4FF07E53 		mov	r3, #1065353216
 124 0026 E362     		str	r3, [r4, #44]	@ float
 134:D:/fchai/work/i-cube/I-CUBE-HUAWEI/Drivers/BSP/Components/stts751\stts751.c ****     {
 125              		.loc 1 134 5 is_stmt 1 view .LVU35
 134:D:/fchai/work/i-cube/I-CUBE-HUAWEI/Drivers/BSP/Components/stts751\stts751.c ****     {
 126              		.loc 1 134 9 is_stmt 0 view .LVU36
 127 0028 0321     		movs	r1, #3
 128 002a 2846     		mov	r0, r5
 129 002c FFF7FEFF 		bl	stts751_resolution_set
 130              	.LVL7:
 134:D:/fchai/work/i-cube/I-CUBE-HUAWEI/Drivers/BSP/Components/stts751\stts751.c ****     {
 131              		.loc 1 134 8 view .LVU37
 132 0030 28B9     		cbnz	r0, .L7
 140:D:/fchai/work/i-cube/I-CUBE-HUAWEI/Drivers/BSP/Components/stts751\stts751.c ****     {
 133              		.loc 1 140 5 is_stmt 1 view .LVU38
 140:D:/fchai/work/i-cube/I-CUBE-HUAWEI/Drivers/BSP/Components/stts751\stts751.c ****     {
 134              		.loc 1 140 9 is_stmt 0 view .LVU39
 135 0032 2846     		mov	r0, r5
 136 0034 8021     		movs	r1, #128
 137 0036 FFF7FEFF 		bl	stts751_temp_data_rate_set
 138              	.LVL8:
 140:D:/fchai/work/i-cube/I-CUBE-HUAWEI/Drivers/BSP/Components/stts751\stts751.c ****     {
 139              		.loc 1 140 8 view .LVU40
 140 003a 0028     		cmp	r0, #0
 141 003c E5D0     		beq	.L8
 142              	.L7:
 127:D:/fchai/work/i-cube/I-CUBE-HUAWEI/Drivers/BSP/Components/stts751\stts751.c ****     }
 143              		.loc 1 127 14 view .LVU41
 144 003e 4FF0FF30 		mov	r0, #-1
 149:D:/fchai/work/i-cube/I-CUBE-HUAWEI/Drivers/BSP/Components/stts751\stts751.c **** 
 145              		.loc 1 149 1 view .LVU42
 146 0042 38BD     		pop	{r3, r4, r5, pc}
 149:D:/fchai/work/i-cube/I-CUBE-HUAWEI/Drivers/BSP/Components/stts751\stts751.c **** 
 147              		.loc 1 149 1 view .LVU43
 148              		.cfi_endproc
 149              	.LFE1:
 151              		.section	.text.STTS751_ReadID,"ax",%progbits
 152              		.align	1
 153              		.p2align 2,,3
 154              		.global	STTS751_ReadID
 155              		.syntax unified
 156              		.thumb
 157              		.thumb_func
 158              		.fpu fpv4-sp-d16
 160              	STTS751_ReadID:
 161              	.LVL9:
 162              	.LFB3:
ARM GAS  T:\msys\tmp\cciVJco4.s 			page 8


 179:D:/fchai/work/i-cube/I-CUBE-HUAWEI/Drivers/BSP/Components/stts751\stts751.c ****   stts751_id_t buf;
 163              		.loc 1 179 1 is_stmt 1 view -0
 164              		.cfi_startproc
 165              		@ args = 0, pretend = 0, frame = 8
 166              		@ frame_needed = 0, uses_anonymous_args = 0
 180:D:/fchai/work/i-cube/I-CUBE-HUAWEI/Drivers/BSP/Components/stts751\stts751.c **** 
 167              		.loc 1 180 3 view .LVU45
 182:D:/fchai/work/i-cube/I-CUBE-HUAWEI/Drivers/BSP/Components/stts751\stts751.c ****   {
 168              		.loc 1 182 3 view .LVU46
 179:D:/fchai/work/i-cube/I-CUBE-HUAWEI/Drivers/BSP/Components/stts751\stts751.c ****   stts751_id_t buf;
 169              		.loc 1 179 1 is_stmt 0 view .LVU47
 170 0000 10B5     		push	{r4, lr}
 171              	.LCFI1:
 172              		.cfi_def_cfa_offset 8
 173              		.cfi_offset 4, -8
 174              		.cfi_offset 14, -4
 175 0002 82B0     		sub	sp, sp, #8
 176              	.LCFI2:
 177              		.cfi_def_cfa_offset 16
 179:D:/fchai/work/i-cube/I-CUBE-HUAWEI/Drivers/BSP/Components/stts751\stts751.c ****   stts751_id_t buf;
 178              		.loc 1 179 1 view .LVU48
 179 0004 0C46     		mov	r4, r1
 182:D:/fchai/work/i-cube/I-CUBE-HUAWEI/Drivers/BSP/Components/stts751\stts751.c ****   {
 180              		.loc 1 182 7 view .LVU49
 181 0006 1C30     		adds	r0, r0, #28
 182              	.LVL10:
 182:D:/fchai/work/i-cube/I-CUBE-HUAWEI/Drivers/BSP/Components/stts751\stts751.c ****   {
 183              		.loc 1 182 7 view .LVU50
 184 0008 01A9     		add	r1, sp, #4
 185              	.LVL11:
 182:D:/fchai/work/i-cube/I-CUBE-HUAWEI/Drivers/BSP/Components/stts751\stts751.c ****   {
 186              		.loc 1 182 7 view .LVU51
 187 000a FFF7FEFF 		bl	stts751_device_id_get
 188              	.LVL12:
 182:D:/fchai/work/i-cube/I-CUBE-HUAWEI/Drivers/BSP/Components/stts751\stts751.c ****   {
 189              		.loc 1 182 6 view .LVU52
 190 000e 20B9     		cbnz	r0, .L12
 187:D:/fchai/work/i-cube/I-CUBE-HUAWEI/Drivers/BSP/Components/stts751\stts751.c **** 
 191              		.loc 1 187 3 is_stmt 1 view .LVU53
 187:D:/fchai/work/i-cube/I-CUBE-HUAWEI/Drivers/BSP/Components/stts751\stts751.c **** 
 192              		.loc 1 187 7 is_stmt 0 view .LVU54
 193 0010 9DF80530 		ldrb	r3, [sp, #5]	@ zero_extendqisi2
 194 0014 2370     		strb	r3, [r4]
 189:D:/fchai/work/i-cube/I-CUBE-HUAWEI/Drivers/BSP/Components/stts751\stts751.c **** }
 195              		.loc 1 189 3 is_stmt 1 view .LVU55
 196              	.L10:
 190:D:/fchai/work/i-cube/I-CUBE-HUAWEI/Drivers/BSP/Components/stts751\stts751.c **** 
 197              		.loc 1 190 1 is_stmt 0 view .LVU56
 198 0016 02B0     		add	sp, sp, #8
 199              	.LCFI3:
 200              		.cfi_remember_state
 201              		.cfi_def_cfa_offset 8
 202              		@ sp needed
 203 0018 10BD     		pop	{r4, pc}
 204              	.LVL13:
 205              	.L12:
 206              	.LCFI4:
ARM GAS  T:\msys\tmp\cciVJco4.s 			page 9


 207              		.cfi_restore_state
 184:D:/fchai/work/i-cube/I-CUBE-HUAWEI/Drivers/BSP/Components/stts751\stts751.c ****   }
 208              		.loc 1 184 12 view .LVU57
 209 001a 4FF0FF30 		mov	r0, #-1
 210 001e FAE7     		b	.L10
 211              		.cfi_endproc
 212              	.LFE3:
 214              		.section	.text.STTS751_TEMP_GetOutputDataRate,"ax",%progbits
 215              		.align	1
 216              		.p2align 2,,3
 217              		.global	STTS751_TEMP_GetOutputDataRate
 218              		.syntax unified
 219              		.thumb
 220              		.thumb_func
 221              		.fpu fpv4-sp-d16
 223              	STTS751_TEMP_GetOutputDataRate:
 224              	.LVL14:
 225              	.LFB8:
 212:D:/fchai/work/i-cube/I-CUBE-HUAWEI/Drivers/BSP/Components/stts751\stts751.c **** 
 213:D:/fchai/work/i-cube/I-CUBE-HUAWEI/Drivers/BSP/Components/stts751\stts751.c **** /**
 214:D:/fchai/work/i-cube/I-CUBE-HUAWEI/Drivers/BSP/Components/stts751\stts751.c ****  * @brief  Get the STTS751 initialization status
 215:D:/fchai/work/i-cube/I-CUBE-HUAWEI/Drivers/BSP/Components/stts751\stts751.c ****  * @param  pObj the device pObj
 216:D:/fchai/work/i-cube/I-CUBE-HUAWEI/Drivers/BSP/Components/stts751\stts751.c ****  * @param  Status 1 if initialized, 0 otherwise
 217:D:/fchai/work/i-cube/I-CUBE-HUAWEI/Drivers/BSP/Components/stts751\stts751.c ****  * @retval 0 in case of success, an error code otherwise
 218:D:/fchai/work/i-cube/I-CUBE-HUAWEI/Drivers/BSP/Components/stts751\stts751.c ****  */
 219:D:/fchai/work/i-cube/I-CUBE-HUAWEI/Drivers/BSP/Components/stts751\stts751.c **** int32_t STTS751_Get_Init_Status(STTS751_Object_t *pObj, uint8_t *Status)
 220:D:/fchai/work/i-cube/I-CUBE-HUAWEI/Drivers/BSP/Components/stts751\stts751.c **** {
 221:D:/fchai/work/i-cube/I-CUBE-HUAWEI/Drivers/BSP/Components/stts751\stts751.c ****   if (pObj == NULL)
 222:D:/fchai/work/i-cube/I-CUBE-HUAWEI/Drivers/BSP/Components/stts751\stts751.c ****   {
 223:D:/fchai/work/i-cube/I-CUBE-HUAWEI/Drivers/BSP/Components/stts751\stts751.c ****     return STTS751_ERROR;
 224:D:/fchai/work/i-cube/I-CUBE-HUAWEI/Drivers/BSP/Components/stts751\stts751.c ****   }
 225:D:/fchai/work/i-cube/I-CUBE-HUAWEI/Drivers/BSP/Components/stts751\stts751.c **** 
 226:D:/fchai/work/i-cube/I-CUBE-HUAWEI/Drivers/BSP/Components/stts751\stts751.c ****   *Status = pObj->is_initialized;
 227:D:/fchai/work/i-cube/I-CUBE-HUAWEI/Drivers/BSP/Components/stts751\stts751.c **** 
 228:D:/fchai/work/i-cube/I-CUBE-HUAWEI/Drivers/BSP/Components/stts751\stts751.c ****   return STTS751_OK;
 229:D:/fchai/work/i-cube/I-CUBE-HUAWEI/Drivers/BSP/Components/stts751\stts751.c **** }
 230:D:/fchai/work/i-cube/I-CUBE-HUAWEI/Drivers/BSP/Components/stts751\stts751.c **** 
 231:D:/fchai/work/i-cube/I-CUBE-HUAWEI/Drivers/BSP/Components/stts751\stts751.c **** /**
 232:D:/fchai/work/i-cube/I-CUBE-HUAWEI/Drivers/BSP/Components/stts751\stts751.c ****  * @brief  Enable the STTS751 temperature sensor
 233:D:/fchai/work/i-cube/I-CUBE-HUAWEI/Drivers/BSP/Components/stts751\stts751.c ****  * @param  pObj the device pObj
 234:D:/fchai/work/i-cube/I-CUBE-HUAWEI/Drivers/BSP/Components/stts751\stts751.c ****  * @retval 0 in case of success, an error code otherwise
 235:D:/fchai/work/i-cube/I-CUBE-HUAWEI/Drivers/BSP/Components/stts751\stts751.c ****  */
 236:D:/fchai/work/i-cube/I-CUBE-HUAWEI/Drivers/BSP/Components/stts751\stts751.c **** int32_t STTS751_TEMP_Enable(STTS751_Object_t *pObj)
 237:D:/fchai/work/i-cube/I-CUBE-HUAWEI/Drivers/BSP/Components/stts751\stts751.c **** {
 238:D:/fchai/work/i-cube/I-CUBE-HUAWEI/Drivers/BSP/Components/stts751\stts751.c ****   /* Check if the component is already enabled */
 239:D:/fchai/work/i-cube/I-CUBE-HUAWEI/Drivers/BSP/Components/stts751\stts751.c ****   if (pObj->temp_is_enabled == 1U)
 240:D:/fchai/work/i-cube/I-CUBE-HUAWEI/Drivers/BSP/Components/stts751\stts751.c ****   {
 241:D:/fchai/work/i-cube/I-CUBE-HUAWEI/Drivers/BSP/Components/stts751\stts751.c ****     return STTS751_OK;
 242:D:/fchai/work/i-cube/I-CUBE-HUAWEI/Drivers/BSP/Components/stts751\stts751.c ****   }
 243:D:/fchai/work/i-cube/I-CUBE-HUAWEI/Drivers/BSP/Components/stts751\stts751.c **** 
 244:D:/fchai/work/i-cube/I-CUBE-HUAWEI/Drivers/BSP/Components/stts751\stts751.c ****   /* Power on the component and set the odr. */
 245:D:/fchai/work/i-cube/I-CUBE-HUAWEI/Drivers/BSP/Components/stts751\stts751.c ****   if (STTS751_TEMP_SetOutputDataRate(pObj, pObj->temp_odr) != STTS751_OK)
 246:D:/fchai/work/i-cube/I-CUBE-HUAWEI/Drivers/BSP/Components/stts751\stts751.c ****   {
 247:D:/fchai/work/i-cube/I-CUBE-HUAWEI/Drivers/BSP/Components/stts751\stts751.c ****     return STTS751_ERROR;
 248:D:/fchai/work/i-cube/I-CUBE-HUAWEI/Drivers/BSP/Components/stts751\stts751.c ****   }
 249:D:/fchai/work/i-cube/I-CUBE-HUAWEI/Drivers/BSP/Components/stts751\stts751.c **** 
 250:D:/fchai/work/i-cube/I-CUBE-HUAWEI/Drivers/BSP/Components/stts751\stts751.c ****   pObj->temp_is_enabled = 1;
ARM GAS  T:\msys\tmp\cciVJco4.s 			page 10


 251:D:/fchai/work/i-cube/I-CUBE-HUAWEI/Drivers/BSP/Components/stts751\stts751.c **** 
 252:D:/fchai/work/i-cube/I-CUBE-HUAWEI/Drivers/BSP/Components/stts751\stts751.c ****   return STTS751_OK;
 253:D:/fchai/work/i-cube/I-CUBE-HUAWEI/Drivers/BSP/Components/stts751\stts751.c **** }
 254:D:/fchai/work/i-cube/I-CUBE-HUAWEI/Drivers/BSP/Components/stts751\stts751.c **** 
 255:D:/fchai/work/i-cube/I-CUBE-HUAWEI/Drivers/BSP/Components/stts751\stts751.c **** /**
 256:D:/fchai/work/i-cube/I-CUBE-HUAWEI/Drivers/BSP/Components/stts751\stts751.c ****  * @brief  Disable the STTS751 temperature sensor
 257:D:/fchai/work/i-cube/I-CUBE-HUAWEI/Drivers/BSP/Components/stts751\stts751.c ****  * @param  pObj the device pObj
 258:D:/fchai/work/i-cube/I-CUBE-HUAWEI/Drivers/BSP/Components/stts751\stts751.c ****  * @retval 0 in case of success, an error code otherwise
 259:D:/fchai/work/i-cube/I-CUBE-HUAWEI/Drivers/BSP/Components/stts751\stts751.c ****  */
 260:D:/fchai/work/i-cube/I-CUBE-HUAWEI/Drivers/BSP/Components/stts751\stts751.c **** int32_t STTS751_TEMP_Disable(STTS751_Object_t *pObj)
 261:D:/fchai/work/i-cube/I-CUBE-HUAWEI/Drivers/BSP/Components/stts751\stts751.c **** {
 262:D:/fchai/work/i-cube/I-CUBE-HUAWEI/Drivers/BSP/Components/stts751\stts751.c ****   /* Check if the component is already disabled */
 263:D:/fchai/work/i-cube/I-CUBE-HUAWEI/Drivers/BSP/Components/stts751\stts751.c ****   if (pObj->temp_is_enabled == 0U)
 264:D:/fchai/work/i-cube/I-CUBE-HUAWEI/Drivers/BSP/Components/stts751\stts751.c ****   {
 265:D:/fchai/work/i-cube/I-CUBE-HUAWEI/Drivers/BSP/Components/stts751\stts751.c ****     return STTS751_OK;
 266:D:/fchai/work/i-cube/I-CUBE-HUAWEI/Drivers/BSP/Components/stts751\stts751.c ****   }
 267:D:/fchai/work/i-cube/I-CUBE-HUAWEI/Drivers/BSP/Components/stts751\stts751.c **** 
 268:D:/fchai/work/i-cube/I-CUBE-HUAWEI/Drivers/BSP/Components/stts751\stts751.c ****   /* Save the current odr. */
 269:D:/fchai/work/i-cube/I-CUBE-HUAWEI/Drivers/BSP/Components/stts751\stts751.c ****   if (STTS751_TEMP_GetOutputDataRate(pObj, &pObj->temp_odr) != STTS751_OK)
 270:D:/fchai/work/i-cube/I-CUBE-HUAWEI/Drivers/BSP/Components/stts751\stts751.c ****   {
 271:D:/fchai/work/i-cube/I-CUBE-HUAWEI/Drivers/BSP/Components/stts751\stts751.c ****     return STTS751_ERROR;
 272:D:/fchai/work/i-cube/I-CUBE-HUAWEI/Drivers/BSP/Components/stts751\stts751.c ****   }
 273:D:/fchai/work/i-cube/I-CUBE-HUAWEI/Drivers/BSP/Components/stts751\stts751.c ****   
 274:D:/fchai/work/i-cube/I-CUBE-HUAWEI/Drivers/BSP/Components/stts751\stts751.c ****   /* Put the component in standby mode. */
 275:D:/fchai/work/i-cube/I-CUBE-HUAWEI/Drivers/BSP/Components/stts751\stts751.c ****   if (stts751_temp_data_rate_set(&(pObj->Ctx), STTS751_TEMP_ODR_OFF) != STTS751_OK)
 276:D:/fchai/work/i-cube/I-CUBE-HUAWEI/Drivers/BSP/Components/stts751\stts751.c ****   {
 277:D:/fchai/work/i-cube/I-CUBE-HUAWEI/Drivers/BSP/Components/stts751\stts751.c ****     return STTS751_ERROR;
 278:D:/fchai/work/i-cube/I-CUBE-HUAWEI/Drivers/BSP/Components/stts751\stts751.c ****   }
 279:D:/fchai/work/i-cube/I-CUBE-HUAWEI/Drivers/BSP/Components/stts751\stts751.c **** 
 280:D:/fchai/work/i-cube/I-CUBE-HUAWEI/Drivers/BSP/Components/stts751\stts751.c ****   pObj->temp_is_enabled = 0;
 281:D:/fchai/work/i-cube/I-CUBE-HUAWEI/Drivers/BSP/Components/stts751\stts751.c **** 
 282:D:/fchai/work/i-cube/I-CUBE-HUAWEI/Drivers/BSP/Components/stts751\stts751.c ****   return STTS751_OK;
 283:D:/fchai/work/i-cube/I-CUBE-HUAWEI/Drivers/BSP/Components/stts751\stts751.c **** }
 284:D:/fchai/work/i-cube/I-CUBE-HUAWEI/Drivers/BSP/Components/stts751\stts751.c **** 
 285:D:/fchai/work/i-cube/I-CUBE-HUAWEI/Drivers/BSP/Components/stts751\stts751.c **** /**
 286:D:/fchai/work/i-cube/I-CUBE-HUAWEI/Drivers/BSP/Components/stts751\stts751.c ****  * @brief  Get the STTS751 temperature sensor output data rate
 287:D:/fchai/work/i-cube/I-CUBE-HUAWEI/Drivers/BSP/Components/stts751\stts751.c ****  * @param  pObj the device pObj
 288:D:/fchai/work/i-cube/I-CUBE-HUAWEI/Drivers/BSP/Components/stts751\stts751.c ****  * @param  Odr pointer where the output data rate is written
 289:D:/fchai/work/i-cube/I-CUBE-HUAWEI/Drivers/BSP/Components/stts751\stts751.c ****  * @retval 0 in case of success, an error code otherwise
 290:D:/fchai/work/i-cube/I-CUBE-HUAWEI/Drivers/BSP/Components/stts751\stts751.c ****  */
 291:D:/fchai/work/i-cube/I-CUBE-HUAWEI/Drivers/BSP/Components/stts751\stts751.c **** int32_t STTS751_TEMP_GetOutputDataRate(STTS751_Object_t *pObj, float *Odr)
 292:D:/fchai/work/i-cube/I-CUBE-HUAWEI/Drivers/BSP/Components/stts751\stts751.c **** {
 226              		.loc 1 292 1 is_stmt 1 view -0
 227              		.cfi_startproc
 228              		@ args = 0, pretend = 0, frame = 8
 229              		@ frame_needed = 0, uses_anonymous_args = 0
 293:D:/fchai/work/i-cube/I-CUBE-HUAWEI/Drivers/BSP/Components/stts751\stts751.c ****   int32_t ret = STTS751_OK;
 230              		.loc 1 293 3 view .LVU59
 294:D:/fchai/work/i-cube/I-CUBE-HUAWEI/Drivers/BSP/Components/stts751\stts751.c ****   stts751_odr_t odr_low_level;
 231              		.loc 1 294 3 view .LVU60
 295:D:/fchai/work/i-cube/I-CUBE-HUAWEI/Drivers/BSP/Components/stts751\stts751.c **** 
 296:D:/fchai/work/i-cube/I-CUBE-HUAWEI/Drivers/BSP/Components/stts751\stts751.c ****   if (stts751_temp_data_rate_get(&(pObj->Ctx), &odr_low_level) != STTS751_OK)
 232              		.loc 1 296 3 view .LVU61
 292:D:/fchai/work/i-cube/I-CUBE-HUAWEI/Drivers/BSP/Components/stts751\stts751.c ****   int32_t ret = STTS751_OK;
 233              		.loc 1 292 1 is_stmt 0 view .LVU62
 234 0000 10B5     		push	{r4, lr}
 235              	.LCFI5:
ARM GAS  T:\msys\tmp\cciVJco4.s 			page 11


 236              		.cfi_def_cfa_offset 8
 237              		.cfi_offset 4, -8
 238              		.cfi_offset 14, -4
 239 0002 82B0     		sub	sp, sp, #8
 240              	.LCFI6:
 241              		.cfi_def_cfa_offset 16
 292:D:/fchai/work/i-cube/I-CUBE-HUAWEI/Drivers/BSP/Components/stts751\stts751.c ****   int32_t ret = STTS751_OK;
 242              		.loc 1 292 1 view .LVU63
 243 0004 0C46     		mov	r4, r1
 244              		.loc 1 296 7 view .LVU64
 245 0006 1C30     		adds	r0, r0, #28
 246              	.LVL15:
 247              		.loc 1 296 7 view .LVU65
 248 0008 0DF10701 		add	r1, sp, #7
 249              	.LVL16:
 250              		.loc 1 296 7 view .LVU66
 251 000c FFF7FEFF 		bl	stts751_temp_data_rate_get
 252              	.LVL17:
 253              		.loc 1 296 6 view .LVU67
 254 0010 88B9     		cbnz	r0, .L29
 297:D:/fchai/work/i-cube/I-CUBE-HUAWEI/Drivers/BSP/Components/stts751\stts751.c ****   {
 298:D:/fchai/work/i-cube/I-CUBE-HUAWEI/Drivers/BSP/Components/stts751\stts751.c ****     return STTS751_ERROR;
 299:D:/fchai/work/i-cube/I-CUBE-HUAWEI/Drivers/BSP/Components/stts751\stts751.c ****   }
 300:D:/fchai/work/i-cube/I-CUBE-HUAWEI/Drivers/BSP/Components/stts751\stts751.c **** 
 301:D:/fchai/work/i-cube/I-CUBE-HUAWEI/Drivers/BSP/Components/stts751\stts751.c ****   switch (odr_low_level)
 255              		.loc 1 301 3 is_stmt 1 view .LVU68
 256 0012 9DF80730 		ldrb	r3, [sp, #7]	@ zero_extendqisi2
 257 0016 092B     		cmp	r3, #9
 258 0018 09D8     		bhi	.L16
 259 001a 013B     		subs	r3, r3, #1
 260 001c 082B     		cmp	r3, #8
 261 001e 35D8     		bhi	.L17
 262 0020 DFE803F0 		tbb	[pc, r3]
 263              	.L19:
 264 0024 15       		.byte	(.L27-.L19)/2
 265 0025 19       		.byte	(.L26-.L19)/2
 266 0026 1D       		.byte	(.L25-.L19)/2
 267 0027 21       		.byte	(.L24-.L19)/2
 268 0028 25       		.byte	(.L23-.L19)/2
 269 0029 29       		.byte	(.L22-.L19)/2
 270 002a 2D       		.byte	(.L21-.L19)/2
 271 002b 0D       		.byte	(.L20-.L19)/2
 272 002c 11       		.byte	(.L18-.L19)/2
 273 002d 00       		.p2align 1
 274              	.L16:
 275 002e 03F0EF03 		and	r3, r3, #239
 276 0032 802B     		cmp	r3, #128
 277 0034 27D0     		beq	.L31
 278              	.L29:
 279 0036 4FF0FF30 		mov	r0, #-1
 280              	.LVL18:
 281              	.L14:
 302:D:/fchai/work/i-cube/I-CUBE-HUAWEI/Drivers/BSP/Components/stts751\stts751.c ****   {
 303:D:/fchai/work/i-cube/I-CUBE-HUAWEI/Drivers/BSP/Components/stts751\stts751.c ****     case STTS751_TEMP_ODR_OFF:
 304:D:/fchai/work/i-cube/I-CUBE-HUAWEI/Drivers/BSP/Components/stts751\stts751.c **** 	case STTS751_TEMP_ODR_ONE_SHOT:
 305:D:/fchai/work/i-cube/I-CUBE-HUAWEI/Drivers/BSP/Components/stts751\stts751.c ****       *Odr = 0.0f;
 306:D:/fchai/work/i-cube/I-CUBE-HUAWEI/Drivers/BSP/Components/stts751\stts751.c ****       break;
ARM GAS  T:\msys\tmp\cciVJco4.s 			page 12


 307:D:/fchai/work/i-cube/I-CUBE-HUAWEI/Drivers/BSP/Components/stts751\stts751.c **** 
 308:D:/fchai/work/i-cube/I-CUBE-HUAWEI/Drivers/BSP/Components/stts751\stts751.c ****     case STTS751_TEMP_ODR_62mHz5:
 309:D:/fchai/work/i-cube/I-CUBE-HUAWEI/Drivers/BSP/Components/stts751\stts751.c ****       *Odr = 0.0625f;
 310:D:/fchai/work/i-cube/I-CUBE-HUAWEI/Drivers/BSP/Components/stts751\stts751.c ****       break;
 311:D:/fchai/work/i-cube/I-CUBE-HUAWEI/Drivers/BSP/Components/stts751\stts751.c **** 
 312:D:/fchai/work/i-cube/I-CUBE-HUAWEI/Drivers/BSP/Components/stts751\stts751.c ****     case STTS751_TEMP_ODR_125mHz:
 313:D:/fchai/work/i-cube/I-CUBE-HUAWEI/Drivers/BSP/Components/stts751\stts751.c ****       *Odr = 0.125f;
 314:D:/fchai/work/i-cube/I-CUBE-HUAWEI/Drivers/BSP/Components/stts751\stts751.c ****       break;
 315:D:/fchai/work/i-cube/I-CUBE-HUAWEI/Drivers/BSP/Components/stts751\stts751.c **** 
 316:D:/fchai/work/i-cube/I-CUBE-HUAWEI/Drivers/BSP/Components/stts751\stts751.c ****     case STTS751_TEMP_ODR_250mHz:
 317:D:/fchai/work/i-cube/I-CUBE-HUAWEI/Drivers/BSP/Components/stts751\stts751.c ****       *Odr = 0.250f;
 318:D:/fchai/work/i-cube/I-CUBE-HUAWEI/Drivers/BSP/Components/stts751\stts751.c ****       break;
 319:D:/fchai/work/i-cube/I-CUBE-HUAWEI/Drivers/BSP/Components/stts751\stts751.c **** 
 320:D:/fchai/work/i-cube/I-CUBE-HUAWEI/Drivers/BSP/Components/stts751\stts751.c ****     case STTS751_TEMP_ODR_500mHz:
 321:D:/fchai/work/i-cube/I-CUBE-HUAWEI/Drivers/BSP/Components/stts751\stts751.c ****       *Odr = 0.500f;
 322:D:/fchai/work/i-cube/I-CUBE-HUAWEI/Drivers/BSP/Components/stts751\stts751.c ****       break;
 323:D:/fchai/work/i-cube/I-CUBE-HUAWEI/Drivers/BSP/Components/stts751\stts751.c **** 
 324:D:/fchai/work/i-cube/I-CUBE-HUAWEI/Drivers/BSP/Components/stts751\stts751.c ****     case STTS751_TEMP_ODR_1Hz:
 325:D:/fchai/work/i-cube/I-CUBE-HUAWEI/Drivers/BSP/Components/stts751\stts751.c ****       *Odr = 1.0f;
 326:D:/fchai/work/i-cube/I-CUBE-HUAWEI/Drivers/BSP/Components/stts751\stts751.c ****       break;
 327:D:/fchai/work/i-cube/I-CUBE-HUAWEI/Drivers/BSP/Components/stts751\stts751.c **** 
 328:D:/fchai/work/i-cube/I-CUBE-HUAWEI/Drivers/BSP/Components/stts751\stts751.c ****     case STTS751_TEMP_ODR_2Hz:
 329:D:/fchai/work/i-cube/I-CUBE-HUAWEI/Drivers/BSP/Components/stts751\stts751.c ****       *Odr = 2.0f;
 330:D:/fchai/work/i-cube/I-CUBE-HUAWEI/Drivers/BSP/Components/stts751\stts751.c ****       break;
 331:D:/fchai/work/i-cube/I-CUBE-HUAWEI/Drivers/BSP/Components/stts751\stts751.c **** 
 332:D:/fchai/work/i-cube/I-CUBE-HUAWEI/Drivers/BSP/Components/stts751\stts751.c ****     case STTS751_TEMP_ODR_4Hz:
 333:D:/fchai/work/i-cube/I-CUBE-HUAWEI/Drivers/BSP/Components/stts751\stts751.c ****       *Odr = 4.0f;
 334:D:/fchai/work/i-cube/I-CUBE-HUAWEI/Drivers/BSP/Components/stts751\stts751.c ****       break;
 335:D:/fchai/work/i-cube/I-CUBE-HUAWEI/Drivers/BSP/Components/stts751\stts751.c **** 
 336:D:/fchai/work/i-cube/I-CUBE-HUAWEI/Drivers/BSP/Components/stts751\stts751.c ****     case STTS751_TEMP_ODR_8Hz:
 337:D:/fchai/work/i-cube/I-CUBE-HUAWEI/Drivers/BSP/Components/stts751\stts751.c ****       *Odr = 8.0f;
 338:D:/fchai/work/i-cube/I-CUBE-HUAWEI/Drivers/BSP/Components/stts751\stts751.c ****       break;
 339:D:/fchai/work/i-cube/I-CUBE-HUAWEI/Drivers/BSP/Components/stts751\stts751.c **** 
 340:D:/fchai/work/i-cube/I-CUBE-HUAWEI/Drivers/BSP/Components/stts751\stts751.c ****     case STTS751_TEMP_ODR_16Hz:
 341:D:/fchai/work/i-cube/I-CUBE-HUAWEI/Drivers/BSP/Components/stts751\stts751.c ****       *Odr = 16.0f;
 342:D:/fchai/work/i-cube/I-CUBE-HUAWEI/Drivers/BSP/Components/stts751\stts751.c ****       break;
 343:D:/fchai/work/i-cube/I-CUBE-HUAWEI/Drivers/BSP/Components/stts751\stts751.c **** 
 344:D:/fchai/work/i-cube/I-CUBE-HUAWEI/Drivers/BSP/Components/stts751\stts751.c ****     case STTS751_TEMP_ODR_32Hz:
 345:D:/fchai/work/i-cube/I-CUBE-HUAWEI/Drivers/BSP/Components/stts751\stts751.c ****       *Odr = 32.0f;
 346:D:/fchai/work/i-cube/I-CUBE-HUAWEI/Drivers/BSP/Components/stts751\stts751.c ****       break;
 347:D:/fchai/work/i-cube/I-CUBE-HUAWEI/Drivers/BSP/Components/stts751\stts751.c **** 
 348:D:/fchai/work/i-cube/I-CUBE-HUAWEI/Drivers/BSP/Components/stts751\stts751.c ****     default:
 349:D:/fchai/work/i-cube/I-CUBE-HUAWEI/Drivers/BSP/Components/stts751\stts751.c ****       ret = STTS751_ERROR;
 350:D:/fchai/work/i-cube/I-CUBE-HUAWEI/Drivers/BSP/Components/stts751\stts751.c ****       break;
 351:D:/fchai/work/i-cube/I-CUBE-HUAWEI/Drivers/BSP/Components/stts751\stts751.c ****   }
 352:D:/fchai/work/i-cube/I-CUBE-HUAWEI/Drivers/BSP/Components/stts751\stts751.c **** 
 353:D:/fchai/work/i-cube/I-CUBE-HUAWEI/Drivers/BSP/Components/stts751\stts751.c ****   return ret;
 354:D:/fchai/work/i-cube/I-CUBE-HUAWEI/Drivers/BSP/Components/stts751\stts751.c **** }
 282              		.loc 1 354 1 is_stmt 0 view .LVU69
 283 003a 02B0     		add	sp, sp, #8
 284              	.LCFI7:
 285              		.cfi_remember_state
 286              		.cfi_def_cfa_offset 8
 287              		@ sp needed
 288 003c 10BD     		pop	{r4, pc}
 289              	.LVL19:
 290              	.L20:
ARM GAS  T:\msys\tmp\cciVJco4.s 			page 13


 291              	.LCFI8:
 292              		.cfi_restore_state
 341:D:/fchai/work/i-cube/I-CUBE-HUAWEI/Drivers/BSP/Components/stts751\stts751.c ****       break;
 293              		.loc 1 341 7 is_stmt 1 view .LVU70
 341:D:/fchai/work/i-cube/I-CUBE-HUAWEI/Drivers/BSP/Components/stts751\stts751.c ****       break;
 294              		.loc 1 341 12 is_stmt 0 view .LVU71
 295 003e 4FF08343 		mov	r3, #1098907648
 296 0042 2360     		str	r3, [r4]	@ float
 342:D:/fchai/work/i-cube/I-CUBE-HUAWEI/Drivers/BSP/Components/stts751\stts751.c **** 
 297              		.loc 1 342 7 is_stmt 1 view .LVU72
 298 0044 F9E7     		b	.L14
 299              	.L18:
 345:D:/fchai/work/i-cube/I-CUBE-HUAWEI/Drivers/BSP/Components/stts751\stts751.c ****       break;
 300              		.loc 1 345 7 view .LVU73
 345:D:/fchai/work/i-cube/I-CUBE-HUAWEI/Drivers/BSP/Components/stts751\stts751.c ****       break;
 301              		.loc 1 345 12 is_stmt 0 view .LVU74
 302 0046 4FF08443 		mov	r3, #1107296256
 303 004a 2360     		str	r3, [r4]	@ float
 346:D:/fchai/work/i-cube/I-CUBE-HUAWEI/Drivers/BSP/Components/stts751\stts751.c **** 
 304              		.loc 1 346 7 is_stmt 1 view .LVU75
 305 004c F5E7     		b	.L14
 306              	.L27:
 313:D:/fchai/work/i-cube/I-CUBE-HUAWEI/Drivers/BSP/Components/stts751\stts751.c ****       break;
 307              		.loc 1 313 7 view .LVU76
 313:D:/fchai/work/i-cube/I-CUBE-HUAWEI/Drivers/BSP/Components/stts751\stts751.c ****       break;
 308              		.loc 1 313 12 is_stmt 0 view .LVU77
 309 004e 4FF07853 		mov	r3, #1040187392
 310 0052 2360     		str	r3, [r4]	@ float
 314:D:/fchai/work/i-cube/I-CUBE-HUAWEI/Drivers/BSP/Components/stts751\stts751.c **** 
 311              		.loc 1 314 7 is_stmt 1 view .LVU78
 312 0054 F1E7     		b	.L14
 313              	.L26:
 317:D:/fchai/work/i-cube/I-CUBE-HUAWEI/Drivers/BSP/Components/stts751\stts751.c ****       break;
 314              		.loc 1 317 7 view .LVU79
 317:D:/fchai/work/i-cube/I-CUBE-HUAWEI/Drivers/BSP/Components/stts751\stts751.c ****       break;
 315              		.loc 1 317 12 is_stmt 0 view .LVU80
 316 0056 4FF07A53 		mov	r3, #1048576000
 317 005a 2360     		str	r3, [r4]	@ float
 318:D:/fchai/work/i-cube/I-CUBE-HUAWEI/Drivers/BSP/Components/stts751\stts751.c **** 
 318              		.loc 1 318 7 is_stmt 1 view .LVU81
 319 005c EDE7     		b	.L14
 320              	.L25:
 321:D:/fchai/work/i-cube/I-CUBE-HUAWEI/Drivers/BSP/Components/stts751\stts751.c ****       break;
 321              		.loc 1 321 7 view .LVU82
 321:D:/fchai/work/i-cube/I-CUBE-HUAWEI/Drivers/BSP/Components/stts751\stts751.c ****       break;
 322              		.loc 1 321 12 is_stmt 0 view .LVU83
 323 005e 4FF07C53 		mov	r3, #1056964608
 324 0062 2360     		str	r3, [r4]	@ float
 322:D:/fchai/work/i-cube/I-CUBE-HUAWEI/Drivers/BSP/Components/stts751\stts751.c **** 
 325              		.loc 1 322 7 is_stmt 1 view .LVU84
 326 0064 E9E7     		b	.L14
 327              	.L24:
 325:D:/fchai/work/i-cube/I-CUBE-HUAWEI/Drivers/BSP/Components/stts751\stts751.c ****       break;
 328              		.loc 1 325 7 view .LVU85
 325:D:/fchai/work/i-cube/I-CUBE-HUAWEI/Drivers/BSP/Components/stts751\stts751.c ****       break;
 329              		.loc 1 325 12 is_stmt 0 view .LVU86
 330 0066 4FF07E53 		mov	r3, #1065353216
ARM GAS  T:\msys\tmp\cciVJco4.s 			page 14


 331 006a 2360     		str	r3, [r4]	@ float
 326:D:/fchai/work/i-cube/I-CUBE-HUAWEI/Drivers/BSP/Components/stts751\stts751.c **** 
 332              		.loc 1 326 7 is_stmt 1 view .LVU87
 333 006c E5E7     		b	.L14
 334              	.L23:
 329:D:/fchai/work/i-cube/I-CUBE-HUAWEI/Drivers/BSP/Components/stts751\stts751.c ****       break;
 335              		.loc 1 329 7 view .LVU88
 329:D:/fchai/work/i-cube/I-CUBE-HUAWEI/Drivers/BSP/Components/stts751\stts751.c ****       break;
 336              		.loc 1 329 12 is_stmt 0 view .LVU89
 337 006e 4FF08043 		mov	r3, #1073741824
 338 0072 2360     		str	r3, [r4]	@ float
 330:D:/fchai/work/i-cube/I-CUBE-HUAWEI/Drivers/BSP/Components/stts751\stts751.c **** 
 339              		.loc 1 330 7 is_stmt 1 view .LVU90
 340 0074 E1E7     		b	.L14
 341              	.L22:
 333:D:/fchai/work/i-cube/I-CUBE-HUAWEI/Drivers/BSP/Components/stts751\stts751.c ****       break;
 342              		.loc 1 333 7 view .LVU91
 333:D:/fchai/work/i-cube/I-CUBE-HUAWEI/Drivers/BSP/Components/stts751\stts751.c ****       break;
 343              		.loc 1 333 12 is_stmt 0 view .LVU92
 344 0076 4FF08143 		mov	r3, #1082130432
 345 007a 2360     		str	r3, [r4]	@ float
 334:D:/fchai/work/i-cube/I-CUBE-HUAWEI/Drivers/BSP/Components/stts751\stts751.c **** 
 346              		.loc 1 334 7 is_stmt 1 view .LVU93
 347 007c DDE7     		b	.L14
 348              	.L21:
 337:D:/fchai/work/i-cube/I-CUBE-HUAWEI/Drivers/BSP/Components/stts751\stts751.c ****       break;
 349              		.loc 1 337 7 view .LVU94
 337:D:/fchai/work/i-cube/I-CUBE-HUAWEI/Drivers/BSP/Components/stts751\stts751.c ****       break;
 350              		.loc 1 337 12 is_stmt 0 view .LVU95
 351 007e 4FF08243 		mov	r3, #1090519040
 352 0082 2360     		str	r3, [r4]	@ float
 338:D:/fchai/work/i-cube/I-CUBE-HUAWEI/Drivers/BSP/Components/stts751\stts751.c **** 
 353              		.loc 1 338 7 is_stmt 1 view .LVU96
 354 0084 D9E7     		b	.L14
 355              	.L31:
 305:D:/fchai/work/i-cube/I-CUBE-HUAWEI/Drivers/BSP/Components/stts751\stts751.c ****       break;
 356              		.loc 1 305 7 view .LVU97
 305:D:/fchai/work/i-cube/I-CUBE-HUAWEI/Drivers/BSP/Components/stts751\stts751.c ****       break;
 357              		.loc 1 305 12 is_stmt 0 view .LVU98
 358 0086 0023     		movs	r3, #0
 359 0088 2360     		str	r3, [r4]	@ float
 306:D:/fchai/work/i-cube/I-CUBE-HUAWEI/Drivers/BSP/Components/stts751\stts751.c **** 
 360              		.loc 1 306 7 is_stmt 1 view .LVU99
 361 008a D6E7     		b	.L14
 362              	.L17:
 309:D:/fchai/work/i-cube/I-CUBE-HUAWEI/Drivers/BSP/Components/stts751\stts751.c ****       break;
 363              		.loc 1 309 7 view .LVU100
 309:D:/fchai/work/i-cube/I-CUBE-HUAWEI/Drivers/BSP/Components/stts751\stts751.c ****       break;
 364              		.loc 1 309 12 is_stmt 0 view .LVU101
 365 008c 4FF07653 		mov	r3, #1031798784
 366 0090 2360     		str	r3, [r4]	@ float
 310:D:/fchai/work/i-cube/I-CUBE-HUAWEI/Drivers/BSP/Components/stts751\stts751.c **** 
 367              		.loc 1 310 7 is_stmt 1 view .LVU102
 368 0092 D2E7     		b	.L14
 369              		.cfi_endproc
 370              	.LFE8:
 372              		.section	.text.STTS751_TEMP_SetOutputDataRate,"ax",%progbits
ARM GAS  T:\msys\tmp\cciVJco4.s 			page 15


 373              		.align	1
 374              		.p2align 2,,3
 375              		.global	STTS751_TEMP_SetOutputDataRate
 376              		.syntax unified
 377              		.thumb
 378              		.thumb_func
 379              		.fpu fpv4-sp-d16
 381              	STTS751_TEMP_SetOutputDataRate:
 382              	.LVL20:
 383              	.LFB9:
 355:D:/fchai/work/i-cube/I-CUBE-HUAWEI/Drivers/BSP/Components/stts751\stts751.c **** 
 356:D:/fchai/work/i-cube/I-CUBE-HUAWEI/Drivers/BSP/Components/stts751\stts751.c **** /**
 357:D:/fchai/work/i-cube/I-CUBE-HUAWEI/Drivers/BSP/Components/stts751\stts751.c ****  * @brief  Set the STTS751 temperature sensor output data rate
 358:D:/fchai/work/i-cube/I-CUBE-HUAWEI/Drivers/BSP/Components/stts751\stts751.c ****  * @param  pObj the device pObj
 359:D:/fchai/work/i-cube/I-CUBE-HUAWEI/Drivers/BSP/Components/stts751\stts751.c ****  * @param  Odr the output data rate value to be set
 360:D:/fchai/work/i-cube/I-CUBE-HUAWEI/Drivers/BSP/Components/stts751\stts751.c ****  * @retval 0 in case of success, an error code otherwise
 361:D:/fchai/work/i-cube/I-CUBE-HUAWEI/Drivers/BSP/Components/stts751\stts751.c ****  */
 362:D:/fchai/work/i-cube/I-CUBE-HUAWEI/Drivers/BSP/Components/stts751\stts751.c **** int32_t STTS751_TEMP_SetOutputDataRate(STTS751_Object_t *pObj, float Odr)
 363:D:/fchai/work/i-cube/I-CUBE-HUAWEI/Drivers/BSP/Components/stts751\stts751.c **** {
 384              		.loc 1 363 1 view -0
 385              		.cfi_startproc
 386              		@ args = 0, pretend = 0, frame = 8
 387              		@ frame_needed = 0, uses_anonymous_args = 0
 364:D:/fchai/work/i-cube/I-CUBE-HUAWEI/Drivers/BSP/Components/stts751\stts751.c ****   stts751_odr_t new_odr;
 388              		.loc 1 364 3 view .LVU104
 365:D:/fchai/work/i-cube/I-CUBE-HUAWEI/Drivers/BSP/Components/stts751\stts751.c ****   stts751_tres_t res;
 389              		.loc 1 365 3 view .LVU105
 366:D:/fchai/work/i-cube/I-CUBE-HUAWEI/Drivers/BSP/Components/stts751\stts751.c **** 
 367:D:/fchai/work/i-cube/I-CUBE-HUAWEI/Drivers/BSP/Components/stts751\stts751.c ****   /* Get the current resolution */
 368:D:/fchai/work/i-cube/I-CUBE-HUAWEI/Drivers/BSP/Components/stts751\stts751.c ****   if (stts751_resolution_get(&(pObj->Ctx), &res) != STTS751_OK)
 390              		.loc 1 368 3 view .LVU106
 363:D:/fchai/work/i-cube/I-CUBE-HUAWEI/Drivers/BSP/Components/stts751\stts751.c ****   stts751_odr_t new_odr;
 391              		.loc 1 363 1 is_stmt 0 view .LVU107
 392 0000 10B5     		push	{r4, lr}
 393              	.LCFI9:
 394              		.cfi_def_cfa_offset 8
 395              		.cfi_offset 4, -8
 396              		.cfi_offset 14, -4
 397 0002 2DED028B 		vpush.64	{d8}
 398              	.LCFI10:
 399              		.cfi_def_cfa_offset 16
 400              		.cfi_offset 80, -16
 401              		.cfi_offset 81, -12
 402              		.loc 1 368 7 view .LVU108
 403 0006 00F11C04 		add	r4, r0, #28
 363:D:/fchai/work/i-cube/I-CUBE-HUAWEI/Drivers/BSP/Components/stts751\stts751.c ****   stts751_odr_t new_odr;
 404              		.loc 1 363 1 view .LVU109
 405 000a 82B0     		sub	sp, sp, #8
 406              	.LCFI11:
 407              		.cfi_def_cfa_offset 24
 408              		.loc 1 368 7 view .LVU110
 409 000c 2046     		mov	r0, r4
 410              	.LVL21:
 411              		.loc 1 368 7 view .LVU111
 412 000e 0DF10701 		add	r1, sp, #7
 363:D:/fchai/work/i-cube/I-CUBE-HUAWEI/Drivers/BSP/Components/stts751\stts751.c ****   stts751_odr_t new_odr;
 413              		.loc 1 363 1 view .LVU112
ARM GAS  T:\msys\tmp\cciVJco4.s 			page 16


 414 0012 B0EE408A 		vmov.f32	s16, s0
 415              		.loc 1 368 7 view .LVU113
 416 0016 FFF7FEFF 		bl	stts751_resolution_get
 417              	.LVL22:
 418              		.loc 1 368 6 view .LVU114
 419 001a 0028     		cmp	r0, #0
 420 001c 46D1     		bne	.L37
 369:D:/fchai/work/i-cube/I-CUBE-HUAWEI/Drivers/BSP/Components/stts751\stts751.c ****   {
 370:D:/fchai/work/i-cube/I-CUBE-HUAWEI/Drivers/BSP/Components/stts751\stts751.c ****     return STTS751_ERROR;
 371:D:/fchai/work/i-cube/I-CUBE-HUAWEI/Drivers/BSP/Components/stts751\stts751.c ****   }
 372:D:/fchai/work/i-cube/I-CUBE-HUAWEI/Drivers/BSP/Components/stts751\stts751.c **** 
 373:D:/fchai/work/i-cube/I-CUBE-HUAWEI/Drivers/BSP/Components/stts751\stts751.c ****   /* If the requested odr is 16Hz we cannot use the 12 bits resolution */
 374:D:/fchai/work/i-cube/I-CUBE-HUAWEI/Drivers/BSP/Components/stts751\stts751.c ****   if(Odr == 16.0f && res == STTS751_12bit)
 421              		.loc 1 374 3 is_stmt 1 view .LVU115
 422              		.loc 1 374 5 is_stmt 0 view .LVU116
 423 001e F3EE007A 		vmov.f32	s15, #1.6e+1
 424 0022 B4EE678A 		vcmp.f32	s16, s15
 425 0026 F1EE10FA 		vmrs	APSR_nzcv, FPSCR
 426 002a 0FD1     		bne	.L35
 427              		.loc 1 374 19 discriminator 1 view .LVU117
 428 002c 9DF80730 		ldrb	r3, [sp, #7]	@ zero_extendqisi2
 429 0030 032B     		cmp	r3, #3
 430 0032 55D0     		beq	.L54
 431              	.L36:
 375:D:/fchai/work/i-cube/I-CUBE-HUAWEI/Drivers/BSP/Components/stts751\stts751.c ****   {
 376:D:/fchai/work/i-cube/I-CUBE-HUAWEI/Drivers/BSP/Components/stts751\stts751.c ****     /* We force resolution to the maximum allowed value */
 377:D:/fchai/work/i-cube/I-CUBE-HUAWEI/Drivers/BSP/Components/stts751\stts751.c ****     if (stts751_resolution_set(&(pObj->Ctx), STTS751_11bit) != STTS751_OK)
 378:D:/fchai/work/i-cube/I-CUBE-HUAWEI/Drivers/BSP/Components/stts751\stts751.c ****     {
 379:D:/fchai/work/i-cube/I-CUBE-HUAWEI/Drivers/BSP/Components/stts751\stts751.c ****       return STTS751_ERROR;
 380:D:/fchai/work/i-cube/I-CUBE-HUAWEI/Drivers/BSP/Components/stts751\stts751.c ****     }
 381:D:/fchai/work/i-cube/I-CUBE-HUAWEI/Drivers/BSP/Components/stts751\stts751.c ****   }
 382:D:/fchai/work/i-cube/I-CUBE-HUAWEI/Drivers/BSP/Components/stts751\stts751.c **** 
 383:D:/fchai/work/i-cube/I-CUBE-HUAWEI/Drivers/BSP/Components/stts751\stts751.c ****   /* If the requested odr is 32Hz we cannot use the 12 bits and 11 bits resolutions */
 384:D:/fchai/work/i-cube/I-CUBE-HUAWEI/Drivers/BSP/Components/stts751\stts751.c ****   if(Odr == 32.0f && (res == STTS751_12bit || res == STTS751_11bit))
 432              		.loc 1 384 3 is_stmt 1 view .LVU118
 385:D:/fchai/work/i-cube/I-CUBE-HUAWEI/Drivers/BSP/Components/stts751\stts751.c ****   {
 386:D:/fchai/work/i-cube/I-CUBE-HUAWEI/Drivers/BSP/Components/stts751\stts751.c ****     /* We force resolution to the maximum allowed value */
 387:D:/fchai/work/i-cube/I-CUBE-HUAWEI/Drivers/BSP/Components/stts751\stts751.c ****     if (stts751_resolution_set(&(pObj->Ctx), STTS751_10bit) != STTS751_OK)
 388:D:/fchai/work/i-cube/I-CUBE-HUAWEI/Drivers/BSP/Components/stts751\stts751.c ****     {
 389:D:/fchai/work/i-cube/I-CUBE-HUAWEI/Drivers/BSP/Components/stts751\stts751.c ****       return STTS751_ERROR;
 390:D:/fchai/work/i-cube/I-CUBE-HUAWEI/Drivers/BSP/Components/stts751\stts751.c ****     }
 391:D:/fchai/work/i-cube/I-CUBE-HUAWEI/Drivers/BSP/Components/stts751\stts751.c ****   }
 392:D:/fchai/work/i-cube/I-CUBE-HUAWEI/Drivers/BSP/Components/stts751\stts751.c **** 
 393:D:/fchai/work/i-cube/I-CUBE-HUAWEI/Drivers/BSP/Components/stts751\stts751.c ****   new_odr = (Odr <= 0.0625f) ? STTS751_TEMP_ODR_62mHz5
 433              		.loc 1 393 3 view .LVU119
 394:D:/fchai/work/i-cube/I-CUBE-HUAWEI/Drivers/BSP/Components/stts751\stts751.c ****           : (Odr <= 0.125f ) ? STTS751_TEMP_ODR_125mHz
 434              		.loc 1 394 11 is_stmt 0 view .LVU120
 435 0034 0821     		movs	r1, #8
 436              	.L40:
 437              	.LVL23:
 395:D:/fchai/work/i-cube/I-CUBE-HUAWEI/Drivers/BSP/Components/stts751\stts751.c ****           : (Odr <= 0.25f  ) ? STTS751_TEMP_ODR_250mHz
 396:D:/fchai/work/i-cube/I-CUBE-HUAWEI/Drivers/BSP/Components/stts751\stts751.c ****           : (Odr <= 0.5f   ) ? STTS751_TEMP_ODR_500mHz
 397:D:/fchai/work/i-cube/I-CUBE-HUAWEI/Drivers/BSP/Components/stts751\stts751.c ****           : (Odr <= 1.0f   ) ? STTS751_TEMP_ODR_1Hz
 398:D:/fchai/work/i-cube/I-CUBE-HUAWEI/Drivers/BSP/Components/stts751\stts751.c ****           : (Odr <= 2.0f   ) ? STTS751_TEMP_ODR_2Hz
 399:D:/fchai/work/i-cube/I-CUBE-HUAWEI/Drivers/BSP/Components/stts751\stts751.c ****           : (Odr <= 4.0f   ) ? STTS751_TEMP_ODR_4Hz
 400:D:/fchai/work/i-cube/I-CUBE-HUAWEI/Drivers/BSP/Components/stts751\stts751.c ****           : (Odr <= 8.0f   ) ? STTS751_TEMP_ODR_8Hz
 401:D:/fchai/work/i-cube/I-CUBE-HUAWEI/Drivers/BSP/Components/stts751\stts751.c ****           : (Odr <= 16.0f  ) ? STTS751_TEMP_ODR_16Hz
ARM GAS  T:\msys\tmp\cciVJco4.s 			page 17


 402:D:/fchai/work/i-cube/I-CUBE-HUAWEI/Drivers/BSP/Components/stts751\stts751.c ****           :                    STTS751_TEMP_ODR_32Hz;
 403:D:/fchai/work/i-cube/I-CUBE-HUAWEI/Drivers/BSP/Components/stts751\stts751.c **** 
 404:D:/fchai/work/i-cube/I-CUBE-HUAWEI/Drivers/BSP/Components/stts751\stts751.c ****   if (stts751_temp_data_rate_set(&(pObj->Ctx), new_odr) != STTS751_OK)
 438              		.loc 1 404 3 is_stmt 1 view .LVU121
 439              		.loc 1 404 7 is_stmt 0 view .LVU122
 440 0036 2046     		mov	r0, r4
 441 0038 FFF7FEFF 		bl	stts751_temp_data_rate_set
 442              	.LVL24:
 443              		.loc 1 404 6 view .LVU123
 444 003c 0038     		subs	r0, r0, #0
 445 003e 18BF     		it	ne
 446 0040 0120     		movne	r0, #1
 447 0042 4042     		rsbs	r0, r0, #0
 448              	.L32:
 405:D:/fchai/work/i-cube/I-CUBE-HUAWEI/Drivers/BSP/Components/stts751\stts751.c ****   {
 406:D:/fchai/work/i-cube/I-CUBE-HUAWEI/Drivers/BSP/Components/stts751\stts751.c ****     return STTS751_ERROR;
 407:D:/fchai/work/i-cube/I-CUBE-HUAWEI/Drivers/BSP/Components/stts751\stts751.c ****   }
 408:D:/fchai/work/i-cube/I-CUBE-HUAWEI/Drivers/BSP/Components/stts751\stts751.c **** 
 409:D:/fchai/work/i-cube/I-CUBE-HUAWEI/Drivers/BSP/Components/stts751\stts751.c ****   return STTS751_OK;
 410:D:/fchai/work/i-cube/I-CUBE-HUAWEI/Drivers/BSP/Components/stts751\stts751.c **** }
 449              		.loc 1 410 1 view .LVU124
 450 0044 02B0     		add	sp, sp, #8
 451              	.LCFI12:
 452              		.cfi_remember_state
 453              		.cfi_def_cfa_offset 16
 454              		@ sp needed
 455 0046 BDEC028B 		vldm	sp!, {d8}
 456              	.LCFI13:
 457              		.cfi_restore 80
 458              		.cfi_restore 81
 459              		.cfi_def_cfa_offset 8
 460              	.LVL25:
 461              		.loc 1 410 1 view .LVU125
 462 004a 10BD     		pop	{r4, pc}
 463              	.LVL26:
 464              	.L35:
 465              	.LCFI14:
 466              		.cfi_restore_state
 384:D:/fchai/work/i-cube/I-CUBE-HUAWEI/Drivers/BSP/Components/stts751\stts751.c ****   {
 467              		.loc 1 384 3 is_stmt 1 view .LVU126
 384:D:/fchai/work/i-cube/I-CUBE-HUAWEI/Drivers/BSP/Components/stts751\stts751.c ****   {
 468              		.loc 1 384 5 is_stmt 0 view .LVU127
 469 004c DFED377A 		vldr.32	s15, .L60
 470 0050 B4EE678A 		vcmp.f32	s16, s15
 471 0054 F1EE10FA 		vmrs	APSR_nzcv, FPSCR
 472 0058 07D1     		bne	.L38
 384:D:/fchai/work/i-cube/I-CUBE-HUAWEI/Drivers/BSP/Components/stts751\stts751.c ****   {
 473              		.loc 1 384 44 discriminator 1 view .LVU128
 474 005a 9DF80730 		ldrb	r3, [sp, #7]	@ zero_extendqisi2
 475 005e 03F0FD03 		and	r3, r3, #253
 476 0062 012B     		cmp	r3, #1
 477 0064 1CD0     		beq	.L55
 478              	.L41:
 394:D:/fchai/work/i-cube/I-CUBE-HUAWEI/Drivers/BSP/Components/stts751\stts751.c ****           : (Odr <= 0.25f  ) ? STTS751_TEMP_ODR_250mHz
 479              		.loc 1 394 11 discriminator 25 view .LVU129
 480 0066 0921     		movs	r1, #9
 481 0068 E5E7     		b	.L40
ARM GAS  T:\msys\tmp\cciVJco4.s 			page 18


 482              	.L38:
 384:D:/fchai/work/i-cube/I-CUBE-HUAWEI/Drivers/BSP/Components/stts751\stts751.c ****   {
 483              		.loc 1 384 3 is_stmt 1 view .LVU130
 393:D:/fchai/work/i-cube/I-CUBE-HUAWEI/Drivers/BSP/Components/stts751\stts751.c ****           : (Odr <= 0.125f ) ? STTS751_TEMP_ODR_125mHz
 484              		.loc 1 393 3 view .LVU131
 394:D:/fchai/work/i-cube/I-CUBE-HUAWEI/Drivers/BSP/Components/stts751\stts751.c ****           : (Odr <= 0.25f  ) ? STTS751_TEMP_ODR_250mHz
 485              		.loc 1 394 11 is_stmt 0 view .LVU132
 486 006a DFED317A 		vldr.32	s15, .L60+4
 487 006e B4EEE78A 		vcmpe.f32	s16, s15
 488 0072 F1EE10FA 		vmrs	APSR_nzcv, FPSCR
 489 0076 01D8     		bhi	.L56
 490 0078 0146     		mov	r1, r0
 491 007a DCE7     		b	.L40
 492              	.L56:
 394:D:/fchai/work/i-cube/I-CUBE-HUAWEI/Drivers/BSP/Components/stts751\stts751.c ****           : (Odr <= 0.25f  ) ? STTS751_TEMP_ODR_250mHz
 493              		.loc 1 394 11 discriminator 2 view .LVU133
 494 007c F4EE007A 		vmov.f32	s15, #1.25e-1
 495 0080 B4EEE78A 		vcmpe.f32	s16, s15
 496 0084 F1EE10FA 		vmrs	APSR_nzcv, FPSCR
 497 0088 08D9     		bls	.L43
 394:D:/fchai/work/i-cube/I-CUBE-HUAWEI/Drivers/BSP/Components/stts751\stts751.c ****           : (Odr <= 0.25f  ) ? STTS751_TEMP_ODR_250mHz
 498              		.loc 1 394 11 discriminator 4 view .LVU134
 499 008a F5EE007A 		vmov.f32	s15, #2.5e-1
 500 008e B4EEE78A 		vcmpe.f32	s16, s15
 501 0092 F1EE10FA 		vmrs	APSR_nzcv, FPSCR
 502 0096 0CD8     		bhi	.L57
 394:D:/fchai/work/i-cube/I-CUBE-HUAWEI/Drivers/BSP/Components/stts751\stts751.c ****           : (Odr <= 0.25f  ) ? STTS751_TEMP_ODR_250mHz
 503              		.loc 1 394 11 view .LVU135
 504 0098 0221     		movs	r1, #2
 505 009a CCE7     		b	.L40
 506              	.L43:
 507 009c 0121     		movs	r1, #1
 508 009e CAE7     		b	.L40
 509              	.L55:
 387:D:/fchai/work/i-cube/I-CUBE-HUAWEI/Drivers/BSP/Components/stts751\stts751.c ****     {
 510              		.loc 1 387 5 is_stmt 1 view .LVU136
 387:D:/fchai/work/i-cube/I-CUBE-HUAWEI/Drivers/BSP/Components/stts751\stts751.c ****     {
 511              		.loc 1 387 9 is_stmt 0 view .LVU137
 512 00a0 0146     		mov	r1, r0
 513 00a2 2046     		mov	r0, r4
 514 00a4 FFF7FEFF 		bl	stts751_resolution_set
 515              	.LVL27:
 387:D:/fchai/work/i-cube/I-CUBE-HUAWEI/Drivers/BSP/Components/stts751\stts751.c ****     {
 516              		.loc 1 387 8 view .LVU138
 517 00a8 0028     		cmp	r0, #0
 518 00aa DCD0     		beq	.L41
 519              	.L37:
 370:D:/fchai/work/i-cube/I-CUBE-HUAWEI/Drivers/BSP/Components/stts751\stts751.c ****   }
 520              		.loc 1 370 12 view .LVU139
 521 00ac 4FF0FF30 		mov	r0, #-1
 522 00b0 C8E7     		b	.L32
 523              	.L57:
 394:D:/fchai/work/i-cube/I-CUBE-HUAWEI/Drivers/BSP/Components/stts751\stts751.c ****           : (Odr <= 0.25f  ) ? STTS751_TEMP_ODR_250mHz
 524              		.loc 1 394 11 discriminator 7 view .LVU140
 525 00b2 F6EE007A 		vmov.f32	s15, #5.0e-1
 526 00b6 B4EEE78A 		vcmpe.f32	s16, s15
 527 00ba F1EE10FA 		vmrs	APSR_nzcv, FPSCR
ARM GAS  T:\msys\tmp\cciVJco4.s 			page 19


 528 00be 16D9     		bls	.L45
 394:D:/fchai/work/i-cube/I-CUBE-HUAWEI/Drivers/BSP/Components/stts751\stts751.c ****           : (Odr <= 0.25f  ) ? STTS751_TEMP_ODR_250mHz
 529              		.loc 1 394 11 discriminator 10 view .LVU141
 530 00c0 F7EE007A 		vmov.f32	s15, #1.0e+0
 531 00c4 B4EEE78A 		vcmpe.f32	s16, s15
 532 00c8 F1EE10FA 		vmrs	APSR_nzcv, FPSCR
 533 00cc 11D9     		bls	.L46
 394:D:/fchai/work/i-cube/I-CUBE-HUAWEI/Drivers/BSP/Components/stts751\stts751.c ****           : (Odr <= 0.25f  ) ? STTS751_TEMP_ODR_250mHz
 534              		.loc 1 394 11 discriminator 13 view .LVU142
 535 00ce F0EE007A 		vmov.f32	s15, #2.0e+0
 536 00d2 B4EEE78A 		vcmpe.f32	s16, s15
 537 00d6 F1EE10FA 		vmrs	APSR_nzcv, FPSCR
 538 00da 0CD8     		bhi	.L58
 394:D:/fchai/work/i-cube/I-CUBE-HUAWEI/Drivers/BSP/Components/stts751\stts751.c ****           : (Odr <= 0.25f  ) ? STTS751_TEMP_ODR_250mHz
 539              		.loc 1 394 11 view .LVU143
 540 00dc 0521     		movs	r1, #5
 541 00de AAE7     		b	.L40
 542              	.L54:
 377:D:/fchai/work/i-cube/I-CUBE-HUAWEI/Drivers/BSP/Components/stts751\stts751.c ****     {
 543              		.loc 1 377 5 is_stmt 1 view .LVU144
 377:D:/fchai/work/i-cube/I-CUBE-HUAWEI/Drivers/BSP/Components/stts751\stts751.c ****     {
 544              		.loc 1 377 9 is_stmt 0 view .LVU145
 545 00e0 0121     		movs	r1, #1
 546 00e2 2046     		mov	r0, r4
 547 00e4 FFF7FEFF 		bl	stts751_resolution_set
 548              	.LVL28:
 377:D:/fchai/work/i-cube/I-CUBE-HUAWEI/Drivers/BSP/Components/stts751\stts751.c ****     {
 549              		.loc 1 377 8 view .LVU146
 550 00e8 0028     		cmp	r0, #0
 551 00ea A3D0     		beq	.L36
 552 00ec DEE7     		b	.L37
 553              	.L45:
 394:D:/fchai/work/i-cube/I-CUBE-HUAWEI/Drivers/BSP/Components/stts751\stts751.c ****           : (Odr <= 0.25f  ) ? STTS751_TEMP_ODR_250mHz
 554              		.loc 1 394 11 view .LVU147
 555 00ee 0321     		movs	r1, #3
 556 00f0 A1E7     		b	.L40
 557              	.L46:
 558 00f2 0421     		movs	r1, #4
 559 00f4 9FE7     		b	.L40
 560              	.L58:
 394:D:/fchai/work/i-cube/I-CUBE-HUAWEI/Drivers/BSP/Components/stts751\stts751.c ****           : (Odr <= 0.25f  ) ? STTS751_TEMP_ODR_250mHz
 561              		.loc 1 394 11 discriminator 16 view .LVU148
 562 00f6 F1EE007A 		vmov.f32	s15, #4.0e+0
 563 00fa B4EEE78A 		vcmpe.f32	s16, s15
 564 00fe F1EE10FA 		vmrs	APSR_nzcv, FPSCR
 565 0102 01D8     		bhi	.L59
 394:D:/fchai/work/i-cube/I-CUBE-HUAWEI/Drivers/BSP/Components/stts751\stts751.c ****           : (Odr <= 0.25f  ) ? STTS751_TEMP_ODR_250mHz
 566              		.loc 1 394 11 view .LVU149
 567 0104 0621     		movs	r1, #6
 568 0106 96E7     		b	.L40
 569              	.L59:
 394:D:/fchai/work/i-cube/I-CUBE-HUAWEI/Drivers/BSP/Components/stts751\stts751.c ****           : (Odr <= 0.25f  ) ? STTS751_TEMP_ODR_250mHz
 570              		.loc 1 394 11 discriminator 19 view .LVU150
 571 0108 F2EE007A 		vmov.f32	s15, #8.0e+0
 572 010c B4EEE78A 		vcmpe.f32	s16, s15
 573 0110 F1EE10FA 		vmrs	APSR_nzcv, FPSCR
 574 0114 98BF     		it	ls
ARM GAS  T:\msys\tmp\cciVJco4.s 			page 20


 575 0116 0721     		movls	r1, #7
 576 0118 8DD9     		bls	.L40
 394:D:/fchai/work/i-cube/I-CUBE-HUAWEI/Drivers/BSP/Components/stts751\stts751.c ****           : (Odr <= 0.25f  ) ? STTS751_TEMP_ODR_250mHz
 577              		.loc 1 394 11 discriminator 22 view .LVU151
 578 011a F3EE007A 		vmov.f32	s15, #1.6e+1
 579 011e B4EEE78A 		vcmpe.f32	s16, s15
 580 0122 F1EE10FA 		vmrs	APSR_nzcv, FPSCR
 581 0126 9ED8     		bhi	.L41
 582 0128 84E7     		b	.L36
 583              	.L61:
 584 012a 00BF     		.align	2
 585              	.L60:
 586 012c 00000042 		.word	1107296256
 587 0130 0000803D 		.word	1031798784
 588              		.cfi_endproc
 589              	.LFE9:
 591              		.section	.text.STTS751_TEMP_GetTemperature,"ax",%progbits
 592              		.align	1
 593              		.p2align 2,,3
 594              		.global	STTS751_TEMP_GetTemperature
 595              		.syntax unified
 596              		.thumb
 597              		.thumb_func
 598              		.fpu fpv4-sp-d16
 600              	STTS751_TEMP_GetTemperature:
 601              	.LVL29:
 602              	.LFB10:
 411:D:/fchai/work/i-cube/I-CUBE-HUAWEI/Drivers/BSP/Components/stts751\stts751.c **** 
 412:D:/fchai/work/i-cube/I-CUBE-HUAWEI/Drivers/BSP/Components/stts751\stts751.c **** /**
 413:D:/fchai/work/i-cube/I-CUBE-HUAWEI/Drivers/BSP/Components/stts751\stts751.c ****  * @brief  Get the STTS751 temperature value
 414:D:/fchai/work/i-cube/I-CUBE-HUAWEI/Drivers/BSP/Components/stts751\stts751.c ****  * @param  pObj the device pObj
 415:D:/fchai/work/i-cube/I-CUBE-HUAWEI/Drivers/BSP/Components/stts751\stts751.c ****  * @param  Value pointer where the temperature value is written
 416:D:/fchai/work/i-cube/I-CUBE-HUAWEI/Drivers/BSP/Components/stts751\stts751.c ****  * @retval 0 in case of success, an error code otherwise
 417:D:/fchai/work/i-cube/I-CUBE-HUAWEI/Drivers/BSP/Components/stts751\stts751.c ****  */
 418:D:/fchai/work/i-cube/I-CUBE-HUAWEI/Drivers/BSP/Components/stts751\stts751.c **** int32_t STTS751_TEMP_GetTemperature(STTS751_Object_t *pObj, float *Value)
 419:D:/fchai/work/i-cube/I-CUBE-HUAWEI/Drivers/BSP/Components/stts751\stts751.c **** {
 603              		.loc 1 419 1 is_stmt 1 view -0
 604              		.cfi_startproc
 605              		@ args = 0, pretend = 0, frame = 8
 606              		@ frame_needed = 0, uses_anonymous_args = 0
 420:D:/fchai/work/i-cube/I-CUBE-HUAWEI/Drivers/BSP/Components/stts751\stts751.c ****   int16_t raw_value;
 607              		.loc 1 420 3 view .LVU153
 421:D:/fchai/work/i-cube/I-CUBE-HUAWEI/Drivers/BSP/Components/stts751\stts751.c **** 
 422:D:/fchai/work/i-cube/I-CUBE-HUAWEI/Drivers/BSP/Components/stts751\stts751.c ****   /* Get the temperature */
 423:D:/fchai/work/i-cube/I-CUBE-HUAWEI/Drivers/BSP/Components/stts751\stts751.c ****   if (stts751_temperature_raw_get(&(pObj->Ctx), &raw_value) != STTS751_OK)
 608              		.loc 1 423 3 view .LVU154
 419:D:/fchai/work/i-cube/I-CUBE-HUAWEI/Drivers/BSP/Components/stts751\stts751.c ****   int16_t raw_value;
 609              		.loc 1 419 1 is_stmt 0 view .LVU155
 610 0000 30B5     		push	{r4, r5, lr}
 611              	.LCFI15:
 612              		.cfi_def_cfa_offset 12
 613              		.cfi_offset 4, -12
 614              		.cfi_offset 5, -8
 615              		.cfi_offset 14, -4
 616 0002 83B0     		sub	sp, sp, #12
 617              	.LCFI16:
 618              		.cfi_def_cfa_offset 24
ARM GAS  T:\msys\tmp\cciVJco4.s 			page 21


 419:D:/fchai/work/i-cube/I-CUBE-HUAWEI/Drivers/BSP/Components/stts751\stts751.c ****   int16_t raw_value;
 619              		.loc 1 419 1 view .LVU156
 620 0004 0D46     		mov	r5, r1
 621              		.loc 1 423 7 view .LVU157
 622 0006 1C30     		adds	r0, r0, #28
 623              	.LVL30:
 624              		.loc 1 423 7 view .LVU158
 625 0008 0DF10601 		add	r1, sp, #6
 626              	.LVL31:
 627              		.loc 1 423 7 view .LVU159
 628 000c FFF7FEFF 		bl	stts751_temperature_raw_get
 629              	.LVL32:
 630              		.loc 1 423 6 view .LVU160
 631 0010 48B9     		cbnz	r0, .L64
 424:D:/fchai/work/i-cube/I-CUBE-HUAWEI/Drivers/BSP/Components/stts751\stts751.c ****   {
 425:D:/fchai/work/i-cube/I-CUBE-HUAWEI/Drivers/BSP/Components/stts751\stts751.c ****     return STTS751_ERROR;
 426:D:/fchai/work/i-cube/I-CUBE-HUAWEI/Drivers/BSP/Components/stts751\stts751.c ****   }
 427:D:/fchai/work/i-cube/I-CUBE-HUAWEI/Drivers/BSP/Components/stts751\stts751.c **** 
 428:D:/fchai/work/i-cube/I-CUBE-HUAWEI/Drivers/BSP/Components/stts751\stts751.c ****   *Value = stts751_from_lsb_to_celsius(raw_value);
 632              		.loc 1 428 3 is_stmt 1 view .LVU161
 633 0012 0446     		mov	r4, r0
 634              		.loc 1 428 12 is_stmt 0 view .LVU162
 635 0014 BDF90600 		ldrsh	r0, [sp, #6]
 636 0018 FFF7FEFF 		bl	stts751_from_lsb_to_celsius
 637              	.LVL33:
 638              		.loc 1 428 10 view .LVU163
 639 001c 85ED000A 		vstr.32	s0, [r5]
 429:D:/fchai/work/i-cube/I-CUBE-HUAWEI/Drivers/BSP/Components/stts751\stts751.c **** 
 430:D:/fchai/work/i-cube/I-CUBE-HUAWEI/Drivers/BSP/Components/stts751\stts751.c ****   return STTS751_OK;
 640              		.loc 1 430 3 is_stmt 1 view .LVU164
 641              	.L62:
 431:D:/fchai/work/i-cube/I-CUBE-HUAWEI/Drivers/BSP/Components/stts751\stts751.c **** }
 642              		.loc 1 431 1 is_stmt 0 view .LVU165
 643 0020 2046     		mov	r0, r4
 644 0022 03B0     		add	sp, sp, #12
 645              	.LCFI17:
 646              		.cfi_remember_state
 647              		.cfi_def_cfa_offset 12
 648              		@ sp needed
 649 0024 30BD     		pop	{r4, r5, pc}
 650              	.LVL34:
 651              	.L64:
 652              	.LCFI18:
 653              		.cfi_restore_state
 425:D:/fchai/work/i-cube/I-CUBE-HUAWEI/Drivers/BSP/Components/stts751\stts751.c ****   }
 654              		.loc 1 425 12 view .LVU166
 655 0026 4FF0FF34 		mov	r4, #-1
 656 002a F9E7     		b	.L62
 657              		.cfi_endproc
 658              	.LFE10:
 660              		.section	.text.ReadRegWrap,"ax",%progbits
 661              		.align	1
 662              		.p2align 2,,3
 663              		.syntax unified
 664              		.thumb
 665              		.thumb_func
 666              		.fpu fpv4-sp-d16
ARM GAS  T:\msys\tmp\cciVJco4.s 			page 22


 668              	ReadRegWrap:
 669              	.LVL35:
 670              	.LFB20:
 432:D:/fchai/work/i-cube/I-CUBE-HUAWEI/Drivers/BSP/Components/stts751\stts751.c **** 
 433:D:/fchai/work/i-cube/I-CUBE-HUAWEI/Drivers/BSP/Components/stts751\stts751.c **** /**
 434:D:/fchai/work/i-cube/I-CUBE-HUAWEI/Drivers/BSP/Components/stts751\stts751.c ****  * @brief  Get the STTS751 temperature data ready bit value
 435:D:/fchai/work/i-cube/I-CUBE-HUAWEI/Drivers/BSP/Components/stts751\stts751.c ****  * @param  pObj the device pObj
 436:D:/fchai/work/i-cube/I-CUBE-HUAWEI/Drivers/BSP/Components/stts751\stts751.c ****  * @param  Status the status of data ready bit
 437:D:/fchai/work/i-cube/I-CUBE-HUAWEI/Drivers/BSP/Components/stts751\stts751.c ****  * @retval 0 in case of success, an error code otherwise
 438:D:/fchai/work/i-cube/I-CUBE-HUAWEI/Drivers/BSP/Components/stts751\stts751.c ****  */
 439:D:/fchai/work/i-cube/I-CUBE-HUAWEI/Drivers/BSP/Components/stts751\stts751.c **** int32_t STTS751_TEMP_Get_DRDY_Status(STTS751_Object_t *pObj, uint8_t *Status)
 440:D:/fchai/work/i-cube/I-CUBE-HUAWEI/Drivers/BSP/Components/stts751\stts751.c **** {
 441:D:/fchai/work/i-cube/I-CUBE-HUAWEI/Drivers/BSP/Components/stts751\stts751.c ****   uint8_t val;
 442:D:/fchai/work/i-cube/I-CUBE-HUAWEI/Drivers/BSP/Components/stts751\stts751.c **** 
 443:D:/fchai/work/i-cube/I-CUBE-HUAWEI/Drivers/BSP/Components/stts751\stts751.c ****   if (stts751_flag_busy_get(&(pObj->Ctx), &val) != STTS751_OK)
 444:D:/fchai/work/i-cube/I-CUBE-HUAWEI/Drivers/BSP/Components/stts751\stts751.c ****   {
 445:D:/fchai/work/i-cube/I-CUBE-HUAWEI/Drivers/BSP/Components/stts751\stts751.c ****     return STTS751_ERROR;
 446:D:/fchai/work/i-cube/I-CUBE-HUAWEI/Drivers/BSP/Components/stts751\stts751.c ****   }
 447:D:/fchai/work/i-cube/I-CUBE-HUAWEI/Drivers/BSP/Components/stts751\stts751.c **** 
 448:D:/fchai/work/i-cube/I-CUBE-HUAWEI/Drivers/BSP/Components/stts751\stts751.c ****   if(val)
 449:D:/fchai/work/i-cube/I-CUBE-HUAWEI/Drivers/BSP/Components/stts751\stts751.c ****   {
 450:D:/fchai/work/i-cube/I-CUBE-HUAWEI/Drivers/BSP/Components/stts751\stts751.c ****     *Status = 0;
 451:D:/fchai/work/i-cube/I-CUBE-HUAWEI/Drivers/BSP/Components/stts751\stts751.c ****   } else
 452:D:/fchai/work/i-cube/I-CUBE-HUAWEI/Drivers/BSP/Components/stts751\stts751.c ****   {
 453:D:/fchai/work/i-cube/I-CUBE-HUAWEI/Drivers/BSP/Components/stts751\stts751.c ****     *Status = 1;
 454:D:/fchai/work/i-cube/I-CUBE-HUAWEI/Drivers/BSP/Components/stts751\stts751.c ****   }
 455:D:/fchai/work/i-cube/I-CUBE-HUAWEI/Drivers/BSP/Components/stts751\stts751.c **** 
 456:D:/fchai/work/i-cube/I-CUBE-HUAWEI/Drivers/BSP/Components/stts751\stts751.c ****   return STTS751_OK;
 457:D:/fchai/work/i-cube/I-CUBE-HUAWEI/Drivers/BSP/Components/stts751\stts751.c **** }
 458:D:/fchai/work/i-cube/I-CUBE-HUAWEI/Drivers/BSP/Components/stts751\stts751.c **** 
 459:D:/fchai/work/i-cube/I-CUBE-HUAWEI/Drivers/BSP/Components/stts751\stts751.c **** /**
 460:D:/fchai/work/i-cube/I-CUBE-HUAWEI/Drivers/BSP/Components/stts751\stts751.c ****  * @brief  Set the STTS751 high temperature threshold value
 461:D:/fchai/work/i-cube/I-CUBE-HUAWEI/Drivers/BSP/Components/stts751\stts751.c ****  * @param  pObj the device pObj
 462:D:/fchai/work/i-cube/I-CUBE-HUAWEI/Drivers/BSP/Components/stts751\stts751.c ****  * @param  Value the high temperature threshold to be set
 463:D:/fchai/work/i-cube/I-CUBE-HUAWEI/Drivers/BSP/Components/stts751\stts751.c ****  * @retval 0 in case of success, an error code otherwise
 464:D:/fchai/work/i-cube/I-CUBE-HUAWEI/Drivers/BSP/Components/stts751\stts751.c ****  */
 465:D:/fchai/work/i-cube/I-CUBE-HUAWEI/Drivers/BSP/Components/stts751\stts751.c **** int32_t STTS751_TEMP_SetHighTemperatureThreshold(STTS751_Object_t *pObj, float Value)
 466:D:/fchai/work/i-cube/I-CUBE-HUAWEI/Drivers/BSP/Components/stts751\stts751.c **** {
 467:D:/fchai/work/i-cube/I-CUBE-HUAWEI/Drivers/BSP/Components/stts751\stts751.c ****   int16_t raw_value;
 468:D:/fchai/work/i-cube/I-CUBE-HUAWEI/Drivers/BSP/Components/stts751\stts751.c **** 
 469:D:/fchai/work/i-cube/I-CUBE-HUAWEI/Drivers/BSP/Components/stts751\stts751.c ****   raw_value = stts751_from_celsius_to_lsb(Value);
 470:D:/fchai/work/i-cube/I-CUBE-HUAWEI/Drivers/BSP/Components/stts751\stts751.c **** 
 471:D:/fchai/work/i-cube/I-CUBE-HUAWEI/Drivers/BSP/Components/stts751\stts751.c ****   /* Set the temperature threshold */
 472:D:/fchai/work/i-cube/I-CUBE-HUAWEI/Drivers/BSP/Components/stts751\stts751.c ****   if (stts751_high_temperature_threshold_set(&(pObj->Ctx), raw_value) != STTS751_OK)
 473:D:/fchai/work/i-cube/I-CUBE-HUAWEI/Drivers/BSP/Components/stts751\stts751.c ****   {
 474:D:/fchai/work/i-cube/I-CUBE-HUAWEI/Drivers/BSP/Components/stts751\stts751.c ****     return STTS751_ERROR;
 475:D:/fchai/work/i-cube/I-CUBE-HUAWEI/Drivers/BSP/Components/stts751\stts751.c ****   }
 476:D:/fchai/work/i-cube/I-CUBE-HUAWEI/Drivers/BSP/Components/stts751\stts751.c **** 
 477:D:/fchai/work/i-cube/I-CUBE-HUAWEI/Drivers/BSP/Components/stts751\stts751.c ****   return STTS751_OK;
 478:D:/fchai/work/i-cube/I-CUBE-HUAWEI/Drivers/BSP/Components/stts751\stts751.c **** }
 479:D:/fchai/work/i-cube/I-CUBE-HUAWEI/Drivers/BSP/Components/stts751\stts751.c **** 
 480:D:/fchai/work/i-cube/I-CUBE-HUAWEI/Drivers/BSP/Components/stts751\stts751.c **** /**
 481:D:/fchai/work/i-cube/I-CUBE-HUAWEI/Drivers/BSP/Components/stts751\stts751.c ****  * @brief  Set the STTS751 low temperature threshold value
 482:D:/fchai/work/i-cube/I-CUBE-HUAWEI/Drivers/BSP/Components/stts751\stts751.c ****  * @param  pObj the device pObj
 483:D:/fchai/work/i-cube/I-CUBE-HUAWEI/Drivers/BSP/Components/stts751\stts751.c ****  * @param  Value the high temperature threshold to be set
 484:D:/fchai/work/i-cube/I-CUBE-HUAWEI/Drivers/BSP/Components/stts751\stts751.c ****  * @retval 0 in case of success, an error code otherwise
 485:D:/fchai/work/i-cube/I-CUBE-HUAWEI/Drivers/BSP/Components/stts751\stts751.c ****  */
ARM GAS  T:\msys\tmp\cciVJco4.s 			page 23


 486:D:/fchai/work/i-cube/I-CUBE-HUAWEI/Drivers/BSP/Components/stts751\stts751.c **** int32_t STTS751_TEMP_SetLowTemperatureThreshold(STTS751_Object_t *pObj, float Value)
 487:D:/fchai/work/i-cube/I-CUBE-HUAWEI/Drivers/BSP/Components/stts751\stts751.c **** {
 488:D:/fchai/work/i-cube/I-CUBE-HUAWEI/Drivers/BSP/Components/stts751\stts751.c ****   int16_t raw_value;
 489:D:/fchai/work/i-cube/I-CUBE-HUAWEI/Drivers/BSP/Components/stts751\stts751.c **** 
 490:D:/fchai/work/i-cube/I-CUBE-HUAWEI/Drivers/BSP/Components/stts751\stts751.c ****   raw_value = stts751_from_celsius_to_lsb(Value);
 491:D:/fchai/work/i-cube/I-CUBE-HUAWEI/Drivers/BSP/Components/stts751\stts751.c **** 
 492:D:/fchai/work/i-cube/I-CUBE-HUAWEI/Drivers/BSP/Components/stts751\stts751.c ****   /* Set the temperature threshold */
 493:D:/fchai/work/i-cube/I-CUBE-HUAWEI/Drivers/BSP/Components/stts751\stts751.c ****   if (stts751_low_temperature_threshold_set(&(pObj->Ctx), raw_value) != STTS751_OK)
 494:D:/fchai/work/i-cube/I-CUBE-HUAWEI/Drivers/BSP/Components/stts751\stts751.c ****   {
 495:D:/fchai/work/i-cube/I-CUBE-HUAWEI/Drivers/BSP/Components/stts751\stts751.c ****     return STTS751_ERROR;
 496:D:/fchai/work/i-cube/I-CUBE-HUAWEI/Drivers/BSP/Components/stts751\stts751.c ****   }
 497:D:/fchai/work/i-cube/I-CUBE-HUAWEI/Drivers/BSP/Components/stts751\stts751.c **** 
 498:D:/fchai/work/i-cube/I-CUBE-HUAWEI/Drivers/BSP/Components/stts751\stts751.c ****   return STTS751_OK;
 499:D:/fchai/work/i-cube/I-CUBE-HUAWEI/Drivers/BSP/Components/stts751\stts751.c **** }
 500:D:/fchai/work/i-cube/I-CUBE-HUAWEI/Drivers/BSP/Components/stts751\stts751.c **** 
 501:D:/fchai/work/i-cube/I-CUBE-HUAWEI/Drivers/BSP/Components/stts751\stts751.c **** /**
 502:D:/fchai/work/i-cube/I-CUBE-HUAWEI/Drivers/BSP/Components/stts751\stts751.c ****  * @brief  Get the STTS751 temperature limits status
 503:D:/fchai/work/i-cube/I-CUBE-HUAWEI/Drivers/BSP/Components/stts751\stts751.c ****  * @param  pObj the device pObj
 504:D:/fchai/work/i-cube/I-CUBE-HUAWEI/Drivers/BSP/Components/stts751\stts751.c ****  * @param  HighLimit indicates that high temperature limit has been exceeded
 505:D:/fchai/work/i-cube/I-CUBE-HUAWEI/Drivers/BSP/Components/stts751\stts751.c ****  * @param  LowhLimit indicates that low temperature limit has been exceeded
 506:D:/fchai/work/i-cube/I-CUBE-HUAWEI/Drivers/BSP/Components/stts751\stts751.c ****  * @param  ThermLimit indicates that therm temperature limit has been exceeded
 507:D:/fchai/work/i-cube/I-CUBE-HUAWEI/Drivers/BSP/Components/stts751\stts751.c ****  * @retval 0 in case of success, an error code otherwise
 508:D:/fchai/work/i-cube/I-CUBE-HUAWEI/Drivers/BSP/Components/stts751\stts751.c ****  */
 509:D:/fchai/work/i-cube/I-CUBE-HUAWEI/Drivers/BSP/Components/stts751\stts751.c **** int32_t STTS751_TEMP_GetTemperatureLimitStatus(STTS751_Object_t *pObj, uint8_t *HighLimit, uint8_t 
 510:D:/fchai/work/i-cube/I-CUBE-HUAWEI/Drivers/BSP/Components/stts751\stts751.c **** {
 511:D:/fchai/work/i-cube/I-CUBE-HUAWEI/Drivers/BSP/Components/stts751\stts751.c ****   stts751_status_t status;
 512:D:/fchai/work/i-cube/I-CUBE-HUAWEI/Drivers/BSP/Components/stts751\stts751.c **** 
 513:D:/fchai/work/i-cube/I-CUBE-HUAWEI/Drivers/BSP/Components/stts751\stts751.c ****   /* Read status register */
 514:D:/fchai/work/i-cube/I-CUBE-HUAWEI/Drivers/BSP/Components/stts751\stts751.c ****   if (stts751_status_reg_get(&(pObj->Ctx), &status) != STTS751_OK)
 515:D:/fchai/work/i-cube/I-CUBE-HUAWEI/Drivers/BSP/Components/stts751\stts751.c ****   {
 516:D:/fchai/work/i-cube/I-CUBE-HUAWEI/Drivers/BSP/Components/stts751\stts751.c ****     return STTS751_ERROR;
 517:D:/fchai/work/i-cube/I-CUBE-HUAWEI/Drivers/BSP/Components/stts751\stts751.c ****   }
 518:D:/fchai/work/i-cube/I-CUBE-HUAWEI/Drivers/BSP/Components/stts751\stts751.c **** 
 519:D:/fchai/work/i-cube/I-CUBE-HUAWEI/Drivers/BSP/Components/stts751\stts751.c ****   *HighLimit = status.t_high;
 520:D:/fchai/work/i-cube/I-CUBE-HUAWEI/Drivers/BSP/Components/stts751\stts751.c ****   *LowLimit = status.t_low;
 521:D:/fchai/work/i-cube/I-CUBE-HUAWEI/Drivers/BSP/Components/stts751\stts751.c ****   *ThermLimit = status.thrm;
 522:D:/fchai/work/i-cube/I-CUBE-HUAWEI/Drivers/BSP/Components/stts751\stts751.c **** 
 523:D:/fchai/work/i-cube/I-CUBE-HUAWEI/Drivers/BSP/Components/stts751\stts751.c ****   return STTS751_OK;
 524:D:/fchai/work/i-cube/I-CUBE-HUAWEI/Drivers/BSP/Components/stts751\stts751.c **** }
 525:D:/fchai/work/i-cube/I-CUBE-HUAWEI/Drivers/BSP/Components/stts751\stts751.c **** 
 526:D:/fchai/work/i-cube/I-CUBE-HUAWEI/Drivers/BSP/Components/stts751\stts751.c **** /**
 527:D:/fchai/work/i-cube/I-CUBE-HUAWEI/Drivers/BSP/Components/stts751\stts751.c ****  * @brief  Enable or disable interrupt on EVENT pin
 528:D:/fchai/work/i-cube/I-CUBE-HUAWEI/Drivers/BSP/Components/stts751\stts751.c ****  * @param  pObj the device pObj
 529:D:/fchai/work/i-cube/I-CUBE-HUAWEI/Drivers/BSP/Components/stts751\stts751.c ****  * @param  Enable 0 disable the EVENT pin, 1 enable EVENT pin
 530:D:/fchai/work/i-cube/I-CUBE-HUAWEI/Drivers/BSP/Components/stts751\stts751.c ****  * @retval 0 in case of success, an error code otherwise
 531:D:/fchai/work/i-cube/I-CUBE-HUAWEI/Drivers/BSP/Components/stts751\stts751.c ****  */
 532:D:/fchai/work/i-cube/I-CUBE-HUAWEI/Drivers/BSP/Components/stts751\stts751.c **** int32_t STTS751_TEMP_SetEventPin(STTS751_Object_t *pObj, uint8_t Enable)
 533:D:/fchai/work/i-cube/I-CUBE-HUAWEI/Drivers/BSP/Components/stts751\stts751.c **** {
 534:D:/fchai/work/i-cube/I-CUBE-HUAWEI/Drivers/BSP/Components/stts751\stts751.c ****   uint8_t state;
 535:D:/fchai/work/i-cube/I-CUBE-HUAWEI/Drivers/BSP/Components/stts751\stts751.c **** 
 536:D:/fchai/work/i-cube/I-CUBE-HUAWEI/Drivers/BSP/Components/stts751\stts751.c ****   /* The MASK1 bit in configuration register has inverted logic */
 537:D:/fchai/work/i-cube/I-CUBE-HUAWEI/Drivers/BSP/Components/stts751\stts751.c ****   if (Enable == 0) state = PROPERTY_ENABLE; else state = PROPERTY_DISABLE;
 538:D:/fchai/work/i-cube/I-CUBE-HUAWEI/Drivers/BSP/Components/stts751\stts751.c **** 
 539:D:/fchai/work/i-cube/I-CUBE-HUAWEI/Drivers/BSP/Components/stts751\stts751.c ****   if (stts751_pin_event_route_set(&(pObj->Ctx),  state) != STTS751_OK)
 540:D:/fchai/work/i-cube/I-CUBE-HUAWEI/Drivers/BSP/Components/stts751\stts751.c ****   {
 541:D:/fchai/work/i-cube/I-CUBE-HUAWEI/Drivers/BSP/Components/stts751\stts751.c ****     return STTS751_ERROR;
 542:D:/fchai/work/i-cube/I-CUBE-HUAWEI/Drivers/BSP/Components/stts751\stts751.c ****   }
ARM GAS  T:\msys\tmp\cciVJco4.s 			page 24


 543:D:/fchai/work/i-cube/I-CUBE-HUAWEI/Drivers/BSP/Components/stts751\stts751.c **** 
 544:D:/fchai/work/i-cube/I-CUBE-HUAWEI/Drivers/BSP/Components/stts751\stts751.c ****   return STTS751_OK;
 545:D:/fchai/work/i-cube/I-CUBE-HUAWEI/Drivers/BSP/Components/stts751\stts751.c **** }
 546:D:/fchai/work/i-cube/I-CUBE-HUAWEI/Drivers/BSP/Components/stts751\stts751.c **** 
 547:D:/fchai/work/i-cube/I-CUBE-HUAWEI/Drivers/BSP/Components/stts751\stts751.c **** /**
 548:D:/fchai/work/i-cube/I-CUBE-HUAWEI/Drivers/BSP/Components/stts751\stts751.c ****  * @brief  Get the STTS751 register value
 549:D:/fchai/work/i-cube/I-CUBE-HUAWEI/Drivers/BSP/Components/stts751\stts751.c ****  * @param  pObj the device pObj
 550:D:/fchai/work/i-cube/I-CUBE-HUAWEI/Drivers/BSP/Components/stts751\stts751.c ****  * @param  Reg address to be read
 551:D:/fchai/work/i-cube/I-CUBE-HUAWEI/Drivers/BSP/Components/stts751\stts751.c ****  * @param  Data pointer where the value is written
 552:D:/fchai/work/i-cube/I-CUBE-HUAWEI/Drivers/BSP/Components/stts751\stts751.c ****  * @retval 0 in case of success, an error code otherwise
 553:D:/fchai/work/i-cube/I-CUBE-HUAWEI/Drivers/BSP/Components/stts751\stts751.c ****  */
 554:D:/fchai/work/i-cube/I-CUBE-HUAWEI/Drivers/BSP/Components/stts751\stts751.c **** int32_t STTS751_Read_Reg(STTS751_Object_t *pObj, uint8_t Reg, uint8_t *Data)
 555:D:/fchai/work/i-cube/I-CUBE-HUAWEI/Drivers/BSP/Components/stts751\stts751.c **** {
 556:D:/fchai/work/i-cube/I-CUBE-HUAWEI/Drivers/BSP/Components/stts751\stts751.c ****   if (stts751_read_reg(&(pObj->Ctx), Reg, Data, 1) != STTS751_OK)
 557:D:/fchai/work/i-cube/I-CUBE-HUAWEI/Drivers/BSP/Components/stts751\stts751.c ****   {
 558:D:/fchai/work/i-cube/I-CUBE-HUAWEI/Drivers/BSP/Components/stts751\stts751.c ****     return STTS751_ERROR;
 559:D:/fchai/work/i-cube/I-CUBE-HUAWEI/Drivers/BSP/Components/stts751\stts751.c ****   }
 560:D:/fchai/work/i-cube/I-CUBE-HUAWEI/Drivers/BSP/Components/stts751\stts751.c **** 
 561:D:/fchai/work/i-cube/I-CUBE-HUAWEI/Drivers/BSP/Components/stts751\stts751.c ****   return STTS751_OK;
 562:D:/fchai/work/i-cube/I-CUBE-HUAWEI/Drivers/BSP/Components/stts751\stts751.c **** }
 563:D:/fchai/work/i-cube/I-CUBE-HUAWEI/Drivers/BSP/Components/stts751\stts751.c **** 
 564:D:/fchai/work/i-cube/I-CUBE-HUAWEI/Drivers/BSP/Components/stts751\stts751.c **** /**
 565:D:/fchai/work/i-cube/I-CUBE-HUAWEI/Drivers/BSP/Components/stts751\stts751.c ****  * @brief  Set the STTS751 register value
 566:D:/fchai/work/i-cube/I-CUBE-HUAWEI/Drivers/BSP/Components/stts751\stts751.c ****  * @param  pObj the device pObj
 567:D:/fchai/work/i-cube/I-CUBE-HUAWEI/Drivers/BSP/Components/stts751\stts751.c ****  * @param  Reg address to be written
 568:D:/fchai/work/i-cube/I-CUBE-HUAWEI/Drivers/BSP/Components/stts751\stts751.c ****  * @param  Data value to be written
 569:D:/fchai/work/i-cube/I-CUBE-HUAWEI/Drivers/BSP/Components/stts751\stts751.c ****  * @retval 0 in case of success, an error code otherwise
 570:D:/fchai/work/i-cube/I-CUBE-HUAWEI/Drivers/BSP/Components/stts751\stts751.c ****  */
 571:D:/fchai/work/i-cube/I-CUBE-HUAWEI/Drivers/BSP/Components/stts751\stts751.c **** int32_t STTS751_Write_Reg(STTS751_Object_t *pObj, uint8_t Reg, uint8_t Data)
 572:D:/fchai/work/i-cube/I-CUBE-HUAWEI/Drivers/BSP/Components/stts751\stts751.c **** {
 573:D:/fchai/work/i-cube/I-CUBE-HUAWEI/Drivers/BSP/Components/stts751\stts751.c ****   if (stts751_write_reg(&(pObj->Ctx), Reg, &Data, 1) != STTS751_OK)
 574:D:/fchai/work/i-cube/I-CUBE-HUAWEI/Drivers/BSP/Components/stts751\stts751.c ****   {
 575:D:/fchai/work/i-cube/I-CUBE-HUAWEI/Drivers/BSP/Components/stts751\stts751.c ****     return STTS751_ERROR;
 576:D:/fchai/work/i-cube/I-CUBE-HUAWEI/Drivers/BSP/Components/stts751\stts751.c ****   }
 577:D:/fchai/work/i-cube/I-CUBE-HUAWEI/Drivers/BSP/Components/stts751\stts751.c **** 
 578:D:/fchai/work/i-cube/I-CUBE-HUAWEI/Drivers/BSP/Components/stts751\stts751.c ****   return STTS751_OK;
 579:D:/fchai/work/i-cube/I-CUBE-HUAWEI/Drivers/BSP/Components/stts751\stts751.c **** }
 580:D:/fchai/work/i-cube/I-CUBE-HUAWEI/Drivers/BSP/Components/stts751\stts751.c **** 
 581:D:/fchai/work/i-cube/I-CUBE-HUAWEI/Drivers/BSP/Components/stts751\stts751.c **** /**
 582:D:/fchai/work/i-cube/I-CUBE-HUAWEI/Drivers/BSP/Components/stts751\stts751.c ****  * @brief  Set the STTS751 One Shot Mode
 583:D:/fchai/work/i-cube/I-CUBE-HUAWEI/Drivers/BSP/Components/stts751\stts751.c ****  * @param  pObj the device pObj
 584:D:/fchai/work/i-cube/I-CUBE-HUAWEI/Drivers/BSP/Components/stts751\stts751.c ****  * @retval 0 in case of success, an error code otherwise
 585:D:/fchai/work/i-cube/I-CUBE-HUAWEI/Drivers/BSP/Components/stts751\stts751.c ****  */
 586:D:/fchai/work/i-cube/I-CUBE-HUAWEI/Drivers/BSP/Components/stts751\stts751.c **** int32_t STTS751_Set_One_Shot(STTS751_Object_t *pObj)
 587:D:/fchai/work/i-cube/I-CUBE-HUAWEI/Drivers/BSP/Components/stts751\stts751.c **** {
 588:D:/fchai/work/i-cube/I-CUBE-HUAWEI/Drivers/BSP/Components/stts751\stts751.c ****   /* Start One Shot Measurement */
 589:D:/fchai/work/i-cube/I-CUBE-HUAWEI/Drivers/BSP/Components/stts751\stts751.c ****   if(stts751_temp_data_rate_set(&(pObj->Ctx), STTS751_TEMP_ODR_ONE_SHOT) != STTS751_OK)
 590:D:/fchai/work/i-cube/I-CUBE-HUAWEI/Drivers/BSP/Components/stts751\stts751.c ****   {
 591:D:/fchai/work/i-cube/I-CUBE-HUAWEI/Drivers/BSP/Components/stts751\stts751.c ****     return STTS751_ERROR;
 592:D:/fchai/work/i-cube/I-CUBE-HUAWEI/Drivers/BSP/Components/stts751\stts751.c ****   }
 593:D:/fchai/work/i-cube/I-CUBE-HUAWEI/Drivers/BSP/Components/stts751\stts751.c **** 
 594:D:/fchai/work/i-cube/I-CUBE-HUAWEI/Drivers/BSP/Components/stts751\stts751.c ****   return STTS751_OK;
 595:D:/fchai/work/i-cube/I-CUBE-HUAWEI/Drivers/BSP/Components/stts751\stts751.c **** }
 596:D:/fchai/work/i-cube/I-CUBE-HUAWEI/Drivers/BSP/Components/stts751\stts751.c **** 
 597:D:/fchai/work/i-cube/I-CUBE-HUAWEI/Drivers/BSP/Components/stts751\stts751.c **** /**
 598:D:/fchai/work/i-cube/I-CUBE-HUAWEI/Drivers/BSP/Components/stts751\stts751.c ****  * @brief  Get the STTS751 One Shot Status
 599:D:/fchai/work/i-cube/I-CUBE-HUAWEI/Drivers/BSP/Components/stts751\stts751.c ****  * @param  pObj the device pObj
ARM GAS  T:\msys\tmp\cciVJco4.s 			page 25


 600:D:/fchai/work/i-cube/I-CUBE-HUAWEI/Drivers/BSP/Components/stts751\stts751.c ****  * @param  Status pointer to the one shot status (1 means measurements available, 0 means measureme
 601:D:/fchai/work/i-cube/I-CUBE-HUAWEI/Drivers/BSP/Components/stts751\stts751.c ****  * @retval 0 in case of success, an error code otherwise
 602:D:/fchai/work/i-cube/I-CUBE-HUAWEI/Drivers/BSP/Components/stts751\stts751.c ****  */
 603:D:/fchai/work/i-cube/I-CUBE-HUAWEI/Drivers/BSP/Components/stts751\stts751.c **** int32_t STTS751_Get_One_Shot_Status(STTS751_Object_t *pObj, uint8_t *Status)
 604:D:/fchai/work/i-cube/I-CUBE-HUAWEI/Drivers/BSP/Components/stts751\stts751.c **** {
 605:D:/fchai/work/i-cube/I-CUBE-HUAWEI/Drivers/BSP/Components/stts751\stts751.c ****   uint8_t busy;
 606:D:/fchai/work/i-cube/I-CUBE-HUAWEI/Drivers/BSP/Components/stts751\stts751.c **** 
 607:D:/fchai/work/i-cube/I-CUBE-HUAWEI/Drivers/BSP/Components/stts751\stts751.c ****   /* Get Busy flag */
 608:D:/fchai/work/i-cube/I-CUBE-HUAWEI/Drivers/BSP/Components/stts751\stts751.c ****   if(stts751_flag_busy_get(&(pObj->Ctx), &busy) != STTS751_OK)
 609:D:/fchai/work/i-cube/I-CUBE-HUAWEI/Drivers/BSP/Components/stts751\stts751.c ****   {
 610:D:/fchai/work/i-cube/I-CUBE-HUAWEI/Drivers/BSP/Components/stts751\stts751.c ****     return STTS751_ERROR;
 611:D:/fchai/work/i-cube/I-CUBE-HUAWEI/Drivers/BSP/Components/stts751\stts751.c ****   }
 612:D:/fchai/work/i-cube/I-CUBE-HUAWEI/Drivers/BSP/Components/stts751\stts751.c **** 
 613:D:/fchai/work/i-cube/I-CUBE-HUAWEI/Drivers/BSP/Components/stts751\stts751.c ****   if(busy)
 614:D:/fchai/work/i-cube/I-CUBE-HUAWEI/Drivers/BSP/Components/stts751\stts751.c ****   {
 615:D:/fchai/work/i-cube/I-CUBE-HUAWEI/Drivers/BSP/Components/stts751\stts751.c ****     *Status = 0;
 616:D:/fchai/work/i-cube/I-CUBE-HUAWEI/Drivers/BSP/Components/stts751\stts751.c ****   }
 617:D:/fchai/work/i-cube/I-CUBE-HUAWEI/Drivers/BSP/Components/stts751\stts751.c ****   else
 618:D:/fchai/work/i-cube/I-CUBE-HUAWEI/Drivers/BSP/Components/stts751\stts751.c ****   {
 619:D:/fchai/work/i-cube/I-CUBE-HUAWEI/Drivers/BSP/Components/stts751\stts751.c ****     *Status = 1;
 620:D:/fchai/work/i-cube/I-CUBE-HUAWEI/Drivers/BSP/Components/stts751\stts751.c ****   }
 621:D:/fchai/work/i-cube/I-CUBE-HUAWEI/Drivers/BSP/Components/stts751\stts751.c **** 
 622:D:/fchai/work/i-cube/I-CUBE-HUAWEI/Drivers/BSP/Components/stts751\stts751.c ****   return STTS751_OK;
 623:D:/fchai/work/i-cube/I-CUBE-HUAWEI/Drivers/BSP/Components/stts751\stts751.c **** }
 624:D:/fchai/work/i-cube/I-CUBE-HUAWEI/Drivers/BSP/Components/stts751\stts751.c **** 
 625:D:/fchai/work/i-cube/I-CUBE-HUAWEI/Drivers/BSP/Components/stts751\stts751.c **** /**
 626:D:/fchai/work/i-cube/I-CUBE-HUAWEI/Drivers/BSP/Components/stts751\stts751.c ****  * @}
 627:D:/fchai/work/i-cube/I-CUBE-HUAWEI/Drivers/BSP/Components/stts751\stts751.c ****  */
 628:D:/fchai/work/i-cube/I-CUBE-HUAWEI/Drivers/BSP/Components/stts751\stts751.c **** 
 629:D:/fchai/work/i-cube/I-CUBE-HUAWEI/Drivers/BSP/Components/stts751\stts751.c **** /** @defgroup STTS751_Private_Functions STTS751 Private Functions
 630:D:/fchai/work/i-cube/I-CUBE-HUAWEI/Drivers/BSP/Components/stts751\stts751.c ****  * @{
 631:D:/fchai/work/i-cube/I-CUBE-HUAWEI/Drivers/BSP/Components/stts751\stts751.c ****  */
 632:D:/fchai/work/i-cube/I-CUBE-HUAWEI/Drivers/BSP/Components/stts751\stts751.c **** 
 633:D:/fchai/work/i-cube/I-CUBE-HUAWEI/Drivers/BSP/Components/stts751\stts751.c **** /**
 634:D:/fchai/work/i-cube/I-CUBE-HUAWEI/Drivers/BSP/Components/stts751\stts751.c ****  * @brief  Wrap Read register component function to Bus IO function
 635:D:/fchai/work/i-cube/I-CUBE-HUAWEI/Drivers/BSP/Components/stts751\stts751.c ****  * @param  Handle the device handler
 636:D:/fchai/work/i-cube/I-CUBE-HUAWEI/Drivers/BSP/Components/stts751\stts751.c ****  * @param  Reg the register address
 637:D:/fchai/work/i-cube/I-CUBE-HUAWEI/Drivers/BSP/Components/stts751\stts751.c ****  * @param  pData the stored data pointer
 638:D:/fchai/work/i-cube/I-CUBE-HUAWEI/Drivers/BSP/Components/stts751\stts751.c ****  * @param  Length the length
 639:D:/fchai/work/i-cube/I-CUBE-HUAWEI/Drivers/BSP/Components/stts751\stts751.c ****  * @retval 0 in case of success, an error code otherwise
 640:D:/fchai/work/i-cube/I-CUBE-HUAWEI/Drivers/BSP/Components/stts751\stts751.c ****  */
 641:D:/fchai/work/i-cube/I-CUBE-HUAWEI/Drivers/BSP/Components/stts751\stts751.c **** static int32_t ReadRegWrap(void *Handle, uint8_t Reg, uint8_t *pData, uint16_t Length)
 642:D:/fchai/work/i-cube/I-CUBE-HUAWEI/Drivers/BSP/Components/stts751\stts751.c **** {
 671              		.loc 1 642 1 is_stmt 1 view -0
 672              		.cfi_startproc
 673              		@ args = 0, pretend = 0, frame = 0
 674              		@ frame_needed = 0, uses_anonymous_args = 0
 675              		.loc 1 642 1 is_stmt 0 view .LVU168
 676 0000 2DE9F041 		push	{r4, r5, r6, r7, r8, lr}
 677              	.LCFI19:
 678              		.cfi_def_cfa_offset 24
 679              		.cfi_offset 4, -24
 680              		.cfi_offset 5, -20
 681              		.cfi_offset 6, -16
 682              		.cfi_offset 7, -12
 683              		.cfi_offset 8, -8
 684              		.cfi_offset 14, -4
ARM GAS  T:\msys\tmp\cciVJco4.s 			page 26


 685              		.loc 1 642 1 view .LVU169
 686 0004 0546     		mov	r5, r0
 643:D:/fchai/work/i-cube/I-CUBE-HUAWEI/Drivers/BSP/Components/stts751\stts751.c ****   uint16_t i;
 644:D:/fchai/work/i-cube/I-CUBE-HUAWEI/Drivers/BSP/Components/stts751\stts751.c ****   int32_t ret = STTS751_OK;
 645:D:/fchai/work/i-cube/I-CUBE-HUAWEI/Drivers/BSP/Components/stts751\stts751.c ****   STTS751_Object_t *pObj = (STTS751_Object_t *)Handle;
 646:D:/fchai/work/i-cube/I-CUBE-HUAWEI/Drivers/BSP/Components/stts751\stts751.c **** 
 647:D:/fchai/work/i-cube/I-CUBE-HUAWEI/Drivers/BSP/Components/stts751\stts751.c ****   if (pObj->IO.BusType == (uint32_t)STTS751_I2C_BUS) /* I2C */
 687              		.loc 1 647 6 view .LVU170
 688 0006 8068     		ldr	r0, [r0, #8]
 689              	.LVL36:
 643:D:/fchai/work/i-cube/I-CUBE-HUAWEI/Drivers/BSP/Components/stts751\stts751.c ****   uint16_t i;
 690              		.loc 1 643 3 is_stmt 1 view .LVU171
 644:D:/fchai/work/i-cube/I-CUBE-HUAWEI/Drivers/BSP/Components/stts751\stts751.c ****   STTS751_Object_t *pObj = (STTS751_Object_t *)Handle;
 691              		.loc 1 644 3 view .LVU172
 645:D:/fchai/work/i-cube/I-CUBE-HUAWEI/Drivers/BSP/Components/stts751\stts751.c **** 
 692              		.loc 1 645 3 view .LVU173
 693              		.loc 1 647 3 view .LVU174
 694              		.loc 1 647 6 is_stmt 0 view .LVU175
 695 0008 C8B9     		cbnz	r0, .L69
 696              	.LVL37:
 697              	.LBB4:
 698              	.LBB5:
 648:D:/fchai/work/i-cube/I-CUBE-HUAWEI/Drivers/BSP/Components/stts751\stts751.c ****   {
 649:D:/fchai/work/i-cube/I-CUBE-HUAWEI/Drivers/BSP/Components/stts751\stts751.c ****     for (i = 0; i < Length; i++)
 699              		.loc 1 649 17 is_stmt 1 view .LVU176
 700              		.loc 1 649 5 is_stmt 0 view .LVU177
 701 000a C3B1     		cbz	r3, .L69
 702 000c 013B     		subs	r3, r3, #1
 703              	.LVL38:
 704              		.loc 1 649 5 view .LVU178
 705 000e 561C     		adds	r6, r2, #1
 706 0010 1446     		mov	r4, r2
 707 0012 16FA83F6 		uxtah	r6, r6, r3
 708 0016 A1EB0208 		sub	r8, r1, r2
 709 001a 01E0     		b	.L70
 710              	.LVL39:
 711              	.L77:
 712              		.loc 1 649 5 view .LVU179
 713 001c B442     		cmp	r4, r6
 714 001e 0ED0     		beq	.L69
 715              	.LVL40:
 716              	.L70:
 650:D:/fchai/work/i-cube/I-CUBE-HUAWEI/Drivers/BSP/Components/stts751\stts751.c ****     {
 651:D:/fchai/work/i-cube/I-CUBE-HUAWEI/Drivers/BSP/Components/stts751\stts751.c ****       ret = pObj->IO.ReadReg(pObj->IO.Address, (Reg + i), &pData[i], 1);
 717              		.loc 1 651 7 is_stmt 1 view .LVU180
 718              		.loc 1 651 13 is_stmt 0 view .LVU181
 719 0020 08EB0401 		add	r1, r8, r4
 720 0024 0123     		movs	r3, #1
 721 0026 2246     		mov	r2, r4
 722 0028 6F69     		ldr	r7, [r5, #20]
 723 002a 287B     		ldrb	r0, [r5, #12]	@ zero_extendqisi2
 724 002c 89B2     		uxth	r1, r1
 725 002e 1C44     		add	r4, r4, r3
 726              	.LVL41:
 727              		.loc 1 651 13 view .LVU182
 728 0030 B847     		blx	r7
 729              	.LVL42:
ARM GAS  T:\msys\tmp\cciVJco4.s 			page 27


 649:D:/fchai/work/i-cube/I-CUBE-HUAWEI/Drivers/BSP/Components/stts751\stts751.c ****     {
 730              		.loc 1 649 29 is_stmt 1 view .LVU183
 649:D:/fchai/work/i-cube/I-CUBE-HUAWEI/Drivers/BSP/Components/stts751\stts751.c ****     {
 731              		.loc 1 649 17 view .LVU184
 652:D:/fchai/work/i-cube/I-CUBE-HUAWEI/Drivers/BSP/Components/stts751\stts751.c ****       if (ret != STTS751_OK)
 732              		.loc 1 652 7 view .LVU185
 733              		.loc 1 652 10 is_stmt 0 view .LVU186
 734 0032 0028     		cmp	r0, #0
 735 0034 F2D0     		beq	.L77
 653:D:/fchai/work/i-cube/I-CUBE-HUAWEI/Drivers/BSP/Components/stts751\stts751.c ****       {
 654:D:/fchai/work/i-cube/I-CUBE-HUAWEI/Drivers/BSP/Components/stts751\stts751.c ****         return STTS751_ERROR;
 736              		.loc 1 654 16 view .LVU187
 737 0036 4FF0FF30 		mov	r0, #-1
 738              	.LVL43:
 739              		.loc 1 654 16 view .LVU188
 740              	.LBE5:
 741              	.LBE4:
 655:D:/fchai/work/i-cube/I-CUBE-HUAWEI/Drivers/BSP/Components/stts751\stts751.c ****       }
 656:D:/fchai/work/i-cube/I-CUBE-HUAWEI/Drivers/BSP/Components/stts751\stts751.c ****     }
 657:D:/fchai/work/i-cube/I-CUBE-HUAWEI/Drivers/BSP/Components/stts751\stts751.c ****   }
 658:D:/fchai/work/i-cube/I-CUBE-HUAWEI/Drivers/BSP/Components/stts751\stts751.c **** 
 659:D:/fchai/work/i-cube/I-CUBE-HUAWEI/Drivers/BSP/Components/stts751\stts751.c ****   return ret;
 660:D:/fchai/work/i-cube/I-CUBE-HUAWEI/Drivers/BSP/Components/stts751\stts751.c **** }
 742              		.loc 1 660 1 view .LVU189
 743 003a BDE8F081 		pop	{r4, r5, r6, r7, r8, pc}
 744              	.LVL44:
 745              	.L69:
 644:D:/fchai/work/i-cube/I-CUBE-HUAWEI/Drivers/BSP/Components/stts751\stts751.c ****   STTS751_Object_t *pObj = (STTS751_Object_t *)Handle;
 746              		.loc 1 644 11 view .LVU190
 747 003e 0020     		movs	r0, #0
 748              		.loc 1 660 1 view .LVU191
 749 0040 BDE8F081 		pop	{r4, r5, r6, r7, r8, pc}
 750              		.loc 1 660 1 view .LVU192
 751              		.cfi_endproc
 752              	.LFE20:
 754              		.section	.text.WriteRegWrap,"ax",%progbits
 755              		.align	1
 756              		.p2align 2,,3
 757              		.syntax unified
 758              		.thumb
 759              		.thumb_func
 760              		.fpu fpv4-sp-d16
 762              	WriteRegWrap:
 763              	.LVL45:
 764              	.LFB21:
 661:D:/fchai/work/i-cube/I-CUBE-HUAWEI/Drivers/BSP/Components/stts751\stts751.c **** 
 662:D:/fchai/work/i-cube/I-CUBE-HUAWEI/Drivers/BSP/Components/stts751\stts751.c **** /**
 663:D:/fchai/work/i-cube/I-CUBE-HUAWEI/Drivers/BSP/Components/stts751\stts751.c ****  * @brief  Wrap Write register component function to Bus IO function
 664:D:/fchai/work/i-cube/I-CUBE-HUAWEI/Drivers/BSP/Components/stts751\stts751.c ****  * @param  Handle the device handler
 665:D:/fchai/work/i-cube/I-CUBE-HUAWEI/Drivers/BSP/Components/stts751\stts751.c ****  * @param  Reg the register address
 666:D:/fchai/work/i-cube/I-CUBE-HUAWEI/Drivers/BSP/Components/stts751\stts751.c ****  * @param  pData the stored data pointer
 667:D:/fchai/work/i-cube/I-CUBE-HUAWEI/Drivers/BSP/Components/stts751\stts751.c ****  * @param  Length the length
 668:D:/fchai/work/i-cube/I-CUBE-HUAWEI/Drivers/BSP/Components/stts751\stts751.c ****  * @retval 0 in case of success, an error code otherwise
 669:D:/fchai/work/i-cube/I-CUBE-HUAWEI/Drivers/BSP/Components/stts751\stts751.c ****  */
 670:D:/fchai/work/i-cube/I-CUBE-HUAWEI/Drivers/BSP/Components/stts751\stts751.c **** static int32_t WriteRegWrap(void *Handle, uint8_t Reg, uint8_t *pData, uint16_t Length)
 671:D:/fchai/work/i-cube/I-CUBE-HUAWEI/Drivers/BSP/Components/stts751\stts751.c **** {
 765              		.loc 1 671 1 is_stmt 1 view -0
ARM GAS  T:\msys\tmp\cciVJco4.s 			page 28


 766              		.cfi_startproc
 767              		@ args = 0, pretend = 0, frame = 0
 768              		@ frame_needed = 0, uses_anonymous_args = 0
 769              		.loc 1 671 1 is_stmt 0 view .LVU194
 770 0000 2DE9F041 		push	{r4, r5, r6, r7, r8, lr}
 771              	.LCFI20:
 772              		.cfi_def_cfa_offset 24
 773              		.cfi_offset 4, -24
 774              		.cfi_offset 5, -20
 775              		.cfi_offset 6, -16
 776              		.cfi_offset 7, -12
 777              		.cfi_offset 8, -8
 778              		.cfi_offset 14, -4
 779              		.loc 1 671 1 view .LVU195
 780 0004 0546     		mov	r5, r0
 672:D:/fchai/work/i-cube/I-CUBE-HUAWEI/Drivers/BSP/Components/stts751\stts751.c ****   uint16_t i;
 673:D:/fchai/work/i-cube/I-CUBE-HUAWEI/Drivers/BSP/Components/stts751\stts751.c ****   int32_t ret = STTS751_OK;
 674:D:/fchai/work/i-cube/I-CUBE-HUAWEI/Drivers/BSP/Components/stts751\stts751.c ****   STTS751_Object_t *pObj = (STTS751_Object_t *)Handle;
 675:D:/fchai/work/i-cube/I-CUBE-HUAWEI/Drivers/BSP/Components/stts751\stts751.c **** 
 676:D:/fchai/work/i-cube/I-CUBE-HUAWEI/Drivers/BSP/Components/stts751\stts751.c ****   if (pObj->IO.BusType == (uint32_t)STTS751_I2C_BUS) /* I2C */
 781              		.loc 1 676 6 view .LVU196
 782 0006 8068     		ldr	r0, [r0, #8]
 783              	.LVL46:
 672:D:/fchai/work/i-cube/I-CUBE-HUAWEI/Drivers/BSP/Components/stts751\stts751.c ****   uint16_t i;
 784              		.loc 1 672 3 is_stmt 1 view .LVU197
 673:D:/fchai/work/i-cube/I-CUBE-HUAWEI/Drivers/BSP/Components/stts751\stts751.c ****   STTS751_Object_t *pObj = (STTS751_Object_t *)Handle;
 785              		.loc 1 673 3 view .LVU198
 674:D:/fchai/work/i-cube/I-CUBE-HUAWEI/Drivers/BSP/Components/stts751\stts751.c **** 
 786              		.loc 1 674 3 view .LVU199
 787              		.loc 1 676 3 view .LVU200
 788              		.loc 1 676 6 is_stmt 0 view .LVU201
 789 0008 C8B9     		cbnz	r0, .L81
 790              	.LVL47:
 791              	.LBB8:
 792              	.LBB9:
 677:D:/fchai/work/i-cube/I-CUBE-HUAWEI/Drivers/BSP/Components/stts751\stts751.c ****   {
 678:D:/fchai/work/i-cube/I-CUBE-HUAWEI/Drivers/BSP/Components/stts751\stts751.c **** 	for (i = 0; i < Length; i++)
 793              		.loc 1 678 14 is_stmt 1 view .LVU202
 794              		.loc 1 678 2 is_stmt 0 view .LVU203
 795 000a C3B1     		cbz	r3, .L81
 796 000c 013B     		subs	r3, r3, #1
 797              	.LVL48:
 798              		.loc 1 678 2 view .LVU204
 799 000e 561C     		adds	r6, r2, #1
 800 0010 1446     		mov	r4, r2
 801 0012 16FA83F6 		uxtah	r6, r6, r3
 802 0016 A1EB0208 		sub	r8, r1, r2
 803 001a 01E0     		b	.L82
 804              	.LVL49:
 805              	.L89:
 806              		.loc 1 678 2 view .LVU205
 807 001c B442     		cmp	r4, r6
 808 001e 0ED0     		beq	.L81
 809              	.LVL50:
 810              	.L82:
 679:D:/fchai/work/i-cube/I-CUBE-HUAWEI/Drivers/BSP/Components/stts751\stts751.c ****     {
 680:D:/fchai/work/i-cube/I-CUBE-HUAWEI/Drivers/BSP/Components/stts751\stts751.c ****       ret = pObj->IO.WriteReg(pObj->IO.Address, (Reg + i), &pData[i], 1);
ARM GAS  T:\msys\tmp\cciVJco4.s 			page 29


 811              		.loc 1 680 7 is_stmt 1 view .LVU206
 812              		.loc 1 680 13 is_stmt 0 view .LVU207
 813 0020 08EB0401 		add	r1, r8, r4
 814 0024 0123     		movs	r3, #1
 815 0026 2246     		mov	r2, r4
 816 0028 2F69     		ldr	r7, [r5, #16]
 817 002a 287B     		ldrb	r0, [r5, #12]	@ zero_extendqisi2
 818 002c 89B2     		uxth	r1, r1
 819 002e 1C44     		add	r4, r4, r3
 820              	.LVL51:
 821              		.loc 1 680 13 view .LVU208
 822 0030 B847     		blx	r7
 823              	.LVL52:
 678:D:/fchai/work/i-cube/I-CUBE-HUAWEI/Drivers/BSP/Components/stts751\stts751.c ****     {
 824              		.loc 1 678 26 is_stmt 1 view .LVU209
 678:D:/fchai/work/i-cube/I-CUBE-HUAWEI/Drivers/BSP/Components/stts751\stts751.c ****     {
 825              		.loc 1 678 14 view .LVU210
 681:D:/fchai/work/i-cube/I-CUBE-HUAWEI/Drivers/BSP/Components/stts751\stts751.c ****       if (ret != STTS751_OK)
 826              		.loc 1 681 7 view .LVU211
 827              		.loc 1 681 10 is_stmt 0 view .LVU212
 828 0032 0028     		cmp	r0, #0
 829 0034 F2D0     		beq	.L89
 682:D:/fchai/work/i-cube/I-CUBE-HUAWEI/Drivers/BSP/Components/stts751\stts751.c ****       {
 683:D:/fchai/work/i-cube/I-CUBE-HUAWEI/Drivers/BSP/Components/stts751\stts751.c ****         return STTS751_ERROR;
 830              		.loc 1 683 16 view .LVU213
 831 0036 4FF0FF30 		mov	r0, #-1
 832              	.LVL53:
 833              		.loc 1 683 16 view .LVU214
 834              	.LBE9:
 835              	.LBE8:
 684:D:/fchai/work/i-cube/I-CUBE-HUAWEI/Drivers/BSP/Components/stts751\stts751.c ****       }
 685:D:/fchai/work/i-cube/I-CUBE-HUAWEI/Drivers/BSP/Components/stts751\stts751.c ****     }
 686:D:/fchai/work/i-cube/I-CUBE-HUAWEI/Drivers/BSP/Components/stts751\stts751.c ****   }
 687:D:/fchai/work/i-cube/I-CUBE-HUAWEI/Drivers/BSP/Components/stts751\stts751.c **** 
 688:D:/fchai/work/i-cube/I-CUBE-HUAWEI/Drivers/BSP/Components/stts751\stts751.c ****   return ret;
 689:D:/fchai/work/i-cube/I-CUBE-HUAWEI/Drivers/BSP/Components/stts751\stts751.c **** }
 836              		.loc 1 689 1 view .LVU215
 837 003a BDE8F081 		pop	{r4, r5, r6, r7, r8, pc}
 838              	.LVL54:
 839              	.L81:
 673:D:/fchai/work/i-cube/I-CUBE-HUAWEI/Drivers/BSP/Components/stts751\stts751.c ****   STTS751_Object_t *pObj = (STTS751_Object_t *)Handle;
 840              		.loc 1 673 11 view .LVU216
 841 003e 0020     		movs	r0, #0
 842              		.loc 1 689 1 view .LVU217
 843 0040 BDE8F081 		pop	{r4, r5, r6, r7, r8, pc}
 844              		.loc 1 689 1 view .LVU218
 845              		.cfi_endproc
 846              	.LFE21:
 848              		.section	.text.STTS751_TEMP_Disable,"ax",%progbits
 849              		.align	1
 850              		.p2align 2,,3
 851              		.global	STTS751_TEMP_Disable
 852              		.syntax unified
 853              		.thumb
 854              		.thumb_func
 855              		.fpu fpv4-sp-d16
 857              	STTS751_TEMP_Disable:
ARM GAS  T:\msys\tmp\cciVJco4.s 			page 30


 858              	.LVL55:
 859              	.LFB7:
 261:D:/fchai/work/i-cube/I-CUBE-HUAWEI/Drivers/BSP/Components/stts751\stts751.c ****   /* Check if the component is already disabled */
 860              		.loc 1 261 1 is_stmt 1 view -0
 861              		.cfi_startproc
 862              		@ args = 0, pretend = 0, frame = 0
 863              		@ frame_needed = 0, uses_anonymous_args = 0
 263:D:/fchai/work/i-cube/I-CUBE-HUAWEI/Drivers/BSP/Components/stts751\stts751.c ****   {
 864              		.loc 1 263 3 view .LVU220
 263:D:/fchai/work/i-cube/I-CUBE-HUAWEI/Drivers/BSP/Components/stts751\stts751.c ****   {
 865              		.loc 1 263 6 is_stmt 0 view .LVU221
 866 0000 90F82930 		ldrb	r3, [r0, #41]	@ zero_extendqisi2
 867 0004 0BB9     		cbnz	r3, .L99
 265:D:/fchai/work/i-cube/I-CUBE-HUAWEI/Drivers/BSP/Components/stts751\stts751.c ****   }
 868              		.loc 1 265 12 view .LVU222
 869 0006 1846     		mov	r0, r3
 870              	.LVL56:
 283:D:/fchai/work/i-cube/I-CUBE-HUAWEI/Drivers/BSP/Components/stts751\stts751.c **** 
 871              		.loc 1 283 1 view .LVU223
 872 0008 7047     		bx	lr
 873              	.LVL57:
 874              	.L99:
 269:D:/fchai/work/i-cube/I-CUBE-HUAWEI/Drivers/BSP/Components/stts751\stts751.c ****   {
 875              		.loc 1 269 3 is_stmt 1 view .LVU224
 261:D:/fchai/work/i-cube/I-CUBE-HUAWEI/Drivers/BSP/Components/stts751\stts751.c ****   /* Check if the component is already disabled */
 876              		.loc 1 261 1 is_stmt 0 view .LVU225
 877 000a 10B5     		push	{r4, lr}
 878              	.LCFI21:
 879              		.cfi_def_cfa_offset 8
 880              		.cfi_offset 4, -8
 881              		.cfi_offset 14, -4
 269:D:/fchai/work/i-cube/I-CUBE-HUAWEI/Drivers/BSP/Components/stts751\stts751.c ****   {
 882              		.loc 1 269 7 view .LVU226
 883 000c 00F12C01 		add	r1, r0, #44
 884 0010 0446     		mov	r4, r0
 885 0012 FFF7FEFF 		bl	STTS751_TEMP_GetOutputDataRate
 886              	.LVL58:
 269:D:/fchai/work/i-cube/I-CUBE-HUAWEI/Drivers/BSP/Components/stts751\stts751.c ****   {
 887              		.loc 1 269 6 view .LVU227
 888 0016 40B9     		cbnz	r0, .L93
 889              	.LVL59:
 890              	.LBB12:
 891              	.LBI12:
 260:D:/fchai/work/i-cube/I-CUBE-HUAWEI/Drivers/BSP/Components/stts751\stts751.c **** {
 892              		.loc 1 260 9 is_stmt 1 view .LVU228
 893              	.LBB13:
 275:D:/fchai/work/i-cube/I-CUBE-HUAWEI/Drivers/BSP/Components/stts751\stts751.c ****   {
 894              		.loc 1 275 3 view .LVU229
 275:D:/fchai/work/i-cube/I-CUBE-HUAWEI/Drivers/BSP/Components/stts751\stts751.c ****   {
 895              		.loc 1 275 7 is_stmt 0 view .LVU230
 896 0018 8021     		movs	r1, #128
 897 001a 04F11C00 		add	r0, r4, #28
 898 001e FFF7FEFF 		bl	stts751_temp_data_rate_set
 899              	.LVL60:
 275:D:/fchai/work/i-cube/I-CUBE-HUAWEI/Drivers/BSP/Components/stts751\stts751.c ****   {
 900              		.loc 1 275 6 view .LVU231
 901 0022 10B9     		cbnz	r0, .L93
ARM GAS  T:\msys\tmp\cciVJco4.s 			page 31


 280:D:/fchai/work/i-cube/I-CUBE-HUAWEI/Drivers/BSP/Components/stts751\stts751.c **** 
 902              		.loc 1 280 3 is_stmt 1 view .LVU232
 280:D:/fchai/work/i-cube/I-CUBE-HUAWEI/Drivers/BSP/Components/stts751\stts751.c **** 
 903              		.loc 1 280 25 is_stmt 0 view .LVU233
 904 0024 84F82900 		strb	r0, [r4, #41]
 282:D:/fchai/work/i-cube/I-CUBE-HUAWEI/Drivers/BSP/Components/stts751\stts751.c **** }
 905              		.loc 1 282 3 is_stmt 1 view .LVU234
 906              	.LBE13:
 907              	.LBE12:
 283:D:/fchai/work/i-cube/I-CUBE-HUAWEI/Drivers/BSP/Components/stts751\stts751.c **** 
 908              		.loc 1 283 1 is_stmt 0 view .LVU235
 909 0028 10BD     		pop	{r4, pc}
 910              	.LVL61:
 911              	.L93:
 271:D:/fchai/work/i-cube/I-CUBE-HUAWEI/Drivers/BSP/Components/stts751\stts751.c ****   }
 912              		.loc 1 271 12 view .LVU236
 913 002a 4FF0FF30 		mov	r0, #-1
 283:D:/fchai/work/i-cube/I-CUBE-HUAWEI/Drivers/BSP/Components/stts751\stts751.c **** 
 914              		.loc 1 283 1 view .LVU237
 915 002e 10BD     		pop	{r4, pc}
 283:D:/fchai/work/i-cube/I-CUBE-HUAWEI/Drivers/BSP/Components/stts751\stts751.c **** 
 916              		.loc 1 283 1 view .LVU238
 917              		.cfi_endproc
 918              	.LFE7:
 920              		.section	.text.STTS751_DeInit,"ax",%progbits
 921              		.align	1
 922              		.p2align 2,,3
 923              		.global	STTS751_DeInit
 924              		.syntax unified
 925              		.thumb
 926              		.thumb_func
 927              		.fpu fpv4-sp-d16
 929              	STTS751_DeInit:
 930              	.LVL62:
 931              	.LFB2:
 157:D:/fchai/work/i-cube/I-CUBE-HUAWEI/Drivers/BSP/Components/stts751\stts751.c ****   if (pObj->is_initialized == 1U)
 932              		.loc 1 157 1 is_stmt 1 view -0
 933              		.cfi_startproc
 934              		@ args = 0, pretend = 0, frame = 0
 935              		@ frame_needed = 0, uses_anonymous_args = 0
 158:D:/fchai/work/i-cube/I-CUBE-HUAWEI/Drivers/BSP/Components/stts751\stts751.c ****   {
 936              		.loc 1 158 3 view .LVU240
 157:D:/fchai/work/i-cube/I-CUBE-HUAWEI/Drivers/BSP/Components/stts751\stts751.c ****   if (pObj->is_initialized == 1U)
 937              		.loc 1 157 1 is_stmt 0 view .LVU241
 938 0000 10B5     		push	{r4, lr}
 939              	.LCFI22:
 940              		.cfi_def_cfa_offset 8
 941              		.cfi_offset 4, -8
 942              		.cfi_offset 14, -4
 158:D:/fchai/work/i-cube/I-CUBE-HUAWEI/Drivers/BSP/Components/stts751\stts751.c ****   {
 943              		.loc 1 158 6 view .LVU242
 944 0002 90F82830 		ldrb	r3, [r0, #40]	@ zero_extendqisi2
 945 0006 012B     		cmp	r3, #1
 157:D:/fchai/work/i-cube/I-CUBE-HUAWEI/Drivers/BSP/Components/stts751\stts751.c ****   if (pObj->is_initialized == 1U)
 946              		.loc 1 157 1 view .LVU243
 947 0008 0446     		mov	r4, r0
 158:D:/fchai/work/i-cube/I-CUBE-HUAWEI/Drivers/BSP/Components/stts751\stts751.c ****   {
ARM GAS  T:\msys\tmp\cciVJco4.s 			page 32


 948              		.loc 1 158 6 view .LVU244
 949 000a 03D0     		beq	.L101
 950              	.LVL63:
 951              	.L103:
 167:D:/fchai/work/i-cube/I-CUBE-HUAWEI/Drivers/BSP/Components/stts751\stts751.c **** 
 952              		.loc 1 167 3 is_stmt 1 view .LVU245
 167:D:/fchai/work/i-cube/I-CUBE-HUAWEI/Drivers/BSP/Components/stts751\stts751.c **** 
 953              		.loc 1 167 24 is_stmt 0 view .LVU246
 954 000c 0020     		movs	r0, #0
 955 000e 84F82800 		strb	r0, [r4, #40]
 169:D:/fchai/work/i-cube/I-CUBE-HUAWEI/Drivers/BSP/Components/stts751\stts751.c **** }
 956              		.loc 1 169 3 is_stmt 1 view .LVU247
 170:D:/fchai/work/i-cube/I-CUBE-HUAWEI/Drivers/BSP/Components/stts751\stts751.c **** 
 957              		.loc 1 170 1 is_stmt 0 view .LVU248
 958 0012 10BD     		pop	{r4, pc}
 959              	.LVL64:
 960              	.L101:
 161:D:/fchai/work/i-cube/I-CUBE-HUAWEI/Drivers/BSP/Components/stts751\stts751.c ****     {
 961              		.loc 1 161 5 is_stmt 1 view .LVU249
 161:D:/fchai/work/i-cube/I-CUBE-HUAWEI/Drivers/BSP/Components/stts751\stts751.c ****     {
 962              		.loc 1 161 9 is_stmt 0 view .LVU250
 963 0014 FFF7FEFF 		bl	STTS751_TEMP_Disable
 964              	.LVL65:
 161:D:/fchai/work/i-cube/I-CUBE-HUAWEI/Drivers/BSP/Components/stts751\stts751.c ****     {
 965              		.loc 1 161 8 view .LVU251
 966 0018 0028     		cmp	r0, #0
 967 001a F7D0     		beq	.L103
 163:D:/fchai/work/i-cube/I-CUBE-HUAWEI/Drivers/BSP/Components/stts751\stts751.c ****     }
 968              		.loc 1 163 14 view .LVU252
 969 001c 4FF0FF30 		mov	r0, #-1
 170:D:/fchai/work/i-cube/I-CUBE-HUAWEI/Drivers/BSP/Components/stts751\stts751.c **** 
 970              		.loc 1 170 1 view .LVU253
 971 0020 10BD     		pop	{r4, pc}
 170:D:/fchai/work/i-cube/I-CUBE-HUAWEI/Drivers/BSP/Components/stts751\stts751.c **** 
 972              		.loc 1 170 1 view .LVU254
 973              		.cfi_endproc
 974              	.LFE2:
 976 0022 00BF     		.section	.text.STTS751_TEMP_Enable,"ax",%progbits
 977              		.align	1
 978              		.p2align 2,,3
 979              		.global	STTS751_TEMP_Enable
 980              		.syntax unified
 981              		.thumb
 982              		.thumb_func
 983              		.fpu fpv4-sp-d16
 985              	STTS751_TEMP_Enable:
 986              	.LVL66:
 987              	.LFB6:
 237:D:/fchai/work/i-cube/I-CUBE-HUAWEI/Drivers/BSP/Components/stts751\stts751.c ****   /* Check if the component is already enabled */
 988              		.loc 1 237 1 is_stmt 1 view -0
 989              		.cfi_startproc
 990              		@ args = 0, pretend = 0, frame = 0
 991              		@ frame_needed = 0, uses_anonymous_args = 0
 239:D:/fchai/work/i-cube/I-CUBE-HUAWEI/Drivers/BSP/Components/stts751\stts751.c ****   {
 992              		.loc 1 239 3 view .LVU256
 239:D:/fchai/work/i-cube/I-CUBE-HUAWEI/Drivers/BSP/Components/stts751\stts751.c ****   {
 993              		.loc 1 239 6 is_stmt 0 view .LVU257
ARM GAS  T:\msys\tmp\cciVJco4.s 			page 33


 994 0000 90F82930 		ldrb	r3, [r0, #41]	@ zero_extendqisi2
 995 0004 012B     		cmp	r3, #1
 996 0006 0AD0     		beq	.L110
 997              	.LVL67:
 998              	.LBB16:
 999              	.LBI16:
 236:D:/fchai/work/i-cube/I-CUBE-HUAWEI/Drivers/BSP/Components/stts751\stts751.c **** {
 1000              		.loc 1 236 9 is_stmt 1 view .LVU258
 1001              	.LBB17:
 245:D:/fchai/work/i-cube/I-CUBE-HUAWEI/Drivers/BSP/Components/stts751\stts751.c ****   {
 1002              		.loc 1 245 3 view .LVU259
 1003              	.LBE17:
 1004              	.LBE16:
 237:D:/fchai/work/i-cube/I-CUBE-HUAWEI/Drivers/BSP/Components/stts751\stts751.c ****   /* Check if the component is already enabled */
 1005              		.loc 1 237 1 is_stmt 0 view .LVU260
 1006 0008 10B5     		push	{r4, lr}
 1007              	.LCFI23:
 1008              		.cfi_def_cfa_offset 8
 1009              		.cfi_offset 4, -8
 1010              		.cfi_offset 14, -4
 1011              	.LBB20:
 1012              	.LBB18:
 245:D:/fchai/work/i-cube/I-CUBE-HUAWEI/Drivers/BSP/Components/stts751\stts751.c ****   {
 1013              		.loc 1 245 7 view .LVU261
 1014 000a 90ED0B0A 		vldr.32	s0, [r0, #44]
 1015 000e 0446     		mov	r4, r0
 1016 0010 FFF7FEFF 		bl	STTS751_TEMP_SetOutputDataRate
 1017              	.LVL68:
 245:D:/fchai/work/i-cube/I-CUBE-HUAWEI/Drivers/BSP/Components/stts751\stts751.c ****   {
 1018              		.loc 1 245 6 view .LVU262
 1019 0014 28B9     		cbnz	r0, .L111
 250:D:/fchai/work/i-cube/I-CUBE-HUAWEI/Drivers/BSP/Components/stts751\stts751.c **** 
 1020              		.loc 1 250 3 is_stmt 1 view .LVU263
 250:D:/fchai/work/i-cube/I-CUBE-HUAWEI/Drivers/BSP/Components/stts751\stts751.c **** 
 1021              		.loc 1 250 25 is_stmt 0 view .LVU264
 1022 0016 0123     		movs	r3, #1
 1023 0018 84F82930 		strb	r3, [r4, #41]
 252:D:/fchai/work/i-cube/I-CUBE-HUAWEI/Drivers/BSP/Components/stts751\stts751.c **** }
 1024              		.loc 1 252 3 is_stmt 1 view .LVU265
 1025              	.LBE18:
 1026              	.LBE20:
 253:D:/fchai/work/i-cube/I-CUBE-HUAWEI/Drivers/BSP/Components/stts751\stts751.c **** 
 1027              		.loc 1 253 1 is_stmt 0 view .LVU266
 1028 001c 10BD     		pop	{r4, pc}
 1029              	.LVL69:
 1030              	.L110:
 1031              	.LCFI24:
 1032              		.cfi_def_cfa_offset 0
 1033              		.cfi_restore 4
 1034              		.cfi_restore 14
 241:D:/fchai/work/i-cube/I-CUBE-HUAWEI/Drivers/BSP/Components/stts751\stts751.c ****   }
 1035              		.loc 1 241 12 view .LVU267
 1036 001e 0020     		movs	r0, #0
 1037              	.LVL70:
 253:D:/fchai/work/i-cube/I-CUBE-HUAWEI/Drivers/BSP/Components/stts751\stts751.c **** 
 1038              		.loc 1 253 1 view .LVU268
 1039 0020 7047     		bx	lr
ARM GAS  T:\msys\tmp\cciVJco4.s 			page 34


 1040              	.LVL71:
 1041              	.L111:
 1042              	.LCFI25:
 1043              		.cfi_def_cfa_offset 8
 1044              		.cfi_offset 4, -8
 1045              		.cfi_offset 14, -4
 1046              	.LBB21:
 1047              	.LBB19:
 247:D:/fchai/work/i-cube/I-CUBE-HUAWEI/Drivers/BSP/Components/stts751\stts751.c ****   }
 1048              		.loc 1 247 12 view .LVU269
 1049 0022 4FF0FF30 		mov	r0, #-1
 1050              	.LVL72:
 247:D:/fchai/work/i-cube/I-CUBE-HUAWEI/Drivers/BSP/Components/stts751\stts751.c ****   }
 1051              		.loc 1 247 12 view .LVU270
 1052              	.LBE19:
 1053              	.LBE21:
 253:D:/fchai/work/i-cube/I-CUBE-HUAWEI/Drivers/BSP/Components/stts751\stts751.c **** 
 1054              		.loc 1 253 1 view .LVU271
 1055 0026 10BD     		pop	{r4, pc}
 253:D:/fchai/work/i-cube/I-CUBE-HUAWEI/Drivers/BSP/Components/stts751\stts751.c **** 
 1056              		.loc 1 253 1 view .LVU272
 1057              		.cfi_endproc
 1058              	.LFE6:
 1060              		.section	.text.STTS751_RegisterBusIO,"ax",%progbits
 1061              		.align	1
 1062              		.p2align 2,,3
 1063              		.global	STTS751_RegisterBusIO
 1064              		.syntax unified
 1065              		.thumb
 1066              		.thumb_func
 1067              		.fpu fpv4-sp-d16
 1069              	STTS751_RegisterBusIO:
 1070              	.LVL73:
 1071              	.LFB0:
  81:D:/fchai/work/i-cube/I-CUBE-HUAWEI/Drivers/BSP/Components/stts751\stts751.c ****   int32_t ret;
 1072              		.loc 1 81 1 is_stmt 1 view -0
 1073              		.cfi_startproc
 1074              		@ args = 0, pretend = 0, frame = 0
 1075              		@ frame_needed = 0, uses_anonymous_args = 0
 1076              		@ link register save eliminated.
  82:D:/fchai/work/i-cube/I-CUBE-HUAWEI/Drivers/BSP/Components/stts751\stts751.c **** 
 1077              		.loc 1 82 3 view .LVU274
  84:D:/fchai/work/i-cube/I-CUBE-HUAWEI/Drivers/BSP/Components/stts751\stts751.c ****   {
 1078              		.loc 1 84 3 view .LVU275
  84:D:/fchai/work/i-cube/I-CUBE-HUAWEI/Drivers/BSP/Components/stts751\stts751.c ****   {
 1079              		.loc 1 84 6 is_stmt 0 view .LVU276
 1080 0000 D0B1     		cbz	r0, .L124
  90:D:/fchai/work/i-cube/I-CUBE-HUAWEI/Drivers/BSP/Components/stts751\stts751.c ****     pObj->IO.DeInit    = pIO->DeInit;
 1081              		.loc 1 90 5 is_stmt 1 view .LVU277
  81:D:/fchai/work/i-cube/I-CUBE-HUAWEI/Drivers/BSP/Components/stts751\stts751.c ****   int32_t ret;
 1082              		.loc 1 81 1 is_stmt 0 view .LVU278
 1083 0002 30B4     		push	{r4, r5}
 1084              	.LCFI26:
 1085              		.cfi_def_cfa_offset 8
 1086              		.cfi_offset 4, -8
 1087              		.cfi_offset 5, -4
  91:D:/fchai/work/i-cube/I-CUBE-HUAWEI/Drivers/BSP/Components/stts751\stts751.c ****     pObj->IO.BusType   = pIO->BusType;
ARM GAS  T:\msys\tmp\cciVJco4.s 			page 35


 1088              		.loc 1 91 29 view .LVU279
 1089 0004 D1E90034 		ldrd	r3, r4, [r1]
  92:D:/fchai/work/i-cube/I-CUBE-HUAWEI/Drivers/BSP/Components/stts751\stts751.c ****     pObj->IO.Address   = pIO->Address;
 1090              		.loc 1 92 29 view .LVU280
 1091 0008 8A68     		ldr	r2, [r1, #8]
  92:D:/fchai/work/i-cube/I-CUBE-HUAWEI/Drivers/BSP/Components/stts751\stts751.c ****     pObj->IO.Address   = pIO->Address;
 1092              		.loc 1 92 24 view .LVU281
 1093 000a 8260     		str	r2, [r0, #8]
  91:D:/fchai/work/i-cube/I-CUBE-HUAWEI/Drivers/BSP/Components/stts751\stts751.c ****     pObj->IO.BusType   = pIO->BusType;
 1094              		.loc 1 91 24 view .LVU282
 1095 000c C0E90034 		strd	r3, r4, [r0]
  92:D:/fchai/work/i-cube/I-CUBE-HUAWEI/Drivers/BSP/Components/stts751\stts751.c ****     pObj->IO.Address   = pIO->Address;
 1096              		.loc 1 92 5 is_stmt 1 view .LVU283
  93:D:/fchai/work/i-cube/I-CUBE-HUAWEI/Drivers/BSP/Components/stts751\stts751.c ****     pObj->IO.WriteReg  = pIO->WriteReg;
 1097              		.loc 1 93 5 view .LVU284
  93:D:/fchai/work/i-cube/I-CUBE-HUAWEI/Drivers/BSP/Components/stts751\stts751.c ****     pObj->IO.WriteReg  = pIO->WriteReg;
 1098              		.loc 1 93 29 is_stmt 0 view .LVU285
 1099 0010 0A7B     		ldrb	r2, [r1, #12]	@ zero_extendqisi2
  93:D:/fchai/work/i-cube/I-CUBE-HUAWEI/Drivers/BSP/Components/stts751\stts751.c ****     pObj->IO.WriteReg  = pIO->WriteReg;
 1100              		.loc 1 93 24 view .LVU286
 1101 0012 0273     		strb	r2, [r0, #12]
  94:D:/fchai/work/i-cube/I-CUBE-HUAWEI/Drivers/BSP/Components/stts751\stts751.c ****     pObj->IO.ReadReg   = pIO->ReadReg;
 1102              		.loc 1 94 5 is_stmt 1 view .LVU287
  95:D:/fchai/work/i-cube/I-CUBE-HUAWEI/Drivers/BSP/Components/stts751\stts751.c ****     pObj->IO.GetTick   = pIO->GetTick;
 1103              		.loc 1 95 29 is_stmt 0 view .LVU288
 1104 0014 D1E90425 		ldrd	r2, r5, [r1, #16]
  96:D:/fchai/work/i-cube/I-CUBE-HUAWEI/Drivers/BSP/Components/stts751\stts751.c **** 
 1105              		.loc 1 96 29 view .LVU289
 1106 0018 8C69     		ldr	r4, [r1, #24]
  98:D:/fchai/work/i-cube/I-CUBE-HUAWEI/Drivers/BSP/Components/stts751\stts751.c ****     pObj->Ctx.write_reg = WriteRegWrap;
 1107              		.loc 1 98 25 view .LVU290
 1108 001a 0949     		ldr	r1, .L127
 1109              	.LVL74:
  94:D:/fchai/work/i-cube/I-CUBE-HUAWEI/Drivers/BSP/Components/stts751\stts751.c ****     pObj->IO.ReadReg   = pIO->ReadReg;
 1110              		.loc 1 94 24 view .LVU291
 1111 001c 0261     		str	r2, [r0, #16]
  95:D:/fchai/work/i-cube/I-CUBE-HUAWEI/Drivers/BSP/Components/stts751\stts751.c ****     pObj->IO.GetTick   = pIO->GetTick;
 1112              		.loc 1 95 5 is_stmt 1 view .LVU292
  99:D:/fchai/work/i-cube/I-CUBE-HUAWEI/Drivers/BSP/Components/stts751\stts751.c ****     pObj->Ctx.handle   = pObj;
 1113              		.loc 1 99 25 is_stmt 0 view .LVU293
 1114 001e 094A     		ldr	r2, .L127+4
 1115 0020 C261     		str	r2, [r0, #28]
  96:D:/fchai/work/i-cube/I-CUBE-HUAWEI/Drivers/BSP/Components/stts751\stts751.c **** 
 1116              		.loc 1 96 24 view .LVU294
 1117 0022 C0E90554 		strd	r5, r4, [r0, #20]
  98:D:/fchai/work/i-cube/I-CUBE-HUAWEI/Drivers/BSP/Components/stts751\stts751.c ****     pObj->Ctx.write_reg = WriteRegWrap;
 1118              		.loc 1 98 5 is_stmt 1 view .LVU295
  98:D:/fchai/work/i-cube/I-CUBE-HUAWEI/Drivers/BSP/Components/stts751\stts751.c ****     pObj->Ctx.write_reg = WriteRegWrap;
 1119              		.loc 1 98 25 is_stmt 0 view .LVU296
 1120 0026 C0E90810 		strd	r1, r0, [r0, #32]
  99:D:/fchai/work/i-cube/I-CUBE-HUAWEI/Drivers/BSP/Components/stts751\stts751.c ****     pObj->Ctx.handle   = pObj;
 1121              		.loc 1 99 5 is_stmt 1 view .LVU297
 100:D:/fchai/work/i-cube/I-CUBE-HUAWEI/Drivers/BSP/Components/stts751\stts751.c **** 
 1122              		.loc 1 100 5 view .LVU298
 102:D:/fchai/work/i-cube/I-CUBE-HUAWEI/Drivers/BSP/Components/stts751\stts751.c ****     {
 1123              		.loc 1 102 5 view .LVU299
 102:D:/fchai/work/i-cube/I-CUBE-HUAWEI/Drivers/BSP/Components/stts751\stts751.c ****     {
ARM GAS  T:\msys\tmp\cciVJco4.s 			page 36


 1124              		.loc 1 102 8 is_stmt 0 view .LVU300
 1125 002a 0BB1     		cbz	r3, .L118
 104:D:/fchai/work/i-cube/I-CUBE-HUAWEI/Drivers/BSP/Components/stts751\stts751.c ****     }
 1126              		.loc 1 104 7 is_stmt 1 view .LVU301
 113:D:/fchai/work/i-cube/I-CUBE-HUAWEI/Drivers/BSP/Components/stts751\stts751.c **** 
 1127              		.loc 1 113 1 is_stmt 0 view .LVU302
 1128 002c 30BC     		pop	{r4, r5}
 1129              	.LCFI27:
 1130              		.cfi_remember_state
 1131              		.cfi_restore 5
 1132              		.cfi_restore 4
 1133              		.cfi_def_cfa_offset 0
 104:D:/fchai/work/i-cube/I-CUBE-HUAWEI/Drivers/BSP/Components/stts751\stts751.c ****     }
 1134              		.loc 1 104 13 view .LVU303
 1135 002e 1847     		bx	r3
 1136              	.LVL75:
 1137              	.L118:
 1138              	.LCFI28:
 1139              		.cfi_restore_state
 112:D:/fchai/work/i-cube/I-CUBE-HUAWEI/Drivers/BSP/Components/stts751\stts751.c **** }
 1140              		.loc 1 112 3 is_stmt 1 view .LVU304
 113:D:/fchai/work/i-cube/I-CUBE-HUAWEI/Drivers/BSP/Components/stts751\stts751.c **** 
 1141              		.loc 1 113 1 is_stmt 0 view .LVU305
 1142 0030 4FF0FF30 		mov	r0, #-1
 1143              	.LVL76:
 113:D:/fchai/work/i-cube/I-CUBE-HUAWEI/Drivers/BSP/Components/stts751\stts751.c **** 
 1144              		.loc 1 113 1 view .LVU306
 1145 0034 30BC     		pop	{r4, r5}
 1146              	.LCFI29:
 1147              		.cfi_restore 5
 1148              		.cfi_restore 4
 1149              		.cfi_def_cfa_offset 0
 1150 0036 7047     		bx	lr
 1151              	.LVL77:
 1152              	.L124:
 112:D:/fchai/work/i-cube/I-CUBE-HUAWEI/Drivers/BSP/Components/stts751\stts751.c **** }
 1153              		.loc 1 112 3 is_stmt 1 view .LVU307
 113:D:/fchai/work/i-cube/I-CUBE-HUAWEI/Drivers/BSP/Components/stts751\stts751.c **** 
 1154              		.loc 1 113 1 is_stmt 0 view .LVU308
 1155 0038 4FF0FF30 		mov	r0, #-1
 1156              	.LVL78:
 113:D:/fchai/work/i-cube/I-CUBE-HUAWEI/Drivers/BSP/Components/stts751\stts751.c **** 
 1157              		.loc 1 113 1 view .LVU309
 1158 003c 7047     		bx	lr
 1159              	.L128:
 1160 003e 00BF     		.align	2
 1161              	.L127:
 1162 0040 00000000 		.word	ReadRegWrap
 1163 0044 00000000 		.word	WriteRegWrap
 1164              		.cfi_endproc
 1165              	.LFE0:
 1167              		.section	.text.STTS751_Get_Init_Status,"ax",%progbits
 1168              		.align	1
 1169              		.p2align 2,,3
 1170              		.global	STTS751_Get_Init_Status
 1171              		.syntax unified
 1172              		.thumb
ARM GAS  T:\msys\tmp\cciVJco4.s 			page 37


 1173              		.thumb_func
 1174              		.fpu fpv4-sp-d16
 1176              	STTS751_Get_Init_Status:
 1177              	.LVL79:
 1178              	.LFB5:
 220:D:/fchai/work/i-cube/I-CUBE-HUAWEI/Drivers/BSP/Components/stts751\stts751.c ****   if (pObj == NULL)
 1179              		.loc 1 220 1 is_stmt 1 view -0
 1180              		.cfi_startproc
 1181              		@ args = 0, pretend = 0, frame = 0
 1182              		@ frame_needed = 0, uses_anonymous_args = 0
 1183              		@ link register save eliminated.
 221:D:/fchai/work/i-cube/I-CUBE-HUAWEI/Drivers/BSP/Components/stts751\stts751.c ****   {
 1184              		.loc 1 221 3 view .LVU311
 221:D:/fchai/work/i-cube/I-CUBE-HUAWEI/Drivers/BSP/Components/stts751\stts751.c ****   {
 1185              		.loc 1 221 6 is_stmt 0 view .LVU312
 1186 0000 20B1     		cbz	r0, .L131
 226:D:/fchai/work/i-cube/I-CUBE-HUAWEI/Drivers/BSP/Components/stts751\stts751.c **** 
 1187              		.loc 1 226 3 is_stmt 1 view .LVU313
 226:D:/fchai/work/i-cube/I-CUBE-HUAWEI/Drivers/BSP/Components/stts751\stts751.c **** 
 1188              		.loc 1 226 17 is_stmt 0 view .LVU314
 1189 0002 90F82830 		ldrb	r3, [r0, #40]	@ zero_extendqisi2
 226:D:/fchai/work/i-cube/I-CUBE-HUAWEI/Drivers/BSP/Components/stts751\stts751.c **** 
 1190              		.loc 1 226 11 view .LVU315
 1191 0006 0B70     		strb	r3, [r1]
 228:D:/fchai/work/i-cube/I-CUBE-HUAWEI/Drivers/BSP/Components/stts751\stts751.c **** }
 1192              		.loc 1 228 3 is_stmt 1 view .LVU316
 228:D:/fchai/work/i-cube/I-CUBE-HUAWEI/Drivers/BSP/Components/stts751\stts751.c **** }
 1193              		.loc 1 228 10 is_stmt 0 view .LVU317
 1194 0008 0020     		movs	r0, #0
 1195              	.LVL80:
 228:D:/fchai/work/i-cube/I-CUBE-HUAWEI/Drivers/BSP/Components/stts751\stts751.c **** }
 1196              		.loc 1 228 10 view .LVU318
 1197 000a 7047     		bx	lr
 1198              	.LVL81:
 1199              	.L131:
 223:D:/fchai/work/i-cube/I-CUBE-HUAWEI/Drivers/BSP/Components/stts751\stts751.c ****   }
 1200              		.loc 1 223 12 view .LVU319
 1201 000c 4FF0FF30 		mov	r0, #-1
 1202              	.LVL82:
 229:D:/fchai/work/i-cube/I-CUBE-HUAWEI/Drivers/BSP/Components/stts751\stts751.c **** 
 1203              		.loc 1 229 1 view .LVU320
 1204 0010 7047     		bx	lr
 1205              		.cfi_endproc
 1206              	.LFE5:
 1208 0012 00BF     		.section	.text.STTS751_TEMP_Get_DRDY_Status,"ax",%progbits
 1209              		.align	1
 1210              		.p2align 2,,3
 1211              		.global	STTS751_TEMP_Get_DRDY_Status
 1212              		.syntax unified
 1213              		.thumb
 1214              		.thumb_func
 1215              		.fpu fpv4-sp-d16
 1217              	STTS751_TEMP_Get_DRDY_Status:
 1218              	.LVL83:
 1219              	.LFB11:
 440:D:/fchai/work/i-cube/I-CUBE-HUAWEI/Drivers/BSP/Components/stts751\stts751.c ****   uint8_t val;
 1220              		.loc 1 440 1 is_stmt 1 view -0
ARM GAS  T:\msys\tmp\cciVJco4.s 			page 38


 1221              		.cfi_startproc
 1222              		@ args = 0, pretend = 0, frame = 8
 1223              		@ frame_needed = 0, uses_anonymous_args = 0
 441:D:/fchai/work/i-cube/I-CUBE-HUAWEI/Drivers/BSP/Components/stts751\stts751.c **** 
 1224              		.loc 1 441 3 view .LVU322
 443:D:/fchai/work/i-cube/I-CUBE-HUAWEI/Drivers/BSP/Components/stts751\stts751.c ****   {
 1225              		.loc 1 443 3 view .LVU323
 440:D:/fchai/work/i-cube/I-CUBE-HUAWEI/Drivers/BSP/Components/stts751\stts751.c ****   uint8_t val;
 1226              		.loc 1 440 1 is_stmt 0 view .LVU324
 1227 0000 10B5     		push	{r4, lr}
 1228              	.LCFI30:
 1229              		.cfi_def_cfa_offset 8
 1230              		.cfi_offset 4, -8
 1231              		.cfi_offset 14, -4
 1232 0002 82B0     		sub	sp, sp, #8
 1233              	.LCFI31:
 1234              		.cfi_def_cfa_offset 16
 440:D:/fchai/work/i-cube/I-CUBE-HUAWEI/Drivers/BSP/Components/stts751\stts751.c ****   uint8_t val;
 1235              		.loc 1 440 1 view .LVU325
 1236 0004 0C46     		mov	r4, r1
 443:D:/fchai/work/i-cube/I-CUBE-HUAWEI/Drivers/BSP/Components/stts751\stts751.c ****   {
 1237              		.loc 1 443 7 view .LVU326
 1238 0006 1C30     		adds	r0, r0, #28
 1239              	.LVL84:
 443:D:/fchai/work/i-cube/I-CUBE-HUAWEI/Drivers/BSP/Components/stts751\stts751.c ****   {
 1240              		.loc 1 443 7 view .LVU327
 1241 0008 0DF10701 		add	r1, sp, #7
 1242              	.LVL85:
 443:D:/fchai/work/i-cube/I-CUBE-HUAWEI/Drivers/BSP/Components/stts751\stts751.c ****   {
 1243              		.loc 1 443 7 view .LVU328
 1244 000c FFF7FEFF 		bl	stts751_flag_busy_get
 1245              	.LVL86:
 443:D:/fchai/work/i-cube/I-CUBE-HUAWEI/Drivers/BSP/Components/stts751\stts751.c ****   {
 1246              		.loc 1 443 6 view .LVU329
 1247 0010 48B9     		cbnz	r0, .L135
 448:D:/fchai/work/i-cube/I-CUBE-HUAWEI/Drivers/BSP/Components/stts751\stts751.c ****   {
 1248              		.loc 1 448 3 is_stmt 1 view .LVU330
 448:D:/fchai/work/i-cube/I-CUBE-HUAWEI/Drivers/BSP/Components/stts751\stts751.c ****   {
 1249              		.loc 1 448 5 is_stmt 0 view .LVU331
 1250 0012 9DF80730 		ldrb	r3, [sp, #7]	@ zero_extendqisi2
 1251 0016 1BB9     		cbnz	r3, .L137
 453:D:/fchai/work/i-cube/I-CUBE-HUAWEI/Drivers/BSP/Components/stts751\stts751.c ****   }
 1252              		.loc 1 453 5 is_stmt 1 view .LVU332
 453:D:/fchai/work/i-cube/I-CUBE-HUAWEI/Drivers/BSP/Components/stts751\stts751.c ****   }
 1253              		.loc 1 453 13 is_stmt 0 view .LVU333
 1254 0018 0123     		movs	r3, #1
 1255 001a 2370     		strb	r3, [r4]
 1256              	.L132:
 457:D:/fchai/work/i-cube/I-CUBE-HUAWEI/Drivers/BSP/Components/stts751\stts751.c **** 
 1257              		.loc 1 457 1 view .LVU334
 1258 001c 02B0     		add	sp, sp, #8
 1259              	.LCFI32:
 1260              		.cfi_remember_state
 1261              		.cfi_def_cfa_offset 8
 1262              		@ sp needed
 1263 001e 10BD     		pop	{r4, pc}
 1264              	.LVL87:
ARM GAS  T:\msys\tmp\cciVJco4.s 			page 39


 1265              	.L137:
 1266              	.LCFI33:
 1267              		.cfi_restore_state
 450:D:/fchai/work/i-cube/I-CUBE-HUAWEI/Drivers/BSP/Components/stts751\stts751.c ****   } else
 1268              		.loc 1 450 5 is_stmt 1 view .LVU335
 450:D:/fchai/work/i-cube/I-CUBE-HUAWEI/Drivers/BSP/Components/stts751\stts751.c ****   } else
 1269              		.loc 1 450 13 is_stmt 0 view .LVU336
 1270 0020 2070     		strb	r0, [r4]
 457:D:/fchai/work/i-cube/I-CUBE-HUAWEI/Drivers/BSP/Components/stts751\stts751.c **** 
 1271              		.loc 1 457 1 view .LVU337
 1272 0022 02B0     		add	sp, sp, #8
 1273              	.LCFI34:
 1274              		.cfi_remember_state
 1275              		.cfi_def_cfa_offset 8
 1276              		@ sp needed
 1277 0024 10BD     		pop	{r4, pc}
 1278              	.LVL88:
 1279              	.L135:
 1280              	.LCFI35:
 1281              		.cfi_restore_state
 445:D:/fchai/work/i-cube/I-CUBE-HUAWEI/Drivers/BSP/Components/stts751\stts751.c ****   }
 1282              		.loc 1 445 12 view .LVU338
 1283 0026 4FF0FF30 		mov	r0, #-1
 1284 002a F7E7     		b	.L132
 1285              		.cfi_endproc
 1286              	.LFE11:
 1288              		.section	.text.STTS751_TEMP_SetHighTemperatureThreshold,"ax",%progbits
 1289              		.align	1
 1290              		.p2align 2,,3
 1291              		.global	STTS751_TEMP_SetHighTemperatureThreshold
 1292              		.syntax unified
 1293              		.thumb
 1294              		.thumb_func
 1295              		.fpu fpv4-sp-d16
 1297              	STTS751_TEMP_SetHighTemperatureThreshold:
 1298              	.LVL89:
 1299              	.LFB12:
 466:D:/fchai/work/i-cube/I-CUBE-HUAWEI/Drivers/BSP/Components/stts751\stts751.c ****   int16_t raw_value;
 1300              		.loc 1 466 1 is_stmt 1 view -0
 1301              		.cfi_startproc
 1302              		@ args = 0, pretend = 0, frame = 0
 1303              		@ frame_needed = 0, uses_anonymous_args = 0
 467:D:/fchai/work/i-cube/I-CUBE-HUAWEI/Drivers/BSP/Components/stts751\stts751.c **** 
 1304              		.loc 1 467 3 view .LVU340
 469:D:/fchai/work/i-cube/I-CUBE-HUAWEI/Drivers/BSP/Components/stts751\stts751.c **** 
 1305              		.loc 1 469 3 view .LVU341
 466:D:/fchai/work/i-cube/I-CUBE-HUAWEI/Drivers/BSP/Components/stts751\stts751.c ****   int16_t raw_value;
 1306              		.loc 1 466 1 is_stmt 0 view .LVU342
 1307 0000 10B5     		push	{r4, lr}
 1308              	.LCFI36:
 1309              		.cfi_def_cfa_offset 8
 1310              		.cfi_offset 4, -8
 1311              		.cfi_offset 14, -4
 466:D:/fchai/work/i-cube/I-CUBE-HUAWEI/Drivers/BSP/Components/stts751\stts751.c ****   int16_t raw_value;
 1312              		.loc 1 466 1 view .LVU343
 1313 0002 0446     		mov	r4, r0
 469:D:/fchai/work/i-cube/I-CUBE-HUAWEI/Drivers/BSP/Components/stts751\stts751.c **** 
ARM GAS  T:\msys\tmp\cciVJco4.s 			page 40


 1314              		.loc 1 469 15 view .LVU344
 1315 0004 FFF7FEFF 		bl	stts751_from_celsius_to_lsb
 1316              	.LVL90:
 469:D:/fchai/work/i-cube/I-CUBE-HUAWEI/Drivers/BSP/Components/stts751\stts751.c **** 
 1317              		.loc 1 469 15 view .LVU345
 1318 0008 0146     		mov	r1, r0
 1319              	.LVL91:
 472:D:/fchai/work/i-cube/I-CUBE-HUAWEI/Drivers/BSP/Components/stts751\stts751.c ****   {
 1320              		.loc 1 472 3 is_stmt 1 view .LVU346
 472:D:/fchai/work/i-cube/I-CUBE-HUAWEI/Drivers/BSP/Components/stts751\stts751.c ****   {
 1321              		.loc 1 472 7 is_stmt 0 view .LVU347
 1322 000a 04F11C00 		add	r0, r4, #28
 1323 000e FFF7FEFF 		bl	stts751_high_temperature_threshold_set
 1324              	.LVL92:
 472:D:/fchai/work/i-cube/I-CUBE-HUAWEI/Drivers/BSP/Components/stts751\stts751.c ****   {
 1325              		.loc 1 472 6 view .LVU348
 1326 0012 0038     		subs	r0, r0, #0
 1327 0014 18BF     		it	ne
 1328 0016 0120     		movne	r0, #1
 478:D:/fchai/work/i-cube/I-CUBE-HUAWEI/Drivers/BSP/Components/stts751\stts751.c **** 
 1329              		.loc 1 478 1 view .LVU349
 1330 0018 4042     		rsbs	r0, r0, #0
 1331 001a 10BD     		pop	{r4, pc}
 478:D:/fchai/work/i-cube/I-CUBE-HUAWEI/Drivers/BSP/Components/stts751\stts751.c **** 
 1332              		.loc 1 478 1 view .LVU350
 1333              		.cfi_endproc
 1334              	.LFE12:
 1336              		.section	.text.STTS751_TEMP_SetLowTemperatureThreshold,"ax",%progbits
 1337              		.align	1
 1338              		.p2align 2,,3
 1339              		.global	STTS751_TEMP_SetLowTemperatureThreshold
 1340              		.syntax unified
 1341              		.thumb
 1342              		.thumb_func
 1343              		.fpu fpv4-sp-d16
 1345              	STTS751_TEMP_SetLowTemperatureThreshold:
 1346              	.LVL93:
 1347              	.LFB13:
 487:D:/fchai/work/i-cube/I-CUBE-HUAWEI/Drivers/BSP/Components/stts751\stts751.c ****   int16_t raw_value;
 1348              		.loc 1 487 1 is_stmt 1 view -0
 1349              		.cfi_startproc
 1350              		@ args = 0, pretend = 0, frame = 0
 1351              		@ frame_needed = 0, uses_anonymous_args = 0
 488:D:/fchai/work/i-cube/I-CUBE-HUAWEI/Drivers/BSP/Components/stts751\stts751.c **** 
 1352              		.loc 1 488 3 view .LVU352
 490:D:/fchai/work/i-cube/I-CUBE-HUAWEI/Drivers/BSP/Components/stts751\stts751.c **** 
 1353              		.loc 1 490 3 view .LVU353
 487:D:/fchai/work/i-cube/I-CUBE-HUAWEI/Drivers/BSP/Components/stts751\stts751.c ****   int16_t raw_value;
 1354              		.loc 1 487 1 is_stmt 0 view .LVU354
 1355 0000 10B5     		push	{r4, lr}
 1356              	.LCFI37:
 1357              		.cfi_def_cfa_offset 8
 1358              		.cfi_offset 4, -8
 1359              		.cfi_offset 14, -4
 487:D:/fchai/work/i-cube/I-CUBE-HUAWEI/Drivers/BSP/Components/stts751\stts751.c ****   int16_t raw_value;
 1360              		.loc 1 487 1 view .LVU355
 1361 0002 0446     		mov	r4, r0
ARM GAS  T:\msys\tmp\cciVJco4.s 			page 41


 490:D:/fchai/work/i-cube/I-CUBE-HUAWEI/Drivers/BSP/Components/stts751\stts751.c **** 
 1362              		.loc 1 490 15 view .LVU356
 1363 0004 FFF7FEFF 		bl	stts751_from_celsius_to_lsb
 1364              	.LVL94:
 490:D:/fchai/work/i-cube/I-CUBE-HUAWEI/Drivers/BSP/Components/stts751\stts751.c **** 
 1365              		.loc 1 490 15 view .LVU357
 1366 0008 0146     		mov	r1, r0
 1367              	.LVL95:
 493:D:/fchai/work/i-cube/I-CUBE-HUAWEI/Drivers/BSP/Components/stts751\stts751.c ****   {
 1368              		.loc 1 493 3 is_stmt 1 view .LVU358
 493:D:/fchai/work/i-cube/I-CUBE-HUAWEI/Drivers/BSP/Components/stts751\stts751.c ****   {
 1369              		.loc 1 493 7 is_stmt 0 view .LVU359
 1370 000a 04F11C00 		add	r0, r4, #28
 1371 000e FFF7FEFF 		bl	stts751_low_temperature_threshold_set
 1372              	.LVL96:
 493:D:/fchai/work/i-cube/I-CUBE-HUAWEI/Drivers/BSP/Components/stts751\stts751.c ****   {
 1373              		.loc 1 493 6 view .LVU360
 1374 0012 0038     		subs	r0, r0, #0
 1375 0014 18BF     		it	ne
 1376 0016 0120     		movne	r0, #1
 499:D:/fchai/work/i-cube/I-CUBE-HUAWEI/Drivers/BSP/Components/stts751\stts751.c **** 
 1377              		.loc 1 499 1 view .LVU361
 1378 0018 4042     		rsbs	r0, r0, #0
 1379 001a 10BD     		pop	{r4, pc}
 499:D:/fchai/work/i-cube/I-CUBE-HUAWEI/Drivers/BSP/Components/stts751\stts751.c **** 
 1380              		.loc 1 499 1 view .LVU362
 1381              		.cfi_endproc
 1382              	.LFE13:
 1384              		.section	.text.STTS751_TEMP_GetTemperatureLimitStatus,"ax",%progbits
 1385              		.align	1
 1386              		.p2align 2,,3
 1387              		.global	STTS751_TEMP_GetTemperatureLimitStatus
 1388              		.syntax unified
 1389              		.thumb
 1390              		.thumb_func
 1391              		.fpu fpv4-sp-d16
 1393              	STTS751_TEMP_GetTemperatureLimitStatus:
 1394              	.LVL97:
 1395              	.LFB14:
 510:D:/fchai/work/i-cube/I-CUBE-HUAWEI/Drivers/BSP/Components/stts751\stts751.c ****   stts751_status_t status;
 1396              		.loc 1 510 1 is_stmt 1 view -0
 1397              		.cfi_startproc
 1398              		@ args = 0, pretend = 0, frame = 8
 1399              		@ frame_needed = 0, uses_anonymous_args = 0
 511:D:/fchai/work/i-cube/I-CUBE-HUAWEI/Drivers/BSP/Components/stts751\stts751.c **** 
 1400              		.loc 1 511 3 view .LVU364
 514:D:/fchai/work/i-cube/I-CUBE-HUAWEI/Drivers/BSP/Components/stts751\stts751.c ****   {
 1401              		.loc 1 514 3 view .LVU365
 510:D:/fchai/work/i-cube/I-CUBE-HUAWEI/Drivers/BSP/Components/stts751\stts751.c ****   stts751_status_t status;
 1402              		.loc 1 510 1 is_stmt 0 view .LVU366
 1403 0000 F0B5     		push	{r4, r5, r6, r7, lr}
 1404              	.LCFI38:
 1405              		.cfi_def_cfa_offset 20
 1406              		.cfi_offset 4, -20
 1407              		.cfi_offset 5, -16
 1408              		.cfi_offset 6, -12
 1409              		.cfi_offset 7, -8
ARM GAS  T:\msys\tmp\cciVJco4.s 			page 42


 1410              		.cfi_offset 14, -4
 1411 0002 83B0     		sub	sp, sp, #12
 1412              	.LCFI39:
 1413              		.cfi_def_cfa_offset 32
 510:D:/fchai/work/i-cube/I-CUBE-HUAWEI/Drivers/BSP/Components/stts751\stts751.c ****   stts751_status_t status;
 1414              		.loc 1 510 1 view .LVU367
 1415 0004 0E46     		mov	r6, r1
 514:D:/fchai/work/i-cube/I-CUBE-HUAWEI/Drivers/BSP/Components/stts751\stts751.c ****   {
 1416              		.loc 1 514 7 view .LVU368
 1417 0006 1C30     		adds	r0, r0, #28
 1418              	.LVL98:
 514:D:/fchai/work/i-cube/I-CUBE-HUAWEI/Drivers/BSP/Components/stts751\stts751.c ****   {
 1419              		.loc 1 514 7 view .LVU369
 1420 0008 01A9     		add	r1, sp, #4
 1421              	.LVL99:
 510:D:/fchai/work/i-cube/I-CUBE-HUAWEI/Drivers/BSP/Components/stts751\stts751.c ****   stts751_status_t status;
 1422              		.loc 1 510 1 view .LVU370
 1423 000a 1746     		mov	r7, r2
 1424 000c 1D46     		mov	r5, r3
 514:D:/fchai/work/i-cube/I-CUBE-HUAWEI/Drivers/BSP/Components/stts751\stts751.c ****   {
 1425              		.loc 1 514 7 view .LVU371
 1426 000e FFF7FEFF 		bl	stts751_status_reg_get
 1427              	.LVL100:
 514:D:/fchai/work/i-cube/I-CUBE-HUAWEI/Drivers/BSP/Components/stts751\stts751.c ****   {
 1428              		.loc 1 514 6 view .LVU372
 1429 0012 60B9     		cbnz	r0, .L144
 519:D:/fchai/work/i-cube/I-CUBE-HUAWEI/Drivers/BSP/Components/stts751\stts751.c ****   *LowLimit = status.t_low;
 1430              		.loc 1 519 3 is_stmt 1 view .LVU373
 519:D:/fchai/work/i-cube/I-CUBE-HUAWEI/Drivers/BSP/Components/stts751\stts751.c ****   *LowLimit = status.t_low;
 1431              		.loc 1 519 22 is_stmt 0 view .LVU374
 1432 0014 9DF80440 		ldrb	r4, [sp, #4]	@ zero_extendqisi2
 1433 0018 C4F38012 		ubfx	r2, r4, #6, #1
 520:D:/fchai/work/i-cube/I-CUBE-HUAWEI/Drivers/BSP/Components/stts751\stts751.c ****   *ThermLimit = status.thrm;
 1434              		.loc 1 520 21 view .LVU375
 1435 001c C4F34013 		ubfx	r3, r4, #5, #1
 521:D:/fchai/work/i-cube/I-CUBE-HUAWEI/Drivers/BSP/Components/stts751\stts751.c **** 
 1436              		.loc 1 521 23 view .LVU376
 1437 0020 C4F30004 		ubfx	r4, r4, #0, #1
 519:D:/fchai/work/i-cube/I-CUBE-HUAWEI/Drivers/BSP/Components/stts751\stts751.c ****   *LowLimit = status.t_low;
 1438              		.loc 1 519 14 view .LVU377
 1439 0024 3270     		strb	r2, [r6]
 520:D:/fchai/work/i-cube/I-CUBE-HUAWEI/Drivers/BSP/Components/stts751\stts751.c ****   *ThermLimit = status.thrm;
 1440              		.loc 1 520 3 is_stmt 1 view .LVU378
 520:D:/fchai/work/i-cube/I-CUBE-HUAWEI/Drivers/BSP/Components/stts751\stts751.c ****   *ThermLimit = status.thrm;
 1441              		.loc 1 520 13 is_stmt 0 view .LVU379
 1442 0026 3B70     		strb	r3, [r7]
 521:D:/fchai/work/i-cube/I-CUBE-HUAWEI/Drivers/BSP/Components/stts751\stts751.c **** 
 1443              		.loc 1 521 3 is_stmt 1 view .LVU380
 521:D:/fchai/work/i-cube/I-CUBE-HUAWEI/Drivers/BSP/Components/stts751\stts751.c **** 
 1444              		.loc 1 521 15 is_stmt 0 view .LVU381
 1445 0028 2C70     		strb	r4, [r5]
 523:D:/fchai/work/i-cube/I-CUBE-HUAWEI/Drivers/BSP/Components/stts751\stts751.c **** }
 1446              		.loc 1 523 3 is_stmt 1 view .LVU382
 1447              	.L142:
 524:D:/fchai/work/i-cube/I-CUBE-HUAWEI/Drivers/BSP/Components/stts751\stts751.c **** 
 1448              		.loc 1 524 1 is_stmt 0 view .LVU383
 1449 002a 03B0     		add	sp, sp, #12
ARM GAS  T:\msys\tmp\cciVJco4.s 			page 43


 1450              	.LCFI40:
 1451              		.cfi_remember_state
 1452              		.cfi_def_cfa_offset 20
 1453              		@ sp needed
 1454 002c F0BD     		pop	{r4, r5, r6, r7, pc}
 1455              	.LVL101:
 1456              	.L144:
 1457              	.LCFI41:
 1458              		.cfi_restore_state
 516:D:/fchai/work/i-cube/I-CUBE-HUAWEI/Drivers/BSP/Components/stts751\stts751.c ****   }
 1459              		.loc 1 516 12 view .LVU384
 1460 002e 4FF0FF30 		mov	r0, #-1
 1461 0032 FAE7     		b	.L142
 1462              		.cfi_endproc
 1463              	.LFE14:
 1465              		.section	.text.STTS751_TEMP_SetEventPin,"ax",%progbits
 1466              		.align	1
 1467              		.p2align 2,,3
 1468              		.global	STTS751_TEMP_SetEventPin
 1469              		.syntax unified
 1470              		.thumb
 1471              		.thumb_func
 1472              		.fpu fpv4-sp-d16
 1474              	STTS751_TEMP_SetEventPin:
 1475              	.LVL102:
 1476              	.LFB15:
 533:D:/fchai/work/i-cube/I-CUBE-HUAWEI/Drivers/BSP/Components/stts751\stts751.c ****   uint8_t state;
 1477              		.loc 1 533 1 is_stmt 1 view -0
 1478              		.cfi_startproc
 1479              		@ args = 0, pretend = 0, frame = 0
 1480              		@ frame_needed = 0, uses_anonymous_args = 0
 534:D:/fchai/work/i-cube/I-CUBE-HUAWEI/Drivers/BSP/Components/stts751\stts751.c **** 
 1481              		.loc 1 534 3 view .LVU386
 537:D:/fchai/work/i-cube/I-CUBE-HUAWEI/Drivers/BSP/Components/stts751\stts751.c **** 
 1482              		.loc 1 537 3 view .LVU387
 539:D:/fchai/work/i-cube/I-CUBE-HUAWEI/Drivers/BSP/Components/stts751\stts751.c ****   {
 1483              		.loc 1 539 3 view .LVU388
 539:D:/fchai/work/i-cube/I-CUBE-HUAWEI/Drivers/BSP/Components/stts751\stts751.c ****   {
 1484              		.loc 1 539 7 is_stmt 0 view .LVU389
 1485 0000 B1FA81F1 		clz	r1, r1
 1486              	.LVL103:
 533:D:/fchai/work/i-cube/I-CUBE-HUAWEI/Drivers/BSP/Components/stts751\stts751.c ****   uint8_t state;
 1487              		.loc 1 533 1 view .LVU390
 1488 0004 08B5     		push	{r3, lr}
 1489              	.LCFI42:
 1490              		.cfi_def_cfa_offset 8
 1491              		.cfi_offset 3, -8
 1492              		.cfi_offset 14, -4
 539:D:/fchai/work/i-cube/I-CUBE-HUAWEI/Drivers/BSP/Components/stts751\stts751.c ****   {
 1493              		.loc 1 539 7 view .LVU391
 1494 0006 4909     		lsrs	r1, r1, #5
 1495 0008 1C30     		adds	r0, r0, #28
 1496              	.LVL104:
 539:D:/fchai/work/i-cube/I-CUBE-HUAWEI/Drivers/BSP/Components/stts751\stts751.c ****   {
 1497              		.loc 1 539 7 view .LVU392
 1498 000a FFF7FEFF 		bl	stts751_pin_event_route_set
 1499              	.LVL105:
ARM GAS  T:\msys\tmp\cciVJco4.s 			page 44


 539:D:/fchai/work/i-cube/I-CUBE-HUAWEI/Drivers/BSP/Components/stts751\stts751.c ****   {
 1500              		.loc 1 539 6 view .LVU393
 1501 000e 0038     		subs	r0, r0, #0
 1502 0010 18BF     		it	ne
 1503 0012 0120     		movne	r0, #1
 545:D:/fchai/work/i-cube/I-CUBE-HUAWEI/Drivers/BSP/Components/stts751\stts751.c **** 
 1504              		.loc 1 545 1 view .LVU394
 1505 0014 4042     		rsbs	r0, r0, #0
 1506 0016 08BD     		pop	{r3, pc}
 1507              		.cfi_endproc
 1508              	.LFE15:
 1510              		.section	.text.STTS751_Read_Reg,"ax",%progbits
 1511              		.align	1
 1512              		.p2align 2,,3
 1513              		.global	STTS751_Read_Reg
 1514              		.syntax unified
 1515              		.thumb
 1516              		.thumb_func
 1517              		.fpu fpv4-sp-d16
 1519              	STTS751_Read_Reg:
 1520              	.LVL106:
 1521              	.LFB16:
 555:D:/fchai/work/i-cube/I-CUBE-HUAWEI/Drivers/BSP/Components/stts751\stts751.c ****   if (stts751_read_reg(&(pObj->Ctx), Reg, Data, 1) != STTS751_OK)
 1522              		.loc 1 555 1 is_stmt 1 view -0
 1523              		.cfi_startproc
 1524              		@ args = 0, pretend = 0, frame = 0
 1525              		@ frame_needed = 0, uses_anonymous_args = 0
 556:D:/fchai/work/i-cube/I-CUBE-HUAWEI/Drivers/BSP/Components/stts751\stts751.c ****   {
 1526              		.loc 1 556 3 view .LVU396
 555:D:/fchai/work/i-cube/I-CUBE-HUAWEI/Drivers/BSP/Components/stts751\stts751.c ****   if (stts751_read_reg(&(pObj->Ctx), Reg, Data, 1) != STTS751_OK)
 1527              		.loc 1 555 1 is_stmt 0 view .LVU397
 1528 0000 08B5     		push	{r3, lr}
 1529              	.LCFI43:
 1530              		.cfi_def_cfa_offset 8
 1531              		.cfi_offset 3, -8
 1532              		.cfi_offset 14, -4
 556:D:/fchai/work/i-cube/I-CUBE-HUAWEI/Drivers/BSP/Components/stts751\stts751.c ****   {
 1533              		.loc 1 556 7 view .LVU398
 1534 0002 1C30     		adds	r0, r0, #28
 1535              	.LVL107:
 556:D:/fchai/work/i-cube/I-CUBE-HUAWEI/Drivers/BSP/Components/stts751\stts751.c ****   {
 1536              		.loc 1 556 7 view .LVU399
 1537 0004 0123     		movs	r3, #1
 1538 0006 FFF7FEFF 		bl	stts751_read_reg
 1539              	.LVL108:
 556:D:/fchai/work/i-cube/I-CUBE-HUAWEI/Drivers/BSP/Components/stts751\stts751.c ****   {
 1540              		.loc 1 556 6 view .LVU400
 1541 000a 0038     		subs	r0, r0, #0
 1542 000c 18BF     		it	ne
 1543 000e 0120     		movne	r0, #1
 562:D:/fchai/work/i-cube/I-CUBE-HUAWEI/Drivers/BSP/Components/stts751\stts751.c **** 
 1544              		.loc 1 562 1 view .LVU401
 1545 0010 4042     		rsbs	r0, r0, #0
 1546 0012 08BD     		pop	{r3, pc}
 1547              		.cfi_endproc
 1548              	.LFE16:
 1550              		.section	.text.STTS751_Write_Reg,"ax",%progbits
ARM GAS  T:\msys\tmp\cciVJco4.s 			page 45


 1551              		.align	1
 1552              		.p2align 2,,3
 1553              		.global	STTS751_Write_Reg
 1554              		.syntax unified
 1555              		.thumb
 1556              		.thumb_func
 1557              		.fpu fpv4-sp-d16
 1559              	STTS751_Write_Reg:
 1560              	.LVL109:
 1561              	.LFB17:
 572:D:/fchai/work/i-cube/I-CUBE-HUAWEI/Drivers/BSP/Components/stts751\stts751.c ****   if (stts751_write_reg(&(pObj->Ctx), Reg, &Data, 1) != STTS751_OK)
 1562              		.loc 1 572 1 is_stmt 1 view -0
 1563              		.cfi_startproc
 1564              		@ args = 0, pretend = 0, frame = 8
 1565              		@ frame_needed = 0, uses_anonymous_args = 0
 573:D:/fchai/work/i-cube/I-CUBE-HUAWEI/Drivers/BSP/Components/stts751\stts751.c ****   {
 1566              		.loc 1 573 3 view .LVU403
 572:D:/fchai/work/i-cube/I-CUBE-HUAWEI/Drivers/BSP/Components/stts751\stts751.c ****   if (stts751_write_reg(&(pObj->Ctx), Reg, &Data, 1) != STTS751_OK)
 1567              		.loc 1 572 1 is_stmt 0 view .LVU404
 1568 0000 10B5     		push	{r4, lr}
 1569              	.LCFI44:
 1570              		.cfi_def_cfa_offset 8
 1571              		.cfi_offset 4, -8
 1572              		.cfi_offset 14, -4
 1573 0002 82B0     		sub	sp, sp, #8
 1574              	.LCFI45:
 1575              		.cfi_def_cfa_offset 16
 572:D:/fchai/work/i-cube/I-CUBE-HUAWEI/Drivers/BSP/Components/stts751\stts751.c ****   if (stts751_write_reg(&(pObj->Ctx), Reg, &Data, 1) != STTS751_OK)
 1576              		.loc 1 572 1 view .LVU405
 1577 0004 1446     		mov	r4, r2
 573:D:/fchai/work/i-cube/I-CUBE-HUAWEI/Drivers/BSP/Components/stts751\stts751.c ****   {
 1578              		.loc 1 573 7 view .LVU406
 1579 0006 0123     		movs	r3, #1
 1580 0008 0DF10702 		add	r2, sp, #7
 1581              	.LVL110:
 573:D:/fchai/work/i-cube/I-CUBE-HUAWEI/Drivers/BSP/Components/stts751\stts751.c ****   {
 1582              		.loc 1 573 7 view .LVU407
 1583 000c 1C30     		adds	r0, r0, #28
 1584              	.LVL111:
 572:D:/fchai/work/i-cube/I-CUBE-HUAWEI/Drivers/BSP/Components/stts751\stts751.c ****   if (stts751_write_reg(&(pObj->Ctx), Reg, &Data, 1) != STTS751_OK)
 1585              		.loc 1 572 1 view .LVU408
 1586 000e 8DF80740 		strb	r4, [sp, #7]
 573:D:/fchai/work/i-cube/I-CUBE-HUAWEI/Drivers/BSP/Components/stts751\stts751.c ****   {
 1587              		.loc 1 573 7 view .LVU409
 1588 0012 FFF7FEFF 		bl	stts751_write_reg
 1589              	.LVL112:
 573:D:/fchai/work/i-cube/I-CUBE-HUAWEI/Drivers/BSP/Components/stts751\stts751.c ****   {
 1590              		.loc 1 573 6 view .LVU410
 1591 0016 0038     		subs	r0, r0, #0
 1592 0018 18BF     		it	ne
 1593 001a 0120     		movne	r0, #1
 579:D:/fchai/work/i-cube/I-CUBE-HUAWEI/Drivers/BSP/Components/stts751\stts751.c **** 
 1594              		.loc 1 579 1 view .LVU411
 1595 001c 4042     		rsbs	r0, r0, #0
 1596 001e 02B0     		add	sp, sp, #8
 1597              	.LCFI46:
 1598              		.cfi_def_cfa_offset 8
ARM GAS  T:\msys\tmp\cciVJco4.s 			page 46


 1599              		@ sp needed
 1600 0020 10BD     		pop	{r4, pc}
 1601              		.cfi_endproc
 1602              	.LFE17:
 1604 0022 00BF     		.section	.text.STTS751_Set_One_Shot,"ax",%progbits
 1605              		.align	1
 1606              		.p2align 2,,3
 1607              		.global	STTS751_Set_One_Shot
 1608              		.syntax unified
 1609              		.thumb
 1610              		.thumb_func
 1611              		.fpu fpv4-sp-d16
 1613              	STTS751_Set_One_Shot:
 1614              	.LVL113:
 1615              	.LFB18:
 587:D:/fchai/work/i-cube/I-CUBE-HUAWEI/Drivers/BSP/Components/stts751\stts751.c ****   /* Start One Shot Measurement */
 1616              		.loc 1 587 1 is_stmt 1 view -0
 1617              		.cfi_startproc
 1618              		@ args = 0, pretend = 0, frame = 0
 1619              		@ frame_needed = 0, uses_anonymous_args = 0
 589:D:/fchai/work/i-cube/I-CUBE-HUAWEI/Drivers/BSP/Components/stts751\stts751.c ****   {
 1620              		.loc 1 589 3 view .LVU413
 587:D:/fchai/work/i-cube/I-CUBE-HUAWEI/Drivers/BSP/Components/stts751\stts751.c ****   /* Start One Shot Measurement */
 1621              		.loc 1 587 1 is_stmt 0 view .LVU414
 1622 0000 08B5     		push	{r3, lr}
 1623              	.LCFI47:
 1624              		.cfi_def_cfa_offset 8
 1625              		.cfi_offset 3, -8
 1626              		.cfi_offset 14, -4
 589:D:/fchai/work/i-cube/I-CUBE-HUAWEI/Drivers/BSP/Components/stts751\stts751.c ****   {
 1627              		.loc 1 589 6 view .LVU415
 1628 0002 9021     		movs	r1, #144
 1629 0004 1C30     		adds	r0, r0, #28
 1630              	.LVL114:
 589:D:/fchai/work/i-cube/I-CUBE-HUAWEI/Drivers/BSP/Components/stts751\stts751.c ****   {
 1631              		.loc 1 589 6 view .LVU416
 1632 0006 FFF7FEFF 		bl	stts751_temp_data_rate_set
 1633              	.LVL115:
 589:D:/fchai/work/i-cube/I-CUBE-HUAWEI/Drivers/BSP/Components/stts751\stts751.c ****   {
 1634              		.loc 1 589 5 view .LVU417
 1635 000a 0038     		subs	r0, r0, #0
 1636 000c 18BF     		it	ne
 1637 000e 0120     		movne	r0, #1
 595:D:/fchai/work/i-cube/I-CUBE-HUAWEI/Drivers/BSP/Components/stts751\stts751.c **** 
 1638              		.loc 1 595 1 view .LVU418
 1639 0010 4042     		rsbs	r0, r0, #0
 1640 0012 08BD     		pop	{r3, pc}
 1641              		.cfi_endproc
 1642              	.LFE18:
 1644              		.section	.text.STTS751_Get_One_Shot_Status,"ax",%progbits
 1645              		.align	1
 1646              		.p2align 2,,3
 1647              		.global	STTS751_Get_One_Shot_Status
 1648              		.syntax unified
 1649              		.thumb
 1650              		.thumb_func
 1651              		.fpu fpv4-sp-d16
ARM GAS  T:\msys\tmp\cciVJco4.s 			page 47


 1653              	STTS751_Get_One_Shot_Status:
 1654              	.LFB27:
 1655              		.cfi_startproc
 1656              		@ args = 0, pretend = 0, frame = 0
 1657              		@ frame_needed = 0, uses_anonymous_args = 0
 1658              		@ link register save eliminated.
 1659 0000 FFF7FEBF 		b	STTS751_TEMP_Get_DRDY_Status
 1660              		.cfi_endproc
 1661              	.LFE27:
 1663              		.global	STTS751_TEMP_Driver
 1664              		.global	STTS751_COMMON_Driver
 1665              		.section	.data.STTS751_COMMON_Driver,"aw"
 1666              		.align	2
 1669              	STTS751_COMMON_Driver:
 1670 0000 00000000 		.word	STTS751_Init
 1671 0004 00000000 		.word	STTS751_DeInit
 1672 0008 00000000 		.word	STTS751_ReadID
 1673 000c 00000000 		.word	STTS751_GetCapabilities
 1674              		.section	.data.STTS751_TEMP_Driver,"aw"
 1675              		.align	2
 1678              	STTS751_TEMP_Driver:
 1679 0000 00000000 		.word	STTS751_TEMP_Enable
 1680 0004 00000000 		.word	STTS751_TEMP_Disable
 1681 0008 00000000 		.word	STTS751_TEMP_GetOutputDataRate
 1682 000c 00000000 		.word	STTS751_TEMP_SetOutputDataRate
 1683 0010 00000000 		.word	STTS751_TEMP_GetTemperature
 1684              		.text
 1685              	.Letext0:
 1686              		.file 2 "t:\\msys\\3rd\\gcc-arm-none-eabi-9-2020-q2-update-win32\\arm-none-eabi\\include\\machine\
 1687              		.file 3 "t:\\msys\\3rd\\gcc-arm-none-eabi-9-2020-q2-update-win32\\arm-none-eabi\\include\\sys\\_st
 1688              		.file 4 "t:\\msys\\3rd\\gcc-arm-none-eabi-9-2020-q2-update-win32\\lib\\gcc\\arm-none-eabi\\9.3.1\\
 1689              		.file 5 "t:\\msys\\3rd\\gcc-arm-none-eabi-9-2020-q2-update-win32\\arm-none-eabi\\include\\sys\\_ty
 1690              		.file 6 "t:\\msys\\3rd\\gcc-arm-none-eabi-9-2020-q2-update-win32\\arm-none-eabi\\include\\sys\\ree
 1691              		.file 7 "t:\\msys\\3rd\\gcc-arm-none-eabi-9-2020-q2-update-win32\\arm-none-eabi\\include\\sys\\loc
 1692              		.file 8 "t:\\msys\\3rd\\gcc-arm-none-eabi-9-2020-q2-update-win32\\arm-none-eabi\\include\\math.h"
 1693              		.file 9 "D:/fchai/work/i-cube/I-CUBE-HUAWEI/Drivers/BSP/Components/stts751/stts751_reg.h"
 1694              		.file 10 "D:/fchai/work/i-cube/I-CUBE-HUAWEI/Drivers/BSP/Components/stts751/stts751.h"
ARM GAS  T:\msys\tmp\cciVJco4.s 			page 48

