ARM GAS  T:\msys\tmp\cc7ptNpf.s 			page 1


   1              		.cpu cortex-m4
   2              		.eabi_attribute 27, 1
   3              		.eabi_attribute 28, 1
   4              		.eabi_attribute 20, 1
   5              		.eabi_attribute 21, 1
   6              		.eabi_attribute 23, 3
   7              		.eabi_attribute 24, 1
   8              		.eabi_attribute 25, 1
   9              		.eabi_attribute 26, 1
  10              		.eabi_attribute 30, 2
  11              		.eabi_attribute 34, 1
  12              		.eabi_attribute 18, 4
  13              		.file	"ota_https.c"
  14              		.text
  15              	.Ltext0:
  16              		.cfi_sections	.debug_frame
  17              		.section	.text.loop_netread.constprop.0,"ax",%progbits
  18              		.align	1
  19              		.p2align 2,,3
  20              		.arch armv7e-m
  21              		.syntax unified
  22              		.thumb
  23              		.thumb_func
  24              		.fpu fpv4-sp-d16
  26              	loop_netread.constprop.0:
  27              	.LVL0:
  28              	.LFB14:
  29              		.file 1 "D:/fchai/work/i-cube/I-CUBE-HUAWEI/Middlewares/Third_Party/Huawei/iot_link/link_ota/downl
   1:D:/fchai/work/i-cube/I-CUBE-HUAWEI/Middlewares/Third_Party/Huawei/iot_link/link_ota/download/https\ota_https.c **** /*----------------------------------------------------------------------------
   2:D:/fchai/work/i-cube/I-CUBE-HUAWEI/Middlewares/Third_Party/Huawei/iot_link/link_ota/download/https\ota_https.c ****  * Copyright (c) <2018>, <Huawei Technologies Co., Ltd>
   3:D:/fchai/work/i-cube/I-CUBE-HUAWEI/Middlewares/Third_Party/Huawei/iot_link/link_ota/download/https\ota_https.c ****  * All rights reserved.
   4:D:/fchai/work/i-cube/I-CUBE-HUAWEI/Middlewares/Third_Party/Huawei/iot_link/link_ota/download/https\ota_https.c ****  * Redistribution and use in source and binary forms, with or without modification,
   5:D:/fchai/work/i-cube/I-CUBE-HUAWEI/Middlewares/Third_Party/Huawei/iot_link/link_ota/download/https\ota_https.c ****  * are permitted provided that the following conditions are met:
   6:D:/fchai/work/i-cube/I-CUBE-HUAWEI/Middlewares/Third_Party/Huawei/iot_link/link_ota/download/https\ota_https.c ****  * 1. Redistributions of source code must retain the above copyright notice, this list of
   7:D:/fchai/work/i-cube/I-CUBE-HUAWEI/Middlewares/Third_Party/Huawei/iot_link/link_ota/download/https\ota_https.c ****  * conditions and the following disclaimer.
   8:D:/fchai/work/i-cube/I-CUBE-HUAWEI/Middlewares/Third_Party/Huawei/iot_link/link_ota/download/https\ota_https.c ****  * 2. Redistributions in binary form must reproduce the above copyright notice, this list
   9:D:/fchai/work/i-cube/I-CUBE-HUAWEI/Middlewares/Third_Party/Huawei/iot_link/link_ota/download/https\ota_https.c ****  * of conditions and the following disclaimer in the documentation and/or other materials
  10:D:/fchai/work/i-cube/I-CUBE-HUAWEI/Middlewares/Third_Party/Huawei/iot_link/link_ota/download/https\ota_https.c ****  * provided with the distribution.
  11:D:/fchai/work/i-cube/I-CUBE-HUAWEI/Middlewares/Third_Party/Huawei/iot_link/link_ota/download/https\ota_https.c ****  * 3. Neither the name of the copyright holder nor the names of its contributors may be used
  12:D:/fchai/work/i-cube/I-CUBE-HUAWEI/Middlewares/Third_Party/Huawei/iot_link/link_ota/download/https\ota_https.c ****  * to endorse or promote products derived from this software without specific prior written
  13:D:/fchai/work/i-cube/I-CUBE-HUAWEI/Middlewares/Third_Party/Huawei/iot_link/link_ota/download/https\ota_https.c ****  * permission.
  14:D:/fchai/work/i-cube/I-CUBE-HUAWEI/Middlewares/Third_Party/Huawei/iot_link/link_ota/download/https\ota_https.c ****  * THIS SOFTWARE IS PROVIDED BY THE COPYRIGHT HOLDERS AND CONTRIBUTORS
  15:D:/fchai/work/i-cube/I-CUBE-HUAWEI/Middlewares/Third_Party/Huawei/iot_link/link_ota/download/https\ota_https.c ****  * "AS IS" AND ANY EXPRESS OR IMPLIED WARRANTIES, INCLUDING, BUT NOT LIMITED TO,
  16:D:/fchai/work/i-cube/I-CUBE-HUAWEI/Middlewares/Third_Party/Huawei/iot_link/link_ota/download/https\ota_https.c ****  * THE IMPLIED WARRANTIES OF MERCHANTABILITY AND FITNESS FOR A PARTICULAR
  17:D:/fchai/work/i-cube/I-CUBE-HUAWEI/Middlewares/Third_Party/Huawei/iot_link/link_ota/download/https\ota_https.c ****  * PURPOSE ARE DISCLAIMED. IN NO EVENT SHALL THE COPYRIGHT HOLDER OR
  18:D:/fchai/work/i-cube/I-CUBE-HUAWEI/Middlewares/Third_Party/Huawei/iot_link/link_ota/download/https\ota_https.c ****  * CONTRIBUTORS BE LIABLE FOR ANY DIRECT, INDIRECT, INCIDENTAL, SPECIAL,
  19:D:/fchai/work/i-cube/I-CUBE-HUAWEI/Middlewares/Third_Party/Huawei/iot_link/link_ota/download/https\ota_https.c ****  * EXEMPLARY, OR CONSEQUENTIAL DAMAGES (INCLUDING, BUT NOT LIMITED TO,
  20:D:/fchai/work/i-cube/I-CUBE-HUAWEI/Middlewares/Third_Party/Huawei/iot_link/link_ota/download/https\ota_https.c ****  * PROCUREMENT OF SUBSTITUTE GOODS OR SERVICES; LOSS OF USE, DATA, OR PROFITS;
  21:D:/fchai/work/i-cube/I-CUBE-HUAWEI/Middlewares/Third_Party/Huawei/iot_link/link_ota/download/https\ota_https.c ****  * OR BUSINESS INTERRUPTION) HOWEVER CAUSED AND ON ANY THEORY OF LIABILITY,
  22:D:/fchai/work/i-cube/I-CUBE-HUAWEI/Middlewares/Third_Party/Huawei/iot_link/link_ota/download/https\ota_https.c ****  * WHETHER IN CONTRACT, STRICT LIABILITY, OR TORT (INCLUDING NEGLIGENCE OR
  23:D:/fchai/work/i-cube/I-CUBE-HUAWEI/Middlewares/Third_Party/Huawei/iot_link/link_ota/download/https\ota_https.c ****  * OTHERWISE) ARISING IN ANY WAY OUT OF THE USE OF THIS SOFTWARE, EVEN IF
  24:D:/fchai/work/i-cube/I-CUBE-HUAWEI/Middlewares/Third_Party/Huawei/iot_link/link_ota/download/https\ota_https.c ****  * ADVISED OF THE POSSIBILITY OF SUCH DAMAGE.
  25:D:/fchai/work/i-cube/I-CUBE-HUAWEI/Middlewares/Third_Party/Huawei/iot_link/link_ota/download/https\ota_https.c ****  *---------------------------------------------------------------------------*/
  26:D:/fchai/work/i-cube/I-CUBE-HUAWEI/Middlewares/Third_Party/Huawei/iot_link/link_ota/download/https\ota_https.c **** /*----------------------------------------------------------------------------
  27:D:/fchai/work/i-cube/I-CUBE-HUAWEI/Middlewares/Third_Party/Huawei/iot_link/link_ota/download/https\ota_https.c ****  * Notice of Export Control Law
  28:D:/fchai/work/i-cube/I-CUBE-HUAWEI/Middlewares/Third_Party/Huawei/iot_link/link_ota/download/https\ota_https.c ****  * ===============================================
  29:D:/fchai/work/i-cube/I-CUBE-HUAWEI/Middlewares/Third_Party/Huawei/iot_link/link_ota/download/https\ota_https.c ****  * Huawei LiteOS may be subject to applicable export control laws and regulations, which might
ARM GAS  T:\msys\tmp\cc7ptNpf.s 			page 2


  30:D:/fchai/work/i-cube/I-CUBE-HUAWEI/Middlewares/Third_Party/Huawei/iot_link/link_ota/download/https\ota_https.c ****  * include those applicable to Huawei LiteOS of U.S. and the country in which you are located.
  31:D:/fchai/work/i-cube/I-CUBE-HUAWEI/Middlewares/Third_Party/Huawei/iot_link/link_ota/download/https\ota_https.c ****  * Import, export and usage of Huawei LiteOS in any manner by you shall be in compliance with such
  32:D:/fchai/work/i-cube/I-CUBE-HUAWEI/Middlewares/Third_Party/Huawei/iot_link/link_ota/download/https\ota_https.c ****  * applicable export control laws and regulations.
  33:D:/fchai/work/i-cube/I-CUBE-HUAWEI/Middlewares/Third_Party/Huawei/iot_link/link_ota/download/https\ota_https.c ****  *---------------------------------------------------------------------------*/
  34:D:/fchai/work/i-cube/I-CUBE-HUAWEI/Middlewares/Third_Party/Huawei/iot_link/link_ota/download/https\ota_https.c **** /**
  35:D:/fchai/work/i-cube/I-CUBE-HUAWEI/Middlewares/Third_Party/Huawei/iot_link/link_ota/download/https\ota_https.c ****  *  DATE                AUTHOR      INSTRUCTION
  36:D:/fchai/work/i-cube/I-CUBE-HUAWEI/Middlewares/Third_Party/Huawei/iot_link/link_ota/download/https\ota_https.c ****  *  2020-05-07 09:21  zhangqianfu  The first version
  37:D:/fchai/work/i-cube/I-CUBE-HUAWEI/Middlewares/Third_Party/Huawei/iot_link/link_ota/download/https\ota_https.c ****  *
  38:D:/fchai/work/i-cube/I-CUBE-HUAWEI/Middlewares/Third_Party/Huawei/iot_link/link_ota/download/https\ota_https.c ****  */
  39:D:/fchai/work/i-cube/I-CUBE-HUAWEI/Middlewares/Third_Party/Huawei/iot_link/link_ota/download/https\ota_https.c **** 
  40:D:/fchai/work/i-cube/I-CUBE-HUAWEI/Middlewares/Third_Party/Huawei/iot_link/link_ota/download/https\ota_https.c **** #include "ota_https.h"
  41:D:/fchai/work/i-cube/I-CUBE-HUAWEI/Middlewares/Third_Party/Huawei/iot_link/link_ota/download/https\ota_https.c **** 
  42:D:/fchai/work/i-cube/I-CUBE-HUAWEI/Middlewares/Third_Party/Huawei/iot_link/link_ota/download/https\ota_https.c **** #include <stdlib.h>
  43:D:/fchai/work/i-cube/I-CUBE-HUAWEI/Middlewares/Third_Party/Huawei/iot_link/link_ota/download/https\ota_https.c **** #include <string.h>
  44:D:/fchai/work/i-cube/I-CUBE-HUAWEI/Middlewares/Third_Party/Huawei/iot_link/link_ota/download/https\ota_https.c **** #include <link_log.h>
  45:D:/fchai/work/i-cube/I-CUBE-HUAWEI/Middlewares/Third_Party/Huawei/iot_link/link_ota/download/https\ota_https.c **** #include <osal.h>
  46:D:/fchai/work/i-cube/I-CUBE-HUAWEI/Middlewares/Third_Party/Huawei/iot_link/link_ota/download/https\ota_https.c **** #include <dtls_al.h>
  47:D:/fchai/work/i-cube/I-CUBE-HUAWEI/Middlewares/Third_Party/Huawei/iot_link/link_ota/download/https\ota_https.c **** #include <ota_img.h>
  48:D:/fchai/work/i-cube/I-CUBE-HUAWEI/Middlewares/Third_Party/Huawei/iot_link/link_ota/download/https\ota_https.c **** #include <ota_flag.h>
  49:D:/fchai/work/i-cube/I-CUBE-HUAWEI/Middlewares/Third_Party/Huawei/iot_link/link_ota/download/https\ota_https.c **** 
  50:D:/fchai/work/i-cube/I-CUBE-HUAWEI/Middlewares/Third_Party/Huawei/iot_link/link_ota/download/https\ota_https.c **** #ifdef CONFIG_HTTPS_DOWNLOADING_SHA256CHECK
  51:D:/fchai/work/i-cube/I-CUBE-HUAWEI/Middlewares/Third_Party/Huawei/iot_link/link_ota/download/https\ota_https.c **** #include "sha256_check.h"
  52:D:/fchai/work/i-cube/I-CUBE-HUAWEI/Middlewares/Third_Party/Huawei/iot_link/link_ota/download/https\ota_https.c **** #endif
  53:D:/fchai/work/i-cube/I-CUBE-HUAWEI/Middlewares/Third_Party/Huawei/iot_link/link_ota/download/https\ota_https.c **** 
  54:D:/fchai/work/i-cube/I-CUBE-HUAWEI/Middlewares/Third_Party/Huawei/iot_link/link_ota/download/https\ota_https.c **** 
  55:D:/fchai/work/i-cube/I-CUBE-HUAWEI/Middlewares/Third_Party/Huawei/iot_link/link_ota/download/https\ota_https.c **** ///< server key
  56:D:/fchai/work/i-cube/I-CUBE-HUAWEI/Middlewares/Third_Party/Huawei/iot_link/link_ota/download/https\ota_https.c **** static const char g_https_serverca[] =
  57:D:/fchai/work/i-cube/I-CUBE-HUAWEI/Middlewares/Third_Party/Huawei/iot_link/link_ota/download/https\ota_https.c **** " -----BEGIN CERTIFICATE-----\r\n"
  58:D:/fchai/work/i-cube/I-CUBE-HUAWEI/Middlewares/Third_Party/Huawei/iot_link/link_ota/download/https\ota_https.c **** "MIIDrzCCApegAwIBAgIQCDvgVpBCRrGhdWrJWZHHSjANBgkqhkiG9w0BAQUFADBh\r\n"
  59:D:/fchai/work/i-cube/I-CUBE-HUAWEI/Middlewares/Third_Party/Huawei/iot_link/link_ota/download/https\ota_https.c **** "MQswCQYDVQQGEwJVUzEVMBMGA1UEChMMRGlnaUNlcnQgSW5jMRkwFwYDVQQLExB3\r\n"
  60:D:/fchai/work/i-cube/I-CUBE-HUAWEI/Middlewares/Third_Party/Huawei/iot_link/link_ota/download/https\ota_https.c **** "d3cuZGlnaWNlcnQuY29tMSAwHgYDVQQDExdEaWdpQ2VydCBHbG9iYWwgUm9vdCBD\r\n"
  61:D:/fchai/work/i-cube/I-CUBE-HUAWEI/Middlewares/Third_Party/Huawei/iot_link/link_ota/download/https\ota_https.c **** "QTAeFw0wNjExMTAwMDAwMDBaFw0zMTExMTAwMDAwMDBaMGExCzAJBgNVBAYTAlVT\r\n"
  62:D:/fchai/work/i-cube/I-CUBE-HUAWEI/Middlewares/Third_Party/Huawei/iot_link/link_ota/download/https\ota_https.c **** "MRUwEwYDVQQKEwxEaWdpQ2VydCBJbmMxGTAXBgNVBAsTEHd3dy5kaWdpY2VydC5j\r\n"
  63:D:/fchai/work/i-cube/I-CUBE-HUAWEI/Middlewares/Third_Party/Huawei/iot_link/link_ota/download/https\ota_https.c **** "b20xIDAeBgNVBAMTF0RpZ2lDZXJ0IEdsb2JhbCBSb290IENBMIIBIjANBgkqhkiG\r\n"
  64:D:/fchai/work/i-cube/I-CUBE-HUAWEI/Middlewares/Third_Party/Huawei/iot_link/link_ota/download/https\ota_https.c **** "9w0BAQEFAAOCAQ8AMIIBCgKCAQEA4jvhEXLeqKTTo1eqUKKPC3eQyaKl7hLOllsB\r\n"
  65:D:/fchai/work/i-cube/I-CUBE-HUAWEI/Middlewares/Third_Party/Huawei/iot_link/link_ota/download/https\ota_https.c **** "CSDMAZOnTjC3U/dDxGkAV53ijSLdhwZAAIEJzs4bg7/fzTtxRuLWZscFs3YnFo97\r\n"
  66:D:/fchai/work/i-cube/I-CUBE-HUAWEI/Middlewares/Third_Party/Huawei/iot_link/link_ota/download/https\ota_https.c **** "nh6Vfe63SKMI2tavegw5BmV/Sl0fvBf4q77uKNd0f3p4mVmFaG5cIzJLv07A6Fpt\r\n"
  67:D:/fchai/work/i-cube/I-CUBE-HUAWEI/Middlewares/Third_Party/Huawei/iot_link/link_ota/download/https\ota_https.c **** "43C/dxC//AH2hdmoRBBYMql1GNXRor5H4idq9Joz+EkIYIvUX7Q6hL+hqkpMfT7P\r\n"
  68:D:/fchai/work/i-cube/I-CUBE-HUAWEI/Middlewares/Third_Party/Huawei/iot_link/link_ota/download/https\ota_https.c **** "T19sdl6gSzeRntwi5m3OFBqOasv+zbMUZBfHWymeMr/y7vrTC0LUq7dBMtoM1O/4\r\n"
  69:D:/fchai/work/i-cube/I-CUBE-HUAWEI/Middlewares/Third_Party/Huawei/iot_link/link_ota/download/https\ota_https.c **** "gdW7jVg/tRvoSSiicNoxBN33shbyTApOB6jtSj1etX+jkMOvJwIDAQABo2MwYTAO\r\n"
  70:D:/fchai/work/i-cube/I-CUBE-HUAWEI/Middlewares/Third_Party/Huawei/iot_link/link_ota/download/https\ota_https.c **** "BgNVHQ8BAf8EBAMCAYYwDwYDVR0TAQH/BAUwAwEB/zAdBgNVHQ4EFgQUA95QNVbR\r\n"
  71:D:/fchai/work/i-cube/I-CUBE-HUAWEI/Middlewares/Third_Party/Huawei/iot_link/link_ota/download/https\ota_https.c **** "TLtm8KPiGxvDl7I90VUwHwYDVR0jBBgwFoAUA95QNVbRTLtm8KPiGxvDl7I90VUw\r\n"
  72:D:/fchai/work/i-cube/I-CUBE-HUAWEI/Middlewares/Third_Party/Huawei/iot_link/link_ota/download/https\ota_https.c **** "DQYJKoZIhvcNAQEFBQADggEBAMucN6pIExIK+t1EnE9SsPTfrgT1eXkIoyQY/Esr\r\n"
  73:D:/fchai/work/i-cube/I-CUBE-HUAWEI/Middlewares/Third_Party/Huawei/iot_link/link_ota/download/https\ota_https.c **** "hMAtudXH/vTBH1jLuG2cenTnmCmrEbXjcKChzUyImZOMkXDiqw8cvpOp/2PV5Adg\r\n"
  74:D:/fchai/work/i-cube/I-CUBE-HUAWEI/Middlewares/Third_Party/Huawei/iot_link/link_ota/download/https\ota_https.c **** "06O/nVsJ8dWO41P0jmP6P6fbtGbfYmbW0W5BjfIttep3Sp+dWOIrWcBAI+0tKIJF\r\n"
  75:D:/fchai/work/i-cube/I-CUBE-HUAWEI/Middlewares/Third_Party/Huawei/iot_link/link_ota/download/https\ota_https.c **** "PnlUkiaY4IBIqDfv8NZ5YBberOgOzW6sRBc4L0na4UU+Krk2U886UAb3LujEV0ls\r\n"
  76:D:/fchai/work/i-cube/I-CUBE-HUAWEI/Middlewares/Third_Party/Huawei/iot_link/link_ota/download/https\ota_https.c **** "YSEY1QSteDwsOoBrp+uvFRTp2InBuThs4pFsiv9kuXclVzDAGySj4dzp30d8tbQk\r\n"
  77:D:/fchai/work/i-cube/I-CUBE-HUAWEI/Middlewares/Third_Party/Huawei/iot_link/link_ota/download/https\ota_https.c **** "CAUw7C29C79Fv1C5qfPrmAESrciIxpg0X40KPMbp1ZWVbd4=\r\n"
  78:D:/fchai/work/i-cube/I-CUBE-HUAWEI/Middlewares/Third_Party/Huawei/iot_link/link_ota/download/https\ota_https.c **** "-----END CERTIFICATE-----\r\n";
  79:D:/fchai/work/i-cube/I-CUBE-HUAWEI/Middlewares/Third_Party/Huawei/iot_link/link_ota/download/https\ota_https.c **** 
  80:D:/fchai/work/i-cube/I-CUBE-HUAWEI/Middlewares/Third_Party/Huawei/iot_link/link_ota/download/https\ota_https.c **** 
  81:D:/fchai/work/i-cube/I-CUBE-HUAWEI/Middlewares/Third_Party/Huawei/iot_link/link_ota/download/https\ota_https.c **** ///< build the http request
  82:D:/fchai/work/i-cube/I-CUBE-HUAWEI/Middlewares/Third_Party/Huawei/iot_link/link_ota/download/https\ota_https.c **** #define CN_OTA_HTTPS_REQ_FMT  "GET %s HTTP/1.1\r\nAuthorization: Bearer %s\r\nHost: %s:%s\r\nConnec
  83:D:/fchai/work/i-cube/I-CUBE-HUAWEI/Middlewares/Third_Party/Huawei/iot_link/link_ota/download/https\ota_https.c **** 
  84:D:/fchai/work/i-cube/I-CUBE-HUAWEI/Middlewares/Third_Party/Huawei/iot_link/link_ota/download/https\ota_https.c **** #ifndef CONFIG_HTTPS_DOWNLOADING_BLKLEN
  85:D:/fchai/work/i-cube/I-CUBE-HUAWEI/Middlewares/Third_Party/Huawei/iot_link/link_ota/download/https\ota_https.c **** #define CONFIG_HTTPS_DOWNLOADING_BLKLEN  1024
  86:D:/fchai/work/i-cube/I-CUBE-HUAWEI/Middlewares/Third_Party/Huawei/iot_link/link_ota/download/https\ota_https.c **** #endif
ARM GAS  T:\msys\tmp\cc7ptNpf.s 			page 3


  87:D:/fchai/work/i-cube/I-CUBE-HUAWEI/Middlewares/Third_Party/Huawei/iot_link/link_ota/download/https\ota_https.c **** 
  88:D:/fchai/work/i-cube/I-CUBE-HUAWEI/Middlewares/Third_Party/Huawei/iot_link/link_ota/download/https\ota_https.c **** #ifndef CONFIG_HTTPS_DOWNLOADING_RWTIMEOUT
  89:D:/fchai/work/i-cube/I-CUBE-HUAWEI/Middlewares/Third_Party/Huawei/iot_link/link_ota/download/https\ota_https.c **** #define CONFIG_HTTPS_DOWNLOADING_RWTIMEOUT   (10*1000)
  90:D:/fchai/work/i-cube/I-CUBE-HUAWEI/Middlewares/Third_Party/Huawei/iot_link/link_ota/download/https\ota_https.c **** #endif
  91:D:/fchai/work/i-cube/I-CUBE-HUAWEI/Middlewares/Third_Party/Huawei/iot_link/link_ota/download/https\ota_https.c **** 
  92:D:/fchai/work/i-cube/I-CUBE-HUAWEI/Middlewares/Third_Party/Huawei/iot_link/link_ota/download/https\ota_https.c **** #ifndef CONFIG_HTTP_DOWNLOADING_TRYTIMES
  93:D:/fchai/work/i-cube/I-CUBE-HUAWEI/Middlewares/Third_Party/Huawei/iot_link/link_ota/download/https\ota_https.c **** #define CONFIG_HTTP_DOWNLOADING_TRYTIMES   24
  94:D:/fchai/work/i-cube/I-CUBE-HUAWEI/Middlewares/Third_Party/Huawei/iot_link/link_ota/download/https\ota_https.c **** #endif
  95:D:/fchai/work/i-cube/I-CUBE-HUAWEI/Middlewares/Third_Party/Huawei/iot_link/link_ota/download/https\ota_https.c **** 
  96:D:/fchai/work/i-cube/I-CUBE-HUAWEI/Middlewares/Third_Party/Huawei/iot_link/link_ota/download/https\ota_https.c **** typedef struct
  97:D:/fchai/work/i-cube/I-CUBE-HUAWEI/Middlewares/Third_Party/Huawei/iot_link/link_ota/download/https\ota_https.c **** {
  98:D:/fchai/work/i-cube/I-CUBE-HUAWEI/Middlewares/Third_Party/Huawei/iot_link/link_ota/download/https\ota_https.c ****     const char *host;
  99:D:/fchai/work/i-cube/I-CUBE-HUAWEI/Middlewares/Third_Party/Huawei/iot_link/link_ota/download/https\ota_https.c ****     const char *port;
 100:D:/fchai/work/i-cube/I-CUBE-HUAWEI/Middlewares/Third_Party/Huawei/iot_link/link_ota/download/https\ota_https.c ****     const char *url_re;
 101:D:/fchai/work/i-cube/I-CUBE-HUAWEI/Middlewares/Third_Party/Huawei/iot_link/link_ota/download/https\ota_https.c ****     const char *bearer;
 102:D:/fchai/work/i-cube/I-CUBE-HUAWEI/Middlewares/Third_Party/Huawei/iot_link/link_ota/download/https\ota_https.c ****     int         offset;
 103:D:/fchai/work/i-cube/I-CUBE-HUAWEI/Middlewares/Third_Party/Huawei/iot_link/link_ota/download/https\ota_https.c ****     int         len;
 104:D:/fchai/work/i-cube/I-CUBE-HUAWEI/Middlewares/Third_Party/Huawei/iot_link/link_ota/download/https\ota_https.c ****     uint8_t     cache[CONFIG_HTTPS_DOWNLOADING_BLKLEN];
 105:D:/fchai/work/i-cube/I-CUBE-HUAWEI/Middlewares/Third_Party/Huawei/iot_link/link_ota/download/https\ota_https.c **** }http_section_t;
 106:D:/fchai/work/i-cube/I-CUBE-HUAWEI/Middlewares/Third_Party/Huawei/iot_link/link_ota/download/https\ota_https.c **** 
 107:D:/fchai/work/i-cube/I-CUBE-HUAWEI/Middlewares/Third_Party/Huawei/iot_link/link_ota/download/https\ota_https.c **** ///< build the request header
 108:D:/fchai/work/i-cube/I-CUBE-HUAWEI/Middlewares/Third_Party/Huawei/iot_link/link_ota/download/https\ota_https.c **** static int http_makerequest(http_section_t *section)
 109:D:/fchai/work/i-cube/I-CUBE-HUAWEI/Middlewares/Third_Party/Huawei/iot_link/link_ota/download/https\ota_https.c **** {
 110:D:/fchai/work/i-cube/I-CUBE-HUAWEI/Middlewares/Third_Party/Huawei/iot_link/link_ota/download/https\ota_https.c ****     int ret;
 111:D:/fchai/work/i-cube/I-CUBE-HUAWEI/Middlewares/Third_Party/Huawei/iot_link/link_ota/download/https\ota_https.c ****     ret = snprintf((char *)section->cache,CONFIG_HTTPS_DOWNLOADING_BLKLEN,CN_OTA_HTTPS_REQ_FMT,sect
 112:D:/fchai/work/i-cube/I-CUBE-HUAWEI/Middlewares/Third_Party/Huawei/iot_link/link_ota/download/https\ota_https.c ****             section->bearer,section->host,section->port,section->offset + 1, section->offset + sect
 113:D:/fchai/work/i-cube/I-CUBE-HUAWEI/Middlewares/Third_Party/Huawei/iot_link/link_ota/download/https\ota_https.c ****     return ret;
 114:D:/fchai/work/i-cube/I-CUBE-HUAWEI/Middlewares/Third_Party/Huawei/iot_link/link_ota/download/https\ota_https.c **** }
 115:D:/fchai/work/i-cube/I-CUBE-HUAWEI/Middlewares/Third_Party/Huawei/iot_link/link_ota/download/https\ota_https.c **** 
 116:D:/fchai/work/i-cube/I-CUBE-HUAWEI/Middlewares/Third_Party/Huawei/iot_link/link_ota/download/https\ota_https.c **** ///< this is the url test format
 117:D:/fchai/work/i-cube/I-CUBE-HUAWEI/Middlewares/Third_Party/Huawei/iot_link/link_ota/download/https\ota_https.c **** ///< https://121.36.42.100:8943/iodm/dev/v2.0/upgradefile/applications/qOrU58z7TMg2fao5xceWanjjQSAa
 118:D:/fchai/work/i-cube/I-CUBE-HUAWEI/Middlewares/Third_Party/Huawei/iot_link/link_ota/download/https\ota_https.c **** #define CN_URL_HOST_INDEX "https://"
 119:D:/fchai/work/i-cube/I-CUBE-HUAWEI/Middlewares/Third_Party/Huawei/iot_link/link_ota/download/https\ota_https.c **** #define CN_URL_PORT_INDEX ":"
 120:D:/fchai/work/i-cube/I-CUBE-HUAWEI/Middlewares/Third_Party/Huawei/iot_link/link_ota/download/https\ota_https.c **** #define CN_URL_PORT_DEFAULT "443"
 121:D:/fchai/work/i-cube/I-CUBE-HUAWEI/Middlewares/Third_Party/Huawei/iot_link/link_ota/download/https\ota_https.c **** static http_section_t *http_decodeurl(ota_https_para_t *cb)
 122:D:/fchai/work/i-cube/I-CUBE-HUAWEI/Middlewares/Third_Party/Huawei/iot_link/link_ota/download/https\ota_https.c **** {
 123:D:/fchai/work/i-cube/I-CUBE-HUAWEI/Middlewares/Third_Party/Huawei/iot_link/link_ota/download/https\ota_https.c ****     http_section_t *ret = NULL;
 124:D:/fchai/work/i-cube/I-CUBE-HUAWEI/Middlewares/Third_Party/Huawei/iot_link/link_ota/download/https\ota_https.c ****     const char *host_start;
 125:D:/fchai/work/i-cube/I-CUBE-HUAWEI/Middlewares/Third_Party/Huawei/iot_link/link_ota/download/https\ota_https.c ****     const char *host_end;
 126:D:/fchai/work/i-cube/I-CUBE-HUAWEI/Middlewares/Third_Party/Huawei/iot_link/link_ota/download/https\ota_https.c ****     const char *port_start;
 127:D:/fchai/work/i-cube/I-CUBE-HUAWEI/Middlewares/Third_Party/Huawei/iot_link/link_ota/download/https\ota_https.c ****     const char *port_end;
 128:D:/fchai/work/i-cube/I-CUBE-HUAWEI/Middlewares/Third_Party/Huawei/iot_link/link_ota/download/https\ota_https.c ****     const char *urlre_start;
 129:D:/fchai/work/i-cube/I-CUBE-HUAWEI/Middlewares/Third_Party/Huawei/iot_link/link_ota/download/https\ota_https.c ****     const char *urlre_end;
 130:D:/fchai/work/i-cube/I-CUBE-HUAWEI/Middlewares/Third_Party/Huawei/iot_link/link_ota/download/https\ota_https.c ****     char *tmp,*tmp_ret;
 131:D:/fchai/work/i-cube/I-CUBE-HUAWEI/Middlewares/Third_Party/Huawei/iot_link/link_ota/download/https\ota_https.c ****     int  len;
 132:D:/fchai/work/i-cube/I-CUBE-HUAWEI/Middlewares/Third_Party/Huawei/iot_link/link_ota/download/https\ota_https.c **** 
 133:D:/fchai/work/i-cube/I-CUBE-HUAWEI/Middlewares/Third_Party/Huawei/iot_link/link_ota/download/https\ota_https.c ****     tmp = (char *)cb->url;
 134:D:/fchai/work/i-cube/I-CUBE-HUAWEI/Middlewares/Third_Party/Huawei/iot_link/link_ota/download/https\ota_https.c ****     tmp_ret = strstr(tmp,CN_URL_HOST_INDEX);
 135:D:/fchai/work/i-cube/I-CUBE-HUAWEI/Middlewares/Third_Party/Huawei/iot_link/link_ota/download/https\ota_https.c ****     if(NULL == tmp_ret)
 136:D:/fchai/work/i-cube/I-CUBE-HUAWEI/Middlewares/Third_Party/Huawei/iot_link/link_ota/download/https\ota_https.c ****     {
 137:D:/fchai/work/i-cube/I-CUBE-HUAWEI/Middlewares/Third_Party/Huawei/iot_link/link_ota/download/https\ota_https.c ****         goto EXIT_HOST;
 138:D:/fchai/work/i-cube/I-CUBE-HUAWEI/Middlewares/Third_Party/Huawei/iot_link/link_ota/download/https\ota_https.c ****     }
 139:D:/fchai/work/i-cube/I-CUBE-HUAWEI/Middlewares/Third_Party/Huawei/iot_link/link_ota/download/https\ota_https.c ****     host_start = tmp_ret +strlen(CN_URL_HOST_INDEX);
 140:D:/fchai/work/i-cube/I-CUBE-HUAWEI/Middlewares/Third_Party/Huawei/iot_link/link_ota/download/https\ota_https.c **** 
 141:D:/fchai/work/i-cube/I-CUBE-HUAWEI/Middlewares/Third_Party/Huawei/iot_link/link_ota/download/https\ota_https.c ****     tmp = (char *)host_start;
 142:D:/fchai/work/i-cube/I-CUBE-HUAWEI/Middlewares/Third_Party/Huawei/iot_link/link_ota/download/https\ota_https.c ****     tmp_ret = strstr(tmp,CN_URL_PORT_INDEX);
 143:D:/fchai/work/i-cube/I-CUBE-HUAWEI/Middlewares/Third_Party/Huawei/iot_link/link_ota/download/https\ota_https.c ****     if(NULL == tmp_ret)
ARM GAS  T:\msys\tmp\cc7ptNpf.s 			page 4


 144:D:/fchai/work/i-cube/I-CUBE-HUAWEI/Middlewares/Third_Party/Huawei/iot_link/link_ota/download/https\ota_https.c ****     {
 145:D:/fchai/work/i-cube/I-CUBE-HUAWEI/Middlewares/Third_Party/Huawei/iot_link/link_ota/download/https\ota_https.c ****         port_start = CN_URL_PORT_DEFAULT;
 146:D:/fchai/work/i-cube/I-CUBE-HUAWEI/Middlewares/Third_Party/Huawei/iot_link/link_ota/download/https\ota_https.c ****         port_end = port_start + strlen(CN_URL_PORT_DEFAULT) -1;
 147:D:/fchai/work/i-cube/I-CUBE-HUAWEI/Middlewares/Third_Party/Huawei/iot_link/link_ota/download/https\ota_https.c **** 
 148:D:/fchai/work/i-cube/I-CUBE-HUAWEI/Middlewares/Third_Party/Huawei/iot_link/link_ota/download/https\ota_https.c ****         tmp_ret = strstr(tmp,"/");
 149:D:/fchai/work/i-cube/I-CUBE-HUAWEI/Middlewares/Third_Party/Huawei/iot_link/link_ota/download/https\ota_https.c ****         if(NULL == tmp_ret)
 150:D:/fchai/work/i-cube/I-CUBE-HUAWEI/Middlewares/Third_Party/Huawei/iot_link/link_ota/download/https\ota_https.c ****         {
 151:D:/fchai/work/i-cube/I-CUBE-HUAWEI/Middlewares/Third_Party/Huawei/iot_link/link_ota/download/https\ota_https.c ****             goto EXIT_PORT;
 152:D:/fchai/work/i-cube/I-CUBE-HUAWEI/Middlewares/Third_Party/Huawei/iot_link/link_ota/download/https\ota_https.c ****         }
 153:D:/fchai/work/i-cube/I-CUBE-HUAWEI/Middlewares/Third_Party/Huawei/iot_link/link_ota/download/https\ota_https.c ****         host_end = tmp_ret-1;
 154:D:/fchai/work/i-cube/I-CUBE-HUAWEI/Middlewares/Third_Party/Huawei/iot_link/link_ota/download/https\ota_https.c ****         urlre_start = tmp_ret;
 155:D:/fchai/work/i-cube/I-CUBE-HUAWEI/Middlewares/Third_Party/Huawei/iot_link/link_ota/download/https\ota_https.c ****         urlre_end = cb->url + strlen(cb->url) -1;
 156:D:/fchai/work/i-cube/I-CUBE-HUAWEI/Middlewares/Third_Party/Huawei/iot_link/link_ota/download/https\ota_https.c ****     }
 157:D:/fchai/work/i-cube/I-CUBE-HUAWEI/Middlewares/Third_Party/Huawei/iot_link/link_ota/download/https\ota_https.c ****     else
 158:D:/fchai/work/i-cube/I-CUBE-HUAWEI/Middlewares/Third_Party/Huawei/iot_link/link_ota/download/https\ota_https.c ****     {
 159:D:/fchai/work/i-cube/I-CUBE-HUAWEI/Middlewares/Third_Party/Huawei/iot_link/link_ota/download/https\ota_https.c ****         host_end = tmp_ret-1;
 160:D:/fchai/work/i-cube/I-CUBE-HUAWEI/Middlewares/Third_Party/Huawei/iot_link/link_ota/download/https\ota_https.c ****         port_start = tmp_ret + 1;
 161:D:/fchai/work/i-cube/I-CUBE-HUAWEI/Middlewares/Third_Party/Huawei/iot_link/link_ota/download/https\ota_https.c ****         tmp = tmp_ret;
 162:D:/fchai/work/i-cube/I-CUBE-HUAWEI/Middlewares/Third_Party/Huawei/iot_link/link_ota/download/https\ota_https.c **** 
 163:D:/fchai/work/i-cube/I-CUBE-HUAWEI/Middlewares/Third_Party/Huawei/iot_link/link_ota/download/https\ota_https.c ****         tmp_ret = strstr(tmp,"/");
 164:D:/fchai/work/i-cube/I-CUBE-HUAWEI/Middlewares/Third_Party/Huawei/iot_link/link_ota/download/https\ota_https.c ****         if(NULL == tmp_ret)
 165:D:/fchai/work/i-cube/I-CUBE-HUAWEI/Middlewares/Third_Party/Huawei/iot_link/link_ota/download/https\ota_https.c ****         {
 166:D:/fchai/work/i-cube/I-CUBE-HUAWEI/Middlewares/Third_Party/Huawei/iot_link/link_ota/download/https\ota_https.c ****             goto EXIT_PORT;
 167:D:/fchai/work/i-cube/I-CUBE-HUAWEI/Middlewares/Third_Party/Huawei/iot_link/link_ota/download/https\ota_https.c ****         }
 168:D:/fchai/work/i-cube/I-CUBE-HUAWEI/Middlewares/Third_Party/Huawei/iot_link/link_ota/download/https\ota_https.c ****         port_end = tmp_ret -1;
 169:D:/fchai/work/i-cube/I-CUBE-HUAWEI/Middlewares/Third_Party/Huawei/iot_link/link_ota/download/https\ota_https.c ****         urlre_start = tmp_ret;
 170:D:/fchai/work/i-cube/I-CUBE-HUAWEI/Middlewares/Third_Party/Huawei/iot_link/link_ota/download/https\ota_https.c ****         urlre_end = cb->url + strlen(cb->url) -1;
 171:D:/fchai/work/i-cube/I-CUBE-HUAWEI/Middlewares/Third_Party/Huawei/iot_link/link_ota/download/https\ota_https.c ****     }
 172:D:/fchai/work/i-cube/I-CUBE-HUAWEI/Middlewares/Third_Party/Huawei/iot_link/link_ota/download/https\ota_https.c ****     len = sizeof(http_section_t) + (host_end - host_start + 1 + 1) + (port_end- port_start + 1 + 1)
 173:D:/fchai/work/i-cube/I-CUBE-HUAWEI/Middlewares/Third_Party/Huawei/iot_link/link_ota/download/https\ota_https.c ****     ret = (http_section_t *)osal_malloc(len);
 174:D:/fchai/work/i-cube/I-CUBE-HUAWEI/Middlewares/Third_Party/Huawei/iot_link/link_ota/download/https\ota_https.c ****     if(NULL == ret)
 175:D:/fchai/work/i-cube/I-CUBE-HUAWEI/Middlewares/Third_Party/Huawei/iot_link/link_ota/download/https\ota_https.c ****     {
 176:D:/fchai/work/i-cube/I-CUBE-HUAWEI/Middlewares/Third_Party/Huawei/iot_link/link_ota/download/https\ota_https.c ****         goto EXIT_MEM;
 177:D:/fchai/work/i-cube/I-CUBE-HUAWEI/Middlewares/Third_Party/Huawei/iot_link/link_ota/download/https\ota_https.c ****     }
 178:D:/fchai/work/i-cube/I-CUBE-HUAWEI/Middlewares/Third_Party/Huawei/iot_link/link_ota/download/https\ota_https.c ****     tmp = (char *)ret;
 179:D:/fchai/work/i-cube/I-CUBE-HUAWEI/Middlewares/Third_Party/Huawei/iot_link/link_ota/download/https\ota_https.c ****     tmp += sizeof(http_section_t);
 180:D:/fchai/work/i-cube/I-CUBE-HUAWEI/Middlewares/Third_Party/Huawei/iot_link/link_ota/download/https\ota_https.c ****     ///< initialize the member in the parameters
 181:D:/fchai/work/i-cube/I-CUBE-HUAWEI/Middlewares/Third_Party/Huawei/iot_link/link_ota/download/https\ota_https.c ****     len = host_end - host_start + 1;
 182:D:/fchai/work/i-cube/I-CUBE-HUAWEI/Middlewares/Third_Party/Huawei/iot_link/link_ota/download/https\ota_https.c ****     memcpy(tmp, host_start, len);
 183:D:/fchai/work/i-cube/I-CUBE-HUAWEI/Middlewares/Third_Party/Huawei/iot_link/link_ota/download/https\ota_https.c ****     tmp[len] = '\0';
 184:D:/fchai/work/i-cube/I-CUBE-HUAWEI/Middlewares/Third_Party/Huawei/iot_link/link_ota/download/https\ota_https.c ****     ret->host = tmp;
 185:D:/fchai/work/i-cube/I-CUBE-HUAWEI/Middlewares/Third_Party/Huawei/iot_link/link_ota/download/https\ota_https.c ****     tmp += len + 1;
 186:D:/fchai/work/i-cube/I-CUBE-HUAWEI/Middlewares/Third_Party/Huawei/iot_link/link_ota/download/https\ota_https.c **** 
 187:D:/fchai/work/i-cube/I-CUBE-HUAWEI/Middlewares/Third_Party/Huawei/iot_link/link_ota/download/https\ota_https.c ****     len = port_end - port_start + 1;
 188:D:/fchai/work/i-cube/I-CUBE-HUAWEI/Middlewares/Third_Party/Huawei/iot_link/link_ota/download/https\ota_https.c ****     memcpy(tmp, port_start, len);
 189:D:/fchai/work/i-cube/I-CUBE-HUAWEI/Middlewares/Third_Party/Huawei/iot_link/link_ota/download/https\ota_https.c ****     tmp[len] = '\0';
 190:D:/fchai/work/i-cube/I-CUBE-HUAWEI/Middlewares/Third_Party/Huawei/iot_link/link_ota/download/https\ota_https.c ****     ret->port = tmp;
 191:D:/fchai/work/i-cube/I-CUBE-HUAWEI/Middlewares/Third_Party/Huawei/iot_link/link_ota/download/https\ota_https.c ****     tmp += len + 1;
 192:D:/fchai/work/i-cube/I-CUBE-HUAWEI/Middlewares/Third_Party/Huawei/iot_link/link_ota/download/https\ota_https.c **** 
 193:D:/fchai/work/i-cube/I-CUBE-HUAWEI/Middlewares/Third_Party/Huawei/iot_link/link_ota/download/https\ota_https.c ****     len = urlre_end - urlre_start + 1;
 194:D:/fchai/work/i-cube/I-CUBE-HUAWEI/Middlewares/Third_Party/Huawei/iot_link/link_ota/download/https\ota_https.c ****     memcpy(tmp, urlre_start, len);
 195:D:/fchai/work/i-cube/I-CUBE-HUAWEI/Middlewares/Third_Party/Huawei/iot_link/link_ota/download/https\ota_https.c ****     tmp[len] = '\0';
 196:D:/fchai/work/i-cube/I-CUBE-HUAWEI/Middlewares/Third_Party/Huawei/iot_link/link_ota/download/https\ota_https.c ****     ret->url_re = tmp;
 197:D:/fchai/work/i-cube/I-CUBE-HUAWEI/Middlewares/Third_Party/Huawei/iot_link/link_ota/download/https\ota_https.c **** 
 198:D:/fchai/work/i-cube/I-CUBE-HUAWEI/Middlewares/Third_Party/Huawei/iot_link/link_ota/download/https\ota_https.c ****     ret->bearer = cb->authorize;
 199:D:/fchai/work/i-cube/I-CUBE-HUAWEI/Middlewares/Third_Party/Huawei/iot_link/link_ota/download/https\ota_https.c ****     return ret;
 200:D:/fchai/work/i-cube/I-CUBE-HUAWEI/Middlewares/Third_Party/Huawei/iot_link/link_ota/download/https\ota_https.c **** 
ARM GAS  T:\msys\tmp\cc7ptNpf.s 			page 5


 201:D:/fchai/work/i-cube/I-CUBE-HUAWEI/Middlewares/Third_Party/Huawei/iot_link/link_ota/download/https\ota_https.c **** EXIT_MEM:
 202:D:/fchai/work/i-cube/I-CUBE-HUAWEI/Middlewares/Third_Party/Huawei/iot_link/link_ota/download/https\ota_https.c **** EXIT_PORT:
 203:D:/fchai/work/i-cube/I-CUBE-HUAWEI/Middlewares/Third_Party/Huawei/iot_link/link_ota/download/https\ota_https.c **** EXIT_HOST:
 204:D:/fchai/work/i-cube/I-CUBE-HUAWEI/Middlewares/Third_Party/Huawei/iot_link/link_ota/download/https\ota_https.c ****     return ret;
 205:D:/fchai/work/i-cube/I-CUBE-HUAWEI/Middlewares/Third_Party/Huawei/iot_link/link_ota/download/https\ota_https.c **** }
 206:D:/fchai/work/i-cube/I-CUBE-HUAWEI/Middlewares/Third_Party/Huawei/iot_link/link_ota/download/https\ota_https.c **** 
 207:D:/fchai/work/i-cube/I-CUBE-HUAWEI/Middlewares/Third_Party/Huawei/iot_link/link_ota/download/https\ota_https.c **** ///< return the len write, try to send all the data in the timeout
 208:D:/fchai/work/i-cube/I-CUBE-HUAWEI/Middlewares/Third_Party/Huawei/iot_link/link_ota/download/https\ota_https.c **** static int loop_netwrite(void *handle,const uint8_t *buffer, int len,uint32_t timeout)
 209:D:/fchai/work/i-cube/I-CUBE-HUAWEI/Middlewares/Third_Party/Huawei/iot_link/link_ota/download/https\ota_https.c **** {
 210:D:/fchai/work/i-cube/I-CUBE-HUAWEI/Middlewares/Third_Party/Huawei/iot_link/link_ota/download/https\ota_https.c ****     int sndret;
 211:D:/fchai/work/i-cube/I-CUBE-HUAWEI/Middlewares/Third_Party/Huawei/iot_link/link_ota/download/https\ota_https.c ****     const uint8_t *data = buffer;
 212:D:/fchai/work/i-cube/I-CUBE-HUAWEI/Middlewares/Third_Party/Huawei/iot_link/link_ota/download/https\ota_https.c ****     while(len > 0)
 213:D:/fchai/work/i-cube/I-CUBE-HUAWEI/Middlewares/Third_Party/Huawei/iot_link/link_ota/download/https\ota_https.c ****     {
 214:D:/fchai/work/i-cube/I-CUBE-HUAWEI/Middlewares/Third_Party/Huawei/iot_link/link_ota/download/https\ota_https.c ****         sndret = dtls_al_write(handle,(uint8_t *)data,len,timeout);
 215:D:/fchai/work/i-cube/I-CUBE-HUAWEI/Middlewares/Third_Party/Huawei/iot_link/link_ota/download/https\ota_https.c ****         if(sndret > 0)
 216:D:/fchai/work/i-cube/I-CUBE-HUAWEI/Middlewares/Third_Party/Huawei/iot_link/link_ota/download/https\ota_https.c ****         {
 217:D:/fchai/work/i-cube/I-CUBE-HUAWEI/Middlewares/Third_Party/Huawei/iot_link/link_ota/download/https\ota_https.c ****             len -= sndret;
 218:D:/fchai/work/i-cube/I-CUBE-HUAWEI/Middlewares/Third_Party/Huawei/iot_link/link_ota/download/https\ota_https.c ****             data += sndret;
 219:D:/fchai/work/i-cube/I-CUBE-HUAWEI/Middlewares/Third_Party/Huawei/iot_link/link_ota/download/https\ota_https.c ****         }
 220:D:/fchai/work/i-cube/I-CUBE-HUAWEI/Middlewares/Third_Party/Huawei/iot_link/link_ota/download/https\ota_https.c ****         else if(sndret == 0)
 221:D:/fchai/work/i-cube/I-CUBE-HUAWEI/Middlewares/Third_Party/Huawei/iot_link/link_ota/download/https\ota_https.c ****         {
 222:D:/fchai/work/i-cube/I-CUBE-HUAWEI/Middlewares/Third_Party/Huawei/iot_link/link_ota/download/https\ota_https.c ****             break;
 223:D:/fchai/work/i-cube/I-CUBE-HUAWEI/Middlewares/Third_Party/Huawei/iot_link/link_ota/download/https\ota_https.c ****         }
 224:D:/fchai/work/i-cube/I-CUBE-HUAWEI/Middlewares/Third_Party/Huawei/iot_link/link_ota/download/https\ota_https.c ****     }
 225:D:/fchai/work/i-cube/I-CUBE-HUAWEI/Middlewares/Third_Party/Huawei/iot_link/link_ota/download/https\ota_https.c ****     return (len==0)?0:-1;
 226:D:/fchai/work/i-cube/I-CUBE-HUAWEI/Middlewares/Third_Party/Huawei/iot_link/link_ota/download/https\ota_https.c **** }
 227:D:/fchai/work/i-cube/I-CUBE-HUAWEI/Middlewares/Third_Party/Huawei/iot_link/link_ota/download/https\ota_https.c **** 
 228:D:/fchai/work/i-cube/I-CUBE-HUAWEI/Middlewares/Third_Party/Huawei/iot_link/link_ota/download/https\ota_https.c **** static int loop_netread(void *handle,uint8_t *buffer, int len,uint32_t timeout)
  30              		.loc 1 228 12 view -0
  31              		.cfi_startproc
  32              		@ args = 0, pretend = 0, frame = 0
  33              		@ frame_needed = 0, uses_anonymous_args = 0
  34              		.loc 1 228 12 is_stmt 0 view .LVU1
  35 0000 70B5     		push	{r4, r5, r6, lr}
  36              	.LCFI0:
  37              		.cfi_def_cfa_offset 16
  38              		.cfi_offset 4, -16
  39              		.cfi_offset 5, -12
  40              		.cfi_offset 6, -8
  41              		.cfi_offset 14, -4
 229:D:/fchai/work/i-cube/I-CUBE-HUAWEI/Middlewares/Third_Party/Huawei/iot_link/link_ota/download/https\ota_https.c **** {
 230:D:/fchai/work/i-cube/I-CUBE-HUAWEI/Middlewares/Third_Party/Huawei/iot_link/link_ota/download/https\ota_https.c ****     int rcvret;
 231:D:/fchai/work/i-cube/I-CUBE-HUAWEI/Middlewares/Third_Party/Huawei/iot_link/link_ota/download/https\ota_https.c ****     const uint8_t *data = buffer;
 232:D:/fchai/work/i-cube/I-CUBE-HUAWEI/Middlewares/Third_Party/Huawei/iot_link/link_ota/download/https\ota_https.c ****     while(len > 0)
  42              		.loc 1 232 10 view .LVU2
  43 0002 141E     		subs	r4, r2, #0
 228:D:/fchai/work/i-cube/I-CUBE-HUAWEI/Middlewares/Third_Party/Huawei/iot_link/link_ota/download/https\ota_https.c **** {
  44              		.loc 1 228 12 view .LVU3
  45 0004 0646     		mov	r6, r0
  46 0006 0D46     		mov	r5, r1
  47              	.LVL1:
  48              		.loc 1 232 10 is_stmt 1 view .LVU4
  49 0008 0CDD     		ble	.L2
  50              	.LVL2:
  51              	.L6:
 233:D:/fchai/work/i-cube/I-CUBE-HUAWEI/Middlewares/Third_Party/Huawei/iot_link/link_ota/download/https\ota_https.c ****     {
 234:D:/fchai/work/i-cube/I-CUBE-HUAWEI/Middlewares/Third_Party/Huawei/iot_link/link_ota/download/https\ota_https.c ****         rcvret = dtls_al_read(handle,(uint8_t *)data,len,timeout);
ARM GAS  T:\msys\tmp\cc7ptNpf.s 			page 6


  52              		.loc 1 234 9 view .LVU5
  53              		.loc 1 234 18 is_stmt 0 view .LVU6
  54 000a 42F21073 		movw	r3, #10000
  55 000e 2246     		mov	r2, r4
  56 0010 2946     		mov	r1, r5
  57 0012 3046     		mov	r0, r6
  58 0014 FFF7FEFF 		bl	dtls_al_read
  59              	.LVL3:
 235:D:/fchai/work/i-cube/I-CUBE-HUAWEI/Middlewares/Third_Party/Huawei/iot_link/link_ota/download/https\ota_https.c ****         if(rcvret > 0)
 236:D:/fchai/work/i-cube/I-CUBE-HUAWEI/Middlewares/Third_Party/Huawei/iot_link/link_ota/download/https\ota_https.c ****         {
 237:D:/fchai/work/i-cube/I-CUBE-HUAWEI/Middlewares/Third_Party/Huawei/iot_link/link_ota/download/https\ota_https.c ****             len -= rcvret;
  60              		.loc 1 237 13 is_stmt 1 view .LVU7
 238:D:/fchai/work/i-cube/I-CUBE-HUAWEI/Middlewares/Third_Party/Huawei/iot_link/link_ota/download/https\ota_https.c ****             data += rcvret;
 239:D:/fchai/work/i-cube/I-CUBE-HUAWEI/Middlewares/Third_Party/Huawei/iot_link/link_ota/download/https\ota_https.c ****         }
 240:D:/fchai/work/i-cube/I-CUBE-HUAWEI/Middlewares/Third_Party/Huawei/iot_link/link_ota/download/https\ota_https.c ****         else if(rcvret == 0)
  61              		.loc 1 240 14 view .LVU8
 235:D:/fchai/work/i-cube/I-CUBE-HUAWEI/Middlewares/Third_Party/Huawei/iot_link/link_ota/download/https\ota_https.c ****         if(rcvret > 0)
  62              		.loc 1 235 9 view .LVU9
 235:D:/fchai/work/i-cube/I-CUBE-HUAWEI/Middlewares/Third_Party/Huawei/iot_link/link_ota/download/https\ota_https.c ****         if(rcvret > 0)
  63              		.loc 1 235 11 is_stmt 0 view .LVU10
  64 0018 0028     		cmp	r0, #0
 235:D:/fchai/work/i-cube/I-CUBE-HUAWEI/Middlewares/Third_Party/Huawei/iot_link/link_ota/download/https\ota_https.c ****         if(rcvret > 0)
  65              		.loc 1 235 11 view .LVU11
  66 001a 08DD     		ble	.L3
 237:D:/fchai/work/i-cube/I-CUBE-HUAWEI/Middlewares/Third_Party/Huawei/iot_link/link_ota/download/https\ota_https.c ****             data += rcvret;
  67              		.loc 1 237 17 view .LVU12
  68 001c 241A     		subs	r4, r4, r0
  69              	.LVL4:
 238:D:/fchai/work/i-cube/I-CUBE-HUAWEI/Middlewares/Third_Party/Huawei/iot_link/link_ota/download/https\ota_https.c ****             data += rcvret;
  70              		.loc 1 238 13 is_stmt 1 view .LVU13
 232:D:/fchai/work/i-cube/I-CUBE-HUAWEI/Middlewares/Third_Party/Huawei/iot_link/link_ota/download/https\ota_https.c ****     {
  71              		.loc 1 232 10 is_stmt 0 view .LVU14
  72 001e 002C     		cmp	r4, #0
 238:D:/fchai/work/i-cube/I-CUBE-HUAWEI/Middlewares/Third_Party/Huawei/iot_link/link_ota/download/https\ota_https.c ****             data += rcvret;
  73              		.loc 1 238 18 view .LVU15
  74 0020 0544     		add	r5, r5, r0
  75              	.LVL5:
 232:D:/fchai/work/i-cube/I-CUBE-HUAWEI/Middlewares/Third_Party/Huawei/iot_link/link_ota/download/https\ota_https.c ****     {
  76              		.loc 1 232 10 is_stmt 1 view .LVU16
  77 0022 F2DC     		bgt	.L6
  78              	.LVL6:
  79              	.L2:
 241:D:/fchai/work/i-cube/I-CUBE-HUAWEI/Middlewares/Third_Party/Huawei/iot_link/link_ota/download/https\ota_https.c ****         {
 242:D:/fchai/work/i-cube/I-CUBE-HUAWEI/Middlewares/Third_Party/Huawei/iot_link/link_ota/download/https\ota_https.c ****             break;
 243:D:/fchai/work/i-cube/I-CUBE-HUAWEI/Middlewares/Third_Party/Huawei/iot_link/link_ota/download/https\ota_https.c ****         }
 244:D:/fchai/work/i-cube/I-CUBE-HUAWEI/Middlewares/Third_Party/Huawei/iot_link/link_ota/download/https\ota_https.c ****     }
 245:D:/fchai/work/i-cube/I-CUBE-HUAWEI/Middlewares/Third_Party/Huawei/iot_link/link_ota/download/https\ota_https.c **** 
 246:D:/fchai/work/i-cube/I-CUBE-HUAWEI/Middlewares/Third_Party/Huawei/iot_link/link_ota/download/https\ota_https.c ****     return (len==0)?0:-1;
  80              		.loc 1 246 5 view .LVU17
  81              		.loc 1 246 22 is_stmt 0 view .LVU18
  82 0024 201E     		subs	r0, r4, #0
  83 0026 18BF     		it	ne
  84 0028 0120     		movne	r0, #1
  85 002a 4042     		rsbs	r0, r0, #0
 247:D:/fchai/work/i-cube/I-CUBE-HUAWEI/Middlewares/Third_Party/Huawei/iot_link/link_ota/download/https\ota_https.c **** }
  86              		.loc 1 247 1 view .LVU19
  87 002c 70BD     		pop	{r4, r5, r6, pc}
ARM GAS  T:\msys\tmp\cc7ptNpf.s 			page 7


  88              	.LVL7:
  89              	.L3:
 240:D:/fchai/work/i-cube/I-CUBE-HUAWEI/Middlewares/Third_Party/Huawei/iot_link/link_ota/download/https\ota_https.c ****         {
  90              		.loc 1 240 16 view .LVU20
  91 002e ECD1     		bne	.L6
 246:D:/fchai/work/i-cube/I-CUBE-HUAWEI/Middlewares/Third_Party/Huawei/iot_link/link_ota/download/https\ota_https.c **** }
  92              		.loc 1 246 22 view .LVU21
  93 0030 4FF0FF30 		mov	r0, #-1
  94              	.LVL8:
  95              		.loc 1 247 1 view .LVU22
  96 0034 70BD     		pop	{r4, r5, r6, pc}
  97              		.loc 1 247 1 view .LVU23
  98              		.cfi_endproc
  99              	.LFE14:
 101 0036 00BF     		.section	.rodata.ota_https_download.str1.4,"aMS",%progbits,1
 102              		.align	2
 103              	.LC0:
 104 0000 34343300 		.ascii	"443\000"
 105              		.align	2
 106              	.LC1:
 107 0004 5B25735D 		.ascii	"[%s][%u][%s] GET OTA FLAG FAILED\015\012\000"
 107      5B25755D 
 107      5B25735D 
 107      20474554 
 107      204F5441 
 108 0027 00       		.align	2
 109              	.LC2:
 110 0028 68747470 		.ascii	"https://\000"
 110      733A2F2F 
 110      00
 111 0031 000000   		.align	2
 112              	.LC3:
 113 0034 5B25735D 		.ascii	"[%s][%u][%s] DECODE URL FAILED\015\012\000"
 113      5B25755D 
 113      5B25735D 
 113      20444543 
 113      4F444520 
 114 0055 000000   		.align	2
 115              	.LC4:
 116 0058 5B25735D 		.ascii	"[%s][%u][%s] Erase the download img failed\015\012\000"
 116      5B25755D 
 116      5B25735D 
 116      20457261 
 116      73652074 
 117 0085 000000   		.align	2
 118              	.LC5:
 119 0088 5B25735D 		.ascii	"[%s][%u][%s] Erase the download img SUCCESS\015\012"
 119      5B25755D 
 119      5B25735D 
 119      20457261 
 119      73652074 
 120 00b5 00       		.ascii	"\000"
 121 00b6 0000     		.align	2
 122              	.LC6:
 123 00b8 5B25735D 		.ascii	"[%s][%u][%s] TLS HANDLE BUILD ERR\015\012\000"
 123      5B25755D 
 123      5B25735D 
ARM GAS  T:\msys\tmp\cc7ptNpf.s 			page 8


 123      20544C53 
 123      2048414E 
 124              		.align	2
 125              	.LC7:
 126 00dc 5B25735D 		.ascii	"[%s][%u][%s] TLS CONNECT ERR\015\012\000"
 126      5B25755D 
 126      5B25735D 
 126      20544C53 
 126      20434F4E 
 127 00fb 00       		.align	2
 128              	.LC8:
 129 00fc 47455420 		.ascii	"GET %s HTTP/1.1\015\012Authorization: Bearer %s\015"
 129      25732048 
 129      5454502F 
 129      312E310D 
 129      0A417574 
 130 0126 0A486F73 		.ascii	"\012Host: %s:%s\015\012Connection: keep-alive\015\012"
 130      743A2025 
 130      733A2573 
 130      0D0A436F 
 130      6E6E6563 
 131 014c 52616E67 		.ascii	"Range: bytes=%d-%d\015\012\015\012\000"
 131      653A2062 
 131      79746573 
 131      3D25642D 
 131      25640D0A 
 132 0163 00       		.align	2
 133              	.LC9:
 134 0164 5B25735D 		.ascii	"[%s][%u][%s] HTTPREQ:%d Bytes REQ:%s\015\012\015\012"
 134      5B25755D 
 134      5B25735D 
 134      20485454 
 134      50524551 
 135 018c 00       		.ascii	"\000"
 136 018d 000000   		.align	2
 137              	.LC10:
 138 0190 5B25735D 		.ascii	"[%s][%u][%s] TLS REQUEST ERR\015\012\000"
 138      5B25755D 
 138      5B25735D 
 138      20544C53 
 138      20524551 
 139 01af 00       		.align	2
 140              	.LC11:
 141 01b0 5B25735D 		.ascii	"[%s][%u][%s] HTTP HEADER ERR\015\012\000"
 141      5B25755D 
 141      5B25735D 
 141      20485454 
 141      50204845 
 142 01cf 00       		.align	2
 143              	.LC12:
 144 01d0 5B25735D 		.ascii	"[%s][%u][%s] DOWNLOAD OFFSET:%d LEN:%d SUCCESS\015\012"
 144      5B25755D 
 144      5B25735D 
 144      20444F57 
 144      4E4C4F41 
 145 0200 00       		.ascii	"\000"
 146 0201 000000   		.align	2
ARM GAS  T:\msys\tmp\cc7ptNpf.s 			page 9


 147              	.LC13:
 148 0204 5B25735D 		.ascii	"[%s][%u][%s] SAVE OFFSET:%d LEN:%d SUCCESS\015\012\000"
 148      5B25755D 
 148      5B25735D 
 148      20534156 
 148      45204F46 
 149 0231 000000   		.align	2
 150              	.LC14:
 151 0234 5B25735D 		.ascii	"[%s][%u][%s] SAVE OFFSET:%d LEN:%d FAILED\015\012\000"
 151      5B25755D 
 151      5B25735D 
 151      20534156 
 151      45204F46 
 152              		.align	2
 153              	.LC15:
 154 0260 5B25735D 		.ascii	"[%s][%u][%s] DOWNLOAD OFFSET:%d LEN:%d FAILED\015\012"
 154      5B25755D 
 154      5B25735D 
 154      20444F57 
 154      4E4C4F41 
 155 028f 00       		.ascii	"\000"
 156              		.align	2
 157              	.LC16:
 158 0290 5B25735D 		.ascii	"[%s][%u][%s] HTTPS DOWNLOAD FAILED \015\012\000"
 158      5B25755D 
 158      5B25735D 
 158      20485454 
 158      50532044 
 159 02b6 0000     		.align	2
 160              	.LC17:
 161 02b8 5B25735D 		.ascii	"[%s][%u][%s] SHA256 CHECK SUCCESS\015\012\000"
 161      5B25755D 
 161      5B25735D 
 161      20534841 
 161      32353620 
 162              		.align	2
 163              	.LC18:
 164 02dc 5B25735D 		.ascii	"[%s][%u][%s] FLAG SAVE ERR\015\012\000"
 164      5B25755D 
 164      5B25735D 
 164      20464C41 
 164      47205341 
 165 02f9 000000   		.align	2
 166              	.LC19:
 167 02fc 5B25735D 		.ascii	"[%s][%u][%s] DOWNLOAD SUCCESS AND COULD DO UPGRADIN"
 167      5B25755D 
 167      5B25735D 
 167      20444F57 
 167      4E4C4F41 
 168 032f 470D0A00 		.ascii	"G\015\012\000"
 169 0333 00       		.align	2
 170              	.LC20:
 171 0334 5B25735D 		.ascii	"[%s][%u][%s] HEADER:%s\015\012\000"
 171      5B25755D 
 171      5B25735D 
 171      20484541 
 171      4445523A 
ARM GAS  T:\msys\tmp\cc7ptNpf.s 			page 10


 172              		.section	.text.ota_https_download,"ax",%progbits
 173              		.align	1
 174              		.p2align 2,,3
 175              		.global	ota_https_download
 176              		.syntax unified
 177              		.thumb
 178              		.thumb_func
 179              		.fpu fpv4-sp-d16
 181              	ota_https_download:
 182              	.LVL9:
 183              	.LFB11:
 248:D:/fchai/work/i-cube/I-CUBE-HUAWEI/Middlewares/Third_Party/Huawei/iot_link/link_ota/download/https\ota_https.c **** 
 249:D:/fchai/work/i-cube/I-CUBE-HUAWEI/Middlewares/Third_Party/Huawei/iot_link/link_ota/download/https\ota_https.c **** ///< use the state machine to check the header
 250:D:/fchai/work/i-cube/I-CUBE-HUAWEI/Middlewares/Third_Party/Huawei/iot_link/link_ota/download/https\ota_https.c **** typedef enum
 251:D:/fchai/work/i-cube/I-CUBE-HUAWEI/Middlewares/Third_Party/Huawei/iot_link/link_ota/download/https\ota_https.c **** {
 252:D:/fchai/work/i-cube/I-CUBE-HUAWEI/Middlewares/Third_Party/Huawei/iot_link/link_ota/download/https\ota_https.c ****     EN_HEADER_STATUS_NORMAL = 0,
 253:D:/fchai/work/i-cube/I-CUBE-HUAWEI/Middlewares/Third_Party/Huawei/iot_link/link_ota/download/https\ota_https.c ****     EN_HEADER_STATUS_R,          ///< which means receive the \r
 254:D:/fchai/work/i-cube/I-CUBE-HUAWEI/Middlewares/Third_Party/Huawei/iot_link/link_ota/download/https\ota_https.c ****     EN_HEADER_STATUS_RN,         ///< which means receive the \r\n
 255:D:/fchai/work/i-cube/I-CUBE-HUAWEI/Middlewares/Third_Party/Huawei/iot_link/link_ota/download/https\ota_https.c ****     EN_HEADER_STATUS_RNR,        ///< which means receive the \r\n\r
 256:D:/fchai/work/i-cube/I-CUBE-HUAWEI/Middlewares/Third_Party/Huawei/iot_link/link_ota/download/https\ota_https.c ****     EN_HEADER_STATUS_RNRN,       ///< which means receive the \r\n\r\n
 257:D:/fchai/work/i-cube/I-CUBE-HUAWEI/Middlewares/Third_Party/Huawei/iot_link/link_ota/download/https\ota_https.c **** }en_header_status;
 258:D:/fchai/work/i-cube/I-CUBE-HUAWEI/Middlewares/Third_Party/Huawei/iot_link/link_ota/download/https\ota_https.c **** 
 259:D:/fchai/work/i-cube/I-CUBE-HUAWEI/Middlewares/Third_Party/Huawei/iot_link/link_ota/download/https\ota_https.c **** static int loop_dealheader(http_section_t *section,void *handle)
 260:D:/fchai/work/i-cube/I-CUBE-HUAWEI/Middlewares/Third_Party/Huawei/iot_link/link_ota/download/https\ota_https.c **** {
 261:D:/fchai/work/i-cube/I-CUBE-HUAWEI/Middlewares/Third_Party/Huawei/iot_link/link_ota/download/https\ota_https.c ****     int ret = -1;
 262:D:/fchai/work/i-cube/I-CUBE-HUAWEI/Middlewares/Third_Party/Huawei/iot_link/link_ota/download/https\ota_https.c ****     int offset = 0;
 263:D:/fchai/work/i-cube/I-CUBE-HUAWEI/Middlewares/Third_Party/Huawei/iot_link/link_ota/download/https\ota_https.c ****     char cur;
 264:D:/fchai/work/i-cube/I-CUBE-HUAWEI/Middlewares/Third_Party/Huawei/iot_link/link_ota/download/https\ota_https.c ****     en_header_status status = EN_HEADER_STATUS_NORMAL;
 265:D:/fchai/work/i-cube/I-CUBE-HUAWEI/Middlewares/Third_Party/Huawei/iot_link/link_ota/download/https\ota_https.c ****     while(status != EN_HEADER_STATUS_RNRN)
 266:D:/fchai/work/i-cube/I-CUBE-HUAWEI/Middlewares/Third_Party/Huawei/iot_link/link_ota/download/https\ota_https.c ****     {
 267:D:/fchai/work/i-cube/I-CUBE-HUAWEI/Middlewares/Third_Party/Huawei/iot_link/link_ota/download/https\ota_https.c ****         ret = loop_netread(handle,(uint8_t *) &cur, 1, CONFIG_HTTPS_DOWNLOADING_RWTIMEOUT);
 268:D:/fchai/work/i-cube/I-CUBE-HUAWEI/Middlewares/Third_Party/Huawei/iot_link/link_ota/download/https\ota_https.c ****         if(ret != 0)
 269:D:/fchai/work/i-cube/I-CUBE-HUAWEI/Middlewares/Third_Party/Huawei/iot_link/link_ota/download/https\ota_https.c ****         {
 270:D:/fchai/work/i-cube/I-CUBE-HUAWEI/Middlewares/Third_Party/Huawei/iot_link/link_ota/download/https\ota_https.c ****             break;
 271:D:/fchai/work/i-cube/I-CUBE-HUAWEI/Middlewares/Third_Party/Huawei/iot_link/link_ota/download/https\ota_https.c ****         }
 272:D:/fchai/work/i-cube/I-CUBE-HUAWEI/Middlewares/Third_Party/Huawei/iot_link/link_ota/download/https\ota_https.c ****         if(offset < (CONFIG_HTTPS_DOWNLOADING_BLKLEN-1))
 273:D:/fchai/work/i-cube/I-CUBE-HUAWEI/Middlewares/Third_Party/Huawei/iot_link/link_ota/download/https\ota_https.c ****         {
 274:D:/fchai/work/i-cube/I-CUBE-HUAWEI/Middlewares/Third_Party/Huawei/iot_link/link_ota/download/https\ota_https.c ****             section->cache[offset ++] = (uint8_t)cur;   ///< we should check if overblow
 275:D:/fchai/work/i-cube/I-CUBE-HUAWEI/Middlewares/Third_Party/Huawei/iot_link/link_ota/download/https\ota_https.c ****         }
 276:D:/fchai/work/i-cube/I-CUBE-HUAWEI/Middlewares/Third_Party/Huawei/iot_link/link_ota/download/https\ota_https.c **** 
 277:D:/fchai/work/i-cube/I-CUBE-HUAWEI/Middlewares/Third_Party/Huawei/iot_link/link_ota/download/https\ota_https.c ****         switch (status)
 278:D:/fchai/work/i-cube/I-CUBE-HUAWEI/Middlewares/Third_Party/Huawei/iot_link/link_ota/download/https\ota_https.c ****         {
 279:D:/fchai/work/i-cube/I-CUBE-HUAWEI/Middlewares/Third_Party/Huawei/iot_link/link_ota/download/https\ota_https.c ****             case EN_HEADER_STATUS_NORMAL:
 280:D:/fchai/work/i-cube/I-CUBE-HUAWEI/Middlewares/Third_Party/Huawei/iot_link/link_ota/download/https\ota_https.c ****                 if(cur == '\r')
 281:D:/fchai/work/i-cube/I-CUBE-HUAWEI/Middlewares/Third_Party/Huawei/iot_link/link_ota/download/https\ota_https.c ****                 {
 282:D:/fchai/work/i-cube/I-CUBE-HUAWEI/Middlewares/Third_Party/Huawei/iot_link/link_ota/download/https\ota_https.c ****                     status = EN_HEADER_STATUS_R;
 283:D:/fchai/work/i-cube/I-CUBE-HUAWEI/Middlewares/Third_Party/Huawei/iot_link/link_ota/download/https\ota_https.c ****                 }
 284:D:/fchai/work/i-cube/I-CUBE-HUAWEI/Middlewares/Third_Party/Huawei/iot_link/link_ota/download/https\ota_https.c ****                 break;
 285:D:/fchai/work/i-cube/I-CUBE-HUAWEI/Middlewares/Third_Party/Huawei/iot_link/link_ota/download/https\ota_https.c ****             case EN_HEADER_STATUS_R:
 286:D:/fchai/work/i-cube/I-CUBE-HUAWEI/Middlewares/Third_Party/Huawei/iot_link/link_ota/download/https\ota_https.c ****                 if(cur == '\n')
 287:D:/fchai/work/i-cube/I-CUBE-HUAWEI/Middlewares/Third_Party/Huawei/iot_link/link_ota/download/https\ota_https.c ****                 {
 288:D:/fchai/work/i-cube/I-CUBE-HUAWEI/Middlewares/Third_Party/Huawei/iot_link/link_ota/download/https\ota_https.c ****                     status = EN_HEADER_STATUS_RN;
 289:D:/fchai/work/i-cube/I-CUBE-HUAWEI/Middlewares/Third_Party/Huawei/iot_link/link_ota/download/https\ota_https.c ****                 }
 290:D:/fchai/work/i-cube/I-CUBE-HUAWEI/Middlewares/Third_Party/Huawei/iot_link/link_ota/download/https\ota_https.c ****                 else
 291:D:/fchai/work/i-cube/I-CUBE-HUAWEI/Middlewares/Third_Party/Huawei/iot_link/link_ota/download/https\ota_https.c ****                 {
 292:D:/fchai/work/i-cube/I-CUBE-HUAWEI/Middlewares/Third_Party/Huawei/iot_link/link_ota/download/https\ota_https.c ****                     status = EN_HEADER_STATUS_NORMAL;
 293:D:/fchai/work/i-cube/I-CUBE-HUAWEI/Middlewares/Third_Party/Huawei/iot_link/link_ota/download/https\ota_https.c ****                 }
ARM GAS  T:\msys\tmp\cc7ptNpf.s 			page 11


 294:D:/fchai/work/i-cube/I-CUBE-HUAWEI/Middlewares/Third_Party/Huawei/iot_link/link_ota/download/https\ota_https.c ****                 break;
 295:D:/fchai/work/i-cube/I-CUBE-HUAWEI/Middlewares/Third_Party/Huawei/iot_link/link_ota/download/https\ota_https.c ****             case EN_HEADER_STATUS_RN:
 296:D:/fchai/work/i-cube/I-CUBE-HUAWEI/Middlewares/Third_Party/Huawei/iot_link/link_ota/download/https\ota_https.c ****                 if(cur == '\r')
 297:D:/fchai/work/i-cube/I-CUBE-HUAWEI/Middlewares/Third_Party/Huawei/iot_link/link_ota/download/https\ota_https.c ****                 {
 298:D:/fchai/work/i-cube/I-CUBE-HUAWEI/Middlewares/Third_Party/Huawei/iot_link/link_ota/download/https\ota_https.c ****                     status = EN_HEADER_STATUS_RNR;
 299:D:/fchai/work/i-cube/I-CUBE-HUAWEI/Middlewares/Third_Party/Huawei/iot_link/link_ota/download/https\ota_https.c ****                 }
 300:D:/fchai/work/i-cube/I-CUBE-HUAWEI/Middlewares/Third_Party/Huawei/iot_link/link_ota/download/https\ota_https.c ****                 else
 301:D:/fchai/work/i-cube/I-CUBE-HUAWEI/Middlewares/Third_Party/Huawei/iot_link/link_ota/download/https\ota_https.c ****                 {
 302:D:/fchai/work/i-cube/I-CUBE-HUAWEI/Middlewares/Third_Party/Huawei/iot_link/link_ota/download/https\ota_https.c ****                     status = EN_HEADER_STATUS_NORMAL;
 303:D:/fchai/work/i-cube/I-CUBE-HUAWEI/Middlewares/Third_Party/Huawei/iot_link/link_ota/download/https\ota_https.c ****                 }
 304:D:/fchai/work/i-cube/I-CUBE-HUAWEI/Middlewares/Third_Party/Huawei/iot_link/link_ota/download/https\ota_https.c ****                 break;
 305:D:/fchai/work/i-cube/I-CUBE-HUAWEI/Middlewares/Third_Party/Huawei/iot_link/link_ota/download/https\ota_https.c ****             case EN_HEADER_STATUS_RNR:
 306:D:/fchai/work/i-cube/I-CUBE-HUAWEI/Middlewares/Third_Party/Huawei/iot_link/link_ota/download/https\ota_https.c ****                 if(cur == '\n')
 307:D:/fchai/work/i-cube/I-CUBE-HUAWEI/Middlewares/Third_Party/Huawei/iot_link/link_ota/download/https\ota_https.c ****                 {
 308:D:/fchai/work/i-cube/I-CUBE-HUAWEI/Middlewares/Third_Party/Huawei/iot_link/link_ota/download/https\ota_https.c ****                     status = EN_HEADER_STATUS_RNRN;
 309:D:/fchai/work/i-cube/I-CUBE-HUAWEI/Middlewares/Third_Party/Huawei/iot_link/link_ota/download/https\ota_https.c ****                 }
 310:D:/fchai/work/i-cube/I-CUBE-HUAWEI/Middlewares/Third_Party/Huawei/iot_link/link_ota/download/https\ota_https.c ****                 else
 311:D:/fchai/work/i-cube/I-CUBE-HUAWEI/Middlewares/Third_Party/Huawei/iot_link/link_ota/download/https\ota_https.c ****                 {
 312:D:/fchai/work/i-cube/I-CUBE-HUAWEI/Middlewares/Third_Party/Huawei/iot_link/link_ota/download/https\ota_https.c ****                     status = EN_HEADER_STATUS_NORMAL;
 313:D:/fchai/work/i-cube/I-CUBE-HUAWEI/Middlewares/Third_Party/Huawei/iot_link/link_ota/download/https\ota_https.c ****                 }
 314:D:/fchai/work/i-cube/I-CUBE-HUAWEI/Middlewares/Third_Party/Huawei/iot_link/link_ota/download/https\ota_https.c ****                 break;
 315:D:/fchai/work/i-cube/I-CUBE-HUAWEI/Middlewares/Third_Party/Huawei/iot_link/link_ota/download/https\ota_https.c ****             default:
 316:D:/fchai/work/i-cube/I-CUBE-HUAWEI/Middlewares/Third_Party/Huawei/iot_link/link_ota/download/https\ota_https.c ****                 break;
 317:D:/fchai/work/i-cube/I-CUBE-HUAWEI/Middlewares/Third_Party/Huawei/iot_link/link_ota/download/https\ota_https.c ****         }
 318:D:/fchai/work/i-cube/I-CUBE-HUAWEI/Middlewares/Third_Party/Huawei/iot_link/link_ota/download/https\ota_https.c ****     }
 319:D:/fchai/work/i-cube/I-CUBE-HUAWEI/Middlewares/Third_Party/Huawei/iot_link/link_ota/download/https\ota_https.c **** 
 320:D:/fchai/work/i-cube/I-CUBE-HUAWEI/Middlewares/Third_Party/Huawei/iot_link/link_ota/download/https\ota_https.c ****     if(offset > 0)
 321:D:/fchai/work/i-cube/I-CUBE-HUAWEI/Middlewares/Third_Party/Huawei/iot_link/link_ota/download/https\ota_https.c ****     {
 322:D:/fchai/work/i-cube/I-CUBE-HUAWEI/Middlewares/Third_Party/Huawei/iot_link/link_ota/download/https\ota_https.c ****         section->cache[offset] = '\0';
 323:D:/fchai/work/i-cube/I-CUBE-HUAWEI/Middlewares/Third_Party/Huawei/iot_link/link_ota/download/https\ota_https.c ****         LINK_LOG_DEBUG("HEADER:%s",section->cache);
 324:D:/fchai/work/i-cube/I-CUBE-HUAWEI/Middlewares/Third_Party/Huawei/iot_link/link_ota/download/https\ota_https.c ****     }
 325:D:/fchai/work/i-cube/I-CUBE-HUAWEI/Middlewares/Third_Party/Huawei/iot_link/link_ota/download/https\ota_https.c **** 
 326:D:/fchai/work/i-cube/I-CUBE-HUAWEI/Middlewares/Third_Party/Huawei/iot_link/link_ota/download/https\ota_https.c **** 
 327:D:/fchai/work/i-cube/I-CUBE-HUAWEI/Middlewares/Third_Party/Huawei/iot_link/link_ota/download/https\ota_https.c ****     return ret;
 328:D:/fchai/work/i-cube/I-CUBE-HUAWEI/Middlewares/Third_Party/Huawei/iot_link/link_ota/download/https\ota_https.c **** }
 329:D:/fchai/work/i-cube/I-CUBE-HUAWEI/Middlewares/Third_Party/Huawei/iot_link/link_ota/download/https\ota_https.c **** 
 330:D:/fchai/work/i-cube/I-CUBE-HUAWEI/Middlewares/Third_Party/Huawei/iot_link/link_ota/download/https\ota_https.c **** 
 331:D:/fchai/work/i-cube/I-CUBE-HUAWEI/Middlewares/Third_Party/Huawei/iot_link/link_ota/download/https\ota_https.c **** ///< use this function to do the request
 332:D:/fchai/work/i-cube/I-CUBE-HUAWEI/Middlewares/Third_Party/Huawei/iot_link/link_ota/download/https\ota_https.c **** static int http_getandrecv(http_section_t *section,void *handle)
 333:D:/fchai/work/i-cube/I-CUBE-HUAWEI/Middlewares/Third_Party/Huawei/iot_link/link_ota/download/https\ota_https.c **** {
 334:D:/fchai/work/i-cube/I-CUBE-HUAWEI/Middlewares/Third_Party/Huawei/iot_link/link_ota/download/https\ota_https.c ****     int ret;
 335:D:/fchai/work/i-cube/I-CUBE-HUAWEI/Middlewares/Third_Party/Huawei/iot_link/link_ota/download/https\ota_https.c ****     int len;
 336:D:/fchai/work/i-cube/I-CUBE-HUAWEI/Middlewares/Third_Party/Huawei/iot_link/link_ota/download/https\ota_https.c ****     ///< send the request
 337:D:/fchai/work/i-cube/I-CUBE-HUAWEI/Middlewares/Third_Party/Huawei/iot_link/link_ota/download/https\ota_https.c ****     len = http_makerequest(section);
 338:D:/fchai/work/i-cube/I-CUBE-HUAWEI/Middlewares/Third_Party/Huawei/iot_link/link_ota/download/https\ota_https.c ****     LINK_LOG_DEBUG("HTTPREQ:%d Bytes REQ:%s\r\n",len,section->cache);
 339:D:/fchai/work/i-cube/I-CUBE-HUAWEI/Middlewares/Third_Party/Huawei/iot_link/link_ota/download/https\ota_https.c **** 
 340:D:/fchai/work/i-cube/I-CUBE-HUAWEI/Middlewares/Third_Party/Huawei/iot_link/link_ota/download/https\ota_https.c ****     ret = loop_netwrite(handle, section->cache,len,CONFIG_HTTPS_DOWNLOADING_RWTIMEOUT);
 341:D:/fchai/work/i-cube/I-CUBE-HUAWEI/Middlewares/Third_Party/Huawei/iot_link/link_ota/download/https\ota_https.c ****     if(ret != 0)
 342:D:/fchai/work/i-cube/I-CUBE-HUAWEI/Middlewares/Third_Party/Huawei/iot_link/link_ota/download/https\ota_https.c ****     {
 343:D:/fchai/work/i-cube/I-CUBE-HUAWEI/Middlewares/Third_Party/Huawei/iot_link/link_ota/download/https\ota_https.c ****         LINK_LOG_ERROR("TLS REQUEST ERR");
 344:D:/fchai/work/i-cube/I-CUBE-HUAWEI/Middlewares/Third_Party/Huawei/iot_link/link_ota/download/https\ota_https.c ****         goto EXIT_HANDLE;
 345:D:/fchai/work/i-cube/I-CUBE-HUAWEI/Middlewares/Third_Party/Huawei/iot_link/link_ota/download/https\ota_https.c ****     }
 346:D:/fchai/work/i-cube/I-CUBE-HUAWEI/Middlewares/Third_Party/Huawei/iot_link/link_ota/download/https\ota_https.c ****     ///< WE SHOULD DEAL THE HTTP HEADER
 347:D:/fchai/work/i-cube/I-CUBE-HUAWEI/Middlewares/Third_Party/Huawei/iot_link/link_ota/download/https\ota_https.c ****     ret = loop_dealheader(section,handle);
 348:D:/fchai/work/i-cube/I-CUBE-HUAWEI/Middlewares/Third_Party/Huawei/iot_link/link_ota/download/https\ota_https.c ****     if(ret != 0)
 349:D:/fchai/work/i-cube/I-CUBE-HUAWEI/Middlewares/Third_Party/Huawei/iot_link/link_ota/download/https\ota_https.c ****     {
 350:D:/fchai/work/i-cube/I-CUBE-HUAWEI/Middlewares/Third_Party/Huawei/iot_link/link_ota/download/https\ota_https.c ****         LINK_LOG_ERROR("HTTP HEADER ERR");
ARM GAS  T:\msys\tmp\cc7ptNpf.s 			page 12


 351:D:/fchai/work/i-cube/I-CUBE-HUAWEI/Middlewares/Third_Party/Huawei/iot_link/link_ota/download/https\ota_https.c ****         goto EXIT_HANDLE;
 352:D:/fchai/work/i-cube/I-CUBE-HUAWEI/Middlewares/Third_Party/Huawei/iot_link/link_ota/download/https\ota_https.c ****     }
 353:D:/fchai/work/i-cube/I-CUBE-HUAWEI/Middlewares/Third_Party/Huawei/iot_link/link_ota/download/https\ota_https.c **** 
 354:D:/fchai/work/i-cube/I-CUBE-HUAWEI/Middlewares/Third_Party/Huawei/iot_link/link_ota/download/https\ota_https.c ****     len = section->len; ///< should check if the response matched the length--TODO
 355:D:/fchai/work/i-cube/I-CUBE-HUAWEI/Middlewares/Third_Party/Huawei/iot_link/link_ota/download/https\ota_https.c ****     ret = loop_netread(handle, section->cache,len,CONFIG_HTTPS_DOWNLOADING_RWTIMEOUT);
 356:D:/fchai/work/i-cube/I-CUBE-HUAWEI/Middlewares/Third_Party/Huawei/iot_link/link_ota/download/https\ota_https.c **** 
 357:D:/fchai/work/i-cube/I-CUBE-HUAWEI/Middlewares/Third_Party/Huawei/iot_link/link_ota/download/https\ota_https.c **** EXIT_HANDLE:
 358:D:/fchai/work/i-cube/I-CUBE-HUAWEI/Middlewares/Third_Party/Huawei/iot_link/link_ota/download/https\ota_https.c ****     return ret;
 359:D:/fchai/work/i-cube/I-CUBE-HUAWEI/Middlewares/Third_Party/Huawei/iot_link/link_ota/download/https\ota_https.c **** }
 360:D:/fchai/work/i-cube/I-CUBE-HUAWEI/Middlewares/Third_Party/Huawei/iot_link/link_ota/download/https\ota_https.c **** 
 361:D:/fchai/work/i-cube/I-CUBE-HUAWEI/Middlewares/Third_Party/Huawei/iot_link/link_ota/download/https\ota_https.c **** ///< use this function to do the request and do the storage
 362:D:/fchai/work/i-cube/I-CUBE-HUAWEI/Middlewares/Third_Party/Huawei/iot_link/link_ota/download/https\ota_https.c **** static int http_dealsection(http_section_t *section,void *handle,en_ota_type_t otatype)
 363:D:/fchai/work/i-cube/I-CUBE-HUAWEI/Middlewares/Third_Party/Huawei/iot_link/link_ota/download/https\ota_https.c **** {
 364:D:/fchai/work/i-cube/I-CUBE-HUAWEI/Middlewares/Third_Party/Huawei/iot_link/link_ota/download/https\ota_https.c ****     int ret;
 365:D:/fchai/work/i-cube/I-CUBE-HUAWEI/Middlewares/Third_Party/Huawei/iot_link/link_ota/download/https\ota_https.c **** 
 366:D:/fchai/work/i-cube/I-CUBE-HUAWEI/Middlewares/Third_Party/Huawei/iot_link/link_ota/download/https\ota_https.c ****     ret = http_getandrecv(section, handle);
 367:D:/fchai/work/i-cube/I-CUBE-HUAWEI/Middlewares/Third_Party/Huawei/iot_link/link_ota/download/https\ota_https.c ****     if(ret == 0)
 368:D:/fchai/work/i-cube/I-CUBE-HUAWEI/Middlewares/Third_Party/Huawei/iot_link/link_ota/download/https\ota_https.c ****     {
 369:D:/fchai/work/i-cube/I-CUBE-HUAWEI/Middlewares/Third_Party/Huawei/iot_link/link_ota/download/https\ota_https.c ****         LINK_LOG_DEBUG("DOWNLOAD OFFSET:%d LEN:%d SUCCESS",section->offset, section->len);
 370:D:/fchai/work/i-cube/I-CUBE-HUAWEI/Middlewares/Third_Party/Huawei/iot_link/link_ota/download/https\ota_https.c **** 
 371:D:/fchai/work/i-cube/I-CUBE-HUAWEI/Middlewares/Third_Party/Huawei/iot_link/link_ota/download/https\ota_https.c ****         ret = ota_img_write(otatype, EN_OTA_IMG_DOWNLOAD, section->offset, section->cache, section-
 372:D:/fchai/work/i-cube/I-CUBE-HUAWEI/Middlewares/Third_Party/Huawei/iot_link/link_ota/download/https\ota_https.c ****         if( ret == 0)
 373:D:/fchai/work/i-cube/I-CUBE-HUAWEI/Middlewares/Third_Party/Huawei/iot_link/link_ota/download/https\ota_https.c ****         {
 374:D:/fchai/work/i-cube/I-CUBE-HUAWEI/Middlewares/Third_Party/Huawei/iot_link/link_ota/download/https\ota_https.c ****             LINK_LOG_DEBUG("SAVE OFFSET:%d LEN:%d SUCCESS",section->offset, section->len);
 375:D:/fchai/work/i-cube/I-CUBE-HUAWEI/Middlewares/Third_Party/Huawei/iot_link/link_ota/download/https\ota_https.c ****         }
 376:D:/fchai/work/i-cube/I-CUBE-HUAWEI/Middlewares/Third_Party/Huawei/iot_link/link_ota/download/https\ota_https.c ****         else
 377:D:/fchai/work/i-cube/I-CUBE-HUAWEI/Middlewares/Third_Party/Huawei/iot_link/link_ota/download/https\ota_https.c ****         {
 378:D:/fchai/work/i-cube/I-CUBE-HUAWEI/Middlewares/Third_Party/Huawei/iot_link/link_ota/download/https\ota_https.c ****             LINK_LOG_ERROR("SAVE OFFSET:%d LEN:%d FAILED",section->offset, section->len);
 379:D:/fchai/work/i-cube/I-CUBE-HUAWEI/Middlewares/Third_Party/Huawei/iot_link/link_ota/download/https\ota_https.c ****         }
 380:D:/fchai/work/i-cube/I-CUBE-HUAWEI/Middlewares/Third_Party/Huawei/iot_link/link_ota/download/https\ota_https.c ****     }
 381:D:/fchai/work/i-cube/I-CUBE-HUAWEI/Middlewares/Third_Party/Huawei/iot_link/link_ota/download/https\ota_https.c ****     else
 382:D:/fchai/work/i-cube/I-CUBE-HUAWEI/Middlewares/Third_Party/Huawei/iot_link/link_ota/download/https\ota_https.c ****     {
 383:D:/fchai/work/i-cube/I-CUBE-HUAWEI/Middlewares/Third_Party/Huawei/iot_link/link_ota/download/https\ota_https.c ****         LINK_LOG_ERROR("DOWNLOAD OFFSET:%d LEN:%d FAILED",section->offset, section->len);
 384:D:/fchai/work/i-cube/I-CUBE-HUAWEI/Middlewares/Third_Party/Huawei/iot_link/link_ota/download/https\ota_https.c ****     }
 385:D:/fchai/work/i-cube/I-CUBE-HUAWEI/Middlewares/Third_Party/Huawei/iot_link/link_ota/download/https\ota_https.c ****     return ret;
 386:D:/fchai/work/i-cube/I-CUBE-HUAWEI/Middlewares/Third_Party/Huawei/iot_link/link_ota/download/https\ota_https.c **** }
 387:D:/fchai/work/i-cube/I-CUBE-HUAWEI/Middlewares/Third_Party/Huawei/iot_link/link_ota/download/https\ota_https.c **** 
 388:D:/fchai/work/i-cube/I-CUBE-HUAWEI/Middlewares/Third_Party/Huawei/iot_link/link_ota/download/https\ota_https.c **** ///< download the file by split it to sections
 389:D:/fchai/work/i-cube/I-CUBE-HUAWEI/Middlewares/Third_Party/Huawei/iot_link/link_ota/download/https\ota_https.c **** static int https_filedownload(ota_https_para_t  *param,http_section_t *section)
 390:D:/fchai/work/i-cube/I-CUBE-HUAWEI/Middlewares/Third_Party/Huawei/iot_link/link_ota/download/https\ota_https.c **** {
 391:D:/fchai/work/i-cube/I-CUBE-HUAWEI/Middlewares/Third_Party/Huawei/iot_link/link_ota/download/https\ota_https.c ****     int ret = 1;
 392:D:/fchai/work/i-cube/I-CUBE-HUAWEI/Middlewares/Third_Party/Huawei/iot_link/link_ota/download/https\ota_https.c ****     int file_off;
 393:D:/fchai/work/i-cube/I-CUBE-HUAWEI/Middlewares/Third_Party/Huawei/iot_link/link_ota/download/https\ota_https.c ****     int file_lenleft;
 394:D:/fchai/work/i-cube/I-CUBE-HUAWEI/Middlewares/Third_Party/Huawei/iot_link/link_ota/download/https\ota_https.c ****     dtls_al_para_t dtls_para;
 395:D:/fchai/work/i-cube/I-CUBE-HUAWEI/Middlewares/Third_Party/Huawei/iot_link/link_ota/download/https\ota_https.c ****     void *handle = NULL;
 396:D:/fchai/work/i-cube/I-CUBE-HUAWEI/Middlewares/Third_Party/Huawei/iot_link/link_ota/download/https\ota_https.c ****     int try_times = 0;
 397:D:/fchai/work/i-cube/I-CUBE-HUAWEI/Middlewares/Third_Party/Huawei/iot_link/link_ota/download/https\ota_https.c **** 
 398:D:/fchai/work/i-cube/I-CUBE-HUAWEI/Middlewares/Third_Party/Huawei/iot_link/link_ota/download/https\ota_https.c ****     ret = ota_img_erase(param->ota_type,EN_OTA_IMG_DOWNLOAD);
 399:D:/fchai/work/i-cube/I-CUBE-HUAWEI/Middlewares/Third_Party/Huawei/iot_link/link_ota/download/https\ota_https.c ****     if(ret != 0 )
 400:D:/fchai/work/i-cube/I-CUBE-HUAWEI/Middlewares/Third_Party/Huawei/iot_link/link_ota/download/https\ota_https.c ****     {
 401:D:/fchai/work/i-cube/I-CUBE-HUAWEI/Middlewares/Third_Party/Huawei/iot_link/link_ota/download/https\ota_https.c ****         LINK_LOG_ERROR("Erase the download img failed");
 402:D:/fchai/work/i-cube/I-CUBE-HUAWEI/Middlewares/Third_Party/Huawei/iot_link/link_ota/download/https\ota_https.c ****         goto EXIT_ERASE;
 403:D:/fchai/work/i-cube/I-CUBE-HUAWEI/Middlewares/Third_Party/Huawei/iot_link/link_ota/download/https\ota_https.c ****     }
 404:D:/fchai/work/i-cube/I-CUBE-HUAWEI/Middlewares/Third_Party/Huawei/iot_link/link_ota/download/https\ota_https.c ****     else
 405:D:/fchai/work/i-cube/I-CUBE-HUAWEI/Middlewares/Third_Party/Huawei/iot_link/link_ota/download/https\ota_https.c ****     {
 406:D:/fchai/work/i-cube/I-CUBE-HUAWEI/Middlewares/Third_Party/Huawei/iot_link/link_ota/download/https\ota_https.c ****         LINK_LOG_DEBUG("Erase the download img SUCCESS");
 407:D:/fchai/work/i-cube/I-CUBE-HUAWEI/Middlewares/Third_Party/Huawei/iot_link/link_ota/download/https\ota_https.c ****     }
ARM GAS  T:\msys\tmp\cc7ptNpf.s 			page 13


 408:D:/fchai/work/i-cube/I-CUBE-HUAWEI/Middlewares/Third_Party/Huawei/iot_link/link_ota/download/https\ota_https.c **** 
 409:D:/fchai/work/i-cube/I-CUBE-HUAWEI/Middlewares/Third_Party/Huawei/iot_link/link_ota/download/https\ota_https.c ****     file_off = 0;
 410:D:/fchai/work/i-cube/I-CUBE-HUAWEI/Middlewares/Third_Party/Huawei/iot_link/link_ota/download/https\ota_https.c ****     file_lenleft = param->file_size;
 411:D:/fchai/work/i-cube/I-CUBE-HUAWEI/Middlewares/Third_Party/Huawei/iot_link/link_ota/download/https\ota_https.c **** 
 412:D:/fchai/work/i-cube/I-CUBE-HUAWEI/Middlewares/Third_Party/Huawei/iot_link/link_ota/download/https\ota_https.c ****     while((try_times < CONFIG_HTTP_DOWNLOADING_TRYTIMES) && (file_lenleft > 0))
 413:D:/fchai/work/i-cube/I-CUBE-HUAWEI/Middlewares/Third_Party/Huawei/iot_link/link_ota/download/https\ota_https.c ****     {
 414:D:/fchai/work/i-cube/I-CUBE-HUAWEI/Middlewares/Third_Party/Huawei/iot_link/link_ota/download/https\ota_https.c ****         try_times++;
 415:D:/fchai/work/i-cube/I-CUBE-HUAWEI/Middlewares/Third_Party/Huawei/iot_link/link_ota/download/https\ota_https.c **** 
 416:D:/fchai/work/i-cube/I-CUBE-HUAWEI/Middlewares/Third_Party/Huawei/iot_link/link_ota/download/https\ota_https.c ****         (void) memset( &dtls_para,0, sizeof(dtls_para));
 417:D:/fchai/work/i-cube/I-CUBE-HUAWEI/Middlewares/Third_Party/Huawei/iot_link/link_ota/download/https\ota_https.c ****         dtls_para.security.type = EN_DTLS_AL_SECURITY_TYPE_CERT;
 418:D:/fchai/work/i-cube/I-CUBE-HUAWEI/Middlewares/Third_Party/Huawei/iot_link/link_ota/download/https\ota_https.c ****         dtls_para.istcp = 1;
 419:D:/fchai/work/i-cube/I-CUBE-HUAWEI/Middlewares/Third_Party/Huawei/iot_link/link_ota/download/https\ota_https.c ****         dtls_para.isclient = 1;
 420:D:/fchai/work/i-cube/I-CUBE-HUAWEI/Middlewares/Third_Party/Huawei/iot_link/link_ota/download/https\ota_https.c ****         dtls_para.security.u.cert.server_ca = (uint8_t *)g_https_serverca;
 421:D:/fchai/work/i-cube/I-CUBE-HUAWEI/Middlewares/Third_Party/Huawei/iot_link/link_ota/download/https\ota_https.c ****         dtls_para.security.u.cert.server_ca_len = sizeof(g_https_serverca);
 422:D:/fchai/work/i-cube/I-CUBE-HUAWEI/Middlewares/Third_Party/Huawei/iot_link/link_ota/download/https\ota_https.c **** 
 423:D:/fchai/work/i-cube/I-CUBE-HUAWEI/Middlewares/Third_Party/Huawei/iot_link/link_ota/download/https\ota_https.c ****         if(EN_DTLS_AL_ERR_OK != dtls_al_new(&dtls_para,&handle))
 424:D:/fchai/work/i-cube/I-CUBE-HUAWEI/Middlewares/Third_Party/Huawei/iot_link/link_ota/download/https\ota_https.c ****         {
 425:D:/fchai/work/i-cube/I-CUBE-HUAWEI/Middlewares/Third_Party/Huawei/iot_link/link_ota/download/https\ota_https.c ****             LINK_LOG_ERROR("TLS HANDLE BUILD ERR");
 426:D:/fchai/work/i-cube/I-CUBE-HUAWEI/Middlewares/Third_Party/Huawei/iot_link/link_ota/download/https\ota_https.c ****             continue;
 427:D:/fchai/work/i-cube/I-CUBE-HUAWEI/Middlewares/Third_Party/Huawei/iot_link/link_ota/download/https\ota_https.c ****         }
 428:D:/fchai/work/i-cube/I-CUBE-HUAWEI/Middlewares/Third_Party/Huawei/iot_link/link_ota/download/https\ota_https.c **** 
 429:D:/fchai/work/i-cube/I-CUBE-HUAWEI/Middlewares/Third_Party/Huawei/iot_link/link_ota/download/https\ota_https.c ****         ret = dtls_al_connect( handle, section->host, section->port, CONFIG_HTTPS_DOWNLOADING_RWTIM
 430:D:/fchai/work/i-cube/I-CUBE-HUAWEI/Middlewares/Third_Party/Huawei/iot_link/link_ota/download/https\ota_https.c ****         if (ret != EN_DTLS_AL_ERR_OK)
 431:D:/fchai/work/i-cube/I-CUBE-HUAWEI/Middlewares/Third_Party/Huawei/iot_link/link_ota/download/https\ota_https.c ****         {
 432:D:/fchai/work/i-cube/I-CUBE-HUAWEI/Middlewares/Third_Party/Huawei/iot_link/link_ota/download/https\ota_https.c ****             LINK_LOG_ERROR("TLS CONNECT ERR");
 433:D:/fchai/work/i-cube/I-CUBE-HUAWEI/Middlewares/Third_Party/Huawei/iot_link/link_ota/download/https\ota_https.c ****             goto EXIT_TLSCONNECT;
 434:D:/fchai/work/i-cube/I-CUBE-HUAWEI/Middlewares/Third_Party/Huawei/iot_link/link_ota/download/https\ota_https.c ****         }
 435:D:/fchai/work/i-cube/I-CUBE-HUAWEI/Middlewares/Third_Party/Huawei/iot_link/link_ota/download/https\ota_https.c **** 
 436:D:/fchai/work/i-cube/I-CUBE-HUAWEI/Middlewares/Third_Party/Huawei/iot_link/link_ota/download/https\ota_https.c ****         while(file_lenleft > 0)
 437:D:/fchai/work/i-cube/I-CUBE-HUAWEI/Middlewares/Third_Party/Huawei/iot_link/link_ota/download/https\ota_https.c ****         {
 438:D:/fchai/work/i-cube/I-CUBE-HUAWEI/Middlewares/Third_Party/Huawei/iot_link/link_ota/download/https\ota_https.c ****             section->offset = file_off;
 439:D:/fchai/work/i-cube/I-CUBE-HUAWEI/Middlewares/Third_Party/Huawei/iot_link/link_ota/download/https\ota_https.c ****             section->len = file_lenleft > CONFIG_HTTPS_DOWNLOADING_BLKLEN?CONFIG_HTTPS_DOWNLOADING_
 440:D:/fchai/work/i-cube/I-CUBE-HUAWEI/Middlewares/Third_Party/Huawei/iot_link/link_ota/download/https\ota_https.c **** 
 441:D:/fchai/work/i-cube/I-CUBE-HUAWEI/Middlewares/Third_Party/Huawei/iot_link/link_ota/download/https\ota_https.c ****             ret = http_dealsection(section, handle, param->ota_type);
 442:D:/fchai/work/i-cube/I-CUBE-HUAWEI/Middlewares/Third_Party/Huawei/iot_link/link_ota/download/https\ota_https.c ****             if(0 == ret)
 443:D:/fchai/work/i-cube/I-CUBE-HUAWEI/Middlewares/Third_Party/Huawei/iot_link/link_ota/download/https\ota_https.c ****             {
 444:D:/fchai/work/i-cube/I-CUBE-HUAWEI/Middlewares/Third_Party/Huawei/iot_link/link_ota/download/https\ota_https.c ****                 file_lenleft -= section->len;
 445:D:/fchai/work/i-cube/I-CUBE-HUAWEI/Middlewares/Third_Party/Huawei/iot_link/link_ota/download/https\ota_https.c ****                 file_off += section->len;
 446:D:/fchai/work/i-cube/I-CUBE-HUAWEI/Middlewares/Third_Party/Huawei/iot_link/link_ota/download/https\ota_https.c ****                 if(param->report_progress != NULL)
 447:D:/fchai/work/i-cube/I-CUBE-HUAWEI/Middlewares/Third_Party/Huawei/iot_link/link_ota/download/https\ota_https.c ****                 {
 448:D:/fchai/work/i-cube/I-CUBE-HUAWEI/Middlewares/Third_Party/Huawei/iot_link/link_ota/download/https\ota_https.c ****                 	param->report_progress(0, param->file_size, file_off);
 449:D:/fchai/work/i-cube/I-CUBE-HUAWEI/Middlewares/Third_Party/Huawei/iot_link/link_ota/download/https\ota_https.c ****                 }
 450:D:/fchai/work/i-cube/I-CUBE-HUAWEI/Middlewares/Third_Party/Huawei/iot_link/link_ota/download/https\ota_https.c ****             }
 451:D:/fchai/work/i-cube/I-CUBE-HUAWEI/Middlewares/Third_Party/Huawei/iot_link/link_ota/download/https\ota_https.c ****             else
 452:D:/fchai/work/i-cube/I-CUBE-HUAWEI/Middlewares/Third_Party/Huawei/iot_link/link_ota/download/https\ota_https.c ****             {
 453:D:/fchai/work/i-cube/I-CUBE-HUAWEI/Middlewares/Third_Party/Huawei/iot_link/link_ota/download/https\ota_https.c ****                 break;
 454:D:/fchai/work/i-cube/I-CUBE-HUAWEI/Middlewares/Third_Party/Huawei/iot_link/link_ota/download/https\ota_https.c ****             }
 455:D:/fchai/work/i-cube/I-CUBE-HUAWEI/Middlewares/Third_Party/Huawei/iot_link/link_ota/download/https\ota_https.c ****         }
 456:D:/fchai/work/i-cube/I-CUBE-HUAWEI/Middlewares/Third_Party/Huawei/iot_link/link_ota/download/https\ota_https.c **** 
 457:D:/fchai/work/i-cube/I-CUBE-HUAWEI/Middlewares/Third_Party/Huawei/iot_link/link_ota/download/https\ota_https.c **** EXIT_TLSCONNECT:
 458:D:/fchai/work/i-cube/I-CUBE-HUAWEI/Middlewares/Third_Party/Huawei/iot_link/link_ota/download/https\ota_https.c ****         dtls_al_destroy(handle);
 459:D:/fchai/work/i-cube/I-CUBE-HUAWEI/Middlewares/Third_Party/Huawei/iot_link/link_ota/download/https\ota_https.c ****     }
 460:D:/fchai/work/i-cube/I-CUBE-HUAWEI/Middlewares/Third_Party/Huawei/iot_link/link_ota/download/https\ota_https.c **** 
 461:D:/fchai/work/i-cube/I-CUBE-HUAWEI/Middlewares/Third_Party/Huawei/iot_link/link_ota/download/https\ota_https.c ****     (void)ota_img_flush(param->ota_type, EN_OTA_IMG_DOWNLOAD);
 462:D:/fchai/work/i-cube/I-CUBE-HUAWEI/Middlewares/Third_Party/Huawei/iot_link/link_ota/download/https\ota_https.c ****     if(file_lenleft == 0)
 463:D:/fchai/work/i-cube/I-CUBE-HUAWEI/Middlewares/Third_Party/Huawei/iot_link/link_ota/download/https\ota_https.c ****     {
 464:D:/fchai/work/i-cube/I-CUBE-HUAWEI/Middlewares/Third_Party/Huawei/iot_link/link_ota/download/https\ota_https.c ****         ret = 0;
ARM GAS  T:\msys\tmp\cc7ptNpf.s 			page 14


 465:D:/fchai/work/i-cube/I-CUBE-HUAWEI/Middlewares/Third_Party/Huawei/iot_link/link_ota/download/https\ota_https.c ****     }
 466:D:/fchai/work/i-cube/I-CUBE-HUAWEI/Middlewares/Third_Party/Huawei/iot_link/link_ota/download/https\ota_https.c ****     else
 467:D:/fchai/work/i-cube/I-CUBE-HUAWEI/Middlewares/Third_Party/Huawei/iot_link/link_ota/download/https\ota_https.c ****     {
 468:D:/fchai/work/i-cube/I-CUBE-HUAWEI/Middlewares/Third_Party/Huawei/iot_link/link_ota/download/https\ota_https.c ****         ret = -1;
 469:D:/fchai/work/i-cube/I-CUBE-HUAWEI/Middlewares/Third_Party/Huawei/iot_link/link_ota/download/https\ota_https.c ****     }
 470:D:/fchai/work/i-cube/I-CUBE-HUAWEI/Middlewares/Third_Party/Huawei/iot_link/link_ota/download/https\ota_https.c **** 
 471:D:/fchai/work/i-cube/I-CUBE-HUAWEI/Middlewares/Third_Party/Huawei/iot_link/link_ota/download/https\ota_https.c **** EXIT_ERASE:
 472:D:/fchai/work/i-cube/I-CUBE-HUAWEI/Middlewares/Third_Party/Huawei/iot_link/link_ota/download/https\ota_https.c ****     return ret;
 473:D:/fchai/work/i-cube/I-CUBE-HUAWEI/Middlewares/Third_Party/Huawei/iot_link/link_ota/download/https\ota_https.c **** }
 474:D:/fchai/work/i-cube/I-CUBE-HUAWEI/Middlewares/Third_Party/Huawei/iot_link/link_ota/download/https\ota_https.c **** 
 475:D:/fchai/work/i-cube/I-CUBE-HUAWEI/Middlewares/Third_Party/Huawei/iot_link/link_ota/download/https\ota_https.c **** ///< return 0 success while -1 failed;
 476:D:/fchai/work/i-cube/I-CUBE-HUAWEI/Middlewares/Third_Party/Huawei/iot_link/link_ota/download/https\ota_https.c **** int ota_https_download(ota_https_para_t *param)
 477:D:/fchai/work/i-cube/I-CUBE-HUAWEI/Middlewares/Third_Party/Huawei/iot_link/link_ota/download/https\ota_https.c **** {
 184              		.loc 1 477 1 is_stmt 1 view -0
 185              		.cfi_startproc
 186              		@ args = 0, pretend = 0, frame = 256
 187              		@ frame_needed = 0, uses_anonymous_args = 0
 478:D:/fchai/work/i-cube/I-CUBE-HUAWEI/Middlewares/Third_Party/Huawei/iot_link/link_ota/download/https\ota_https.c ****     int ret = -1;
 188              		.loc 1 478 5 view .LVU25
 479:D:/fchai/work/i-cube/I-CUBE-HUAWEI/Middlewares/Third_Party/Huawei/iot_link/link_ota/download/https\ota_https.c ****     http_section_t *section;
 189              		.loc 1 479 5 view .LVU26
 480:D:/fchai/work/i-cube/I-CUBE-HUAWEI/Middlewares/Third_Party/Huawei/iot_link/link_ota/download/https\ota_https.c ****     ota_flag_t     otaflag;
 190              		.loc 1 480 5 view .LVU27
 481:D:/fchai/work/i-cube/I-CUBE-HUAWEI/Middlewares/Third_Party/Huawei/iot_link/link_ota/download/https\ota_https.c **** 
 482:D:/fchai/work/i-cube/I-CUBE-HUAWEI/Middlewares/Third_Party/Huawei/iot_link/link_ota/download/https\ota_https.c ****     ret = ota_flag_get(param->ota_type, &otaflag);
 191              		.loc 1 482 5 view .LVU28
 477:D:/fchai/work/i-cube/I-CUBE-HUAWEI/Middlewares/Third_Party/Huawei/iot_link/link_ota/download/https\ota_https.c ****     int ret = -1;
 192              		.loc 1 477 1 is_stmt 0 view .LVU29
 193 0000 2DE9F04F 		push	{r4, r5, r6, r7, r8, r9, r10, fp, lr}
 194              	.LCFI1:
 195              		.cfi_def_cfa_offset 36
 196              		.cfi_offset 4, -36
 197              		.cfi_offset 5, -32
 198              		.cfi_offset 6, -28
 199              		.cfi_offset 7, -24
 200              		.cfi_offset 8, -20
 201              		.cfi_offset 9, -16
 202              		.cfi_offset 10, -12
 203              		.cfi_offset 11, -8
 204              		.cfi_offset 14, -4
 205 0004 2DED028B 		vpush.64	{d8}
 206              	.LCFI2:
 207              		.cfi_def_cfa_offset 44
 208              		.cfi_offset 80, -44
 209              		.cfi_offset 81, -40
 210 0008 C7B0     		sub	sp, sp, #284
 211              	.LCFI3:
 212              		.cfi_def_cfa_offset 328
 477:D:/fchai/work/i-cube/I-CUBE-HUAWEI/Middlewares/Third_Party/Huawei/iot_link/link_ota/download/https\ota_https.c ****     int ret = -1;
 213              		.loc 1 477 1 view .LVU30
 214 000a 0646     		mov	r6, r0
 215              		.loc 1 482 11 view .LVU31
 216 000c 19A9     		add	r1, sp, #100
 217 000e 007F     		ldrb	r0, [r0, #28]	@ zero_extendqisi2
 218              	.LVL10:
 219              		.loc 1 482 11 view .LVU32
 220 0010 FFF7FEFF 		bl	ota_flag_get
ARM GAS  T:\msys\tmp\cc7ptNpf.s 			page 15


 221              	.LVL11:
 483:D:/fchai/work/i-cube/I-CUBE-HUAWEI/Middlewares/Third_Party/Huawei/iot_link/link_ota/download/https\ota_https.c ****     if(ret != 0 )
 222              		.loc 1 483 5 is_stmt 1 view .LVU33
 223              		.loc 1 483 7 is_stmt 0 view .LVU34
 224 0014 0546     		mov	r5, r0
 225 0016 0028     		cmp	r0, #0
 226 0018 40F04982 		bne	.L98
 484:D:/fchai/work/i-cube/I-CUBE-HUAWEI/Middlewares/Third_Party/Huawei/iot_link/link_ota/download/https\ota_https.c ****     {
 485:D:/fchai/work/i-cube/I-CUBE-HUAWEI/Middlewares/Third_Party/Huawei/iot_link/link_ota/download/https\ota_https.c ****         LINK_LOG_ERROR("GET OTA FLAG FAILED");
 486:D:/fchai/work/i-cube/I-CUBE-HUAWEI/Middlewares/Third_Party/Huawei/iot_link/link_ota/download/https\ota_https.c ****         goto EXIT_FLAGGET;
 487:D:/fchai/work/i-cube/I-CUBE-HUAWEI/Middlewares/Third_Party/Huawei/iot_link/link_ota/download/https\ota_https.c ****     }
 488:D:/fchai/work/i-cube/I-CUBE-HUAWEI/Middlewares/Third_Party/Huawei/iot_link/link_ota/download/https\ota_https.c **** 
 489:D:/fchai/work/i-cube/I-CUBE-HUAWEI/Middlewares/Third_Party/Huawei/iot_link/link_ota/download/https\ota_https.c ****     section = http_decodeurl(param);
 227              		.loc 1 489 5 is_stmt 1 view .LVU35
 228              		.loc 1 489 15 is_stmt 0 view .LVU36
 229 001c 3468     		ldr	r4, [r6]
 230              	.LBB16:
 231              	.LBI16:
 121:D:/fchai/work/i-cube/I-CUBE-HUAWEI/Middlewares/Third_Party/Huawei/iot_link/link_ota/download/https\ota_https.c **** {
 232              		.loc 1 121 24 is_stmt 1 view .LVU37
 233              	.LVL12:
 234              	.LBB17:
 123:D:/fchai/work/i-cube/I-CUBE-HUAWEI/Middlewares/Third_Party/Huawei/iot_link/link_ota/download/https\ota_https.c ****     const char *host_start;
 235              		.loc 1 123 5 view .LVU38
 124:D:/fchai/work/i-cube/I-CUBE-HUAWEI/Middlewares/Third_Party/Huawei/iot_link/link_ota/download/https\ota_https.c ****     const char *host_end;
 236              		.loc 1 124 5 view .LVU39
 125:D:/fchai/work/i-cube/I-CUBE-HUAWEI/Middlewares/Third_Party/Huawei/iot_link/link_ota/download/https\ota_https.c ****     const char *port_start;
 237              		.loc 1 125 5 view .LVU40
 126:D:/fchai/work/i-cube/I-CUBE-HUAWEI/Middlewares/Third_Party/Huawei/iot_link/link_ota/download/https\ota_https.c ****     const char *port_end;
 238              		.loc 1 126 5 view .LVU41
 127:D:/fchai/work/i-cube/I-CUBE-HUAWEI/Middlewares/Third_Party/Huawei/iot_link/link_ota/download/https\ota_https.c ****     const char *urlre_start;
 239              		.loc 1 127 5 view .LVU42
 128:D:/fchai/work/i-cube/I-CUBE-HUAWEI/Middlewares/Third_Party/Huawei/iot_link/link_ota/download/https\ota_https.c ****     const char *urlre_end;
 240              		.loc 1 128 5 view .LVU43
 129:D:/fchai/work/i-cube/I-CUBE-HUAWEI/Middlewares/Third_Party/Huawei/iot_link/link_ota/download/https\ota_https.c ****     char *tmp,*tmp_ret;
 241              		.loc 1 129 5 view .LVU44
 130:D:/fchai/work/i-cube/I-CUBE-HUAWEI/Middlewares/Third_Party/Huawei/iot_link/link_ota/download/https\ota_https.c ****     int  len;
 242              		.loc 1 130 5 view .LVU45
 131:D:/fchai/work/i-cube/I-CUBE-HUAWEI/Middlewares/Third_Party/Huawei/iot_link/link_ota/download/https\ota_https.c **** 
 243              		.loc 1 131 5 view .LVU46
 133:D:/fchai/work/i-cube/I-CUBE-HUAWEI/Middlewares/Third_Party/Huawei/iot_link/link_ota/download/https\ota_https.c ****     tmp_ret = strstr(tmp,CN_URL_HOST_INDEX);
 244              		.loc 1 133 5 view .LVU47
 134:D:/fchai/work/i-cube/I-CUBE-HUAWEI/Middlewares/Third_Party/Huawei/iot_link/link_ota/download/https\ota_https.c ****     if(NULL == tmp_ret)
 245              		.loc 1 134 5 view .LVU48
 134:D:/fchai/work/i-cube/I-CUBE-HUAWEI/Middlewares/Third_Party/Huawei/iot_link/link_ota/download/https\ota_https.c ****     if(NULL == tmp_ret)
 246              		.loc 1 134 15 is_stmt 0 view .LVU49
 247 001e B849     		ldr	r1, .L113
 248 0020 2046     		mov	r0, r4
 249              	.LVL13:
 134:D:/fchai/work/i-cube/I-CUBE-HUAWEI/Middlewares/Third_Party/Huawei/iot_link/link_ota/download/https\ota_https.c ****     if(NULL == tmp_ret)
 250              		.loc 1 134 15 view .LVU50
 251 0022 FFF7FEFF 		bl	strstr
 252              	.LVL14:
 135:D:/fchai/work/i-cube/I-CUBE-HUAWEI/Middlewares/Third_Party/Huawei/iot_link/link_ota/download/https\ota_https.c ****     {
 253              		.loc 1 135 5 is_stmt 1 view .LVU51
 135:D:/fchai/work/i-cube/I-CUBE-HUAWEI/Middlewares/Third_Party/Huawei/iot_link/link_ota/download/https\ota_https.c ****     {
 254              		.loc 1 135 7 is_stmt 0 view .LVU52
ARM GAS  T:\msys\tmp\cc7ptNpf.s 			page 16


 255 0026 0028     		cmp	r0, #0
 256 0028 00F0B582 		beq	.L13
 139:D:/fchai/work/i-cube/I-CUBE-HUAWEI/Middlewares/Third_Party/Huawei/iot_link/link_ota/download/https\ota_https.c **** 
 257              		.loc 1 139 5 is_stmt 1 view .LVU53
 139:D:/fchai/work/i-cube/I-CUBE-HUAWEI/Middlewares/Third_Party/Huawei/iot_link/link_ota/download/https\ota_https.c **** 
 258              		.loc 1 139 16 is_stmt 0 view .LVU54
 259 002c 00F1080B 		add	fp, r0, #8
 260              	.LVL15:
 141:D:/fchai/work/i-cube/I-CUBE-HUAWEI/Middlewares/Third_Party/Huawei/iot_link/link_ota/download/https\ota_https.c ****     tmp_ret = strstr(tmp,CN_URL_PORT_INDEX);
 261              		.loc 1 141 5 is_stmt 1 view .LVU55
 142:D:/fchai/work/i-cube/I-CUBE-HUAWEI/Middlewares/Third_Party/Huawei/iot_link/link_ota/download/https\ota_https.c ****     if(NULL == tmp_ret)
 262              		.loc 1 142 5 view .LVU56
 142:D:/fchai/work/i-cube/I-CUBE-HUAWEI/Middlewares/Third_Party/Huawei/iot_link/link_ota/download/https\ota_https.c ****     if(NULL == tmp_ret)
 263              		.loc 1 142 15 is_stmt 0 view .LVU57
 264 0030 3A21     		movs	r1, #58
 265 0032 5846     		mov	r0, fp
 266              	.LVL16:
 142:D:/fchai/work/i-cube/I-CUBE-HUAWEI/Middlewares/Third_Party/Huawei/iot_link/link_ota/download/https\ota_https.c ****     if(NULL == tmp_ret)
 267              		.loc 1 142 15 view .LVU58
 268 0034 FFF7FEFF 		bl	strchr
 269              	.LVL17:
 143:D:/fchai/work/i-cube/I-CUBE-HUAWEI/Middlewares/Third_Party/Huawei/iot_link/link_ota/download/https\ota_https.c ****     {
 270              		.loc 1 143 5 is_stmt 1 view .LVU59
 148:D:/fchai/work/i-cube/I-CUBE-HUAWEI/Middlewares/Third_Party/Huawei/iot_link/link_ota/download/https\ota_https.c ****         if(NULL == tmp_ret)
 271              		.loc 1 148 19 is_stmt 0 view .LVU60
 272 0038 2F21     		movs	r1, #47
 143:D:/fchai/work/i-cube/I-CUBE-HUAWEI/Middlewares/Third_Party/Huawei/iot_link/link_ota/download/https\ota_https.c ****     {
 273              		.loc 1 143 7 view .LVU61
 274 003a 0028     		cmp	r0, #0
 275 003c 00F08682 		beq	.L99
 159:D:/fchai/work/i-cube/I-CUBE-HUAWEI/Middlewares/Third_Party/Huawei/iot_link/link_ota/download/https\ota_https.c ****         port_start = tmp_ret + 1;
 276              		.loc 1 159 9 is_stmt 1 view .LVU62
 159:D:/fchai/work/i-cube/I-CUBE-HUAWEI/Middlewares/Third_Party/Huawei/iot_link/link_ota/download/https\ota_https.c ****         port_start = tmp_ret + 1;
 277              		.loc 1 159 18 is_stmt 0 view .LVU63
 278 0040 471E     		subs	r7, r0, #1
 279              	.LVL18:
 160:D:/fchai/work/i-cube/I-CUBE-HUAWEI/Middlewares/Third_Party/Huawei/iot_link/link_ota/download/https\ota_https.c ****         tmp = tmp_ret;
 280              		.loc 1 160 9 is_stmt 1 view .LVU64
 160:D:/fchai/work/i-cube/I-CUBE-HUAWEI/Middlewares/Third_Party/Huawei/iot_link/link_ota/download/https\ota_https.c ****         tmp = tmp_ret;
 281              		.loc 1 160 20 is_stmt 0 view .LVU65
 282 0042 00F10109 		add	r9, r0, #1
 283              	.LVL19:
 161:D:/fchai/work/i-cube/I-CUBE-HUAWEI/Middlewares/Third_Party/Huawei/iot_link/link_ota/download/https\ota_https.c **** 
 284              		.loc 1 161 9 is_stmt 1 view .LVU66
 163:D:/fchai/work/i-cube/I-CUBE-HUAWEI/Middlewares/Third_Party/Huawei/iot_link/link_ota/download/https\ota_https.c ****         if(NULL == tmp_ret)
 285              		.loc 1 163 9 view .LVU67
 163:D:/fchai/work/i-cube/I-CUBE-HUAWEI/Middlewares/Third_Party/Huawei/iot_link/link_ota/download/https\ota_https.c ****         if(NULL == tmp_ret)
 286              		.loc 1 163 19 is_stmt 0 view .LVU68
 287 0046 FFF7FEFF 		bl	strchr
 288              	.LVL20:
 164:D:/fchai/work/i-cube/I-CUBE-HUAWEI/Middlewares/Third_Party/Huawei/iot_link/link_ota/download/https\ota_https.c ****         {
 289              		.loc 1 164 9 is_stmt 1 view .LVU69
 164:D:/fchai/work/i-cube/I-CUBE-HUAWEI/Middlewares/Third_Party/Huawei/iot_link/link_ota/download/https\ota_https.c ****         {
 290              		.loc 1 164 11 is_stmt 0 view .LVU70
 291 004a 8246     		mov	r10, r0
 292 004c 0028     		cmp	r0, #0
 293 004e 00F0A282 		beq	.L13
ARM GAS  T:\msys\tmp\cc7ptNpf.s 			page 17


 168:D:/fchai/work/i-cube/I-CUBE-HUAWEI/Middlewares/Third_Party/Huawei/iot_link/link_ota/download/https\ota_https.c ****         urlre_start = tmp_ret;
 294              		.loc 1 168 9 is_stmt 1 view .LVU71
 295              	.LVL21:
 169:D:/fchai/work/i-cube/I-CUBE-HUAWEI/Middlewares/Third_Party/Huawei/iot_link/link_ota/download/https\ota_https.c ****         urlre_end = cb->url + strlen(cb->url) -1;
 296              		.loc 1 169 9 view .LVU72
 170:D:/fchai/work/i-cube/I-CUBE-HUAWEI/Middlewares/Third_Party/Huawei/iot_link/link_ota/download/https\ota_https.c ****     }
 297              		.loc 1 170 9 view .LVU73
 170:D:/fchai/work/i-cube/I-CUBE-HUAWEI/Middlewares/Third_Party/Huawei/iot_link/link_ota/download/https\ota_https.c ****     }
 298              		.loc 1 170 31 is_stmt 0 view .LVU74
 299 0052 2046     		mov	r0, r4
 300              	.LVL22:
 170:D:/fchai/work/i-cube/I-CUBE-HUAWEI/Middlewares/Third_Party/Huawei/iot_link/link_ota/download/https\ota_https.c ****     }
 301              		.loc 1 170 31 view .LVU75
 302 0054 FFF7FEFF 		bl	strlen
 303              	.LVL23:
 168:D:/fchai/work/i-cube/I-CUBE-HUAWEI/Middlewares/Third_Party/Huawei/iot_link/link_ota/download/https\ota_https.c ****         urlre_start = tmp_ret;
 304              		.loc 1 168 18 view .LVU76
 305 0058 0AF1FF32 		add	r2, r10, #-1
 306              	.LVL24:
 168:D:/fchai/work/i-cube/I-CUBE-HUAWEI/Middlewares/Third_Party/Huawei/iot_link/link_ota/download/https\ota_https.c ****         urlre_start = tmp_ret;
 307              		.loc 1 168 18 view .LVU77
 308 005c A2EB0903 		sub	r3, r2, r9
 170:D:/fchai/work/i-cube/I-CUBE-HUAWEI/Middlewares/Third_Party/Huawei/iot_link/link_ota/download/https\ota_https.c ****     }
 309              		.loc 1 170 47 view .LVU78
 310 0060 0138     		subs	r0, r0, #1
 311 0062 0893     		str	r3, [sp, #32]
 170:D:/fchai/work/i-cube/I-CUBE-HUAWEI/Middlewares/Third_Party/Huawei/iot_link/link_ota/download/https\ota_https.c ****     }
 312              		.loc 1 170 19 view .LVU79
 313 0064 0444     		add	r4, r4, r0
 314              	.LVL25:
 170:D:/fchai/work/i-cube/I-CUBE-HUAWEI/Middlewares/Third_Party/Huawei/iot_link/link_ota/download/https\ota_https.c ****     }
 315              		.loc 1 170 19 view .LVU80
 316 0066 9846     		mov	r8, r3
 317              	.LVL26:
 318              	.L15:
 172:D:/fchai/work/i-cube/I-CUBE-HUAWEI/Middlewares/Third_Party/Huawei/iot_link/link_ota/download/https\ota_https.c ****     ret = (http_section_t *)osal_malloc(len);
 319              		.loc 1 172 5 is_stmt 1 view .LVU81
 172:D:/fchai/work/i-cube/I-CUBE-HUAWEI/Middlewares/Third_Party/Huawei/iot_link/link_ota/download/https\ota_https.c ****     ret = (http_section_t *)osal_malloc(len);
 320              		.loc 1 172 46 is_stmt 0 view .LVU82
 321 0068 A7EB0B07 		sub	r7, r7, fp
 322              	.LVL27:
 172:D:/fchai/work/i-cube/I-CUBE-HUAWEI/Middlewares/Third_Party/Huawei/iot_link/link_ota/download/https\ota_https.c ****     ret = (http_section_t *)osal_malloc(len);
 323              		.loc 1 172 101 view .LVU83
 324 006c 08F21E40 		addw	r0, r8, #1054
 172:D:/fchai/work/i-cube/I-CUBE-HUAWEI/Middlewares/Third_Party/Huawei/iot_link/link_ota/download/https\ota_https.c ****     ret = (http_section_t *)osal_malloc(len);
 325              		.loc 1 172 114 view .LVU84
 326 0070 A4EB0A03 		sub	r3, r4, r10
 327              	.LVL28:
 173:D:/fchai/work/i-cube/I-CUBE-HUAWEI/Middlewares/Third_Party/Huawei/iot_link/link_ota/download/https\ota_https.c ****     if(NULL == ret)
 328              		.loc 1 173 5 is_stmt 1 view .LVU85
 172:D:/fchai/work/i-cube/I-CUBE-HUAWEI/Middlewares/Third_Party/Huawei/iot_link/link_ota/download/https\ota_https.c ****     ret = (http_section_t *)osal_malloc(len);
 329              		.loc 1 172 101 is_stmt 0 view .LVU86
 330 0074 3844     		add	r0, r0, r7
 173:D:/fchai/work/i-cube/I-CUBE-HUAWEI/Middlewares/Third_Party/Huawei/iot_link/link_ota/download/https\ota_https.c ****     if(NULL == ret)
 331              		.loc 1 173 29 view .LVU87
 332 0076 1844     		add	r0, r0, r3
 333 0078 0793     		str	r3, [sp, #28]
ARM GAS  T:\msys\tmp\cc7ptNpf.s 			page 18


 334 007a FFF7FEFF 		bl	osal_malloc
 335              	.LVL29:
 174:D:/fchai/work/i-cube/I-CUBE-HUAWEI/Middlewares/Third_Party/Huawei/iot_link/link_ota/download/https\ota_https.c ****     {
 336              		.loc 1 174 5 is_stmt 1 view .LVU88
 174:D:/fchai/work/i-cube/I-CUBE-HUAWEI/Middlewares/Third_Party/Huawei/iot_link/link_ota/download/https\ota_https.c ****     {
 337              		.loc 1 174 7 is_stmt 0 view .LVU89
 338 007e 0446     		mov	r4, r0
 339              	.LVL30:
 174:D:/fchai/work/i-cube/I-CUBE-HUAWEI/Middlewares/Third_Party/Huawei/iot_link/link_ota/download/https\ota_https.c ****     {
 340              		.loc 1 174 7 view .LVU90
 341 0080 0028     		cmp	r0, #0
 342 0082 00F08882 		beq	.L13
 178:D:/fchai/work/i-cube/I-CUBE-HUAWEI/Middlewares/Third_Party/Huawei/iot_link/link_ota/download/https\ota_https.c ****     tmp += sizeof(http_section_t);
 343              		.loc 1 178 5 is_stmt 1 view .LVU91
 344              	.LVL31:
 179:D:/fchai/work/i-cube/I-CUBE-HUAWEI/Middlewares/Third_Party/Huawei/iot_link/link_ota/download/https\ota_https.c ****     ///< initialize the member in the parameters
 345              		.loc 1 179 5 view .LVU92
 179:D:/fchai/work/i-cube/I-CUBE-HUAWEI/Middlewares/Third_Party/Huawei/iot_link/link_ota/download/https\ota_https.c ****     ///< initialize the member in the parameters
 346              		.loc 1 179 9 is_stmt 0 view .LVU93
 347 0086 00F58365 		add	r5, r0, #1048
 348              	.LVL32:
 181:D:/fchai/work/i-cube/I-CUBE-HUAWEI/Middlewares/Third_Party/Huawei/iot_link/link_ota/download/https\ota_https.c ****     memcpy(tmp, host_start, len);
 349              		.loc 1 181 5 is_stmt 1 view .LVU94
 182:D:/fchai/work/i-cube/I-CUBE-HUAWEI/Middlewares/Third_Party/Huawei/iot_link/link_ota/download/https\ota_https.c ****     tmp[len] = '\0';
 350              		.loc 1 182 5 view .LVU95
 181:D:/fchai/work/i-cube/I-CUBE-HUAWEI/Middlewares/Third_Party/Huawei/iot_link/link_ota/download/https\ota_https.c ****     memcpy(tmp, host_start, len);
 351              		.loc 1 181 9 is_stmt 0 view .LVU96
 352 008a 7A1C     		adds	r2, r7, #1
 353              	.LVL33:
 182:D:/fchai/work/i-cube/I-CUBE-HUAWEI/Middlewares/Third_Party/Huawei/iot_link/link_ota/download/https\ota_https.c ****     tmp[len] = '\0';
 354              		.loc 1 182 5 view .LVU97
 355 008c 5946     		mov	r1, fp
 356 008e 2846     		mov	r0, r5
 357              	.LVL34:
 182:D:/fchai/work/i-cube/I-CUBE-HUAWEI/Middlewares/Third_Party/Huawei/iot_link/link_ota/download/https\ota_https.c ****     tmp[len] = '\0';
 358              		.loc 1 182 5 view .LVU98
 359 0090 0992     		str	r2, [sp, #36]
 360 0092 FFF7FEFF 		bl	memcpy
 361              	.LVL35:
 183:D:/fchai/work/i-cube/I-CUBE-HUAWEI/Middlewares/Third_Party/Huawei/iot_link/link_ota/download/https\ota_https.c ****     ret->host = tmp;
 362              		.loc 1 183 5 is_stmt 1 view .LVU99
 187:D:/fchai/work/i-cube/I-CUBE-HUAWEI/Middlewares/Third_Party/Huawei/iot_link/link_ota/download/https\ota_https.c ****     memcpy(tmp, port_start, len);
 363              		.loc 1 187 9 is_stmt 0 view .LVU100
 364 0096 0899     		ldr	r1, [sp, #32]
 183:D:/fchai/work/i-cube/I-CUBE-HUAWEI/Middlewares/Third_Party/Huawei/iot_link/link_ota/download/https\ota_https.c ****     ret->host = tmp;
 365              		.loc 1 183 14 view .LVU101
 366 0098 099A     		ldr	r2, [sp, #36]
 185:D:/fchai/work/i-cube/I-CUBE-HUAWEI/Middlewares/Third_Party/Huawei/iot_link/link_ota/download/https\ota_https.c **** 
 367              		.loc 1 185 9 view .LVU102
 368 009a BB1C     		adds	r3, r7, #2
 369 009c 2B44     		add	r3, r3, r5
 183:D:/fchai/work/i-cube/I-CUBE-HUAWEI/Middlewares/Third_Party/Huawei/iot_link/link_ota/download/https\ota_https.c ****     ret->host = tmp;
 370              		.loc 1 183 14 view .LVU103
 371 009e 0027     		movs	r7, #0
 187:D:/fchai/work/i-cube/I-CUBE-HUAWEI/Middlewares/Third_Party/Huawei/iot_link/link_ota/download/https\ota_https.c ****     memcpy(tmp, port_start, len);
 372              		.loc 1 187 9 view .LVU104
 373 00a0 01F1010B 		add	fp, r1, #1
ARM GAS  T:\msys\tmp\cc7ptNpf.s 			page 19


 374              	.LVL36:
 183:D:/fchai/work/i-cube/I-CUBE-HUAWEI/Middlewares/Third_Party/Huawei/iot_link/link_ota/download/https\ota_https.c ****     ret->host = tmp;
 375              		.loc 1 183 14 view .LVU105
 376 00a4 AF54     		strb	r7, [r5, r2]
 184:D:/fchai/work/i-cube/I-CUBE-HUAWEI/Middlewares/Third_Party/Huawei/iot_link/link_ota/download/https\ota_https.c ****     tmp += len + 1;
 377              		.loc 1 184 5 is_stmt 1 view .LVU106
 188:D:/fchai/work/i-cube/I-CUBE-HUAWEI/Middlewares/Third_Party/Huawei/iot_link/link_ota/download/https\ota_https.c ****     tmp[len] = '\0';
 378              		.loc 1 188 5 is_stmt 0 view .LVU107
 379 00a6 4946     		mov	r1, r9
 380 00a8 1846     		mov	r0, r3
 184:D:/fchai/work/i-cube/I-CUBE-HUAWEI/Middlewares/Third_Party/Huawei/iot_link/link_ota/download/https\ota_https.c ****     tmp += len + 1;
 381              		.loc 1 184 15 view .LVU108
 382 00aa 2560     		str	r5, [r4]
 185:D:/fchai/work/i-cube/I-CUBE-HUAWEI/Middlewares/Third_Party/Huawei/iot_link/link_ota/download/https\ota_https.c **** 
 383              		.loc 1 185 5 is_stmt 1 view .LVU109
 384              	.LVL37:
 187:D:/fchai/work/i-cube/I-CUBE-HUAWEI/Middlewares/Third_Party/Huawei/iot_link/link_ota/download/https\ota_https.c ****     memcpy(tmp, port_start, len);
 385              		.loc 1 187 5 view .LVU110
 188:D:/fchai/work/i-cube/I-CUBE-HUAWEI/Middlewares/Third_Party/Huawei/iot_link/link_ota/download/https\ota_https.c ****     tmp[len] = '\0';
 386              		.loc 1 188 5 view .LVU111
 387 00ac 5A46     		mov	r2, fp
 388 00ae FFF7FEFF 		bl	memcpy
 389              	.LVL38:
 189:D:/fchai/work/i-cube/I-CUBE-HUAWEI/Middlewares/Third_Party/Huawei/iot_link/link_ota/download/https\ota_https.c ****     ret->port = tmp;
 390              		.loc 1 189 5 view .LVU112
 193:D:/fchai/work/i-cube/I-CUBE-HUAWEI/Middlewares/Third_Party/Huawei/iot_link/link_ota/download/https\ota_https.c ****     memcpy(tmp, urlre_start, len);
 391              		.loc 1 193 9 is_stmt 0 view .LVU113
 392 00b2 079A     		ldr	r2, [sp, #28]
 189:D:/fchai/work/i-cube/I-CUBE-HUAWEI/Middlewares/Third_Party/Huawei/iot_link/link_ota/download/https\ota_https.c ****     ret->port = tmp;
 393              		.loc 1 189 14 view .LVU114
 394 00b4 00F80B70 		strb	r7, [r0, fp]
 191:D:/fchai/work/i-cube/I-CUBE-HUAWEI/Middlewares/Third_Party/Huawei/iot_link/link_ota/download/https\ota_https.c **** 
 395              		.loc 1 191 9 view .LVU115
 396 00b8 08F10208 		add	r8, r8, #2
 190:D:/fchai/work/i-cube/I-CUBE-HUAWEI/Middlewares/Third_Party/Huawei/iot_link/link_ota/download/https\ota_https.c ****     tmp += len + 1;
 397              		.loc 1 190 5 is_stmt 1 view .LVU116
 191:D:/fchai/work/i-cube/I-CUBE-HUAWEI/Middlewares/Third_Party/Huawei/iot_link/link_ota/download/https\ota_https.c **** 
 398              		.loc 1 191 9 is_stmt 0 view .LVU117
 399 00bc 00EB0805 		add	r5, r0, r8
 400              	.LVL39:
 193:D:/fchai/work/i-cube/I-CUBE-HUAWEI/Middlewares/Third_Party/Huawei/iot_link/link_ota/download/https\ota_https.c ****     memcpy(tmp, urlre_start, len);
 401              		.loc 1 193 9 view .LVU118
 402 00c0 02F10109 		add	r9, r2, #1
 403              	.LVL40:
 194:D:/fchai/work/i-cube/I-CUBE-HUAWEI/Middlewares/Third_Party/Huawei/iot_link/link_ota/download/https\ota_https.c ****     tmp[len] = '\0';
 404              		.loc 1 194 5 view .LVU119
 405 00c4 5146     		mov	r1, r10
 190:D:/fchai/work/i-cube/I-CUBE-HUAWEI/Middlewares/Third_Party/Huawei/iot_link/link_ota/download/https\ota_https.c ****     tmp += len + 1;
 406              		.loc 1 190 15 view .LVU120
 407 00c6 6060     		str	r0, [r4, #4]
 191:D:/fchai/work/i-cube/I-CUBE-HUAWEI/Middlewares/Third_Party/Huawei/iot_link/link_ota/download/https\ota_https.c **** 
 408              		.loc 1 191 5 is_stmt 1 view .LVU121
 409              	.LVL41:
 193:D:/fchai/work/i-cube/I-CUBE-HUAWEI/Middlewares/Third_Party/Huawei/iot_link/link_ota/download/https\ota_https.c ****     memcpy(tmp, urlre_start, len);
 410              		.loc 1 193 5 view .LVU122
 194:D:/fchai/work/i-cube/I-CUBE-HUAWEI/Middlewares/Third_Party/Huawei/iot_link/link_ota/download/https\ota_https.c ****     tmp[len] = '\0';
 411              		.loc 1 194 5 view .LVU123
ARM GAS  T:\msys\tmp\cc7ptNpf.s 			page 20


 412 00c8 4A46     		mov	r2, r9
 413              	.LVL42:
 194:D:/fchai/work/i-cube/I-CUBE-HUAWEI/Middlewares/Third_Party/Huawei/iot_link/link_ota/download/https\ota_https.c ****     tmp[len] = '\0';
 414              		.loc 1 194 5 is_stmt 0 view .LVU124
 415 00ca 2846     		mov	r0, r5
 416 00cc FFF7FEFF 		bl	memcpy
 417              	.LVL43:
 195:D:/fchai/work/i-cube/I-CUBE-HUAWEI/Middlewares/Third_Party/Huawei/iot_link/link_ota/download/https\ota_https.c ****     ret->url_re = tmp;
 418              		.loc 1 195 5 is_stmt 1 view .LVU125
 195:D:/fchai/work/i-cube/I-CUBE-HUAWEI/Middlewares/Third_Party/Huawei/iot_link/link_ota/download/https\ota_https.c ****     ret->url_re = tmp;
 419              		.loc 1 195 14 is_stmt 0 view .LVU126
 420 00d0 05F80970 		strb	r7, [r5, r9]
 196:D:/fchai/work/i-cube/I-CUBE-HUAWEI/Middlewares/Third_Party/Huawei/iot_link/link_ota/download/https\ota_https.c **** 
 421              		.loc 1 196 5 is_stmt 1 view .LVU127
 196:D:/fchai/work/i-cube/I-CUBE-HUAWEI/Middlewares/Third_Party/Huawei/iot_link/link_ota/download/https\ota_https.c **** 
 422              		.loc 1 196 17 is_stmt 0 view .LVU128
 423 00d4 A560     		str	r5, [r4, #8]
 198:D:/fchai/work/i-cube/I-CUBE-HUAWEI/Middlewares/Third_Party/Huawei/iot_link/link_ota/download/https\ota_https.c ****     return ret;
 424              		.loc 1 198 5 is_stmt 1 view .LVU129
 198:D:/fchai/work/i-cube/I-CUBE-HUAWEI/Middlewares/Third_Party/Huawei/iot_link/link_ota/download/https\ota_https.c ****     return ret;
 425              		.loc 1 198 21 is_stmt 0 view .LVU130
 426 00d6 B368     		ldr	r3, [r6, #8]
 198:D:/fchai/work/i-cube/I-CUBE-HUAWEI/Middlewares/Third_Party/Huawei/iot_link/link_ota/download/https\ota_https.c ****     return ret;
 427              		.loc 1 198 17 view .LVU131
 428 00d8 E360     		str	r3, [r4, #12]
 199:D:/fchai/work/i-cube/I-CUBE-HUAWEI/Middlewares/Third_Party/Huawei/iot_link/link_ota/download/https\ota_https.c **** 
 429              		.loc 1 199 5 is_stmt 1 view .LVU132
 430              	.LVL44:
 199:D:/fchai/work/i-cube/I-CUBE-HUAWEI/Middlewares/Third_Party/Huawei/iot_link/link_ota/download/https\ota_https.c **** 
 431              		.loc 1 199 5 is_stmt 0 view .LVU133
 432              	.LBE17:
 433              	.LBE16:
 490:D:/fchai/work/i-cube/I-CUBE-HUAWEI/Middlewares/Third_Party/Huawei/iot_link/link_ota/download/https\ota_https.c ****     if(NULL == section)
 434              		.loc 1 490 5 is_stmt 1 view .LVU134
 491:D:/fchai/work/i-cube/I-CUBE-HUAWEI/Middlewares/Third_Party/Huawei/iot_link/link_ota/download/https\ota_https.c ****     {
 492:D:/fchai/work/i-cube/I-CUBE-HUAWEI/Middlewares/Third_Party/Huawei/iot_link/link_ota/download/https\ota_https.c ****         LINK_LOG_ERROR("DECODE URL FAILED");
 493:D:/fchai/work/i-cube/I-CUBE-HUAWEI/Middlewares/Third_Party/Huawei/iot_link/link_ota/download/https\ota_https.c ****         goto EXIT_SECTIONPARAM;
 494:D:/fchai/work/i-cube/I-CUBE-HUAWEI/Middlewares/Third_Party/Huawei/iot_link/link_ota/download/https\ota_https.c ****     }
 495:D:/fchai/work/i-cube/I-CUBE-HUAWEI/Middlewares/Third_Party/Huawei/iot_link/link_ota/download/https\ota_https.c **** 
 496:D:/fchai/work/i-cube/I-CUBE-HUAWEI/Middlewares/Third_Party/Huawei/iot_link/link_ota/download/https\ota_https.c ****     ret = https_filedownload(param, section);
 435              		.loc 1 496 5 view .LVU135
 436              	.LBB19:
 437              	.LBI19:
 389:D:/fchai/work/i-cube/I-CUBE-HUAWEI/Middlewares/Third_Party/Huawei/iot_link/link_ota/download/https\ota_https.c **** {
 438              		.loc 1 389 12 view .LVU136
 439              	.LBB20:
 391:D:/fchai/work/i-cube/I-CUBE-HUAWEI/Middlewares/Third_Party/Huawei/iot_link/link_ota/download/https\ota_https.c ****     int file_off;
 440              		.loc 1 391 5 view .LVU137
 392:D:/fchai/work/i-cube/I-CUBE-HUAWEI/Middlewares/Third_Party/Huawei/iot_link/link_ota/download/https\ota_https.c ****     int file_lenleft;
 441              		.loc 1 392 5 view .LVU138
 393:D:/fchai/work/i-cube/I-CUBE-HUAWEI/Middlewares/Third_Party/Huawei/iot_link/link_ota/download/https\ota_https.c ****     dtls_al_para_t dtls_para;
 442              		.loc 1 393 5 view .LVU139
 394:D:/fchai/work/i-cube/I-CUBE-HUAWEI/Middlewares/Third_Party/Huawei/iot_link/link_ota/download/https\ota_https.c ****     void *handle = NULL;
 443              		.loc 1 394 5 view .LVU140
 395:D:/fchai/work/i-cube/I-CUBE-HUAWEI/Middlewares/Third_Party/Huawei/iot_link/link_ota/download/https\ota_https.c ****     int try_times = 0;
 444              		.loc 1 395 5 view .LVU141
 398:D:/fchai/work/i-cube/I-CUBE-HUAWEI/Middlewares/Third_Party/Huawei/iot_link/link_ota/download/https\ota_https.c ****     if(ret != 0 )
ARM GAS  T:\msys\tmp\cc7ptNpf.s 			page 21


 445              		.loc 1 398 11 is_stmt 0 view .LVU142
 446 00da 307F     		ldrb	r0, [r6, #28]	@ zero_extendqisi2
 395:D:/fchai/work/i-cube/I-CUBE-HUAWEI/Middlewares/Third_Party/Huawei/iot_link/link_ota/download/https\ota_https.c ****     int try_times = 0;
 447              		.loc 1 395 11 view .LVU143
 448 00dc 0C97     		str	r7, [sp, #48]
 396:D:/fchai/work/i-cube/I-CUBE-HUAWEI/Middlewares/Third_Party/Huawei/iot_link/link_ota/download/https\ota_https.c **** 
 449              		.loc 1 396 5 is_stmt 1 view .LVU144
 450              	.LVL45:
 398:D:/fchai/work/i-cube/I-CUBE-HUAWEI/Middlewares/Third_Party/Huawei/iot_link/link_ota/download/https\ota_https.c ****     if(ret != 0 )
 451              		.loc 1 398 5 view .LVU145
 398:D:/fchai/work/i-cube/I-CUBE-HUAWEI/Middlewares/Third_Party/Huawei/iot_link/link_ota/download/https\ota_https.c ****     if(ret != 0 )
 452              		.loc 1 398 11 is_stmt 0 view .LVU146
 453 00de 0121     		movs	r1, #1
 454 00e0 FFF7FEFF 		bl	ota_img_erase
 455              	.LVL46:
 399:D:/fchai/work/i-cube/I-CUBE-HUAWEI/Middlewares/Third_Party/Huawei/iot_link/link_ota/download/https\ota_https.c ****     {
 456              		.loc 1 399 5 is_stmt 1 view .LVU147
 399:D:/fchai/work/i-cube/I-CUBE-HUAWEI/Middlewares/Third_Party/Huawei/iot_link/link_ota/download/https\ota_https.c ****     {
 457              		.loc 1 399 7 is_stmt 0 view .LVU148
 458 00e4 0546     		mov	r5, r0
 459 00e6 0028     		cmp	r0, #0
 460 00e8 40F06082 		bne	.L100
 406:D:/fchai/work/i-cube/I-CUBE-HUAWEI/Middlewares/Third_Party/Huawei/iot_link/link_ota/download/https\ota_https.c ****     }
 461              		.loc 1 406 9 is_stmt 1 view .LVU149
 406:D:/fchai/work/i-cube/I-CUBE-HUAWEI/Middlewares/Third_Party/Huawei/iot_link/link_ota/download/https\ota_https.c ****     }
 462              		.loc 1 406 9 view .LVU150
 463 00ec FFF7FEFF 		bl	link_log_level_get
 464              	.LVL47:
 406:D:/fchai/work/i-cube/I-CUBE-HUAWEI/Middlewares/Third_Party/Huawei/iot_link/link_ota/download/https\ota_https.c ****     }
 465              		.loc 1 406 9 is_stmt 0 view .LVU151
 466 00f0 0128     		cmp	r0, #1
 467 00f2 40F27D82 		bls	.L101
 468              	.L19:
 406:D:/fchai/work/i-cube/I-CUBE-HUAWEI/Middlewares/Third_Party/Huawei/iot_link/link_ota/download/https\ota_https.c ****     }
 469              		.loc 1 406 9 is_stmt 1 view .LVU152
 406:D:/fchai/work/i-cube/I-CUBE-HUAWEI/Middlewares/Third_Party/Huawei/iot_link/link_ota/download/https\ota_https.c ****     }
 470              		.loc 1 406 9 view .LVU153
 406:D:/fchai/work/i-cube/I-CUBE-HUAWEI/Middlewares/Third_Party/Huawei/iot_link/link_ota/download/https\ota_https.c ****     }
 471              		.loc 1 406 9 view .LVU154
 409:D:/fchai/work/i-cube/I-CUBE-HUAWEI/Middlewares/Third_Party/Huawei/iot_link/link_ota/download/https\ota_https.c ****     file_lenleft = param->file_size;
 472              		.loc 1 409 5 view .LVU155
 473              	.LVL48:
 410:D:/fchai/work/i-cube/I-CUBE-HUAWEI/Middlewares/Third_Party/Huawei/iot_link/link_ota/download/https\ota_https.c **** 
 474              		.loc 1 410 5 view .LVU156
 410:D:/fchai/work/i-cube/I-CUBE-HUAWEI/Middlewares/Third_Party/Huawei/iot_link/link_ota/download/https\ota_https.c **** 
 475              		.loc 1 410 18 is_stmt 0 view .LVU157
 476 00f6 1823     		movs	r3, #24
 477 00f8 D6F814B0 		ldr	fp, [r6, #20]
 478              	.LVL49:
 412:D:/fchai/work/i-cube/I-CUBE-HUAWEI/Middlewares/Third_Party/Huawei/iot_link/link_ota/download/https\ota_https.c ****     {
 479              		.loc 1 412 5 is_stmt 1 view .LVU158
 412:D:/fchai/work/i-cube/I-CUBE-HUAWEI/Middlewares/Third_Party/Huawei/iot_link/link_ota/download/https\ota_https.c ****     {
 480              		.loc 1 412 10 view .LVU159
 410:D:/fchai/work/i-cube/I-CUBE-HUAWEI/Middlewares/Third_Party/Huawei/iot_link/link_ota/download/https\ota_https.c **** 
 481              		.loc 1 410 18 is_stmt 0 view .LVU160
 482 00fc 0793     		str	r3, [sp, #28]
 483 00fe A846     		mov	r8, r5
ARM GAS  T:\msys\tmp\cc7ptNpf.s 			page 22


 484 0100 B246     		mov	r10, r6
 485              	.LVL50:
 486              	.L20:
 412:D:/fchai/work/i-cube/I-CUBE-HUAWEI/Middlewares/Third_Party/Huawei/iot_link/link_ota/download/https\ota_https.c ****     {
 487              		.loc 1 412 58 view .LVU161
 488 0102 BBF1000F 		cmp	fp, #0
 489 0106 40F3C180 		ble	.L47
 414:D:/fchai/work/i-cube/I-CUBE-HUAWEI/Middlewares/Third_Party/Huawei/iot_link/link_ota/download/https\ota_https.c **** 
 490              		.loc 1 414 9 is_stmt 1 view .LVU162
 491              	.LVL51:
 416:D:/fchai/work/i-cube/I-CUBE-HUAWEI/Middlewares/Third_Party/Huawei/iot_link/link_ota/download/https\ota_https.c ****         dtls_para.security.type = EN_DTLS_AL_SECURITY_TYPE_CERT;
 492              		.loc 1 416 9 view .LVU163
 416:D:/fchai/work/i-cube/I-CUBE-HUAWEI/Middlewares/Third_Party/Huawei/iot_link/link_ota/download/https\ota_https.c ****         dtls_para.security.type = EN_DTLS_AL_SECURITY_TYPE_CERT;
 493              		.loc 1 416 16 is_stmt 0 view .LVU164
 494 010a 2822     		movs	r2, #40
 495 010c 0021     		movs	r1, #0
 496 010e 0FA8     		add	r0, sp, #60
 497 0110 FFF7FEFF 		bl	memset
 498              	.LVL52:
 417:D:/fchai/work/i-cube/I-CUBE-HUAWEI/Middlewares/Third_Party/Huawei/iot_link/link_ota/download/https\ota_https.c ****         dtls_para.istcp = 1;
 499              		.loc 1 417 9 is_stmt 1 view .LVU165
 417:D:/fchai/work/i-cube/I-CUBE-HUAWEI/Middlewares/Third_Party/Huawei/iot_link/link_ota/download/https\ota_https.c ****         dtls_para.istcp = 1;
 500              		.loc 1 417 33 is_stmt 0 view .LVU166
 501 0114 0222     		movs	r2, #2
 420:D:/fchai/work/i-cube/I-CUBE-HUAWEI/Middlewares/Third_Party/Huawei/iot_link/link_ota/download/https\ota_https.c ****         dtls_para.security.u.cert.server_ca_len = sizeof(g_https_serverca);
 502              		.loc 1 420 45 view .LVU167
 503 0116 7B4D     		ldr	r5, .L113+4
 417:D:/fchai/work/i-cube/I-CUBE-HUAWEI/Middlewares/Third_Party/Huawei/iot_link/link_ota/download/https\ota_https.c ****         dtls_para.istcp = 1;
 504              		.loc 1 417 33 view .LVU168
 505 0118 8DF83C20 		strb	r2, [sp, #60]
 418:D:/fchai/work/i-cube/I-CUBE-HUAWEI/Middlewares/Third_Party/Huawei/iot_link/link_ota/download/https\ota_https.c ****         dtls_para.isclient = 1;
 506              		.loc 1 418 9 is_stmt 1 view .LVU169
 418:D:/fchai/work/i-cube/I-CUBE-HUAWEI/Middlewares/Third_Party/Huawei/iot_link/link_ota/download/https\ota_https.c ****         dtls_para.isclient = 1;
 507              		.loc 1 418 25 is_stmt 0 view .LVU170
 508 011c 0123     		movs	r3, #1
 421:D:/fchai/work/i-cube/I-CUBE-HUAWEI/Middlewares/Third_Party/Huawei/iot_link/link_ota/download/https\ota_https.c **** 
 509              		.loc 1 421 49 view .LVU171
 510 011e 40F25252 		movw	r2, #1362
 423:D:/fchai/work/i-cube/I-CUBE-HUAWEI/Middlewares/Third_Party/Huawei/iot_link/link_ota/download/https\ota_https.c ****         {
 511              		.loc 1 423 33 view .LVU172
 512 0122 0DA8     		add	r0, sp, #52
 513 0124 0CA9     		add	r1, sp, #48
 419:D:/fchai/work/i-cube/I-CUBE-HUAWEI/Middlewares/Third_Party/Huawei/iot_link/link_ota/download/https\ota_https.c ****         dtls_para.security.u.cert.server_ca = (uint8_t *)g_https_serverca;
 514              		.loc 1 419 28 view .LVU173
 515 0126 CDE90D33 		strd	r3, r3, [sp, #52]
 420:D:/fchai/work/i-cube/I-CUBE-HUAWEI/Middlewares/Third_Party/Huawei/iot_link/link_ota/download/https\ota_https.c ****         dtls_para.security.u.cert.server_ca_len = sizeof(g_https_serverca);
 516              		.loc 1 420 9 is_stmt 1 view .LVU174
 420:D:/fchai/work/i-cube/I-CUBE-HUAWEI/Middlewares/Third_Party/Huawei/iot_link/link_ota/download/https\ota_https.c ****         dtls_para.security.u.cert.server_ca_len = sizeof(g_https_serverca);
 517              		.loc 1 420 45 is_stmt 0 view .LVU175
 518 012a 1095     		str	r5, [sp, #64]
 421:D:/fchai/work/i-cube/I-CUBE-HUAWEI/Middlewares/Third_Party/Huawei/iot_link/link_ota/download/https\ota_https.c **** 
 519              		.loc 1 421 9 is_stmt 1 view .LVU176
 421:D:/fchai/work/i-cube/I-CUBE-HUAWEI/Middlewares/Third_Party/Huawei/iot_link/link_ota/download/https\ota_https.c **** 
 520              		.loc 1 421 49 is_stmt 0 view .LVU177
 521 012c 1492     		str	r2, [sp, #80]
 423:D:/fchai/work/i-cube/I-CUBE-HUAWEI/Middlewares/Third_Party/Huawei/iot_link/link_ota/download/https\ota_https.c ****         {
 522              		.loc 1 423 9 is_stmt 1 view .LVU178
ARM GAS  T:\msys\tmp\cc7ptNpf.s 			page 23


 423:D:/fchai/work/i-cube/I-CUBE-HUAWEI/Middlewares/Third_Party/Huawei/iot_link/link_ota/download/https\ota_https.c ****         {
 523              		.loc 1 423 33 is_stmt 0 view .LVU179
 524 012e FFF7FEFF 		bl	dtls_al_new
 525              	.LVL53:
 423:D:/fchai/work/i-cube/I-CUBE-HUAWEI/Middlewares/Third_Party/Huawei/iot_link/link_ota/download/https\ota_https.c ****         {
 526              		.loc 1 423 11 view .LVU180
 527 0132 0028     		cmp	r0, #0
 528 0134 40F06E81 		bne	.L102
 429:D:/fchai/work/i-cube/I-CUBE-HUAWEI/Middlewares/Third_Party/Huawei/iot_link/link_ota/download/https\ota_https.c ****         if (ret != EN_DTLS_AL_ERR_OK)
 529              		.loc 1 429 9 is_stmt 1 view .LVU181
 429:D:/fchai/work/i-cube/I-CUBE-HUAWEI/Middlewares/Third_Party/Huawei/iot_link/link_ota/download/https\ota_https.c ****         if (ret != EN_DTLS_AL_ERR_OK)
 530              		.loc 1 429 15 is_stmt 0 view .LVU182
 531 0138 D4E90012 		ldrd	r1, r2, [r4]
 532 013c 0C98     		ldr	r0, [sp, #48]
 533 013e 42F21073 		movw	r3, #10000
 534 0142 FFF7FEFF 		bl	dtls_al_connect
 535              	.LVL54:
 430:D:/fchai/work/i-cube/I-CUBE-HUAWEI/Middlewares/Third_Party/Huawei/iot_link/link_ota/download/https\ota_https.c ****         {
 536              		.loc 1 430 9 is_stmt 1 view .LVU183
 430:D:/fchai/work/i-cube/I-CUBE-HUAWEI/Middlewares/Third_Party/Huawei/iot_link/link_ota/download/https\ota_https.c ****         {
 537              		.loc 1 430 12 is_stmt 0 view .LVU184
 538 0146 0028     		cmp	r0, #0
 539 0148 40F07681 		bne	.L103
 540 014c 04F11805 		add	r5, r4, #24
 541              	.LVL55:
 542              	.L46:
 438:D:/fchai/work/i-cube/I-CUBE-HUAWEI/Middlewares/Third_Party/Huawei/iot_link/link_ota/download/https\ota_https.c ****             section->len = file_lenleft > CONFIG_HTTPS_DOWNLOADING_BLKLEN?CONFIG_HTTPS_DOWNLOADING_
 543              		.loc 1 438 13 is_stmt 1 view .LVU185
 439:D:/fchai/work/i-cube/I-CUBE-HUAWEI/Middlewares/Third_Party/Huawei/iot_link/link_ota/download/https\ota_https.c **** 
 544              		.loc 1 439 106 is_stmt 0 view .LVU186
 545 0150 BBF5806F 		cmp	fp, #1024
 546 0154 5B46     		mov	r3, fp
 547 0156 A8BF     		it	ge
 548 0158 4FF48063 		movge	r3, #1024
 549              	.LBB21:
 550              	.LBB22:
 551              	.LBB23:
 552              	.LBB24:
 553              	.LBB25:
 554              	.LBB26:
 111:D:/fchai/work/i-cube/I-CUBE-HUAWEI/Middlewares/Third_Party/Huawei/iot_link/link_ota/download/https\ota_https.c ****             section->bearer,section->host,section->port,section->offset + 1, section->offset + sect
 555              		.loc 1 111 11 view .LVU187
 556 015c 03EB0801 		add	r1, r3, r8
 557 0160 08F10102 		add	r2, r8, #1
 558              	.LBE26:
 559              	.LBE25:
 560              	.LBE24:
 561              	.LBE23:
 562              	.LBE22:
 563              	.LBE21:
 439:D:/fchai/work/i-cube/I-CUBE-HUAWEI/Middlewares/Third_Party/Huawei/iot_link/link_ota/download/https\ota_https.c **** 
 564              		.loc 1 439 26 view .LVU188
 565 0164 C4E90483 		strd	r8, r3, [r4, #16]
 441:D:/fchai/work/i-cube/I-CUBE-HUAWEI/Middlewares/Third_Party/Huawei/iot_link/link_ota/download/https\ota_https.c ****             if(0 == ret)
 566              		.loc 1 441 13 is_stmt 1 view .LVU189
 567              	.LBB71:
 568              	.LBB63:
ARM GAS  T:\msys\tmp\cc7ptNpf.s 			page 24


 569              	.LBB55:
 570              	.LBB47:
 571              	.LBB31:
 572              	.LBB27:
 111:D:/fchai/work/i-cube/I-CUBE-HUAWEI/Middlewares/Third_Party/Huawei/iot_link/link_ota/download/https\ota_https.c ****             section->bearer,section->host,section->port,section->offset + 1, section->offset + sect
 573              		.loc 1 111 11 is_stmt 0 view .LVU190
 574 0168 A368     		ldr	r3, [r4, #8]
 575              	.LBE27:
 576              	.LBE31:
 577              	.LBE47:
 578              	.LBE55:
 579              	.LBE63:
 580              	.LBE71:
 441:D:/fchai/work/i-cube/I-CUBE-HUAWEI/Middlewares/Third_Party/Huawei/iot_link/link_ota/download/https\ota_https.c ****             if(0 == ret)
 581              		.loc 1 441 19 view .LVU191
 582 016a DDF83090 		ldr	r9, [sp, #48]
 583              	.LBB72:
 584              	.LBB64:
 585              	.LBB56:
 586              	.LBB48:
 587              	.LBB32:
 588              	.LBB28:
 111:D:/fchai/work/i-cube/I-CUBE-HUAWEI/Middlewares/Third_Party/Huawei/iot_link/link_ota/download/https\ota_https.c ****             section->bearer,section->host,section->port,section->offset + 1, section->offset + sect
 589              		.loc 1 111 11 view .LVU192
 590 016e CDE90321 		strd	r2, r1, [sp, #12]
 591 0172 6268     		ldr	r2, [r4, #4]
 592 0174 0292     		str	r2, [sp, #8]
 593 0176 2268     		ldr	r2, [r4]
 594 0178 0192     		str	r2, [sp, #4]
 595 017a E268     		ldr	r2, [r4, #12]
 596 017c 0092     		str	r2, [sp]
 597              	.LBE28:
 598              	.LBE32:
 599              	.LBE48:
 600              	.LBE56:
 601              	.LBE64:
 602              	.LBE72:
 441:D:/fchai/work/i-cube/I-CUBE-HUAWEI/Middlewares/Third_Party/Huawei/iot_link/link_ota/download/https\ota_https.c ****             if(0 == ret)
 603              		.loc 1 441 19 view .LVU193
 604 017e 9AF81C10 		ldrb	r1, [r10, #28]	@ zero_extendqisi2
 605              	.LBB73:
 606              	.LBB65:
 607              	.LBB57:
 608              	.LBB49:
 609              	.LBB33:
 610              	.LBB29:
 111:D:/fchai/work/i-cube/I-CUBE-HUAWEI/Middlewares/Third_Party/Huawei/iot_link/link_ota/download/https\ota_https.c ****             section->bearer,section->host,section->port,section->offset + 1, section->offset + sect
 611              		.loc 1 111 11 view .LVU194
 612 0182 614A     		ldr	r2, .L113+8
 613              	.LBE29:
 614              	.LBE33:
 615              	.LBE49:
 616              	.LBE57:
 617              	.LBE65:
 618              	.LBE73:
 441:D:/fchai/work/i-cube/I-CUBE-HUAWEI/Middlewares/Third_Party/Huawei/iot_link/link_ota/download/https\ota_https.c ****             if(0 == ret)
 619              		.loc 1 441 19 view .LVU195
ARM GAS  T:\msys\tmp\cc7ptNpf.s 			page 25


 620 0184 08EE101A 		vmov	s16, r1	@ int
 621              	.LVL56:
 622              	.LBB74:
 623              	.LBI21:
 362:D:/fchai/work/i-cube/I-CUBE-HUAWEI/Middlewares/Third_Party/Huawei/iot_link/link_ota/download/https\ota_https.c **** {
 624              		.loc 1 362 12 is_stmt 1 view .LVU196
 625              	.LBB66:
 364:D:/fchai/work/i-cube/I-CUBE-HUAWEI/Middlewares/Third_Party/Huawei/iot_link/link_ota/download/https\ota_https.c **** 
 626              		.loc 1 364 5 view .LVU197
 366:D:/fchai/work/i-cube/I-CUBE-HUAWEI/Middlewares/Third_Party/Huawei/iot_link/link_ota/download/https\ota_https.c ****     if(ret == 0)
 627              		.loc 1 366 5 view .LVU198
 628              	.LBB58:
 629              	.LBI23:
 332:D:/fchai/work/i-cube/I-CUBE-HUAWEI/Middlewares/Third_Party/Huawei/iot_link/link_ota/download/https\ota_https.c **** {
 630              		.loc 1 332 12 view .LVU199
 631              	.LBB50:
 334:D:/fchai/work/i-cube/I-CUBE-HUAWEI/Middlewares/Third_Party/Huawei/iot_link/link_ota/download/https\ota_https.c ****     int len;
 632              		.loc 1 334 5 view .LVU200
 335:D:/fchai/work/i-cube/I-CUBE-HUAWEI/Middlewares/Third_Party/Huawei/iot_link/link_ota/download/https\ota_https.c ****     ///< send the request
 633              		.loc 1 335 5 view .LVU201
 337:D:/fchai/work/i-cube/I-CUBE-HUAWEI/Middlewares/Third_Party/Huawei/iot_link/link_ota/download/https\ota_https.c ****     LINK_LOG_DEBUG("HTTPREQ:%d Bytes REQ:%s\r\n",len,section->cache);
 634              		.loc 1 337 5 view .LVU202
 635              	.LBB34:
 636              	.LBI25:
 108:D:/fchai/work/i-cube/I-CUBE-HUAWEI/Middlewares/Third_Party/Huawei/iot_link/link_ota/download/https\ota_https.c **** {
 637              		.loc 1 108 12 view .LVU203
 638              	.LBB30:
 110:D:/fchai/work/i-cube/I-CUBE-HUAWEI/Middlewares/Third_Party/Huawei/iot_link/link_ota/download/https\ota_https.c ****     ret = snprintf((char *)section->cache,CONFIG_HTTPS_DOWNLOADING_BLKLEN,CN_OTA_HTTPS_REQ_FMT,sect
 639              		.loc 1 110 5 view .LVU204
 111:D:/fchai/work/i-cube/I-CUBE-HUAWEI/Middlewares/Third_Party/Huawei/iot_link/link_ota/download/https\ota_https.c ****             section->bearer,section->host,section->port,section->offset + 1, section->offset + sect
 640              		.loc 1 111 5 view .LVU205
 111:D:/fchai/work/i-cube/I-CUBE-HUAWEI/Middlewares/Third_Party/Huawei/iot_link/link_ota/download/https\ota_https.c ****             section->bearer,section->host,section->port,section->offset + 1, section->offset + sect
 641              		.loc 1 111 11 is_stmt 0 view .LVU206
 642 0188 2846     		mov	r0, r5
 643 018a 4FF48061 		mov	r1, #1024
 644 018e FFF7FEFF 		bl	snprintf
 645              	.LVL57:
 111:D:/fchai/work/i-cube/I-CUBE-HUAWEI/Middlewares/Third_Party/Huawei/iot_link/link_ota/download/https\ota_https.c ****             section->bearer,section->host,section->port,section->offset + 1, section->offset + sect
 646              		.loc 1 111 11 view .LVU207
 647 0192 0646     		mov	r6, r0
 648              	.LVL58:
 113:D:/fchai/work/i-cube/I-CUBE-HUAWEI/Middlewares/Third_Party/Huawei/iot_link/link_ota/download/https\ota_https.c **** }
 649              		.loc 1 113 5 is_stmt 1 view .LVU208
 113:D:/fchai/work/i-cube/I-CUBE-HUAWEI/Middlewares/Third_Party/Huawei/iot_link/link_ota/download/https\ota_https.c **** }
 650              		.loc 1 113 5 is_stmt 0 view .LVU209
 651              	.LBE30:
 652              	.LBE34:
 338:D:/fchai/work/i-cube/I-CUBE-HUAWEI/Middlewares/Third_Party/Huawei/iot_link/link_ota/download/https\ota_https.c **** 
 653              		.loc 1 338 5 is_stmt 1 view .LVU210
 338:D:/fchai/work/i-cube/I-CUBE-HUAWEI/Middlewares/Third_Party/Huawei/iot_link/link_ota/download/https\ota_https.c **** 
 654              		.loc 1 338 5 view .LVU211
 655 0194 FFF7FEFF 		bl	link_log_level_get
 656              	.LVL59:
 338:D:/fchai/work/i-cube/I-CUBE-HUAWEI/Middlewares/Third_Party/Huawei/iot_link/link_ota/download/https\ota_https.c **** 
 657              		.loc 1 338 5 is_stmt 0 view .LVU212
 658 0198 0128     		cmp	r0, #1
 659 019a 40F22681 		bls	.L104
ARM GAS  T:\msys\tmp\cc7ptNpf.s 			page 26


 660              	.L25:
 661              	.LVL60:
 662              	.LBB35:
 663              	.LBB36:
 212:D:/fchai/work/i-cube/I-CUBE-HUAWEI/Middlewares/Third_Party/Huawei/iot_link/link_ota/download/https\ota_https.c ****     {
 664              		.loc 1 212 10 is_stmt 1 view .LVU213
 665 019e 002E     		cmp	r6, #0
 666 01a0 0DDD     		ble	.L26
 667 01a2 2F46     		mov	r7, r5
 668              	.LVL61:
 669              	.L30:
 214:D:/fchai/work/i-cube/I-CUBE-HUAWEI/Middlewares/Third_Party/Huawei/iot_link/link_ota/download/https\ota_https.c ****         if(sndret > 0)
 670              		.loc 1 214 9 view .LVU214
 214:D:/fchai/work/i-cube/I-CUBE-HUAWEI/Middlewares/Third_Party/Huawei/iot_link/link_ota/download/https\ota_https.c ****         if(sndret > 0)
 671              		.loc 1 214 18 is_stmt 0 view .LVU215
 672 01a4 42F21073 		movw	r3, #10000
 673 01a8 3246     		mov	r2, r6
 674 01aa 3946     		mov	r1, r7
 675 01ac 4846     		mov	r0, r9
 676 01ae FFF7FEFF 		bl	dtls_al_write
 677              	.LVL62:
 217:D:/fchai/work/i-cube/I-CUBE-HUAWEI/Middlewares/Third_Party/Huawei/iot_link/link_ota/download/https\ota_https.c ****             data += sndret;
 678              		.loc 1 217 13 is_stmt 1 view .LVU216
 220:D:/fchai/work/i-cube/I-CUBE-HUAWEI/Middlewares/Third_Party/Huawei/iot_link/link_ota/download/https\ota_https.c ****         {
 679              		.loc 1 220 14 view .LVU217
 215:D:/fchai/work/i-cube/I-CUBE-HUAWEI/Middlewares/Third_Party/Huawei/iot_link/link_ota/download/https\ota_https.c ****         {
 680              		.loc 1 215 9 view .LVU218
 215:D:/fchai/work/i-cube/I-CUBE-HUAWEI/Middlewares/Third_Party/Huawei/iot_link/link_ota/download/https\ota_https.c ****         {
 681              		.loc 1 215 11 is_stmt 0 view .LVU219
 682 01b2 0028     		cmp	r0, #0
 215:D:/fchai/work/i-cube/I-CUBE-HUAWEI/Middlewares/Third_Party/Huawei/iot_link/link_ota/download/https\ota_https.c ****         {
 683              		.loc 1 215 11 view .LVU220
 684 01b4 3CDD     		ble	.L27
 217:D:/fchai/work/i-cube/I-CUBE-HUAWEI/Middlewares/Third_Party/Huawei/iot_link/link_ota/download/https\ota_https.c ****             data += sndret;
 685              		.loc 1 217 17 view .LVU221
 686 01b6 361A     		subs	r6, r6, r0
 687              	.LVL63:
 218:D:/fchai/work/i-cube/I-CUBE-HUAWEI/Middlewares/Third_Party/Huawei/iot_link/link_ota/download/https\ota_https.c ****         }
 688              		.loc 1 218 13 is_stmt 1 view .LVU222
 212:D:/fchai/work/i-cube/I-CUBE-HUAWEI/Middlewares/Third_Party/Huawei/iot_link/link_ota/download/https\ota_https.c ****     {
 689              		.loc 1 212 10 is_stmt 0 view .LVU223
 690 01b8 002E     		cmp	r6, #0
 218:D:/fchai/work/i-cube/I-CUBE-HUAWEI/Middlewares/Third_Party/Huawei/iot_link/link_ota/download/https\ota_https.c ****         }
 691              		.loc 1 218 18 view .LVU224
 692 01ba 0744     		add	r7, r7, r0
 693              	.LVL64:
 212:D:/fchai/work/i-cube/I-CUBE-HUAWEI/Middlewares/Third_Party/Huawei/iot_link/link_ota/download/https\ota_https.c ****     {
 694              		.loc 1 212 10 is_stmt 1 view .LVU225
 695 01bc F2DC     		bgt	.L30
 696              	.LVL65:
 697              	.L26:
 225:D:/fchai/work/i-cube/I-CUBE-HUAWEI/Middlewares/Third_Party/Huawei/iot_link/link_ota/download/https\ota_https.c **** }
 698              		.loc 1 225 5 view .LVU226
 225:D:/fchai/work/i-cube/I-CUBE-HUAWEI/Middlewares/Third_Party/Huawei/iot_link/link_ota/download/https\ota_https.c **** }
 699              		.loc 1 225 22 is_stmt 0 view .LVU227
 700 01be 002E     		cmp	r6, #0
 701 01c0 37D1     		bne	.L32
ARM GAS  T:\msys\tmp\cc7ptNpf.s 			page 27


 702              	.LVL66:
 703              	.L31:
 225:D:/fchai/work/i-cube/I-CUBE-HUAWEI/Middlewares/Third_Party/Huawei/iot_link/link_ota/download/https\ota_https.c **** }
 704              		.loc 1 225 22 view .LVU228
 705              	.LBE36:
 706              	.LBE35:
 707              	.LBB38:
 708              	.LBB39:
 292:D:/fchai/work/i-cube/I-CUBE-HUAWEI/Middlewares/Third_Party/Huawei/iot_link/link_ota/download/https\ota_https.c ****                 }
 709              		.loc 1 292 28 view .LVU229
 710 01c2 0027     		movs	r7, #0
 711              	.LVL67:
 712              	.L41:
 267:D:/fchai/work/i-cube/I-CUBE-HUAWEI/Middlewares/Third_Party/Huawei/iot_link/link_ota/download/https\ota_https.c ****         if(ret != 0)
 713              		.loc 1 267 9 is_stmt 1 view .LVU230
 267:D:/fchai/work/i-cube/I-CUBE-HUAWEI/Middlewares/Third_Party/Huawei/iot_link/link_ota/download/https\ota_https.c ****         if(ret != 0)
 714              		.loc 1 267 15 is_stmt 0 view .LVU231
 715 01c4 0122     		movs	r2, #1
 716 01c6 0DF12F01 		add	r1, sp, #47
 717 01ca 4846     		mov	r0, r9
 718 01cc FFF7FEFF 		bl	loop_netread.constprop.0
 719              	.LVL68:
 268:D:/fchai/work/i-cube/I-CUBE-HUAWEI/Middlewares/Third_Party/Huawei/iot_link/link_ota/download/https\ota_https.c ****         {
 720              		.loc 1 268 9 is_stmt 1 view .LVU232
 268:D:/fchai/work/i-cube/I-CUBE-HUAWEI/Middlewares/Third_Party/Huawei/iot_link/link_ota/download/https\ota_https.c ****         {
 721              		.loc 1 268 11 is_stmt 0 view .LVU233
 722 01d0 C8B9     		cbnz	r0, .L33
 723              	.L105:
 272:D:/fchai/work/i-cube/I-CUBE-HUAWEI/Middlewares/Third_Party/Huawei/iot_link/link_ota/download/https\ota_https.c ****         {
 724              		.loc 1 272 9 is_stmt 1 view .LVU234
 272:D:/fchai/work/i-cube/I-CUBE-HUAWEI/Middlewares/Third_Party/Huawei/iot_link/link_ota/download/https\ota_https.c ****         {
 725              		.loc 1 272 11 is_stmt 0 view .LVU235
 726 01d2 40F2FE33 		movw	r3, #1022
 727 01d6 9E42     		cmp	r6, r3
 728 01d8 40F38680 		ble	.L34
 729 01dc 9DF82F30 		ldrb	r3, [sp, #47]	@ zero_extendqisi2
 730              	.L35:
 731              	.LVL69:
 277:D:/fchai/work/i-cube/I-CUBE-HUAWEI/Middlewares/Third_Party/Huawei/iot_link/link_ota/download/https\ota_https.c ****         {
 732              		.loc 1 277 9 is_stmt 1 view .LVU236
 733 01e0 022F     		cmp	r7, #2
 734 01e2 7CD0     		beq	.L36
 735 01e4 032F     		cmp	r7, #3
 736 01e6 00F09D80 		beq	.L37
 737 01ea 012F     		cmp	r7, #1
 738 01ec 00F08280 		beq	.L38
 280:D:/fchai/work/i-cube/I-CUBE-HUAWEI/Middlewares/Third_Party/Huawei/iot_link/link_ota/download/https\ota_https.c ****                 {
 739              		.loc 1 280 17 view .LVU237
 280:D:/fchai/work/i-cube/I-CUBE-HUAWEI/Middlewares/Third_Party/Huawei/iot_link/link_ota/download/https\ota_https.c ****                 {
 740              		.loc 1 280 19 is_stmt 0 view .LVU238
 741 01f0 0D2B     		cmp	r3, #13
 742 01f2 E6D1     		bne	.L31
 267:D:/fchai/work/i-cube/I-CUBE-HUAWEI/Middlewares/Third_Party/Huawei/iot_link/link_ota/download/https\ota_https.c ****         if(ret != 0)
 743              		.loc 1 267 15 view .LVU239
 744 01f4 0122     		movs	r2, #1
 745 01f6 0DF12F01 		add	r1, sp, #47
 746 01fa 4846     		mov	r0, r9
ARM GAS  T:\msys\tmp\cc7ptNpf.s 			page 28


 747              	.LVL70:
 282:D:/fchai/work/i-cube/I-CUBE-HUAWEI/Middlewares/Third_Party/Huawei/iot_link/link_ota/download/https\ota_https.c ****                 }
 748              		.loc 1 282 28 view .LVU240
 749 01fc 0127     		movs	r7, #1
 750              	.LVL71:
 267:D:/fchai/work/i-cube/I-CUBE-HUAWEI/Middlewares/Third_Party/Huawei/iot_link/link_ota/download/https\ota_https.c ****         if(ret != 0)
 751              		.loc 1 267 9 is_stmt 1 view .LVU241
 267:D:/fchai/work/i-cube/I-CUBE-HUAWEI/Middlewares/Third_Party/Huawei/iot_link/link_ota/download/https\ota_https.c ****         if(ret != 0)
 752              		.loc 1 267 15 is_stmt 0 view .LVU242
 753 01fe FFF7FEFF 		bl	loop_netread.constprop.0
 754              	.LVL72:
 268:D:/fchai/work/i-cube/I-CUBE-HUAWEI/Middlewares/Third_Party/Huawei/iot_link/link_ota/download/https\ota_https.c ****         {
 755              		.loc 1 268 9 is_stmt 1 view .LVU243
 268:D:/fchai/work/i-cube/I-CUBE-HUAWEI/Middlewares/Third_Party/Huawei/iot_link/link_ota/download/https\ota_https.c ****         {
 756              		.loc 1 268 11 is_stmt 0 view .LVU244
 757 0202 0028     		cmp	r0, #0
 758 0204 E5D0     		beq	.L105
 759              	.L33:
 320:D:/fchai/work/i-cube/I-CUBE-HUAWEI/Middlewares/Third_Party/Huawei/iot_link/link_ota/download/https\ota_https.c ****     {
 760              		.loc 1 320 5 is_stmt 1 view .LVU245
 320:D:/fchai/work/i-cube/I-CUBE-HUAWEI/Middlewares/Third_Party/Huawei/iot_link/link_ota/download/https\ota_https.c ****     {
 761              		.loc 1 320 7 is_stmt 0 view .LVU246
 762 0206 002E     		cmp	r6, #0
 763 0208 40F00882 		bne	.L91
 764              	.LVL73:
 765              	.L95:
 320:D:/fchai/work/i-cube/I-CUBE-HUAWEI/Middlewares/Third_Party/Huawei/iot_link/link_ota/download/https\ota_https.c ****     {
 766              		.loc 1 320 7 view .LVU247
 767 020c 3F4E     		ldr	r6, .L113+12
 768              	.L58:
 320:D:/fchai/work/i-cube/I-CUBE-HUAWEI/Middlewares/Third_Party/Huawei/iot_link/link_ota/download/https\ota_https.c ****     {
 769              		.loc 1 320 7 view .LVU248
 770              	.LBE39:
 771              	.LBE38:
 350:D:/fchai/work/i-cube/I-CUBE-HUAWEI/Middlewares/Third_Party/Huawei/iot_link/link_ota/download/https\ota_https.c ****         goto EXIT_HANDLE;
 772              		.loc 1 350 9 is_stmt 1 view .LVU249
 350:D:/fchai/work/i-cube/I-CUBE-HUAWEI/Middlewares/Third_Party/Huawei/iot_link/link_ota/download/https\ota_https.c ****         goto EXIT_HANDLE;
 773              		.loc 1 350 9 view .LVU250
 350:D:/fchai/work/i-cube/I-CUBE-HUAWEI/Middlewares/Third_Party/Huawei/iot_link/link_ota/download/https\ota_https.c ****         goto EXIT_HANDLE;
 774              		.loc 1 350 9 view .LVU251
 775 020e 0420     		movs	r0, #4
 776 0210 FFF7FEFF 		bl	link_log_level_name
 777              	.LVL74:
 778 0214 0546     		mov	r5, r0
 779 0216 FFF7FEFF 		bl	osal_sys_time
 780              	.LVL75:
 781 021a 3D4B     		ldr	r3, .L113+16
 782 021c 0246     		mov	r2, r0
 783 021e 2946     		mov	r1, r5
 784 0220 3C48     		ldr	r0, .L113+20
 785 0222 FFF7FEFF 		bl	printf
 786              	.LVL76:
 350:D:/fchai/work/i-cube/I-CUBE-HUAWEI/Middlewares/Third_Party/Huawei/iot_link/link_ota/download/https\ota_https.c ****         goto EXIT_HANDLE;
 787              		.loc 1 350 9 view .LVU252
 788 0226 3368     		ldr	r3, [r6]
 789 0228 9868     		ldr	r0, [r3, #8]
 790 022a FFF7FEFF 		bl	fflush
ARM GAS  T:\msys\tmp\cc7ptNpf.s 			page 29


 791              	.LVL77:
 350:D:/fchai/work/i-cube/I-CUBE-HUAWEI/Middlewares/Third_Party/Huawei/iot_link/link_ota/download/https\ota_https.c ****         goto EXIT_HANDLE;
 792              		.loc 1 350 9 view .LVU253
 350:D:/fchai/work/i-cube/I-CUBE-HUAWEI/Middlewares/Third_Party/Huawei/iot_link/link_ota/download/https\ota_https.c ****         goto EXIT_HANDLE;
 793              		.loc 1 350 9 view .LVU254
 351:D:/fchai/work/i-cube/I-CUBE-HUAWEI/Middlewares/Third_Party/Huawei/iot_link/link_ota/download/https\ota_https.c ****     }
 794              		.loc 1 351 9 view .LVU255
 795 022e 11E0     		b	.L29
 796              	.LVL78:
 797              	.L27:
 798              	.LBB43:
 799              	.LBB37:
 220:D:/fchai/work/i-cube/I-CUBE-HUAWEI/Middlewares/Third_Party/Huawei/iot_link/link_ota/download/https\ota_https.c ****         {
 800              		.loc 1 220 16 is_stmt 0 view .LVU256
 801 0230 B8D1     		bne	.L30
 802              	.LVL79:
 803              	.L32:
 220:D:/fchai/work/i-cube/I-CUBE-HUAWEI/Middlewares/Third_Party/Huawei/iot_link/link_ota/download/https\ota_https.c ****         {
 804              		.loc 1 220 16 view .LVU257
 805              	.LBE37:
 806              	.LBE43:
 341:D:/fchai/work/i-cube/I-CUBE-HUAWEI/Middlewares/Third_Party/Huawei/iot_link/link_ota/download/https\ota_https.c ****     {
 807              		.loc 1 341 5 is_stmt 1 view .LVU258
 343:D:/fchai/work/i-cube/I-CUBE-HUAWEI/Middlewares/Third_Party/Huawei/iot_link/link_ota/download/https\ota_https.c ****         goto EXIT_HANDLE;
 808              		.loc 1 343 9 view .LVU259
 343:D:/fchai/work/i-cube/I-CUBE-HUAWEI/Middlewares/Third_Party/Huawei/iot_link/link_ota/download/https\ota_https.c ****         goto EXIT_HANDLE;
 809              		.loc 1 343 9 view .LVU260
 343:D:/fchai/work/i-cube/I-CUBE-HUAWEI/Middlewares/Third_Party/Huawei/iot_link/link_ota/download/https\ota_https.c ****         goto EXIT_HANDLE;
 810              		.loc 1 343 9 view .LVU261
 811 0232 0420     		movs	r0, #4
 812 0234 FFF7FEFF 		bl	link_log_level_name
 813              	.LVL80:
 814 0238 0546     		mov	r5, r0
 815 023a FFF7FEFF 		bl	osal_sys_time
 816              	.LVL81:
 817 023e 334E     		ldr	r6, .L113+12
 818 0240 334B     		ldr	r3, .L113+16
 819 0242 0246     		mov	r2, r0
 820 0244 2946     		mov	r1, r5
 821 0246 3448     		ldr	r0, .L113+24
 822 0248 FFF7FEFF 		bl	printf
 823              	.LVL82:
 343:D:/fchai/work/i-cube/I-CUBE-HUAWEI/Middlewares/Third_Party/Huawei/iot_link/link_ota/download/https\ota_https.c ****         goto EXIT_HANDLE;
 824              		.loc 1 343 9 view .LVU262
 825 024c 3368     		ldr	r3, [r6]
 826 024e 9868     		ldr	r0, [r3, #8]
 827 0250 FFF7FEFF 		bl	fflush
 828              	.LVL83:
 343:D:/fchai/work/i-cube/I-CUBE-HUAWEI/Middlewares/Third_Party/Huawei/iot_link/link_ota/download/https\ota_https.c ****         goto EXIT_HANDLE;
 829              		.loc 1 343 9 view .LVU263
 343:D:/fchai/work/i-cube/I-CUBE-HUAWEI/Middlewares/Third_Party/Huawei/iot_link/link_ota/download/https\ota_https.c ****         goto EXIT_HANDLE;
 830              		.loc 1 343 9 view .LVU264
 344:D:/fchai/work/i-cube/I-CUBE-HUAWEI/Middlewares/Third_Party/Huawei/iot_link/link_ota/download/https\ota_https.c ****     }
 831              		.loc 1 344 9 view .LVU265
 832              	.L29:
 344:D:/fchai/work/i-cube/I-CUBE-HUAWEI/Middlewares/Third_Party/Huawei/iot_link/link_ota/download/https\ota_https.c ****     }
 833              		.loc 1 344 9 is_stmt 0 view .LVU266
ARM GAS  T:\msys\tmp\cc7ptNpf.s 			page 30


 834              	.LBE50:
 835              	.LBE58:
 383:D:/fchai/work/i-cube/I-CUBE-HUAWEI/Middlewares/Third_Party/Huawei/iot_link/link_ota/download/https\ota_https.c ****     }
 836              		.loc 1 383 9 is_stmt 1 view .LVU267
 383:D:/fchai/work/i-cube/I-CUBE-HUAWEI/Middlewares/Third_Party/Huawei/iot_link/link_ota/download/https\ota_https.c ****     }
 837              		.loc 1 383 9 view .LVU268
 383:D:/fchai/work/i-cube/I-CUBE-HUAWEI/Middlewares/Third_Party/Huawei/iot_link/link_ota/download/https\ota_https.c ****     }
 838              		.loc 1 383 9 view .LVU269
 839 0254 0420     		movs	r0, #4
 840 0256 FFF7FEFF 		bl	link_log_level_name
 841              	.LVL84:
 842 025a 0546     		mov	r5, r0
 843 025c FFF7FEFF 		bl	osal_sys_time
 844              	.LVL85:
 845 0260 6369     		ldr	r3, [r4, #20]
 846 0262 0193     		str	r3, [sp, #4]
 847 0264 2369     		ldr	r3, [r4, #16]
 848 0266 0093     		str	r3, [sp]
 849 0268 0246     		mov	r2, r0
 850 026a 2C4B     		ldr	r3, .L113+28
 851 026c 2C48     		ldr	r0, .L113+32
 852 026e 2946     		mov	r1, r5
 853 0270 FFF7FEFF 		bl	printf
 854              	.LVL86:
 383:D:/fchai/work/i-cube/I-CUBE-HUAWEI/Middlewares/Third_Party/Huawei/iot_link/link_ota/download/https\ota_https.c ****     }
 855              		.loc 1 383 9 view .LVU270
 856 0274 3368     		ldr	r3, [r6]
 857 0276 9868     		ldr	r0, [r3, #8]
 858 0278 FFF7FEFF 		bl	fflush
 859              	.LVL87:
 860              	.L24:
 383:D:/fchai/work/i-cube/I-CUBE-HUAWEI/Middlewares/Third_Party/Huawei/iot_link/link_ota/download/https\ota_https.c ****     }
 861              		.loc 1 383 9 is_stmt 0 view .LVU271
 862              	.LBE66:
 863              	.LBE74:
 458:D:/fchai/work/i-cube/I-CUBE-HUAWEI/Middlewares/Third_Party/Huawei/iot_link/link_ota/download/https\ota_https.c ****     }
 864              		.loc 1 458 9 is_stmt 1 view .LVU272
 865 027c 0C98     		ldr	r0, [sp, #48]
 866 027e FFF7FEFF 		bl	dtls_al_destroy
 867              	.LVL88:
 868              	.L22:
 412:D:/fchai/work/i-cube/I-CUBE-HUAWEI/Middlewares/Third_Party/Huawei/iot_link/link_ota/download/https\ota_https.c ****     {
 869              		.loc 1 412 10 view .LVU273
 870 0282 079B     		ldr	r3, [sp, #28]
 871 0284 013B     		subs	r3, r3, #1
 872 0286 0793     		str	r3, [sp, #28]
 873              	.LVL89:
 412:D:/fchai/work/i-cube/I-CUBE-HUAWEI/Middlewares/Third_Party/Huawei/iot_link/link_ota/download/https\ota_https.c ****     {
 874              		.loc 1 412 10 is_stmt 0 view .LVU274
 875 0288 7FF43BAF 		bne	.L20
 876              	.L47:
 461:D:/fchai/work/i-cube/I-CUBE-HUAWEI/Middlewares/Third_Party/Huawei/iot_link/link_ota/download/https\ota_https.c ****     if(file_lenleft == 0)
 877              		.loc 1 461 5 is_stmt 1 view .LVU275
 461:D:/fchai/work/i-cube/I-CUBE-HUAWEI/Middlewares/Third_Party/Huawei/iot_link/link_ota/download/https\ota_https.c ****     if(file_lenleft == 0)
 878              		.loc 1 461 11 is_stmt 0 view .LVU276
 879 028c 9AF81C00 		ldrb	r0, [r10, #28]	@ zero_extendqisi2
 880 0290 0121     		movs	r1, #1
ARM GAS  T:\msys\tmp\cc7ptNpf.s 			page 31


 881 0292 5646     		mov	r6, r10
 882 0294 FFF7FEFF 		bl	ota_img_flush
 883              	.LVL90:
 462:D:/fchai/work/i-cube/I-CUBE-HUAWEI/Middlewares/Third_Party/Huawei/iot_link/link_ota/download/https\ota_https.c ****     {
 884              		.loc 1 462 5 is_stmt 1 view .LVU277
 462:D:/fchai/work/i-cube/I-CUBE-HUAWEI/Middlewares/Third_Party/Huawei/iot_link/link_ota/download/https\ota_https.c ****     {
 885              		.loc 1 462 7 is_stmt 0 view .LVU278
 886 0298 BBF1000F 		cmp	fp, #0
 887 029c 40F0BA81 		bne	.L106
 888              	.LVL91:
 472:D:/fchai/work/i-cube/I-CUBE-HUAWEI/Middlewares/Third_Party/Huawei/iot_link/link_ota/download/https\ota_https.c **** }
 889              		.loc 1 472 5 is_stmt 1 view .LVU279
 472:D:/fchai/work/i-cube/I-CUBE-HUAWEI/Middlewares/Third_Party/Huawei/iot_link/link_ota/download/https\ota_https.c **** }
 890              		.loc 1 472 5 is_stmt 0 view .LVU280
 891              	.LBE20:
 892              	.LBE19:
 497:D:/fchai/work/i-cube/I-CUBE-HUAWEI/Middlewares/Third_Party/Huawei/iot_link/link_ota/download/https\ota_https.c ****     if(ret != 0)
 893              		.loc 1 497 5 is_stmt 1 view .LVU281
 498:D:/fchai/work/i-cube/I-CUBE-HUAWEI/Middlewares/Third_Party/Huawei/iot_link/link_ota/download/https\ota_https.c ****     {
 499:D:/fchai/work/i-cube/I-CUBE-HUAWEI/Middlewares/Third_Party/Huawei/iot_link/link_ota/download/https\ota_https.c ****         LINK_LOG_ERROR("HTTPS DOWNLOAD FAILED ");
 500:D:/fchai/work/i-cube/I-CUBE-HUAWEI/Middlewares/Third_Party/Huawei/iot_link/link_ota/download/https\ota_https.c ****         goto EXIT_DOWNLOAD;
 501:D:/fchai/work/i-cube/I-CUBE-HUAWEI/Middlewares/Third_Party/Huawei/iot_link/link_ota/download/https\ota_https.c ****     }
 502:D:/fchai/work/i-cube/I-CUBE-HUAWEI/Middlewares/Third_Party/Huawei/iot_link/link_ota/download/https\ota_https.c **** 
 503:D:/fchai/work/i-cube/I-CUBE-HUAWEI/Middlewares/Third_Party/Huawei/iot_link/link_ota/download/https\ota_https.c **** #ifdef CONFIG_HTTPS_DOWNLOADING_SHA256CHECK
 504:D:/fchai/work/i-cube/I-CUBE-HUAWEI/Middlewares/Third_Party/Huawei/iot_link/link_ota/download/https\ota_https.c ****     sha256_check_t  sha256_checkpara;
 894              		.loc 1 504 5 view .LVU282
 505:D:/fchai/work/i-cube/I-CUBE-HUAWEI/Middlewares/Third_Party/Huawei/iot_link/link_ota/download/https\ota_https.c ****     if(NULL != param->signature)
 895              		.loc 1 505 5 view .LVU283
 896              		.loc 1 505 21 is_stmt 0 view .LVU284
 897 02a0 DAF80430 		ldr	r3, [r10, #4]
 898              		.loc 1 505 7 view .LVU285
 899 02a4 002B     		cmp	r3, #0
 900 02a6 00F02E81 		beq	.L51
 506:D:/fchai/work/i-cube/I-CUBE-HUAWEI/Middlewares/Third_Party/Huawei/iot_link/link_ota/download/https\ota_https.c ****     {
 507:D:/fchai/work/i-cube/I-CUBE-HUAWEI/Middlewares/Third_Party/Huawei/iot_link/link_ota/download/https\ota_https.c ****         sha256_checkpara.data_len = param->file_size;
 901              		.loc 1 507 9 is_stmt 1 view .LVU286
 902              		.loc 1 507 35 is_stmt 0 view .LVU287
 903 02aa DAF81410 		ldr	r1, [r10, #20]
 508:D:/fchai/work/i-cube/I-CUBE-HUAWEI/Middlewares/Third_Party/Huawei/iot_link/link_ota/download/https\ota_https.c ****         sha256_checkpara.data_offset = 0;
 509:D:/fchai/work/i-cube/I-CUBE-HUAWEI/Middlewares/Third_Party/Huawei/iot_link/link_ota/download/https\ota_https.c ****         sha256_checkpara.ota_type = param->ota_type;
 904              		.loc 1 509 35 view .LVU288
 905 02ae 9AF81C20 		ldrb	r2, [r10, #28]	@ zero_extendqisi2
 508:D:/fchai/work/i-cube/I-CUBE-HUAWEI/Middlewares/Third_Party/Huawei/iot_link/link_ota/download/https\ota_https.c ****         sha256_checkpara.data_offset = 0;
 906              		.loc 1 508 38 view .LVU289
 907 02b2 CDF838B0 		str	fp, [sp, #56]
 510:D:/fchai/work/i-cube/I-CUBE-HUAWEI/Middlewares/Third_Party/Huawei/iot_link/link_ota/download/https\ota_https.c ****         sha256_checkpara.sha256 = param->signature;
 511:D:/fchai/work/i-cube/I-CUBE-HUAWEI/Middlewares/Third_Party/Huawei/iot_link/link_ota/download/https\ota_https.c ****         ret = sha256_check(&sha256_checkpara);
 908              		.loc 1 511 15 view .LVU290
 909 02b6 0DA8     		add	r0, sp, #52
 510:D:/fchai/work/i-cube/I-CUBE-HUAWEI/Middlewares/Third_Party/Huawei/iot_link/link_ota/download/https\ota_https.c ****         sha256_checkpara.sha256 = param->signature;
 910              		.loc 1 510 33 view .LVU291
 911 02b8 0D93     		str	r3, [sp, #52]
 507:D:/fchai/work/i-cube/I-CUBE-HUAWEI/Middlewares/Third_Party/Huawei/iot_link/link_ota/download/https\ota_https.c ****         sha256_checkpara.data_offset = 0;
 912              		.loc 1 507 35 view .LVU292
 913 02ba 0F91     		str	r1, [sp, #60]
 508:D:/fchai/work/i-cube/I-CUBE-HUAWEI/Middlewares/Third_Party/Huawei/iot_link/link_ota/download/https\ota_https.c ****         sha256_checkpara.data_offset = 0;
 914              		.loc 1 508 9 is_stmt 1 view .LVU293
ARM GAS  T:\msys\tmp\cc7ptNpf.s 			page 32


 509:D:/fchai/work/i-cube/I-CUBE-HUAWEI/Middlewares/Third_Party/Huawei/iot_link/link_ota/download/https\ota_https.c ****         sha256_checkpara.sha256 = param->signature;
 915              		.loc 1 509 9 view .LVU294
 509:D:/fchai/work/i-cube/I-CUBE-HUAWEI/Middlewares/Third_Party/Huawei/iot_link/link_ota/download/https\ota_https.c ****         sha256_checkpara.sha256 = param->signature;
 916              		.loc 1 509 35 is_stmt 0 view .LVU295
 917 02bc 8DF84020 		strb	r2, [sp, #64]
 510:D:/fchai/work/i-cube/I-CUBE-HUAWEI/Middlewares/Third_Party/Huawei/iot_link/link_ota/download/https\ota_https.c ****         sha256_checkpara.sha256 = param->signature;
 918              		.loc 1 510 9 is_stmt 1 view .LVU296
 919              		.loc 1 511 9 view .LVU297
 920              		.loc 1 511 15 is_stmt 0 view .LVU298
 921 02c0 FFF7FEFF 		bl	sha256_check
 922              	.LVL92:
 512:D:/fchai/work/i-cube/I-CUBE-HUAWEI/Middlewares/Third_Party/Huawei/iot_link/link_ota/download/https\ota_https.c ****         if(ret != 0)
 923              		.loc 1 512 9 is_stmt 1 view .LVU299
 924              		.loc 1 512 11 is_stmt 0 view .LVU300
 925 02c4 0546     		mov	r5, r0
 926 02c6 0028     		cmp	r0, #0
 927 02c8 00F00881 		beq	.L107
 928              	.L52:
 929              	.L55:
 930              	.LVL93:
 931              	.L56:
 932              	.L12:
 933              	.L57:
 513:D:/fchai/work/i-cube/I-CUBE-HUAWEI/Middlewares/Third_Party/Huawei/iot_link/link_ota/download/https\ota_https.c ****         {
 514:D:/fchai/work/i-cube/I-CUBE-HUAWEI/Middlewares/Third_Party/Huawei/iot_link/link_ota/download/https\ota_https.c ****             goto EXIT_SIGNATURE;
 515:D:/fchai/work/i-cube/I-CUBE-HUAWEI/Middlewares/Third_Party/Huawei/iot_link/link_ota/download/https\ota_https.c ****         }
 516:D:/fchai/work/i-cube/I-CUBE-HUAWEI/Middlewares/Third_Party/Huawei/iot_link/link_ota/download/https\ota_https.c ****         LINK_LOG_DEBUG("SHA256 CHECK SUCCESS");
 517:D:/fchai/work/i-cube/I-CUBE-HUAWEI/Middlewares/Third_Party/Huawei/iot_link/link_ota/download/https\ota_https.c ****     }
 518:D:/fchai/work/i-cube/I-CUBE-HUAWEI/Middlewares/Third_Party/Huawei/iot_link/link_ota/download/https\ota_https.c **** #endif
 519:D:/fchai/work/i-cube/I-CUBE-HUAWEI/Middlewares/Third_Party/Huawei/iot_link/link_ota/download/https\ota_https.c ****     otaflag.info.img_download.file_size = param->file_size;
 520:D:/fchai/work/i-cube/I-CUBE-HUAWEI/Middlewares/Third_Party/Huawei/iot_link/link_ota/download/https\ota_https.c ****     otaflag.info.img_download.file_off = param->file_offset;
 521:D:/fchai/work/i-cube/I-CUBE-HUAWEI/Middlewares/Third_Party/Huawei/iot_link/link_ota/download/https\ota_https.c ****     strncpy((char *)otaflag.info.img_download.ver,param->version,CONFIG_OTA_VERSIONLEN);
 522:D:/fchai/work/i-cube/I-CUBE-HUAWEI/Middlewares/Third_Party/Huawei/iot_link/link_ota/download/https\ota_https.c ****     otaflag.info.curstatus = EN_OTA_STATUS_DOWNLOADED;
 523:D:/fchai/work/i-cube/I-CUBE-HUAWEI/Middlewares/Third_Party/Huawei/iot_link/link_ota/download/https\ota_https.c ****     otaflag.info.upgrade_step = EN_OTA_UPGRADE_STEP_START;
 524:D:/fchai/work/i-cube/I-CUBE-HUAWEI/Middlewares/Third_Party/Huawei/iot_link/link_ota/download/https\ota_https.c **** 
 525:D:/fchai/work/i-cube/I-CUBE-HUAWEI/Middlewares/Third_Party/Huawei/iot_link/link_ota/download/https\ota_https.c ****     ret = ota_flag_save(param->ota_type,&otaflag);
 526:D:/fchai/work/i-cube/I-CUBE-HUAWEI/Middlewares/Third_Party/Huawei/iot_link/link_ota/download/https\ota_https.c ****     if(ret != 0)
 527:D:/fchai/work/i-cube/I-CUBE-HUAWEI/Middlewares/Third_Party/Huawei/iot_link/link_ota/download/https\ota_https.c ****     {
 528:D:/fchai/work/i-cube/I-CUBE-HUAWEI/Middlewares/Third_Party/Huawei/iot_link/link_ota/download/https\ota_https.c ****         LINK_LOG_ERROR("FLAG SAVE ERR");
 529:D:/fchai/work/i-cube/I-CUBE-HUAWEI/Middlewares/Third_Party/Huawei/iot_link/link_ota/download/https\ota_https.c ****         goto EXIT_FLAGSAVE;
 530:D:/fchai/work/i-cube/I-CUBE-HUAWEI/Middlewares/Third_Party/Huawei/iot_link/link_ota/download/https\ota_https.c ****     }
 531:D:/fchai/work/i-cube/I-CUBE-HUAWEI/Middlewares/Third_Party/Huawei/iot_link/link_ota/download/https\ota_https.c ****     LINK_LOG_DEBUG("DOWNLOAD SUCCESS AND COULD DO UPGRADING");
 934              		.loc 1 531 5 is_stmt 1 discriminator 3 view .LVU301
 935              		.loc 1 531 5 discriminator 3 view .LVU302
 936              		.loc 1 531 5 discriminator 3 view .LVU303
 532:D:/fchai/work/i-cube/I-CUBE-HUAWEI/Middlewares/Third_Party/Huawei/iot_link/link_ota/download/https\ota_https.c **** 
 533:D:/fchai/work/i-cube/I-CUBE-HUAWEI/Middlewares/Third_Party/Huawei/iot_link/link_ota/download/https\ota_https.c **** 
 534:D:/fchai/work/i-cube/I-CUBE-HUAWEI/Middlewares/Third_Party/Huawei/iot_link/link_ota/download/https\ota_https.c **** EXIT_FLAGSAVE:
 535:D:/fchai/work/i-cube/I-CUBE-HUAWEI/Middlewares/Third_Party/Huawei/iot_link/link_ota/download/https\ota_https.c **** EXIT_SIGNATURE:
 536:D:/fchai/work/i-cube/I-CUBE-HUAWEI/Middlewares/Third_Party/Huawei/iot_link/link_ota/download/https\ota_https.c **** EXIT_DOWNLOAD:
 537:D:/fchai/work/i-cube/I-CUBE-HUAWEI/Middlewares/Third_Party/Huawei/iot_link/link_ota/download/https\ota_https.c ****     osal_free(section);
 937              		.loc 1 537 5 discriminator 3 view .LVU304
 938 02cc 2046     		mov	r0, r4
 939 02ce FFF7FEFF 		bl	osal_free
 940              	.LVL94:
 538:D:/fchai/work/i-cube/I-CUBE-HUAWEI/Middlewares/Third_Party/Huawei/iot_link/link_ota/download/https\ota_https.c **** EXIT_SECTIONPARAM:
 539:D:/fchai/work/i-cube/I-CUBE-HUAWEI/Middlewares/Third_Party/Huawei/iot_link/link_ota/download/https\ota_https.c **** EXIT_FLAGGET:
ARM GAS  T:\msys\tmp\cc7ptNpf.s 			page 33


 540:D:/fchai/work/i-cube/I-CUBE-HUAWEI/Middlewares/Third_Party/Huawei/iot_link/link_ota/download/https\ota_https.c ****    return ret;
 941              		.loc 1 540 4 discriminator 3 view .LVU305
 541:D:/fchai/work/i-cube/I-CUBE-HUAWEI/Middlewares/Third_Party/Huawei/iot_link/link_ota/download/https\ota_https.c **** }
 942              		.loc 1 541 1 is_stmt 0 discriminator 3 view .LVU306
 943 02d2 2846     		mov	r0, r5
 944 02d4 47B0     		add	sp, sp, #284
 945              	.LCFI4:
 946              		.cfi_remember_state
 947              		.cfi_def_cfa_offset 44
 948              		@ sp needed
 949 02d6 BDEC028B 		vldm	sp!, {d8}
 950              	.LCFI5:
 951              		.cfi_restore 80
 952              		.cfi_restore 81
 953              		.cfi_def_cfa_offset 36
 954 02da BDE8F08F 		pop	{r4, r5, r6, r7, r8, r9, r10, fp, pc}
 955              	.LVL95:
 956              	.L36:
 957              	.LCFI6:
 958              		.cfi_restore_state
 959              	.LBB83:
 960              	.LBB79:
 961              	.LBB75:
 962              	.LBB67:
 963              	.LBB59:
 964              	.LBB51:
 965              	.LBB44:
 966              	.LBB40:
 296:D:/fchai/work/i-cube/I-CUBE-HUAWEI/Middlewares/Third_Party/Huawei/iot_link/link_ota/download/https\ota_https.c ****                 {
 967              		.loc 1 296 17 is_stmt 1 view .LVU307
 298:D:/fchai/work/i-cube/I-CUBE-HUAWEI/Middlewares/Third_Party/Huawei/iot_link/link_ota/download/https\ota_https.c ****                 }
 968              		.loc 1 298 28 is_stmt 0 view .LVU308
 969 02de 0D2B     		cmp	r3, #13
 970 02e0 14BF     		ite	ne
 971 02e2 0027     		movne	r7, #0
 972 02e4 0327     		moveq	r7, #3
 973 02e6 6DE7     		b	.L41
 974              	.LVL96:
 975              	.L34:
 274:D:/fchai/work/i-cube/I-CUBE-HUAWEI/Middlewares/Third_Party/Huawei/iot_link/link_ota/download/https\ota_https.c ****         }
 976              		.loc 1 274 13 is_stmt 1 view .LVU309
 274:D:/fchai/work/i-cube/I-CUBE-HUAWEI/Middlewares/Third_Party/Huawei/iot_link/link_ota/download/https\ota_https.c ****         }
 977              		.loc 1 274 39 is_stmt 0 view .LVU310
 978 02e8 A219     		adds	r2, r4, r6
 979 02ea 9DF82F30 		ldrb	r3, [sp, #47]	@ zero_extendqisi2
 980 02ee 1376     		strb	r3, [r2, #24]
 274:D:/fchai/work/i-cube/I-CUBE-HUAWEI/Middlewares/Third_Party/Huawei/iot_link/link_ota/download/https\ota_https.c ****         }
 981              		.loc 1 274 35 view .LVU311
 982 02f0 0136     		adds	r6, r6, #1
 983              	.LVL97:
 274:D:/fchai/work/i-cube/I-CUBE-HUAWEI/Middlewares/Third_Party/Huawei/iot_link/link_ota/download/https\ota_https.c ****         }
 984              		.loc 1 274 35 view .LVU312
 985 02f2 75E7     		b	.L35
 986              	.L38:
 286:D:/fchai/work/i-cube/I-CUBE-HUAWEI/Middlewares/Third_Party/Huawei/iot_link/link_ota/download/https\ota_https.c ****                 {
 987              		.loc 1 286 17 is_stmt 1 view .LVU313
 288:D:/fchai/work/i-cube/I-CUBE-HUAWEI/Middlewares/Third_Party/Huawei/iot_link/link_ota/download/https\ota_https.c ****                 }
ARM GAS  T:\msys\tmp\cc7ptNpf.s 			page 34


 988              		.loc 1 288 28 is_stmt 0 view .LVU314
 989 02f4 0A2B     		cmp	r3, #10
 990 02f6 14BF     		ite	ne
 991 02f8 0027     		movne	r7, #0
 992 02fa 0227     		moveq	r7, #2
 993 02fc 62E7     		b	.L41
 994              	.L114:
 995 02fe 00BF     		.align	2
 996              	.L113:
 997 0300 28000000 		.word	.LC2
 998 0304 00000000 		.word	.LANCHOR2
 999 0308 FC000000 		.word	.LC8
 1000 030c 00000000 		.word	_impure_ptr
 1001 0310 00000000 		.word	.LANCHOR3
 1002 0314 B0010000 		.word	.LC11
 1003 0318 90010000 		.word	.LC10
 1004 031c 00000000 		.word	.LANCHOR4
 1005 0320 60020000 		.word	.LC15
 1006              	.L37:
 306:D:/fchai/work/i-cube/I-CUBE-HUAWEI/Middlewares/Third_Party/Huawei/iot_link/link_ota/download/https\ota_https.c ****                 {
 1007              		.loc 1 306 17 is_stmt 1 view .LVU315
 306:D:/fchai/work/i-cube/I-CUBE-HUAWEI/Middlewares/Third_Party/Huawei/iot_link/link_ota/download/https\ota_https.c ****                 {
 1008              		.loc 1 306 19 is_stmt 0 view .LVU316
 1009 0324 0A2B     		cmp	r3, #10
 1010 0326 7FF44CAF 		bne	.L31
 1011              	.LVL98:
 322:D:/fchai/work/i-cube/I-CUBE-HUAWEI/Middlewares/Third_Party/Huawei/iot_link/link_ota/download/https\ota_https.c ****         LINK_LOG_DEBUG("HEADER:%s",section->cache);
 1012              		.loc 1 322 9 is_stmt 1 view .LVU317
 322:D:/fchai/work/i-cube/I-CUBE-HUAWEI/Middlewares/Third_Party/Huawei/iot_link/link_ota/download/https\ota_https.c ****         LINK_LOG_DEBUG("HEADER:%s",section->cache);
 1013              		.loc 1 322 32 is_stmt 0 view .LVU318
 1014 032a 2644     		add	r6, r6, r4
 1015 032c 0023     		movs	r3, #0
 1016 032e 3376     		strb	r3, [r6, #24]
 323:D:/fchai/work/i-cube/I-CUBE-HUAWEI/Middlewares/Third_Party/Huawei/iot_link/link_ota/download/https\ota_https.c ****     }
 1017              		.loc 1 323 9 is_stmt 1 view .LVU319
 323:D:/fchai/work/i-cube/I-CUBE-HUAWEI/Middlewares/Third_Party/Huawei/iot_link/link_ota/download/https\ota_https.c ****     }
 1018              		.loc 1 323 9 view .LVU320
 1019 0330 FFF7FEFF 		bl	link_log_level_get
 1020              	.LVL99:
 1021 0334 0128     		cmp	r0, #1
 1022 0336 40F29180 		bls	.L108
 1023              	.LVL100:
 1024              	.L61:
 323:D:/fchai/work/i-cube/I-CUBE-HUAWEI/Middlewares/Third_Party/Huawei/iot_link/link_ota/download/https\ota_https.c ****     }
 1025              		.loc 1 323 9 is_stmt 0 view .LVU321
 1026              	.LBE40:
 1027              	.LBE44:
 354:D:/fchai/work/i-cube/I-CUBE-HUAWEI/Middlewares/Third_Party/Huawei/iot_link/link_ota/download/https\ota_https.c ****     ret = loop_netread(handle, section->cache,len,CONFIG_HTTPS_DOWNLOADING_RWTIMEOUT);
 1028              		.loc 1 354 5 is_stmt 1 view .LVU322
 355:D:/fchai/work/i-cube/I-CUBE-HUAWEI/Middlewares/Third_Party/Huawei/iot_link/link_ota/download/https\ota_https.c **** 
 1029              		.loc 1 355 5 view .LVU323
 355:D:/fchai/work/i-cube/I-CUBE-HUAWEI/Middlewares/Third_Party/Huawei/iot_link/link_ota/download/https\ota_https.c **** 
 1030              		.loc 1 355 11 is_stmt 0 view .LVU324
 1031 033a 6269     		ldr	r2, [r4, #20]
 1032 033c 4846     		mov	r0, r9
 1033 033e 2946     		mov	r1, r5
 1034 0340 FFF7FEFF 		bl	loop_netread.constprop.0
ARM GAS  T:\msys\tmp\cc7ptNpf.s 			page 35


 1035              	.LVL101:
 1036              	.LDL1:
 358:D:/fchai/work/i-cube/I-CUBE-HUAWEI/Middlewares/Third_Party/Huawei/iot_link/link_ota/download/https\ota_https.c **** }
 1037              		.loc 1 358 5 is_stmt 1 view .LVU325
 358:D:/fchai/work/i-cube/I-CUBE-HUAWEI/Middlewares/Third_Party/Huawei/iot_link/link_ota/download/https\ota_https.c **** }
 1038              		.loc 1 358 5 is_stmt 0 view .LVU326
 1039              	.LBE51:
 1040              	.LBE59:
 367:D:/fchai/work/i-cube/I-CUBE-HUAWEI/Middlewares/Third_Party/Huawei/iot_link/link_ota/download/https\ota_https.c ****     {
 1041              		.loc 1 367 5 is_stmt 1 view .LVU327
 367:D:/fchai/work/i-cube/I-CUBE-HUAWEI/Middlewares/Third_Party/Huawei/iot_link/link_ota/download/https\ota_https.c ****     {
 1042              		.loc 1 367 7 is_stmt 0 view .LVU328
 1043 0344 0028     		cmp	r0, #0
 1044 0346 40F08481 		bne	.L109
 369:D:/fchai/work/i-cube/I-CUBE-HUAWEI/Middlewares/Third_Party/Huawei/iot_link/link_ota/download/https\ota_https.c **** 
 1045              		.loc 1 369 9 is_stmt 1 view .LVU329
 369:D:/fchai/work/i-cube/I-CUBE-HUAWEI/Middlewares/Third_Party/Huawei/iot_link/link_ota/download/https\ota_https.c **** 
 1046              		.loc 1 369 9 view .LVU330
 1047 034a FFF7FEFF 		bl	link_log_level_get
 1048              	.LVL102:
 369:D:/fchai/work/i-cube/I-CUBE-HUAWEI/Middlewares/Third_Party/Huawei/iot_link/link_ota/download/https\ota_https.c **** 
 1049              		.loc 1 369 9 is_stmt 0 view .LVU331
 1050 034e 0128     		cmp	r0, #1
 1051 0350 35D9     		bls	.L110
 1052              	.L42:
 369:D:/fchai/work/i-cube/I-CUBE-HUAWEI/Middlewares/Third_Party/Huawei/iot_link/link_ota/download/https\ota_https.c **** 
 1053              		.loc 1 369 9 is_stmt 1 view .LVU332
 369:D:/fchai/work/i-cube/I-CUBE-HUAWEI/Middlewares/Third_Party/Huawei/iot_link/link_ota/download/https\ota_https.c **** 
 1054              		.loc 1 369 9 view .LVU333
 369:D:/fchai/work/i-cube/I-CUBE-HUAWEI/Middlewares/Third_Party/Huawei/iot_link/link_ota/download/https\ota_https.c **** 
 1055              		.loc 1 369 9 view .LVU334
 371:D:/fchai/work/i-cube/I-CUBE-HUAWEI/Middlewares/Third_Party/Huawei/iot_link/link_ota/download/https\ota_https.c ****         if( ret == 0)
 1056              		.loc 1 371 9 view .LVU335
 371:D:/fchai/work/i-cube/I-CUBE-HUAWEI/Middlewares/Third_Party/Huawei/iot_link/link_ota/download/https\ota_https.c ****         if( ret == 0)
 1057              		.loc 1 371 15 is_stmt 0 view .LVU336
 1058 0352 D4E90423 		ldrd	r2, r3, [r4, #16]
 1059 0356 18EE100A 		vmov	r0, s16	@ int
 1060 035a 0093     		str	r3, [sp]
 1061 035c 0121     		movs	r1, #1
 1062 035e 2B46     		mov	r3, r5
 1063 0360 FFF7FEFF 		bl	ota_img_write
 1064              	.LVL103:
 372:D:/fchai/work/i-cube/I-CUBE-HUAWEI/Middlewares/Third_Party/Huawei/iot_link/link_ota/download/https\ota_https.c ****         {
 1065              		.loc 1 372 9 is_stmt 1 view .LVU337
 372:D:/fchai/work/i-cube/I-CUBE-HUAWEI/Middlewares/Third_Party/Huawei/iot_link/link_ota/download/https\ota_https.c ****         {
 1066              		.loc 1 372 11 is_stmt 0 view .LVU338
 1067 0364 A8B9     		cbnz	r0, .L43
 374:D:/fchai/work/i-cube/I-CUBE-HUAWEI/Middlewares/Third_Party/Huawei/iot_link/link_ota/download/https\ota_https.c ****         }
 1068              		.loc 1 374 13 is_stmt 1 view .LVU339
 374:D:/fchai/work/i-cube/I-CUBE-HUAWEI/Middlewares/Third_Party/Huawei/iot_link/link_ota/download/https\ota_https.c ****         }
 1069              		.loc 1 374 13 view .LVU340
 1070 0366 FFF7FEFF 		bl	link_log_level_get
 1071              	.LVL104:
 374:D:/fchai/work/i-cube/I-CUBE-HUAWEI/Middlewares/Third_Party/Huawei/iot_link/link_ota/download/https\ota_https.c ****         }
 1072              		.loc 1 374 13 is_stmt 0 view .LVU341
 1073 036a 0128     		cmp	r0, #1
 1074 036c 40F28980 		bls	.L111
ARM GAS  T:\msys\tmp\cc7ptNpf.s 			page 36


 1075              	.LVL105:
 1076              	.L44:
 374:D:/fchai/work/i-cube/I-CUBE-HUAWEI/Middlewares/Third_Party/Huawei/iot_link/link_ota/download/https\ota_https.c ****         }
 1077              		.loc 1 374 13 view .LVU342
 1078              	.LBE67:
 1079              	.LBE75:
 444:D:/fchai/work/i-cube/I-CUBE-HUAWEI/Middlewares/Third_Party/Huawei/iot_link/link_ota/download/https\ota_https.c ****                 file_off += section->len;
 1080              		.loc 1 444 17 is_stmt 1 view .LVU343
 444:D:/fchai/work/i-cube/I-CUBE-HUAWEI/Middlewares/Third_Party/Huawei/iot_link/link_ota/download/https\ota_https.c ****                 file_off += section->len;
 1081              		.loc 1 444 40 is_stmt 0 view .LVU344
 1082 0370 6269     		ldr	r2, [r4, #20]
 446:D:/fchai/work/i-cube/I-CUBE-HUAWEI/Middlewares/Third_Party/Huawei/iot_link/link_ota/download/https\ota_https.c ****                 {
 1083              		.loc 1 446 25 view .LVU345
 1084 0372 DAF82030 		ldr	r3, [r10, #32]
 444:D:/fchai/work/i-cube/I-CUBE-HUAWEI/Middlewares/Third_Party/Huawei/iot_link/link_ota/download/https\ota_https.c ****                 file_off += section->len;
 1085              		.loc 1 444 30 view .LVU346
 1086 0376 ABEB020B 		sub	fp, fp, r2
 1087              	.LVL106:
 445:D:/fchai/work/i-cube/I-CUBE-HUAWEI/Middlewares/Third_Party/Huawei/iot_link/link_ota/download/https\ota_https.c ****                 if(param->report_progress != NULL)
 1088              		.loc 1 445 17 is_stmt 1 view .LVU347
 445:D:/fchai/work/i-cube/I-CUBE-HUAWEI/Middlewares/Third_Party/Huawei/iot_link/link_ota/download/https\ota_https.c ****                 if(param->report_progress != NULL)
 1089              		.loc 1 445 26 is_stmt 0 view .LVU348
 1090 037a 9044     		add	r8, r8, r2
 1091              	.LVL107:
 446:D:/fchai/work/i-cube/I-CUBE-HUAWEI/Middlewares/Third_Party/Huawei/iot_link/link_ota/download/https\ota_https.c ****                 {
 1092              		.loc 1 446 17 is_stmt 1 view .LVU349
 446:D:/fchai/work/i-cube/I-CUBE-HUAWEI/Middlewares/Third_Party/Huawei/iot_link/link_ota/download/https\ota_https.c ****                 {
 1093              		.loc 1 446 19 is_stmt 0 view .LVU350
 1094 037c 23B1     		cbz	r3, .L45
 448:D:/fchai/work/i-cube/I-CUBE-HUAWEI/Middlewares/Third_Party/Huawei/iot_link/link_ota/download/https\ota_https.c ****                 }
 1095              		.loc 1 448 18 is_stmt 1 view .LVU351
 1096 037e DAF81410 		ldr	r1, [r10, #20]
 1097 0382 4246     		mov	r2, r8
 1098 0384 0020     		movs	r0, #0
 1099 0386 9847     		blx	r3
 1100              	.LVL108:
 1101              	.L45:
 436:D:/fchai/work/i-cube/I-CUBE-HUAWEI/Middlewares/Third_Party/Huawei/iot_link/link_ota/download/https\ota_https.c ****         {
 1102              		.loc 1 436 14 view .LVU352
 1103 0388 BBF1000F 		cmp	fp, #0
 1104 038c 3FF7E0AE 		bgt	.L46
 457:D:/fchai/work/i-cube/I-CUBE-HUAWEI/Middlewares/Third_Party/Huawei/iot_link/link_ota/download/https\ota_https.c ****         dtls_al_destroy(handle);
 1105              		.loc 1 457 1 is_stmt 0 view .LVU353
 1106 0390 74E7     		b	.L24
 1107              	.LVL109:
 1108              	.L43:
 1109              	.LBB76:
 1110              	.LBB68:
 378:D:/fchai/work/i-cube/I-CUBE-HUAWEI/Middlewares/Third_Party/Huawei/iot_link/link_ota/download/https\ota_https.c ****         }
 1111              		.loc 1 378 13 is_stmt 1 view .LVU354
 378:D:/fchai/work/i-cube/I-CUBE-HUAWEI/Middlewares/Third_Party/Huawei/iot_link/link_ota/download/https\ota_https.c ****         }
 1112              		.loc 1 378 13 view .LVU355
 378:D:/fchai/work/i-cube/I-CUBE-HUAWEI/Middlewares/Third_Party/Huawei/iot_link/link_ota/download/https\ota_https.c ****         }
 1113              		.loc 1 378 13 view .LVU356
 1114 0392 0420     		movs	r0, #4
 1115              	.LVL110:
 378:D:/fchai/work/i-cube/I-CUBE-HUAWEI/Middlewares/Third_Party/Huawei/iot_link/link_ota/download/https\ota_https.c ****         }
ARM GAS  T:\msys\tmp\cc7ptNpf.s 			page 37


 1116              		.loc 1 378 13 is_stmt 0 view .LVU357
 1117 0394 FFF7FEFF 		bl	link_log_level_name
 1118              	.LVL111:
 1119 0398 0546     		mov	r5, r0
 1120 039a FFF7FEFF 		bl	osal_sys_time
 1121              	.LVL112:
 1122 039e 6369     		ldr	r3, [r4, #20]
 1123 03a0 0193     		str	r3, [sp, #4]
 1124 03a2 2369     		ldr	r3, [r4, #16]
 1125 03a4 AC4E     		ldr	r6, .L115
 1126 03a6 0093     		str	r3, [sp]
 1127 03a8 0246     		mov	r2, r0
 1128 03aa AC4B     		ldr	r3, .L115+4
 1129 03ac AC48     		ldr	r0, .L115+8
 1130 03ae 2946     		mov	r1, r5
 1131 03b0 FFF7FEFF 		bl	printf
 1132              	.LVL113:
 378:D:/fchai/work/i-cube/I-CUBE-HUAWEI/Middlewares/Third_Party/Huawei/iot_link/link_ota/download/https\ota_https.c ****         }
 1133              		.loc 1 378 13 is_stmt 1 view .LVU358
 1134 03b4 3368     		ldr	r3, [r6]
 1135 03b6 9868     		ldr	r0, [r3, #8]
 1136 03b8 FFF7FEFF 		bl	fflush
 1137              	.LVL114:
 1138 03bc 5EE7     		b	.L24
 1139              	.L110:
 369:D:/fchai/work/i-cube/I-CUBE-HUAWEI/Middlewares/Third_Party/Huawei/iot_link/link_ota/download/https\ota_https.c **** 
 1140              		.loc 1 369 9 view .LVU359
 369:D:/fchai/work/i-cube/I-CUBE-HUAWEI/Middlewares/Third_Party/Huawei/iot_link/link_ota/download/https\ota_https.c **** 
 1141              		.loc 1 369 9 view .LVU360
 369:D:/fchai/work/i-cube/I-CUBE-HUAWEI/Middlewares/Third_Party/Huawei/iot_link/link_ota/download/https\ota_https.c **** 
 1142              		.loc 1 369 9 view .LVU361
 1143 03be 0120     		movs	r0, #1
 1144 03c0 FFF7FEFF 		bl	link_log_level_name
 1145              	.LVL115:
 1146 03c4 0646     		mov	r6, r0
 1147 03c6 FFF7FEFF 		bl	osal_sys_time
 1148              	.LVL116:
 1149 03ca 6369     		ldr	r3, [r4, #20]
 1150 03cc 0193     		str	r3, [sp, #4]
 1151 03ce 2369     		ldr	r3, [r4, #16]
 1152 03d0 A14F     		ldr	r7, .L115
 1153 03d2 0093     		str	r3, [sp]
 1154 03d4 0246     		mov	r2, r0
 1155 03d6 A14B     		ldr	r3, .L115+4
 1156 03d8 A248     		ldr	r0, .L115+12
 1157 03da 3146     		mov	r1, r6
 1158 03dc FFF7FEFF 		bl	printf
 1159              	.LVL117:
 369:D:/fchai/work/i-cube/I-CUBE-HUAWEI/Middlewares/Third_Party/Huawei/iot_link/link_ota/download/https\ota_https.c **** 
 1160              		.loc 1 369 9 view .LVU362
 1161 03e0 3B68     		ldr	r3, [r7]
 1162 03e2 9868     		ldr	r0, [r3, #8]
 1163 03e4 FFF7FEFF 		bl	fflush
 1164              	.LVL118:
 1165 03e8 B3E7     		b	.L42
 1166              	.LVL119:
 1167              	.L104:
ARM GAS  T:\msys\tmp\cc7ptNpf.s 			page 38


 1168              	.LBB60:
 1169              	.LBB52:
 338:D:/fchai/work/i-cube/I-CUBE-HUAWEI/Middlewares/Third_Party/Huawei/iot_link/link_ota/download/https\ota_https.c **** 
 1170              		.loc 1 338 5 view .LVU363
 338:D:/fchai/work/i-cube/I-CUBE-HUAWEI/Middlewares/Third_Party/Huawei/iot_link/link_ota/download/https\ota_https.c **** 
 1171              		.loc 1 338 5 view .LVU364
 338:D:/fchai/work/i-cube/I-CUBE-HUAWEI/Middlewares/Third_Party/Huawei/iot_link/link_ota/download/https\ota_https.c **** 
 1172              		.loc 1 338 5 view .LVU365
 1173 03ea 0120     		movs	r0, #1
 1174 03ec FFF7FEFF 		bl	link_log_level_name
 1175              	.LVL120:
 1176 03f0 0890     		str	r0, [sp, #32]
 1177 03f2 FFF7FEFF 		bl	osal_sys_time
 1178              	.LVL121:
 1179 03f6 089B     		ldr	r3, [sp, #32]
 1180 03f8 974F     		ldr	r7, .L115
 1181 03fa 0195     		str	r5, [sp, #4]
 1182 03fc 0246     		mov	r2, r0
 1183 03fe 1946     		mov	r1, r3
 1184 0400 0096     		str	r6, [sp]
 1185 0402 994B     		ldr	r3, .L115+16
 1186 0404 9948     		ldr	r0, .L115+20
 1187 0406 FFF7FEFF 		bl	printf
 1188              	.LVL122:
 338:D:/fchai/work/i-cube/I-CUBE-HUAWEI/Middlewares/Third_Party/Huawei/iot_link/link_ota/download/https\ota_https.c **** 
 1189              		.loc 1 338 5 view .LVU366
 1190 040a 3B68     		ldr	r3, [r7]
 1191 040c 9868     		ldr	r0, [r3, #8]
 1192 040e FFF7FEFF 		bl	fflush
 1193              	.LVL123:
 1194 0412 C4E6     		b	.L25
 1195              	.LVL124:
 1196              	.L102:
 338:D:/fchai/work/i-cube/I-CUBE-HUAWEI/Middlewares/Third_Party/Huawei/iot_link/link_ota/download/https\ota_https.c **** 
 1197              		.loc 1 338 5 is_stmt 0 view .LVU367
 1198              	.LBE52:
 1199              	.LBE60:
 1200              	.LBE68:
 1201              	.LBE76:
 425:D:/fchai/work/i-cube/I-CUBE-HUAWEI/Middlewares/Third_Party/Huawei/iot_link/link_ota/download/https\ota_https.c ****             continue;
 1202              		.loc 1 425 13 is_stmt 1 view .LVU368
 425:D:/fchai/work/i-cube/I-CUBE-HUAWEI/Middlewares/Third_Party/Huawei/iot_link/link_ota/download/https\ota_https.c ****             continue;
 1203              		.loc 1 425 13 view .LVU369
 425:D:/fchai/work/i-cube/I-CUBE-HUAWEI/Middlewares/Third_Party/Huawei/iot_link/link_ota/download/https\ota_https.c ****             continue;
 1204              		.loc 1 425 13 view .LVU370
 1205 0414 0420     		movs	r0, #4
 1206 0416 FFF7FEFF 		bl	link_log_level_name
 1207              	.LVL125:
 1208 041a 0546     		mov	r5, r0
 1209 041c FFF7FEFF 		bl	osal_sys_time
 1210              	.LVL126:
 1211 0420 8D4E     		ldr	r6, .L115
 1212 0422 934B     		ldr	r3, .L115+24
 1213 0424 0246     		mov	r2, r0
 1214 0426 2946     		mov	r1, r5
 1215 0428 9248     		ldr	r0, .L115+28
 1216 042a FFF7FEFF 		bl	printf
ARM GAS  T:\msys\tmp\cc7ptNpf.s 			page 39


 1217              	.LVL127:
 425:D:/fchai/work/i-cube/I-CUBE-HUAWEI/Middlewares/Third_Party/Huawei/iot_link/link_ota/download/https\ota_https.c ****             continue;
 1218              		.loc 1 425 13 view .LVU371
 1219 042e 3368     		ldr	r3, [r6]
 1220 0430 9868     		ldr	r0, [r3, #8]
 1221 0432 FFF7FEFF 		bl	fflush
 1222              	.LVL128:
 425:D:/fchai/work/i-cube/I-CUBE-HUAWEI/Middlewares/Third_Party/Huawei/iot_link/link_ota/download/https\ota_https.c ****             continue;
 1223              		.loc 1 425 13 view .LVU372
 425:D:/fchai/work/i-cube/I-CUBE-HUAWEI/Middlewares/Third_Party/Huawei/iot_link/link_ota/download/https\ota_https.c ****             continue;
 1224              		.loc 1 425 13 view .LVU373
 426:D:/fchai/work/i-cube/I-CUBE-HUAWEI/Middlewares/Third_Party/Huawei/iot_link/link_ota/download/https\ota_https.c ****         }
 1225              		.loc 1 426 13 view .LVU374
 1226 0436 24E7     		b	.L22
 1227              	.LVL129:
 1228              	.L103:
 432:D:/fchai/work/i-cube/I-CUBE-HUAWEI/Middlewares/Third_Party/Huawei/iot_link/link_ota/download/https\ota_https.c ****             goto EXIT_TLSCONNECT;
 1229              		.loc 1 432 13 view .LVU375
 432:D:/fchai/work/i-cube/I-CUBE-HUAWEI/Middlewares/Third_Party/Huawei/iot_link/link_ota/download/https\ota_https.c ****             goto EXIT_TLSCONNECT;
 1230              		.loc 1 432 13 view .LVU376
 432:D:/fchai/work/i-cube/I-CUBE-HUAWEI/Middlewares/Third_Party/Huawei/iot_link/link_ota/download/https\ota_https.c ****             goto EXIT_TLSCONNECT;
 1231              		.loc 1 432 13 view .LVU377
 1232 0438 0420     		movs	r0, #4
 1233              	.LVL130:
 432:D:/fchai/work/i-cube/I-CUBE-HUAWEI/Middlewares/Third_Party/Huawei/iot_link/link_ota/download/https\ota_https.c ****             goto EXIT_TLSCONNECT;
 1234              		.loc 1 432 13 is_stmt 0 view .LVU378
 1235 043a FFF7FEFF 		bl	link_log_level_name
 1236              	.LVL131:
 1237 043e 0546     		mov	r5, r0
 1238 0440 FFF7FEFF 		bl	osal_sys_time
 1239              	.LVL132:
 1240 0444 844E     		ldr	r6, .L115
 1241 0446 8A4B     		ldr	r3, .L115+24
 1242 0448 0246     		mov	r2, r0
 1243 044a 2946     		mov	r1, r5
 1244 044c 8A48     		ldr	r0, .L115+32
 1245 044e FFF7FEFF 		bl	printf
 1246              	.LVL133:
 432:D:/fchai/work/i-cube/I-CUBE-HUAWEI/Middlewares/Third_Party/Huawei/iot_link/link_ota/download/https\ota_https.c ****             goto EXIT_TLSCONNECT;
 1247              		.loc 1 432 13 is_stmt 1 view .LVU379
 1248 0452 3368     		ldr	r3, [r6]
 1249 0454 9868     		ldr	r0, [r3, #8]
 1250 0456 FFF7FEFF 		bl	fflush
 1251              	.LVL134:
 432:D:/fchai/work/i-cube/I-CUBE-HUAWEI/Middlewares/Third_Party/Huawei/iot_link/link_ota/download/https\ota_https.c ****             goto EXIT_TLSCONNECT;
 1252              		.loc 1 432 13 view .LVU380
 432:D:/fchai/work/i-cube/I-CUBE-HUAWEI/Middlewares/Third_Party/Huawei/iot_link/link_ota/download/https\ota_https.c ****             goto EXIT_TLSCONNECT;
 1253              		.loc 1 432 13 view .LVU381
 433:D:/fchai/work/i-cube/I-CUBE-HUAWEI/Middlewares/Third_Party/Huawei/iot_link/link_ota/download/https\ota_https.c ****         }
 1254              		.loc 1 433 13 view .LVU382
 1255 045a 0FE7     		b	.L24
 1256              	.LVL135:
 1257              	.L108:
 1258              	.LBB77:
 1259              	.LBB69:
 1260              	.LBB61:
 1261              	.LBB53:
ARM GAS  T:\msys\tmp\cc7ptNpf.s 			page 40


 1262              	.LBB45:
 1263              	.LBB41:
 323:D:/fchai/work/i-cube/I-CUBE-HUAWEI/Middlewares/Third_Party/Huawei/iot_link/link_ota/download/https\ota_https.c ****     }
 1264              		.loc 1 323 9 view .LVU383
 323:D:/fchai/work/i-cube/I-CUBE-HUAWEI/Middlewares/Third_Party/Huawei/iot_link/link_ota/download/https\ota_https.c ****     }
 1265              		.loc 1 323 9 view .LVU384
 323:D:/fchai/work/i-cube/I-CUBE-HUAWEI/Middlewares/Third_Party/Huawei/iot_link/link_ota/download/https\ota_https.c ****     }
 1266              		.loc 1 323 9 view .LVU385
 1267 045c 0120     		movs	r0, #1
 1268 045e FFF7FEFF 		bl	link_log_level_name
 1269              	.LVL136:
 1270 0462 0646     		mov	r6, r0
 1271 0464 FFF7FEFF 		bl	osal_sys_time
 1272              	.LVL137:
 1273 0468 7B4F     		ldr	r7, .L115
 1274 046a 844B     		ldr	r3, .L115+36
 1275 046c 0095     		str	r5, [sp]
 1276 046e 0246     		mov	r2, r0
 1277 0470 3146     		mov	r1, r6
 1278 0472 8348     		ldr	r0, .L115+40
 1279 0474 FFF7FEFF 		bl	printf
 1280              	.LVL138:
 323:D:/fchai/work/i-cube/I-CUBE-HUAWEI/Middlewares/Third_Party/Huawei/iot_link/link_ota/download/https\ota_https.c ****     }
 1281              		.loc 1 323 9 view .LVU386
 1282 0478 3B68     		ldr	r3, [r7]
 1283 047a 9868     		ldr	r0, [r3, #8]
 1284 047c FFF7FEFF 		bl	fflush
 1285              	.LVL139:
 323:D:/fchai/work/i-cube/I-CUBE-HUAWEI/Middlewares/Third_Party/Huawei/iot_link/link_ota/download/https\ota_https.c ****     }
 1286              		.loc 1 323 9 view .LVU387
 323:D:/fchai/work/i-cube/I-CUBE-HUAWEI/Middlewares/Third_Party/Huawei/iot_link/link_ota/download/https\ota_https.c ****     }
 1287              		.loc 1 323 9 view .LVU388
 323:D:/fchai/work/i-cube/I-CUBE-HUAWEI/Middlewares/Third_Party/Huawei/iot_link/link_ota/download/https\ota_https.c ****     }
 1288              		.loc 1 323 9 view .LVU389
 327:D:/fchai/work/i-cube/I-CUBE-HUAWEI/Middlewares/Third_Party/Huawei/iot_link/link_ota/download/https\ota_https.c **** }
 1289              		.loc 1 327 5 view .LVU390
 327:D:/fchai/work/i-cube/I-CUBE-HUAWEI/Middlewares/Third_Party/Huawei/iot_link/link_ota/download/https\ota_https.c **** }
 1290              		.loc 1 327 5 is_stmt 0 view .LVU391
 1291              	.LBE41:
 1292              	.LBE45:
 348:D:/fchai/work/i-cube/I-CUBE-HUAWEI/Middlewares/Third_Party/Huawei/iot_link/link_ota/download/https\ota_https.c ****     {
 1293              		.loc 1 348 5 is_stmt 1 view .LVU392
 1294 0480 5BE7     		b	.L61
 1295              	.LVL140:
 1296              	.L111:
 348:D:/fchai/work/i-cube/I-CUBE-HUAWEI/Middlewares/Third_Party/Huawei/iot_link/link_ota/download/https\ota_https.c ****     {
 1297              		.loc 1 348 5 is_stmt 0 view .LVU393
 1298              	.LBE53:
 1299              	.LBE61:
 374:D:/fchai/work/i-cube/I-CUBE-HUAWEI/Middlewares/Third_Party/Huawei/iot_link/link_ota/download/https\ota_https.c ****         }
 1300              		.loc 1 374 13 is_stmt 1 view .LVU394
 374:D:/fchai/work/i-cube/I-CUBE-HUAWEI/Middlewares/Third_Party/Huawei/iot_link/link_ota/download/https\ota_https.c ****         }
 1301              		.loc 1 374 13 view .LVU395
 374:D:/fchai/work/i-cube/I-CUBE-HUAWEI/Middlewares/Third_Party/Huawei/iot_link/link_ota/download/https\ota_https.c ****         }
 1302              		.loc 1 374 13 view .LVU396
 1303 0482 0120     		movs	r0, #1
 1304 0484 FFF7FEFF 		bl	link_log_level_name
ARM GAS  T:\msys\tmp\cc7ptNpf.s 			page 41


 1305              	.LVL141:
 1306 0488 0646     		mov	r6, r0
 1307 048a FFF7FEFF 		bl	osal_sys_time
 1308              	.LVL142:
 1309 048e 6369     		ldr	r3, [r4, #20]
 1310 0490 0193     		str	r3, [sp, #4]
 1311 0492 2369     		ldr	r3, [r4, #16]
 1312 0494 704F     		ldr	r7, .L115
 1313 0496 0093     		str	r3, [sp]
 1314 0498 0246     		mov	r2, r0
 1315 049a 704B     		ldr	r3, .L115+4
 1316 049c 7948     		ldr	r0, .L115+44
 1317 049e 3146     		mov	r1, r6
 1318 04a0 FFF7FEFF 		bl	printf
 1319              	.LVL143:
 374:D:/fchai/work/i-cube/I-CUBE-HUAWEI/Middlewares/Third_Party/Huawei/iot_link/link_ota/download/https\ota_https.c ****         }
 1320              		.loc 1 374 13 view .LVU397
 1321 04a4 3B68     		ldr	r3, [r7]
 1322 04a6 9868     		ldr	r0, [r3, #8]
 1323 04a8 FFF7FEFF 		bl	fflush
 1324              	.LVL144:
 383:D:/fchai/work/i-cube/I-CUBE-HUAWEI/Middlewares/Third_Party/Huawei/iot_link/link_ota/download/https\ota_https.c ****     }
 1325              		.loc 1 383 9 view .LVU398
 383:D:/fchai/work/i-cube/I-CUBE-HUAWEI/Middlewares/Third_Party/Huawei/iot_link/link_ota/download/https\ota_https.c ****     }
 1326              		.loc 1 383 9 view .LVU399
 385:D:/fchai/work/i-cube/I-CUBE-HUAWEI/Middlewares/Third_Party/Huawei/iot_link/link_ota/download/https\ota_https.c **** }
 1327              		.loc 1 385 5 view .LVU400
 385:D:/fchai/work/i-cube/I-CUBE-HUAWEI/Middlewares/Third_Party/Huawei/iot_link/link_ota/download/https\ota_https.c **** }
 1328              		.loc 1 385 5 is_stmt 0 view .LVU401
 1329              	.LBE69:
 1330              	.LBE77:
 442:D:/fchai/work/i-cube/I-CUBE-HUAWEI/Middlewares/Third_Party/Huawei/iot_link/link_ota/download/https\ota_https.c ****             {
 1331              		.loc 1 442 13 is_stmt 1 view .LVU402
 1332 04ac 60E7     		b	.L44
 1333              	.LVL145:
 1334              	.L98:
 442:D:/fchai/work/i-cube/I-CUBE-HUAWEI/Middlewares/Third_Party/Huawei/iot_link/link_ota/download/https\ota_https.c ****             {
 1335              		.loc 1 442 13 is_stmt 0 view .LVU403
 1336              	.LBE79:
 1337              	.LBE83:
 485:D:/fchai/work/i-cube/I-CUBE-HUAWEI/Middlewares/Third_Party/Huawei/iot_link/link_ota/download/https\ota_https.c ****         goto EXIT_FLAGGET;
 1338              		.loc 1 485 9 is_stmt 1 view .LVU404
 485:D:/fchai/work/i-cube/I-CUBE-HUAWEI/Middlewares/Third_Party/Huawei/iot_link/link_ota/download/https\ota_https.c ****         goto EXIT_FLAGGET;
 1339              		.loc 1 485 9 view .LVU405
 485:D:/fchai/work/i-cube/I-CUBE-HUAWEI/Middlewares/Third_Party/Huawei/iot_link/link_ota/download/https\ota_https.c ****         goto EXIT_FLAGGET;
 1340              		.loc 1 485 9 view .LVU406
 1341 04ae 0420     		movs	r0, #4
 1342              	.LVL146:
 485:D:/fchai/work/i-cube/I-CUBE-HUAWEI/Middlewares/Third_Party/Huawei/iot_link/link_ota/download/https\ota_https.c ****         goto EXIT_FLAGGET;
 1343              		.loc 1 485 9 is_stmt 0 view .LVU407
 1344 04b0 FFF7FEFF 		bl	link_log_level_name
 1345              	.LVL147:
 1346 04b4 0446     		mov	r4, r0
 1347 04b6 FFF7FEFF 		bl	osal_sys_time
 1348              	.LVL148:
 1349 04ba 734B     		ldr	r3, .L115+48
 1350 04bc 0246     		mov	r2, r0
ARM GAS  T:\msys\tmp\cc7ptNpf.s 			page 42


 1351 04be 7348     		ldr	r0, .L115+52
 1352 04c0 2146     		mov	r1, r4
 1353              	.L97:
 492:D:/fchai/work/i-cube/I-CUBE-HUAWEI/Middlewares/Third_Party/Huawei/iot_link/link_ota/download/https\ota_https.c ****         goto EXIT_SECTIONPARAM;
 1354              		.loc 1 492 9 view .LVU408
 1355 04c2 FFF7FEFF 		bl	printf
 1356              	.LVL149:
 492:D:/fchai/work/i-cube/I-CUBE-HUAWEI/Middlewares/Third_Party/Huawei/iot_link/link_ota/download/https\ota_https.c ****         goto EXIT_SECTIONPARAM;
 1357              		.loc 1 492 9 is_stmt 1 view .LVU409
 1358 04c6 644B     		ldr	r3, .L115
 1359 04c8 1B68     		ldr	r3, [r3]
 1360 04ca 9868     		ldr	r0, [r3, #8]
 1361 04cc FFF7FEFF 		bl	fflush
 1362              	.LVL150:
 492:D:/fchai/work/i-cube/I-CUBE-HUAWEI/Middlewares/Third_Party/Huawei/iot_link/link_ota/download/https\ota_https.c ****         goto EXIT_SECTIONPARAM;
 1363              		.loc 1 492 9 view .LVU410
 492:D:/fchai/work/i-cube/I-CUBE-HUAWEI/Middlewares/Third_Party/Huawei/iot_link/link_ota/download/https\ota_https.c ****         goto EXIT_SECTIONPARAM;
 1364              		.loc 1 492 9 view .LVU411
 493:D:/fchai/work/i-cube/I-CUBE-HUAWEI/Middlewares/Third_Party/Huawei/iot_link/link_ota/download/https\ota_https.c ****     }
 1365              		.loc 1 493 9 view .LVU412
 1366              		.loc 1 541 1 is_stmt 0 view .LVU413
 1367 04d0 2846     		mov	r0, r5
 1368 04d2 47B0     		add	sp, sp, #284
 1369              	.LCFI7:
 1370              		.cfi_remember_state
 1371              		.cfi_def_cfa_offset 44
 1372              		@ sp needed
 1373 04d4 BDEC028B 		vldm	sp!, {d8}
 1374              	.LCFI8:
 1375              		.cfi_restore 80
 1376              		.cfi_restore 81
 1377              		.cfi_def_cfa_offset 36
 1378 04d8 BDE8F08F 		pop	{r4, r5, r6, r7, r8, r9, r10, fp, pc}
 1379              	.LVL151:
 1380              	.L107:
 1381              	.LCFI9:
 1382              		.cfi_restore_state
 516:D:/fchai/work/i-cube/I-CUBE-HUAWEI/Middlewares/Third_Party/Huawei/iot_link/link_ota/download/https\ota_https.c ****     }
 1383              		.loc 1 516 9 is_stmt 1 view .LVU414
 516:D:/fchai/work/i-cube/I-CUBE-HUAWEI/Middlewares/Third_Party/Huawei/iot_link/link_ota/download/https\ota_https.c ****     }
 1384              		.loc 1 516 9 view .LVU415
 1385 04dc FFF7FEFF 		bl	link_log_level_get
 1386              	.LVL152:
 516:D:/fchai/work/i-cube/I-CUBE-HUAWEI/Middlewares/Third_Party/Huawei/iot_link/link_ota/download/https\ota_https.c ****     }
 1387              		.loc 1 516 9 is_stmt 0 view .LVU416
 1388 04e0 0128     		cmp	r0, #1
 1389 04e2 10D8     		bhi	.L51
 516:D:/fchai/work/i-cube/I-CUBE-HUAWEI/Middlewares/Third_Party/Huawei/iot_link/link_ota/download/https\ota_https.c ****     }
 1390              		.loc 1 516 9 is_stmt 1 discriminator 1 view .LVU417
 516:D:/fchai/work/i-cube/I-CUBE-HUAWEI/Middlewares/Third_Party/Huawei/iot_link/link_ota/download/https\ota_https.c ****     }
 1391              		.loc 1 516 9 discriminator 1 view .LVU418
 516:D:/fchai/work/i-cube/I-CUBE-HUAWEI/Middlewares/Third_Party/Huawei/iot_link/link_ota/download/https\ota_https.c ****     }
 1392              		.loc 1 516 9 discriminator 1 view .LVU419
 1393 04e4 0120     		movs	r0, #1
 1394 04e6 FFF7FEFF 		bl	link_log_level_name
 1395              	.LVL153:
 1396 04ea 0546     		mov	r5, r0
ARM GAS  T:\msys\tmp\cc7ptNpf.s 			page 43


 1397              	.LVL154:
 516:D:/fchai/work/i-cube/I-CUBE-HUAWEI/Middlewares/Third_Party/Huawei/iot_link/link_ota/download/https\ota_https.c ****     }
 1398              		.loc 1 516 9 is_stmt 0 discriminator 1 view .LVU420
 1399 04ec FFF7FEFF 		bl	osal_sys_time
 1400              	.LVL155:
 1401 04f0 654B     		ldr	r3, .L115+48
 1402 04f2 0246     		mov	r2, r0
 1403 04f4 2946     		mov	r1, r5
 1404 04f6 6648     		ldr	r0, .L115+56
 1405 04f8 FFF7FEFF 		bl	printf
 1406              	.LVL156:
 516:D:/fchai/work/i-cube/I-CUBE-HUAWEI/Middlewares/Third_Party/Huawei/iot_link/link_ota/download/https\ota_https.c ****     }
 1407              		.loc 1 516 9 is_stmt 1 discriminator 1 view .LVU421
 1408 04fc 564B     		ldr	r3, .L115
 1409 04fe 1B68     		ldr	r3, [r3]
 1410 0500 9868     		ldr	r0, [r3, #8]
 1411 0502 FFF7FEFF 		bl	fflush
 1412              	.LVL157:
 1413              	.L51:
 516:D:/fchai/work/i-cube/I-CUBE-HUAWEI/Middlewares/Third_Party/Huawei/iot_link/link_ota/download/https\ota_https.c ****     }
 1414              		.loc 1 516 9 discriminator 3 view .LVU422
 516:D:/fchai/work/i-cube/I-CUBE-HUAWEI/Middlewares/Third_Party/Huawei/iot_link/link_ota/download/https\ota_https.c ****     }
 1415              		.loc 1 516 9 discriminator 3 view .LVU423
 516:D:/fchai/work/i-cube/I-CUBE-HUAWEI/Middlewares/Third_Party/Huawei/iot_link/link_ota/download/https\ota_https.c ****     }
 1416              		.loc 1 516 9 discriminator 3 view .LVU424
 519:D:/fchai/work/i-cube/I-CUBE-HUAWEI/Middlewares/Third_Party/Huawei/iot_link/link_ota/download/https\ota_https.c ****     otaflag.info.img_download.file_off = param->file_offset;
 1417              		.loc 1 519 5 discriminator 3 view .LVU425
 520:D:/fchai/work/i-cube/I-CUBE-HUAWEI/Middlewares/Third_Party/Huawei/iot_link/link_ota/download/https\ota_https.c ****     strncpy((char *)otaflag.info.img_download.ver,param->version,CONFIG_OTA_VERSIONLEN);
 1418              		.loc 1 520 40 is_stmt 0 discriminator 3 view .LVU426
 1419 0506 D6E90523 		ldrd	r2, r3, [r6, #20]
 521:D:/fchai/work/i-cube/I-CUBE-HUAWEI/Middlewares/Third_Party/Huawei/iot_link/link_ota/download/https\ota_https.c ****     otaflag.info.curstatus = EN_OTA_STATUS_DOWNLOADED;
 1420              		.loc 1 521 5 discriminator 3 view .LVU427
 1421 050a F168     		ldr	r1, [r6, #12]
 519:D:/fchai/work/i-cube/I-CUBE-HUAWEI/Middlewares/Third_Party/Huawei/iot_link/link_ota/download/https\ota_https.c ****     otaflag.info.img_download.file_off = param->file_offset;
 1422              		.loc 1 519 41 discriminator 3 view .LVU428
 1423 050c 4092     		str	r2, [sp, #256]
 520:D:/fchai/work/i-cube/I-CUBE-HUAWEI/Middlewares/Third_Party/Huawei/iot_link/link_ota/download/https\ota_https.c ****     strncpy((char *)otaflag.info.img_download.ver,param->version,CONFIG_OTA_VERSIONLEN);
 1424              		.loc 1 520 5 is_stmt 1 discriminator 3 view .LVU429
 521:D:/fchai/work/i-cube/I-CUBE-HUAWEI/Middlewares/Third_Party/Huawei/iot_link/link_ota/download/https\ota_https.c ****     otaflag.info.curstatus = EN_OTA_STATUS_DOWNLOADED;
 1425              		.loc 1 521 5 is_stmt 0 discriminator 3 view .LVU430
 1426 050e 37A8     		add	r0, sp, #220
 1427 0510 2022     		movs	r2, #32
 520:D:/fchai/work/i-cube/I-CUBE-HUAWEI/Middlewares/Third_Party/Huawei/iot_link/link_ota/download/https\ota_https.c ****     strncpy((char *)otaflag.info.img_download.ver,param->version,CONFIG_OTA_VERSIONLEN);
 1428              		.loc 1 520 40 discriminator 3 view .LVU431
 1429 0512 4193     		str	r3, [sp, #260]
 521:D:/fchai/work/i-cube/I-CUBE-HUAWEI/Middlewares/Third_Party/Huawei/iot_link/link_ota/download/https\ota_https.c ****     otaflag.info.curstatus = EN_OTA_STATUS_DOWNLOADED;
 1430              		.loc 1 521 5 is_stmt 1 discriminator 3 view .LVU432
 523:D:/fchai/work/i-cube/I-CUBE-HUAWEI/Middlewares/Third_Party/Huawei/iot_link/link_ota/download/https\ota_https.c **** 
 1431              		.loc 1 523 31 is_stmt 0 discriminator 3 view .LVU433
 1432 0514 0127     		movs	r7, #1
 521:D:/fchai/work/i-cube/I-CUBE-HUAWEI/Middlewares/Third_Party/Huawei/iot_link/link_ota/download/https\ota_https.c ****     otaflag.info.curstatus = EN_OTA_STATUS_DOWNLOADED;
 1433              		.loc 1 521 5 discriminator 3 view .LVU434
 1434 0516 FFF7FEFF 		bl	strncpy
 1435              	.LVL158:
 522:D:/fchai/work/i-cube/I-CUBE-HUAWEI/Middlewares/Third_Party/Huawei/iot_link/link_ota/download/https\ota_https.c ****     otaflag.info.upgrade_step = EN_OTA_UPGRADE_STEP_START;
 1436              		.loc 1 522 5 is_stmt 1 discriminator 3 view .LVU435
 522:D:/fchai/work/i-cube/I-CUBE-HUAWEI/Middlewares/Third_Party/Huawei/iot_link/link_ota/download/https\ota_https.c ****     otaflag.info.upgrade_step = EN_OTA_UPGRADE_STEP_START;
ARM GAS  T:\msys\tmp\cc7ptNpf.s 			page 44


 1437              		.loc 1 522 28 is_stmt 0 discriminator 3 view .LVU436
 1438 051a 0223     		movs	r3, #2
 525:D:/fchai/work/i-cube/I-CUBE-HUAWEI/Middlewares/Third_Party/Huawei/iot_link/link_ota/download/https\ota_https.c ****     if(ret != 0)
 1439              		.loc 1 525 11 discriminator 3 view .LVU437
 1440 051c 307F     		ldrb	r0, [r6, #28]	@ zero_extendqisi2
 523:D:/fchai/work/i-cube/I-CUBE-HUAWEI/Middlewares/Third_Party/Huawei/iot_link/link_ota/download/https\ota_https.c **** 
 1441              		.loc 1 523 31 discriminator 3 view .LVU438
 1442 051e 1A97     		str	r7, [sp, #104]
 525:D:/fchai/work/i-cube/I-CUBE-HUAWEI/Middlewares/Third_Party/Huawei/iot_link/link_ota/download/https\ota_https.c ****     if(ret != 0)
 1443              		.loc 1 525 11 discriminator 3 view .LVU439
 1444 0520 19A9     		add	r1, sp, #100
 522:D:/fchai/work/i-cube/I-CUBE-HUAWEI/Middlewares/Third_Party/Huawei/iot_link/link_ota/download/https\ota_https.c ****     otaflag.info.upgrade_step = EN_OTA_UPGRADE_STEP_START;
 1445              		.loc 1 522 28 discriminator 3 view .LVU440
 1446 0522 1993     		str	r3, [sp, #100]
 523:D:/fchai/work/i-cube/I-CUBE-HUAWEI/Middlewares/Third_Party/Huawei/iot_link/link_ota/download/https\ota_https.c **** 
 1447              		.loc 1 523 5 is_stmt 1 discriminator 3 view .LVU441
 525:D:/fchai/work/i-cube/I-CUBE-HUAWEI/Middlewares/Third_Party/Huawei/iot_link/link_ota/download/https\ota_https.c ****     if(ret != 0)
 1448              		.loc 1 525 5 discriminator 3 view .LVU442
 525:D:/fchai/work/i-cube/I-CUBE-HUAWEI/Middlewares/Third_Party/Huawei/iot_link/link_ota/download/https\ota_https.c ****     if(ret != 0)
 1449              		.loc 1 525 11 is_stmt 0 discriminator 3 view .LVU443
 1450 0524 FFF7FEFF 		bl	ota_flag_save
 1451              	.LVL159:
 526:D:/fchai/work/i-cube/I-CUBE-HUAWEI/Middlewares/Third_Party/Huawei/iot_link/link_ota/download/https\ota_https.c ****     {
 1452              		.loc 1 526 5 is_stmt 1 discriminator 3 view .LVU444
 526:D:/fchai/work/i-cube/I-CUBE-HUAWEI/Middlewares/Third_Party/Huawei/iot_link/link_ota/download/https\ota_https.c ****     {
 1453              		.loc 1 526 7 is_stmt 0 discriminator 3 view .LVU445
 1454 0528 0546     		mov	r5, r0
 1455 052a 10BB     		cbnz	r0, .L112
 531:D:/fchai/work/i-cube/I-CUBE-HUAWEI/Middlewares/Third_Party/Huawei/iot_link/link_ota/download/https\ota_https.c **** 
 1456              		.loc 1 531 5 is_stmt 1 view .LVU446
 531:D:/fchai/work/i-cube/I-CUBE-HUAWEI/Middlewares/Third_Party/Huawei/iot_link/link_ota/download/https\ota_https.c **** 
 1457              		.loc 1 531 5 view .LVU447
 1458 052c FFF7FEFF 		bl	link_log_level_get
 1459              	.LVL160:
 531:D:/fchai/work/i-cube/I-CUBE-HUAWEI/Middlewares/Third_Party/Huawei/iot_link/link_ota/download/https\ota_https.c **** 
 1460              		.loc 1 531 5 is_stmt 0 view .LVU448
 1461 0530 0128     		cmp	r0, #1
 1462 0532 3FF6CBAE 		bhi	.L56
 531:D:/fchai/work/i-cube/I-CUBE-HUAWEI/Middlewares/Third_Party/Huawei/iot_link/link_ota/download/https\ota_https.c **** 
 1463              		.loc 1 531 5 is_stmt 1 discriminator 1 view .LVU449
 531:D:/fchai/work/i-cube/I-CUBE-HUAWEI/Middlewares/Third_Party/Huawei/iot_link/link_ota/download/https\ota_https.c **** 
 1464              		.loc 1 531 5 discriminator 1 view .LVU450
 531:D:/fchai/work/i-cube/I-CUBE-HUAWEI/Middlewares/Third_Party/Huawei/iot_link/link_ota/download/https\ota_https.c **** 
 1465              		.loc 1 531 5 discriminator 1 view .LVU451
 1466 0536 3846     		mov	r0, r7
 1467 0538 FFF7FEFF 		bl	link_log_level_name
 1468              	.LVL161:
 1469 053c 0646     		mov	r6, r0
 1470              	.LVL162:
 531:D:/fchai/work/i-cube/I-CUBE-HUAWEI/Middlewares/Third_Party/Huawei/iot_link/link_ota/download/https\ota_https.c **** 
 1471              		.loc 1 531 5 is_stmt 0 discriminator 1 view .LVU452
 1472 053e FFF7FEFF 		bl	osal_sys_time
 1473              	.LVL163:
 1474 0542 514B     		ldr	r3, .L115+48
 1475 0544 0246     		mov	r2, r0
 1476 0546 3146     		mov	r1, r6
 1477 0548 5248     		ldr	r0, .L115+60
ARM GAS  T:\msys\tmp\cc7ptNpf.s 			page 45


 1478 054a 1CE0     		b	.L96
 1479              	.LVL164:
 1480              	.L99:
 1481              	.LBB84:
 1482              	.LBB18:
 145:D:/fchai/work/i-cube/I-CUBE-HUAWEI/Middlewares/Third_Party/Huawei/iot_link/link_ota/download/https\ota_https.c ****         port_end = port_start + strlen(CN_URL_PORT_DEFAULT) -1;
 1483              		.loc 1 145 9 is_stmt 1 view .LVU453
 146:D:/fchai/work/i-cube/I-CUBE-HUAWEI/Middlewares/Third_Party/Huawei/iot_link/link_ota/download/https\ota_https.c **** 
 1484              		.loc 1 146 9 view .LVU454
 148:D:/fchai/work/i-cube/I-CUBE-HUAWEI/Middlewares/Third_Party/Huawei/iot_link/link_ota/download/https\ota_https.c ****         if(NULL == tmp_ret)
 1485              		.loc 1 148 9 view .LVU455
 148:D:/fchai/work/i-cube/I-CUBE-HUAWEI/Middlewares/Third_Party/Huawei/iot_link/link_ota/download/https\ota_https.c ****         if(NULL == tmp_ret)
 1486              		.loc 1 148 19 is_stmt 0 view .LVU456
 1487 054c 5846     		mov	r0, fp
 1488              	.LVL165:
 148:D:/fchai/work/i-cube/I-CUBE-HUAWEI/Middlewares/Third_Party/Huawei/iot_link/link_ota/download/https\ota_https.c ****         if(NULL == tmp_ret)
 1489              		.loc 1 148 19 view .LVU457
 1490 054e FFF7FEFF 		bl	strchr
 1491              	.LVL166:
 149:D:/fchai/work/i-cube/I-CUBE-HUAWEI/Middlewares/Third_Party/Huawei/iot_link/link_ota/download/https\ota_https.c ****         {
 1492              		.loc 1 149 9 is_stmt 1 view .LVU458
 149:D:/fchai/work/i-cube/I-CUBE-HUAWEI/Middlewares/Third_Party/Huawei/iot_link/link_ota/download/https\ota_https.c ****         {
 1493              		.loc 1 149 11 is_stmt 0 view .LVU459
 1494 0552 8246     		mov	r10, r0
 1495 0554 F8B1     		cbz	r0, .L13
 153:D:/fchai/work/i-cube/I-CUBE-HUAWEI/Middlewares/Third_Party/Huawei/iot_link/link_ota/download/https\ota_https.c ****         urlre_start = tmp_ret;
 1496              		.loc 1 153 9 is_stmt 1 view .LVU460
 155:D:/fchai/work/i-cube/I-CUBE-HUAWEI/Middlewares/Third_Party/Huawei/iot_link/link_ota/download/https\ota_https.c ****     }
 1497              		.loc 1 155 31 is_stmt 0 view .LVU461
 1498 0556 2046     		mov	r0, r4
 1499              	.LVL167:
 155:D:/fchai/work/i-cube/I-CUBE-HUAWEI/Middlewares/Third_Party/Huawei/iot_link/link_ota/download/https\ota_https.c ****     }
 1500              		.loc 1 155 31 view .LVU462
 1501 0558 FFF7FEFF 		bl	strlen
 1502              	.LVL168:
 1503 055c 4FF00208 		mov	r8, #2
 155:D:/fchai/work/i-cube/I-CUBE-HUAWEI/Middlewares/Third_Party/Huawei/iot_link/link_ota/download/https\ota_https.c ****     }
 1504              		.loc 1 155 47 view .LVU463
 1505 0560 0138     		subs	r0, r0, #1
 145:D:/fchai/work/i-cube/I-CUBE-HUAWEI/Middlewares/Third_Party/Huawei/iot_link/link_ota/download/https\ota_https.c ****         port_end = port_start + strlen(CN_URL_PORT_DEFAULT) -1;
 1506              		.loc 1 145 20 view .LVU464
 1507 0562 DFF84891 		ldr	r9, .L115+84
 1508 0566 CDF82080 		str	r8, [sp, #32]
 155:D:/fchai/work/i-cube/I-CUBE-HUAWEI/Middlewares/Third_Party/Huawei/iot_link/link_ota/download/https\ota_https.c ****     }
 1509              		.loc 1 155 19 view .LVU465
 1510 056a 0444     		add	r4, r4, r0
 153:D:/fchai/work/i-cube/I-CUBE-HUAWEI/Middlewares/Third_Party/Huawei/iot_link/link_ota/download/https\ota_https.c ****         urlre_start = tmp_ret;
 1511              		.loc 1 153 18 view .LVU466
 1512 056c 0AF1FF37 		add	r7, r10, #-1
 1513              	.LVL169:
 154:D:/fchai/work/i-cube/I-CUBE-HUAWEI/Middlewares/Third_Party/Huawei/iot_link/link_ota/download/https\ota_https.c ****         urlre_end = cb->url + strlen(cb->url) -1;
 1514              		.loc 1 154 9 is_stmt 1 view .LVU467
 155:D:/fchai/work/i-cube/I-CUBE-HUAWEI/Middlewares/Third_Party/Huawei/iot_link/link_ota/download/https\ota_https.c ****     }
 1515              		.loc 1 155 9 view .LVU468
 155:D:/fchai/work/i-cube/I-CUBE-HUAWEI/Middlewares/Third_Party/Huawei/iot_link/link_ota/download/https\ota_https.c ****     }
 1516              		.loc 1 155 9 is_stmt 0 view .LVU469
 1517 0570 7AE5     		b	.L15
ARM GAS  T:\msys\tmp\cc7ptNpf.s 			page 46


 1518              	.LVL170:
 1519              	.L112:
 155:D:/fchai/work/i-cube/I-CUBE-HUAWEI/Middlewares/Third_Party/Huawei/iot_link/link_ota/download/https\ota_https.c ****     }
 1520              		.loc 1 155 9 view .LVU470
 1521              	.LBE18:
 1522              	.LBE84:
 528:D:/fchai/work/i-cube/I-CUBE-HUAWEI/Middlewares/Third_Party/Huawei/iot_link/link_ota/download/https\ota_https.c ****         goto EXIT_FLAGSAVE;
 1523              		.loc 1 528 9 is_stmt 1 view .LVU471
 528:D:/fchai/work/i-cube/I-CUBE-HUAWEI/Middlewares/Third_Party/Huawei/iot_link/link_ota/download/https\ota_https.c ****         goto EXIT_FLAGSAVE;
 1524              		.loc 1 528 9 view .LVU472
 528:D:/fchai/work/i-cube/I-CUBE-HUAWEI/Middlewares/Third_Party/Huawei/iot_link/link_ota/download/https\ota_https.c ****         goto EXIT_FLAGSAVE;
 1525              		.loc 1 528 9 view .LVU473
 1526 0572 0420     		movs	r0, #4
 1527              	.LVL171:
 528:D:/fchai/work/i-cube/I-CUBE-HUAWEI/Middlewares/Third_Party/Huawei/iot_link/link_ota/download/https\ota_https.c ****         goto EXIT_FLAGSAVE;
 1528              		.loc 1 528 9 is_stmt 0 view .LVU474
 1529 0574 FFF7FEFF 		bl	link_log_level_name
 1530              	.LVL172:
 1531 0578 0646     		mov	r6, r0
 1532              	.LVL173:
 528:D:/fchai/work/i-cube/I-CUBE-HUAWEI/Middlewares/Third_Party/Huawei/iot_link/link_ota/download/https\ota_https.c ****         goto EXIT_FLAGSAVE;
 1533              		.loc 1 528 9 view .LVU475
 1534 057a FFF7FEFF 		bl	osal_sys_time
 1535              	.LVL174:
 1536 057e 424B     		ldr	r3, .L115+48
 1537 0580 0246     		mov	r2, r0
 1538 0582 4548     		ldr	r0, .L115+64
 1539 0584 3146     		mov	r1, r6
 1540              	.L96:
 531:D:/fchai/work/i-cube/I-CUBE-HUAWEI/Middlewares/Third_Party/Huawei/iot_link/link_ota/download/https\ota_https.c **** 
 1541              		.loc 1 531 5 discriminator 1 view .LVU476
 1542 0586 FFF7FEFF 		bl	printf
 1543              	.LVL175:
 531:D:/fchai/work/i-cube/I-CUBE-HUAWEI/Middlewares/Third_Party/Huawei/iot_link/link_ota/download/https\ota_https.c **** 
 1544              		.loc 1 531 5 is_stmt 1 discriminator 1 view .LVU477
 1545 058a 334B     		ldr	r3, .L115
 1546 058c 1B68     		ldr	r3, [r3]
 1547 058e 9868     		ldr	r0, [r3, #8]
 1548 0590 FFF7FEFF 		bl	fflush
 1549              	.LVL176:
 1550 0594 9AE6     		b	.L56
 1551              	.LVL177:
 1552              	.L13:
 492:D:/fchai/work/i-cube/I-CUBE-HUAWEI/Middlewares/Third_Party/Huawei/iot_link/link_ota/download/https\ota_https.c ****         goto EXIT_SECTIONPARAM;
 1553              		.loc 1 492 9 view .LVU478
 492:D:/fchai/work/i-cube/I-CUBE-HUAWEI/Middlewares/Third_Party/Huawei/iot_link/link_ota/download/https\ota_https.c ****         goto EXIT_SECTIONPARAM;
 1554              		.loc 1 492 9 view .LVU479
 492:D:/fchai/work/i-cube/I-CUBE-HUAWEI/Middlewares/Third_Party/Huawei/iot_link/link_ota/download/https\ota_https.c ****         goto EXIT_SECTIONPARAM;
 1555              		.loc 1 492 9 view .LVU480
 1556 0596 0420     		movs	r0, #4
 1557 0598 FFF7FEFF 		bl	link_log_level_name
 1558              	.LVL178:
 1559 059c 0446     		mov	r4, r0
 1560 059e FFF7FEFF 		bl	osal_sys_time
 1561              	.LVL179:
 1562 05a2 394B     		ldr	r3, .L115+48
 1563 05a4 0246     		mov	r2, r0
ARM GAS  T:\msys\tmp\cc7ptNpf.s 			page 47


 1564 05a6 2146     		mov	r1, r4
 1565 05a8 3C48     		ldr	r0, .L115+68
 1566 05aa 8AE7     		b	.L97
 1567              	.LVL180:
 1568              	.L100:
 1569              	.LBB85:
 1570              	.LBB80:
 401:D:/fchai/work/i-cube/I-CUBE-HUAWEI/Middlewares/Third_Party/Huawei/iot_link/link_ota/download/https\ota_https.c ****         goto EXIT_ERASE;
 1571              		.loc 1 401 9 view .LVU481
 401:D:/fchai/work/i-cube/I-CUBE-HUAWEI/Middlewares/Third_Party/Huawei/iot_link/link_ota/download/https\ota_https.c ****         goto EXIT_ERASE;
 1572              		.loc 1 401 9 view .LVU482
 401:D:/fchai/work/i-cube/I-CUBE-HUAWEI/Middlewares/Third_Party/Huawei/iot_link/link_ota/download/https\ota_https.c ****         goto EXIT_ERASE;
 1573              		.loc 1 401 9 view .LVU483
 1574 05ac 0420     		movs	r0, #4
 1575              	.LVL181:
 401:D:/fchai/work/i-cube/I-CUBE-HUAWEI/Middlewares/Third_Party/Huawei/iot_link/link_ota/download/https\ota_https.c ****         goto EXIT_ERASE;
 1576              		.loc 1 401 9 is_stmt 0 view .LVU484
 1577 05ae FFF7FEFF 		bl	link_log_level_name
 1578              	.LVL182:
 1579 05b2 0646     		mov	r6, r0
 1580              	.LVL183:
 401:D:/fchai/work/i-cube/I-CUBE-HUAWEI/Middlewares/Third_Party/Huawei/iot_link/link_ota/download/https\ota_https.c ****         goto EXIT_ERASE;
 1581              		.loc 1 401 9 view .LVU485
 1582 05b4 FFF7FEFF 		bl	osal_sys_time
 1583              	.LVL184:
 1584 05b8 274F     		ldr	r7, .L115
 1585 05ba 2D4B     		ldr	r3, .L115+24
 1586 05bc 0246     		mov	r2, r0
 1587 05be 3146     		mov	r1, r6
 1588 05c0 3748     		ldr	r0, .L115+72
 1589 05c2 FFF7FEFF 		bl	printf
 1590              	.LVL185:
 401:D:/fchai/work/i-cube/I-CUBE-HUAWEI/Middlewares/Third_Party/Huawei/iot_link/link_ota/download/https\ota_https.c ****         goto EXIT_ERASE;
 1591              		.loc 1 401 9 is_stmt 1 view .LVU486
 1592 05c6 3B68     		ldr	r3, [r7]
 1593 05c8 9868     		ldr	r0, [r3, #8]
 1594 05ca FFF7FEFF 		bl	fflush
 1595              	.LVL186:
 401:D:/fchai/work/i-cube/I-CUBE-HUAWEI/Middlewares/Third_Party/Huawei/iot_link/link_ota/download/https\ota_https.c ****         goto EXIT_ERASE;
 1596              		.loc 1 401 9 view .LVU487
 401:D:/fchai/work/i-cube/I-CUBE-HUAWEI/Middlewares/Third_Party/Huawei/iot_link/link_ota/download/https\ota_https.c ****         goto EXIT_ERASE;
 1597              		.loc 1 401 9 view .LVU488
 402:D:/fchai/work/i-cube/I-CUBE-HUAWEI/Middlewares/Third_Party/Huawei/iot_link/link_ota/download/https\ota_https.c ****     }
 1598              		.loc 1 402 9 view .LVU489
 1599              	.LDL2:
 472:D:/fchai/work/i-cube/I-CUBE-HUAWEI/Middlewares/Third_Party/Huawei/iot_link/link_ota/download/https\ota_https.c **** }
 1600              		.loc 1 472 5 view .LVU490
 472:D:/fchai/work/i-cube/I-CUBE-HUAWEI/Middlewares/Third_Party/Huawei/iot_link/link_ota/download/https\ota_https.c **** }
 1601              		.loc 1 472 5 is_stmt 0 view .LVU491
 1602              	.LBE80:
 1603              	.LBE85:
 497:D:/fchai/work/i-cube/I-CUBE-HUAWEI/Middlewares/Third_Party/Huawei/iot_link/link_ota/download/https\ota_https.c ****     {
 1604              		.loc 1 497 5 is_stmt 1 view .LVU492
 1605              	.L18:
 499:D:/fchai/work/i-cube/I-CUBE-HUAWEI/Middlewares/Third_Party/Huawei/iot_link/link_ota/download/https\ota_https.c ****         goto EXIT_DOWNLOAD;
 1606              		.loc 1 499 9 view .LVU493
 499:D:/fchai/work/i-cube/I-CUBE-HUAWEI/Middlewares/Third_Party/Huawei/iot_link/link_ota/download/https\ota_https.c ****         goto EXIT_DOWNLOAD;
ARM GAS  T:\msys\tmp\cc7ptNpf.s 			page 48


 1607              		.loc 1 499 9 view .LVU494
 499:D:/fchai/work/i-cube/I-CUBE-HUAWEI/Middlewares/Third_Party/Huawei/iot_link/link_ota/download/https\ota_https.c ****         goto EXIT_DOWNLOAD;
 1608              		.loc 1 499 9 view .LVU495
 1609 05ce 0420     		movs	r0, #4
 1610 05d0 FFF7FEFF 		bl	link_log_level_name
 1611              	.LVL187:
 1612 05d4 0646     		mov	r6, r0
 1613 05d6 FFF7FEFF 		bl	osal_sys_time
 1614              	.LVL188:
 1615 05da 2B4B     		ldr	r3, .L115+48
 1616 05dc 0246     		mov	r2, r0
 1617 05de 3146     		mov	r1, r6
 1618 05e0 3048     		ldr	r0, .L115+76
 1619 05e2 FFF7FEFF 		bl	printf
 1620              	.LVL189:
 499:D:/fchai/work/i-cube/I-CUBE-HUAWEI/Middlewares/Third_Party/Huawei/iot_link/link_ota/download/https\ota_https.c ****         goto EXIT_DOWNLOAD;
 1621              		.loc 1 499 9 view .LVU496
 1622 05e6 3B68     		ldr	r3, [r7]
 1623 05e8 9868     		ldr	r0, [r3, #8]
 1624 05ea FFF7FEFF 		bl	fflush
 1625              	.LVL190:
 499:D:/fchai/work/i-cube/I-CUBE-HUAWEI/Middlewares/Third_Party/Huawei/iot_link/link_ota/download/https\ota_https.c ****         goto EXIT_DOWNLOAD;
 1626              		.loc 1 499 9 view .LVU497
 499:D:/fchai/work/i-cube/I-CUBE-HUAWEI/Middlewares/Third_Party/Huawei/iot_link/link_ota/download/https\ota_https.c ****         goto EXIT_DOWNLOAD;
 1627              		.loc 1 499 9 view .LVU498
 500:D:/fchai/work/i-cube/I-CUBE-HUAWEI/Middlewares/Third_Party/Huawei/iot_link/link_ota/download/https\ota_https.c ****     }
 1628              		.loc 1 500 9 view .LVU499
 1629 05ee 6DE6     		b	.L56
 1630              	.LVL191:
 1631              	.L101:
 1632              	.LBB86:
 1633              	.LBB81:
 406:D:/fchai/work/i-cube/I-CUBE-HUAWEI/Middlewares/Third_Party/Huawei/iot_link/link_ota/download/https\ota_https.c ****     }
 1634              		.loc 1 406 9 view .LVU500
 406:D:/fchai/work/i-cube/I-CUBE-HUAWEI/Middlewares/Third_Party/Huawei/iot_link/link_ota/download/https\ota_https.c ****     }
 1635              		.loc 1 406 9 view .LVU501
 406:D:/fchai/work/i-cube/I-CUBE-HUAWEI/Middlewares/Third_Party/Huawei/iot_link/link_ota/download/https\ota_https.c ****     }
 1636              		.loc 1 406 9 view .LVU502
 1637 05f0 0120     		movs	r0, #1
 1638 05f2 FFF7FEFF 		bl	link_log_level_name
 1639              	.LVL192:
 1640 05f6 8046     		mov	r8, r0
 1641 05f8 FFF7FEFF 		bl	osal_sys_time
 1642              	.LVL193:
 1643 05fc 164F     		ldr	r7, .L115
 1644 05fe 1C4B     		ldr	r3, .L115+24
 1645 0600 0246     		mov	r2, r0
 1646 0602 4146     		mov	r1, r8
 1647 0604 2848     		ldr	r0, .L115+80
 1648 0606 FFF7FEFF 		bl	printf
 1649              	.LVL194:
 406:D:/fchai/work/i-cube/I-CUBE-HUAWEI/Middlewares/Third_Party/Huawei/iot_link/link_ota/download/https\ota_https.c ****     }
 1650              		.loc 1 406 9 view .LVU503
 1651 060a 3B68     		ldr	r3, [r7]
 1652 060c 9868     		ldr	r0, [r3, #8]
 1653 060e FFF7FEFF 		bl	fflush
 1654              	.LVL195:
ARM GAS  T:\msys\tmp\cc7ptNpf.s 			page 49


 1655 0612 70E5     		b	.L19
 1656              	.LVL196:
 1657              	.L106:
 468:D:/fchai/work/i-cube/I-CUBE-HUAWEI/Middlewares/Third_Party/Huawei/iot_link/link_ota/download/https\ota_https.c ****     }
 1658              		.loc 1 468 9 view .LVU504
 472:D:/fchai/work/i-cube/I-CUBE-HUAWEI/Middlewares/Third_Party/Huawei/iot_link/link_ota/download/https\ota_https.c **** }
 1659              		.loc 1 472 5 view .LVU505
 472:D:/fchai/work/i-cube/I-CUBE-HUAWEI/Middlewares/Third_Party/Huawei/iot_link/link_ota/download/https\ota_https.c **** }
 1660              		.loc 1 472 5 is_stmt 0 view .LVU506
 1661              	.LBE81:
 1662              	.LBE86:
 497:D:/fchai/work/i-cube/I-CUBE-HUAWEI/Middlewares/Third_Party/Huawei/iot_link/link_ota/download/https\ota_https.c ****     {
 1663              		.loc 1 497 5 is_stmt 1 view .LVU507
 1664 0614 104F     		ldr	r7, .L115
 1665              	.LBB87:
 1666              	.LBB82:
 468:D:/fchai/work/i-cube/I-CUBE-HUAWEI/Middlewares/Third_Party/Huawei/iot_link/link_ota/download/https\ota_https.c ****     }
 1667              		.loc 1 468 13 is_stmt 0 view .LVU508
 1668 0616 4FF0FF35 		mov	r5, #-1
 1669 061a D8E7     		b	.L18
 1670              	.LVL197:
 1671              	.L91:
 1672              	.LBB78:
 1673              	.LBB70:
 1674              	.LBB62:
 1675              	.LBB54:
 1676              	.LBB46:
 1677              	.LBB42:
 322:D:/fchai/work/i-cube/I-CUBE-HUAWEI/Middlewares/Third_Party/Huawei/iot_link/link_ota/download/https\ota_https.c ****         LINK_LOG_DEBUG("HEADER:%s",section->cache);
 1678              		.loc 1 322 9 is_stmt 1 view .LVU509
 322:D:/fchai/work/i-cube/I-CUBE-HUAWEI/Middlewares/Third_Party/Huawei/iot_link/link_ota/download/https\ota_https.c ****         LINK_LOG_DEBUG("HEADER:%s",section->cache);
 1679              		.loc 1 322 32 is_stmt 0 view .LVU510
 1680 061c 2644     		add	r6, r6, r4
 1681 061e 0023     		movs	r3, #0
 1682 0620 3376     		strb	r3, [r6, #24]
 323:D:/fchai/work/i-cube/I-CUBE-HUAWEI/Middlewares/Third_Party/Huawei/iot_link/link_ota/download/https\ota_https.c ****     }
 1683              		.loc 1 323 9 is_stmt 1 view .LVU511
 323:D:/fchai/work/i-cube/I-CUBE-HUAWEI/Middlewares/Third_Party/Huawei/iot_link/link_ota/download/https\ota_https.c ****     }
 1684              		.loc 1 323 9 view .LVU512
 1685 0622 FFF7FEFF 		bl	link_log_level_get
 1686              	.LVL198:
 323:D:/fchai/work/i-cube/I-CUBE-HUAWEI/Middlewares/Third_Party/Huawei/iot_link/link_ota/download/https\ota_https.c ****     }
 1687              		.loc 1 323 9 is_stmt 0 view .LVU513
 1688 0626 0128     		cmp	r0, #1
 1689 0628 3FF6F0AD 		bhi	.L95
 323:D:/fchai/work/i-cube/I-CUBE-HUAWEI/Middlewares/Third_Party/Huawei/iot_link/link_ota/download/https\ota_https.c ****     }
 1690              		.loc 1 323 9 is_stmt 1 view .LVU514
 323:D:/fchai/work/i-cube/I-CUBE-HUAWEI/Middlewares/Third_Party/Huawei/iot_link/link_ota/download/https\ota_https.c ****     }
 1691              		.loc 1 323 9 view .LVU515
 323:D:/fchai/work/i-cube/I-CUBE-HUAWEI/Middlewares/Third_Party/Huawei/iot_link/link_ota/download/https\ota_https.c ****     }
 1692              		.loc 1 323 9 view .LVU516
 1693 062c 0120     		movs	r0, #1
 1694 062e FFF7FEFF 		bl	link_log_level_name
 1695              	.LVL199:
 1696 0632 0746     		mov	r7, r0
 1697 0634 FFF7FEFF 		bl	osal_sys_time
 1698              	.LVL200:
ARM GAS  T:\msys\tmp\cc7ptNpf.s 			page 50


 1699 0638 074E     		ldr	r6, .L115
 1700 063a 104B     		ldr	r3, .L115+36
 1701 063c 0095     		str	r5, [sp]
 1702 063e 0246     		mov	r2, r0
 1703 0640 3946     		mov	r1, r7
 1704 0642 0F48     		ldr	r0, .L115+40
 1705 0644 FFF7FEFF 		bl	printf
 1706              	.LVL201:
 323:D:/fchai/work/i-cube/I-CUBE-HUAWEI/Middlewares/Third_Party/Huawei/iot_link/link_ota/download/https\ota_https.c ****     }
 1707              		.loc 1 323 9 view .LVU517
 1708 0648 3368     		ldr	r3, [r6]
 1709 064a 9868     		ldr	r0, [r3, #8]
 1710 064c FFF7FEFF 		bl	fflush
 1711              	.LVL202:
 323:D:/fchai/work/i-cube/I-CUBE-HUAWEI/Middlewares/Third_Party/Huawei/iot_link/link_ota/download/https\ota_https.c ****     }
 1712              		.loc 1 323 9 view .LVU518
 323:D:/fchai/work/i-cube/I-CUBE-HUAWEI/Middlewares/Third_Party/Huawei/iot_link/link_ota/download/https\ota_https.c ****     }
 1713              		.loc 1 323 9 view .LVU519
 323:D:/fchai/work/i-cube/I-CUBE-HUAWEI/Middlewares/Third_Party/Huawei/iot_link/link_ota/download/https\ota_https.c ****     }
 1714              		.loc 1 323 9 view .LVU520
 327:D:/fchai/work/i-cube/I-CUBE-HUAWEI/Middlewares/Third_Party/Huawei/iot_link/link_ota/download/https\ota_https.c **** }
 1715              		.loc 1 327 5 view .LVU521
 327:D:/fchai/work/i-cube/I-CUBE-HUAWEI/Middlewares/Third_Party/Huawei/iot_link/link_ota/download/https\ota_https.c **** }
 1716              		.loc 1 327 5 is_stmt 0 view .LVU522
 1717              	.LBE42:
 1718              	.LBE46:
 348:D:/fchai/work/i-cube/I-CUBE-HUAWEI/Middlewares/Third_Party/Huawei/iot_link/link_ota/download/https\ota_https.c ****     {
 1719              		.loc 1 348 5 is_stmt 1 view .LVU523
 1720 0650 DDE5     		b	.L58
 1721              	.LVL203:
 1722              	.L109:
 348:D:/fchai/work/i-cube/I-CUBE-HUAWEI/Middlewares/Third_Party/Huawei/iot_link/link_ota/download/https\ota_https.c ****     {
 1723              		.loc 1 348 5 is_stmt 0 view .LVU524
 1724 0652 014E     		ldr	r6, .L115
 1725 0654 FEE5     		b	.L29
 1726              	.L116:
 1727 0656 00BF     		.align	2
 1728              	.L115:
 1729 0658 00000000 		.word	_impure_ptr
 1730 065c 00000000 		.word	.LANCHOR4
 1731 0660 34020000 		.word	.LC14
 1732 0664 D0010000 		.word	.LC12
 1733 0668 00000000 		.word	.LANCHOR3
 1734 066c 64010000 		.word	.LC9
 1735 0670 00000000 		.word	.LANCHOR1
 1736 0674 B8000000 		.word	.LC6
 1737 0678 DC000000 		.word	.LC7
 1738 067c 00000000 		.word	.LANCHOR5
 1739 0680 34030000 		.word	.LC20
 1740 0684 04020000 		.word	.LC13
 1741 0688 00000000 		.word	.LANCHOR0
 1742 068c 04000000 		.word	.LC1
 1743 0690 B8020000 		.word	.LC17
 1744 0694 FC020000 		.word	.LC19
 1745 0698 DC020000 		.word	.LC18
 1746 069c 34000000 		.word	.LC3
 1747 06a0 58000000 		.word	.LC4
ARM GAS  T:\msys\tmp\cc7ptNpf.s 			page 51


 1748 06a4 90020000 		.word	.LC16
 1749 06a8 88000000 		.word	.LC5
 1750 06ac 00000000 		.word	.LC0
 1751              	.LBE54:
 1752              	.LBE62:
 1753              	.LBE70:
 1754              	.LBE78:
 1755              	.LBE82:
 1756              	.LBE87:
 1757              		.cfi_endproc
 1758              	.LFE11:
 1760              		.section	.rodata.__FUNCTION__.7654,"a"
 1761              		.align	2
 1762              		.set	.LANCHOR5,. + 0
 1765              	__FUNCTION__.7654:
 1766 0000 6C6F6F70 		.ascii	"loop_dealheader\000"
 1766      5F646561 
 1766      6C686561 
 1766      64657200 
 1767              		.section	.rodata.__FUNCTION__.7661,"a"
 1768              		.align	2
 1769              		.set	.LANCHOR3,. + 0
 1772              	__FUNCTION__.7661:
 1773 0000 68747470 		.ascii	"http_getandrecv\000"
 1773      5F676574 
 1773      616E6472 
 1773      65637600 
 1774              		.section	.rodata.__FUNCTION__.7669,"a"
 1775              		.align	2
 1776              		.set	.LANCHOR4,. + 0
 1779              	__FUNCTION__.7669:
 1780 0000 68747470 		.ascii	"http_dealsection\000"
 1780      5F646561 
 1780      6C736563 
 1780      74696F6E 
 1780      00
 1781              		.section	.rodata.__FUNCTION__.7680,"a"
 1782              		.align	2
 1783              		.set	.LANCHOR1,. + 0
 1786              	__FUNCTION__.7680:
 1787 0000 68747470 		.ascii	"https_filedownload\000"
 1787      735F6669 
 1787      6C65646F 
 1787      776E6C6F 
 1787      616400
 1788              		.section	.rodata.__FUNCTION__.7695,"a"
 1789              		.align	2
 1790              		.set	.LANCHOR0,. + 0
 1793              	__FUNCTION__.7695:
 1794 0000 6F74615F 		.ascii	"ota_https_download\000"
 1794      68747470 
 1794      735F646F 
 1794      776E6C6F 
 1794      616400
 1795              		.section	.rodata.g_https_serverca,"a"
 1796              		.align	2
 1797              		.set	.LANCHOR2,. + 0
ARM GAS  T:\msys\tmp\cc7ptNpf.s 			page 52


 1800              	g_https_serverca:
 1801 0000 202D2D2D 		.ascii	" -----BEGIN CERTIFICATE-----\015\012MIIDrzCCApegAwI"
 1801      2D2D4245 
 1801      47494E20 
 1801      43455254 
 1801      49464943 
 1802 002d 42416749 		.ascii	"BAgIQCDvgVpBCRrGhdWrJWZHHSjANBgkqhkiG9w0BAQUFADBh\015"
 1802      51434476 
 1802      67567042 
 1802      43527247 
 1802      68645772 
 1803 005f 0A4D5173 		.ascii	"\012MQswCQYDVQQGEwJVUzEVMBMGA1UEChMMRGlnaUNlcnQgSW5"
 1803      77435159 
 1803      44565151 
 1803      4745774A 
 1803      56557A45 
 1804 008f 6A4D526B 		.ascii	"jMRkwFwYDVQQLExB3\015\012d3cuZGlnaWNlcnQuY29tMSAwHg"
 1804      77467759 
 1804      44565151 
 1804      4C457842 
 1804      330D0A64 
 1805 00bc 59445651 		.ascii	"YDVQQDExdEaWdpQ2VydCBHbG9iYWwgUm9vdCBD\015\012QTAeF"
 1805      51444578 
 1805      64456157 
 1805      64705132 
 1805      56796443 
 1806 00e9 7730774E 		.ascii	"w0wNjExMTAwMDAwMDBaFw0zMTExMTAwMDAwMDBaMGExCzAJBgNV"
 1806      6A45784D 
 1806      5441774D 
 1806      4441774D 
 1806      44426146 
 1807 011c 42415954 		.ascii	"BAYTAlVT\015\012MRUwEwYDVQQKEwxEaWdpQ2VydCBJbmMxGTA"
 1807      416C5654 
 1807      0D0A4D52 
 1807      55774577 
 1807      59445651 
 1808 0149 5842674E 		.ascii	"XBgNVBAsTEHd3dy5kaWdpY2VydC5j\015\012b20xIDAeBgNVBA"
 1808      56424173 
 1808      54454864 
 1808      33647935 
 1808      6B615764 
 1809 0176 4D544630 		.ascii	"MTF0RpZ2lDZXJ0IEdsb2JhbCBSb290IENBMIIBIjANBgkqhkiG\015"
 1809      52705A32 
 1809      6C445A58 
 1809      4A304945 
 1809      64736232 
 1810 01a9 0A397730 		.ascii	"\0129w0BAQEFAAOCAQ8AMIIBCgKCAQEA4jvhEXLeqKTTo1eqUKK"
 1810      42415145 
 1810      4641414F 
 1810      43415138 
 1810      414D4949 
 1811 01d9 50433365 		.ascii	"PC3eQyaKl7hLOllsB\015\012CSDMAZOnTjC3U/dDxGkAV53ijS"
 1811      5179614B 
 1811      6C37684C 
 1811      4F6C6C73 
 1811      420D0A43 
 1812 0206 4C646877 		.ascii	"LdhwZAAIEJzs4bg7/fzTtxRuLWZscFs3YnFo97\015\012nh6Vf"
ARM GAS  T:\msys\tmp\cc7ptNpf.s 			page 53


 1812      5A414149 
 1812      454A7A73 
 1812      34626737 
 1812      2F667A54 
 1813 0233 65363353 		.ascii	"e63SKMI2tavegw5BmV/Sl0fvBf4q77uKNd0f3p4mVmFaG5cIzJL"
 1813      4B4D4932 
 1813      74617665 
 1813      67773542 
 1813      6D562F53 
 1814 0266 76303741 		.ascii	"v07A6Fpt\015\01243C/dxC//AH2hdmoRBBYMql1GNXRor5H4id"
 1814      36467074 
 1814      0D0A3433 
 1814      432F6478 
 1814      432F2F41 
 1815 0293 71394A6F 		.ascii	"q9Joz+EkIYIvUX7Q6hL+hqkpMfT7P\015\012T19sdl6gSzeRnt"
 1815      7A2B456B 
 1815      49594976 
 1815      55583751 
 1815      36684C2B 
 1816 02c0 7769356D 		.ascii	"wi5m3OFBqOasv+zbMUZBfHWymeMr/y7vrTC0LUq7dBMtoM1O/4\015"
 1816      334F4642 
 1816      714F6173 
 1816      762B7A62 
 1816      4D555A42 
 1817 02f3 0A676457 		.ascii	"\012gdW7jVg/tRvoSSiicNoxBN33shbyTApOB6jtSj1etX+jkMO"
 1817      376A5667 
 1817      2F745276 
 1817      6F535369 
 1817      69634E6F 
 1818 0323 764A7749 		.ascii	"vJwIDAQABo2MwYTAO\015\012BgNVHQ8BAf8EBAMCAYYwDwYDVR"
 1818      44415141 
 1818      426F324D 
 1818      77595441 
 1818      4F0D0A42 
 1819 0350 30544151 		.ascii	"0TAQH/BAUwAwEB/zAdBgNVHQ4EFgQUA95QNVbR\015\012TLtm8"
 1819      482F4241 
 1819      55774177 
 1819      45422F7A 
 1819      41644267 
 1820 037d 4B506947 		.ascii	"KPiGxvDl7I90VUwHwYDVR0jBBgwFoAUA95QNVbRTLtm8KPiGxvD"
 1820      7876446C 
 1820      37493930 
 1820      56557748 
 1820      77594456 
 1821 03b0 6C374939 		.ascii	"l7I90VUw\015\012DQYJKoZIhvcNAQEFBQADggEBAMucN6pIExI"
 1821      30565577 
 1821      0D0A4451 
 1821      594A4B6F 
 1821      5A496876 
 1822 03dd 4B2B7431 		.ascii	"K+t1EnE9SsPTfrgT1eXkIoyQY/Esr\015\012hMAtudXH/vTBH1"
 1822      456E4539 
 1822      53735054 
 1822      66726754 
 1822      3165586B 
 1823 040a 6A4C7547 		.ascii	"jLuG2cenTnmCmrEbXjcKChzUyImZOMkXDiqw8cvpOp/2PV5Adg\015"
 1823      3263656E 
 1823      546E6D43 
ARM GAS  T:\msys\tmp\cc7ptNpf.s 			page 54


 1823      6D724562 
 1823      586A634B 
 1824 043d 0A30364F 		.ascii	"\01206O/nVsJ8dWO41P0jmP6P6fbtGbfYmbW0W5BjfIttep3Sp+"
 1824      2F6E5673 
 1824      4A386457 
 1824      4F343150 
 1824      306A6D50 
 1825 046d 64574F49 		.ascii	"dWOIrWcBAI+0tKIJF\015\012PnlUkiaY4IBIqDfv8NZ5YBberO"
 1825      72576342 
 1825      41492B30 
 1825      744B494A 
 1825      460D0A50 
 1826 049a 674F7A57 		.ascii	"gOzW6sRBc4L0na4UU+Krk2U886UAb3LujEV0ls\015\012YSEY1"
 1826      36735242 
 1826      63344C30 
 1826      6E613455 
 1826      552B4B72 
 1827 04c7 51537465 		.ascii	"QSteDwsOoBrp+uvFRTp2InBuThs4pFsiv9kuXclVzDAGySj4dzp"
 1827      4477734F 
 1827      6F427270 
 1827      2B757646 
 1827      52547032 
 1828 04fa 33306438 		.ascii	"30d8tbQk\015\012CAUw7C29C79Fv1C5qfPrmAESrciIxpg0X40"
 1828      7462516B 
 1828      0D0A4341 
 1828      55773743 
 1828      32394337 
 1829 0527 4B504D62 		.ascii	"KPMbp1ZWVbd4=\015\012-----END CERTIFICATE-----\015\012"
 1829      70315A57 
 1829      56626434 
 1829      3D0D0A2D 
 1829      2D2D2D2D 
 1830 0551 00       		.ascii	"\000"
 1831              		.text
 1832              	.Letext0:
 1833              		.file 2 "t:\\msys\\3rd\\gcc-arm-none-eabi-9-2020-q2-update-win32\\arm-none-eabi\\include\\machine\
 1834              		.file 3 "t:\\msys\\3rd\\gcc-arm-none-eabi-9-2020-q2-update-win32\\arm-none-eabi\\include\\sys\\_st
 1835              		.file 4 "t:\\msys\\3rd\\gcc-arm-none-eabi-9-2020-q2-update-win32\\lib\\gcc\\arm-none-eabi\\9.3.1\\
 1836              		.file 5 "t:\\msys\\3rd\\gcc-arm-none-eabi-9-2020-q2-update-win32\\arm-none-eabi\\include\\sys\\_ty
 1837              		.file 6 "t:\\msys\\3rd\\gcc-arm-none-eabi-9-2020-q2-update-win32\\arm-none-eabi\\include\\sys\\ree
 1838              		.file 7 "t:\\msys\\3rd\\gcc-arm-none-eabi-9-2020-q2-update-win32\\arm-none-eabi\\include\\sys\\loc
 1839              		.file 8 "D:/fchai/work/i-cube/I-CUBE-HUAWEI/Middlewares/Third_Party/Huawei/iot_link/inc/link_log.h
 1840              		.file 9 "D:/fchai/work/i-cube/I-CUBE-HUAWEI/Middlewares/Third_Party/Huawei/iot_link/link_ota/ota_i
 1841              		.file 10 "D:/fchai/work/i-cube/I-CUBE-HUAWEI/Middlewares/Third_Party/Huawei/iot_link/link_ota/down
 1842              		.file 11 "t:\\msys\\3rd\\gcc-arm-none-eabi-9-2020-q2-update-win32\\arm-none-eabi\\include\\stdlib.
 1843              		.file 12 "D:/fchai/work/i-cube/I-CUBE-HUAWEI/Middlewares/Third_Party/Huawei/iot_link/inc/dtls_al.h
 1844              		.file 13 "D:/fchai/work/i-cube/I-CUBE-HUAWEI/Middlewares/Third_Party/Huawei/iot_link/link_ota/ota_
 1845              		.file 14 "D:/fchai/work/i-cube/I-CUBE-HUAWEI/Middlewares/Third_Party/Huawei/iot_link/link_ota/down
 1846              		.file 15 "t:\\msys\\3rd\\gcc-arm-none-eabi-9-2020-q2-update-win32\\arm-none-eabi\\include\\string.
 1847              		.file 16 "D:/fchai/work/i-cube/I-CUBE-HUAWEI/Middlewares/Third_Party/Huawei/iot_link/os/osal/osal.
 1848              		.file 17 "<built-in>"
 1849              		.file 18 "t:\\msys\\3rd\\gcc-arm-none-eabi-9-2020-q2-update-win32\\arm-none-eabi\\include\\stdio.h
ARM GAS  T:\msys\tmp\cc7ptNpf.s 			page 55

