ARM GAS  T:\msys\tmp\ccab6Qmu.s 			page 1


   1              		.cpu cortex-m4
   2              		.eabi_attribute 27, 1
   3              		.eabi_attribute 28, 1
   4              		.eabi_attribute 20, 1
   5              		.eabi_attribute 21, 1
   6              		.eabi_attribute 23, 3
   7              		.eabi_attribute 24, 1
   8              		.eabi_attribute 25, 1
   9              		.eabi_attribute 26, 1
  10              		.eabi_attribute 30, 2
  11              		.eabi_attribute 34, 1
  12              		.eabi_attribute 18, 4
  13              		.file	"dtls_al.c"
  14              		.text
  15              	.Ltext0:
  16              		.cfi_sections	.debug_frame
  17              		.section	.text.dtls_al_new,"ax",%progbits
  18              		.align	1
  19              		.p2align 2,,3
  20              		.global	dtls_al_new
  21              		.arch armv7e-m
  22              		.syntax unified
  23              		.thumb
  24              		.thumb_func
  25              		.fpu fpv4-sp-d16
  27              	dtls_al_new:
  28              	.LVL0:
  29              	.LFB3:
  30              		.file 1 "D:/fchai/work/i-cube/I-CUBE-HUAWEI/Middlewares/Third_Party/Huawei/iot_link/network/dtls/d
   1:D:/fchai/work/i-cube/I-CUBE-HUAWEI/Middlewares/Third_Party/Huawei/iot_link/network/dtls/dtls_al\dtls_al.c **** /*----------------------------------------------------------------------------
   2:D:/fchai/work/i-cube/I-CUBE-HUAWEI/Middlewares/Third_Party/Huawei/iot_link/network/dtls/dtls_al\dtls_al.c ****  * Copyright (c) <2018>, <Huawei Technologies Co., Ltd>
   3:D:/fchai/work/i-cube/I-CUBE-HUAWEI/Middlewares/Third_Party/Huawei/iot_link/network/dtls/dtls_al\dtls_al.c ****  * All rights reserved.
   4:D:/fchai/work/i-cube/I-CUBE-HUAWEI/Middlewares/Third_Party/Huawei/iot_link/network/dtls/dtls_al\dtls_al.c ****  * Redistribution and use in source and binary forms, with or without modification,
   5:D:/fchai/work/i-cube/I-CUBE-HUAWEI/Middlewares/Third_Party/Huawei/iot_link/network/dtls/dtls_al\dtls_al.c ****  * are permitted provided that the following conditions are met:
   6:D:/fchai/work/i-cube/I-CUBE-HUAWEI/Middlewares/Third_Party/Huawei/iot_link/network/dtls/dtls_al\dtls_al.c ****  * 1. Redistributions of source code must retain the above copyright notice, this list of
   7:D:/fchai/work/i-cube/I-CUBE-HUAWEI/Middlewares/Third_Party/Huawei/iot_link/network/dtls/dtls_al\dtls_al.c ****  * conditions and the following disclaimer.
   8:D:/fchai/work/i-cube/I-CUBE-HUAWEI/Middlewares/Third_Party/Huawei/iot_link/network/dtls/dtls_al\dtls_al.c ****  * 2. Redistributions in binary form must reproduce the above copyright notice, this list
   9:D:/fchai/work/i-cube/I-CUBE-HUAWEI/Middlewares/Third_Party/Huawei/iot_link/network/dtls/dtls_al\dtls_al.c ****  * of conditions and the following disclaimer in the documentation and/or other materials
  10:D:/fchai/work/i-cube/I-CUBE-HUAWEI/Middlewares/Third_Party/Huawei/iot_link/network/dtls/dtls_al\dtls_al.c ****  * provided with the distribution.
  11:D:/fchai/work/i-cube/I-CUBE-HUAWEI/Middlewares/Third_Party/Huawei/iot_link/network/dtls/dtls_al\dtls_al.c ****  * 3. Neither the name of the copyright holder nor the names of its contributors may be used
  12:D:/fchai/work/i-cube/I-CUBE-HUAWEI/Middlewares/Third_Party/Huawei/iot_link/network/dtls/dtls_al\dtls_al.c ****  * to endorse or promote products derived from this software without specific prior written
  13:D:/fchai/work/i-cube/I-CUBE-HUAWEI/Middlewares/Third_Party/Huawei/iot_link/network/dtls/dtls_al\dtls_al.c ****  * permission.
  14:D:/fchai/work/i-cube/I-CUBE-HUAWEI/Middlewares/Third_Party/Huawei/iot_link/network/dtls/dtls_al\dtls_al.c ****  * THIS SOFTWARE IS PROVIDED BY THE COPYRIGHT HOLDERS AND CONTRIBUTORS
  15:D:/fchai/work/i-cube/I-CUBE-HUAWEI/Middlewares/Third_Party/Huawei/iot_link/network/dtls/dtls_al\dtls_al.c ****  * "AS IS" AND ANY EXPRESS OR IMPLIED WARRANTIES, INCLUDING, BUT NOT LIMITED TO,
  16:D:/fchai/work/i-cube/I-CUBE-HUAWEI/Middlewares/Third_Party/Huawei/iot_link/network/dtls/dtls_al\dtls_al.c ****  * THE IMPLIED WARRANTIES OF MERCHANTABILITY AND FITNESS FOR A PARTICULAR
  17:D:/fchai/work/i-cube/I-CUBE-HUAWEI/Middlewares/Third_Party/Huawei/iot_link/network/dtls/dtls_al\dtls_al.c ****  * PURPOSE ARE DISCLAIMED. IN NO EVENT SHALL THE COPYRIGHT HOLDER OR
  18:D:/fchai/work/i-cube/I-CUBE-HUAWEI/Middlewares/Third_Party/Huawei/iot_link/network/dtls/dtls_al\dtls_al.c ****  * CONTRIBUTORS BE LIABLE FOR ANY DIRECT, INDIRECT, INCIDENTAL, SPECIAL,
  19:D:/fchai/work/i-cube/I-CUBE-HUAWEI/Middlewares/Third_Party/Huawei/iot_link/network/dtls/dtls_al\dtls_al.c ****  * EXEMPLARY, OR CONSEQUENTIAL DAMAGES (INCLUDING, BUT NOT LIMITED TO,
  20:D:/fchai/work/i-cube/I-CUBE-HUAWEI/Middlewares/Third_Party/Huawei/iot_link/network/dtls/dtls_al\dtls_al.c ****  * PROCUREMENT OF SUBSTITUTE GOODS OR SERVICES; LOSS OF USE, DATA, OR PROFITS;
  21:D:/fchai/work/i-cube/I-CUBE-HUAWEI/Middlewares/Third_Party/Huawei/iot_link/network/dtls/dtls_al\dtls_al.c ****  * OR BUSINESS INTERRUPTION) HOWEVER CAUSED AND ON ANY THEORY OF LIABILITY,
  22:D:/fchai/work/i-cube/I-CUBE-HUAWEI/Middlewares/Third_Party/Huawei/iot_link/network/dtls/dtls_al\dtls_al.c ****  * WHETHER IN CONTRACT, STRICT LIABILITY, OR TORT (INCLUDING NEGLIGENCE OR
  23:D:/fchai/work/i-cube/I-CUBE-HUAWEI/Middlewares/Third_Party/Huawei/iot_link/network/dtls/dtls_al\dtls_al.c ****  * OTHERWISE) ARISING IN ANY WAY OUT OF THE USE OF THIS SOFTWARE, EVEN IF
  24:D:/fchai/work/i-cube/I-CUBE-HUAWEI/Middlewares/Third_Party/Huawei/iot_link/network/dtls/dtls_al\dtls_al.c ****  * ADVISED OF THE POSSIBILITY OF SUCH DAMAGE.
  25:D:/fchai/work/i-cube/I-CUBE-HUAWEI/Middlewares/Third_Party/Huawei/iot_link/network/dtls/dtls_al\dtls_al.c ****  *---------------------------------------------------------------------------*/
  26:D:/fchai/work/i-cube/I-CUBE-HUAWEI/Middlewares/Third_Party/Huawei/iot_link/network/dtls/dtls_al\dtls_al.c **** /*----------------------------------------------------------------------------
  27:D:/fchai/work/i-cube/I-CUBE-HUAWEI/Middlewares/Third_Party/Huawei/iot_link/network/dtls/dtls_al\dtls_al.c ****  * Notice of Export Control Law
  28:D:/fchai/work/i-cube/I-CUBE-HUAWEI/Middlewares/Third_Party/Huawei/iot_link/network/dtls/dtls_al\dtls_al.c ****  * ===============================================
ARM GAS  T:\msys\tmp\ccab6Qmu.s 			page 2


  29:D:/fchai/work/i-cube/I-CUBE-HUAWEI/Middlewares/Third_Party/Huawei/iot_link/network/dtls/dtls_al\dtls_al.c ****  * Huawei LiteOS may be subject to applicable export control laws and regulations, which might
  30:D:/fchai/work/i-cube/I-CUBE-HUAWEI/Middlewares/Third_Party/Huawei/iot_link/network/dtls/dtls_al\dtls_al.c ****  * include those applicable to Huawei LiteOS of U.S. and the country in which you are located.
  31:D:/fchai/work/i-cube/I-CUBE-HUAWEI/Middlewares/Third_Party/Huawei/iot_link/network/dtls/dtls_al\dtls_al.c ****  * Import, export and usage of Huawei LiteOS in any manner by you shall be in compliance with such
  32:D:/fchai/work/i-cube/I-CUBE-HUAWEI/Middlewares/Third_Party/Huawei/iot_link/network/dtls/dtls_al\dtls_al.c ****  * applicable export control laws and regulations.
  33:D:/fchai/work/i-cube/I-CUBE-HUAWEI/Middlewares/Third_Party/Huawei/iot_link/network/dtls/dtls_al\dtls_al.c ****  *---------------------------------------------------------------------------*/
  34:D:/fchai/work/i-cube/I-CUBE-HUAWEI/Middlewares/Third_Party/Huawei/iot_link/network/dtls/dtls_al\dtls_al.c **** /**
  35:D:/fchai/work/i-cube/I-CUBE-HUAWEI/Middlewares/Third_Party/Huawei/iot_link/network/dtls/dtls_al\dtls_al.c ****  *  DATE                AUTHOR      INSTRUCTION
  36:D:/fchai/work/i-cube/I-CUBE-HUAWEI/Middlewares/Third_Party/Huawei/iot_link/network/dtls/dtls_al\dtls_al.c ****  *  2019-10-17 19:50  zhangqianfu  The first version
  37:D:/fchai/work/i-cube/I-CUBE-HUAWEI/Middlewares/Third_Party/Huawei/iot_link/network/dtls/dtls_al\dtls_al.c ****  *
  38:D:/fchai/work/i-cube/I-CUBE-HUAWEI/Middlewares/Third_Party/Huawei/iot_link/network/dtls/dtls_al\dtls_al.c ****  */
  39:D:/fchai/work/i-cube/I-CUBE-HUAWEI/Middlewares/Third_Party/Huawei/iot_link/network/dtls/dtls_al\dtls_al.c **** 
  40:D:/fchai/work/i-cube/I-CUBE-HUAWEI/Middlewares/Third_Party/Huawei/iot_link/network/dtls/dtls_al\dtls_al.c **** 
  41:D:/fchai/work/i-cube/I-CUBE-HUAWEI/Middlewares/Third_Party/Huawei/iot_link/network/dtls/dtls_al\dtls_al.c **** #include <stddef.h>
  42:D:/fchai/work/i-cube/I-CUBE-HUAWEI/Middlewares/Third_Party/Huawei/iot_link/network/dtls/dtls_al\dtls_al.c **** #include <stdint.h>
  43:D:/fchai/work/i-cube/I-CUBE-HUAWEI/Middlewares/Third_Party/Huawei/iot_link/network/dtls/dtls_al\dtls_al.c **** #include <string.h>
  44:D:/fchai/work/i-cube/I-CUBE-HUAWEI/Middlewares/Third_Party/Huawei/iot_link/network/dtls/dtls_al\dtls_al.c **** #include <stdio.h>
  45:D:/fchai/work/i-cube/I-CUBE-HUAWEI/Middlewares/Third_Party/Huawei/iot_link/network/dtls/dtls_al\dtls_al.c **** #include <dtls_al.h>
  46:D:/fchai/work/i-cube/I-CUBE-HUAWEI/Middlewares/Third_Party/Huawei/iot_link/network/dtls/dtls_al\dtls_al.c **** #include <link_log.h>
  47:D:/fchai/work/i-cube/I-CUBE-HUAWEI/Middlewares/Third_Party/Huawei/iot_link/network/dtls/dtls_al\dtls_al.c **** 
  48:D:/fchai/work/i-cube/I-CUBE-HUAWEI/Middlewares/Third_Party/Huawei/iot_link/network/dtls/dtls_al\dtls_al.c **** 
  49:D:/fchai/work/i-cube/I-CUBE-HUAWEI/Middlewares/Third_Party/Huawei/iot_link/network/dtls/dtls_al\dtls_al.c **** static const dtls_al_t  *s_dtls_al;
  50:D:/fchai/work/i-cube/I-CUBE-HUAWEI/Middlewares/Third_Party/Huawei/iot_link/network/dtls/dtls_al\dtls_al.c **** 
  51:D:/fchai/work/i-cube/I-CUBE-HUAWEI/Middlewares/Third_Party/Huawei/iot_link/network/dtls/dtls_al\dtls_al.c **** en_dtls_al_err_t dtls_al_new(dtls_al_para_t *para,void **handle)
  52:D:/fchai/work/i-cube/I-CUBE-HUAWEI/Middlewares/Third_Party/Huawei/iot_link/network/dtls/dtls_al\dtls_al.c **** {
  31              		.loc 1 52 1 view -0
  32              		.cfi_startproc
  33              		@ args = 0, pretend = 0, frame = 0
  34              		@ frame_needed = 0, uses_anonymous_args = 0
  35              		@ link register save eliminated.
  53:D:/fchai/work/i-cube/I-CUBE-HUAWEI/Middlewares/Third_Party/Huawei/iot_link/network/dtls/dtls_al\dtls_al.c ****     en_dtls_al_err_t ret = EN_DTLS_AL_ERR_NOCONFIG;
  36              		.loc 1 53 5 view .LVU1
  54:D:/fchai/work/i-cube/I-CUBE-HUAWEI/Middlewares/Third_Party/Huawei/iot_link/network/dtls/dtls_al\dtls_al.c ****     if( (NULL != s_dtls_al) && (NULL != s_dtls_al->io.io_new) )
  37              		.loc 1 54 5 view .LVU2
  38              		.loc 1 54 15 is_stmt 0 view .LVU3
  39 0000 034B     		ldr	r3, .L8
  40 0002 1B68     		ldr	r3, [r3]
  41              		.loc 1 54 7 view .LVU4
  42 0004 13B1     		cbz	r3, .L2
  43              		.loc 1 54 54 discriminator 1 view .LVU5
  44 0006 5B68     		ldr	r3, [r3, #4]
  45              		.loc 1 54 29 discriminator 1 view .LVU6
  46 0008 03B1     		cbz	r3, .L2
  55:D:/fchai/work/i-cube/I-CUBE-HUAWEI/Middlewares/Third_Party/Huawei/iot_link/network/dtls/dtls_al\dtls_al.c ****     {
  56:D:/fchai/work/i-cube/I-CUBE-HUAWEI/Middlewares/Third_Party/Huawei/iot_link/network/dtls/dtls_al\dtls_al.c ****         ret = s_dtls_al->io.io_new(para, handle);
  47              		.loc 1 56 9 is_stmt 1 view .LVU7
  48              		.loc 1 56 15 is_stmt 0 view .LVU8
  49 000a 1847     		bx	r3
  50              	.LVL1:
  51              	.L2:
  57:D:/fchai/work/i-cube/I-CUBE-HUAWEI/Middlewares/Third_Party/Huawei/iot_link/network/dtls/dtls_al\dtls_al.c ****     }
  58:D:/fchai/work/i-cube/I-CUBE-HUAWEI/Middlewares/Third_Party/Huawei/iot_link/network/dtls/dtls_al\dtls_al.c ****     return ret;
  52              		.loc 1 58 5 is_stmt 1 view .LVU9
  59:D:/fchai/work/i-cube/I-CUBE-HUAWEI/Middlewares/Third_Party/Huawei/iot_link/network/dtls/dtls_al\dtls_al.c **** }
  53              		.loc 1 59 1 is_stmt 0 view .LVU10
  54 000c 0420     		movs	r0, #4
  55              	.LVL2:
  56              		.loc 1 59 1 view .LVU11
ARM GAS  T:\msys\tmp\ccab6Qmu.s 			page 3


  57 000e 7047     		bx	lr
  58              	.L9:
  59              		.align	2
  60              	.L8:
  61 0010 00000000 		.word	.LANCHOR0
  62              		.cfi_endproc
  63              	.LFE3:
  65              		.section	.text.dtls_al_connect,"ax",%progbits
  66              		.align	1
  67              		.p2align 2,,3
  68              		.global	dtls_al_connect
  69              		.syntax unified
  70              		.thumb
  71              		.thumb_func
  72              		.fpu fpv4-sp-d16
  74              	dtls_al_connect:
  75              	.LVL3:
  76              	.LFB4:
  60:D:/fchai/work/i-cube/I-CUBE-HUAWEI/Middlewares/Third_Party/Huawei/iot_link/network/dtls/dtls_al\dtls_al.c **** 
  61:D:/fchai/work/i-cube/I-CUBE-HUAWEI/Middlewares/Third_Party/Huawei/iot_link/network/dtls/dtls_al\dtls_al.c **** 
  62:D:/fchai/work/i-cube/I-CUBE-HUAWEI/Middlewares/Third_Party/Huawei/iot_link/network/dtls/dtls_al\dtls_al.c **** int   dtls_al_connect(void *handle,const char *server_ip, const char *server_port, int timeout)
  63:D:/fchai/work/i-cube/I-CUBE-HUAWEI/Middlewares/Third_Party/Huawei/iot_link/network/dtls/dtls_al\dtls_al.c **** {
  77              		.loc 1 63 1 is_stmt 1 view -0
  78              		.cfi_startproc
  79              		@ args = 0, pretend = 0, frame = 0
  80              		@ frame_needed = 0, uses_anonymous_args = 0
  81              		@ link register save eliminated.
  64:D:/fchai/work/i-cube/I-CUBE-HUAWEI/Middlewares/Third_Party/Huawei/iot_link/network/dtls/dtls_al\dtls_al.c ****     int ret = -1;
  82              		.loc 1 64 5 view .LVU13
  65:D:/fchai/work/i-cube/I-CUBE-HUAWEI/Middlewares/Third_Party/Huawei/iot_link/network/dtls/dtls_al\dtls_al.c ****     if( (NULL != s_dtls_al) && (NULL != s_dtls_al->io.io_connect))
  83              		.loc 1 65 5 view .LVU14
  63:D:/fchai/work/i-cube/I-CUBE-HUAWEI/Middlewares/Third_Party/Huawei/iot_link/network/dtls/dtls_al\dtls_al.c ****     int ret = -1;
  84              		.loc 1 63 1 is_stmt 0 view .LVU15
  85 0000 10B4     		push	{r4}
  86              	.LCFI0:
  87              		.cfi_def_cfa_offset 4
  88              		.cfi_offset 4, -4
  89              		.loc 1 65 15 view .LVU16
  90 0002 074C     		ldr	r4, .L17
  91 0004 2468     		ldr	r4, [r4]
  92              		.loc 1 65 7 view .LVU17
  93 0006 2CB1     		cbz	r4, .L10
  94              		.loc 1 65 54 discriminator 1 view .LVU18
  95 0008 A468     		ldr	r4, [r4, #8]
  96              		.loc 1 65 29 discriminator 1 view .LVU19
  97 000a 1CB1     		cbz	r4, .L10
  66:D:/fchai/work/i-cube/I-CUBE-HUAWEI/Middlewares/Third_Party/Huawei/iot_link/network/dtls/dtls_al\dtls_al.c ****     {
  67:D:/fchai/work/i-cube/I-CUBE-HUAWEI/Middlewares/Third_Party/Huawei/iot_link/network/dtls/dtls_al\dtls_al.c ****         ret = s_dtls_al->io.io_connect(handle, server_ip,server_port, timeout);
  98              		.loc 1 67 9 is_stmt 1 view .LVU20
  99              		.loc 1 67 15 is_stmt 0 view .LVU21
 100 000c A446     		mov	ip, r4
  68:D:/fchai/work/i-cube/I-CUBE-HUAWEI/Middlewares/Third_Party/Huawei/iot_link/network/dtls/dtls_al\dtls_al.c ****     }
  69:D:/fchai/work/i-cube/I-CUBE-HUAWEI/Middlewares/Third_Party/Huawei/iot_link/network/dtls/dtls_al\dtls_al.c ****     return ret;
  70:D:/fchai/work/i-cube/I-CUBE-HUAWEI/Middlewares/Third_Party/Huawei/iot_link/network/dtls/dtls_al\dtls_al.c **** }
 101              		.loc 1 70 1 view .LVU22
 102 000e 5DF8044B 		ldr	r4, [sp], #4
 103              	.LCFI1:
ARM GAS  T:\msys\tmp\ccab6Qmu.s 			page 4


 104              		.cfi_remember_state
 105              		.cfi_restore 4
 106              		.cfi_def_cfa_offset 0
  67:D:/fchai/work/i-cube/I-CUBE-HUAWEI/Middlewares/Third_Party/Huawei/iot_link/network/dtls/dtls_al\dtls_al.c ****     }
 107              		.loc 1 67 15 view .LVU23
 108 0012 6047     		bx	ip
 109              	.LVL4:
 110              	.L10:
 111              	.LCFI2:
 112              		.cfi_restore_state
 113              		.loc 1 70 1 view .LVU24
 114 0014 4FF0FF30 		mov	r0, #-1
 115              	.LVL5:
 116              		.loc 1 70 1 view .LVU25
 117 0018 5DF8044B 		ldr	r4, [sp], #4
 118              	.LCFI3:
 119              		.cfi_restore 4
 120              		.cfi_def_cfa_offset 0
 121 001c 7047     		bx	lr
 122              	.L18:
 123 001e 00BF     		.align	2
 124              	.L17:
 125 0020 00000000 		.word	.LANCHOR0
 126              		.cfi_endproc
 127              	.LFE4:
 129              		.section	.text.dtls_al_write,"ax",%progbits
 130              		.align	1
 131              		.p2align 2,,3
 132              		.global	dtls_al_write
 133              		.syntax unified
 134              		.thumb
 135              		.thumb_func
 136              		.fpu fpv4-sp-d16
 138              	dtls_al_write:
 139              	.LVL6:
 140              	.LFB5:
  71:D:/fchai/work/i-cube/I-CUBE-HUAWEI/Middlewares/Third_Party/Huawei/iot_link/network/dtls/dtls_al\dtls_al.c **** 
  72:D:/fchai/work/i-cube/I-CUBE-HUAWEI/Middlewares/Third_Party/Huawei/iot_link/network/dtls/dtls_al\dtls_al.c **** int   dtls_al_write(void *handle, uint8_t *msg, size_t len, int timeout)
  73:D:/fchai/work/i-cube/I-CUBE-HUAWEI/Middlewares/Third_Party/Huawei/iot_link/network/dtls/dtls_al\dtls_al.c **** {
 141              		.loc 1 73 1 is_stmt 1 view -0
 142              		.cfi_startproc
 143              		@ args = 0, pretend = 0, frame = 0
 144              		@ frame_needed = 0, uses_anonymous_args = 0
 145              		@ link register save eliminated.
  74:D:/fchai/work/i-cube/I-CUBE-HUAWEI/Middlewares/Third_Party/Huawei/iot_link/network/dtls/dtls_al\dtls_al.c ****     int ret = 0;
 146              		.loc 1 74 5 view .LVU27
  75:D:/fchai/work/i-cube/I-CUBE-HUAWEI/Middlewares/Third_Party/Huawei/iot_link/network/dtls/dtls_al\dtls_al.c ****     if( (NULL != s_dtls_al) && (NULL != s_dtls_al->io.io_write))
 147              		.loc 1 75 5 view .LVU28
  73:D:/fchai/work/i-cube/I-CUBE-HUAWEI/Middlewares/Third_Party/Huawei/iot_link/network/dtls/dtls_al\dtls_al.c ****     int ret = 0;
 148              		.loc 1 73 1 is_stmt 0 view .LVU29
 149 0000 10B4     		push	{r4}
 150              	.LCFI4:
 151              		.cfi_def_cfa_offset 4
 152              		.cfi_offset 4, -4
 153              		.loc 1 75 15 view .LVU30
 154 0002 064C     		ldr	r4, .L26
 155 0004 2468     		ldr	r4, [r4]
ARM GAS  T:\msys\tmp\ccab6Qmu.s 			page 5


 156              		.loc 1 75 7 view .LVU31
 157 0006 2CB1     		cbz	r4, .L19
 158              		.loc 1 75 54 discriminator 1 view .LVU32
 159 0008 E468     		ldr	r4, [r4, #12]
 160              		.loc 1 75 29 discriminator 1 view .LVU33
 161 000a 1CB1     		cbz	r4, .L19
  76:D:/fchai/work/i-cube/I-CUBE-HUAWEI/Middlewares/Third_Party/Huawei/iot_link/network/dtls/dtls_al\dtls_al.c ****     {
  77:D:/fchai/work/i-cube/I-CUBE-HUAWEI/Middlewares/Third_Party/Huawei/iot_link/network/dtls/dtls_al\dtls_al.c ****         ret = s_dtls_al->io.io_write(handle, msg, len, timeout );
 162              		.loc 1 77 9 is_stmt 1 view .LVU34
 163              		.loc 1 77 15 is_stmt 0 view .LVU35
 164 000c A446     		mov	ip, r4
  78:D:/fchai/work/i-cube/I-CUBE-HUAWEI/Middlewares/Third_Party/Huawei/iot_link/network/dtls/dtls_al\dtls_al.c ****     }
  79:D:/fchai/work/i-cube/I-CUBE-HUAWEI/Middlewares/Third_Party/Huawei/iot_link/network/dtls/dtls_al\dtls_al.c ****     return ret;
  80:D:/fchai/work/i-cube/I-CUBE-HUAWEI/Middlewares/Third_Party/Huawei/iot_link/network/dtls/dtls_al\dtls_al.c **** }
 165              		.loc 1 80 1 view .LVU36
 166 000e 5DF8044B 		ldr	r4, [sp], #4
 167              	.LCFI5:
 168              		.cfi_remember_state
 169              		.cfi_restore 4
 170              		.cfi_def_cfa_offset 0
  77:D:/fchai/work/i-cube/I-CUBE-HUAWEI/Middlewares/Third_Party/Huawei/iot_link/network/dtls/dtls_al\dtls_al.c ****     }
 171              		.loc 1 77 15 view .LVU37
 172 0012 6047     		bx	ip
 173              	.LVL7:
 174              	.L19:
 175              	.LCFI6:
 176              		.cfi_restore_state
 177              		.loc 1 80 1 view .LVU38
 178 0014 0020     		movs	r0, #0
 179              	.LVL8:
 180              		.loc 1 80 1 view .LVU39
 181 0016 5DF8044B 		ldr	r4, [sp], #4
 182              	.LCFI7:
 183              		.cfi_restore 4
 184              		.cfi_def_cfa_offset 0
 185 001a 7047     		bx	lr
 186              	.L27:
 187              		.align	2
 188              	.L26:
 189 001c 00000000 		.word	.LANCHOR0
 190              		.cfi_endproc
 191              	.LFE5:
 193              		.section	.text.dtls_al_read,"ax",%progbits
 194              		.align	1
 195              		.p2align 2,,3
 196              		.global	dtls_al_read
 197              		.syntax unified
 198              		.thumb
 199              		.thumb_func
 200              		.fpu fpv4-sp-d16
 202              	dtls_al_read:
 203              	.LVL9:
 204              	.LFB6:
  81:D:/fchai/work/i-cube/I-CUBE-HUAWEI/Middlewares/Third_Party/Huawei/iot_link/network/dtls/dtls_al\dtls_al.c **** 
  82:D:/fchai/work/i-cube/I-CUBE-HUAWEI/Middlewares/Third_Party/Huawei/iot_link/network/dtls/dtls_al\dtls_al.c **** int  dtls_al_read(void *handle, uint8_t *buf, size_t len, int timeout)
  83:D:/fchai/work/i-cube/I-CUBE-HUAWEI/Middlewares/Third_Party/Huawei/iot_link/network/dtls/dtls_al\dtls_al.c **** {
 205              		.loc 1 83 1 is_stmt 1 view -0
ARM GAS  T:\msys\tmp\ccab6Qmu.s 			page 6


 206              		.cfi_startproc
 207              		@ args = 0, pretend = 0, frame = 0
 208              		@ frame_needed = 0, uses_anonymous_args = 0
 209              		@ link register save eliminated.
  84:D:/fchai/work/i-cube/I-CUBE-HUAWEI/Middlewares/Third_Party/Huawei/iot_link/network/dtls/dtls_al\dtls_al.c ****     int ret = 0;
 210              		.loc 1 84 5 view .LVU41
  85:D:/fchai/work/i-cube/I-CUBE-HUAWEI/Middlewares/Third_Party/Huawei/iot_link/network/dtls/dtls_al\dtls_al.c ****     if( (NULL != s_dtls_al) && (NULL != s_dtls_al->io.io_read))
 211              		.loc 1 85 5 view .LVU42
  83:D:/fchai/work/i-cube/I-CUBE-HUAWEI/Middlewares/Third_Party/Huawei/iot_link/network/dtls/dtls_al\dtls_al.c ****     int ret = 0;
 212              		.loc 1 83 1 is_stmt 0 view .LVU43
 213 0000 10B4     		push	{r4}
 214              	.LCFI8:
 215              		.cfi_def_cfa_offset 4
 216              		.cfi_offset 4, -4
 217              		.loc 1 85 15 view .LVU44
 218 0002 064C     		ldr	r4, .L35
 219 0004 2468     		ldr	r4, [r4]
 220              		.loc 1 85 7 view .LVU45
 221 0006 2CB1     		cbz	r4, .L28
 222              		.loc 1 85 54 discriminator 1 view .LVU46
 223 0008 2469     		ldr	r4, [r4, #16]
 224              		.loc 1 85 29 discriminator 1 view .LVU47
 225 000a 1CB1     		cbz	r4, .L28
  86:D:/fchai/work/i-cube/I-CUBE-HUAWEI/Middlewares/Third_Party/Huawei/iot_link/network/dtls/dtls_al\dtls_al.c ****     {
  87:D:/fchai/work/i-cube/I-CUBE-HUAWEI/Middlewares/Third_Party/Huawei/iot_link/network/dtls/dtls_al\dtls_al.c ****         ret = s_dtls_al->io.io_read(handle, buf, len, timeout );
 226              		.loc 1 87 9 is_stmt 1 view .LVU48
 227              		.loc 1 87 15 is_stmt 0 view .LVU49
 228 000c A446     		mov	ip, r4
  88:D:/fchai/work/i-cube/I-CUBE-HUAWEI/Middlewares/Third_Party/Huawei/iot_link/network/dtls/dtls_al\dtls_al.c ****     }
  89:D:/fchai/work/i-cube/I-CUBE-HUAWEI/Middlewares/Third_Party/Huawei/iot_link/network/dtls/dtls_al\dtls_al.c ****     return ret;
  90:D:/fchai/work/i-cube/I-CUBE-HUAWEI/Middlewares/Third_Party/Huawei/iot_link/network/dtls/dtls_al\dtls_al.c **** }
 229              		.loc 1 90 1 view .LVU50
 230 000e 5DF8044B 		ldr	r4, [sp], #4
 231              	.LCFI9:
 232              		.cfi_remember_state
 233              		.cfi_restore 4
 234              		.cfi_def_cfa_offset 0
  87:D:/fchai/work/i-cube/I-CUBE-HUAWEI/Middlewares/Third_Party/Huawei/iot_link/network/dtls/dtls_al\dtls_al.c ****     }
 235              		.loc 1 87 15 view .LVU51
 236 0012 6047     		bx	ip
 237              	.LVL10:
 238              	.L28:
 239              	.LCFI10:
 240              		.cfi_restore_state
 241              		.loc 1 90 1 view .LVU52
 242 0014 0020     		movs	r0, #0
 243              	.LVL11:
 244              		.loc 1 90 1 view .LVU53
 245 0016 5DF8044B 		ldr	r4, [sp], #4
 246              	.LCFI11:
 247              		.cfi_restore 4
 248              		.cfi_def_cfa_offset 0
 249 001a 7047     		bx	lr
 250              	.L36:
 251              		.align	2
 252              	.L35:
 253 001c 00000000 		.word	.LANCHOR0
ARM GAS  T:\msys\tmp\ccab6Qmu.s 			page 7


 254              		.cfi_endproc
 255              	.LFE6:
 257              		.section	.text.dtls_al_destroy,"ax",%progbits
 258              		.align	1
 259              		.p2align 2,,3
 260              		.global	dtls_al_destroy
 261              		.syntax unified
 262              		.thumb
 263              		.thumb_func
 264              		.fpu fpv4-sp-d16
 266              	dtls_al_destroy:
 267              	.LVL12:
 268              	.LFB7:
  91:D:/fchai/work/i-cube/I-CUBE-HUAWEI/Middlewares/Third_Party/Huawei/iot_link/network/dtls/dtls_al\dtls_al.c **** 
  92:D:/fchai/work/i-cube/I-CUBE-HUAWEI/Middlewares/Third_Party/Huawei/iot_link/network/dtls/dtls_al\dtls_al.c **** en_dtls_al_err_t   dtls_al_destroy(void *handle)
  93:D:/fchai/work/i-cube/I-CUBE-HUAWEI/Middlewares/Third_Party/Huawei/iot_link/network/dtls/dtls_al\dtls_al.c **** {
 269              		.loc 1 93 1 is_stmt 1 view -0
 270              		.cfi_startproc
 271              		@ args = 0, pretend = 0, frame = 0
 272              		@ frame_needed = 0, uses_anonymous_args = 0
 273              		@ link register save eliminated.
  94:D:/fchai/work/i-cube/I-CUBE-HUAWEI/Middlewares/Third_Party/Huawei/iot_link/network/dtls/dtls_al\dtls_al.c ****     en_dtls_al_err_t ret = EN_DTLS_AL_ERR_NOCONFIG;
 274              		.loc 1 94 5 view .LVU55
  95:D:/fchai/work/i-cube/I-CUBE-HUAWEI/Middlewares/Third_Party/Huawei/iot_link/network/dtls/dtls_al\dtls_al.c ****     if( (NULL != s_dtls_al) && (NULL != s_dtls_al->io.io_destroy))
 275              		.loc 1 95 5 view .LVU56
 276              		.loc 1 95 15 is_stmt 0 view .LVU57
 277 0000 034B     		ldr	r3, .L43
 278 0002 1B68     		ldr	r3, [r3]
 279              		.loc 1 95 7 view .LVU58
 280 0004 13B1     		cbz	r3, .L38
 281              		.loc 1 95 54 discriminator 1 view .LVU59
 282 0006 5B69     		ldr	r3, [r3, #20]
 283              		.loc 1 95 29 discriminator 1 view .LVU60
 284 0008 03B1     		cbz	r3, .L38
  96:D:/fchai/work/i-cube/I-CUBE-HUAWEI/Middlewares/Third_Party/Huawei/iot_link/network/dtls/dtls_al\dtls_al.c ****     {
  97:D:/fchai/work/i-cube/I-CUBE-HUAWEI/Middlewares/Third_Party/Huawei/iot_link/network/dtls/dtls_al\dtls_al.c ****         ret = s_dtls_al->io.io_destroy( handle );
 285              		.loc 1 97 9 is_stmt 1 view .LVU61
 286              		.loc 1 97 15 is_stmt 0 view .LVU62
 287 000a 1847     		bx	r3
 288              	.LVL13:
 289              	.L38:
  98:D:/fchai/work/i-cube/I-CUBE-HUAWEI/Middlewares/Third_Party/Huawei/iot_link/network/dtls/dtls_al\dtls_al.c ****     }
  99:D:/fchai/work/i-cube/I-CUBE-HUAWEI/Middlewares/Third_Party/Huawei/iot_link/network/dtls/dtls_al\dtls_al.c ****     return ret;
 290              		.loc 1 99 5 is_stmt 1 view .LVU63
 100:D:/fchai/work/i-cube/I-CUBE-HUAWEI/Middlewares/Third_Party/Huawei/iot_link/network/dtls/dtls_al\dtls_al.c **** }
 291              		.loc 1 100 1 is_stmt 0 view .LVU64
 292 000c 0420     		movs	r0, #4
 293              	.LVL14:
 294              		.loc 1 100 1 view .LVU65
 295 000e 7047     		bx	lr
 296              	.L44:
 297              		.align	2
 298              	.L43:
 299 0010 00000000 		.word	.LANCHOR0
 300              		.cfi_endproc
 301              	.LFE7:
 303              		.section	.text.dtls_al_install,"ax",%progbits
ARM GAS  T:\msys\tmp\ccab6Qmu.s 			page 8


 304              		.align	1
 305              		.p2align 2,,3
 306              		.global	dtls_al_install
 307              		.syntax unified
 308              		.thumb
 309              		.thumb_func
 310              		.fpu fpv4-sp-d16
 312              	dtls_al_install:
 313              	.LVL15:
 314              	.LFB8:
 101:D:/fchai/work/i-cube/I-CUBE-HUAWEI/Middlewares/Third_Party/Huawei/iot_link/network/dtls/dtls_al\dtls_al.c **** 
 102:D:/fchai/work/i-cube/I-CUBE-HUAWEI/Middlewares/Third_Party/Huawei/iot_link/network/dtls/dtls_al\dtls_al.c **** 
 103:D:/fchai/work/i-cube/I-CUBE-HUAWEI/Middlewares/Third_Party/Huawei/iot_link/network/dtls/dtls_al\dtls_al.c **** int dtls_al_install(const dtls_al_t *dtls)
 104:D:/fchai/work/i-cube/I-CUBE-HUAWEI/Middlewares/Third_Party/Huawei/iot_link/network/dtls/dtls_al\dtls_al.c **** {
 315              		.loc 1 104 1 is_stmt 1 view -0
 316              		.cfi_startproc
 317              		@ args = 0, pretend = 0, frame = 0
 318              		@ frame_needed = 0, uses_anonymous_args = 0
 319              		@ link register save eliminated.
 105:D:/fchai/work/i-cube/I-CUBE-HUAWEI/Middlewares/Third_Party/Huawei/iot_link/network/dtls/dtls_al\dtls_al.c ****     int ret = -1;
 320              		.loc 1 105 5 view .LVU67
 106:D:/fchai/work/i-cube/I-CUBE-HUAWEI/Middlewares/Third_Party/Huawei/iot_link/network/dtls/dtls_al\dtls_al.c ****     if (NULL == s_dtls_al )
 321              		.loc 1 106 5 view .LVU68
 322              		.loc 1 106 14 is_stmt 0 view .LVU69
 323 0000 044A     		ldr	r2, .L48
 324              		.loc 1 106 8 view .LVU70
 325 0002 1368     		ldr	r3, [r2]
 326 0004 13B9     		cbnz	r3, .L47
 107:D:/fchai/work/i-cube/I-CUBE-HUAWEI/Middlewares/Third_Party/Huawei/iot_link/network/dtls/dtls_al\dtls_al.c ****     {
 108:D:/fchai/work/i-cube/I-CUBE-HUAWEI/Middlewares/Third_Party/Huawei/iot_link/network/dtls/dtls_al\dtls_al.c ****         s_dtls_al = dtls;
 327              		.loc 1 108 9 is_stmt 1 view .LVU71
 328              		.loc 1 108 19 is_stmt 0 view .LVU72
 329 0006 1060     		str	r0, [r2]
 109:D:/fchai/work/i-cube/I-CUBE-HUAWEI/Middlewares/Third_Party/Huawei/iot_link/network/dtls/dtls_al\dtls_al.c ****         ret = 0;
 330              		.loc 1 109 9 is_stmt 1 view .LVU73
 331              	.LVL16:
 332              		.loc 1 109 13 is_stmt 0 view .LVU74
 333 0008 1846     		mov	r0, r3
 334              	.LVL17:
 335              		.loc 1 109 13 view .LVU75
 336 000a 7047     		bx	lr
 337              	.LVL18:
 338              	.L47:
 105:D:/fchai/work/i-cube/I-CUBE-HUAWEI/Middlewares/Third_Party/Huawei/iot_link/network/dtls/dtls_al\dtls_al.c ****     if (NULL == s_dtls_al )
 339              		.loc 1 105 9 view .LVU76
 340 000c 4FF0FF30 		mov	r0, #-1
 341              	.LVL19:
 110:D:/fchai/work/i-cube/I-CUBE-HUAWEI/Middlewares/Third_Party/Huawei/iot_link/network/dtls/dtls_al\dtls_al.c ****     }
 111:D:/fchai/work/i-cube/I-CUBE-HUAWEI/Middlewares/Third_Party/Huawei/iot_link/network/dtls/dtls_al\dtls_al.c **** 
 112:D:/fchai/work/i-cube/I-CUBE-HUAWEI/Middlewares/Third_Party/Huawei/iot_link/network/dtls/dtls_al\dtls_al.c ****     return ret;
 342              		.loc 1 112 5 is_stmt 1 view .LVU77
 113:D:/fchai/work/i-cube/I-CUBE-HUAWEI/Middlewares/Third_Party/Huawei/iot_link/network/dtls/dtls_al\dtls_al.c **** }
 343              		.loc 1 113 1 is_stmt 0 view .LVU78
 344 0010 7047     		bx	lr
 345              	.L49:
 346 0012 00BF     		.align	2
 347              	.L48:
ARM GAS  T:\msys\tmp\ccab6Qmu.s 			page 9


 348 0014 00000000 		.word	.LANCHOR0
 349              		.cfi_endproc
 350              	.LFE8:
 352              		.section	.text.dtls_al_uninstall,"ax",%progbits
 353              		.align	1
 354              		.p2align 2,,3
 355              		.global	dtls_al_uninstall
 356              		.syntax unified
 357              		.thumb
 358              		.thumb_func
 359              		.fpu fpv4-sp-d16
 361              	dtls_al_uninstall:
 362              	.LVL20:
 363              	.LFB9:
 114:D:/fchai/work/i-cube/I-CUBE-HUAWEI/Middlewares/Third_Party/Huawei/iot_link/network/dtls/dtls_al\dtls_al.c **** 
 115:D:/fchai/work/i-cube/I-CUBE-HUAWEI/Middlewares/Third_Party/Huawei/iot_link/network/dtls/dtls_al\dtls_al.c **** int dtls_al_uninstall(const char*name)
 116:D:/fchai/work/i-cube/I-CUBE-HUAWEI/Middlewares/Third_Party/Huawei/iot_link/network/dtls/dtls_al\dtls_al.c **** {
 364              		.loc 1 116 1 is_stmt 1 view -0
 365              		.cfi_startproc
 366              		@ args = 0, pretend = 0, frame = 0
 367              		@ frame_needed = 0, uses_anonymous_args = 0
 117:D:/fchai/work/i-cube/I-CUBE-HUAWEI/Middlewares/Third_Party/Huawei/iot_link/network/dtls/dtls_al\dtls_al.c ****     int ret = -1;
 368              		.loc 1 117 5 view .LVU80
 118:D:/fchai/work/i-cube/I-CUBE-HUAWEI/Middlewares/Third_Party/Huawei/iot_link/network/dtls/dtls_al\dtls_al.c **** 
 119:D:/fchai/work/i-cube/I-CUBE-HUAWEI/Middlewares/Third_Party/Huawei/iot_link/network/dtls/dtls_al\dtls_al.c ****     if((NULL != s_dtls_al) && (0 == strcmp(name,s_dtls_al->name)))
 369              		.loc 1 119 5 view .LVU81
 116:D:/fchai/work/i-cube/I-CUBE-HUAWEI/Middlewares/Third_Party/Huawei/iot_link/network/dtls/dtls_al\dtls_al.c ****     int ret = -1;
 370              		.loc 1 116 1 is_stmt 0 view .LVU82
 371 0000 10B5     		push	{r4, lr}
 372              	.LCFI12:
 373              		.cfi_def_cfa_offset 8
 374              		.cfi_offset 4, -8
 375              		.cfi_offset 14, -4
 376              		.loc 1 119 14 view .LVU83
 377 0002 054C     		ldr	r4, .L56
 378 0004 2368     		ldr	r3, [r4]
 379              		.loc 1 119 7 view .LVU84
 380 0006 23B1     		cbz	r3, .L51
 381              		.loc 1 119 37 discriminator 1 view .LVU85
 382 0008 1968     		ldr	r1, [r3]
 383 000a FFF7FEFF 		bl	strcmp
 384              	.LVL21:
 385              		.loc 1 119 28 discriminator 1 view .LVU86
 386 000e 00B9     		cbnz	r0, .L51
 120:D:/fchai/work/i-cube/I-CUBE-HUAWEI/Middlewares/Third_Party/Huawei/iot_link/network/dtls/dtls_al\dtls_al.c ****     {
 121:D:/fchai/work/i-cube/I-CUBE-HUAWEI/Middlewares/Third_Party/Huawei/iot_link/network/dtls/dtls_al\dtls_al.c ****         s_dtls_al = NULL;
 387              		.loc 1 121 9 is_stmt 1 view .LVU87
 388              		.loc 1 121 19 is_stmt 0 view .LVU88
 389 0010 2060     		str	r0, [r4]
 390              	.L51:
 122:D:/fchai/work/i-cube/I-CUBE-HUAWEI/Middlewares/Third_Party/Huawei/iot_link/network/dtls/dtls_al\dtls_al.c ****     }
 123:D:/fchai/work/i-cube/I-CUBE-HUAWEI/Middlewares/Third_Party/Huawei/iot_link/network/dtls/dtls_al\dtls_al.c **** 
 124:D:/fchai/work/i-cube/I-CUBE-HUAWEI/Middlewares/Third_Party/Huawei/iot_link/network/dtls/dtls_al\dtls_al.c ****     return ret;
 391              		.loc 1 124 5 is_stmt 1 view .LVU89
 125:D:/fchai/work/i-cube/I-CUBE-HUAWEI/Middlewares/Third_Party/Huawei/iot_link/network/dtls/dtls_al\dtls_al.c **** }
 392              		.loc 1 125 1 is_stmt 0 view .LVU90
 393 0012 4FF0FF30 		mov	r0, #-1
ARM GAS  T:\msys\tmp\ccab6Qmu.s 			page 10


 394 0016 10BD     		pop	{r4, pc}
 395              	.L57:
 396              		.align	2
 397              	.L56:
 398 0018 00000000 		.word	.LANCHOR0
 399              		.cfi_endproc
 400              	.LFE9:
 402              		.section	.rodata.dtls_imp_init.str1.4,"aMS",%progbits,1
 403              		.align	2
 404              	.LC0:
 405 0000 5B25735D 		.ascii	"[%s][%u][%s] %s:###please implement dtls by yoursel"
 405      5B25755D 
 405      5B25735D 
 405      2025733A 
 405      23232370 
 406 0033 66232323 		.ascii	"f####\015\012\000"
 406      230D0A00 
 407              		.section	.text.dtls_imp_init,"ax",%progbits
 408              		.align	1
 409              		.p2align 2,,3
 410              		.weak	dtls_imp_init
 411              		.syntax unified
 412              		.thumb
 413              		.thumb_func
 414              		.fpu fpv4-sp-d16
 416              	dtls_imp_init:
 417              	.LFB10:
 126:D:/fchai/work/i-cube/I-CUBE-HUAWEI/Middlewares/Third_Party/Huawei/iot_link/network/dtls/dtls_al\dtls_al.c **** 
 127:D:/fchai/work/i-cube/I-CUBE-HUAWEI/Middlewares/Third_Party/Huawei/iot_link/network/dtls/dtls_al\dtls_al.c **** __attribute__((weak))  int dtls_imp_init(void)
 128:D:/fchai/work/i-cube/I-CUBE-HUAWEI/Middlewares/Third_Party/Huawei/iot_link/network/dtls/dtls_al\dtls_al.c **** {
 418              		.loc 1 128 1 is_stmt 1 view -0
 419              		.cfi_startproc
 420              		@ args = 0, pretend = 0, frame = 0
 421              		@ frame_needed = 0, uses_anonymous_args = 0
 129:D:/fchai/work/i-cube/I-CUBE-HUAWEI/Middlewares/Third_Party/Huawei/iot_link/network/dtls/dtls_al\dtls_al.c ****     LINK_LOG_DEBUG("%s:###please implement dtls by yourself####",__FUNCTION__);
 422              		.loc 1 129 5 view .LVU92
 423              		.loc 1 129 5 view .LVU93
 128:D:/fchai/work/i-cube/I-CUBE-HUAWEI/Middlewares/Third_Party/Huawei/iot_link/network/dtls/dtls_al\dtls_al.c ****     LINK_LOG_DEBUG("%s:###please implement dtls by yourself####",__FUNCTION__);
 424              		.loc 1 128 1 is_stmt 0 view .LVU94
 425 0000 10B5     		push	{r4, lr}
 426              	.LCFI13:
 427              		.cfi_def_cfa_offset 8
 428              		.cfi_offset 4, -8
 429              		.cfi_offset 14, -4
 430 0002 82B0     		sub	sp, sp, #8
 431              	.LCFI14:
 432              		.cfi_def_cfa_offset 16
 433              		.loc 1 129 5 view .LVU95
 434 0004 FFF7FEFF 		bl	link_log_level_get
 435              	.LVL22:
 436 0008 0128     		cmp	r0, #1
 437 000a 03D9     		bls	.L61
 438              		.loc 1 129 5 is_stmt 1 discriminator 3 view .LVU96
 439              		.loc 1 129 5 discriminator 3 view .LVU97
 440              		.loc 1 129 5 discriminator 3 view .LVU98
 130:D:/fchai/work/i-cube/I-CUBE-HUAWEI/Middlewares/Third_Party/Huawei/iot_link/network/dtls/dtls_al\dtls_al.c ****     return -1;
 441              		.loc 1 130 5 discriminator 3 view .LVU99
ARM GAS  T:\msys\tmp\ccab6Qmu.s 			page 11


 131:D:/fchai/work/i-cube/I-CUBE-HUAWEI/Middlewares/Third_Party/Huawei/iot_link/network/dtls/dtls_al\dtls_al.c **** }
 442              		.loc 1 131 1 is_stmt 0 discriminator 3 view .LVU100
 443 000c 4FF0FF30 		mov	r0, #-1
 444 0010 02B0     		add	sp, sp, #8
 445              	.LCFI15:
 446              		.cfi_remember_state
 447              		.cfi_def_cfa_offset 8
 448              		@ sp needed
 449 0012 10BD     		pop	{r4, pc}
 450              	.L61:
 451              	.LCFI16:
 452              		.cfi_restore_state
 453              	.LBB4:
 454              	.LBI4:
 127:D:/fchai/work/i-cube/I-CUBE-HUAWEI/Middlewares/Third_Party/Huawei/iot_link/network/dtls/dtls_al\dtls_al.c **** {
 455              		.loc 1 127 28 is_stmt 1 view .LVU101
 456              	.LBB5:
 129:D:/fchai/work/i-cube/I-CUBE-HUAWEI/Middlewares/Third_Party/Huawei/iot_link/network/dtls/dtls_al\dtls_al.c ****     return -1;
 457              		.loc 1 129 5 view .LVU102
 129:D:/fchai/work/i-cube/I-CUBE-HUAWEI/Middlewares/Third_Party/Huawei/iot_link/network/dtls/dtls_al\dtls_al.c ****     return -1;
 458              		.loc 1 129 5 view .LVU103
 129:D:/fchai/work/i-cube/I-CUBE-HUAWEI/Middlewares/Third_Party/Huawei/iot_link/network/dtls/dtls_al\dtls_al.c ****     return -1;
 459              		.loc 1 129 5 view .LVU104
 460 0014 0120     		movs	r0, #1
 461 0016 FFF7FEFF 		bl	link_log_level_name
 462              	.LVL23:
 463 001a 0446     		mov	r4, r0
 464 001c FFF7FEFF 		bl	osal_sys_time
 465              	.LVL24:
 466 0020 074B     		ldr	r3, .L62
 467 0022 0093     		str	r3, [sp]
 468 0024 0246     		mov	r2, r0
 469 0026 2146     		mov	r1, r4
 470 0028 0648     		ldr	r0, .L62+4
 471 002a FFF7FEFF 		bl	printf
 472              	.LVL25:
 129:D:/fchai/work/i-cube/I-CUBE-HUAWEI/Middlewares/Third_Party/Huawei/iot_link/network/dtls/dtls_al\dtls_al.c ****     return -1;
 473              		.loc 1 129 5 view .LVU105
 474 002e 064B     		ldr	r3, .L62+8
 475 0030 1B68     		ldr	r3, [r3]
 476 0032 9868     		ldr	r0, [r3, #8]
 477 0034 FFF7FEFF 		bl	fflush
 478              	.LVL26:
 479              	.LBE5:
 480              	.LBE4:
 129:D:/fchai/work/i-cube/I-CUBE-HUAWEI/Middlewares/Third_Party/Huawei/iot_link/network/dtls/dtls_al\dtls_al.c ****     return -1;
 481              		.loc 1 129 5 view .LVU106
 129:D:/fchai/work/i-cube/I-CUBE-HUAWEI/Middlewares/Third_Party/Huawei/iot_link/network/dtls/dtls_al\dtls_al.c ****     return -1;
 482              		.loc 1 129 5 view .LVU107
 129:D:/fchai/work/i-cube/I-CUBE-HUAWEI/Middlewares/Third_Party/Huawei/iot_link/network/dtls/dtls_al\dtls_al.c ****     return -1;
 483              		.loc 1 129 5 view .LVU108
 130:D:/fchai/work/i-cube/I-CUBE-HUAWEI/Middlewares/Third_Party/Huawei/iot_link/network/dtls/dtls_al\dtls_al.c **** }
 484              		.loc 1 130 5 view .LVU109
 485              		.loc 1 131 1 is_stmt 0 view .LVU110
 486 0038 4FF0FF30 		mov	r0, #-1
 487 003c 02B0     		add	sp, sp, #8
 488              	.LCFI17:
ARM GAS  T:\msys\tmp\ccab6Qmu.s 			page 12


 489              		.cfi_def_cfa_offset 8
 490              		@ sp needed
 491 003e 10BD     		pop	{r4, pc}
 492              	.L63:
 493              		.align	2
 494              	.L62:
 495 0040 00000000 		.word	.LANCHOR1
 496 0044 00000000 		.word	.LC0
 497 0048 00000000 		.word	_impure_ptr
 498              		.cfi_endproc
 499              	.LFE10:
 501              		.section	.rodata.dtls_al_init.str1.4,"aMS",%progbits,1
 502              		.align	2
 503              	.LC1:
 504 0000 5B25735D 		.ascii	"[%s][%u][%s] IOT_LINK:DO DTLS LOAD-IMPLEMENT RET:%d"
 504      5B25755D 
 504      5B25735D 
 504      20494F54 
 504      5F4C494E 
 505 0033 0D0A00   		.ascii	"\015\012\000"
 506              		.section	.text.dtls_al_init,"ax",%progbits
 507              		.align	1
 508              		.p2align 2,,3
 509              		.global	dtls_al_init
 510              		.syntax unified
 511              		.thumb
 512              		.thumb_func
 513              		.fpu fpv4-sp-d16
 515              	dtls_al_init:
 516              	.LFB11:
 132:D:/fchai/work/i-cube/I-CUBE-HUAWEI/Middlewares/Third_Party/Huawei/iot_link/network/dtls/dtls_al\dtls_al.c **** 
 133:D:/fchai/work/i-cube/I-CUBE-HUAWEI/Middlewares/Third_Party/Huawei/iot_link/network/dtls/dtls_al\dtls_al.c **** int dtls_al_init(void)
 134:D:/fchai/work/i-cube/I-CUBE-HUAWEI/Middlewares/Third_Party/Huawei/iot_link/network/dtls/dtls_al\dtls_al.c **** {
 517              		.loc 1 134 1 is_stmt 1 view -0
 518              		.cfi_startproc
 519              		@ args = 0, pretend = 0, frame = 0
 520              		@ frame_needed = 0, uses_anonymous_args = 0
 135:D:/fchai/work/i-cube/I-CUBE-HUAWEI/Middlewares/Third_Party/Huawei/iot_link/network/dtls/dtls_al\dtls_al.c ****     int ret;
 521              		.loc 1 135 5 view .LVU112
 136:D:/fchai/work/i-cube/I-CUBE-HUAWEI/Middlewares/Third_Party/Huawei/iot_link/network/dtls/dtls_al\dtls_al.c **** 
 137:D:/fchai/work/i-cube/I-CUBE-HUAWEI/Middlewares/Third_Party/Huawei/iot_link/network/dtls/dtls_al\dtls_al.c ****     ret = dtls_imp_init();
 522              		.loc 1 137 5 view .LVU113
 134:D:/fchai/work/i-cube/I-CUBE-HUAWEI/Middlewares/Third_Party/Huawei/iot_link/network/dtls/dtls_al\dtls_al.c ****     int ret;
 523              		.loc 1 134 1 is_stmt 0 view .LVU114
 524 0000 30B5     		push	{r4, r5, lr}
 525              	.LCFI18:
 526              		.cfi_def_cfa_offset 12
 527              		.cfi_offset 4, -12
 528              		.cfi_offset 5, -8
 529              		.cfi_offset 14, -4
 530 0002 83B0     		sub	sp, sp, #12
 531              	.LCFI19:
 532              		.cfi_def_cfa_offset 24
 533              		.loc 1 137 11 view .LVU115
 534 0004 FFF7FEFF 		bl	dtls_imp_init
 535              	.LVL27:
 536 0008 0446     		mov	r4, r0
ARM GAS  T:\msys\tmp\ccab6Qmu.s 			page 13


 537              	.LVL28:
 138:D:/fchai/work/i-cube/I-CUBE-HUAWEI/Middlewares/Third_Party/Huawei/iot_link/network/dtls/dtls_al\dtls_al.c ****     LINK_LOG_DEBUG("IOT_LINK:DO DTLS LOAD-IMPLEMENT RET:%d",ret);
 538              		.loc 1 138 5 is_stmt 1 view .LVU116
 539              		.loc 1 138 5 view .LVU117
 540 000a FFF7FEFF 		bl	link_log_level_get
 541              	.LVL29:
 542              		.loc 1 138 5 is_stmt 0 view .LVU118
 543 000e 0128     		cmp	r0, #1
 544 0010 02D9     		bls	.L67
 139:D:/fchai/work/i-cube/I-CUBE-HUAWEI/Middlewares/Third_Party/Huawei/iot_link/network/dtls/dtls_al\dtls_al.c **** 
 140:D:/fchai/work/i-cube/I-CUBE-HUAWEI/Middlewares/Third_Party/Huawei/iot_link/network/dtls/dtls_al\dtls_al.c ****     return ret;
 141:D:/fchai/work/i-cube/I-CUBE-HUAWEI/Middlewares/Third_Party/Huawei/iot_link/network/dtls/dtls_al\dtls_al.c **** }
 545              		.loc 1 141 1 view .LVU119
 546 0012 2046     		mov	r0, r4
 547 0014 03B0     		add	sp, sp, #12
 548              	.LCFI20:
 549              		.cfi_remember_state
 550              		.cfi_def_cfa_offset 12
 551              		@ sp needed
 552 0016 30BD     		pop	{r4, r5, pc}
 553              	.LVL30:
 554              	.L67:
 555              	.LCFI21:
 556              		.cfi_restore_state
 138:D:/fchai/work/i-cube/I-CUBE-HUAWEI/Middlewares/Third_Party/Huawei/iot_link/network/dtls/dtls_al\dtls_al.c ****     LINK_LOG_DEBUG("IOT_LINK:DO DTLS LOAD-IMPLEMENT RET:%d",ret);
 557              		.loc 1 138 5 is_stmt 1 discriminator 1 view .LVU120
 138:D:/fchai/work/i-cube/I-CUBE-HUAWEI/Middlewares/Third_Party/Huawei/iot_link/network/dtls/dtls_al\dtls_al.c ****     LINK_LOG_DEBUG("IOT_LINK:DO DTLS LOAD-IMPLEMENT RET:%d",ret);
 558              		.loc 1 138 5 discriminator 1 view .LVU121
 138:D:/fchai/work/i-cube/I-CUBE-HUAWEI/Middlewares/Third_Party/Huawei/iot_link/network/dtls/dtls_al\dtls_al.c ****     LINK_LOG_DEBUG("IOT_LINK:DO DTLS LOAD-IMPLEMENT RET:%d",ret);
 559              		.loc 1 138 5 discriminator 1 view .LVU122
 560 0018 0120     		movs	r0, #1
 561 001a FFF7FEFF 		bl	link_log_level_name
 562              	.LVL31:
 563 001e 0546     		mov	r5, r0
 564 0020 FFF7FEFF 		bl	osal_sys_time
 565              	.LVL32:
 566 0024 2946     		mov	r1, r5
 567 0026 0246     		mov	r2, r0
 568 0028 064B     		ldr	r3, .L68
 569 002a 0094     		str	r4, [sp]
 570 002c 0648     		ldr	r0, .L68+4
 571 002e FFF7FEFF 		bl	printf
 572              	.LVL33:
 138:D:/fchai/work/i-cube/I-CUBE-HUAWEI/Middlewares/Third_Party/Huawei/iot_link/network/dtls/dtls_al\dtls_al.c ****     LINK_LOG_DEBUG("IOT_LINK:DO DTLS LOAD-IMPLEMENT RET:%d",ret);
 573              		.loc 1 138 5 discriminator 1 view .LVU123
 574 0032 064B     		ldr	r3, .L68+8
 575 0034 1B68     		ldr	r3, [r3]
 576 0036 9868     		ldr	r0, [r3, #8]
 577 0038 FFF7FEFF 		bl	fflush
 578              	.LVL34:
 138:D:/fchai/work/i-cube/I-CUBE-HUAWEI/Middlewares/Third_Party/Huawei/iot_link/network/dtls/dtls_al\dtls_al.c ****     LINK_LOG_DEBUG("IOT_LINK:DO DTLS LOAD-IMPLEMENT RET:%d",ret);
 579              		.loc 1 138 5 discriminator 1 view .LVU124
 138:D:/fchai/work/i-cube/I-CUBE-HUAWEI/Middlewares/Third_Party/Huawei/iot_link/network/dtls/dtls_al\dtls_al.c ****     LINK_LOG_DEBUG("IOT_LINK:DO DTLS LOAD-IMPLEMENT RET:%d",ret);
 580              		.loc 1 138 5 discriminator 1 view .LVU125
 138:D:/fchai/work/i-cube/I-CUBE-HUAWEI/Middlewares/Third_Party/Huawei/iot_link/network/dtls/dtls_al\dtls_al.c ****     LINK_LOG_DEBUG("IOT_LINK:DO DTLS LOAD-IMPLEMENT RET:%d",ret);
 581              		.loc 1 138 5 discriminator 1 view .LVU126
 140:D:/fchai/work/i-cube/I-CUBE-HUAWEI/Middlewares/Third_Party/Huawei/iot_link/network/dtls/dtls_al\dtls_al.c **** }
ARM GAS  T:\msys\tmp\ccab6Qmu.s 			page 14


 582              		.loc 1 140 5 discriminator 1 view .LVU127
 583              		.loc 1 141 1 is_stmt 0 discriminator 1 view .LVU128
 584 003c 2046     		mov	r0, r4
 585 003e 03B0     		add	sp, sp, #12
 586              	.LCFI22:
 587              		.cfi_def_cfa_offset 12
 588              		@ sp needed
 589 0040 30BD     		pop	{r4, r5, pc}
 590              	.LVL35:
 591              	.L69:
 592              		.loc 1 141 1 discriminator 1 view .LVU129
 593 0042 00BF     		.align	2
 594              	.L68:
 595 0044 00000000 		.word	.LANCHOR2
 596 0048 00000000 		.word	.LC1
 597 004c 00000000 		.word	_impure_ptr
 598              		.cfi_endproc
 599              	.LFE11:
 601              		.section	.bss.s_dtls_al,"aw",%nobits
 602              		.align	2
 603              		.set	.LANCHOR0,. + 0
 606              	s_dtls_al:
 607 0000 00000000 		.space	4
 608              		.section	.rodata.__FUNCTION__.6940,"a"
 609              		.align	2
 610              		.set	.LANCHOR1,. + 0
 613              	__FUNCTION__.6940:
 614 0000 64746C73 		.ascii	"dtls_imp_init\000"
 614      5F696D70 
 614      5F696E69 
 614      7400
 615              		.section	.rodata.__FUNCTION__.6945,"a"
 616              		.align	2
 617              		.set	.LANCHOR2,. + 0
 620              	__FUNCTION__.6945:
 621 0000 64746C73 		.ascii	"dtls_al_init\000"
 621      5F616C5F 
 621      696E6974 
 621      00
 622              		.text
 623              	.Letext0:
 624              		.file 2 "t:\\msys\\3rd\\gcc-arm-none-eabi-9-2020-q2-update-win32\\lib\\gcc\\arm-none-eabi\\9.3.1\\
 625              		.file 3 "t:\\msys\\3rd\\gcc-arm-none-eabi-9-2020-q2-update-win32\\arm-none-eabi\\include\\machine\
 626              		.file 4 "t:\\msys\\3rd\\gcc-arm-none-eabi-9-2020-q2-update-win32\\arm-none-eabi\\include\\sys\\_st
 627              		.file 5 "t:\\msys\\3rd\\gcc-arm-none-eabi-9-2020-q2-update-win32\\arm-none-eabi\\include\\sys\\_ty
 628              		.file 6 "t:\\msys\\3rd\\gcc-arm-none-eabi-9-2020-q2-update-win32\\arm-none-eabi\\include\\sys\\ree
 629              		.file 7 "t:\\msys\\3rd\\gcc-arm-none-eabi-9-2020-q2-update-win32\\arm-none-eabi\\include\\sys\\loc
 630              		.file 8 "D:/fchai/work/i-cube/I-CUBE-HUAWEI/Middlewares/Third_Party/Huawei/iot_link/inc/dtls_al.h"
 631              		.file 9 "D:/fchai/work/i-cube/I-CUBE-HUAWEI/Middlewares/Third_Party/Huawei/iot_link/inc/link_log.h
 632              		.file 10 "t:\\msys\\3rd\\gcc-arm-none-eabi-9-2020-q2-update-win32\\arm-none-eabi\\include\\stdio.h
 633              		.file 11 "t:\\msys\\3rd\\gcc-arm-none-eabi-9-2020-q2-update-win32\\arm-none-eabi\\include\\string.
ARM GAS  T:\msys\tmp\ccab6Qmu.s 			page 15

