ARM GAS  T:\msys\tmp\ccvZtYVf.s 			page 1


   1              		.cpu cortex-m4
   2              		.eabi_attribute 27, 1
   3              		.eabi_attribute 28, 1
   4              		.eabi_attribute 20, 1
   5              		.eabi_attribute 21, 1
   6              		.eabi_attribute 23, 3
   7              		.eabi_attribute 24, 1
   8              		.eabi_attribute 25, 1
   9              		.eabi_attribute 26, 1
  10              		.eabi_attribute 30, 2
  11              		.eabi_attribute 34, 1
  12              		.eabi_attribute 18, 4
  13              		.file	"los_sem.c"
  14              		.text
  15              	.Ltext0:
  16              		.cfi_sections	.debug_frame
  17              		.section	.text.osSemInit,"ax",%progbits
  18              		.align	1
  19              		.p2align 2,,3
  20              		.global	osSemInit
  21              		.arch armv7e-m
  22              		.syntax unified
  23              		.thumb
  24              		.thumb_func
  25              		.fpu fpv4-sp-d16
  27              	osSemInit:
  28              	.LFB135:
  29              		.file 1 "D:/fchai/work/i-cube/I-CUBE-HUAWEI/Middlewares/Third_Party/Huawei/iot_link/os/liteos/base
   1:D:/fchai/work/i-cube/I-CUBE-HUAWEI/Middlewares/Third_Party/Huawei/iot_link/os/liteos/base/ipc\los_sem.c **** /*----------------------------------------------------------------------------
   2:D:/fchai/work/i-cube/I-CUBE-HUAWEI/Middlewares/Third_Party/Huawei/iot_link/os/liteos/base/ipc\los_sem.c ****  * Copyright (c) <2013-2015>, <Huawei Technologies Co., Ltd>
   3:D:/fchai/work/i-cube/I-CUBE-HUAWEI/Middlewares/Third_Party/Huawei/iot_link/os/liteos/base/ipc\los_sem.c ****  * All rights reserved.
   4:D:/fchai/work/i-cube/I-CUBE-HUAWEI/Middlewares/Third_Party/Huawei/iot_link/os/liteos/base/ipc\los_sem.c ****  * Redistribution and use in source and binary forms, with or without modification,
   5:D:/fchai/work/i-cube/I-CUBE-HUAWEI/Middlewares/Third_Party/Huawei/iot_link/os/liteos/base/ipc\los_sem.c ****  * are permitted provided that the following conditions are met:
   6:D:/fchai/work/i-cube/I-CUBE-HUAWEI/Middlewares/Third_Party/Huawei/iot_link/os/liteos/base/ipc\los_sem.c ****  * 1. Redistributions of source code must retain the above copyright notice, this list of
   7:D:/fchai/work/i-cube/I-CUBE-HUAWEI/Middlewares/Third_Party/Huawei/iot_link/os/liteos/base/ipc\los_sem.c ****  * conditions and the following disclaimer.
   8:D:/fchai/work/i-cube/I-CUBE-HUAWEI/Middlewares/Third_Party/Huawei/iot_link/os/liteos/base/ipc\los_sem.c ****  * 2. Redistributions in binary form must reproduce the above copyright notice, this list
   9:D:/fchai/work/i-cube/I-CUBE-HUAWEI/Middlewares/Third_Party/Huawei/iot_link/os/liteos/base/ipc\los_sem.c ****  * of conditions and the following disclaimer in the documentation and/or other materials
  10:D:/fchai/work/i-cube/I-CUBE-HUAWEI/Middlewares/Third_Party/Huawei/iot_link/os/liteos/base/ipc\los_sem.c ****  * provided with the distribution.
  11:D:/fchai/work/i-cube/I-CUBE-HUAWEI/Middlewares/Third_Party/Huawei/iot_link/os/liteos/base/ipc\los_sem.c ****  * 3. Neither the name of the copyright holder nor the names of its contributors may be used
  12:D:/fchai/work/i-cube/I-CUBE-HUAWEI/Middlewares/Third_Party/Huawei/iot_link/os/liteos/base/ipc\los_sem.c ****  * to endorse or promote products derived from this software without specific prior written
  13:D:/fchai/work/i-cube/I-CUBE-HUAWEI/Middlewares/Third_Party/Huawei/iot_link/os/liteos/base/ipc\los_sem.c ****  * permission.
  14:D:/fchai/work/i-cube/I-CUBE-HUAWEI/Middlewares/Third_Party/Huawei/iot_link/os/liteos/base/ipc\los_sem.c ****  * THIS SOFTWARE IS PROVIDED BY THE COPYRIGHT HOLDERS AND CONTRIBUTORS
  15:D:/fchai/work/i-cube/I-CUBE-HUAWEI/Middlewares/Third_Party/Huawei/iot_link/os/liteos/base/ipc\los_sem.c ****  * "AS IS" AND ANY EXPRESS OR IMPLIED WARRANTIES, INCLUDING, BUT NOT LIMITED TO,
  16:D:/fchai/work/i-cube/I-CUBE-HUAWEI/Middlewares/Third_Party/Huawei/iot_link/os/liteos/base/ipc\los_sem.c ****  * THE IMPLIED WARRANTIES OF MERCHANTABILITY AND FITNESS FOR A PARTICULAR
  17:D:/fchai/work/i-cube/I-CUBE-HUAWEI/Middlewares/Third_Party/Huawei/iot_link/os/liteos/base/ipc\los_sem.c ****  * PURPOSE ARE DISCLAIMED. IN NO EVENT SHALL THE COPYRIGHT HOLDER OR
  18:D:/fchai/work/i-cube/I-CUBE-HUAWEI/Middlewares/Third_Party/Huawei/iot_link/os/liteos/base/ipc\los_sem.c ****  * CONTRIBUTORS BE LIABLE FOR ANY DIRECT, INDIRECT, INCIDENTAL, SPECIAL,
  19:D:/fchai/work/i-cube/I-CUBE-HUAWEI/Middlewares/Third_Party/Huawei/iot_link/os/liteos/base/ipc\los_sem.c ****  * EXEMPLARY, OR CONSEQUENTIAL DAMAGES (INCLUDING, BUT NOT LIMITED TO,
  20:D:/fchai/work/i-cube/I-CUBE-HUAWEI/Middlewares/Third_Party/Huawei/iot_link/os/liteos/base/ipc\los_sem.c ****  * PROCUREMENT OF SUBSTITUTE GOODS OR SERVICES; LOSS OF USE, DATA, OR PROFITS;
  21:D:/fchai/work/i-cube/I-CUBE-HUAWEI/Middlewares/Third_Party/Huawei/iot_link/os/liteos/base/ipc\los_sem.c ****  * OR BUSINESS INTERRUPTION) HOWEVER CAUSED AND ON ANY THEORY OF LIABILITY,
  22:D:/fchai/work/i-cube/I-CUBE-HUAWEI/Middlewares/Third_Party/Huawei/iot_link/os/liteos/base/ipc\los_sem.c ****  * WHETHER IN CONTRACT, STRICT LIABILITY, OR TORT (INCLUDING NEGLIGENCE OR
  23:D:/fchai/work/i-cube/I-CUBE-HUAWEI/Middlewares/Third_Party/Huawei/iot_link/os/liteos/base/ipc\los_sem.c ****  * OTHERWISE) ARISING IN ANY WAY OUT OF THE USE OF THIS SOFTWARE, EVEN IF
  24:D:/fchai/work/i-cube/I-CUBE-HUAWEI/Middlewares/Third_Party/Huawei/iot_link/os/liteos/base/ipc\los_sem.c ****  * ADVISED OF THE POSSIBILITY OF SUCH DAMAGE.
  25:D:/fchai/work/i-cube/I-CUBE-HUAWEI/Middlewares/Third_Party/Huawei/iot_link/os/liteos/base/ipc\los_sem.c ****  *---------------------------------------------------------------------------*/
  26:D:/fchai/work/i-cube/I-CUBE-HUAWEI/Middlewares/Third_Party/Huawei/iot_link/os/liteos/base/ipc\los_sem.c **** /*----------------------------------------------------------------------------
  27:D:/fchai/work/i-cube/I-CUBE-HUAWEI/Middlewares/Third_Party/Huawei/iot_link/os/liteos/base/ipc\los_sem.c ****  * Notice of Export Control Law
  28:D:/fchai/work/i-cube/I-CUBE-HUAWEI/Middlewares/Third_Party/Huawei/iot_link/os/liteos/base/ipc\los_sem.c ****  * ===============================================
  29:D:/fchai/work/i-cube/I-CUBE-HUAWEI/Middlewares/Third_Party/Huawei/iot_link/os/liteos/base/ipc\los_sem.c ****  * Huawei LiteOS may be subject to applicable export control laws and regulations, which might
ARM GAS  T:\msys\tmp\ccvZtYVf.s 			page 2


  30:D:/fchai/work/i-cube/I-CUBE-HUAWEI/Middlewares/Third_Party/Huawei/iot_link/os/liteos/base/ipc\los_sem.c ****  * include those applicable to Huawei LiteOS of U.S. and the country in which you are located.
  31:D:/fchai/work/i-cube/I-CUBE-HUAWEI/Middlewares/Third_Party/Huawei/iot_link/os/liteos/base/ipc\los_sem.c ****  * Import, export and usage of Huawei LiteOS in any manner by you shall be in compliance with such
  32:D:/fchai/work/i-cube/I-CUBE-HUAWEI/Middlewares/Third_Party/Huawei/iot_link/os/liteos/base/ipc\los_sem.c ****  * applicable export control laws and regulations.
  33:D:/fchai/work/i-cube/I-CUBE-HUAWEI/Middlewares/Third_Party/Huawei/iot_link/os/liteos/base/ipc\los_sem.c ****  *---------------------------------------------------------------------------*/
  34:D:/fchai/work/i-cube/I-CUBE-HUAWEI/Middlewares/Third_Party/Huawei/iot_link/os/liteos/base/ipc\los_sem.c **** 
  35:D:/fchai/work/i-cube/I-CUBE-HUAWEI/Middlewares/Third_Party/Huawei/iot_link/os/liteos/base/ipc\los_sem.c **** #include "los_sem.inc"
  36:D:/fchai/work/i-cube/I-CUBE-HUAWEI/Middlewares/Third_Party/Huawei/iot_link/os/liteos/base/ipc\los_sem.c **** #include "los_base.ph"
  37:D:/fchai/work/i-cube/I-CUBE-HUAWEI/Middlewares/Third_Party/Huawei/iot_link/os/liteos/base/ipc\los_sem.c **** #include "los_err.ph"
  38:D:/fchai/work/i-cube/I-CUBE-HUAWEI/Middlewares/Third_Party/Huawei/iot_link/os/liteos/base/ipc\los_sem.c **** #include "los_memory.ph"
  39:D:/fchai/work/i-cube/I-CUBE-HUAWEI/Middlewares/Third_Party/Huawei/iot_link/os/liteos/base/ipc\los_sem.c **** #include "los_priqueue.ph"
  40:D:/fchai/work/i-cube/I-CUBE-HUAWEI/Middlewares/Third_Party/Huawei/iot_link/os/liteos/base/ipc\los_sem.c **** #include "los_sys.ph"
  41:D:/fchai/work/i-cube/I-CUBE-HUAWEI/Middlewares/Third_Party/Huawei/iot_link/os/liteos/base/ipc\los_sem.c **** #include "los_task.ph"
  42:D:/fchai/work/i-cube/I-CUBE-HUAWEI/Middlewares/Third_Party/Huawei/iot_link/os/liteos/base/ipc\los_sem.c **** #if (LOSCFG_PLATFORM_EXC == YES)
  43:D:/fchai/work/i-cube/I-CUBE-HUAWEI/Middlewares/Third_Party/Huawei/iot_link/os/liteos/base/ipc\los_sem.c **** #include "los_exc.h"
  44:D:/fchai/work/i-cube/I-CUBE-HUAWEI/Middlewares/Third_Party/Huawei/iot_link/os/liteos/base/ipc\los_sem.c **** #endif
  45:D:/fchai/work/i-cube/I-CUBE-HUAWEI/Middlewares/Third_Party/Huawei/iot_link/os/liteos/base/ipc\los_sem.c **** 
  46:D:/fchai/work/i-cube/I-CUBE-HUAWEI/Middlewares/Third_Party/Huawei/iot_link/os/liteos/base/ipc\los_sem.c **** #ifdef __cplusplus
  47:D:/fchai/work/i-cube/I-CUBE-HUAWEI/Middlewares/Third_Party/Huawei/iot_link/os/liteos/base/ipc\los_sem.c **** #if __cplusplus
  48:D:/fchai/work/i-cube/I-CUBE-HUAWEI/Middlewares/Third_Party/Huawei/iot_link/os/liteos/base/ipc\los_sem.c **** extern "C"{
  49:D:/fchai/work/i-cube/I-CUBE-HUAWEI/Middlewares/Third_Party/Huawei/iot_link/os/liteos/base/ipc\los_sem.c **** #endif
  50:D:/fchai/work/i-cube/I-CUBE-HUAWEI/Middlewares/Third_Party/Huawei/iot_link/os/liteos/base/ipc\los_sem.c **** #endif /* __cplusplus */
  51:D:/fchai/work/i-cube/I-CUBE-HUAWEI/Middlewares/Third_Party/Huawei/iot_link/os/liteos/base/ipc\los_sem.c **** 
  52:D:/fchai/work/i-cube/I-CUBE-HUAWEI/Middlewares/Third_Party/Huawei/iot_link/os/liteos/base/ipc\los_sem.c **** 
  53:D:/fchai/work/i-cube/I-CUBE-HUAWEI/Middlewares/Third_Party/Huawei/iot_link/os/liteos/base/ipc\los_sem.c **** #if (LOSCFG_BASE_IPC_SEM == YES)
  54:D:/fchai/work/i-cube/I-CUBE-HUAWEI/Middlewares/Third_Party/Huawei/iot_link/os/liteos/base/ipc\los_sem.c **** 
  55:D:/fchai/work/i-cube/I-CUBE-HUAWEI/Middlewares/Third_Party/Huawei/iot_link/os/liteos/base/ipc\los_sem.c **** LITE_OS_SEC_BSS LOS_DL_LIST  g_stUnusedSemList;
  56:D:/fchai/work/i-cube/I-CUBE-HUAWEI/Middlewares/Third_Party/Huawei/iot_link/os/liteos/base/ipc\los_sem.c **** LITE_OS_SEC_BSS SEM_CB_S    *g_pstAllSem;
  57:D:/fchai/work/i-cube/I-CUBE-HUAWEI/Middlewares/Third_Party/Huawei/iot_link/os/liteos/base/ipc\los_sem.c **** 
  58:D:/fchai/work/i-cube/I-CUBE-HUAWEI/Middlewares/Third_Party/Huawei/iot_link/os/liteos/base/ipc\los_sem.c **** /*****************************************************************************
  59:D:/fchai/work/i-cube/I-CUBE-HUAWEI/Middlewares/Third_Party/Huawei/iot_link/os/liteos/base/ipc\los_sem.c ****  Function     : osSemInit
  60:D:/fchai/work/i-cube/I-CUBE-HUAWEI/Middlewares/Third_Party/Huawei/iot_link/os/liteos/base/ipc\los_sem.c ****  Description  : Initialize the  Semaphore doubly linked list,
  61:D:/fchai/work/i-cube/I-CUBE-HUAWEI/Middlewares/Third_Party/Huawei/iot_link/os/liteos/base/ipc\los_sem.c ****  Input        : None,
  62:D:/fchai/work/i-cube/I-CUBE-HUAWEI/Middlewares/Third_Party/Huawei/iot_link/os/liteos/base/ipc\los_sem.c ****  Output       : None,
  63:D:/fchai/work/i-cube/I-CUBE-HUAWEI/Middlewares/Third_Party/Huawei/iot_link/os/liteos/base/ipc\los_sem.c ****  Return       : LOS_OK on success ,or error code on failure
  64:D:/fchai/work/i-cube/I-CUBE-HUAWEI/Middlewares/Third_Party/Huawei/iot_link/os/liteos/base/ipc\los_sem.c ****  *****************************************************************************/
  65:D:/fchai/work/i-cube/I-CUBE-HUAWEI/Middlewares/Third_Party/Huawei/iot_link/os/liteos/base/ipc\los_sem.c **** LITE_OS_SEC_TEXT_INIT UINT32 osSemInit(VOID)
  66:D:/fchai/work/i-cube/I-CUBE-HUAWEI/Middlewares/Third_Party/Huawei/iot_link/os/liteos/base/ipc\los_sem.c **** {
  30              		.loc 1 66 1 view -0
  31              		.cfi_startproc
  32              		@ args = 0, pretend = 0, frame = 0
  33              		@ frame_needed = 0, uses_anonymous_args = 0
  67:D:/fchai/work/i-cube/I-CUBE-HUAWEI/Middlewares/Third_Party/Huawei/iot_link/os/liteos/base/ipc\los_sem.c ****     SEM_CB_S    *pstSemNode;
  34              		.loc 1 67 5 view .LVU1
  68:D:/fchai/work/i-cube/I-CUBE-HUAWEI/Middlewares/Third_Party/Huawei/iot_link/os/liteos/base/ipc\los_sem.c ****     UINT16      uwIndex;
  35              		.loc 1 68 5 view .LVU2
  69:D:/fchai/work/i-cube/I-CUBE-HUAWEI/Middlewares/Third_Party/Huawei/iot_link/os/liteos/base/ipc\los_sem.c **** 
  70:D:/fchai/work/i-cube/I-CUBE-HUAWEI/Middlewares/Third_Party/Huawei/iot_link/os/liteos/base/ipc\los_sem.c ****     LOS_ListInit(&g_stUnusedSemList);
  36              		.loc 1 70 5 view .LVU3
  37              	.LVL0:
  38              	.LBB24:
  39              	.LBI24:
  40              		.file 2 "D:/fchai/work/i-cube/I-CUBE-HUAWEI/Middlewares/Third_Party/Huawei/iot_link/os/liteos/incl
   1:D:/fchai/work/i-cube/I-CUBE-HUAWEI/Middlewares/Third_Party/Huawei/iot_link/os/liteos/include\los_list.h **** /*----------------------------------------------------------------------------
   2:D:/fchai/work/i-cube/I-CUBE-HUAWEI/Middlewares/Third_Party/Huawei/iot_link/os/liteos/include\los_list.h ****  * Copyright (c) <2013-2015>, <Huawei Technologies Co., Ltd>
   3:D:/fchai/work/i-cube/I-CUBE-HUAWEI/Middlewares/Third_Party/Huawei/iot_link/os/liteos/include\los_list.h ****  * All rights reserved.
   4:D:/fchai/work/i-cube/I-CUBE-HUAWEI/Middlewares/Third_Party/Huawei/iot_link/os/liteos/include\los_list.h ****  * Redistribution and use in source and binary forms, with or without modification,
   5:D:/fchai/work/i-cube/I-CUBE-HUAWEI/Middlewares/Third_Party/Huawei/iot_link/os/liteos/include\los_list.h ****  * are permitted provided that the following conditions are met:
ARM GAS  T:\msys\tmp\ccvZtYVf.s 			page 3


   6:D:/fchai/work/i-cube/I-CUBE-HUAWEI/Middlewares/Third_Party/Huawei/iot_link/os/liteos/include\los_list.h ****  * 1. Redistributions of source code must retain the above copyright notice, this list of
   7:D:/fchai/work/i-cube/I-CUBE-HUAWEI/Middlewares/Third_Party/Huawei/iot_link/os/liteos/include\los_list.h ****  * conditions and the following disclaimer.
   8:D:/fchai/work/i-cube/I-CUBE-HUAWEI/Middlewares/Third_Party/Huawei/iot_link/os/liteos/include\los_list.h ****  * 2. Redistributions in binary form must reproduce the above copyright notice, this list
   9:D:/fchai/work/i-cube/I-CUBE-HUAWEI/Middlewares/Third_Party/Huawei/iot_link/os/liteos/include\los_list.h ****  * of conditions and the following disclaimer in the documentation and/or other materials
  10:D:/fchai/work/i-cube/I-CUBE-HUAWEI/Middlewares/Third_Party/Huawei/iot_link/os/liteos/include\los_list.h ****  * provided with the distribution.
  11:D:/fchai/work/i-cube/I-CUBE-HUAWEI/Middlewares/Third_Party/Huawei/iot_link/os/liteos/include\los_list.h ****  * 3. Neither the name of the copyright holder nor the names of its contributors may be used
  12:D:/fchai/work/i-cube/I-CUBE-HUAWEI/Middlewares/Third_Party/Huawei/iot_link/os/liteos/include\los_list.h ****  * to endorse or promote products derived from this software without specific prior written
  13:D:/fchai/work/i-cube/I-CUBE-HUAWEI/Middlewares/Third_Party/Huawei/iot_link/os/liteos/include\los_list.h ****  * permission.
  14:D:/fchai/work/i-cube/I-CUBE-HUAWEI/Middlewares/Third_Party/Huawei/iot_link/os/liteos/include\los_list.h ****  * THIS SOFTWARE IS PROVIDED BY THE COPYRIGHT HOLDERS AND CONTRIBUTORS
  15:D:/fchai/work/i-cube/I-CUBE-HUAWEI/Middlewares/Third_Party/Huawei/iot_link/os/liteos/include\los_list.h ****  * "AS IS" AND ANY EXPRESS OR IMPLIED WARRANTIES, INCLUDING, BUT NOT LIMITED TO,
  16:D:/fchai/work/i-cube/I-CUBE-HUAWEI/Middlewares/Third_Party/Huawei/iot_link/os/liteos/include\los_list.h ****  * THE IMPLIED WARRANTIES OF MERCHANTABILITY AND FITNESS FOR A PARTICULAR
  17:D:/fchai/work/i-cube/I-CUBE-HUAWEI/Middlewares/Third_Party/Huawei/iot_link/os/liteos/include\los_list.h ****  * PURPOSE ARE DISCLAIMED. IN NO EVENT SHALL THE COPYRIGHT HOLDER OR
  18:D:/fchai/work/i-cube/I-CUBE-HUAWEI/Middlewares/Third_Party/Huawei/iot_link/os/liteos/include\los_list.h ****  * CONTRIBUTORS BE LIABLE FOR ANY DIRECT, INDIRECT, INCIDENTAL, SPECIAL,
  19:D:/fchai/work/i-cube/I-CUBE-HUAWEI/Middlewares/Third_Party/Huawei/iot_link/os/liteos/include\los_list.h ****  * EXEMPLARY, OR CONSEQUENTIAL DAMAGES (INCLUDING, BUT NOT LIMITED TO,
  20:D:/fchai/work/i-cube/I-CUBE-HUAWEI/Middlewares/Third_Party/Huawei/iot_link/os/liteos/include\los_list.h ****  * PROCUREMENT OF SUBSTITUTE GOODS OR SERVICES; LOSS OF USE, DATA, OR PROFITS;
  21:D:/fchai/work/i-cube/I-CUBE-HUAWEI/Middlewares/Third_Party/Huawei/iot_link/os/liteos/include\los_list.h ****  * OR BUSINESS INTERRUPTION) HOWEVER CAUSED AND ON ANY THEORY OF LIABILITY,
  22:D:/fchai/work/i-cube/I-CUBE-HUAWEI/Middlewares/Third_Party/Huawei/iot_link/os/liteos/include\los_list.h ****  * WHETHER IN CONTRACT, STRICT LIABILITY, OR TORT (INCLUDING NEGLIGENCE OR
  23:D:/fchai/work/i-cube/I-CUBE-HUAWEI/Middlewares/Third_Party/Huawei/iot_link/os/liteos/include\los_list.h ****  * OTHERWISE) ARISING IN ANY WAY OUT OF THE USE OF THIS SOFTWARE, EVEN IF
  24:D:/fchai/work/i-cube/I-CUBE-HUAWEI/Middlewares/Third_Party/Huawei/iot_link/os/liteos/include\los_list.h ****  * ADVISED OF THE POSSIBILITY OF SUCH DAMAGE.
  25:D:/fchai/work/i-cube/I-CUBE-HUAWEI/Middlewares/Third_Party/Huawei/iot_link/os/liteos/include\los_list.h ****  *---------------------------------------------------------------------------*/
  26:D:/fchai/work/i-cube/I-CUBE-HUAWEI/Middlewares/Third_Party/Huawei/iot_link/os/liteos/include\los_list.h **** /*----------------------------------------------------------------------------
  27:D:/fchai/work/i-cube/I-CUBE-HUAWEI/Middlewares/Third_Party/Huawei/iot_link/os/liteos/include\los_list.h ****  * Notice of Export Control Law
  28:D:/fchai/work/i-cube/I-CUBE-HUAWEI/Middlewares/Third_Party/Huawei/iot_link/os/liteos/include\los_list.h ****  * ===============================================
  29:D:/fchai/work/i-cube/I-CUBE-HUAWEI/Middlewares/Third_Party/Huawei/iot_link/os/liteos/include\los_list.h ****  * Huawei LiteOS may be subject to applicable export control laws and regulations, which might
  30:D:/fchai/work/i-cube/I-CUBE-HUAWEI/Middlewares/Third_Party/Huawei/iot_link/os/liteos/include\los_list.h ****  * include those applicable to Huawei LiteOS of U.S. and the country in which you are located.
  31:D:/fchai/work/i-cube/I-CUBE-HUAWEI/Middlewares/Third_Party/Huawei/iot_link/os/liteos/include\los_list.h ****  * Import, export and usage of Huawei LiteOS in any manner by you shall be in compliance with such
  32:D:/fchai/work/i-cube/I-CUBE-HUAWEI/Middlewares/Third_Party/Huawei/iot_link/os/liteos/include\los_list.h ****  * applicable export control laws and regulations.
  33:D:/fchai/work/i-cube/I-CUBE-HUAWEI/Middlewares/Third_Party/Huawei/iot_link/os/liteos/include\los_list.h ****  *---------------------------------------------------------------------------*/
  34:D:/fchai/work/i-cube/I-CUBE-HUAWEI/Middlewares/Third_Party/Huawei/iot_link/os/liteos/include\los_list.h **** 
  35:D:/fchai/work/i-cube/I-CUBE-HUAWEI/Middlewares/Third_Party/Huawei/iot_link/os/liteos/include\los_list.h ****  /** @defgroup los_list Doubly linked list
  36:D:/fchai/work/i-cube/I-CUBE-HUAWEI/Middlewares/Third_Party/Huawei/iot_link/os/liteos/include\los_list.h ****  * @ingroup kernel
  37:D:/fchai/work/i-cube/I-CUBE-HUAWEI/Middlewares/Third_Party/Huawei/iot_link/os/liteos/include\los_list.h ****  */
  38:D:/fchai/work/i-cube/I-CUBE-HUAWEI/Middlewares/Third_Party/Huawei/iot_link/os/liteos/include\los_list.h **** 
  39:D:/fchai/work/i-cube/I-CUBE-HUAWEI/Middlewares/Third_Party/Huawei/iot_link/os/liteos/include\los_list.h **** #ifndef _LOS_LIST_H
  40:D:/fchai/work/i-cube/I-CUBE-HUAWEI/Middlewares/Third_Party/Huawei/iot_link/os/liteos/include\los_list.h **** #define _LOS_LIST_H
  41:D:/fchai/work/i-cube/I-CUBE-HUAWEI/Middlewares/Third_Party/Huawei/iot_link/os/liteos/include\los_list.h **** 
  42:D:/fchai/work/i-cube/I-CUBE-HUAWEI/Middlewares/Third_Party/Huawei/iot_link/os/liteos/include\los_list.h **** #include "los_typedef.h"
  43:D:/fchai/work/i-cube/I-CUBE-HUAWEI/Middlewares/Third_Party/Huawei/iot_link/os/liteos/include\los_list.h **** 
  44:D:/fchai/work/i-cube/I-CUBE-HUAWEI/Middlewares/Third_Party/Huawei/iot_link/os/liteos/include\los_list.h **** #ifdef __cplusplus
  45:D:/fchai/work/i-cube/I-CUBE-HUAWEI/Middlewares/Third_Party/Huawei/iot_link/os/liteos/include\los_list.h **** #if __cplusplus
  46:D:/fchai/work/i-cube/I-CUBE-HUAWEI/Middlewares/Third_Party/Huawei/iot_link/os/liteos/include\los_list.h **** extern "C" {
  47:D:/fchai/work/i-cube/I-CUBE-HUAWEI/Middlewares/Third_Party/Huawei/iot_link/os/liteos/include\los_list.h **** #endif /* __cplusplus */
  48:D:/fchai/work/i-cube/I-CUBE-HUAWEI/Middlewares/Third_Party/Huawei/iot_link/os/liteos/include\los_list.h **** #endif /* __cplusplus */
  49:D:/fchai/work/i-cube/I-CUBE-HUAWEI/Middlewares/Third_Party/Huawei/iot_link/os/liteos/include\los_list.h **** 
  50:D:/fchai/work/i-cube/I-CUBE-HUAWEI/Middlewares/Third_Party/Huawei/iot_link/os/liteos/include\los_list.h **** 
  51:D:/fchai/work/i-cube/I-CUBE-HUAWEI/Middlewares/Third_Party/Huawei/iot_link/os/liteos/include\los_list.h **** /**
  52:D:/fchai/work/i-cube/I-CUBE-HUAWEI/Middlewares/Third_Party/Huawei/iot_link/os/liteos/include\los_list.h ****  *@ingroup los_list
  53:D:/fchai/work/i-cube/I-CUBE-HUAWEI/Middlewares/Third_Party/Huawei/iot_link/os/liteos/include\los_list.h ****  *Structure of a node in a doubly linked list.
  54:D:/fchai/work/i-cube/I-CUBE-HUAWEI/Middlewares/Third_Party/Huawei/iot_link/os/liteos/include\los_list.h ****  */
  55:D:/fchai/work/i-cube/I-CUBE-HUAWEI/Middlewares/Third_Party/Huawei/iot_link/os/liteos/include\los_list.h **** typedef struct LOS_DL_LIST
  56:D:/fchai/work/i-cube/I-CUBE-HUAWEI/Middlewares/Third_Party/Huawei/iot_link/os/liteos/include\los_list.h **** {
  57:D:/fchai/work/i-cube/I-CUBE-HUAWEI/Middlewares/Third_Party/Huawei/iot_link/os/liteos/include\los_list.h ****     struct LOS_DL_LIST *pstPrev;            /**< Current node's pointer to the previous node*/
  58:D:/fchai/work/i-cube/I-CUBE-HUAWEI/Middlewares/Third_Party/Huawei/iot_link/os/liteos/include\los_list.h ****     struct LOS_DL_LIST *pstNext;            /**< Current node's pointer to the next node*/
  59:D:/fchai/work/i-cube/I-CUBE-HUAWEI/Middlewares/Third_Party/Huawei/iot_link/os/liteos/include\los_list.h **** } LOS_DL_LIST;
  60:D:/fchai/work/i-cube/I-CUBE-HUAWEI/Middlewares/Third_Party/Huawei/iot_link/os/liteos/include\los_list.h **** 
  61:D:/fchai/work/i-cube/I-CUBE-HUAWEI/Middlewares/Third_Party/Huawei/iot_link/os/liteos/include\los_list.h **** /**
  62:D:/fchai/work/i-cube/I-CUBE-HUAWEI/Middlewares/Third_Party/Huawei/iot_link/os/liteos/include\los_list.h ****  *@ingroup los_list
ARM GAS  T:\msys\tmp\ccvZtYVf.s 			page 4


  63:D:/fchai/work/i-cube/I-CUBE-HUAWEI/Middlewares/Third_Party/Huawei/iot_link/os/liteos/include\los_list.h ****  *@brief Initialize a doubly linked list.
  64:D:/fchai/work/i-cube/I-CUBE-HUAWEI/Middlewares/Third_Party/Huawei/iot_link/os/liteos/include\los_list.h ****  *
  65:D:/fchai/work/i-cube/I-CUBE-HUAWEI/Middlewares/Third_Party/Huawei/iot_link/os/liteos/include\los_list.h ****  *@par Description:
  66:D:/fchai/work/i-cube/I-CUBE-HUAWEI/Middlewares/Third_Party/Huawei/iot_link/os/liteos/include\los_list.h ****  *This API is used to initialize a doubly linked list.
  67:D:/fchai/work/i-cube/I-CUBE-HUAWEI/Middlewares/Third_Party/Huawei/iot_link/os/liteos/include\los_list.h ****  *@attention
  68:D:/fchai/work/i-cube/I-CUBE-HUAWEI/Middlewares/Third_Party/Huawei/iot_link/os/liteos/include\los_list.h ****  *<ul>
  69:D:/fchai/work/i-cube/I-CUBE-HUAWEI/Middlewares/Third_Party/Huawei/iot_link/os/liteos/include\los_list.h ****  *<li>The parameter passed in should be ensured to be a legal pointer.</li>
  70:D:/fchai/work/i-cube/I-CUBE-HUAWEI/Middlewares/Third_Party/Huawei/iot_link/os/liteos/include\los_list.h ****  *</ul>
  71:D:/fchai/work/i-cube/I-CUBE-HUAWEI/Middlewares/Third_Party/Huawei/iot_link/os/liteos/include\los_list.h ****  *
  72:D:/fchai/work/i-cube/I-CUBE-HUAWEI/Middlewares/Third_Party/Huawei/iot_link/os/liteos/include\los_list.h ****  *@param pstList    [IN] Node in a doubly linked list.
  73:D:/fchai/work/i-cube/I-CUBE-HUAWEI/Middlewares/Third_Party/Huawei/iot_link/os/liteos/include\los_list.h ****  *
  74:D:/fchai/work/i-cube/I-CUBE-HUAWEI/Middlewares/Third_Party/Huawei/iot_link/os/liteos/include\los_list.h ****  *@retval None.
  75:D:/fchai/work/i-cube/I-CUBE-HUAWEI/Middlewares/Third_Party/Huawei/iot_link/os/liteos/include\los_list.h ****  *@par Dependency:
  76:D:/fchai/work/i-cube/I-CUBE-HUAWEI/Middlewares/Third_Party/Huawei/iot_link/os/liteos/include\los_list.h ****  *<ul><li>los_list.h: the header file that contains the API declaration.</li></ul>
  77:D:/fchai/work/i-cube/I-CUBE-HUAWEI/Middlewares/Third_Party/Huawei/iot_link/os/liteos/include\los_list.h ****  *@see
  78:D:/fchai/work/i-cube/I-CUBE-HUAWEI/Middlewares/Third_Party/Huawei/iot_link/os/liteos/include\los_list.h ****  *@since Huawei LiteOS V100R001C00
  79:D:/fchai/work/i-cube/I-CUBE-HUAWEI/Middlewares/Third_Party/Huawei/iot_link/os/liteos/include\los_list.h ****  */
  80:D:/fchai/work/i-cube/I-CUBE-HUAWEI/Middlewares/Third_Party/Huawei/iot_link/os/liteos/include\los_list.h **** LITE_OS_SEC_ALW_INLINE STATIC_INLINE VOID LOS_ListInit(LOS_DL_LIST *pstList)
  41              		.loc 2 80 43 view .LVU4
  42              	.LBB25:
  81:D:/fchai/work/i-cube/I-CUBE-HUAWEI/Middlewares/Third_Party/Huawei/iot_link/os/liteos/include\los_list.h **** {
  82:D:/fchai/work/i-cube/I-CUBE-HUAWEI/Middlewares/Third_Party/Huawei/iot_link/os/liteos/include\los_list.h ****     pstList->pstNext = pstList;
  43              		.loc 2 82 5 view .LVU5
  44              	.LBE25:
  45              	.LBE24:
  66:D:/fchai/work/i-cube/I-CUBE-HUAWEI/Middlewares/Third_Party/Huawei/iot_link/os/liteos/base/ipc\los_sem.c ****     SEM_CB_S    *pstSemNode;
  46              		.loc 1 66 1 is_stmt 0 view .LVU6
  47 0000 38B5     		push	{r3, r4, r5, lr}
  48              	.LCFI0:
  49              		.cfi_def_cfa_offset 16
  50              		.cfi_offset 3, -16
  51              		.cfi_offset 4, -12
  52              		.cfi_offset 5, -8
  53              		.cfi_offset 14, -4
  71:D:/fchai/work/i-cube/I-CUBE-HUAWEI/Middlewares/Third_Party/Huawei/iot_link/os/liteos/base/ipc\los_sem.c **** 
  72:D:/fchai/work/i-cube/I-CUBE-HUAWEI/Middlewares/Third_Party/Huawei/iot_link/os/liteos/base/ipc\los_sem.c ****     if (LOSCFG_BASE_IPC_SEM_LIMIT == 0)   /*lint !e506*/
  73:D:/fchai/work/i-cube/I-CUBE-HUAWEI/Middlewares/Third_Party/Huawei/iot_link/os/liteos/base/ipc\los_sem.c ****     {
  74:D:/fchai/work/i-cube/I-CUBE-HUAWEI/Middlewares/Third_Party/Huawei/iot_link/os/liteos/base/ipc\los_sem.c ****         return LOS_ERRNO_SEM_MAXNUM_ZERO;
  75:D:/fchai/work/i-cube/I-CUBE-HUAWEI/Middlewares/Third_Party/Huawei/iot_link/os/liteos/base/ipc\los_sem.c ****     }
  76:D:/fchai/work/i-cube/I-CUBE-HUAWEI/Middlewares/Third_Party/Huawei/iot_link/os/liteos/base/ipc\los_sem.c **** 
  77:D:/fchai/work/i-cube/I-CUBE-HUAWEI/Middlewares/Third_Party/Huawei/iot_link/os/liteos/base/ipc\los_sem.c ****     g_pstAllSem = (SEM_CB_S *)LOS_MemAlloc(m_aucSysMem0, (LOSCFG_BASE_IPC_SEM_LIMIT * sizeof(SEM_CB
  54              		.loc 1 77 31 view .LVU7
  55 0002 114B     		ldr	r3, .L8
  56              	.LBB29:
  57              	.LBB26:
  58              		.loc 2 82 22 view .LVU8
  59 0004 114C     		ldr	r4, .L8+4
  60              	.LBE26:
  61              	.LBE29:
  62              		.loc 1 77 31 view .LVU9
  63 0006 1868     		ldr	r0, [r3]
  64              	.LBB30:
  65              	.LBB27:
  66              		.loc 2 82 22 view .LVU10
  67 0008 6460     		str	r4, [r4, #4]
  83:D:/fchai/work/i-cube/I-CUBE-HUAWEI/Middlewares/Third_Party/Huawei/iot_link/os/liteos/include\los_list.h ****     pstList->pstPrev = pstList;
  68              		.loc 2 83 5 is_stmt 1 view .LVU11
ARM GAS  T:\msys\tmp\ccvZtYVf.s 			page 5


  69              	.LBE27:
  70              	.LBE30:
  71              		.loc 1 77 31 is_stmt 0 view .LVU12
  72 000a 4FF4A071 		mov	r1, #320
  73              	.LBB31:
  74              	.LBB28:
  75              		.loc 2 83 22 view .LVU13
  76 000e 2460     		str	r4, [r4]
  77              	.LVL1:
  78              		.loc 2 83 22 view .LVU14
  79              	.LBE28:
  80              	.LBE31:
  72:D:/fchai/work/i-cube/I-CUBE-HUAWEI/Middlewares/Third_Party/Huawei/iot_link/os/liteos/base/ipc\los_sem.c ****     {
  81              		.loc 1 72 5 is_stmt 1 view .LVU15
  82              		.loc 1 77 5 view .LVU16
  83              		.loc 1 77 31 is_stmt 0 view .LVU17
  84 0010 FFF7FEFF 		bl	LOS_MemAlloc
  85              	.LVL2:
  86              		.loc 1 77 17 view .LVU18
  87 0014 0E4B     		ldr	r3, .L8+8
  88 0016 1860     		str	r0, [r3]
  78:D:/fchai/work/i-cube/I-CUBE-HUAWEI/Middlewares/Third_Party/Huawei/iot_link/os/liteos/base/ipc\los_sem.c ****     if (NULL == g_pstAllSem)
  89              		.loc 1 78 5 is_stmt 1 view .LVU19
  90              		.loc 1 78 8 is_stmt 0 view .LVU20
  91 0018 A0B1     		cbz	r0, .L4
  92 001a 0022     		movs	r2, #0
  93 001c 00F10803 		add	r3, r0, #8
  79:D:/fchai/work/i-cube/I-CUBE-HUAWEI/Middlewares/Third_Party/Huawei/iot_link/os/liteos/base/ipc\los_sem.c ****     {
  80:D:/fchai/work/i-cube/I-CUBE-HUAWEI/Middlewares/Third_Party/Huawei/iot_link/os/liteos/base/ipc\los_sem.c ****         return LOS_ERRNO_SEM_NO_MEMORY;
  81:D:/fchai/work/i-cube/I-CUBE-HUAWEI/Middlewares/Third_Party/Huawei/iot_link/os/liteos/base/ipc\los_sem.c ****     }
  82:D:/fchai/work/i-cube/I-CUBE-HUAWEI/Middlewares/Third_Party/Huawei/iot_link/os/liteos/base/ipc\los_sem.c **** 
  83:D:/fchai/work/i-cube/I-CUBE-HUAWEI/Middlewares/Third_Party/Huawei/iot_link/os/liteos/base/ipc\los_sem.c ****     /* Connect all the ECBs in a doubly linked list. */
  84:D:/fchai/work/i-cube/I-CUBE-HUAWEI/Middlewares/Third_Party/Huawei/iot_link/os/liteos/base/ipc\los_sem.c ****     for (uwIndex = 0; uwIndex < LOSCFG_BASE_IPC_SEM_LIMIT; uwIndex++)
  85:D:/fchai/work/i-cube/I-CUBE-HUAWEI/Middlewares/Third_Party/Huawei/iot_link/os/liteos/base/ipc\los_sem.c ****     {
  86:D:/fchai/work/i-cube/I-CUBE-HUAWEI/Middlewares/Third_Party/Huawei/iot_link/os/liteos/base/ipc\los_sem.c ****         pstSemNode = ((SEM_CB_S *)g_pstAllSem) + uwIndex;
  87:D:/fchai/work/i-cube/I-CUBE-HUAWEI/Middlewares/Third_Party/Huawei/iot_link/os/liteos/base/ipc\los_sem.c ****         pstSemNode->usSemID = uwIndex;
  88:D:/fchai/work/i-cube/I-CUBE-HUAWEI/Middlewares/Third_Party/Huawei/iot_link/os/liteos/base/ipc\los_sem.c ****         pstSemNode->usSemStat = OS_SEM_UNUSED;
  94              		.loc 1 88 31 view .LVU21
  95 0020 1546     		mov	r5, r2
  96              	.L3:
  97              	.LVL3:
  86:D:/fchai/work/i-cube/I-CUBE-HUAWEI/Middlewares/Third_Party/Huawei/iot_link/os/liteos/base/ipc\los_sem.c ****         pstSemNode->usSemID = uwIndex;
  98              		.loc 1 86 9 is_stmt 1 discriminator 3 view .LVU22
  87:D:/fchai/work/i-cube/I-CUBE-HUAWEI/Middlewares/Third_Party/Huawei/iot_link/os/liteos/base/ipc\los_sem.c ****         pstSemNode->usSemStat = OS_SEM_UNUSED;
  99              		.loc 1 87 9 discriminator 3 view .LVU23
  89:D:/fchai/work/i-cube/I-CUBE-HUAWEI/Middlewares/Third_Party/Huawei/iot_link/os/liteos/base/ipc\los_sem.c ****         LOS_ListTailInsert(&g_stUnusedSemList, &pstSemNode->stSemList);
 100              		.loc 1 89 9 is_stmt 0 discriminator 3 view .LVU24
 101 0022 2168     		ldr	r1, [r4]
  87:D:/fchai/work/i-cube/I-CUBE-HUAWEI/Middlewares/Third_Party/Huawei/iot_link/os/liteos/base/ipc\los_sem.c ****         pstSemNode->usSemStat = OS_SEM_UNUSED;
 102              		.loc 1 87 29 discriminator 3 view .LVU25
 103 0024 23F8022C 		strh	r2, [r3, #-2]	@ movhi
  88:D:/fchai/work/i-cube/I-CUBE-HUAWEI/Middlewares/Third_Party/Huawei/iot_link/os/liteos/base/ipc\los_sem.c ****         LOS_ListTailInsert(&g_stUnusedSemList, &pstSemNode->stSemList);
 104              		.loc 1 88 9 is_stmt 1 discriminator 3 view .LVU26
 105              	.LBB32:
 106              	.LBB33:
 107              	.LBB34:
  84:D:/fchai/work/i-cube/I-CUBE-HUAWEI/Middlewares/Third_Party/Huawei/iot_link/os/liteos/include\los_list.h **** }
ARM GAS  T:\msys\tmp\ccvZtYVf.s 			page 6


  85:D:/fchai/work/i-cube/I-CUBE-HUAWEI/Middlewares/Third_Party/Huawei/iot_link/os/liteos/include\los_list.h **** 
  86:D:/fchai/work/i-cube/I-CUBE-HUAWEI/Middlewares/Third_Party/Huawei/iot_link/os/liteos/include\los_list.h **** /**
  87:D:/fchai/work/i-cube/I-CUBE-HUAWEI/Middlewares/Third_Party/Huawei/iot_link/os/liteos/include\los_list.h ****  *@ingroup los_list
  88:D:/fchai/work/i-cube/I-CUBE-HUAWEI/Middlewares/Third_Party/Huawei/iot_link/os/liteos/include\los_list.h ****  *@brief Point to the next node pointed to by the current node.
  89:D:/fchai/work/i-cube/I-CUBE-HUAWEI/Middlewares/Third_Party/Huawei/iot_link/os/liteos/include\los_list.h ****  *
  90:D:/fchai/work/i-cube/I-CUBE-HUAWEI/Middlewares/Third_Party/Huawei/iot_link/os/liteos/include\los_list.h ****  *@par Description:
  91:D:/fchai/work/i-cube/I-CUBE-HUAWEI/Middlewares/Third_Party/Huawei/iot_link/os/liteos/include\los_list.h ****  *<ul>
  92:D:/fchai/work/i-cube/I-CUBE-HUAWEI/Middlewares/Third_Party/Huawei/iot_link/os/liteos/include\los_list.h ****  *<li>This API is used to point to the next node pointed to by the current node.</li>
  93:D:/fchai/work/i-cube/I-CUBE-HUAWEI/Middlewares/Third_Party/Huawei/iot_link/os/liteos/include\los_list.h ****  *</ul>
  94:D:/fchai/work/i-cube/I-CUBE-HUAWEI/Middlewares/Third_Party/Huawei/iot_link/os/liteos/include\los_list.h ****  *@attention
  95:D:/fchai/work/i-cube/I-CUBE-HUAWEI/Middlewares/Third_Party/Huawei/iot_link/os/liteos/include\los_list.h ****  *<ul>
  96:D:/fchai/work/i-cube/I-CUBE-HUAWEI/Middlewares/Third_Party/Huawei/iot_link/os/liteos/include\los_list.h ****  *<li>None.</li>
  97:D:/fchai/work/i-cube/I-CUBE-HUAWEI/Middlewares/Third_Party/Huawei/iot_link/os/liteos/include\los_list.h ****  *</ul>
  98:D:/fchai/work/i-cube/I-CUBE-HUAWEI/Middlewares/Third_Party/Huawei/iot_link/os/liteos/include\los_list.h ****  *
  99:D:/fchai/work/i-cube/I-CUBE-HUAWEI/Middlewares/Third_Party/Huawei/iot_link/os/liteos/include\los_list.h ****  *@param pstObject  [IN] Node in the doubly linked list.
 100:D:/fchai/work/i-cube/I-CUBE-HUAWEI/Middlewares/Third_Party/Huawei/iot_link/os/liteos/include\los_list.h ****  *
 101:D:/fchai/work/i-cube/I-CUBE-HUAWEI/Middlewares/Third_Party/Huawei/iot_link/os/liteos/include\los_list.h ****  *@retval None.
 102:D:/fchai/work/i-cube/I-CUBE-HUAWEI/Middlewares/Third_Party/Huawei/iot_link/os/liteos/include\los_list.h ****  *@par Dependency:
 103:D:/fchai/work/i-cube/I-CUBE-HUAWEI/Middlewares/Third_Party/Huawei/iot_link/os/liteos/include\los_list.h ****  *<ul><li>los_list.h: the header file that contains the API declaration.</li></ul>
 104:D:/fchai/work/i-cube/I-CUBE-HUAWEI/Middlewares/Third_Party/Huawei/iot_link/os/liteos/include\los_list.h ****  *@see
 105:D:/fchai/work/i-cube/I-CUBE-HUAWEI/Middlewares/Third_Party/Huawei/iot_link/os/liteos/include\los_list.h ****  *@since Huawei LiteOS V100R001C00
 106:D:/fchai/work/i-cube/I-CUBE-HUAWEI/Middlewares/Third_Party/Huawei/iot_link/os/liteos/include\los_list.h ****  */
 107:D:/fchai/work/i-cube/I-CUBE-HUAWEI/Middlewares/Third_Party/Huawei/iot_link/os/liteos/include\los_list.h **** #define LOS_DL_LIST_FIRST(pstObject) ((pstObject)->pstNext)
 108:D:/fchai/work/i-cube/I-CUBE-HUAWEI/Middlewares/Third_Party/Huawei/iot_link/os/liteos/include\los_list.h **** 
 109:D:/fchai/work/i-cube/I-CUBE-HUAWEI/Middlewares/Third_Party/Huawei/iot_link/os/liteos/include\los_list.h **** /**
 110:D:/fchai/work/i-cube/I-CUBE-HUAWEI/Middlewares/Third_Party/Huawei/iot_link/os/liteos/include\los_list.h ****  *@ingroup los_list
 111:D:/fchai/work/i-cube/I-CUBE-HUAWEI/Middlewares/Third_Party/Huawei/iot_link/os/liteos/include\los_list.h ****  *@brief Insert a new node to a doubly linked list.
 112:D:/fchai/work/i-cube/I-CUBE-HUAWEI/Middlewares/Third_Party/Huawei/iot_link/os/liteos/include\los_list.h ****  *
 113:D:/fchai/work/i-cube/I-CUBE-HUAWEI/Middlewares/Third_Party/Huawei/iot_link/os/liteos/include\los_list.h ****  *@par Description:
 114:D:/fchai/work/i-cube/I-CUBE-HUAWEI/Middlewares/Third_Party/Huawei/iot_link/os/liteos/include\los_list.h ****  *This API is used to insert a new node to a doubly linked list.
 115:D:/fchai/work/i-cube/I-CUBE-HUAWEI/Middlewares/Third_Party/Huawei/iot_link/os/liteos/include\los_list.h ****  *@attention
 116:D:/fchai/work/i-cube/I-CUBE-HUAWEI/Middlewares/Third_Party/Huawei/iot_link/os/liteos/include\los_list.h ****  *<ul>
 117:D:/fchai/work/i-cube/I-CUBE-HUAWEI/Middlewares/Third_Party/Huawei/iot_link/os/liteos/include\los_list.h ****  *<li>The parameters passed in should be ensured to be legal pointers.</li>
 118:D:/fchai/work/i-cube/I-CUBE-HUAWEI/Middlewares/Third_Party/Huawei/iot_link/os/liteos/include\los_list.h ****  *</ul>
 119:D:/fchai/work/i-cube/I-CUBE-HUAWEI/Middlewares/Third_Party/Huawei/iot_link/os/liteos/include\los_list.h ****  *
 120:D:/fchai/work/i-cube/I-CUBE-HUAWEI/Middlewares/Third_Party/Huawei/iot_link/os/liteos/include\los_list.h ****  *@param pstList    [IN]   Doubly linked list where the new node is inserted.
 121:D:/fchai/work/i-cube/I-CUBE-HUAWEI/Middlewares/Third_Party/Huawei/iot_link/os/liteos/include\los_list.h ****  *@param pstNode    [IN]   New node to be inserted.
 122:D:/fchai/work/i-cube/I-CUBE-HUAWEI/Middlewares/Third_Party/Huawei/iot_link/os/liteos/include\los_list.h ****  *
 123:D:/fchai/work/i-cube/I-CUBE-HUAWEI/Middlewares/Third_Party/Huawei/iot_link/os/liteos/include\los_list.h ****  *@retval None
 124:D:/fchai/work/i-cube/I-CUBE-HUAWEI/Middlewares/Third_Party/Huawei/iot_link/os/liteos/include\los_list.h ****  *@par Dependency:
 125:D:/fchai/work/i-cube/I-CUBE-HUAWEI/Middlewares/Third_Party/Huawei/iot_link/os/liteos/include\los_list.h ****  *<ul><li>los_list.h: the header file that contains the API declaration.</li></ul>
 126:D:/fchai/work/i-cube/I-CUBE-HUAWEI/Middlewares/Third_Party/Huawei/iot_link/os/liteos/include\los_list.h ****  *@see LOS_ListDelete
 127:D:/fchai/work/i-cube/I-CUBE-HUAWEI/Middlewares/Third_Party/Huawei/iot_link/os/liteos/include\los_list.h ****  *@since Huawei LiteOS V100R001C00
 128:D:/fchai/work/i-cube/I-CUBE-HUAWEI/Middlewares/Third_Party/Huawei/iot_link/os/liteos/include\los_list.h ****  */
 129:D:/fchai/work/i-cube/I-CUBE-HUAWEI/Middlewares/Third_Party/Huawei/iot_link/os/liteos/include\los_list.h **** LITE_OS_SEC_ALW_INLINE STATIC_INLINE VOID LOS_ListAdd(LOS_DL_LIST *pstList, LOS_DL_LIST *pstNode)
 130:D:/fchai/work/i-cube/I-CUBE-HUAWEI/Middlewares/Third_Party/Huawei/iot_link/os/liteos/include\los_list.h **** {
 131:D:/fchai/work/i-cube/I-CUBE-HUAWEI/Middlewares/Third_Party/Huawei/iot_link/os/liteos/include\los_list.h ****     pstNode->pstNext = pstList->pstNext;
 108              		.loc 2 131 31 is_stmt 0 discriminator 3 view .LVU27
 109 0028 4868     		ldr	r0, [r1, #4]
 110              	.LBE34:
 111              	.LBE33:
 112              	.LBE32:
  88:D:/fchai/work/i-cube/I-CUBE-HUAWEI/Middlewares/Third_Party/Huawei/iot_link/os/liteos/base/ipc\los_sem.c ****         LOS_ListTailInsert(&g_stUnusedSemList, &pstSemNode->stSemList);
 113              		.loc 1 88 31 discriminator 3 view .LVU28
 114 002a 23F8085C 		strh	r5, [r3, #-8]	@ movhi
 115              		.loc 1 89 9 is_stmt 1 discriminator 3 view .LVU29
 116              	.LVL4:
ARM GAS  T:\msys\tmp\ccvZtYVf.s 			page 7


 117              	.LBB39:
 118              	.LBI32:
 132:D:/fchai/work/i-cube/I-CUBE-HUAWEI/Middlewares/Third_Party/Huawei/iot_link/os/liteos/include\los_list.h ****     pstNode->pstPrev = pstList;
 133:D:/fchai/work/i-cube/I-CUBE-HUAWEI/Middlewares/Third_Party/Huawei/iot_link/os/liteos/include\los_list.h ****     pstList->pstNext->pstPrev = pstNode;
 134:D:/fchai/work/i-cube/I-CUBE-HUAWEI/Middlewares/Third_Party/Huawei/iot_link/os/liteos/include\los_list.h ****     pstList->pstNext = pstNode;
 135:D:/fchai/work/i-cube/I-CUBE-HUAWEI/Middlewares/Third_Party/Huawei/iot_link/os/liteos/include\los_list.h **** }
 136:D:/fchai/work/i-cube/I-CUBE-HUAWEI/Middlewares/Third_Party/Huawei/iot_link/os/liteos/include\los_list.h **** 
 137:D:/fchai/work/i-cube/I-CUBE-HUAWEI/Middlewares/Third_Party/Huawei/iot_link/os/liteos/include\los_list.h **** /**
 138:D:/fchai/work/i-cube/I-CUBE-HUAWEI/Middlewares/Third_Party/Huawei/iot_link/os/liteos/include\los_list.h ****  *@ingroup los_list
 139:D:/fchai/work/i-cube/I-CUBE-HUAWEI/Middlewares/Third_Party/Huawei/iot_link/os/liteos/include\los_list.h ****  *@brief Insert a node to the tail of a doubly linked list.
 140:D:/fchai/work/i-cube/I-CUBE-HUAWEI/Middlewares/Third_Party/Huawei/iot_link/os/liteos/include\los_list.h ****  *
 141:D:/fchai/work/i-cube/I-CUBE-HUAWEI/Middlewares/Third_Party/Huawei/iot_link/os/liteos/include\los_list.h ****  *@par Description:
 142:D:/fchai/work/i-cube/I-CUBE-HUAWEI/Middlewares/Third_Party/Huawei/iot_link/os/liteos/include\los_list.h ****  *This API is used to insert a new node to the tail of a doubly linked list.
 143:D:/fchai/work/i-cube/I-CUBE-HUAWEI/Middlewares/Third_Party/Huawei/iot_link/os/liteos/include\los_list.h ****  *@attention
 144:D:/fchai/work/i-cube/I-CUBE-HUAWEI/Middlewares/Third_Party/Huawei/iot_link/os/liteos/include\los_list.h ****  *<ul>
 145:D:/fchai/work/i-cube/I-CUBE-HUAWEI/Middlewares/Third_Party/Huawei/iot_link/os/liteos/include\los_list.h ****  *<li>The parameters passed in should be ensured to be legal pointers.</li>
 146:D:/fchai/work/i-cube/I-CUBE-HUAWEI/Middlewares/Third_Party/Huawei/iot_link/os/liteos/include\los_list.h ****  *</ul>
 147:D:/fchai/work/i-cube/I-CUBE-HUAWEI/Middlewares/Third_Party/Huawei/iot_link/os/liteos/include\los_list.h ****  *
 148:D:/fchai/work/i-cube/I-CUBE-HUAWEI/Middlewares/Third_Party/Huawei/iot_link/os/liteos/include\los_list.h ****  *@param pstList     [IN] Doubly linked list where the new node is inserted.
 149:D:/fchai/work/i-cube/I-CUBE-HUAWEI/Middlewares/Third_Party/Huawei/iot_link/os/liteos/include\los_list.h ****  *@param pstNode     [IN] New node to be inserted.
 150:D:/fchai/work/i-cube/I-CUBE-HUAWEI/Middlewares/Third_Party/Huawei/iot_link/os/liteos/include\los_list.h ****  *
 151:D:/fchai/work/i-cube/I-CUBE-HUAWEI/Middlewares/Third_Party/Huawei/iot_link/os/liteos/include\los_list.h ****  *@retval None.
 152:D:/fchai/work/i-cube/I-CUBE-HUAWEI/Middlewares/Third_Party/Huawei/iot_link/os/liteos/include\los_list.h ****  *@par Dependency:
 153:D:/fchai/work/i-cube/I-CUBE-HUAWEI/Middlewares/Third_Party/Huawei/iot_link/os/liteos/include\los_list.h ****  *<ul><li>los_list.h: the header file that contains the API declaration.</li></ul>
 154:D:/fchai/work/i-cube/I-CUBE-HUAWEI/Middlewares/Third_Party/Huawei/iot_link/os/liteos/include\los_list.h ****  *@see LOS_ListAdd | LOS_ListHeadInsert
 155:D:/fchai/work/i-cube/I-CUBE-HUAWEI/Middlewares/Third_Party/Huawei/iot_link/os/liteos/include\los_list.h ****  *@since Huawei LiteOS V100R001C00
 156:D:/fchai/work/i-cube/I-CUBE-HUAWEI/Middlewares/Third_Party/Huawei/iot_link/os/liteos/include\los_list.h ****  */
 157:D:/fchai/work/i-cube/I-CUBE-HUAWEI/Middlewares/Third_Party/Huawei/iot_link/os/liteos/include\los_list.h **** LITE_OS_SEC_ALW_INLINE STATIC_INLINE VOID LOS_ListTailInsert(LOS_DL_LIST *pstList, LOS_DL_LIST *pst
 119              		.loc 2 157 43 discriminator 3 view .LVU30
 120              		.loc 2 157 43 is_stmt 0 discriminator 3 view .LVU31
 121              	.LBE39:
 158:D:/fchai/work/i-cube/I-CUBE-HUAWEI/Middlewares/Third_Party/Huawei/iot_link/os/liteos/include\los_list.h **** {
 159:D:/fchai/work/i-cube/I-CUBE-HUAWEI/Middlewares/Third_Party/Huawei/iot_link/os/liteos/include\los_list.h ****     LOS_ListAdd(pstList->pstPrev, pstNode);
 122              		.loc 2 159 5 is_stmt 1 discriminator 3 view .LVU32
 123              	.LBB40:
 124              	.LBB37:
 125              	.LBI33:
 129:D:/fchai/work/i-cube/I-CUBE-HUAWEI/Middlewares/Third_Party/Huawei/iot_link/os/liteos/include\los_list.h **** {
 126              		.loc 2 129 43 discriminator 3 view .LVU33
 127              	.LBB35:
 131:D:/fchai/work/i-cube/I-CUBE-HUAWEI/Middlewares/Third_Party/Huawei/iot_link/os/liteos/include\los_list.h ****     pstNode->pstPrev = pstList;
 128              		.loc 2 131 5 discriminator 3 view .LVU34
 129 002e 0132     		adds	r2, r2, #1
 130              	.LVL5:
 131:D:/fchai/work/i-cube/I-CUBE-HUAWEI/Middlewares/Third_Party/Huawei/iot_link/os/liteos/include\los_list.h ****     pstNode->pstPrev = pstList;
 131              		.loc 2 131 5 is_stmt 0 discriminator 3 view .LVU35
 132              	.LBE35:
 133              	.LBE37:
 134              	.LBE40:
  84:D:/fchai/work/i-cube/I-CUBE-HUAWEI/Middlewares/Third_Party/Huawei/iot_link/os/liteos/base/ipc\los_sem.c ****     {
 135              		.loc 1 84 5 discriminator 3 view .LVU36
 136 0030 142A     		cmp	r2, #20
 137              	.LBB41:
 138              	.LBB38:
 139              	.LBB36:
 132:D:/fchai/work/i-cube/I-CUBE-HUAWEI/Middlewares/Third_Party/Huawei/iot_link/os/liteos/include\los_list.h ****     pstList->pstNext->pstPrev = pstNode;
 140              		.loc 2 132 22 discriminator 3 view .LVU37
ARM GAS  T:\msys\tmp\ccvZtYVf.s 			page 8


 141 0032 C3E90010 		strd	r1, r0, [r3]
 133:D:/fchai/work/i-cube/I-CUBE-HUAWEI/Middlewares/Third_Party/Huawei/iot_link/os/liteos/include\los_list.h ****     pstList->pstNext = pstNode;
 142              		.loc 2 133 5 is_stmt 1 discriminator 3 view .LVU38
 133:D:/fchai/work/i-cube/I-CUBE-HUAWEI/Middlewares/Third_Party/Huawei/iot_link/os/liteos/include\los_list.h ****     pstList->pstNext = pstNode;
 143              		.loc 2 133 31 is_stmt 0 discriminator 3 view .LVU39
 144 0036 0360     		str	r3, [r0]
 134:D:/fchai/work/i-cube/I-CUBE-HUAWEI/Middlewares/Third_Party/Huawei/iot_link/os/liteos/include\los_list.h **** }
 145              		.loc 2 134 5 is_stmt 1 discriminator 3 view .LVU40
 134:D:/fchai/work/i-cube/I-CUBE-HUAWEI/Middlewares/Third_Party/Huawei/iot_link/os/liteos/include\los_list.h **** }
 146              		.loc 2 134 22 is_stmt 0 discriminator 3 view .LVU41
 147 0038 4B60     		str	r3, [r1, #4]
 148              	.LVL6:
 134:D:/fchai/work/i-cube/I-CUBE-HUAWEI/Middlewares/Third_Party/Huawei/iot_link/os/liteos/include\los_list.h **** }
 149              		.loc 2 134 22 discriminator 3 view .LVU42
 150              	.LBE36:
 151              	.LBE38:
 152              	.LBE41:
  84:D:/fchai/work/i-cube/I-CUBE-HUAWEI/Middlewares/Third_Party/Huawei/iot_link/os/liteos/base/ipc\los_sem.c ****     {
 153              		.loc 1 84 60 is_stmt 1 discriminator 3 view .LVU43
  84:D:/fchai/work/i-cube/I-CUBE-HUAWEI/Middlewares/Third_Party/Huawei/iot_link/os/liteos/base/ipc\los_sem.c ****     {
 154              		.loc 1 84 23 discriminator 3 view .LVU44
 155 003a 03F11003 		add	r3, r3, #16
 156              	.LVL7:
  84:D:/fchai/work/i-cube/I-CUBE-HUAWEI/Middlewares/Third_Party/Huawei/iot_link/os/liteos/base/ipc\los_sem.c ****     {
 157              		.loc 1 84 5 is_stmt 0 discriminator 3 view .LVU45
 158 003e F0D1     		bne	.L3
  90:D:/fchai/work/i-cube/I-CUBE-HUAWEI/Middlewares/Third_Party/Huawei/iot_link/os/liteos/base/ipc\los_sem.c ****     }
  91:D:/fchai/work/i-cube/I-CUBE-HUAWEI/Middlewares/Third_Party/Huawei/iot_link/os/liteos/base/ipc\los_sem.c ****     return LOS_OK;
 159              		.loc 1 91 12 view .LVU46
 160 0040 0020     		movs	r0, #0
  92:D:/fchai/work/i-cube/I-CUBE-HUAWEI/Middlewares/Third_Party/Huawei/iot_link/os/liteos/base/ipc\los_sem.c **** }
 161              		.loc 1 92 1 view .LVU47
 162 0042 38BD     		pop	{r3, r4, r5, pc}
 163              	.LVL8:
 164              	.L4:
  80:D:/fchai/work/i-cube/I-CUBE-HUAWEI/Middlewares/Third_Party/Huawei/iot_link/os/liteos/base/ipc\los_sem.c ****     }
 165              		.loc 1 80 16 view .LVU48
 166 0044 0348     		ldr	r0, .L8+12
 167              		.loc 1 92 1 view .LVU49
 168 0046 38BD     		pop	{r3, r4, r5, pc}
 169              	.L9:
 170              		.align	2
 171              	.L8:
 172 0048 00000000 		.word	m_aucSysMem0
 173 004c 00000000 		.word	g_stUnusedSemList
 174 0050 00000000 		.word	g_pstAllSem
 175 0054 00070002 		.word	33556224
 176              		.cfi_endproc
 177              	.LFE135:
 179              		.section	.rodata.osSemCreate.str1.4,"aMS",%progbits,1
 180              		.align	2
 181              	.LC0:
 182 0000 6F735F75 		.ascii	"os_unspecific_file\000"
 182      6E737065 
 182      63696669 
 182      635F6669 
 182      6C6500
ARM GAS  T:\msys\tmp\ccvZtYVf.s 			page 9


 183              		.section	.text.osSemCreate,"ax",%progbits
 184              		.align	1
 185              		.p2align 2,,3
 186              		.global	osSemCreate
 187              		.syntax unified
 188              		.thumb
 189              		.thumb_func
 190              		.fpu fpv4-sp-d16
 192              	osSemCreate:
 193              	.LVL9:
 194              	.LFB136:
  93:D:/fchai/work/i-cube/I-CUBE-HUAWEI/Middlewares/Third_Party/Huawei/iot_link/os/liteos/base/ipc\los_sem.c **** 
  94:D:/fchai/work/i-cube/I-CUBE-HUAWEI/Middlewares/Third_Party/Huawei/iot_link/os/liteos/base/ipc\los_sem.c **** 
  95:D:/fchai/work/i-cube/I-CUBE-HUAWEI/Middlewares/Third_Party/Huawei/iot_link/os/liteos/base/ipc\los_sem.c **** /*****************************************************************************
  96:D:/fchai/work/i-cube/I-CUBE-HUAWEI/Middlewares/Third_Party/Huawei/iot_link/os/liteos/base/ipc\los_sem.c ****  Function     : osSemCreate
  97:D:/fchai/work/i-cube/I-CUBE-HUAWEI/Middlewares/Third_Party/Huawei/iot_link/os/liteos/base/ipc\los_sem.c ****  Description  : create the  Semaphore
  98:D:/fchai/work/i-cube/I-CUBE-HUAWEI/Middlewares/Third_Party/Huawei/iot_link/os/liteos/base/ipc\los_sem.c ****  Input        : None,
  99:D:/fchai/work/i-cube/I-CUBE-HUAWEI/Middlewares/Third_Party/Huawei/iot_link/os/liteos/base/ipc\los_sem.c ****  Output       : None,
 100:D:/fchai/work/i-cube/I-CUBE-HUAWEI/Middlewares/Third_Party/Huawei/iot_link/os/liteos/base/ipc\los_sem.c ****  Return       : LOS_OK on success ,or error code on failure
 101:D:/fchai/work/i-cube/I-CUBE-HUAWEI/Middlewares/Third_Party/Huawei/iot_link/os/liteos/base/ipc\los_sem.c ****  *****************************************************************************/
 102:D:/fchai/work/i-cube/I-CUBE-HUAWEI/Middlewares/Third_Party/Huawei/iot_link/os/liteos/base/ipc\los_sem.c **** LITE_OS_SEC_TEXT_INIT UINT32 osSemCreate (UINT16 usCount, UINT16 usMaxCount, UINT32 *puwSemHandle)
 103:D:/fchai/work/i-cube/I-CUBE-HUAWEI/Middlewares/Third_Party/Huawei/iot_link/os/liteos/base/ipc\los_sem.c **** {
 195              		.loc 1 103 1 is_stmt 1 view -0
 196              		.cfi_startproc
 197              		@ args = 0, pretend = 0, frame = 0
 198              		@ frame_needed = 0, uses_anonymous_args = 0
 104:D:/fchai/work/i-cube/I-CUBE-HUAWEI/Middlewares/Third_Party/Huawei/iot_link/os/liteos/base/ipc\los_sem.c ****     UINT32      uwIntSave;
 199              		.loc 1 104 5 view .LVU51
 105:D:/fchai/work/i-cube/I-CUBE-HUAWEI/Middlewares/Third_Party/Huawei/iot_link/os/liteos/base/ipc\los_sem.c ****     SEM_CB_S    *pstSemCreated;
 200              		.loc 1 105 5 view .LVU52
 106:D:/fchai/work/i-cube/I-CUBE-HUAWEI/Middlewares/Third_Party/Huawei/iot_link/os/liteos/base/ipc\los_sem.c ****     LOS_DL_LIST *pstUnusedSem;
 201              		.loc 1 106 5 view .LVU53
 107:D:/fchai/work/i-cube/I-CUBE-HUAWEI/Middlewares/Third_Party/Huawei/iot_link/os/liteos/base/ipc\los_sem.c ****     UINT32      uwErrNo;
 202              		.loc 1 107 5 view .LVU54
 108:D:/fchai/work/i-cube/I-CUBE-HUAWEI/Middlewares/Third_Party/Huawei/iot_link/os/liteos/base/ipc\los_sem.c ****     UINT32      uwErrLine;
 203              		.loc 1 108 5 view .LVU55
 109:D:/fchai/work/i-cube/I-CUBE-HUAWEI/Middlewares/Third_Party/Huawei/iot_link/os/liteos/base/ipc\los_sem.c **** 
 110:D:/fchai/work/i-cube/I-CUBE-HUAWEI/Middlewares/Third_Party/Huawei/iot_link/os/liteos/base/ipc\los_sem.c ****     if (NULL == puwSemHandle)
 204              		.loc 1 110 5 view .LVU56
 103:D:/fchai/work/i-cube/I-CUBE-HUAWEI/Middlewares/Third_Party/Huawei/iot_link/os/liteos/base/ipc\los_sem.c ****     UINT32      uwIntSave;
 205              		.loc 1 103 1 is_stmt 0 view .LVU57
 206 0000 F0B5     		push	{r4, r5, r6, r7, lr}
 207              	.LCFI1:
 208              		.cfi_def_cfa_offset 20
 209              		.cfi_offset 4, -20
 210              		.cfi_offset 5, -16
 211              		.cfi_offset 6, -12
 212              		.cfi_offset 7, -8
 213              		.cfi_offset 14, -4
 214 0002 83B0     		sub	sp, sp, #12
 215              	.LCFI2:
 216              		.cfi_def_cfa_offset 32
 217              		.loc 1 110 8 view .LVU58
 218 0004 5AB3     		cbz	r2, .L14
 111:D:/fchai/work/i-cube/I-CUBE-HUAWEI/Middlewares/Third_Party/Huawei/iot_link/os/liteos/base/ipc\los_sem.c ****     {
 112:D:/fchai/work/i-cube/I-CUBE-HUAWEI/Middlewares/Third_Party/Huawei/iot_link/os/liteos/base/ipc\los_sem.c ****         return LOS_ERRNO_SEM_PTR_NULL;
 113:D:/fchai/work/i-cube/I-CUBE-HUAWEI/Middlewares/Third_Party/Huawei/iot_link/os/liteos/base/ipc\los_sem.c ****     }
ARM GAS  T:\msys\tmp\ccvZtYVf.s 			page 10


 114:D:/fchai/work/i-cube/I-CUBE-HUAWEI/Middlewares/Third_Party/Huawei/iot_link/os/liteos/base/ipc\los_sem.c **** 
 115:D:/fchai/work/i-cube/I-CUBE-HUAWEI/Middlewares/Third_Party/Huawei/iot_link/os/liteos/base/ipc\los_sem.c ****     if (usCount > usMaxCount)
 219              		.loc 1 115 8 view .LVU59
 220 0006 8842     		cmp	r0, r1
 221 0008 0646     		mov	r6, r0
 222 000a 0D46     		mov	r5, r1
 223              		.loc 1 115 5 is_stmt 1 view .LVU60
 224              		.loc 1 115 8 is_stmt 0 view .LVU61
 225 000c 0AD9     		bls	.L17
 116:D:/fchai/work/i-cube/I-CUBE-HUAWEI/Middlewares/Third_Party/Huawei/iot_link/os/liteos/base/ipc\los_sem.c ****     {
 117:D:/fchai/work/i-cube/I-CUBE-HUAWEI/Middlewares/Third_Party/Huawei/iot_link/os/liteos/base/ipc\los_sem.c ****         OS_GOTO_ERR_HANDLER(LOS_ERRNO_SEM_OVERFLOW);
 226              		.loc 1 117 9 view .LVU62
 227 000e 184C     		ldr	r4, .L19
 228              	.LVL10:
 229              	.L12:
 118:D:/fchai/work/i-cube/I-CUBE-HUAWEI/Middlewares/Third_Party/Huawei/iot_link/os/liteos/base/ipc\los_sem.c ****     }
 119:D:/fchai/work/i-cube/I-CUBE-HUAWEI/Middlewares/Third_Party/Huawei/iot_link/os/liteos/base/ipc\los_sem.c **** 
 120:D:/fchai/work/i-cube/I-CUBE-HUAWEI/Middlewares/Third_Party/Huawei/iot_link/os/liteos/base/ipc\los_sem.c ****     uwIntSave = LOS_IntLock();
 121:D:/fchai/work/i-cube/I-CUBE-HUAWEI/Middlewares/Third_Party/Huawei/iot_link/os/liteos/base/ipc\los_sem.c **** 
 122:D:/fchai/work/i-cube/I-CUBE-HUAWEI/Middlewares/Third_Party/Huawei/iot_link/os/liteos/base/ipc\los_sem.c ****     if (LOS_ListEmpty(&g_stUnusedSemList))
 123:D:/fchai/work/i-cube/I-CUBE-HUAWEI/Middlewares/Third_Party/Huawei/iot_link/os/liteos/base/ipc\los_sem.c ****     {
 124:D:/fchai/work/i-cube/I-CUBE-HUAWEI/Middlewares/Third_Party/Huawei/iot_link/os/liteos/base/ipc\los_sem.c ****         LOS_IntRestore(uwIntSave);
 125:D:/fchai/work/i-cube/I-CUBE-HUAWEI/Middlewares/Third_Party/Huawei/iot_link/os/liteos/base/ipc\los_sem.c ****         OS_GOTO_ERR_HANDLER(LOS_ERRNO_SEM_ALL_BUSY);
 126:D:/fchai/work/i-cube/I-CUBE-HUAWEI/Middlewares/Third_Party/Huawei/iot_link/os/liteos/base/ipc\los_sem.c ****     }
 127:D:/fchai/work/i-cube/I-CUBE-HUAWEI/Middlewares/Third_Party/Huawei/iot_link/os/liteos/base/ipc\los_sem.c **** 
 128:D:/fchai/work/i-cube/I-CUBE-HUAWEI/Middlewares/Third_Party/Huawei/iot_link/os/liteos/base/ipc\los_sem.c ****     pstUnusedSem = LOS_DL_LIST_FIRST(&(g_stUnusedSemList));
 129:D:/fchai/work/i-cube/I-CUBE-HUAWEI/Middlewares/Third_Party/Huawei/iot_link/os/liteos/base/ipc\los_sem.c ****     LOS_ListDelete(pstUnusedSem);
 130:D:/fchai/work/i-cube/I-CUBE-HUAWEI/Middlewares/Third_Party/Huawei/iot_link/os/liteos/base/ipc\los_sem.c ****     pstSemCreated = (GET_SEM_LIST(pstUnusedSem)); /*lint !e413*/
 131:D:/fchai/work/i-cube/I-CUBE-HUAWEI/Middlewares/Third_Party/Huawei/iot_link/os/liteos/base/ipc\los_sem.c ****     pstSemCreated->usSemCount = usCount;
 132:D:/fchai/work/i-cube/I-CUBE-HUAWEI/Middlewares/Third_Party/Huawei/iot_link/os/liteos/base/ipc\los_sem.c ****     pstSemCreated->usSemStat = OS_SEM_USED;
 133:D:/fchai/work/i-cube/I-CUBE-HUAWEI/Middlewares/Third_Party/Huawei/iot_link/os/liteos/base/ipc\los_sem.c ****     pstSemCreated->usMaxSemCount = usMaxCount;
 134:D:/fchai/work/i-cube/I-CUBE-HUAWEI/Middlewares/Third_Party/Huawei/iot_link/os/liteos/base/ipc\los_sem.c ****     LOS_ListInit(&pstSemCreated->stSemList);
 135:D:/fchai/work/i-cube/I-CUBE-HUAWEI/Middlewares/Third_Party/Huawei/iot_link/os/liteos/base/ipc\los_sem.c ****     *puwSemHandle = (UINT32)pstSemCreated->usSemID;
 136:D:/fchai/work/i-cube/I-CUBE-HUAWEI/Middlewares/Third_Party/Huawei/iot_link/os/liteos/base/ipc\los_sem.c ****     LOS_IntRestore(uwIntSave);
 137:D:/fchai/work/i-cube/I-CUBE-HUAWEI/Middlewares/Third_Party/Huawei/iot_link/os/liteos/base/ipc\los_sem.c ****     return LOS_OK;
 138:D:/fchai/work/i-cube/I-CUBE-HUAWEI/Middlewares/Third_Party/Huawei/iot_link/os/liteos/base/ipc\los_sem.c **** 
 139:D:/fchai/work/i-cube/I-CUBE-HUAWEI/Middlewares/Third_Party/Huawei/iot_link/os/liteos/base/ipc\los_sem.c **** ErrHandler:
 140:D:/fchai/work/i-cube/I-CUBE-HUAWEI/Middlewares/Third_Party/Huawei/iot_link/os/liteos/base/ipc\los_sem.c ****     OS_RETURN_ERROR_P2(uwErrLine, uwErrNo);
 230              		.loc 1 140 5 is_stmt 1 view .LVU63
 231              		.loc 1 140 5 view .LVU64
 232 0010 1849     		ldr	r1, .L19+4
 233 0012 1948     		ldr	r0, .L19+8
 234 0014 0023     		movs	r3, #0
 235 0016 0093     		str	r3, [sp]
 236 0018 2246     		mov	r2, r4
 237 001a FFF7FEFF 		bl	LOS_ErrHandle
 238              	.LVL11:
 239              		.loc 1 140 5 view .LVU65
 141:D:/fchai/work/i-cube/I-CUBE-HUAWEI/Middlewares/Third_Party/Huawei/iot_link/os/liteos/base/ipc\los_sem.c **** }
 240              		.loc 1 141 1 is_stmt 0 view .LVU66
 241 001e 2046     		mov	r0, r4
 242 0020 03B0     		add	sp, sp, #12
 243              	.LCFI3:
 244              		.cfi_remember_state
 245              		.cfi_def_cfa_offset 20
 246              		@ sp needed
 247 0022 F0BD     		pop	{r4, r5, r6, r7, pc}
ARM GAS  T:\msys\tmp\ccvZtYVf.s 			page 11


 248              	.LVL12:
 249              	.L17:
 250              	.LCFI4:
 251              		.cfi_restore_state
 252              		.loc 1 141 1 view .LVU67
 253 0024 1446     		mov	r4, r2
 117:D:/fchai/work/i-cube/I-CUBE-HUAWEI/Middlewares/Third_Party/Huawei/iot_link/os/liteos/base/ipc\los_sem.c ****     }
 254              		.loc 1 117 9 is_stmt 1 view .LVU68
 120:D:/fchai/work/i-cube/I-CUBE-HUAWEI/Middlewares/Third_Party/Huawei/iot_link/os/liteos/base/ipc\los_sem.c **** 
 255              		.loc 1 120 5 view .LVU69
 120:D:/fchai/work/i-cube/I-CUBE-HUAWEI/Middlewares/Third_Party/Huawei/iot_link/os/liteos/base/ipc\los_sem.c **** 
 256              		.loc 1 120 17 is_stmt 0 view .LVU70
 257 0026 FFF7FEFF 		bl	LOS_IntLock
 258              	.LVL13:
 122:D:/fchai/work/i-cube/I-CUBE-HUAWEI/Middlewares/Third_Party/Huawei/iot_link/os/liteos/base/ipc\los_sem.c ****     {
 259              		.loc 1 122 5 is_stmt 1 view .LVU71
 260              	.LBB42:
 261              	.LBI42:
 160:D:/fchai/work/i-cube/I-CUBE-HUAWEI/Middlewares/Third_Party/Huawei/iot_link/os/liteos/include\los_list.h **** }
 161:D:/fchai/work/i-cube/I-CUBE-HUAWEI/Middlewares/Third_Party/Huawei/iot_link/os/liteos/include\los_list.h **** 
 162:D:/fchai/work/i-cube/I-CUBE-HUAWEI/Middlewares/Third_Party/Huawei/iot_link/os/liteos/include\los_list.h **** /**
 163:D:/fchai/work/i-cube/I-CUBE-HUAWEI/Middlewares/Third_Party/Huawei/iot_link/os/liteos/include\los_list.h ****  *@ingroup los_list
 164:D:/fchai/work/i-cube/I-CUBE-HUAWEI/Middlewares/Third_Party/Huawei/iot_link/os/liteos/include\los_list.h ****  *@brief Delete a specified node from a doubly linked list.
 165:D:/fchai/work/i-cube/I-CUBE-HUAWEI/Middlewares/Third_Party/Huawei/iot_link/os/liteos/include\los_list.h ****  *
 166:D:/fchai/work/i-cube/I-CUBE-HUAWEI/Middlewares/Third_Party/Huawei/iot_link/os/liteos/include\los_list.h ****  *@par Description:
 167:D:/fchai/work/i-cube/I-CUBE-HUAWEI/Middlewares/Third_Party/Huawei/iot_link/os/liteos/include\los_list.h ****  *<ul>
 168:D:/fchai/work/i-cube/I-CUBE-HUAWEI/Middlewares/Third_Party/Huawei/iot_link/os/liteos/include\los_list.h ****  *<li>This API is used to delete a specified node from a doubly linked list.</li>
 169:D:/fchai/work/i-cube/I-CUBE-HUAWEI/Middlewares/Third_Party/Huawei/iot_link/os/liteos/include\los_list.h ****  *</ul>
 170:D:/fchai/work/i-cube/I-CUBE-HUAWEI/Middlewares/Third_Party/Huawei/iot_link/os/liteos/include\los_list.h ****  *@attention
 171:D:/fchai/work/i-cube/I-CUBE-HUAWEI/Middlewares/Third_Party/Huawei/iot_link/os/liteos/include\los_list.h ****  *<ul>
 172:D:/fchai/work/i-cube/I-CUBE-HUAWEI/Middlewares/Third_Party/Huawei/iot_link/os/liteos/include\los_list.h ****  *<li>The parameter passed in should be ensured to be a legal pointer.</li>
 173:D:/fchai/work/i-cube/I-CUBE-HUAWEI/Middlewares/Third_Party/Huawei/iot_link/os/liteos/include\los_list.h ****  *</ul>
 174:D:/fchai/work/i-cube/I-CUBE-HUAWEI/Middlewares/Third_Party/Huawei/iot_link/os/liteos/include\los_list.h ****  *
 175:D:/fchai/work/i-cube/I-CUBE-HUAWEI/Middlewares/Third_Party/Huawei/iot_link/os/liteos/include\los_list.h ****  *@param pstNode    [IN] Node to be deleted.
 176:D:/fchai/work/i-cube/I-CUBE-HUAWEI/Middlewares/Third_Party/Huawei/iot_link/os/liteos/include\los_list.h ****  *
 177:D:/fchai/work/i-cube/I-CUBE-HUAWEI/Middlewares/Third_Party/Huawei/iot_link/os/liteos/include\los_list.h ****  *@retval None.
 178:D:/fchai/work/i-cube/I-CUBE-HUAWEI/Middlewares/Third_Party/Huawei/iot_link/os/liteos/include\los_list.h ****  *@par Dependency:
 179:D:/fchai/work/i-cube/I-CUBE-HUAWEI/Middlewares/Third_Party/Huawei/iot_link/os/liteos/include\los_list.h ****  *<ul><li>los_list.h: the header file that contains the API declaration.</li></ul>
 180:D:/fchai/work/i-cube/I-CUBE-HUAWEI/Middlewares/Third_Party/Huawei/iot_link/os/liteos/include\los_list.h ****  *@see LOS_ListAdd
 181:D:/fchai/work/i-cube/I-CUBE-HUAWEI/Middlewares/Third_Party/Huawei/iot_link/os/liteos/include\los_list.h ****  *@since Huawei LiteOS V100R001C00
 182:D:/fchai/work/i-cube/I-CUBE-HUAWEI/Middlewares/Third_Party/Huawei/iot_link/os/liteos/include\los_list.h ****  */
 183:D:/fchai/work/i-cube/I-CUBE-HUAWEI/Middlewares/Third_Party/Huawei/iot_link/os/liteos/include\los_list.h **** LITE_OS_SEC_ALW_INLINE STATIC_INLINE VOID LOS_ListDelete(LOS_DL_LIST *pstNode)
 184:D:/fchai/work/i-cube/I-CUBE-HUAWEI/Middlewares/Third_Party/Huawei/iot_link/os/liteos/include\los_list.h **** {
 185:D:/fchai/work/i-cube/I-CUBE-HUAWEI/Middlewares/Third_Party/Huawei/iot_link/os/liteos/include\los_list.h ****     pstNode->pstNext->pstPrev = pstNode->pstPrev;
 186:D:/fchai/work/i-cube/I-CUBE-HUAWEI/Middlewares/Third_Party/Huawei/iot_link/os/liteos/include\los_list.h ****     pstNode->pstPrev->pstNext = pstNode->pstNext;
 187:D:/fchai/work/i-cube/I-CUBE-HUAWEI/Middlewares/Third_Party/Huawei/iot_link/os/liteos/include\los_list.h ****     pstNode->pstNext = (LOS_DL_LIST *)NULL;
 188:D:/fchai/work/i-cube/I-CUBE-HUAWEI/Middlewares/Third_Party/Huawei/iot_link/os/liteos/include\los_list.h ****     pstNode->pstPrev = (LOS_DL_LIST *)NULL;
 189:D:/fchai/work/i-cube/I-CUBE-HUAWEI/Middlewares/Third_Party/Huawei/iot_link/os/liteos/include\los_list.h **** }
 190:D:/fchai/work/i-cube/I-CUBE-HUAWEI/Middlewares/Third_Party/Huawei/iot_link/os/liteos/include\los_list.h **** 
 191:D:/fchai/work/i-cube/I-CUBE-HUAWEI/Middlewares/Third_Party/Huawei/iot_link/os/liteos/include\los_list.h **** /**
 192:D:/fchai/work/i-cube/I-CUBE-HUAWEI/Middlewares/Third_Party/Huawei/iot_link/os/liteos/include\los_list.h ****  *@ingroup los_list
 193:D:/fchai/work/i-cube/I-CUBE-HUAWEI/Middlewares/Third_Party/Huawei/iot_link/os/liteos/include\los_list.h ****  *@brief Identify whether a specified doubly linked list is empty.
 194:D:/fchai/work/i-cube/I-CUBE-HUAWEI/Middlewares/Third_Party/Huawei/iot_link/os/liteos/include\los_list.h ****  *
 195:D:/fchai/work/i-cube/I-CUBE-HUAWEI/Middlewares/Third_Party/Huawei/iot_link/os/liteos/include\los_list.h ****  *@par Description:
 196:D:/fchai/work/i-cube/I-CUBE-HUAWEI/Middlewares/Third_Party/Huawei/iot_link/os/liteos/include\los_list.h ****  *<ul>
 197:D:/fchai/work/i-cube/I-CUBE-HUAWEI/Middlewares/Third_Party/Huawei/iot_link/os/liteos/include\los_list.h ****  *<li>This API is used to return whether a doubly linked list is empty.</li>
 198:D:/fchai/work/i-cube/I-CUBE-HUAWEI/Middlewares/Third_Party/Huawei/iot_link/os/liteos/include\los_list.h ****  *</ul>
ARM GAS  T:\msys\tmp\ccvZtYVf.s 			page 12


 199:D:/fchai/work/i-cube/I-CUBE-HUAWEI/Middlewares/Third_Party/Huawei/iot_link/os/liteos/include\los_list.h ****  *@attention
 200:D:/fchai/work/i-cube/I-CUBE-HUAWEI/Middlewares/Third_Party/Huawei/iot_link/os/liteos/include\los_list.h ****  *<ul>
 201:D:/fchai/work/i-cube/I-CUBE-HUAWEI/Middlewares/Third_Party/Huawei/iot_link/os/liteos/include\los_list.h ****  *<li>The parameter passed in should be ensured to be a legal pointer.</li>
 202:D:/fchai/work/i-cube/I-CUBE-HUAWEI/Middlewares/Third_Party/Huawei/iot_link/os/liteos/include\los_list.h ****  *</ul>
 203:D:/fchai/work/i-cube/I-CUBE-HUAWEI/Middlewares/Third_Party/Huawei/iot_link/os/liteos/include\los_list.h ****  *
 204:D:/fchai/work/i-cube/I-CUBE-HUAWEI/Middlewares/Third_Party/Huawei/iot_link/os/liteos/include\los_list.h ****  *@param pstList  [IN] Doubly linked list.
 205:D:/fchai/work/i-cube/I-CUBE-HUAWEI/Middlewares/Third_Party/Huawei/iot_link/os/liteos/include\los_list.h ****  *
 206:D:/fchai/work/i-cube/I-CUBE-HUAWEI/Middlewares/Third_Party/Huawei/iot_link/os/liteos/include\los_list.h ****  *@retval TRUE The doubly linked list is empty.
 207:D:/fchai/work/i-cube/I-CUBE-HUAWEI/Middlewares/Third_Party/Huawei/iot_link/os/liteos/include\los_list.h ****  *@retval FALSE The doubly linked list is not empty.
 208:D:/fchai/work/i-cube/I-CUBE-HUAWEI/Middlewares/Third_Party/Huawei/iot_link/os/liteos/include\los_list.h ****  *@par Dependency:
 209:D:/fchai/work/i-cube/I-CUBE-HUAWEI/Middlewares/Third_Party/Huawei/iot_link/os/liteos/include\los_list.h ****  *<ul><li>los_list.h: the header file that contains the API declaration.</li></ul>
 210:D:/fchai/work/i-cube/I-CUBE-HUAWEI/Middlewares/Third_Party/Huawei/iot_link/os/liteos/include\los_list.h ****  *@see
 211:D:/fchai/work/i-cube/I-CUBE-HUAWEI/Middlewares/Third_Party/Huawei/iot_link/os/liteos/include\los_list.h ****  *@since Huawei LiteOS V100R001C00
 212:D:/fchai/work/i-cube/I-CUBE-HUAWEI/Middlewares/Third_Party/Huawei/iot_link/os/liteos/include\los_list.h ****  */
 213:D:/fchai/work/i-cube/I-CUBE-HUAWEI/Middlewares/Third_Party/Huawei/iot_link/os/liteos/include\los_list.h **** LITE_OS_SEC_ALW_INLINE STATIC_INLINE BOOL LOS_ListEmpty(LOS_DL_LIST *pstNode)
 262              		.loc 2 213 43 view .LVU72
 263              	.LBB43:
 214:D:/fchai/work/i-cube/I-CUBE-HUAWEI/Middlewares/Third_Party/Huawei/iot_link/os/liteos/include\los_list.h **** {
 215:D:/fchai/work/i-cube/I-CUBE-HUAWEI/Middlewares/Third_Party/Huawei/iot_link/os/liteos/include\los_list.h ****     return (BOOL)(pstNode->pstNext == pstNode);
 264              		.loc 2 215 5 view .LVU73
 265              		.loc 2 215 26 is_stmt 0 view .LVU74
 266 002a 144A     		ldr	r2, .L19+12
 267 002c 5368     		ldr	r3, [r2, #4]
 268              	.LVL14:
 269              		.loc 2 215 26 view .LVU75
 270              	.LBE43:
 271              	.LBE42:
 122:D:/fchai/work/i-cube/I-CUBE-HUAWEI/Middlewares/Third_Party/Huawei/iot_link/os/liteos/base/ipc\los_sem.c ****     {
 272              		.loc 1 122 8 view .LVU76
 273 002e 9342     		cmp	r3, r2
 274 0030 19D0     		beq	.L18
 125:D:/fchai/work/i-cube/I-CUBE-HUAWEI/Middlewares/Third_Party/Huawei/iot_link/os/liteos/base/ipc\los_sem.c ****     }
 275              		.loc 1 125 9 is_stmt 1 view .LVU77
 128:D:/fchai/work/i-cube/I-CUBE-HUAWEI/Middlewares/Third_Party/Huawei/iot_link/os/liteos/base/ipc\los_sem.c ****     LOS_ListDelete(pstUnusedSem);
 276              		.loc 1 128 5 view .LVU78
 277              	.LVL15:
 129:D:/fchai/work/i-cube/I-CUBE-HUAWEI/Middlewares/Third_Party/Huawei/iot_link/os/liteos/base/ipc\los_sem.c ****     pstSemCreated = (GET_SEM_LIST(pstUnusedSem)); /*lint !e413*/
 278              		.loc 1 129 5 view .LVU79
 279              	.LBB44:
 280              	.LBI44:
 183:D:/fchai/work/i-cube/I-CUBE-HUAWEI/Middlewares/Third_Party/Huawei/iot_link/os/liteos/include\los_list.h **** {
 281              		.loc 2 183 43 view .LVU80
 282              	.LBB45:
 185:D:/fchai/work/i-cube/I-CUBE-HUAWEI/Middlewares/Third_Party/Huawei/iot_link/os/liteos/include\los_list.h ****     pstNode->pstPrev->pstNext = pstNode->pstNext;
 283              		.loc 2 185 5 view .LVU81
 185:D:/fchai/work/i-cube/I-CUBE-HUAWEI/Middlewares/Third_Party/Huawei/iot_link/os/liteos/include\los_list.h ****     pstNode->pstPrev->pstNext = pstNode->pstNext;
 284              		.loc 2 185 40 is_stmt 0 view .LVU82
 285 0032 D3E90021 		ldrd	r2, r1, [r3]
 286              	.LBE45:
 287              	.LBE44:
 135:D:/fchai/work/i-cube/I-CUBE-HUAWEI/Middlewares/Third_Party/Huawei/iot_link/os/liteos/base/ipc\los_sem.c ****     LOS_IntRestore(uwIntSave);
 288              		.loc 1 135 21 view .LVU83
 289 0036 33F8027C 		ldrh	r7, [r3, #-2]
 290              	.LBB47:
 291              	.LBB46:
 185:D:/fchai/work/i-cube/I-CUBE-HUAWEI/Middlewares/Third_Party/Huawei/iot_link/os/liteos/include\los_list.h ****     pstNode->pstPrev->pstNext = pstNode->pstNext;
 292              		.loc 2 185 31 view .LVU84
ARM GAS  T:\msys\tmp\ccvZtYVf.s 			page 13


 293 003a 0A60     		str	r2, [r1]
 186:D:/fchai/work/i-cube/I-CUBE-HUAWEI/Middlewares/Third_Party/Huawei/iot_link/os/liteos/include\los_list.h ****     pstNode->pstNext = (LOS_DL_LIST *)NULL;
 294              		.loc 2 186 5 is_stmt 1 view .LVU85
 186:D:/fchai/work/i-cube/I-CUBE-HUAWEI/Middlewares/Third_Party/Huawei/iot_link/os/liteos/include\los_list.h ****     pstNode->pstNext = (LOS_DL_LIST *)NULL;
 295              		.loc 2 186 31 is_stmt 0 view .LVU86
 296 003c 5160     		str	r1, [r2, #4]
 187:D:/fchai/work/i-cube/I-CUBE-HUAWEI/Middlewares/Third_Party/Huawei/iot_link/os/liteos/include\los_list.h ****     pstNode->pstPrev = (LOS_DL_LIST *)NULL;
 297              		.loc 2 187 5 is_stmt 1 view .LVU87
 188:D:/fchai/work/i-cube/I-CUBE-HUAWEI/Middlewares/Third_Party/Huawei/iot_link/os/liteos/include\los_list.h **** }
 298              		.loc 2 188 5 view .LVU88
 299              	.LBE46:
 300              	.LBE47:
 130:D:/fchai/work/i-cube/I-CUBE-HUAWEI/Middlewares/Third_Party/Huawei/iot_link/os/liteos/base/ipc\los_sem.c ****     pstSemCreated->usSemCount = usCount;
 301              		.loc 1 130 5 view .LVU89
 302              	.LVL16:
 131:D:/fchai/work/i-cube/I-CUBE-HUAWEI/Middlewares/Third_Party/Huawei/iot_link/os/liteos/base/ipc\los_sem.c ****     pstSemCreated->usSemStat = OS_SEM_USED;
 303              		.loc 1 131 5 view .LVU90
 132:D:/fchai/work/i-cube/I-CUBE-HUAWEI/Middlewares/Third_Party/Huawei/iot_link/os/liteos/base/ipc\los_sem.c ****     pstSemCreated->usMaxSemCount = usMaxCount;
 304              		.loc 1 132 30 is_stmt 0 view .LVU91
 305 003e 0122     		movs	r2, #1
 306              	.LBB48:
 307              	.LBB49:
  83:D:/fchai/work/i-cube/I-CUBE-HUAWEI/Middlewares/Third_Party/Huawei/iot_link/os/liteos/include\los_list.h **** }
 308              		.loc 2 83 22 view .LVU92
 309 0040 C3E90033 		strd	r3, r3, [r3]
 310              	.LBE49:
 311              	.LBE48:
 131:D:/fchai/work/i-cube/I-CUBE-HUAWEI/Middlewares/Third_Party/Huawei/iot_link/os/liteos/base/ipc\los_sem.c ****     pstSemCreated->usSemStat = OS_SEM_USED;
 312              		.loc 1 131 31 view .LVU93
 313 0044 23F8066C 		strh	r6, [r3, #-6]	@ movhi
 132:D:/fchai/work/i-cube/I-CUBE-HUAWEI/Middlewares/Third_Party/Huawei/iot_link/os/liteos/base/ipc\los_sem.c ****     pstSemCreated->usMaxSemCount = usMaxCount;
 314              		.loc 1 132 5 is_stmt 1 view .LVU94
 133:D:/fchai/work/i-cube/I-CUBE-HUAWEI/Middlewares/Third_Party/Huawei/iot_link/os/liteos/base/ipc\los_sem.c ****     LOS_ListInit(&pstSemCreated->stSemList);
 315              		.loc 1 133 34 is_stmt 0 view .LVU95
 316 0048 23F8045C 		strh	r5, [r3, #-4]	@ movhi
 132:D:/fchai/work/i-cube/I-CUBE-HUAWEI/Middlewares/Third_Party/Huawei/iot_link/os/liteos/base/ipc\los_sem.c ****     pstSemCreated->usMaxSemCount = usMaxCount;
 317              		.loc 1 132 30 view .LVU96
 318 004c 23F8082C 		strh	r2, [r3, #-8]	@ movhi
 133:D:/fchai/work/i-cube/I-CUBE-HUAWEI/Middlewares/Third_Party/Huawei/iot_link/os/liteos/base/ipc\los_sem.c ****     LOS_ListInit(&pstSemCreated->stSemList);
 319              		.loc 1 133 5 is_stmt 1 view .LVU97
 134:D:/fchai/work/i-cube/I-CUBE-HUAWEI/Middlewares/Third_Party/Huawei/iot_link/os/liteos/base/ipc\los_sem.c ****     *puwSemHandle = (UINT32)pstSemCreated->usSemID;
 320              		.loc 1 134 5 view .LVU98
 321              	.LVL17:
 322              	.LBB51:
 323              	.LBI48:
  80:D:/fchai/work/i-cube/I-CUBE-HUAWEI/Middlewares/Third_Party/Huawei/iot_link/os/liteos/include\los_list.h **** {
 324              		.loc 2 80 43 view .LVU99
 325              	.LBB50:
  82:D:/fchai/work/i-cube/I-CUBE-HUAWEI/Middlewares/Third_Party/Huawei/iot_link/os/liteos/include\los_list.h ****     pstList->pstPrev = pstList;
 326              		.loc 2 82 5 view .LVU100
  83:D:/fchai/work/i-cube/I-CUBE-HUAWEI/Middlewares/Third_Party/Huawei/iot_link/os/liteos/include\los_list.h **** }
 327              		.loc 2 83 5 view .LVU101
  83:D:/fchai/work/i-cube/I-CUBE-HUAWEI/Middlewares/Third_Party/Huawei/iot_link/os/liteos/include\los_list.h **** }
 328              		.loc 2 83 5 is_stmt 0 view .LVU102
 329              	.LBE50:
 330              	.LBE51:
 135:D:/fchai/work/i-cube/I-CUBE-HUAWEI/Middlewares/Third_Party/Huawei/iot_link/os/liteos/base/ipc\los_sem.c ****     LOS_IntRestore(uwIntSave);
ARM GAS  T:\msys\tmp\ccvZtYVf.s 			page 14


 331              		.loc 1 135 5 is_stmt 1 view .LVU103
 135:D:/fchai/work/i-cube/I-CUBE-HUAWEI/Middlewares/Third_Party/Huawei/iot_link/os/liteos/base/ipc\los_sem.c ****     LOS_IntRestore(uwIntSave);
 332              		.loc 1 135 21 is_stmt 0 view .LVU104
 333 0050 2760     		str	r7, [r4]
 136:D:/fchai/work/i-cube/I-CUBE-HUAWEI/Middlewares/Third_Party/Huawei/iot_link/os/liteos/base/ipc\los_sem.c ****     return LOS_OK;
 334              		.loc 1 136 5 is_stmt 1 view .LVU105
 335 0052 FFF7FEFF 		bl	LOS_IntRestore
 336              	.LVL18:
 137:D:/fchai/work/i-cube/I-CUBE-HUAWEI/Middlewares/Third_Party/Huawei/iot_link/os/liteos/base/ipc\los_sem.c **** 
 337              		.loc 1 137 5 view .LVU106
 137:D:/fchai/work/i-cube/I-CUBE-HUAWEI/Middlewares/Third_Party/Huawei/iot_link/os/liteos/base/ipc\los_sem.c **** 
 338              		.loc 1 137 12 is_stmt 0 view .LVU107
 339 0056 0024     		movs	r4, #0
 340              	.LVL19:
 341              		.loc 1 141 1 view .LVU108
 342 0058 2046     		mov	r0, r4
 343 005a 03B0     		add	sp, sp, #12
 344              	.LCFI5:
 345              		.cfi_remember_state
 346              		.cfi_def_cfa_offset 20
 347              		@ sp needed
 348 005c F0BD     		pop	{r4, r5, r6, r7, pc}
 349              	.LVL20:
 350              	.L14:
 351              	.LCFI6:
 352              		.cfi_restore_state
 112:D:/fchai/work/i-cube/I-CUBE-HUAWEI/Middlewares/Third_Party/Huawei/iot_link/os/liteos/base/ipc\los_sem.c ****     }
 353              		.loc 1 112 16 view .LVU109
 354 005e 084C     		ldr	r4, .L19+16
 140:D:/fchai/work/i-cube/I-CUBE-HUAWEI/Middlewares/Third_Party/Huawei/iot_link/os/liteos/base/ipc\los_sem.c **** }
 355              		.loc 1 140 5 is_stmt 1 view .LVU110
 356              		.loc 1 141 1 is_stmt 0 view .LVU111
 357 0060 2046     		mov	r0, r4
 358              	.LVL21:
 359              		.loc 1 141 1 view .LVU112
 360 0062 03B0     		add	sp, sp, #12
 361              	.LCFI7:
 362              		.cfi_remember_state
 363              		.cfi_def_cfa_offset 20
 364              		@ sp needed
 365 0064 F0BD     		pop	{r4, r5, r6, r7, pc}
 366              	.LVL22:
 367              	.L18:
 368              	.LCFI8:
 369              		.cfi_restore_state
 124:D:/fchai/work/i-cube/I-CUBE-HUAWEI/Middlewares/Third_Party/Huawei/iot_link/os/liteos/base/ipc\los_sem.c ****         OS_GOTO_ERR_HANDLER(LOS_ERRNO_SEM_ALL_BUSY);
 370              		.loc 1 124 9 is_stmt 1 view .LVU113
 371 0066 FFF7FEFF 		bl	LOS_IntRestore
 372              	.LVL23:
 125:D:/fchai/work/i-cube/I-CUBE-HUAWEI/Middlewares/Third_Party/Huawei/iot_link/os/liteos/base/ipc\los_sem.c ****     }
 373              		.loc 1 125 9 view .LVU114
 125:D:/fchai/work/i-cube/I-CUBE-HUAWEI/Middlewares/Third_Party/Huawei/iot_link/os/liteos/base/ipc\los_sem.c ****     }
 374              		.loc 1 125 9 view .LVU115
 125:D:/fchai/work/i-cube/I-CUBE-HUAWEI/Middlewares/Third_Party/Huawei/iot_link/os/liteos/base/ipc\los_sem.c ****     }
 375              		.loc 1 125 9 view .LVU116
 125:D:/fchai/work/i-cube/I-CUBE-HUAWEI/Middlewares/Third_Party/Huawei/iot_link/os/liteos/base/ipc\los_sem.c ****     }
 376              		.loc 1 125 9 view .LVU117
ARM GAS  T:\msys\tmp\ccvZtYVf.s 			page 15


 377 006a 064C     		ldr	r4, .L19+20
 378              	.LVL24:
 125:D:/fchai/work/i-cube/I-CUBE-HUAWEI/Middlewares/Third_Party/Huawei/iot_link/os/liteos/base/ipc\los_sem.c ****     }
 379              		.loc 1 125 9 is_stmt 0 view .LVU118
 380 006c D0E7     		b	.L12
 381              	.L20:
 382 006e 00BF     		.align	2
 383              	.L19:
 384 0070 08070002 		.word	33556232
 385 0074 F8C3B2A1 		.word	-1582119944
 386 0078 00000000 		.word	.LC0
 387 007c 00000000 		.word	g_stUnusedSemList
 388 0080 02070002 		.word	33556226
 389 0084 03070002 		.word	33556227
 390              		.cfi_endproc
 391              	.LFE136:
 393              		.section	.text.LOS_SemCreate,"ax",%progbits
 394              		.align	1
 395              		.p2align 2,,3
 396              		.global	LOS_SemCreate
 397              		.syntax unified
 398              		.thumb
 399              		.thumb_func
 400              		.fpu fpv4-sp-d16
 402              	LOS_SemCreate:
 403              	.LVL25:
 404              	.LFB137:
 142:D:/fchai/work/i-cube/I-CUBE-HUAWEI/Middlewares/Third_Party/Huawei/iot_link/os/liteos/base/ipc\los_sem.c **** 
 143:D:/fchai/work/i-cube/I-CUBE-HUAWEI/Middlewares/Third_Party/Huawei/iot_link/os/liteos/base/ipc\los_sem.c **** /*****************************************************************************
 144:D:/fchai/work/i-cube/I-CUBE-HUAWEI/Middlewares/Third_Party/Huawei/iot_link/os/liteos/base/ipc\los_sem.c ****  Function     : LOS_SemCreate
 145:D:/fchai/work/i-cube/I-CUBE-HUAWEI/Middlewares/Third_Party/Huawei/iot_link/os/liteos/base/ipc\los_sem.c ****  Description  : Create a semaphore,
 146:D:/fchai/work/i-cube/I-CUBE-HUAWEI/Middlewares/Third_Party/Huawei/iot_link/os/liteos/base/ipc\los_sem.c ****  Input        : uwCount--------- semaphore count,
 147:D:/fchai/work/i-cube/I-CUBE-HUAWEI/Middlewares/Third_Party/Huawei/iot_link/os/liteos/base/ipc\los_sem.c ****  Output       : puwSemHandle-----Index of semaphore,
 148:D:/fchai/work/i-cube/I-CUBE-HUAWEI/Middlewares/Third_Party/Huawei/iot_link/os/liteos/base/ipc\los_sem.c ****  Return       : LOS_OK on success ,or error code on failure
 149:D:/fchai/work/i-cube/I-CUBE-HUAWEI/Middlewares/Third_Party/Huawei/iot_link/os/liteos/base/ipc\los_sem.c ****  *****************************************************************************/
 150:D:/fchai/work/i-cube/I-CUBE-HUAWEI/Middlewares/Third_Party/Huawei/iot_link/os/liteos/base/ipc\los_sem.c **** LITE_OS_SEC_TEXT_INIT UINT32 LOS_SemCreate (UINT16 usCount, UINT32 *puwSemHandle)
 151:D:/fchai/work/i-cube/I-CUBE-HUAWEI/Middlewares/Third_Party/Huawei/iot_link/os/liteos/base/ipc\los_sem.c **** {
 405              		.loc 1 151 1 is_stmt 1 view -0
 406              		.cfi_startproc
 407              		@ args = 0, pretend = 0, frame = 0
 408              		@ frame_needed = 0, uses_anonymous_args = 0
 409              		@ link register save eliminated.
 152:D:/fchai/work/i-cube/I-CUBE-HUAWEI/Middlewares/Third_Party/Huawei/iot_link/os/liteos/base/ipc\los_sem.c ****     return osSemCreate(usCount, OS_SEM_COUNTING_MAX_COUNT, puwSemHandle);
 410              		.loc 1 152 5 view .LVU120
 151:D:/fchai/work/i-cube/I-CUBE-HUAWEI/Middlewares/Third_Party/Huawei/iot_link/os/liteos/base/ipc\los_sem.c ****     return osSemCreate(usCount, OS_SEM_COUNTING_MAX_COUNT, puwSemHandle);
 411              		.loc 1 151 1 is_stmt 0 view .LVU121
 412 0000 0A46     		mov	r2, r1
 413              		.loc 1 152 12 view .LVU122
 414 0002 4FF6FF71 		movw	r1, #65535
 415              	.LVL26:
 416              		.loc 1 152 12 view .LVU123
 417 0006 FFF7FEBF 		b	osSemCreate
 418              	.LVL27:
 419              		.loc 1 152 12 view .LVU124
 420              		.cfi_endproc
 421              	.LFE137:
 423 000a 00BF     		.section	.text.LOS_BinarySemCreate,"ax",%progbits
ARM GAS  T:\msys\tmp\ccvZtYVf.s 			page 16


 424              		.align	1
 425              		.p2align 2,,3
 426              		.global	LOS_BinarySemCreate
 427              		.syntax unified
 428              		.thumb
 429              		.thumb_func
 430              		.fpu fpv4-sp-d16
 432              	LOS_BinarySemCreate:
 433              	.LVL28:
 434              	.LFB138:
 153:D:/fchai/work/i-cube/I-CUBE-HUAWEI/Middlewares/Third_Party/Huawei/iot_link/os/liteos/base/ipc\los_sem.c **** }
 154:D:/fchai/work/i-cube/I-CUBE-HUAWEI/Middlewares/Third_Party/Huawei/iot_link/os/liteos/base/ipc\los_sem.c **** 
 155:D:/fchai/work/i-cube/I-CUBE-HUAWEI/Middlewares/Third_Party/Huawei/iot_link/os/liteos/base/ipc\los_sem.c **** /*****************************************************************************
 156:D:/fchai/work/i-cube/I-CUBE-HUAWEI/Middlewares/Third_Party/Huawei/iot_link/os/liteos/base/ipc\los_sem.c ****  Function     : LOS_BinarySemCreate
 157:D:/fchai/work/i-cube/I-CUBE-HUAWEI/Middlewares/Third_Party/Huawei/iot_link/os/liteos/base/ipc\los_sem.c ****  Description  : Create a binary semaphore,
 158:D:/fchai/work/i-cube/I-CUBE-HUAWEI/Middlewares/Third_Party/Huawei/iot_link/os/liteos/base/ipc\los_sem.c ****  Input        : uwCount--------- semaphore count,
 159:D:/fchai/work/i-cube/I-CUBE-HUAWEI/Middlewares/Third_Party/Huawei/iot_link/os/liteos/base/ipc\los_sem.c ****  Output       : puwSemHandle-----Index of semaphore,
 160:D:/fchai/work/i-cube/I-CUBE-HUAWEI/Middlewares/Third_Party/Huawei/iot_link/os/liteos/base/ipc\los_sem.c ****  Return       : LOS_OK on success ,or error code on failure
 161:D:/fchai/work/i-cube/I-CUBE-HUAWEI/Middlewares/Third_Party/Huawei/iot_link/os/liteos/base/ipc\los_sem.c ****  *****************************************************************************/
 162:D:/fchai/work/i-cube/I-CUBE-HUAWEI/Middlewares/Third_Party/Huawei/iot_link/os/liteos/base/ipc\los_sem.c **** LITE_OS_SEC_TEXT_INIT UINT32 LOS_BinarySemCreate (UINT16 usCount, UINT32 *puwSemHandle)
 163:D:/fchai/work/i-cube/I-CUBE-HUAWEI/Middlewares/Third_Party/Huawei/iot_link/os/liteos/base/ipc\los_sem.c **** {
 435              		.loc 1 163 1 is_stmt 1 view -0
 436              		.cfi_startproc
 437              		@ args = 0, pretend = 0, frame = 0
 438              		@ frame_needed = 0, uses_anonymous_args = 0
 439              		@ link register save eliminated.
 164:D:/fchai/work/i-cube/I-CUBE-HUAWEI/Middlewares/Third_Party/Huawei/iot_link/os/liteos/base/ipc\los_sem.c ****     return osSemCreate(usCount, OS_SEM_BINARY_MAX_COUNT, puwSemHandle);
 440              		.loc 1 164 5 view .LVU126
 163:D:/fchai/work/i-cube/I-CUBE-HUAWEI/Middlewares/Third_Party/Huawei/iot_link/os/liteos/base/ipc\los_sem.c ****     return osSemCreate(usCount, OS_SEM_BINARY_MAX_COUNT, puwSemHandle);
 441              		.loc 1 163 1 is_stmt 0 view .LVU127
 442 0000 0A46     		mov	r2, r1
 443              		.loc 1 164 12 view .LVU128
 444 0002 0121     		movs	r1, #1
 445              	.LVL29:
 446              		.loc 1 164 12 view .LVU129
 447 0004 FFF7FEBF 		b	osSemCreate
 448              	.LVL30:
 449              		.loc 1 164 12 view .LVU130
 450              		.cfi_endproc
 451              	.LFE138:
 453              		.section	.text.LOS_SemDelete,"ax",%progbits
 454              		.align	1
 455              		.p2align 2,,3
 456              		.global	LOS_SemDelete
 457              		.syntax unified
 458              		.thumb
 459              		.thumb_func
 460              		.fpu fpv4-sp-d16
 462              	LOS_SemDelete:
 463              	.LVL31:
 464              	.LFB139:
 165:D:/fchai/work/i-cube/I-CUBE-HUAWEI/Middlewares/Third_Party/Huawei/iot_link/os/liteos/base/ipc\los_sem.c **** }
 166:D:/fchai/work/i-cube/I-CUBE-HUAWEI/Middlewares/Third_Party/Huawei/iot_link/os/liteos/base/ipc\los_sem.c **** 
 167:D:/fchai/work/i-cube/I-CUBE-HUAWEI/Middlewares/Third_Party/Huawei/iot_link/os/liteos/base/ipc\los_sem.c **** /*****************************************************************************
 168:D:/fchai/work/i-cube/I-CUBE-HUAWEI/Middlewares/Third_Party/Huawei/iot_link/os/liteos/base/ipc\los_sem.c ****  Function     : LOS_SemDelete
 169:D:/fchai/work/i-cube/I-CUBE-HUAWEI/Middlewares/Third_Party/Huawei/iot_link/os/liteos/base/ipc\los_sem.c ****  Description : Delete a semaphore,
 170:D:/fchai/work/i-cube/I-CUBE-HUAWEI/Middlewares/Third_Party/Huawei/iot_link/os/liteos/base/ipc\los_sem.c ****  Input          : uwSemHandle--------- semaphore operation handle,
ARM GAS  T:\msys\tmp\ccvZtYVf.s 			page 17


 171:D:/fchai/work/i-cube/I-CUBE-HUAWEI/Middlewares/Third_Party/Huawei/iot_link/os/liteos/base/ipc\los_sem.c ****  Output       : None
 172:D:/fchai/work/i-cube/I-CUBE-HUAWEI/Middlewares/Third_Party/Huawei/iot_link/os/liteos/base/ipc\los_sem.c ****  Return       : LOS_OK on success or error code on failure
 173:D:/fchai/work/i-cube/I-CUBE-HUAWEI/Middlewares/Third_Party/Huawei/iot_link/os/liteos/base/ipc\los_sem.c ****  *****************************************************************************/
 174:D:/fchai/work/i-cube/I-CUBE-HUAWEI/Middlewares/Third_Party/Huawei/iot_link/os/liteos/base/ipc\los_sem.c **** LITE_OS_SEC_TEXT_INIT UINT32 LOS_SemDelete(UINT32 uwSemHandle)
 175:D:/fchai/work/i-cube/I-CUBE-HUAWEI/Middlewares/Third_Party/Huawei/iot_link/os/liteos/base/ipc\los_sem.c **** {
 465              		.loc 1 175 1 is_stmt 1 view -0
 466              		.cfi_startproc
 467              		@ args = 0, pretend = 0, frame = 0
 468              		@ frame_needed = 0, uses_anonymous_args = 0
 176:D:/fchai/work/i-cube/I-CUBE-HUAWEI/Middlewares/Third_Party/Huawei/iot_link/os/liteos/base/ipc\los_sem.c ****     UINT32      uwIntSave;
 469              		.loc 1 176 5 view .LVU132
 177:D:/fchai/work/i-cube/I-CUBE-HUAWEI/Middlewares/Third_Party/Huawei/iot_link/os/liteos/base/ipc\los_sem.c ****     SEM_CB_S    *pstSemDeleted;
 470              		.loc 1 177 5 view .LVU133
 178:D:/fchai/work/i-cube/I-CUBE-HUAWEI/Middlewares/Third_Party/Huawei/iot_link/os/liteos/base/ipc\los_sem.c ****     UINT32      uwErrNo;
 471              		.loc 1 178 5 view .LVU134
 179:D:/fchai/work/i-cube/I-CUBE-HUAWEI/Middlewares/Third_Party/Huawei/iot_link/os/liteos/base/ipc\los_sem.c ****     UINT32      uwErrLine;
 472              		.loc 1 179 5 view .LVU135
 180:D:/fchai/work/i-cube/I-CUBE-HUAWEI/Middlewares/Third_Party/Huawei/iot_link/os/liteos/base/ipc\los_sem.c ****     LOS_TASK_CB *pstResumedTask;
 473              		.loc 1 180 5 view .LVU136
 181:D:/fchai/work/i-cube/I-CUBE-HUAWEI/Middlewares/Third_Party/Huawei/iot_link/os/liteos/base/ipc\los_sem.c **** 
 182:D:/fchai/work/i-cube/I-CUBE-HUAWEI/Middlewares/Third_Party/Huawei/iot_link/os/liteos/base/ipc\los_sem.c **** 
 183:D:/fchai/work/i-cube/I-CUBE-HUAWEI/Middlewares/Third_Party/Huawei/iot_link/os/liteos/base/ipc\los_sem.c ****     if (uwSemHandle >= (UINT32)LOSCFG_BASE_IPC_SEM_LIMIT)
 474              		.loc 1 183 5 view .LVU137
 175:D:/fchai/work/i-cube/I-CUBE-HUAWEI/Middlewares/Third_Party/Huawei/iot_link/os/liteos/base/ipc\los_sem.c ****     UINT32      uwIntSave;
 475              		.loc 1 175 1 is_stmt 0 view .LVU138
 476 0000 2DE9F047 		push	{r4, r5, r6, r7, r8, r9, r10, lr}
 477              	.LCFI9:
 478              		.cfi_def_cfa_offset 32
 479              		.cfi_offset 4, -32
 480              		.cfi_offset 5, -28
 481              		.cfi_offset 6, -24
 482              		.cfi_offset 7, -20
 483              		.cfi_offset 8, -16
 484              		.cfi_offset 9, -12
 485              		.cfi_offset 10, -8
 486              		.cfi_offset 14, -4
 487              		.loc 1 183 8 view .LVU139
 488 0004 1328     		cmp	r0, #19
 175:D:/fchai/work/i-cube/I-CUBE-HUAWEI/Middlewares/Third_Party/Huawei/iot_link/os/liteos/base/ipc\los_sem.c ****     UINT32      uwIntSave;
 489              		.loc 1 175 1 view .LVU140
 490 0006 82B0     		sub	sp, sp, #8
 491              	.LCFI10:
 492              		.cfi_def_cfa_offset 40
 493              		.loc 1 183 8 view .LVU141
 494 0008 36D8     		bhi	.L24
 184:D:/fchai/work/i-cube/I-CUBE-HUAWEI/Middlewares/Third_Party/Huawei/iot_link/os/liteos/base/ipc\los_sem.c ****     {
 185:D:/fchai/work/i-cube/I-CUBE-HUAWEI/Middlewares/Third_Party/Huawei/iot_link/os/liteos/base/ipc\los_sem.c ****         OS_GOTO_ERR_HANDLER(LOS_ERRNO_SEM_INVALID);
 495              		.loc 1 185 9 is_stmt 1 view .LVU142
 186:D:/fchai/work/i-cube/I-CUBE-HUAWEI/Middlewares/Third_Party/Huawei/iot_link/os/liteos/base/ipc\los_sem.c ****     }
 187:D:/fchai/work/i-cube/I-CUBE-HUAWEI/Middlewares/Third_Party/Huawei/iot_link/os/liteos/base/ipc\los_sem.c **** 
 188:D:/fchai/work/i-cube/I-CUBE-HUAWEI/Middlewares/Third_Party/Huawei/iot_link/os/liteos/base/ipc\los_sem.c ****     pstSemDeleted = GET_SEM(uwSemHandle);
 496              		.loc 1 188 5 view .LVU143
 497              		.loc 1 188 21 is_stmt 0 view .LVU144
 498 000a 214B     		ldr	r3, .L32
 499              		.loc 1 188 19 view .LVU145
 500 000c D3F80080 		ldr	r8, [r3]
 501              		.loc 1 188 21 view .LVU146
ARM GAS  T:\msys\tmp\ccvZtYVf.s 			page 18


 502 0010 4FEA001A 		lsl	r10, r0, #4
 503              		.loc 1 188 19 view .LVU147
 504 0014 08EB0015 		add	r5, r8, r0, lsl #4
 505              	.LVL32:
 189:D:/fchai/work/i-cube/I-CUBE-HUAWEI/Middlewares/Third_Party/Huawei/iot_link/os/liteos/base/ipc\los_sem.c ****     uwIntSave = LOS_IntLock();
 506              		.loc 1 189 5 is_stmt 1 view .LVU148
 507              		.loc 1 189 17 is_stmt 0 view .LVU149
 508 0018 FFF7FEFF 		bl	LOS_IntLock
 509              	.LVL33:
 190:D:/fchai/work/i-cube/I-CUBE-HUAWEI/Middlewares/Third_Party/Huawei/iot_link/os/liteos/base/ipc\los_sem.c ****     if (OS_SEM_UNUSED == pstSemDeleted->usSemStat)
 510              		.loc 1 190 8 view .LVU150
 511 001c 38F80A30 		ldrh	r3, [r8, r10]
 189:D:/fchai/work/i-cube/I-CUBE-HUAWEI/Middlewares/Third_Party/Huawei/iot_link/os/liteos/base/ipc\los_sem.c ****     uwIntSave = LOS_IntLock();
 512              		.loc 1 189 17 view .LVU151
 513 0020 8146     		mov	r9, r0
 514              	.LVL34:
 515              		.loc 1 190 5 is_stmt 1 view .LVU152
 516              		.loc 1 190 8 is_stmt 0 view .LVU153
 517 0022 3BB3     		cbz	r3, .L25
 191:D:/fchai/work/i-cube/I-CUBE-HUAWEI/Middlewares/Third_Party/Huawei/iot_link/os/liteos/base/ipc\los_sem.c ****     {
 192:D:/fchai/work/i-cube/I-CUBE-HUAWEI/Middlewares/Third_Party/Huawei/iot_link/os/liteos/base/ipc\los_sem.c ****         LOS_IntRestore(uwIntSave);
 193:D:/fchai/work/i-cube/I-CUBE-HUAWEI/Middlewares/Third_Party/Huawei/iot_link/os/liteos/base/ipc\los_sem.c ****         OS_GOTO_ERR_HANDLER(LOS_ERRNO_SEM_INVALID);
 194:D:/fchai/work/i-cube/I-CUBE-HUAWEI/Middlewares/Third_Party/Huawei/iot_link/os/liteos/base/ipc\los_sem.c ****     }
 195:D:/fchai/work/i-cube/I-CUBE-HUAWEI/Middlewares/Third_Party/Huawei/iot_link/os/liteos/base/ipc\los_sem.c **** 
 196:D:/fchai/work/i-cube/I-CUBE-HUAWEI/Middlewares/Third_Party/Huawei/iot_link/os/liteos/base/ipc\los_sem.c **** #if 0
 197:D:/fchai/work/i-cube/I-CUBE-HUAWEI/Middlewares/Third_Party/Huawei/iot_link/os/liteos/base/ipc\los_sem.c ****     if (!LOS_ListEmpty(&pstSemDeleted->stSemList))
 198:D:/fchai/work/i-cube/I-CUBE-HUAWEI/Middlewares/Third_Party/Huawei/iot_link/os/liteos/base/ipc\los_sem.c ****     {
 199:D:/fchai/work/i-cube/I-CUBE-HUAWEI/Middlewares/Third_Party/Huawei/iot_link/os/liteos/base/ipc\los_sem.c ****         LOS_IntRestore(uwIntSave);
 200:D:/fchai/work/i-cube/I-CUBE-HUAWEI/Middlewares/Third_Party/Huawei/iot_link/os/liteos/base/ipc\los_sem.c ****         OS_GOTO_ERR_HANDLER(LOS_ERRNO_SEM_PENDED);
 201:D:/fchai/work/i-cube/I-CUBE-HUAWEI/Middlewares/Third_Party/Huawei/iot_link/os/liteos/base/ipc\los_sem.c ****     }
 202:D:/fchai/work/i-cube/I-CUBE-HUAWEI/Middlewares/Third_Party/Huawei/iot_link/os/liteos/base/ipc\los_sem.c **** #else
 203:D:/fchai/work/i-cube/I-CUBE-HUAWEI/Middlewares/Third_Party/Huawei/iot_link/os/liteos/base/ipc\los_sem.c ****     while (!LOS_ListEmpty(&pstSemDeleted->stSemList))
 518              		.loc 1 203 11 is_stmt 1 view .LVU154
 519              	.LBB52:
 520              	.LBB53:
 521              		.loc 2 215 26 is_stmt 0 view .LVU155
 522 0024 EC68     		ldr	r4, [r5, #12]
 523              	.LBE53:
 524              	.LBE52:
 525              		.loc 1 203 13 view .LVU156
 526 0026 05F10806 		add	r6, r5, #8
 527              	.LVL35:
 528              	.LBB56:
 529              	.LBI52:
 213:D:/fchai/work/i-cube/I-CUBE-HUAWEI/Middlewares/Third_Party/Huawei/iot_link/os/liteos/include\los_list.h **** {
 530              		.loc 2 213 43 is_stmt 1 view .LVU157
 531              	.LBB54:
 532              		.loc 2 215 5 view .LVU158
 533              		.loc 2 215 5 is_stmt 0 view .LVU159
 534              	.LBE54:
 535              	.LBE56:
 536              		.loc 1 203 11 view .LVU160
 537 002a A642     		cmp	r6, r4
 538 002c 10D0     		beq	.L27
 204:D:/fchai/work/i-cube/I-CUBE-HUAWEI/Middlewares/Third_Party/Huawei/iot_link/os/liteos/base/ipc\los_sem.c ****     {
 205:D:/fchai/work/i-cube/I-CUBE-HUAWEI/Middlewares/Third_Party/Huawei/iot_link/os/liteos/base/ipc\los_sem.c ****         pstResumedTask = OS_TCB_FROM_PENDLIST(LOS_DL_LIST_FIRST(&(pstSemDeleted->stSemList)));
 206:D:/fchai/work/i-cube/I-CUBE-HUAWEI/Middlewares/Third_Party/Huawei/iot_link/os/liteos/base/ipc\los_sem.c ****         pstResumedTask->pTaskSem = NULL;
ARM GAS  T:\msys\tmp\ccvZtYVf.s 			page 19


 539              		.loc 1 206 34 view .LVU161
 540 002e 0027     		movs	r7, #0
 541              	.LVL36:
 542              	.L26:
 205:D:/fchai/work/i-cube/I-CUBE-HUAWEI/Middlewares/Third_Party/Huawei/iot_link/os/liteos/base/ipc\los_sem.c ****         pstResumedTask->pTaskSem = NULL;
 543              		.loc 1 205 9 is_stmt 1 view .LVU162
 544              		.loc 1 206 9 view .LVU163
 545              		.loc 1 206 34 is_stmt 0 view .LVU164
 546 0030 44F8107C 		str	r7, [r4, #-16]
 207:D:/fchai/work/i-cube/I-CUBE-HUAWEI/Middlewares/Third_Party/Huawei/iot_link/os/liteos/base/ipc\los_sem.c ****         osTaskWake(pstResumedTask, OS_TASK_STATUS_PEND);
 547              		.loc 1 207 9 is_stmt 1 view .LVU165
 548 0034 A4F12800 		sub	r0, r4, #40
 549              	.LVL37:
 550              		.loc 1 207 9 is_stmt 0 view .LVU166
 551 0038 0821     		movs	r1, #8
 552 003a FFF7FEFF 		bl	osTaskWake
 553              	.LVL38:
 208:D:/fchai/work/i-cube/I-CUBE-HUAWEI/Middlewares/Third_Party/Huawei/iot_link/os/liteos/base/ipc\los_sem.c **** 
 209:D:/fchai/work/i-cube/I-CUBE-HUAWEI/Middlewares/Third_Party/Huawei/iot_link/os/liteos/base/ipc\los_sem.c ****         pstResumedTask->usTaskStatus |= OS_TASK_STATUS_TIMEOUT;
 554              		.loc 1 209 9 is_stmt 1 view .LVU167
 555              		.loc 1 209 38 is_stmt 0 view .LVU168
 556 003e 34F8243C 		ldrh	r3, [r4, #-36]
 557 0042 43F04003 		orr	r3, r3, #64
 558 0046 24F8243C 		strh	r3, [r4, #-36]	@ movhi
 203:D:/fchai/work/i-cube/I-CUBE-HUAWEI/Middlewares/Third_Party/Huawei/iot_link/os/liteos/base/ipc\los_sem.c ****     {
 559              		.loc 1 203 11 is_stmt 1 view .LVU169
 560              	.LVL39:
 561              	.LBB57:
 213:D:/fchai/work/i-cube/I-CUBE-HUAWEI/Middlewares/Third_Party/Huawei/iot_link/os/liteos/include\los_list.h **** {
 562              		.loc 2 213 43 view .LVU170
 563              	.LBB55:
 564              		.loc 2 215 5 view .LVU171
 565              		.loc 2 215 26 is_stmt 0 view .LVU172
 566 004a EC68     		ldr	r4, [r5, #12]
 567              	.LVL40:
 568              		.loc 2 215 26 view .LVU173
 569              	.LBE55:
 570              	.LBE57:
 203:D:/fchai/work/i-cube/I-CUBE-HUAWEI/Middlewares/Third_Party/Huawei/iot_link/os/liteos/base/ipc\los_sem.c ****     {
 571              		.loc 1 203 11 view .LVU174
 572 004c B442     		cmp	r4, r6
 573 004e EFD1     		bne	.L26
 574              	.L27:
 210:D:/fchai/work/i-cube/I-CUBE-HUAWEI/Middlewares/Third_Party/Huawei/iot_link/os/liteos/base/ipc\los_sem.c ****     }
 211:D:/fchai/work/i-cube/I-CUBE-HUAWEI/Middlewares/Third_Party/Huawei/iot_link/os/liteos/base/ipc\los_sem.c **** #endif
 212:D:/fchai/work/i-cube/I-CUBE-HUAWEI/Middlewares/Third_Party/Huawei/iot_link/os/liteos/base/ipc\los_sem.c **** 
 213:D:/fchai/work/i-cube/I-CUBE-HUAWEI/Middlewares/Third_Party/Huawei/iot_link/os/liteos/base/ipc\los_sem.c ****     LOS_ListAdd(&g_stUnusedSemList, &pstSemDeleted->stSemList);
 575              		.loc 1 213 5 is_stmt 1 view .LVU175
 576              	.LVL41:
 577              	.LBB58:
 578              	.LBI58:
 129:D:/fchai/work/i-cube/I-CUBE-HUAWEI/Middlewares/Third_Party/Huawei/iot_link/os/liteos/include\los_list.h **** {
 579              		.loc 2 129 43 view .LVU176
 580              	.LBB59:
 131:D:/fchai/work/i-cube/I-CUBE-HUAWEI/Middlewares/Third_Party/Huawei/iot_link/os/liteos/include\los_list.h ****     pstNode->pstPrev = pstList;
 581              		.loc 2 131 5 view .LVU177
 131:D:/fchai/work/i-cube/I-CUBE-HUAWEI/Middlewares/Third_Party/Huawei/iot_link/os/liteos/include\los_list.h ****     pstNode->pstPrev = pstList;
ARM GAS  T:\msys\tmp\ccvZtYVf.s 			page 20


 582              		.loc 2 131 31 is_stmt 0 view .LVU178
 583 0050 104B     		ldr	r3, .L32+4
 132:D:/fchai/work/i-cube/I-CUBE-HUAWEI/Middlewares/Third_Party/Huawei/iot_link/os/liteos/include\los_list.h ****     pstList->pstNext->pstPrev = pstNode;
 584              		.loc 2 132 22 view .LVU179
 585 0052 AB60     		str	r3, [r5, #8]
 131:D:/fchai/work/i-cube/I-CUBE-HUAWEI/Middlewares/Third_Party/Huawei/iot_link/os/liteos/include\los_list.h ****     pstNode->pstPrev = pstList;
 586              		.loc 2 131 31 view .LVU180
 587 0054 5A68     		ldr	r2, [r3, #4]
 131:D:/fchai/work/i-cube/I-CUBE-HUAWEI/Middlewares/Third_Party/Huawei/iot_link/os/liteos/include\los_list.h ****     pstNode->pstPrev = pstList;
 588              		.loc 2 131 22 view .LVU181
 589 0056 EA60     		str	r2, [r5, #12]
 132:D:/fchai/work/i-cube/I-CUBE-HUAWEI/Middlewares/Third_Party/Huawei/iot_link/os/liteos/include\los_list.h ****     pstList->pstNext->pstPrev = pstNode;
 590              		.loc 2 132 5 is_stmt 1 view .LVU182
 133:D:/fchai/work/i-cube/I-CUBE-HUAWEI/Middlewares/Third_Party/Huawei/iot_link/os/liteos/include\los_list.h ****     pstList->pstNext = pstNode;
 591              		.loc 2 133 5 view .LVU183
 592              	.LBE59:
 593              	.LBE58:
 214:D:/fchai/work/i-cube/I-CUBE-HUAWEI/Middlewares/Third_Party/Huawei/iot_link/os/liteos/base/ipc\los_sem.c ****     pstSemDeleted->usSemStat = OS_SEM_UNUSED;
 594              		.loc 1 214 30 is_stmt 0 view .LVU184
 595 0058 0024     		movs	r4, #0
 596              	.LBB62:
 597              	.LBB60:
 133:D:/fchai/work/i-cube/I-CUBE-HUAWEI/Middlewares/Third_Party/Huawei/iot_link/os/liteos/include\los_list.h ****     pstList->pstNext = pstNode;
 598              		.loc 2 133 31 view .LVU185
 599 005a 1660     		str	r6, [r2]
 134:D:/fchai/work/i-cube/I-CUBE-HUAWEI/Middlewares/Third_Party/Huawei/iot_link/os/liteos/include\los_list.h **** }
 600              		.loc 2 134 5 is_stmt 1 view .LVU186
 601              	.LBE60:
 602              	.LBE62:
 215:D:/fchai/work/i-cube/I-CUBE-HUAWEI/Middlewares/Third_Party/Huawei/iot_link/os/liteos/base/ipc\los_sem.c ****     LOS_IntRestore(uwIntSave);
 603              		.loc 1 215 5 is_stmt 0 view .LVU187
 604 005c 4846     		mov	r0, r9
 605              	.LBB63:
 606              	.LBB61:
 134:D:/fchai/work/i-cube/I-CUBE-HUAWEI/Middlewares/Third_Party/Huawei/iot_link/os/liteos/include\los_list.h **** }
 607              		.loc 2 134 22 view .LVU188
 608 005e 5E60     		str	r6, [r3, #4]
 609              	.LVL42:
 134:D:/fchai/work/i-cube/I-CUBE-HUAWEI/Middlewares/Third_Party/Huawei/iot_link/os/liteos/include\los_list.h **** }
 610              		.loc 2 134 22 view .LVU189
 611              	.LBE61:
 612              	.LBE63:
 214:D:/fchai/work/i-cube/I-CUBE-HUAWEI/Middlewares/Third_Party/Huawei/iot_link/os/liteos/base/ipc\los_sem.c ****     pstSemDeleted->usSemStat = OS_SEM_UNUSED;
 613              		.loc 1 214 5 is_stmt 1 view .LVU190
 214:D:/fchai/work/i-cube/I-CUBE-HUAWEI/Middlewares/Third_Party/Huawei/iot_link/os/liteos/base/ipc\los_sem.c ****     pstSemDeleted->usSemStat = OS_SEM_UNUSED;
 614              		.loc 1 214 30 is_stmt 0 view .LVU191
 615 0060 28F80A40 		strh	r4, [r8, r10]	@ movhi
 616              		.loc 1 215 5 is_stmt 1 view .LVU192
 617 0064 FFF7FEFF 		bl	LOS_IntRestore
 618              	.LVL43:
 216:D:/fchai/work/i-cube/I-CUBE-HUAWEI/Middlewares/Third_Party/Huawei/iot_link/os/liteos/base/ipc\los_sem.c **** #if 1
 217:D:/fchai/work/i-cube/I-CUBE-HUAWEI/Middlewares/Third_Party/Huawei/iot_link/os/liteos/base/ipc\los_sem.c ****     LOS_Schedule();
 619              		.loc 1 217 5 view .LVU193
 620 0068 FFF7FEFF 		bl	LOS_Schedule
 621              	.LVL44:
 218:D:/fchai/work/i-cube/I-CUBE-HUAWEI/Middlewares/Third_Party/Huawei/iot_link/os/liteos/base/ipc\los_sem.c **** #endif
 219:D:/fchai/work/i-cube/I-CUBE-HUAWEI/Middlewares/Third_Party/Huawei/iot_link/os/liteos/base/ipc\los_sem.c ****     return LOS_OK;
ARM GAS  T:\msys\tmp\ccvZtYVf.s 			page 21


 622              		.loc 1 219 5 view .LVU194
 623              		.loc 1 219 12 is_stmt 0 view .LVU195
 624 006c 2046     		mov	r0, r4
 220:D:/fchai/work/i-cube/I-CUBE-HUAWEI/Middlewares/Third_Party/Huawei/iot_link/os/liteos/base/ipc\los_sem.c **** ErrHandler:
 221:D:/fchai/work/i-cube/I-CUBE-HUAWEI/Middlewares/Third_Party/Huawei/iot_link/os/liteos/base/ipc\los_sem.c ****     OS_RETURN_ERROR_P2(uwErrLine, uwErrNo);
 222:D:/fchai/work/i-cube/I-CUBE-HUAWEI/Middlewares/Third_Party/Huawei/iot_link/os/liteos/base/ipc\los_sem.c **** }
 625              		.loc 1 222 1 view .LVU196
 626 006e 02B0     		add	sp, sp, #8
 627              	.LCFI11:
 628              		.cfi_remember_state
 629              		.cfi_def_cfa_offset 32
 630              		@ sp needed
 631 0070 BDE8F087 		pop	{r4, r5, r6, r7, r8, r9, r10, pc}
 632              	.LVL45:
 633              	.L25:
 634              	.LCFI12:
 635              		.cfi_restore_state
 192:D:/fchai/work/i-cube/I-CUBE-HUAWEI/Middlewares/Third_Party/Huawei/iot_link/os/liteos/base/ipc\los_sem.c ****         OS_GOTO_ERR_HANDLER(LOS_ERRNO_SEM_INVALID);
 636              		.loc 1 192 9 is_stmt 1 view .LVU197
 637 0074 FFF7FEFF 		bl	LOS_IntRestore
 638              	.LVL46:
 193:D:/fchai/work/i-cube/I-CUBE-HUAWEI/Middlewares/Third_Party/Huawei/iot_link/os/liteos/base/ipc\los_sem.c ****     }
 639              		.loc 1 193 9 view .LVU198
 193:D:/fchai/work/i-cube/I-CUBE-HUAWEI/Middlewares/Third_Party/Huawei/iot_link/os/liteos/base/ipc\los_sem.c ****     }
 640              		.loc 1 193 9 view .LVU199
 193:D:/fchai/work/i-cube/I-CUBE-HUAWEI/Middlewares/Third_Party/Huawei/iot_link/os/liteos/base/ipc\los_sem.c ****     }
 641              		.loc 1 193 9 view .LVU200
 193:D:/fchai/work/i-cube/I-CUBE-HUAWEI/Middlewares/Third_Party/Huawei/iot_link/os/liteos/base/ipc\los_sem.c ****     }
 642              		.loc 1 193 9 view .LVU201
 643              	.L24:
 221:D:/fchai/work/i-cube/I-CUBE-HUAWEI/Middlewares/Third_Party/Huawei/iot_link/os/liteos/base/ipc\los_sem.c **** }
 644              		.loc 1 221 5 view .LVU202
 221:D:/fchai/work/i-cube/I-CUBE-HUAWEI/Middlewares/Third_Party/Huawei/iot_link/os/liteos/base/ipc\los_sem.c **** }
 645              		.loc 1 221 5 view .LVU203
 646 0078 0023     		movs	r3, #0
 647 007a 074A     		ldr	r2, .L32+8
 648 007c 0749     		ldr	r1, .L32+12
 649 007e 0093     		str	r3, [sp]
 650 0080 0748     		ldr	r0, .L32+16
 651 0082 FFF7FEFF 		bl	LOS_ErrHandle
 652              	.LVL47:
 221:D:/fchai/work/i-cube/I-CUBE-HUAWEI/Middlewares/Third_Party/Huawei/iot_link/os/liteos/base/ipc\los_sem.c **** }
 653              		.loc 1 221 5 view .LVU204
 654 0086 0448     		ldr	r0, .L32+8
 221:D:/fchai/work/i-cube/I-CUBE-HUAWEI/Middlewares/Third_Party/Huawei/iot_link/os/liteos/base/ipc\los_sem.c **** }
 655              		.loc 1 221 5 view .LVU205
 656              		.loc 1 222 1 is_stmt 0 view .LVU206
 657 0088 02B0     		add	sp, sp, #8
 658              	.LCFI13:
 659              		.cfi_def_cfa_offset 32
 660              		@ sp needed
 661 008a BDE8F087 		pop	{r4, r5, r6, r7, r8, r9, r10, pc}
 662              	.L33:
 663 008e 00BF     		.align	2
 664              	.L32:
 665 0090 00000000 		.word	g_pstAllSem
 666 0094 00000000 		.word	g_stUnusedSemList
ARM GAS  T:\msys\tmp\ccvZtYVf.s 			page 22


 667 0098 01070002 		.word	33556225
 668 009c F8C3B2A1 		.word	-1582119944
 669 00a0 00000000 		.word	.LC0
 670              		.cfi_endproc
 671              	.LFE139:
 673              		.section	.rodata.LOS_SemPend.str1.4,"aMS",%progbits,1
 674              		.align	2
 675              	.LC1:
 676 0000 5B455252 		.ascii	"[ERR] \000"
 676      5D2000
 677 0007 00       		.align	2
 678              	.LC2:
 679 0008 2121214C 		.ascii	"!!!LOS_ERRNO_SEM_PEND_INTERR!!!\000"
 679      4F535F45 
 679      52524E4F 
 679      5F53454D 
 679      5F50454E 
 680              		.align	2
 681              	.LC3:
 682 0028 2121214C 		.ascii	"!!!LOS_ERRNO_SEM_PEND_IN_LOCK!!!\000"
 682      4F535F45 
 682      52524E4F 
 682      5F53454D 
 682      5F50454E 
 683              		.section	.text.LOS_SemPend,"ax",%progbits
 684              		.align	1
 685              		.p2align 2,,3
 686              		.global	LOS_SemPend
 687              		.syntax unified
 688              		.thumb
 689              		.thumb_func
 690              		.fpu fpv4-sp-d16
 692              	LOS_SemPend:
 693              	.LVL48:
 694              	.LFB140:
 223:D:/fchai/work/i-cube/I-CUBE-HUAWEI/Middlewares/Third_Party/Huawei/iot_link/os/liteos/base/ipc\los_sem.c **** 
 224:D:/fchai/work/i-cube/I-CUBE-HUAWEI/Middlewares/Third_Party/Huawei/iot_link/os/liteos/base/ipc\los_sem.c **** /*****************************************************************************
 225:D:/fchai/work/i-cube/I-CUBE-HUAWEI/Middlewares/Third_Party/Huawei/iot_link/os/liteos/base/ipc\los_sem.c ****  Function     : LOS_SemPend
 226:D:/fchai/work/i-cube/I-CUBE-HUAWEI/Middlewares/Third_Party/Huawei/iot_link/os/liteos/base/ipc\los_sem.c ****  Description : Specified semaphore P operation,
 227:D:/fchai/work/i-cube/I-CUBE-HUAWEI/Middlewares/Third_Party/Huawei/iot_link/os/liteos/base/ipc\los_sem.c ****  Input          : uwSemHandle--------- semaphore operation handle,
 228:D:/fchai/work/i-cube/I-CUBE-HUAWEI/Middlewares/Third_Party/Huawei/iot_link/os/liteos/base/ipc\los_sem.c ****               uwTimeout   ---------- waitting time
 229:D:/fchai/work/i-cube/I-CUBE-HUAWEI/Middlewares/Third_Party/Huawei/iot_link/os/liteos/base/ipc\los_sem.c ****  Output       : None
 230:D:/fchai/work/i-cube/I-CUBE-HUAWEI/Middlewares/Third_Party/Huawei/iot_link/os/liteos/base/ipc\los_sem.c ****  Return       : LOS_OK on success or error code on failure
 231:D:/fchai/work/i-cube/I-CUBE-HUAWEI/Middlewares/Third_Party/Huawei/iot_link/os/liteos/base/ipc\los_sem.c ****  *****************************************************************************/
 232:D:/fchai/work/i-cube/I-CUBE-HUAWEI/Middlewares/Third_Party/Huawei/iot_link/os/liteos/base/ipc\los_sem.c **** LITE_OS_SEC_TEXT UINT32 LOS_SemPend(UINT32 uwSemHandle, UINT32 uwTimeout)
 233:D:/fchai/work/i-cube/I-CUBE-HUAWEI/Middlewares/Third_Party/Huawei/iot_link/os/liteos/base/ipc\los_sem.c **** {
 695              		.loc 1 233 1 is_stmt 1 view -0
 696              		.cfi_startproc
 697              		@ args = 0, pretend = 0, frame = 0
 698              		@ frame_needed = 0, uses_anonymous_args = 0
 234:D:/fchai/work/i-cube/I-CUBE-HUAWEI/Middlewares/Third_Party/Huawei/iot_link/os/liteos/base/ipc\los_sem.c ****     UINT32      uwIntSave;
 699              		.loc 1 234 5 view .LVU208
 235:D:/fchai/work/i-cube/I-CUBE-HUAWEI/Middlewares/Third_Party/Huawei/iot_link/os/liteos/base/ipc\los_sem.c ****     SEM_CB_S    *pstSemPended;
 700              		.loc 1 235 5 view .LVU209
 236:D:/fchai/work/i-cube/I-CUBE-HUAWEI/Middlewares/Third_Party/Huawei/iot_link/os/liteos/base/ipc\los_sem.c ****     UINT32      uwRetErr;
 701              		.loc 1 236 5 view .LVU210
 237:D:/fchai/work/i-cube/I-CUBE-HUAWEI/Middlewares/Third_Party/Huawei/iot_link/os/liteos/base/ipc\los_sem.c ****     LOS_TASK_CB *pstRunTsk;
ARM GAS  T:\msys\tmp\ccvZtYVf.s 			page 23


 702              		.loc 1 237 5 view .LVU211
 238:D:/fchai/work/i-cube/I-CUBE-HUAWEI/Middlewares/Third_Party/Huawei/iot_link/os/liteos/base/ipc\los_sem.c **** 
 239:D:/fchai/work/i-cube/I-CUBE-HUAWEI/Middlewares/Third_Party/Huawei/iot_link/os/liteos/base/ipc\los_sem.c ****     if (uwSemHandle >= (UINT32)LOSCFG_BASE_IPC_SEM_LIMIT)
 703              		.loc 1 239 5 view .LVU212
 233:D:/fchai/work/i-cube/I-CUBE-HUAWEI/Middlewares/Third_Party/Huawei/iot_link/os/liteos/base/ipc\los_sem.c ****     UINT32      uwIntSave;
 704              		.loc 1 233 1 is_stmt 0 view .LVU213
 705 0000 2DE9F041 		push	{r4, r5, r6, r7, r8, lr}
 706              	.LCFI14:
 707              		.cfi_def_cfa_offset 24
 708              		.cfi_offset 4, -24
 709              		.cfi_offset 5, -20
 710              		.cfi_offset 6, -16
 711              		.cfi_offset 7, -12
 712              		.cfi_offset 8, -8
 713              		.cfi_offset 14, -4
 714              		.loc 1 239 8 view .LVU214
 715 0004 1328     		cmp	r0, #19
 233:D:/fchai/work/i-cube/I-CUBE-HUAWEI/Middlewares/Third_Party/Huawei/iot_link/os/liteos/base/ipc\los_sem.c ****     UINT32      uwIntSave;
 716              		.loc 1 233 1 view .LVU215
 717 0006 82B0     		sub	sp, sp, #8
 718              	.LCFI15:
 719              		.cfi_def_cfa_offset 32
 720              		.loc 1 239 8 view .LVU216
 721 0008 37D8     		bhi	.L48
 240:D:/fchai/work/i-cube/I-CUBE-HUAWEI/Middlewares/Third_Party/Huawei/iot_link/os/liteos/base/ipc\los_sem.c ****     {
 241:D:/fchai/work/i-cube/I-CUBE-HUAWEI/Middlewares/Third_Party/Huawei/iot_link/os/liteos/base/ipc\los_sem.c ****         OS_RETURN_ERROR(LOS_ERRNO_SEM_INVALID);
 722              		.loc 1 241 9 is_stmt 1 view .LVU217
 242:D:/fchai/work/i-cube/I-CUBE-HUAWEI/Middlewares/Third_Party/Huawei/iot_link/os/liteos/base/ipc\los_sem.c ****     }
 243:D:/fchai/work/i-cube/I-CUBE-HUAWEI/Middlewares/Third_Party/Huawei/iot_link/os/liteos/base/ipc\los_sem.c **** 
 244:D:/fchai/work/i-cube/I-CUBE-HUAWEI/Middlewares/Third_Party/Huawei/iot_link/os/liteos/base/ipc\los_sem.c ****     pstSemPended = GET_SEM(uwSemHandle);
 723              		.loc 1 244 5 view .LVU218
 724              		.loc 1 244 20 is_stmt 0 view .LVU219
 725 000a 384B     		ldr	r3, .L53
 726              		.loc 1 244 18 view .LVU220
 727 000c 1D68     		ldr	r5, [r3]
 728              		.loc 1 244 20 view .LVU221
 729 000e 0701     		lsls	r7, r0, #4
 730              		.loc 1 244 18 view .LVU222
 731 0010 05EB0014 		add	r4, r5, r0, lsl #4
 732              	.LVL49:
 245:D:/fchai/work/i-cube/I-CUBE-HUAWEI/Middlewares/Third_Party/Huawei/iot_link/os/liteos/base/ipc\los_sem.c ****     uwIntSave = LOS_IntLock();
 733              		.loc 1 245 5 is_stmt 1 view .LVU223
 734 0014 0E46     		mov	r6, r1
 735              		.loc 1 245 17 is_stmt 0 view .LVU224
 736 0016 FFF7FEFF 		bl	LOS_IntLock
 737              	.LVL50:
 246:D:/fchai/work/i-cube/I-CUBE-HUAWEI/Middlewares/Third_Party/Huawei/iot_link/os/liteos/base/ipc\los_sem.c ****     if (OS_SEM_UNUSED == pstSemPended->usSemStat)
 738              		.loc 1 246 8 view .LVU225
 739 001a ED5B     		ldrh	r5, [r5, r7]
 245:D:/fchai/work/i-cube/I-CUBE-HUAWEI/Middlewares/Third_Party/Huawei/iot_link/os/liteos/base/ipc\los_sem.c ****     uwIntSave = LOS_IntLock();
 740              		.loc 1 245 17 view .LVU226
 741 001c 0746     		mov	r7, r0
 742              	.LVL51:
 743              		.loc 1 246 5 is_stmt 1 view .LVU227
 744              		.loc 1 246 8 is_stmt 0 view .LVU228
 745 001e 002D     		cmp	r5, #0
 746 0020 57D0     		beq	.L49
ARM GAS  T:\msys\tmp\ccvZtYVf.s 			page 24


 247:D:/fchai/work/i-cube/I-CUBE-HUAWEI/Middlewares/Third_Party/Huawei/iot_link/os/liteos/base/ipc\los_sem.c ****     {
 248:D:/fchai/work/i-cube/I-CUBE-HUAWEI/Middlewares/Third_Party/Huawei/iot_link/os/liteos/base/ipc\los_sem.c ****         LOS_IntRestore(uwIntSave);
 249:D:/fchai/work/i-cube/I-CUBE-HUAWEI/Middlewares/Third_Party/Huawei/iot_link/os/liteos/base/ipc\los_sem.c ****         OS_RETURN_ERROR(LOS_ERRNO_SEM_INVALID);
 747              		.loc 1 249 9 is_stmt 1 view .LVU229
 250:D:/fchai/work/i-cube/I-CUBE-HUAWEI/Middlewares/Third_Party/Huawei/iot_link/os/liteos/base/ipc\los_sem.c ****     }
 251:D:/fchai/work/i-cube/I-CUBE-HUAWEI/Middlewares/Third_Party/Huawei/iot_link/os/liteos/base/ipc\los_sem.c **** 
 252:D:/fchai/work/i-cube/I-CUBE-HUAWEI/Middlewares/Third_Party/Huawei/iot_link/os/liteos/base/ipc\los_sem.c ****     if (pstSemPended->usSemCount > 0)
 748              		.loc 1 252 5 view .LVU230
 749              		.loc 1 252 21 is_stmt 0 view .LVU231
 750 0022 6388     		ldrh	r3, [r4, #2]
 751              		.loc 1 252 8 view .LVU232
 752 0024 002B     		cmp	r3, #0
 753 0026 4BD1     		bne	.L50
 253:D:/fchai/work/i-cube/I-CUBE-HUAWEI/Middlewares/Third_Party/Huawei/iot_link/os/liteos/base/ipc\los_sem.c ****     {
 254:D:/fchai/work/i-cube/I-CUBE-HUAWEI/Middlewares/Third_Party/Huawei/iot_link/os/liteos/base/ipc\los_sem.c ****         pstSemPended->usSemCount--;
 255:D:/fchai/work/i-cube/I-CUBE-HUAWEI/Middlewares/Third_Party/Huawei/iot_link/os/liteos/base/ipc\los_sem.c ****         LOS_IntRestore(uwIntSave);
 256:D:/fchai/work/i-cube/I-CUBE-HUAWEI/Middlewares/Third_Party/Huawei/iot_link/os/liteos/base/ipc\los_sem.c ****         return LOS_OK;
 257:D:/fchai/work/i-cube/I-CUBE-HUAWEI/Middlewares/Third_Party/Huawei/iot_link/os/liteos/base/ipc\los_sem.c ****     }
 258:D:/fchai/work/i-cube/I-CUBE-HUAWEI/Middlewares/Third_Party/Huawei/iot_link/os/liteos/base/ipc\los_sem.c **** 
 259:D:/fchai/work/i-cube/I-CUBE-HUAWEI/Middlewares/Third_Party/Huawei/iot_link/os/liteos/base/ipc\los_sem.c ****     if (!uwTimeout)
 754              		.loc 1 259 5 is_stmt 1 view .LVU233
 755              		.loc 1 259 8 is_stmt 0 view .LVU234
 756 0028 002E     		cmp	r6, #0
 757 002a 32D0     		beq	.L42
 260:D:/fchai/work/i-cube/I-CUBE-HUAWEI/Middlewares/Third_Party/Huawei/iot_link/os/liteos/base/ipc\los_sem.c ****     {
 261:D:/fchai/work/i-cube/I-CUBE-HUAWEI/Middlewares/Third_Party/Huawei/iot_link/os/liteos/base/ipc\los_sem.c ****         uwRetErr = LOS_ERRNO_SEM_UNAVAILABLE;
 262:D:/fchai/work/i-cube/I-CUBE-HUAWEI/Middlewares/Third_Party/Huawei/iot_link/os/liteos/base/ipc\los_sem.c ****         goto errre_uniSemPend;
 263:D:/fchai/work/i-cube/I-CUBE-HUAWEI/Middlewares/Third_Party/Huawei/iot_link/os/liteos/base/ipc\los_sem.c ****     }
 264:D:/fchai/work/i-cube/I-CUBE-HUAWEI/Middlewares/Third_Party/Huawei/iot_link/os/liteos/base/ipc\los_sem.c **** 
 265:D:/fchai/work/i-cube/I-CUBE-HUAWEI/Middlewares/Third_Party/Huawei/iot_link/os/liteos/base/ipc\los_sem.c ****     if (OS_INT_ACTIVE)
 758              		.loc 1 265 5 is_stmt 1 view .LVU235
 759              		.loc 1 265 9 is_stmt 0 view .LVU236
 760 002c 304B     		ldr	r3, .L53+4
 761 002e 1D68     		ldr	r5, [r3]
 762              		.loc 1 265 8 view .LVU237
 763 0030 002D     		cmp	r5, #0
 764 0032 53D1     		bne	.L51
 266:D:/fchai/work/i-cube/I-CUBE-HUAWEI/Middlewares/Third_Party/Huawei/iot_link/os/liteos/base/ipc\los_sem.c ****     {
 267:D:/fchai/work/i-cube/I-CUBE-HUAWEI/Middlewares/Third_Party/Huawei/iot_link/os/liteos/base/ipc\los_sem.c ****         uwRetErr = LOS_ERRNO_SEM_PEND_INTERR;
 268:D:/fchai/work/i-cube/I-CUBE-HUAWEI/Middlewares/Third_Party/Huawei/iot_link/os/liteos/base/ipc\los_sem.c ****         PRINT_ERR("!!!LOS_ERRNO_SEM_PEND_INTERR!!!\n");
 269:D:/fchai/work/i-cube/I-CUBE-HUAWEI/Middlewares/Third_Party/Huawei/iot_link/os/liteos/base/ipc\los_sem.c **** #if (LOSCFG_PLATFORM_EXC == YES)
 270:D:/fchai/work/i-cube/I-CUBE-HUAWEI/Middlewares/Third_Party/Huawei/iot_link/os/liteos/base/ipc\los_sem.c ****         osBackTrace();
 271:D:/fchai/work/i-cube/I-CUBE-HUAWEI/Middlewares/Third_Party/Huawei/iot_link/os/liteos/base/ipc\los_sem.c **** #endif
 272:D:/fchai/work/i-cube/I-CUBE-HUAWEI/Middlewares/Third_Party/Huawei/iot_link/os/liteos/base/ipc\los_sem.c ****         goto errre_uniSemPend;
 273:D:/fchai/work/i-cube/I-CUBE-HUAWEI/Middlewares/Third_Party/Huawei/iot_link/os/liteos/base/ipc\los_sem.c ****     }
 274:D:/fchai/work/i-cube/I-CUBE-HUAWEI/Middlewares/Third_Party/Huawei/iot_link/os/liteos/base/ipc\los_sem.c **** 
 275:D:/fchai/work/i-cube/I-CUBE-HUAWEI/Middlewares/Third_Party/Huawei/iot_link/os/liteos/base/ipc\los_sem.c ****     if (g_usLosTaskLock)
 765              		.loc 1 275 5 is_stmt 1 view .LVU238
 766              		.loc 1 275 9 is_stmt 0 view .LVU239
 767 0034 2F4B     		ldr	r3, .L53+8
 768              		.loc 1 275 8 view .LVU240
 769 0036 1B88     		ldrh	r3, [r3]
 770 0038 002B     		cmp	r3, #0
 771 003a 39D1     		bne	.L52
 276:D:/fchai/work/i-cube/I-CUBE-HUAWEI/Middlewares/Third_Party/Huawei/iot_link/os/liteos/base/ipc\los_sem.c ****     {
 277:D:/fchai/work/i-cube/I-CUBE-HUAWEI/Middlewares/Third_Party/Huawei/iot_link/os/liteos/base/ipc\los_sem.c ****         uwRetErr = LOS_ERRNO_SEM_PEND_IN_LOCK;
 278:D:/fchai/work/i-cube/I-CUBE-HUAWEI/Middlewares/Third_Party/Huawei/iot_link/os/liteos/base/ipc\los_sem.c ****         PRINT_ERR("!!!LOS_ERRNO_SEM_PEND_IN_LOCK!!!\n");
ARM GAS  T:\msys\tmp\ccvZtYVf.s 			page 25


 279:D:/fchai/work/i-cube/I-CUBE-HUAWEI/Middlewares/Third_Party/Huawei/iot_link/os/liteos/base/ipc\los_sem.c **** #if (LOSCFG_PLATFORM_EXC == YES)
 280:D:/fchai/work/i-cube/I-CUBE-HUAWEI/Middlewares/Third_Party/Huawei/iot_link/os/liteos/base/ipc\los_sem.c ****         osBackTrace();
 281:D:/fchai/work/i-cube/I-CUBE-HUAWEI/Middlewares/Third_Party/Huawei/iot_link/os/liteos/base/ipc\los_sem.c **** #endif
 282:D:/fchai/work/i-cube/I-CUBE-HUAWEI/Middlewares/Third_Party/Huawei/iot_link/os/liteos/base/ipc\los_sem.c ****         goto errre_uniSemPend;
 283:D:/fchai/work/i-cube/I-CUBE-HUAWEI/Middlewares/Third_Party/Huawei/iot_link/os/liteos/base/ipc\los_sem.c ****     }
 284:D:/fchai/work/i-cube/I-CUBE-HUAWEI/Middlewares/Third_Party/Huawei/iot_link/os/liteos/base/ipc\los_sem.c **** 
 285:D:/fchai/work/i-cube/I-CUBE-HUAWEI/Middlewares/Third_Party/Huawei/iot_link/os/liteos/base/ipc\los_sem.c ****     pstRunTsk = (LOS_TASK_CB *)g_stLosTask.pstRunTask;
 772              		.loc 1 285 5 is_stmt 1 view .LVU241
 773              		.loc 1 285 15 is_stmt 0 view .LVU242
 774 003c 2E4B     		ldr	r3, .L53+12
 775 003e D3F80080 		ldr	r8, [r3]
 776              	.LVL52:
 286:D:/fchai/work/i-cube/I-CUBE-HUAWEI/Middlewares/Third_Party/Huawei/iot_link/os/liteos/base/ipc\los_sem.c ****     pstRunTsk->pTaskSem = (VOID *)pstSemPended;
 777              		.loc 1 286 5 is_stmt 1 view .LVU243
 287:D:/fchai/work/i-cube/I-CUBE-HUAWEI/Middlewares/Third_Party/Huawei/iot_link/os/liteos/base/ipc\los_sem.c ****     osTaskWait(&pstSemPended->stSemList, OS_TASK_STATUS_PEND, uwTimeout);
 778              		.loc 1 287 5 is_stmt 0 view .LVU244
 779 0042 3246     		mov	r2, r6
 780 0044 0821     		movs	r1, #8
 781 0046 04F10800 		add	r0, r4, #8
 782              	.LVL53:
 286:D:/fchai/work/i-cube/I-CUBE-HUAWEI/Middlewares/Third_Party/Huawei/iot_link/os/liteos/base/ipc\los_sem.c ****     pstRunTsk->pTaskSem = (VOID *)pstSemPended;
 783              		.loc 1 286 25 view .LVU245
 784 004a C8F81840 		str	r4, [r8, #24]
 785              		.loc 1 287 5 is_stmt 1 view .LVU246
 786 004e FFF7FEFF 		bl	osTaskWait
 787              	.LVL54:
 288:D:/fchai/work/i-cube/I-CUBE-HUAWEI/Middlewares/Third_Party/Huawei/iot_link/os/liteos/base/ipc\los_sem.c ****     (VOID)LOS_IntRestore(uwIntSave);
 788              		.loc 1 288 5 view .LVU247
 789 0052 3846     		mov	r0, r7
 790 0054 FFF7FEFF 		bl	LOS_IntRestore
 791              	.LVL55:
 289:D:/fchai/work/i-cube/I-CUBE-HUAWEI/Middlewares/Third_Party/Huawei/iot_link/os/liteos/base/ipc\los_sem.c ****     LOS_Schedule();
 792              		.loc 1 289 5 view .LVU248
 793 0058 FFF7FEFF 		bl	LOS_Schedule
 794              	.LVL56:
 290:D:/fchai/work/i-cube/I-CUBE-HUAWEI/Middlewares/Third_Party/Huawei/iot_link/os/liteos/base/ipc\los_sem.c **** 
 291:D:/fchai/work/i-cube/I-CUBE-HUAWEI/Middlewares/Third_Party/Huawei/iot_link/os/liteos/base/ipc\los_sem.c ****     if (pstRunTsk->usTaskStatus & OS_TASK_STATUS_TIMEOUT)
 795              		.loc 1 291 5 view .LVU249
 796              		.loc 1 291 8 is_stmt 0 view .LVU250
 797 005c B8F80430 		ldrh	r3, [r8, #4]
 798 0060 5B06     		lsls	r3, r3, #25
 799 0062 12D5     		bpl	.L34
 292:D:/fchai/work/i-cube/I-CUBE-HUAWEI/Middlewares/Third_Party/Huawei/iot_link/os/liteos/base/ipc\los_sem.c ****     {
 293:D:/fchai/work/i-cube/I-CUBE-HUAWEI/Middlewares/Third_Party/Huawei/iot_link/os/liteos/base/ipc\los_sem.c ****         uwIntSave = LOS_IntLock();
 800              		.loc 1 293 9 is_stmt 1 view .LVU251
 801              		.loc 1 293 21 is_stmt 0 view .LVU252
 802 0064 FFF7FEFF 		bl	LOS_IntLock
 803              	.LVL57:
 294:D:/fchai/work/i-cube/I-CUBE-HUAWEI/Middlewares/Third_Party/Huawei/iot_link/os/liteos/base/ipc\los_sem.c ****         pstRunTsk->usTaskStatus &= (~OS_TASK_STATUS_TIMEOUT);
 804              		.loc 1 294 33 view .LVU253
 805 0068 B8F80430 		ldrh	r3, [r8, #4]
 295:D:/fchai/work/i-cube/I-CUBE-HUAWEI/Middlewares/Third_Party/Huawei/iot_link/os/liteos/base/ipc\los_sem.c ****         uwRetErr = LOS_ERRNO_SEM_TIMEOUT;
 806              		.loc 1 295 18 view .LVU254
 807 006c 234D     		ldr	r5, .L53+16
 294:D:/fchai/work/i-cube/I-CUBE-HUAWEI/Middlewares/Third_Party/Huawei/iot_link/os/liteos/base/ipc\los_sem.c ****         pstRunTsk->usTaskStatus &= (~OS_TASK_STATUS_TIMEOUT);
 808              		.loc 1 294 33 view .LVU255
 809 006e 23F04003 		bic	r3, r3, #64
ARM GAS  T:\msys\tmp\ccvZtYVf.s 			page 26


 293:D:/fchai/work/i-cube/I-CUBE-HUAWEI/Middlewares/Third_Party/Huawei/iot_link/os/liteos/base/ipc\los_sem.c ****         pstRunTsk->usTaskStatus &= (~OS_TASK_STATUS_TIMEOUT);
 810              		.loc 1 293 21 view .LVU256
 811 0072 0746     		mov	r7, r0
 812              	.LVL58:
 294:D:/fchai/work/i-cube/I-CUBE-HUAWEI/Middlewares/Third_Party/Huawei/iot_link/os/liteos/base/ipc\los_sem.c ****         pstRunTsk->usTaskStatus &= (~OS_TASK_STATUS_TIMEOUT);
 813              		.loc 1 294 9 is_stmt 1 view .LVU257
 294:D:/fchai/work/i-cube/I-CUBE-HUAWEI/Middlewares/Third_Party/Huawei/iot_link/os/liteos/base/ipc\los_sem.c ****         pstRunTsk->usTaskStatus &= (~OS_TASK_STATUS_TIMEOUT);
 814              		.loc 1 294 33 is_stmt 0 view .LVU258
 815 0074 A8F80430 		strh	r3, [r8, #4]	@ movhi
 816              		.loc 1 295 9 is_stmt 1 view .LVU259
 817              	.LVL59:
 296:D:/fchai/work/i-cube/I-CUBE-HUAWEI/Middlewares/Third_Party/Huawei/iot_link/os/liteos/base/ipc\los_sem.c ****         goto errre_uniSemPend;
 818              		.loc 1 296 9 view .LVU260
 819 0078 0CE0     		b	.L39
 820              	.LVL60:
 821              	.L48:
 241:D:/fchai/work/i-cube/I-CUBE-HUAWEI/Middlewares/Third_Party/Huawei/iot_link/os/liteos/base/ipc\los_sem.c ****     }
 822              		.loc 1 241 9 view .LVU261
 241:D:/fchai/work/i-cube/I-CUBE-HUAWEI/Middlewares/Third_Party/Huawei/iot_link/os/liteos/base/ipc\los_sem.c ****     }
 823              		.loc 1 241 9 view .LVU262
 824 007a 0023     		movs	r3, #0
 825 007c 0093     		str	r3, [sp]
 826              	.LVL61:
 827              	.L47:
 249:D:/fchai/work/i-cube/I-CUBE-HUAWEI/Middlewares/Third_Party/Huawei/iot_link/os/liteos/base/ipc\los_sem.c ****     }
 828              		.loc 1 249 9 is_stmt 0 view .LVU263
 829 007e 204A     		ldr	r2, .L53+20
 830 0080 2049     		ldr	r1, .L53+24
 831 0082 2148     		ldr	r0, .L53+28
 832 0084 1546     		mov	r5, r2
 833 0086 FFF7FEFF 		bl	LOS_ErrHandle
 834              	.LVL62:
 249:D:/fchai/work/i-cube/I-CUBE-HUAWEI/Middlewares/Third_Party/Huawei/iot_link/os/liteos/base/ipc\los_sem.c ****     }
 835              		.loc 1 249 9 is_stmt 1 view .LVU264
 836              	.L34:
 297:D:/fchai/work/i-cube/I-CUBE-HUAWEI/Middlewares/Third_Party/Huawei/iot_link/os/liteos/base/ipc\los_sem.c ****     }
 298:D:/fchai/work/i-cube/I-CUBE-HUAWEI/Middlewares/Third_Party/Huawei/iot_link/os/liteos/base/ipc\los_sem.c **** 
 299:D:/fchai/work/i-cube/I-CUBE-HUAWEI/Middlewares/Third_Party/Huawei/iot_link/os/liteos/base/ipc\los_sem.c ****     return LOS_OK;
 300:D:/fchai/work/i-cube/I-CUBE-HUAWEI/Middlewares/Third_Party/Huawei/iot_link/os/liteos/base/ipc\los_sem.c **** 
 301:D:/fchai/work/i-cube/I-CUBE-HUAWEI/Middlewares/Third_Party/Huawei/iot_link/os/liteos/base/ipc\los_sem.c **** errre_uniSemPend:
 302:D:/fchai/work/i-cube/I-CUBE-HUAWEI/Middlewares/Third_Party/Huawei/iot_link/os/liteos/base/ipc\los_sem.c ****     (VOID)LOS_IntRestore(uwIntSave);
 303:D:/fchai/work/i-cube/I-CUBE-HUAWEI/Middlewares/Third_Party/Huawei/iot_link/os/liteos/base/ipc\los_sem.c ****     OS_RETURN_ERROR(uwRetErr);
 304:D:/fchai/work/i-cube/I-CUBE-HUAWEI/Middlewares/Third_Party/Huawei/iot_link/os/liteos/base/ipc\los_sem.c **** }
 837              		.loc 1 304 1 is_stmt 0 view .LVU265
 838 008a 2846     		mov	r0, r5
 839 008c 02B0     		add	sp, sp, #8
 840              	.LCFI16:
 841              		.cfi_remember_state
 842              		.cfi_def_cfa_offset 24
 843              		@ sp needed
 844 008e BDE8F081 		pop	{r4, r5, r6, r7, r8, pc}
 845              	.LVL63:
 846              	.L42:
 847              	.LCFI17:
 848              		.cfi_restore_state
 261:D:/fchai/work/i-cube/I-CUBE-HUAWEI/Middlewares/Third_Party/Huawei/iot_link/os/liteos/base/ipc\los_sem.c ****         goto errre_uniSemPend;
 849              		.loc 1 261 18 view .LVU266
ARM GAS  T:\msys\tmp\ccvZtYVf.s 			page 27


 850 0092 1E4D     		ldr	r5, .L53+32
 851              	.LVL64:
 852              	.L39:
 302:D:/fchai/work/i-cube/I-CUBE-HUAWEI/Middlewares/Third_Party/Huawei/iot_link/os/liteos/base/ipc\los_sem.c ****     OS_RETURN_ERROR(uwRetErr);
 853              		.loc 1 302 5 is_stmt 1 view .LVU267
 854 0094 3846     		mov	r0, r7
 855 0096 FFF7FEFF 		bl	LOS_IntRestore
 856              	.LVL65:
 303:D:/fchai/work/i-cube/I-CUBE-HUAWEI/Middlewares/Third_Party/Huawei/iot_link/os/liteos/base/ipc\los_sem.c **** }
 857              		.loc 1 303 5 view .LVU268
 303:D:/fchai/work/i-cube/I-CUBE-HUAWEI/Middlewares/Third_Party/Huawei/iot_link/os/liteos/base/ipc\los_sem.c **** }
 858              		.loc 1 303 5 view .LVU269
 859 009a 0023     		movs	r3, #0
 860 009c 1949     		ldr	r1, .L53+24
 861 009e 0093     		str	r3, [sp]
 862 00a0 2A46     		mov	r2, r5
 863 00a2 1948     		ldr	r0, .L53+28
 864 00a4 FFF7FEFF 		bl	LOS_ErrHandle
 865              	.LVL66:
 303:D:/fchai/work/i-cube/I-CUBE-HUAWEI/Middlewares/Third_Party/Huawei/iot_link/os/liteos/base/ipc\los_sem.c **** }
 866              		.loc 1 303 5 view .LVU270
 303:D:/fchai/work/i-cube/I-CUBE-HUAWEI/Middlewares/Third_Party/Huawei/iot_link/os/liteos/base/ipc\los_sem.c **** }
 867              		.loc 1 303 5 view .LVU271
 868              		.loc 1 304 1 is_stmt 0 view .LVU272
 869 00a8 2846     		mov	r0, r5
 870 00aa 02B0     		add	sp, sp, #8
 871              	.LCFI18:
 872              		.cfi_remember_state
 873              		.cfi_def_cfa_offset 24
 874              		@ sp needed
 875 00ac BDE8F081 		pop	{r4, r5, r6, r7, r8, pc}
 876              	.LVL67:
 877              	.L52:
 878              	.LCFI19:
 879              		.cfi_restore_state
 277:D:/fchai/work/i-cube/I-CUBE-HUAWEI/Middlewares/Third_Party/Huawei/iot_link/os/liteos/base/ipc\los_sem.c ****         PRINT_ERR("!!!LOS_ERRNO_SEM_PEND_IN_LOCK!!!\n");
 880              		.loc 1 277 9 is_stmt 1 view .LVU273
 278:D:/fchai/work/i-cube/I-CUBE-HUAWEI/Middlewares/Third_Party/Huawei/iot_link/os/liteos/base/ipc\los_sem.c **** #if (LOSCFG_PLATFORM_EXC == YES)
 881              		.loc 1 278 9 view .LVU274
 278:D:/fchai/work/i-cube/I-CUBE-HUAWEI/Middlewares/Third_Party/Huawei/iot_link/os/liteos/base/ipc\los_sem.c **** #if (LOSCFG_PLATFORM_EXC == YES)
 882              		.loc 1 278 9 view .LVU275
 883 00b0 1748     		ldr	r0, .L53+36
 884              	.LVL68:
 277:D:/fchai/work/i-cube/I-CUBE-HUAWEI/Middlewares/Third_Party/Huawei/iot_link/os/liteos/base/ipc\los_sem.c ****         PRINT_ERR("!!!LOS_ERRNO_SEM_PEND_IN_LOCK!!!\n");
 885              		.loc 1 277 18 is_stmt 0 view .LVU276
 886 00b2 184D     		ldr	r5, .L53+40
 278:D:/fchai/work/i-cube/I-CUBE-HUAWEI/Middlewares/Third_Party/Huawei/iot_link/os/liteos/base/ipc\los_sem.c **** #if (LOSCFG_PLATFORM_EXC == YES)
 887              		.loc 1 278 9 view .LVU277
 888 00b4 FFF7FEFF 		bl	printf
 889              	.LVL69:
 890 00b8 1748     		ldr	r0, .L53+44
 891 00ba FFF7FEFF 		bl	puts
 892              	.LVL70:
 278:D:/fchai/work/i-cube/I-CUBE-HUAWEI/Middlewares/Third_Party/Huawei/iot_link/os/liteos/base/ipc\los_sem.c **** #if (LOSCFG_PLATFORM_EXC == YES)
 893              		.loc 1 278 9 is_stmt 1 view .LVU278
 282:D:/fchai/work/i-cube/I-CUBE-HUAWEI/Middlewares/Third_Party/Huawei/iot_link/os/liteos/base/ipc\los_sem.c ****     }
 894              		.loc 1 282 9 view .LVU279
ARM GAS  T:\msys\tmp\ccvZtYVf.s 			page 28


 895 00be E9E7     		b	.L39
 896              	.LVL71:
 897              	.L50:
 254:D:/fchai/work/i-cube/I-CUBE-HUAWEI/Middlewares/Third_Party/Huawei/iot_link/os/liteos/base/ipc\los_sem.c ****         LOS_IntRestore(uwIntSave);
 898              		.loc 1 254 9 view .LVU280
 254:D:/fchai/work/i-cube/I-CUBE-HUAWEI/Middlewares/Third_Party/Huawei/iot_link/os/liteos/base/ipc\los_sem.c ****         LOS_IntRestore(uwIntSave);
 899              		.loc 1 254 33 is_stmt 0 view .LVU281
 900 00c0 013B     		subs	r3, r3, #1
 901 00c2 6380     		strh	r3, [r4, #2]	@ movhi
 255:D:/fchai/work/i-cube/I-CUBE-HUAWEI/Middlewares/Third_Party/Huawei/iot_link/os/liteos/base/ipc\los_sem.c ****         return LOS_OK;
 902              		.loc 1 255 9 is_stmt 1 view .LVU282
 903 00c4 FFF7FEFF 		bl	LOS_IntRestore
 904              	.LVL72:
 256:D:/fchai/work/i-cube/I-CUBE-HUAWEI/Middlewares/Third_Party/Huawei/iot_link/os/liteos/base/ipc\los_sem.c ****     }
 905              		.loc 1 256 9 view .LVU283
 256:D:/fchai/work/i-cube/I-CUBE-HUAWEI/Middlewares/Third_Party/Huawei/iot_link/os/liteos/base/ipc\los_sem.c ****     }
 906              		.loc 1 256 16 is_stmt 0 view .LVU284
 907 00c8 0025     		movs	r5, #0
 908              		.loc 1 304 1 view .LVU285
 909 00ca 2846     		mov	r0, r5
 910 00cc 02B0     		add	sp, sp, #8
 911              	.LCFI20:
 912              		.cfi_remember_state
 913              		.cfi_def_cfa_offset 24
 914              		@ sp needed
 915 00ce BDE8F081 		pop	{r4, r5, r6, r7, r8, pc}
 916              	.LVL73:
 917              	.L49:
 918              	.LCFI21:
 919              		.cfi_restore_state
 248:D:/fchai/work/i-cube/I-CUBE-HUAWEI/Middlewares/Third_Party/Huawei/iot_link/os/liteos/base/ipc\los_sem.c ****         OS_RETURN_ERROR(LOS_ERRNO_SEM_INVALID);
 920              		.loc 1 248 9 is_stmt 1 view .LVU286
 921 00d2 FFF7FEFF 		bl	LOS_IntRestore
 922              	.LVL74:
 249:D:/fchai/work/i-cube/I-CUBE-HUAWEI/Middlewares/Third_Party/Huawei/iot_link/os/liteos/base/ipc\los_sem.c ****     }
 923              		.loc 1 249 9 view .LVU287
 249:D:/fchai/work/i-cube/I-CUBE-HUAWEI/Middlewares/Third_Party/Huawei/iot_link/os/liteos/base/ipc\los_sem.c ****     }
 924              		.loc 1 249 9 view .LVU288
 925 00d6 0095     		str	r5, [sp]
 926 00d8 2B46     		mov	r3, r5
 927 00da D0E7     		b	.L47
 928              	.LVL75:
 929              	.L51:
 267:D:/fchai/work/i-cube/I-CUBE-HUAWEI/Middlewares/Third_Party/Huawei/iot_link/os/liteos/base/ipc\los_sem.c ****         PRINT_ERR("!!!LOS_ERRNO_SEM_PEND_INTERR!!!\n");
 930              		.loc 1 267 9 view .LVU289
 268:D:/fchai/work/i-cube/I-CUBE-HUAWEI/Middlewares/Third_Party/Huawei/iot_link/os/liteos/base/ipc\los_sem.c **** #if (LOSCFG_PLATFORM_EXC == YES)
 931              		.loc 1 268 9 view .LVU290
 268:D:/fchai/work/i-cube/I-CUBE-HUAWEI/Middlewares/Third_Party/Huawei/iot_link/os/liteos/base/ipc\los_sem.c **** #if (LOSCFG_PLATFORM_EXC == YES)
 932              		.loc 1 268 9 view .LVU291
 933 00dc 0C48     		ldr	r0, .L53+36
 934              	.LVL76:
 267:D:/fchai/work/i-cube/I-CUBE-HUAWEI/Middlewares/Third_Party/Huawei/iot_link/os/liteos/base/ipc\los_sem.c ****         PRINT_ERR("!!!LOS_ERRNO_SEM_PEND_INTERR!!!\n");
 935              		.loc 1 267 18 is_stmt 0 view .LVU292
 936 00de 0F4D     		ldr	r5, .L53+48
 268:D:/fchai/work/i-cube/I-CUBE-HUAWEI/Middlewares/Third_Party/Huawei/iot_link/os/liteos/base/ipc\los_sem.c **** #if (LOSCFG_PLATFORM_EXC == YES)
 937              		.loc 1 268 9 view .LVU293
 938 00e0 FFF7FEFF 		bl	printf
ARM GAS  T:\msys\tmp\ccvZtYVf.s 			page 29


 939              	.LVL77:
 940 00e4 0E48     		ldr	r0, .L53+52
 941 00e6 FFF7FEFF 		bl	puts
 942              	.LVL78:
 268:D:/fchai/work/i-cube/I-CUBE-HUAWEI/Middlewares/Third_Party/Huawei/iot_link/os/liteos/base/ipc\los_sem.c **** #if (LOSCFG_PLATFORM_EXC == YES)
 943              		.loc 1 268 9 is_stmt 1 view .LVU294
 272:D:/fchai/work/i-cube/I-CUBE-HUAWEI/Middlewares/Third_Party/Huawei/iot_link/os/liteos/base/ipc\los_sem.c ****     }
 944              		.loc 1 272 9 view .LVU295
 945 00ea D3E7     		b	.L39
 946              	.L54:
 947              		.align	2
 948              	.L53:
 949 00ec 00000000 		.word	g_pstAllSem
 950 00f0 00000000 		.word	g_vuwIntCount
 951 00f4 00000000 		.word	g_usLosTaskLock
 952 00f8 00000000 		.word	g_stLosTask
 953 00fc 07070002 		.word	33556231
 954 0100 01070002 		.word	33556225
 955 0104 F8C3B2A1 		.word	-1582119944
 956 0108 00000000 		.word	.LC0
 957 010c 04070002 		.word	33556228
 958 0110 00000000 		.word	.LC1
 959 0114 06070002 		.word	33556230
 960 0118 28000000 		.word	.LC3
 961 011c 05070002 		.word	33556229
 962 0120 08000000 		.word	.LC2
 963              		.cfi_endproc
 964              	.LFE140:
 966              		.section	.text.LOS_SemPost,"ax",%progbits
 967              		.align	1
 968              		.p2align 2,,3
 969              		.global	LOS_SemPost
 970              		.syntax unified
 971              		.thumb
 972              		.thumb_func
 973              		.fpu fpv4-sp-d16
 975              	LOS_SemPost:
 976              	.LVL79:
 977              	.LFB141:
 305:D:/fchai/work/i-cube/I-CUBE-HUAWEI/Middlewares/Third_Party/Huawei/iot_link/os/liteos/base/ipc\los_sem.c **** 
 306:D:/fchai/work/i-cube/I-CUBE-HUAWEI/Middlewares/Third_Party/Huawei/iot_link/os/liteos/base/ipc\los_sem.c **** /*****************************************************************************
 307:D:/fchai/work/i-cube/I-CUBE-HUAWEI/Middlewares/Third_Party/Huawei/iot_link/os/liteos/base/ipc\los_sem.c ****  Function     : LOS_SemPend
 308:D:/fchai/work/i-cube/I-CUBE-HUAWEI/Middlewares/Third_Party/Huawei/iot_link/os/liteos/base/ipc\los_sem.c ****  Description  : Specified semaphore V operation,
 309:D:/fchai/work/i-cube/I-CUBE-HUAWEI/Middlewares/Third_Party/Huawei/iot_link/os/liteos/base/ipc\los_sem.c ****  Input        : uwSemHandle--------- semaphore operation handle,
 310:D:/fchai/work/i-cube/I-CUBE-HUAWEI/Middlewares/Third_Party/Huawei/iot_link/os/liteos/base/ipc\los_sem.c ****  Output       : None
 311:D:/fchai/work/i-cube/I-CUBE-HUAWEI/Middlewares/Third_Party/Huawei/iot_link/os/liteos/base/ipc\los_sem.c ****  Return       : LOS_OK on success or error code on failure
 312:D:/fchai/work/i-cube/I-CUBE-HUAWEI/Middlewares/Third_Party/Huawei/iot_link/os/liteos/base/ipc\los_sem.c ****  *****************************************************************************/
 313:D:/fchai/work/i-cube/I-CUBE-HUAWEI/Middlewares/Third_Party/Huawei/iot_link/os/liteos/base/ipc\los_sem.c **** LITE_OS_SEC_TEXT UINT32 LOS_SemPost(UINT32 uwSemHandle)
 314:D:/fchai/work/i-cube/I-CUBE-HUAWEI/Middlewares/Third_Party/Huawei/iot_link/os/liteos/base/ipc\los_sem.c **** {
 978              		.loc 1 314 1 view -0
 979              		.cfi_startproc
 980              		@ args = 0, pretend = 0, frame = 0
 981              		@ frame_needed = 0, uses_anonymous_args = 0
 315:D:/fchai/work/i-cube/I-CUBE-HUAWEI/Middlewares/Third_Party/Huawei/iot_link/os/liteos/base/ipc\los_sem.c ****     UINT32      uwIntSave;
 982              		.loc 1 315 5 view .LVU297
 316:D:/fchai/work/i-cube/I-CUBE-HUAWEI/Middlewares/Third_Party/Huawei/iot_link/os/liteos/base/ipc\los_sem.c ****     SEM_CB_S    *pstSemPosted = GET_SEM(uwSemHandle);
 983              		.loc 1 316 5 view .LVU298
ARM GAS  T:\msys\tmp\ccvZtYVf.s 			page 30


 317:D:/fchai/work/i-cube/I-CUBE-HUAWEI/Middlewares/Third_Party/Huawei/iot_link/os/liteos/base/ipc\los_sem.c ****     LOS_TASK_CB *pstResumedTask;
 984              		.loc 1 317 5 view .LVU299
 318:D:/fchai/work/i-cube/I-CUBE-HUAWEI/Middlewares/Third_Party/Huawei/iot_link/os/liteos/base/ipc\los_sem.c **** 
 319:D:/fchai/work/i-cube/I-CUBE-HUAWEI/Middlewares/Third_Party/Huawei/iot_link/os/liteos/base/ipc\los_sem.c ****     if (uwSemHandle >= LOSCFG_BASE_IPC_SEM_LIMIT)
 985              		.loc 1 319 5 view .LVU300
 986              		.loc 1 319 8 is_stmt 0 view .LVU301
 987 0000 1328     		cmp	r0, #19
 988 0002 24D8     		bhi	.L60
 314:D:/fchai/work/i-cube/I-CUBE-HUAWEI/Middlewares/Third_Party/Huawei/iot_link/os/liteos/base/ipc\los_sem.c ****     UINT32      uwIntSave;
 989              		.loc 1 314 1 view .LVU302
 990 0004 70B5     		push	{r4, r5, r6, lr}
 991              	.LCFI22:
 992              		.cfi_def_cfa_offset 16
 993              		.cfi_offset 4, -16
 994              		.cfi_offset 5, -12
 995              		.cfi_offset 6, -8
 996              		.cfi_offset 14, -4
 316:D:/fchai/work/i-cube/I-CUBE-HUAWEI/Middlewares/Third_Party/Huawei/iot_link/os/liteos/base/ipc\los_sem.c ****     LOS_TASK_CB *pstResumedTask;
 997              		.loc 1 316 33 view .LVU303
 998 0006 214B     		ldr	r3, .L67
 999              	.LVL80:
 316:D:/fchai/work/i-cube/I-CUBE-HUAWEI/Middlewares/Third_Party/Huawei/iot_link/os/liteos/base/ipc\los_sem.c ****     LOS_TASK_CB *pstResumedTask;
 1000              		.loc 1 316 18 view .LVU304
 1001 0008 1D68     		ldr	r5, [r3]
 316:D:/fchai/work/i-cube/I-CUBE-HUAWEI/Middlewares/Third_Party/Huawei/iot_link/os/liteos/base/ipc\los_sem.c ****     LOS_TASK_CB *pstResumedTask;
 1002              		.loc 1 316 33 view .LVU305
 1003 000a 0601     		lsls	r6, r0, #4
 1004              	.LVL81:
 314:D:/fchai/work/i-cube/I-CUBE-HUAWEI/Middlewares/Third_Party/Huawei/iot_link/os/liteos/base/ipc\los_sem.c ****     UINT32      uwIntSave;
 1005              		.loc 1 314 1 view .LVU306
 1006 000c 82B0     		sub	sp, sp, #8
 1007              	.LCFI23:
 1008              		.cfi_def_cfa_offset 24
 316:D:/fchai/work/i-cube/I-CUBE-HUAWEI/Middlewares/Third_Party/Huawei/iot_link/os/liteos/base/ipc\los_sem.c ****     LOS_TASK_CB *pstResumedTask;
 1009              		.loc 1 316 18 view .LVU307
 1010 000e 05EB0014 		add	r4, r5, r0, lsl #4
 320:D:/fchai/work/i-cube/I-CUBE-HUAWEI/Middlewares/Third_Party/Huawei/iot_link/os/liteos/base/ipc\los_sem.c ****     {
 321:D:/fchai/work/i-cube/I-CUBE-HUAWEI/Middlewares/Third_Party/Huawei/iot_link/os/liteos/base/ipc\los_sem.c ****         return LOS_ERRNO_SEM_INVALID;
 322:D:/fchai/work/i-cube/I-CUBE-HUAWEI/Middlewares/Third_Party/Huawei/iot_link/os/liteos/base/ipc\los_sem.c ****     }
 323:D:/fchai/work/i-cube/I-CUBE-HUAWEI/Middlewares/Third_Party/Huawei/iot_link/os/liteos/base/ipc\los_sem.c **** 
 324:D:/fchai/work/i-cube/I-CUBE-HUAWEI/Middlewares/Third_Party/Huawei/iot_link/os/liteos/base/ipc\los_sem.c ****     uwIntSave = LOS_IntLock();
 1011              		.loc 1 324 5 is_stmt 1 view .LVU308
 1012              		.loc 1 324 17 is_stmt 0 view .LVU309
 1013 0012 FFF7FEFF 		bl	LOS_IntLock
 1014              	.LVL82:
 325:D:/fchai/work/i-cube/I-CUBE-HUAWEI/Middlewares/Third_Party/Huawei/iot_link/os/liteos/base/ipc\los_sem.c **** 
 326:D:/fchai/work/i-cube/I-CUBE-HUAWEI/Middlewares/Third_Party/Huawei/iot_link/os/liteos/base/ipc\los_sem.c ****     if (OS_SEM_UNUSED == pstSemPosted->usSemStat)
 1015              		.loc 1 326 8 view .LVU310
 1016 0016 AE5B     		ldrh	r6, [r5, r6]
 1017              	.LVL83:
 324:D:/fchai/work/i-cube/I-CUBE-HUAWEI/Middlewares/Third_Party/Huawei/iot_link/os/liteos/base/ipc\los_sem.c **** 
 1018              		.loc 1 324 17 view .LVU311
 1019 0018 0546     		mov	r5, r0
 1020              	.LVL84:
 1021              		.loc 1 326 5 is_stmt 1 view .LVU312
 1022              		.loc 1 326 8 is_stmt 0 view .LVU313
 1023 001a 0EB3     		cbz	r6, .L65
ARM GAS  T:\msys\tmp\ccvZtYVf.s 			page 31


 327:D:/fchai/work/i-cube/I-CUBE-HUAWEI/Middlewares/Third_Party/Huawei/iot_link/os/liteos/base/ipc\los_sem.c ****     {
 328:D:/fchai/work/i-cube/I-CUBE-HUAWEI/Middlewares/Third_Party/Huawei/iot_link/os/liteos/base/ipc\los_sem.c ****         LOS_IntRestore(uwIntSave);
 329:D:/fchai/work/i-cube/I-CUBE-HUAWEI/Middlewares/Third_Party/Huawei/iot_link/os/liteos/base/ipc\los_sem.c ****         OS_RETURN_ERROR(LOS_ERRNO_SEM_INVALID);
 1024              		.loc 1 329 9 is_stmt 1 view .LVU314
 330:D:/fchai/work/i-cube/I-CUBE-HUAWEI/Middlewares/Third_Party/Huawei/iot_link/os/liteos/base/ipc\los_sem.c ****     }
 331:D:/fchai/work/i-cube/I-CUBE-HUAWEI/Middlewares/Third_Party/Huawei/iot_link/os/liteos/base/ipc\los_sem.c **** 
 332:D:/fchai/work/i-cube/I-CUBE-HUAWEI/Middlewares/Third_Party/Huawei/iot_link/os/liteos/base/ipc\los_sem.c ****     if (pstSemPosted->usMaxSemCount == pstSemPosted->usSemCount)
 1025              		.loc 1 332 5 view .LVU315
 1026              		.loc 1 332 52 is_stmt 0 view .LVU316
 1027 001c 6288     		ldrh	r2, [r4, #2]
 1028              		.loc 1 332 8 view .LVU317
 1029 001e A388     		ldrh	r3, [r4, #4]
 1030 0020 9342     		cmp	r3, r2
 1031 0022 28D0     		beq	.L66
 333:D:/fchai/work/i-cube/I-CUBE-HUAWEI/Middlewares/Third_Party/Huawei/iot_link/os/liteos/base/ipc\los_sem.c ****     {
 334:D:/fchai/work/i-cube/I-CUBE-HUAWEI/Middlewares/Third_Party/Huawei/iot_link/os/liteos/base/ipc\los_sem.c ****         (VOID)LOS_IntRestore(uwIntSave);
 335:D:/fchai/work/i-cube/I-CUBE-HUAWEI/Middlewares/Third_Party/Huawei/iot_link/os/liteos/base/ipc\los_sem.c ****         OS_RETURN_ERROR(LOS_ERRNO_SEM_OVERFLOW);
 1032              		.loc 1 335 9 is_stmt 1 view .LVU318
 336:D:/fchai/work/i-cube/I-CUBE-HUAWEI/Middlewares/Third_Party/Huawei/iot_link/os/liteos/base/ipc\los_sem.c ****     }
 337:D:/fchai/work/i-cube/I-CUBE-HUAWEI/Middlewares/Third_Party/Huawei/iot_link/os/liteos/base/ipc\los_sem.c ****     if (!LOS_ListEmpty(&pstSemPosted->stSemList))
 1033              		.loc 1 337 5 view .LVU319
 1034              	.LVL85:
 1035              	.LBB64:
 1036              	.LBI64:
 213:D:/fchai/work/i-cube/I-CUBE-HUAWEI/Middlewares/Third_Party/Huawei/iot_link/os/liteos/include\los_list.h **** {
 1037              		.loc 2 213 43 view .LVU320
 1038              	.LBB65:
 1039              		.loc 2 215 5 view .LVU321
 1040              		.loc 2 215 26 is_stmt 0 view .LVU322
 1041 0024 E368     		ldr	r3, [r4, #12]
 1042              	.LVL86:
 1043              		.loc 2 215 26 view .LVU323
 1044              	.LBE65:
 1045              	.LBE64:
 1046              		.loc 1 337 10 view .LVU324
 1047 0026 04F10801 		add	r1, r4, #8
 1048              		.loc 1 337 8 view .LVU325
 1049 002a 8B42     		cmp	r3, r1
 1050 002c 11D0     		beq	.L59
 338:D:/fchai/work/i-cube/I-CUBE-HUAWEI/Middlewares/Third_Party/Huawei/iot_link/os/liteos/base/ipc\los_sem.c ****     {
 339:D:/fchai/work/i-cube/I-CUBE-HUAWEI/Middlewares/Third_Party/Huawei/iot_link/os/liteos/base/ipc\los_sem.c ****         pstResumedTask = OS_TCB_FROM_PENDLIST(LOS_DL_LIST_FIRST(&(pstSemPosted->stSemList))); /*lin
 1051              		.loc 1 339 9 is_stmt 1 view .LVU326
 1052              	.LVL87:
 340:D:/fchai/work/i-cube/I-CUBE-HUAWEI/Middlewares/Third_Party/Huawei/iot_link/os/liteos/base/ipc\los_sem.c ****         pstResumedTask->pTaskSem = NULL;
 1053              		.loc 1 340 9 view .LVU327
 1054              		.loc 1 340 34 is_stmt 0 view .LVU328
 1055 002e 0024     		movs	r4, #0
 341:D:/fchai/work/i-cube/I-CUBE-HUAWEI/Middlewares/Third_Party/Huawei/iot_link/os/liteos/base/ipc\los_sem.c ****         osTaskWake(pstResumedTask, OS_TASK_STATUS_PEND);
 1056              		.loc 1 341 9 view .LVU329
 1057 0030 A3F12800 		sub	r0, r3, #40
 1058              	.LVL88:
 340:D:/fchai/work/i-cube/I-CUBE-HUAWEI/Middlewares/Third_Party/Huawei/iot_link/os/liteos/base/ipc\los_sem.c ****         pstResumedTask->pTaskSem = NULL;
 1059              		.loc 1 340 34 view .LVU330
 1060 0034 43F8104C 		str	r4, [r3, #-16]
 1061              		.loc 1 341 9 is_stmt 1 view .LVU331
 1062 0038 0821     		movs	r1, #8
 1063 003a FFF7FEFF 		bl	osTaskWake
ARM GAS  T:\msys\tmp\ccvZtYVf.s 			page 32


 1064              	.LVL89:
 342:D:/fchai/work/i-cube/I-CUBE-HUAWEI/Middlewares/Third_Party/Huawei/iot_link/os/liteos/base/ipc\los_sem.c **** 
 343:D:/fchai/work/i-cube/I-CUBE-HUAWEI/Middlewares/Third_Party/Huawei/iot_link/os/liteos/base/ipc\los_sem.c ****         (VOID)LOS_IntRestore(uwIntSave);
 1065              		.loc 1 343 9 view .LVU332
 1066 003e 2846     		mov	r0, r5
 1067 0040 FFF7FEFF 		bl	LOS_IntRestore
 1068              	.LVL90:
 344:D:/fchai/work/i-cube/I-CUBE-HUAWEI/Middlewares/Third_Party/Huawei/iot_link/os/liteos/base/ipc\los_sem.c ****         LOS_Schedule();
 1069              		.loc 1 344 9 view .LVU333
 1070 0044 FFF7FEFF 		bl	LOS_Schedule
 1071              	.LVL91:
 345:D:/fchai/work/i-cube/I-CUBE-HUAWEI/Middlewares/Third_Party/Huawei/iot_link/os/liteos/base/ipc\los_sem.c ****     }
 346:D:/fchai/work/i-cube/I-CUBE-HUAWEI/Middlewares/Third_Party/Huawei/iot_link/os/liteos/base/ipc\los_sem.c ****     else
 347:D:/fchai/work/i-cube/I-CUBE-HUAWEI/Middlewares/Third_Party/Huawei/iot_link/os/liteos/base/ipc\los_sem.c ****     {
 348:D:/fchai/work/i-cube/I-CUBE-HUAWEI/Middlewares/Third_Party/Huawei/iot_link/os/liteos/base/ipc\los_sem.c ****         pstSemPosted->usSemCount++;
 349:D:/fchai/work/i-cube/I-CUBE-HUAWEI/Middlewares/Third_Party/Huawei/iot_link/os/liteos/base/ipc\los_sem.c ****         (VOID)LOS_IntRestore(uwIntSave);
 350:D:/fchai/work/i-cube/I-CUBE-HUAWEI/Middlewares/Third_Party/Huawei/iot_link/os/liteos/base/ipc\los_sem.c ****     }
 351:D:/fchai/work/i-cube/I-CUBE-HUAWEI/Middlewares/Third_Party/Huawei/iot_link/os/liteos/base/ipc\los_sem.c **** 
 352:D:/fchai/work/i-cube/I-CUBE-HUAWEI/Middlewares/Third_Party/Huawei/iot_link/os/liteos/base/ipc\los_sem.c ****     return LOS_OK;
 1072              		.loc 1 352 12 is_stmt 0 view .LVU334
 1073 0048 2046     		mov	r0, r4
 1074              	.L55:
 353:D:/fchai/work/i-cube/I-CUBE-HUAWEI/Middlewares/Third_Party/Huawei/iot_link/os/liteos/base/ipc\los_sem.c **** }
 1075              		.loc 1 353 1 view .LVU335
 1076 004a 02B0     		add	sp, sp, #8
 1077              	.LCFI24:
 1078              		.cfi_def_cfa_offset 16
 1079              		@ sp needed
 1080 004c 70BD     		pop	{r4, r5, r6, pc}
 1081              	.LVL92:
 1082              	.L60:
 1083              	.LCFI25:
 1084              		.cfi_def_cfa_offset 0
 1085              		.cfi_restore 4
 1086              		.cfi_restore 5
 1087              		.cfi_restore 6
 1088              		.cfi_restore 14
 321:D:/fchai/work/i-cube/I-CUBE-HUAWEI/Middlewares/Third_Party/Huawei/iot_link/os/liteos/base/ipc\los_sem.c ****     }
 1089              		.loc 1 321 16 view .LVU336
 1090 004e 1048     		ldr	r0, .L67+4
 1091              	.LVL93:
 1092              		.loc 1 353 1 view .LVU337
 1093 0050 7047     		bx	lr
 1094              	.LVL94:
 1095              	.L59:
 1096              	.LCFI26:
 1097              		.cfi_def_cfa_offset 24
 1098              		.cfi_offset 4, -16
 1099              		.cfi_offset 5, -12
 1100              		.cfi_offset 6, -8
 1101              		.cfi_offset 14, -4
 348:D:/fchai/work/i-cube/I-CUBE-HUAWEI/Middlewares/Third_Party/Huawei/iot_link/os/liteos/base/ipc\los_sem.c ****         (VOID)LOS_IntRestore(uwIntSave);
 1102              		.loc 1 348 9 is_stmt 1 view .LVU338
 348:D:/fchai/work/i-cube/I-CUBE-HUAWEI/Middlewares/Third_Party/Huawei/iot_link/os/liteos/base/ipc\los_sem.c ****         (VOID)LOS_IntRestore(uwIntSave);
 1103              		.loc 1 348 33 is_stmt 0 view .LVU339
 1104 0052 0132     		adds	r2, r2, #1
 1105 0054 6280     		strh	r2, [r4, #2]	@ movhi
ARM GAS  T:\msys\tmp\ccvZtYVf.s 			page 33


 349:D:/fchai/work/i-cube/I-CUBE-HUAWEI/Middlewares/Third_Party/Huawei/iot_link/os/liteos/base/ipc\los_sem.c ****     }
 1106              		.loc 1 349 9 is_stmt 1 view .LVU340
 1107 0056 FFF7FEFF 		bl	LOS_IntRestore
 1108              	.LVL95:
 352:D:/fchai/work/i-cube/I-CUBE-HUAWEI/Middlewares/Third_Party/Huawei/iot_link/os/liteos/base/ipc\los_sem.c **** }
 1109              		.loc 1 352 12 is_stmt 0 view .LVU341
 1110 005a 0020     		movs	r0, #0
 1111              		.loc 1 353 1 view .LVU342
 1112 005c 02B0     		add	sp, sp, #8
 1113              	.LCFI27:
 1114              		.cfi_remember_state
 1115              		.cfi_def_cfa_offset 16
 1116              		@ sp needed
 1117 005e 70BD     		pop	{r4, r5, r6, pc}
 1118              	.LVL96:
 1119              	.L65:
 1120              	.LCFI28:
 1121              		.cfi_restore_state
 328:D:/fchai/work/i-cube/I-CUBE-HUAWEI/Middlewares/Third_Party/Huawei/iot_link/os/liteos/base/ipc\los_sem.c ****         OS_RETURN_ERROR(LOS_ERRNO_SEM_INVALID);
 1122              		.loc 1 328 9 is_stmt 1 view .LVU343
 1123 0060 FFF7FEFF 		bl	LOS_IntRestore
 1124              	.LVL97:
 329:D:/fchai/work/i-cube/I-CUBE-HUAWEI/Middlewares/Third_Party/Huawei/iot_link/os/liteos/base/ipc\los_sem.c ****     }
 1125              		.loc 1 329 9 view .LVU344
 329:D:/fchai/work/i-cube/I-CUBE-HUAWEI/Middlewares/Third_Party/Huawei/iot_link/os/liteos/base/ipc\los_sem.c ****     }
 1126              		.loc 1 329 9 view .LVU345
 1127 0064 0A4A     		ldr	r2, .L67+4
 1128 0066 0B49     		ldr	r1, .L67+8
 1129 0068 0B48     		ldr	r0, .L67+12
 1130 006a 0096     		str	r6, [sp]
 1131 006c 3346     		mov	r3, r6
 1132 006e FFF7FEFF 		bl	LOS_ErrHandle
 1133              	.LVL98:
 329:D:/fchai/work/i-cube/I-CUBE-HUAWEI/Middlewares/Third_Party/Huawei/iot_link/os/liteos/base/ipc\los_sem.c ****     }
 1134              		.loc 1 329 9 view .LVU346
 1135 0072 0748     		ldr	r0, .L67+4
 1136 0074 E9E7     		b	.L55
 1137              	.LVL99:
 1138              	.L66:
 334:D:/fchai/work/i-cube/I-CUBE-HUAWEI/Middlewares/Third_Party/Huawei/iot_link/os/liteos/base/ipc\los_sem.c ****         OS_RETURN_ERROR(LOS_ERRNO_SEM_OVERFLOW);
 1139              		.loc 1 334 9 view .LVU347
 1140 0076 FFF7FEFF 		bl	LOS_IntRestore
 1141              	.LVL100:
 335:D:/fchai/work/i-cube/I-CUBE-HUAWEI/Middlewares/Third_Party/Huawei/iot_link/os/liteos/base/ipc\los_sem.c ****     }
 1142              		.loc 1 335 9 view .LVU348
 335:D:/fchai/work/i-cube/I-CUBE-HUAWEI/Middlewares/Third_Party/Huawei/iot_link/os/liteos/base/ipc\los_sem.c ****     }
 1143              		.loc 1 335 9 view .LVU349
 1144 007a 0023     		movs	r3, #0
 1145 007c 074A     		ldr	r2, .L67+16
 1146 007e 0549     		ldr	r1, .L67+8
 1147 0080 0548     		ldr	r0, .L67+12
 1148 0082 0093     		str	r3, [sp]
 1149 0084 FFF7FEFF 		bl	LOS_ErrHandle
 1150              	.LVL101:
 335:D:/fchai/work/i-cube/I-CUBE-HUAWEI/Middlewares/Third_Party/Huawei/iot_link/os/liteos/base/ipc\los_sem.c ****     }
 1151              		.loc 1 335 9 view .LVU350
 1152 0088 0448     		ldr	r0, .L67+16
ARM GAS  T:\msys\tmp\ccvZtYVf.s 			page 34


 1153 008a DEE7     		b	.L55
 1154              	.L68:
 1155              		.align	2
 1156              	.L67:
 1157 008c 00000000 		.word	g_pstAllSem
 1158 0090 01070002 		.word	33556225
 1159 0094 F8C3B2A1 		.word	-1582119944
 1160 0098 00000000 		.word	.LC0
 1161 009c 08070002 		.word	33556232
 1162              		.cfi_endproc
 1163              	.LFE141:
 1165              		.comm	g_pstAllSem,4,4
 1166              		.comm	g_stUnusedSemList,8,4
 1167              		.text
 1168              	.Letext0:
 1169              		.file 3 "t:\\msys\\3rd\\gcc-arm-none-eabi-9-2020-q2-update-win32\\lib\\gcc\\arm-none-eabi\\9.3.1\\
 1170              		.file 4 "t:\\msys\\3rd\\gcc-arm-none-eabi-9-2020-q2-update-win32\\arm-none-eabi\\include\\machine\
 1171              		.file 5 "t:\\msys\\3rd\\gcc-arm-none-eabi-9-2020-q2-update-win32\\arm-none-eabi\\include\\sys\\_ty
 1172              		.file 6 "t:\\msys\\3rd\\gcc-arm-none-eabi-9-2020-q2-update-win32\\arm-none-eabi\\include\\sys\\ree
 1173              		.file 7 "t:\\msys\\3rd\\gcc-arm-none-eabi-9-2020-q2-update-win32\\arm-none-eabi\\include\\sys\\loc
 1174              		.file 8 "D:/fchai/work/i-cube/I-CUBE-HUAWEI/Middlewares/Third_Party/Huawei/iot_link/os/liteos/incl
 1175              		.file 9 "t:\\msys\\3rd\\gcc-arm-none-eabi-9-2020-q2-update-win32\\arm-none-eabi\\include\\sys\\_st
 1176              		.file 10 "D:/fchai/work/i-cube/I-CUBE-HUAWEI/Middlewares/Third_Party/Huawei/iot_link/os/liteos/arc
 1177              		.file 11 "D:/fchai/work/i-cube/I-CUBE-HUAWEI/Drivers/CMSIS/Device/ST/STM32L4xx/Include/system_stm3
 1178              		.file 12 "D:/fchai/work/i-cube/I-CUBE-HUAWEI/Drivers/STM32L4xx_HAL_Driver/Inc/stm32l4xx_hal_def.h"
 1179              		.file 13 "D:/fchai/work/i-cube/I-CUBE-HUAWEI/Drivers/STM32L4xx_HAL_Driver/Inc/stm32l4xx_hal_flash.
 1180              		.file 14 "D:/fchai/work/i-cube/I-CUBE-HUAWEI/Drivers/STM32L4xx_HAL_Driver/Inc/stm32l4xx_hal.h"
 1181              		.file 15 "D:/fchai/work/i-cube/I-CUBE-HUAWEI/Middlewares/Third_Party/Huawei/iot_link/os/liteos/inc
 1182              		.file 16 "D:/fchai/work/i-cube/I-CUBE-HUAWEI/Middlewares/Third_Party/Huawei/iot_link/os/liteos/inc
 1183              		.file 17 "D:/fchai/work/i-cube/I-CUBE-HUAWEI/Middlewares/Third_Party/Huawei/iot_link/os/liteos/arc
 1184              		.file 18 "D:/fchai/work/i-cube/I-CUBE-HUAWEI/Middlewares/Third_Party/Huawei/iot_link/os/liteos/inc
 1185              		.file 19 "D:/fchai/work/i-cube/I-CUBE-HUAWEI/Middlewares/Third_Party/Huawei/iot_link/os/liteos/inc
 1186              		.file 20 "D:/fchai/work/i-cube/I-CUBE-HUAWEI/Middlewares/Third_Party/Huawei/iot_link/os/liteos/inc
 1187              		.file 21 "D:/fchai/work/i-cube/I-CUBE-HUAWEI/Middlewares/Third_Party/Huawei/iot_link/os/liteos/bas
 1188              		.file 22 "D:/fchai/work/i-cube/I-CUBE-HUAWEI/Middlewares/Third_Party/Huawei/iot_link/os/liteos/inc
 1189              		.file 23 "D:/fchai/work/i-cube/I-CUBE-HUAWEI/Middlewares/Third_Party/Huawei/iot_link/os/liteos/bas
 1190              		.file 24 "t:\\msys\\3rd\\gcc-arm-none-eabi-9-2020-q2-update-win32\\arm-none-eabi\\include\\stdio.h
 1191              		.file 25 "<built-in>"
ARM GAS  T:\msys\tmp\ccvZtYVf.s 			page 35

