ARM GAS  T:\msys\tmp\ccLNSFcc.s 			page 1


   1              		.cpu cortex-m4
   2              		.eabi_attribute 27, 1
   3              		.eabi_attribute 28, 1
   4              		.eabi_attribute 20, 1
   5              		.eabi_attribute 21, 1
   6              		.eabi_attribute 23, 3
   7              		.eabi_attribute 24, 1
   8              		.eabi_attribute 25, 1
   9              		.eabi_attribute 26, 1
  10              		.eabi_attribute 30, 2
  11              		.eabi_attribute 34, 1
  12              		.eabi_attribute 18, 4
  13              		.file	"los_queue.c"
  14              		.text
  15              	.Ltext0:
  16              		.cfi_sections	.debug_frame
  17              		.section	.text.osQueueInit,"ax",%progbits
  18              		.align	1
  19              		.p2align 2,,3
  20              		.global	osQueueInit
  21              		.arch armv7e-m
  22              		.syntax unified
  23              		.thumb
  24              		.thumb_func
  25              		.fpu fpv4-sp-d16
  27              	osQueueInit:
  28              	.LFB133:
  29              		.file 1 "D:/fchai/work/i-cube/I-CUBE-HUAWEI/Middlewares/Third_Party/Huawei/iot_link/os/liteos/base
   1:D:/fchai/work/i-cube/I-CUBE-HUAWEI/Middlewares/Third_Party/Huawei/iot_link/os/liteos/base/ipc\los_queue.c **** /*----------------------------------------------------------------------------
   2:D:/fchai/work/i-cube/I-CUBE-HUAWEI/Middlewares/Third_Party/Huawei/iot_link/os/liteos/base/ipc\los_queue.c ****  * Copyright (c) <2013-2015>, <Huawei Technologies Co., Ltd>
   3:D:/fchai/work/i-cube/I-CUBE-HUAWEI/Middlewares/Third_Party/Huawei/iot_link/os/liteos/base/ipc\los_queue.c ****  * All rights reserved.
   4:D:/fchai/work/i-cube/I-CUBE-HUAWEI/Middlewares/Third_Party/Huawei/iot_link/os/liteos/base/ipc\los_queue.c ****  * Redistribution and use in source and binary forms, with or without modification,
   5:D:/fchai/work/i-cube/I-CUBE-HUAWEI/Middlewares/Third_Party/Huawei/iot_link/os/liteos/base/ipc\los_queue.c ****  * are permitted provided that the following conditions are met:
   6:D:/fchai/work/i-cube/I-CUBE-HUAWEI/Middlewares/Third_Party/Huawei/iot_link/os/liteos/base/ipc\los_queue.c ****  * 1. Redistributions of source code must retain the above copyright notice, this list of
   7:D:/fchai/work/i-cube/I-CUBE-HUAWEI/Middlewares/Third_Party/Huawei/iot_link/os/liteos/base/ipc\los_queue.c ****  * conditions and the following disclaimer.
   8:D:/fchai/work/i-cube/I-CUBE-HUAWEI/Middlewares/Third_Party/Huawei/iot_link/os/liteos/base/ipc\los_queue.c ****  * 2. Redistributions in binary form must reproduce the above copyright notice, this list
   9:D:/fchai/work/i-cube/I-CUBE-HUAWEI/Middlewares/Third_Party/Huawei/iot_link/os/liteos/base/ipc\los_queue.c ****  * of conditions and the following disclaimer in the documentation and/or other materials
  10:D:/fchai/work/i-cube/I-CUBE-HUAWEI/Middlewares/Third_Party/Huawei/iot_link/os/liteos/base/ipc\los_queue.c ****  * provided with the distribution.
  11:D:/fchai/work/i-cube/I-CUBE-HUAWEI/Middlewares/Third_Party/Huawei/iot_link/os/liteos/base/ipc\los_queue.c ****  * 3. Neither the name of the copyright holder nor the names of its contributors may be used
  12:D:/fchai/work/i-cube/I-CUBE-HUAWEI/Middlewares/Third_Party/Huawei/iot_link/os/liteos/base/ipc\los_queue.c ****  * to endorse or promote products derived from this software without specific prior written
  13:D:/fchai/work/i-cube/I-CUBE-HUAWEI/Middlewares/Third_Party/Huawei/iot_link/os/liteos/base/ipc\los_queue.c ****  * permission.
  14:D:/fchai/work/i-cube/I-CUBE-HUAWEI/Middlewares/Third_Party/Huawei/iot_link/os/liteos/base/ipc\los_queue.c ****  * THIS SOFTWARE IS PROVIDED BY THE COPYRIGHT HOLDERS AND CONTRIBUTORS
  15:D:/fchai/work/i-cube/I-CUBE-HUAWEI/Middlewares/Third_Party/Huawei/iot_link/os/liteos/base/ipc\los_queue.c ****  * "AS IS" AND ANY EXPRESS OR IMPLIED WARRANTIES, INCLUDING, BUT NOT LIMITED TO,
  16:D:/fchai/work/i-cube/I-CUBE-HUAWEI/Middlewares/Third_Party/Huawei/iot_link/os/liteos/base/ipc\los_queue.c ****  * THE IMPLIED WARRANTIES OF MERCHANTABILITY AND FITNESS FOR A PARTICULAR
  17:D:/fchai/work/i-cube/I-CUBE-HUAWEI/Middlewares/Third_Party/Huawei/iot_link/os/liteos/base/ipc\los_queue.c ****  * PURPOSE ARE DISCLAIMED. IN NO EVENT SHALL THE COPYRIGHT HOLDER OR
  18:D:/fchai/work/i-cube/I-CUBE-HUAWEI/Middlewares/Third_Party/Huawei/iot_link/os/liteos/base/ipc\los_queue.c ****  * CONTRIBUTORS BE LIABLE FOR ANY DIRECT, INDIRECT, INCIDENTAL, SPECIAL,
  19:D:/fchai/work/i-cube/I-CUBE-HUAWEI/Middlewares/Third_Party/Huawei/iot_link/os/liteos/base/ipc\los_queue.c ****  * EXEMPLARY, OR CONSEQUENTIAL DAMAGES (INCLUDING, BUT NOT LIMITED TO,
  20:D:/fchai/work/i-cube/I-CUBE-HUAWEI/Middlewares/Third_Party/Huawei/iot_link/os/liteos/base/ipc\los_queue.c ****  * PROCUREMENT OF SUBSTITUTE GOODS OR SERVICES; LOSS OF USE, DATA, OR PROFITS;
  21:D:/fchai/work/i-cube/I-CUBE-HUAWEI/Middlewares/Third_Party/Huawei/iot_link/os/liteos/base/ipc\los_queue.c ****  * OR BUSINESS INTERRUPTION) HOWEVER CAUSED AND ON ANY THEORY OF LIABILITY,
  22:D:/fchai/work/i-cube/I-CUBE-HUAWEI/Middlewares/Third_Party/Huawei/iot_link/os/liteos/base/ipc\los_queue.c ****  * WHETHER IN CONTRACT, STRICT LIABILITY, OR TORT (INCLUDING NEGLIGENCE OR
  23:D:/fchai/work/i-cube/I-CUBE-HUAWEI/Middlewares/Third_Party/Huawei/iot_link/os/liteos/base/ipc\los_queue.c ****  * OTHERWISE) ARISING IN ANY WAY OUT OF THE USE OF THIS SOFTWARE, EVEN IF
  24:D:/fchai/work/i-cube/I-CUBE-HUAWEI/Middlewares/Third_Party/Huawei/iot_link/os/liteos/base/ipc\los_queue.c ****  * ADVISED OF THE POSSIBILITY OF SUCH DAMAGE.
  25:D:/fchai/work/i-cube/I-CUBE-HUAWEI/Middlewares/Third_Party/Huawei/iot_link/os/liteos/base/ipc\los_queue.c ****  *---------------------------------------------------------------------------*/
  26:D:/fchai/work/i-cube/I-CUBE-HUAWEI/Middlewares/Third_Party/Huawei/iot_link/os/liteos/base/ipc\los_queue.c **** /*----------------------------------------------------------------------------
  27:D:/fchai/work/i-cube/I-CUBE-HUAWEI/Middlewares/Third_Party/Huawei/iot_link/os/liteos/base/ipc\los_queue.c ****  * Notice of Export Control Law
  28:D:/fchai/work/i-cube/I-CUBE-HUAWEI/Middlewares/Third_Party/Huawei/iot_link/os/liteos/base/ipc\los_queue.c ****  * ===============================================
  29:D:/fchai/work/i-cube/I-CUBE-HUAWEI/Middlewares/Third_Party/Huawei/iot_link/os/liteos/base/ipc\los_queue.c ****  * Huawei LiteOS may be subject to applicable export control laws and regulations, which might
ARM GAS  T:\msys\tmp\ccLNSFcc.s 			page 2


  30:D:/fchai/work/i-cube/I-CUBE-HUAWEI/Middlewares/Third_Party/Huawei/iot_link/os/liteos/base/ipc\los_queue.c ****  * include those applicable to Huawei LiteOS of U.S. and the country in which you are located.
  31:D:/fchai/work/i-cube/I-CUBE-HUAWEI/Middlewares/Third_Party/Huawei/iot_link/os/liteos/base/ipc\los_queue.c ****  * Import, export and usage of Huawei LiteOS in any manner by you shall be in compliance with such
  32:D:/fchai/work/i-cube/I-CUBE-HUAWEI/Middlewares/Third_Party/Huawei/iot_link/os/liteos/base/ipc\los_queue.c ****  * applicable export control laws and regulations.
  33:D:/fchai/work/i-cube/I-CUBE-HUAWEI/Middlewares/Third_Party/Huawei/iot_link/os/liteos/base/ipc\los_queue.c ****  *---------------------------------------------------------------------------*/
  34:D:/fchai/work/i-cube/I-CUBE-HUAWEI/Middlewares/Third_Party/Huawei/iot_link/os/liteos/base/ipc\los_queue.c **** #include "string.h"
  35:D:/fchai/work/i-cube/I-CUBE-HUAWEI/Middlewares/Third_Party/Huawei/iot_link/os/liteos/base/ipc\los_queue.c **** #include "los_queue.ph"
  36:D:/fchai/work/i-cube/I-CUBE-HUAWEI/Middlewares/Third_Party/Huawei/iot_link/os/liteos/base/ipc\los_queue.c **** #include "los_membox.ph"
  37:D:/fchai/work/i-cube/I-CUBE-HUAWEI/Middlewares/Third_Party/Huawei/iot_link/os/liteos/base/ipc\los_queue.c **** #include "los_memory.ph"
  38:D:/fchai/work/i-cube/I-CUBE-HUAWEI/Middlewares/Third_Party/Huawei/iot_link/os/liteos/base/ipc\los_queue.c **** #include "los_priqueue.ph"
  39:D:/fchai/work/i-cube/I-CUBE-HUAWEI/Middlewares/Third_Party/Huawei/iot_link/os/liteos/base/ipc\los_queue.c **** #include "los_task.ph"
  40:D:/fchai/work/i-cube/I-CUBE-HUAWEI/Middlewares/Third_Party/Huawei/iot_link/os/liteos/base/ipc\los_queue.c **** #if (LOSCFG_PLATFORM_EXC == YES)
  41:D:/fchai/work/i-cube/I-CUBE-HUAWEI/Middlewares/Third_Party/Huawei/iot_link/os/liteos/base/ipc\los_queue.c **** #include "los_exc.ph"
  42:D:/fchai/work/i-cube/I-CUBE-HUAWEI/Middlewares/Third_Party/Huawei/iot_link/os/liteos/base/ipc\los_queue.c **** #endif
  43:D:/fchai/work/i-cube/I-CUBE-HUAWEI/Middlewares/Third_Party/Huawei/iot_link/os/liteos/base/ipc\los_queue.c **** 
  44:D:/fchai/work/i-cube/I-CUBE-HUAWEI/Middlewares/Third_Party/Huawei/iot_link/os/liteos/base/ipc\los_queue.c **** #ifdef __cplusplus
  45:D:/fchai/work/i-cube/I-CUBE-HUAWEI/Middlewares/Third_Party/Huawei/iot_link/os/liteos/base/ipc\los_queue.c **** #if __cplusplus
  46:D:/fchai/work/i-cube/I-CUBE-HUAWEI/Middlewares/Third_Party/Huawei/iot_link/os/liteos/base/ipc\los_queue.c **** extern "C"{
  47:D:/fchai/work/i-cube/I-CUBE-HUAWEI/Middlewares/Third_Party/Huawei/iot_link/os/liteos/base/ipc\los_queue.c **** #endif
  48:D:/fchai/work/i-cube/I-CUBE-HUAWEI/Middlewares/Third_Party/Huawei/iot_link/os/liteos/base/ipc\los_queue.c **** #endif /* __cplusplus */
  49:D:/fchai/work/i-cube/I-CUBE-HUAWEI/Middlewares/Third_Party/Huawei/iot_link/os/liteos/base/ipc\los_queue.c **** 
  50:D:/fchai/work/i-cube/I-CUBE-HUAWEI/Middlewares/Third_Party/Huawei/iot_link/os/liteos/base/ipc\los_queue.c **** #if (LOSCFG_BASE_IPC_QUEUE == YES)
  51:D:/fchai/work/i-cube/I-CUBE-HUAWEI/Middlewares/Third_Party/Huawei/iot_link/os/liteos/base/ipc\los_queue.c **** 
  52:D:/fchai/work/i-cube/I-CUBE-HUAWEI/Middlewares/Third_Party/Huawei/iot_link/os/liteos/base/ipc\los_queue.c **** /*lint -save -e64*/
  53:D:/fchai/work/i-cube/I-CUBE-HUAWEI/Middlewares/Third_Party/Huawei/iot_link/os/liteos/base/ipc\los_queue.c **** LITE_OS_SEC_BSS      QUEUE_CB_S       *g_pstAllQueue;
  54:D:/fchai/work/i-cube/I-CUBE-HUAWEI/Middlewares/Third_Party/Huawei/iot_link/os/liteos/base/ipc\los_queue.c **** LITE_OS_SEC_BSS      LOS_DL_LIST      g_stFreeQueueList;
  55:D:/fchai/work/i-cube/I-CUBE-HUAWEI/Middlewares/Third_Party/Huawei/iot_link/os/liteos/base/ipc\los_queue.c **** #if ((LOSCFG_PLATFORM_EXC == YES) && (LOSCFG_SAVE_EXC_INFO == YES))
  56:D:/fchai/work/i-cube/I-CUBE-HUAWEI/Middlewares/Third_Party/Huawei/iot_link/os/liteos/base/ipc\los_queue.c **** LITE_OS_SEC_BSS      UINT32           g_uwExcQueueMaxNum;
  57:D:/fchai/work/i-cube/I-CUBE-HUAWEI/Middlewares/Third_Party/Huawei/iot_link/os/liteos/base/ipc\los_queue.c **** #endif
  58:D:/fchai/work/i-cube/I-CUBE-HUAWEI/Middlewares/Third_Party/Huawei/iot_link/os/liteos/base/ipc\los_queue.c **** 
  59:D:/fchai/work/i-cube/I-CUBE-HUAWEI/Middlewares/Third_Party/Huawei/iot_link/os/liteos/base/ipc\los_queue.c **** /**************************************************************************
  60:D:/fchai/work/i-cube/I-CUBE-HUAWEI/Middlewares/Third_Party/Huawei/iot_link/os/liteos/base/ipc\los_queue.c ****  Function    : osQueueInit
  61:D:/fchai/work/i-cube/I-CUBE-HUAWEI/Middlewares/Third_Party/Huawei/iot_link/os/liteos/base/ipc\los_queue.c ****  Description : queue initial
  62:D:/fchai/work/i-cube/I-CUBE-HUAWEI/Middlewares/Third_Party/Huawei/iot_link/os/liteos/base/ipc\los_queue.c ****  Input       : None
  63:D:/fchai/work/i-cube/I-CUBE-HUAWEI/Middlewares/Third_Party/Huawei/iot_link/os/liteos/base/ipc\los_queue.c ****  Output      : None
  64:D:/fchai/work/i-cube/I-CUBE-HUAWEI/Middlewares/Third_Party/Huawei/iot_link/os/liteos/base/ipc\los_queue.c ****  Return      : LOS_OK on success or error code on failure
  65:D:/fchai/work/i-cube/I-CUBE-HUAWEI/Middlewares/Third_Party/Huawei/iot_link/os/liteos/base/ipc\los_queue.c **** **************************************************************************/
  66:D:/fchai/work/i-cube/I-CUBE-HUAWEI/Middlewares/Third_Party/Huawei/iot_link/os/liteos/base/ipc\los_queue.c **** LITE_OS_SEC_TEXT_INIT UINT32 osQueueInit(VOID)
  67:D:/fchai/work/i-cube/I-CUBE-HUAWEI/Middlewares/Third_Party/Huawei/iot_link/os/liteos/base/ipc\los_queue.c **** {
  30              		.loc 1 67 1 view -0
  31              		.cfi_startproc
  32              		@ args = 0, pretend = 0, frame = 0
  33              		@ frame_needed = 0, uses_anonymous_args = 0
  68:D:/fchai/work/i-cube/I-CUBE-HUAWEI/Middlewares/Third_Party/Huawei/iot_link/os/liteos/base/ipc\los_queue.c ****     QUEUE_CB_S *pstQueueNode;
  34              		.loc 1 68 5 view .LVU1
  69:D:/fchai/work/i-cube/I-CUBE-HUAWEI/Middlewares/Third_Party/Huawei/iot_link/os/liteos/base/ipc\los_queue.c ****     UINT16   usIndex;
  35              		.loc 1 69 5 view .LVU2
  70:D:/fchai/work/i-cube/I-CUBE-HUAWEI/Middlewares/Third_Party/Huawei/iot_link/os/liteos/base/ipc\los_queue.c **** 
  71:D:/fchai/work/i-cube/I-CUBE-HUAWEI/Middlewares/Third_Party/Huawei/iot_link/os/liteos/base/ipc\los_queue.c ****     if (0 == LOSCFG_BASE_IPC_QUEUE_LIMIT)   /*lint !e506*/
  36              		.loc 1 71 5 view .LVU3
  72:D:/fchai/work/i-cube/I-CUBE-HUAWEI/Middlewares/Third_Party/Huawei/iot_link/os/liteos/base/ipc\los_queue.c ****     {
  73:D:/fchai/work/i-cube/I-CUBE-HUAWEI/Middlewares/Third_Party/Huawei/iot_link/os/liteos/base/ipc\los_queue.c ****         return LOS_ERRNO_QUEUE_MAXNUM_ZERO;
  74:D:/fchai/work/i-cube/I-CUBE-HUAWEI/Middlewares/Third_Party/Huawei/iot_link/os/liteos/base/ipc\los_queue.c ****     }
  75:D:/fchai/work/i-cube/I-CUBE-HUAWEI/Middlewares/Third_Party/Huawei/iot_link/os/liteos/base/ipc\los_queue.c **** 
  76:D:/fchai/work/i-cube/I-CUBE-HUAWEI/Middlewares/Third_Party/Huawei/iot_link/os/liteos/base/ipc\los_queue.c ****     g_pstAllQueue = (QUEUE_CB_S *)LOS_MemAlloc(m_aucSysMem0, LOSCFG_BASE_IPC_QUEUE_LIMIT * sizeof(Q
  37              		.loc 1 76 5 view .LVU4
  38              		.loc 1 76 35 is_stmt 0 view .LVU5
  39 0000 144B     		ldr	r3, .L10
ARM GAS  T:\msys\tmp\ccLNSFcc.s 			page 3


  67:D:/fchai/work/i-cube/I-CUBE-HUAWEI/Middlewares/Third_Party/Huawei/iot_link/os/liteos/base/ipc\los_queue.c ****     QUEUE_CB_S *pstQueueNode;
  40              		.loc 1 67 1 view .LVU6
  41 0002 10B5     		push	{r4, lr}
  42              	.LCFI0:
  43              		.cfi_def_cfa_offset 8
  44              		.cfi_offset 4, -8
  45              		.cfi_offset 14, -4
  46              		.loc 1 76 35 view .LVU7
  47 0004 1868     		ldr	r0, [r3]
  48              		.loc 1 76 19 view .LVU8
  49 0006 144C     		ldr	r4, .L10+4
  50              		.loc 1 76 35 view .LVU9
  51 0008 4FF4DC71 		mov	r1, #440
  52 000c FFF7FEFF 		bl	LOS_MemAlloc
  53              	.LVL0:
  54              		.loc 1 76 19 view .LVU10
  55 0010 2060     		str	r0, [r4]
  77:D:/fchai/work/i-cube/I-CUBE-HUAWEI/Middlewares/Third_Party/Huawei/iot_link/os/liteos/base/ipc\los_queue.c ****     if (NULL == g_pstAllQueue)
  56              		.loc 1 77 5 is_stmt 1 view .LVU11
  57              		.loc 1 77 8 is_stmt 0 view .LVU12
  58 0012 E8B1     		cbz	r0, .L4
  78:D:/fchai/work/i-cube/I-CUBE-HUAWEI/Middlewares/Third_Party/Huawei/iot_link/os/liteos/base/ipc\los_queue.c ****     {
  79:D:/fchai/work/i-cube/I-CUBE-HUAWEI/Middlewares/Third_Party/Huawei/iot_link/os/liteos/base/ipc\los_queue.c ****         return LOS_ERRNO_QUEUE_NO_MEMORY;
  80:D:/fchai/work/i-cube/I-CUBE-HUAWEI/Middlewares/Third_Party/Huawei/iot_link/os/liteos/base/ipc\los_queue.c ****     }
  81:D:/fchai/work/i-cube/I-CUBE-HUAWEI/Middlewares/Third_Party/Huawei/iot_link/os/liteos/base/ipc\los_queue.c **** 
  82:D:/fchai/work/i-cube/I-CUBE-HUAWEI/Middlewares/Third_Party/Huawei/iot_link/os/liteos/base/ipc\los_queue.c ****     (VOID)memset(g_pstAllQueue, 0, LOSCFG_BASE_IPC_QUEUE_LIMIT * sizeof(QUEUE_CB_S));
  59              		.loc 1 82 5 is_stmt 1 view .LVU13
  60              		.loc 1 82 11 is_stmt 0 view .LVU14
  61 0014 4FF4DC72 		mov	r2, #440
  62 0018 0021     		movs	r1, #0
  63 001a FFF7FEFF 		bl	memset
  64              	.LVL1:
  83:D:/fchai/work/i-cube/I-CUBE-HUAWEI/Middlewares/Third_Party/Huawei/iot_link/os/liteos/base/ipc\los_queue.c **** 
  84:D:/fchai/work/i-cube/I-CUBE-HUAWEI/Middlewares/Third_Party/Huawei/iot_link/os/liteos/base/ipc\los_queue.c ****     LOS_ListInit(&g_stFreeQueueList);
  65              		.loc 1 84 5 is_stmt 1 view .LVU15
  66              	.LBB44:
  67              	.LBI44:
  68              		.file 2 "D:/fchai/work/i-cube/I-CUBE-HUAWEI/Middlewares/Third_Party/Huawei/iot_link/os/liteos/incl
   1:D:/fchai/work/i-cube/I-CUBE-HUAWEI/Middlewares/Third_Party/Huawei/iot_link/os/liteos/include\los_list.h **** /*----------------------------------------------------------------------------
   2:D:/fchai/work/i-cube/I-CUBE-HUAWEI/Middlewares/Third_Party/Huawei/iot_link/os/liteos/include\los_list.h ****  * Copyright (c) <2013-2015>, <Huawei Technologies Co., Ltd>
   3:D:/fchai/work/i-cube/I-CUBE-HUAWEI/Middlewares/Third_Party/Huawei/iot_link/os/liteos/include\los_list.h ****  * All rights reserved.
   4:D:/fchai/work/i-cube/I-CUBE-HUAWEI/Middlewares/Third_Party/Huawei/iot_link/os/liteos/include\los_list.h ****  * Redistribution and use in source and binary forms, with or without modification,
   5:D:/fchai/work/i-cube/I-CUBE-HUAWEI/Middlewares/Third_Party/Huawei/iot_link/os/liteos/include\los_list.h ****  * are permitted provided that the following conditions are met:
   6:D:/fchai/work/i-cube/I-CUBE-HUAWEI/Middlewares/Third_Party/Huawei/iot_link/os/liteos/include\los_list.h ****  * 1. Redistributions of source code must retain the above copyright notice, this list of
   7:D:/fchai/work/i-cube/I-CUBE-HUAWEI/Middlewares/Third_Party/Huawei/iot_link/os/liteos/include\los_list.h ****  * conditions and the following disclaimer.
   8:D:/fchai/work/i-cube/I-CUBE-HUAWEI/Middlewares/Third_Party/Huawei/iot_link/os/liteos/include\los_list.h ****  * 2. Redistributions in binary form must reproduce the above copyright notice, this list
   9:D:/fchai/work/i-cube/I-CUBE-HUAWEI/Middlewares/Third_Party/Huawei/iot_link/os/liteos/include\los_list.h ****  * of conditions and the following disclaimer in the documentation and/or other materials
  10:D:/fchai/work/i-cube/I-CUBE-HUAWEI/Middlewares/Third_Party/Huawei/iot_link/os/liteos/include\los_list.h ****  * provided with the distribution.
  11:D:/fchai/work/i-cube/I-CUBE-HUAWEI/Middlewares/Third_Party/Huawei/iot_link/os/liteos/include\los_list.h ****  * 3. Neither the name of the copyright holder nor the names of its contributors may be used
  12:D:/fchai/work/i-cube/I-CUBE-HUAWEI/Middlewares/Third_Party/Huawei/iot_link/os/liteos/include\los_list.h ****  * to endorse or promote products derived from this software without specific prior written
  13:D:/fchai/work/i-cube/I-CUBE-HUAWEI/Middlewares/Third_Party/Huawei/iot_link/os/liteos/include\los_list.h ****  * permission.
  14:D:/fchai/work/i-cube/I-CUBE-HUAWEI/Middlewares/Third_Party/Huawei/iot_link/os/liteos/include\los_list.h ****  * THIS SOFTWARE IS PROVIDED BY THE COPYRIGHT HOLDERS AND CONTRIBUTORS
  15:D:/fchai/work/i-cube/I-CUBE-HUAWEI/Middlewares/Third_Party/Huawei/iot_link/os/liteos/include\los_list.h ****  * "AS IS" AND ANY EXPRESS OR IMPLIED WARRANTIES, INCLUDING, BUT NOT LIMITED TO,
  16:D:/fchai/work/i-cube/I-CUBE-HUAWEI/Middlewares/Third_Party/Huawei/iot_link/os/liteos/include\los_list.h ****  * THE IMPLIED WARRANTIES OF MERCHANTABILITY AND FITNESS FOR A PARTICULAR
  17:D:/fchai/work/i-cube/I-CUBE-HUAWEI/Middlewares/Third_Party/Huawei/iot_link/os/liteos/include\los_list.h ****  * PURPOSE ARE DISCLAIMED. IN NO EVENT SHALL THE COPYRIGHT HOLDER OR
  18:D:/fchai/work/i-cube/I-CUBE-HUAWEI/Middlewares/Third_Party/Huawei/iot_link/os/liteos/include\los_list.h ****  * CONTRIBUTORS BE LIABLE FOR ANY DIRECT, INDIRECT, INCIDENTAL, SPECIAL,
  19:D:/fchai/work/i-cube/I-CUBE-HUAWEI/Middlewares/Third_Party/Huawei/iot_link/os/liteos/include\los_list.h ****  * EXEMPLARY, OR CONSEQUENTIAL DAMAGES (INCLUDING, BUT NOT LIMITED TO,
ARM GAS  T:\msys\tmp\ccLNSFcc.s 			page 4


  20:D:/fchai/work/i-cube/I-CUBE-HUAWEI/Middlewares/Third_Party/Huawei/iot_link/os/liteos/include\los_list.h ****  * PROCUREMENT OF SUBSTITUTE GOODS OR SERVICES; LOSS OF USE, DATA, OR PROFITS;
  21:D:/fchai/work/i-cube/I-CUBE-HUAWEI/Middlewares/Third_Party/Huawei/iot_link/os/liteos/include\los_list.h ****  * OR BUSINESS INTERRUPTION) HOWEVER CAUSED AND ON ANY THEORY OF LIABILITY,
  22:D:/fchai/work/i-cube/I-CUBE-HUAWEI/Middlewares/Third_Party/Huawei/iot_link/os/liteos/include\los_list.h ****  * WHETHER IN CONTRACT, STRICT LIABILITY, OR TORT (INCLUDING NEGLIGENCE OR
  23:D:/fchai/work/i-cube/I-CUBE-HUAWEI/Middlewares/Third_Party/Huawei/iot_link/os/liteos/include\los_list.h ****  * OTHERWISE) ARISING IN ANY WAY OUT OF THE USE OF THIS SOFTWARE, EVEN IF
  24:D:/fchai/work/i-cube/I-CUBE-HUAWEI/Middlewares/Third_Party/Huawei/iot_link/os/liteos/include\los_list.h ****  * ADVISED OF THE POSSIBILITY OF SUCH DAMAGE.
  25:D:/fchai/work/i-cube/I-CUBE-HUAWEI/Middlewares/Third_Party/Huawei/iot_link/os/liteos/include\los_list.h ****  *---------------------------------------------------------------------------*/
  26:D:/fchai/work/i-cube/I-CUBE-HUAWEI/Middlewares/Third_Party/Huawei/iot_link/os/liteos/include\los_list.h **** /*----------------------------------------------------------------------------
  27:D:/fchai/work/i-cube/I-CUBE-HUAWEI/Middlewares/Third_Party/Huawei/iot_link/os/liteos/include\los_list.h ****  * Notice of Export Control Law
  28:D:/fchai/work/i-cube/I-CUBE-HUAWEI/Middlewares/Third_Party/Huawei/iot_link/os/liteos/include\los_list.h ****  * ===============================================
  29:D:/fchai/work/i-cube/I-CUBE-HUAWEI/Middlewares/Third_Party/Huawei/iot_link/os/liteos/include\los_list.h ****  * Huawei LiteOS may be subject to applicable export control laws and regulations, which might
  30:D:/fchai/work/i-cube/I-CUBE-HUAWEI/Middlewares/Third_Party/Huawei/iot_link/os/liteos/include\los_list.h ****  * include those applicable to Huawei LiteOS of U.S. and the country in which you are located.
  31:D:/fchai/work/i-cube/I-CUBE-HUAWEI/Middlewares/Third_Party/Huawei/iot_link/os/liteos/include\los_list.h ****  * Import, export and usage of Huawei LiteOS in any manner by you shall be in compliance with such
  32:D:/fchai/work/i-cube/I-CUBE-HUAWEI/Middlewares/Third_Party/Huawei/iot_link/os/liteos/include\los_list.h ****  * applicable export control laws and regulations.
  33:D:/fchai/work/i-cube/I-CUBE-HUAWEI/Middlewares/Third_Party/Huawei/iot_link/os/liteos/include\los_list.h ****  *---------------------------------------------------------------------------*/
  34:D:/fchai/work/i-cube/I-CUBE-HUAWEI/Middlewares/Third_Party/Huawei/iot_link/os/liteos/include\los_list.h **** 
  35:D:/fchai/work/i-cube/I-CUBE-HUAWEI/Middlewares/Third_Party/Huawei/iot_link/os/liteos/include\los_list.h ****  /** @defgroup los_list Doubly linked list
  36:D:/fchai/work/i-cube/I-CUBE-HUAWEI/Middlewares/Third_Party/Huawei/iot_link/os/liteos/include\los_list.h ****  * @ingroup kernel
  37:D:/fchai/work/i-cube/I-CUBE-HUAWEI/Middlewares/Third_Party/Huawei/iot_link/os/liteos/include\los_list.h ****  */
  38:D:/fchai/work/i-cube/I-CUBE-HUAWEI/Middlewares/Third_Party/Huawei/iot_link/os/liteos/include\los_list.h **** 
  39:D:/fchai/work/i-cube/I-CUBE-HUAWEI/Middlewares/Third_Party/Huawei/iot_link/os/liteos/include\los_list.h **** #ifndef _LOS_LIST_H
  40:D:/fchai/work/i-cube/I-CUBE-HUAWEI/Middlewares/Third_Party/Huawei/iot_link/os/liteos/include\los_list.h **** #define _LOS_LIST_H
  41:D:/fchai/work/i-cube/I-CUBE-HUAWEI/Middlewares/Third_Party/Huawei/iot_link/os/liteos/include\los_list.h **** 
  42:D:/fchai/work/i-cube/I-CUBE-HUAWEI/Middlewares/Third_Party/Huawei/iot_link/os/liteos/include\los_list.h **** #include "los_typedef.h"
  43:D:/fchai/work/i-cube/I-CUBE-HUAWEI/Middlewares/Third_Party/Huawei/iot_link/os/liteos/include\los_list.h **** 
  44:D:/fchai/work/i-cube/I-CUBE-HUAWEI/Middlewares/Third_Party/Huawei/iot_link/os/liteos/include\los_list.h **** #ifdef __cplusplus
  45:D:/fchai/work/i-cube/I-CUBE-HUAWEI/Middlewares/Third_Party/Huawei/iot_link/os/liteos/include\los_list.h **** #if __cplusplus
  46:D:/fchai/work/i-cube/I-CUBE-HUAWEI/Middlewares/Third_Party/Huawei/iot_link/os/liteos/include\los_list.h **** extern "C" {
  47:D:/fchai/work/i-cube/I-CUBE-HUAWEI/Middlewares/Third_Party/Huawei/iot_link/os/liteos/include\los_list.h **** #endif /* __cplusplus */
  48:D:/fchai/work/i-cube/I-CUBE-HUAWEI/Middlewares/Third_Party/Huawei/iot_link/os/liteos/include\los_list.h **** #endif /* __cplusplus */
  49:D:/fchai/work/i-cube/I-CUBE-HUAWEI/Middlewares/Third_Party/Huawei/iot_link/os/liteos/include\los_list.h **** 
  50:D:/fchai/work/i-cube/I-CUBE-HUAWEI/Middlewares/Third_Party/Huawei/iot_link/os/liteos/include\los_list.h **** 
  51:D:/fchai/work/i-cube/I-CUBE-HUAWEI/Middlewares/Third_Party/Huawei/iot_link/os/liteos/include\los_list.h **** /**
  52:D:/fchai/work/i-cube/I-CUBE-HUAWEI/Middlewares/Third_Party/Huawei/iot_link/os/liteos/include\los_list.h ****  *@ingroup los_list
  53:D:/fchai/work/i-cube/I-CUBE-HUAWEI/Middlewares/Third_Party/Huawei/iot_link/os/liteos/include\los_list.h ****  *Structure of a node in a doubly linked list.
  54:D:/fchai/work/i-cube/I-CUBE-HUAWEI/Middlewares/Third_Party/Huawei/iot_link/os/liteos/include\los_list.h ****  */
  55:D:/fchai/work/i-cube/I-CUBE-HUAWEI/Middlewares/Third_Party/Huawei/iot_link/os/liteos/include\los_list.h **** typedef struct LOS_DL_LIST
  56:D:/fchai/work/i-cube/I-CUBE-HUAWEI/Middlewares/Third_Party/Huawei/iot_link/os/liteos/include\los_list.h **** {
  57:D:/fchai/work/i-cube/I-CUBE-HUAWEI/Middlewares/Third_Party/Huawei/iot_link/os/liteos/include\los_list.h ****     struct LOS_DL_LIST *pstPrev;            /**< Current node's pointer to the previous node*/
  58:D:/fchai/work/i-cube/I-CUBE-HUAWEI/Middlewares/Third_Party/Huawei/iot_link/os/liteos/include\los_list.h ****     struct LOS_DL_LIST *pstNext;            /**< Current node's pointer to the next node*/
  59:D:/fchai/work/i-cube/I-CUBE-HUAWEI/Middlewares/Third_Party/Huawei/iot_link/os/liteos/include\los_list.h **** } LOS_DL_LIST;
  60:D:/fchai/work/i-cube/I-CUBE-HUAWEI/Middlewares/Third_Party/Huawei/iot_link/os/liteos/include\los_list.h **** 
  61:D:/fchai/work/i-cube/I-CUBE-HUAWEI/Middlewares/Third_Party/Huawei/iot_link/os/liteos/include\los_list.h **** /**
  62:D:/fchai/work/i-cube/I-CUBE-HUAWEI/Middlewares/Third_Party/Huawei/iot_link/os/liteos/include\los_list.h ****  *@ingroup los_list
  63:D:/fchai/work/i-cube/I-CUBE-HUAWEI/Middlewares/Third_Party/Huawei/iot_link/os/liteos/include\los_list.h ****  *@brief Initialize a doubly linked list.
  64:D:/fchai/work/i-cube/I-CUBE-HUAWEI/Middlewares/Third_Party/Huawei/iot_link/os/liteos/include\los_list.h ****  *
  65:D:/fchai/work/i-cube/I-CUBE-HUAWEI/Middlewares/Third_Party/Huawei/iot_link/os/liteos/include\los_list.h ****  *@par Description:
  66:D:/fchai/work/i-cube/I-CUBE-HUAWEI/Middlewares/Third_Party/Huawei/iot_link/os/liteos/include\los_list.h ****  *This API is used to initialize a doubly linked list.
  67:D:/fchai/work/i-cube/I-CUBE-HUAWEI/Middlewares/Third_Party/Huawei/iot_link/os/liteos/include\los_list.h ****  *@attention
  68:D:/fchai/work/i-cube/I-CUBE-HUAWEI/Middlewares/Third_Party/Huawei/iot_link/os/liteos/include\los_list.h ****  *<ul>
  69:D:/fchai/work/i-cube/I-CUBE-HUAWEI/Middlewares/Third_Party/Huawei/iot_link/os/liteos/include\los_list.h ****  *<li>The parameter passed in should be ensured to be a legal pointer.</li>
  70:D:/fchai/work/i-cube/I-CUBE-HUAWEI/Middlewares/Third_Party/Huawei/iot_link/os/liteos/include\los_list.h ****  *</ul>
  71:D:/fchai/work/i-cube/I-CUBE-HUAWEI/Middlewares/Third_Party/Huawei/iot_link/os/liteos/include\los_list.h ****  *
  72:D:/fchai/work/i-cube/I-CUBE-HUAWEI/Middlewares/Third_Party/Huawei/iot_link/os/liteos/include\los_list.h ****  *@param pstList    [IN] Node in a doubly linked list.
  73:D:/fchai/work/i-cube/I-CUBE-HUAWEI/Middlewares/Third_Party/Huawei/iot_link/os/liteos/include\los_list.h ****  *
  74:D:/fchai/work/i-cube/I-CUBE-HUAWEI/Middlewares/Third_Party/Huawei/iot_link/os/liteos/include\los_list.h ****  *@retval None.
  75:D:/fchai/work/i-cube/I-CUBE-HUAWEI/Middlewares/Third_Party/Huawei/iot_link/os/liteos/include\los_list.h ****  *@par Dependency:
  76:D:/fchai/work/i-cube/I-CUBE-HUAWEI/Middlewares/Third_Party/Huawei/iot_link/os/liteos/include\los_list.h ****  *<ul><li>los_list.h: the header file that contains the API declaration.</li></ul>
ARM GAS  T:\msys\tmp\ccLNSFcc.s 			page 5


  77:D:/fchai/work/i-cube/I-CUBE-HUAWEI/Middlewares/Third_Party/Huawei/iot_link/os/liteos/include\los_list.h ****  *@see
  78:D:/fchai/work/i-cube/I-CUBE-HUAWEI/Middlewares/Third_Party/Huawei/iot_link/os/liteos/include\los_list.h ****  *@since Huawei LiteOS V100R001C00
  79:D:/fchai/work/i-cube/I-CUBE-HUAWEI/Middlewares/Third_Party/Huawei/iot_link/os/liteos/include\los_list.h ****  */
  80:D:/fchai/work/i-cube/I-CUBE-HUAWEI/Middlewares/Third_Party/Huawei/iot_link/os/liteos/include\los_list.h **** LITE_OS_SEC_ALW_INLINE STATIC_INLINE VOID LOS_ListInit(LOS_DL_LIST *pstList)
  69              		.loc 2 80 43 view .LVU16
  70              	.LBB45:
  81:D:/fchai/work/i-cube/I-CUBE-HUAWEI/Middlewares/Third_Party/Huawei/iot_link/os/liteos/include\los_list.h **** {
  82:D:/fchai/work/i-cube/I-CUBE-HUAWEI/Middlewares/Third_Party/Huawei/iot_link/os/liteos/include\los_list.h ****     pstList->pstNext = pstList;
  71              		.loc 2 82 5 view .LVU17
  72              		.loc 2 82 22 is_stmt 0 view .LVU18
  73 001e 0F4A     		ldr	r2, .L10+8
  74 0020 2368     		ldr	r3, [r4]
  75 0022 5260     		str	r2, [r2, #4]
  83:D:/fchai/work/i-cube/I-CUBE-HUAWEI/Middlewares/Third_Party/Huawei/iot_link/os/liteos/include\los_list.h ****     pstList->pstPrev = pstList;
  76              		.loc 2 83 5 is_stmt 1 view .LVU19
  77              	.LBE45:
  78              	.LBE44:
  85:D:/fchai/work/i-cube/I-CUBE-HUAWEI/Middlewares/Third_Party/Huawei/iot_link/os/liteos/base/ipc\los_queue.c ****     for (usIndex = 0; usIndex < LOSCFG_BASE_IPC_QUEUE_LIMIT; usIndex++)
  86:D:/fchai/work/i-cube/I-CUBE-HUAWEI/Middlewares/Third_Party/Huawei/iot_link/os/liteos/base/ipc\los_queue.c ****     {
  87:D:/fchai/work/i-cube/I-CUBE-HUAWEI/Middlewares/Third_Party/Huawei/iot_link/os/liteos/base/ipc\los_queue.c ****         pstQueueNode = ((QUEUE_CB_S *)g_pstAllQueue) + usIndex;
  79              		.loc 1 87 54 is_stmt 0 view .LVU20
  80 0024 1046     		mov	r0, r2
  81              	.LBB47:
  82              	.LBB46:
  83              		.loc 2 83 22 view .LVU21
  84 0026 1260     		str	r2, [r2]
  85              	.LVL2:
  86              		.loc 2 83 22 view .LVU22
  87              	.LBE46:
  88              	.LBE47:
  85:D:/fchai/work/i-cube/I-CUBE-HUAWEI/Middlewares/Third_Party/Huawei/iot_link/os/liteos/base/ipc\los_queue.c ****     for (usIndex = 0; usIndex < LOSCFG_BASE_IPC_QUEUE_LIMIT; usIndex++)
  89              		.loc 1 85 5 is_stmt 1 view .LVU23
  85:D:/fchai/work/i-cube/I-CUBE-HUAWEI/Middlewares/Third_Party/Huawei/iot_link/os/liteos/base/ipc\los_queue.c ****     for (usIndex = 0; usIndex < LOSCFG_BASE_IPC_QUEUE_LIMIT; usIndex++)
  90              		.loc 1 85 23 view .LVU24
  91              		.loc 1 87 54 is_stmt 0 view .LVU25
  92 0028 1446     		mov	r4, r2
  93 002a 1146     		mov	r1, r2
  94 002c 1C33     		adds	r3, r3, #28
  95 002e 0022     		movs	r2, #0
  96 0030 01E0     		b	.L3
  97              	.LVL3:
  98              	.L9:
  99              		.loc 1 87 54 view .LVU26
 100 0032 2168     		ldr	r1, [r4]
 101 0034 4868     		ldr	r0, [r1, #4]
 102              	.LVL4:
 103              	.L3:
 104              		.loc 1 87 9 is_stmt 1 discriminator 3 view .LVU27
  88:D:/fchai/work/i-cube/I-CUBE-HUAWEI/Middlewares/Third_Party/Huawei/iot_link/os/liteos/base/ipc\los_queue.c ****         pstQueueNode->usQueueID = usIndex;
 105              		.loc 1 88 9 discriminator 3 view .LVU28
 106              		.loc 1 88 33 is_stmt 0 discriminator 3 view .LVU29
 107 0036 23F8122C 		strh	r2, [r3, #-18]	@ movhi
  89:D:/fchai/work/i-cube/I-CUBE-HUAWEI/Middlewares/Third_Party/Huawei/iot_link/os/liteos/base/ipc\los_queue.c ****         LOS_ListTailInsert(&g_stFreeQueueList, &pstQueueNode->stReadWriteList[OS_QUEUE_WRITE]);
 108              		.loc 1 89 9 is_stmt 1 discriminator 3 view .LVU30
 109              	.LVL5:
 110              	.LBB48:
 111              	.LBI48:
ARM GAS  T:\msys\tmp\ccLNSFcc.s 			page 6


  84:D:/fchai/work/i-cube/I-CUBE-HUAWEI/Middlewares/Third_Party/Huawei/iot_link/os/liteos/include\los_list.h **** }
  85:D:/fchai/work/i-cube/I-CUBE-HUAWEI/Middlewares/Third_Party/Huawei/iot_link/os/liteos/include\los_list.h **** 
  86:D:/fchai/work/i-cube/I-CUBE-HUAWEI/Middlewares/Third_Party/Huawei/iot_link/os/liteos/include\los_list.h **** /**
  87:D:/fchai/work/i-cube/I-CUBE-HUAWEI/Middlewares/Third_Party/Huawei/iot_link/os/liteos/include\los_list.h ****  *@ingroup los_list
  88:D:/fchai/work/i-cube/I-CUBE-HUAWEI/Middlewares/Third_Party/Huawei/iot_link/os/liteos/include\los_list.h ****  *@brief Point to the next node pointed to by the current node.
  89:D:/fchai/work/i-cube/I-CUBE-HUAWEI/Middlewares/Third_Party/Huawei/iot_link/os/liteos/include\los_list.h ****  *
  90:D:/fchai/work/i-cube/I-CUBE-HUAWEI/Middlewares/Third_Party/Huawei/iot_link/os/liteos/include\los_list.h ****  *@par Description:
  91:D:/fchai/work/i-cube/I-CUBE-HUAWEI/Middlewares/Third_Party/Huawei/iot_link/os/liteos/include\los_list.h ****  *<ul>
  92:D:/fchai/work/i-cube/I-CUBE-HUAWEI/Middlewares/Third_Party/Huawei/iot_link/os/liteos/include\los_list.h ****  *<li>This API is used to point to the next node pointed to by the current node.</li>
  93:D:/fchai/work/i-cube/I-CUBE-HUAWEI/Middlewares/Third_Party/Huawei/iot_link/os/liteos/include\los_list.h ****  *</ul>
  94:D:/fchai/work/i-cube/I-CUBE-HUAWEI/Middlewares/Third_Party/Huawei/iot_link/os/liteos/include\los_list.h ****  *@attention
  95:D:/fchai/work/i-cube/I-CUBE-HUAWEI/Middlewares/Third_Party/Huawei/iot_link/os/liteos/include\los_list.h ****  *<ul>
  96:D:/fchai/work/i-cube/I-CUBE-HUAWEI/Middlewares/Third_Party/Huawei/iot_link/os/liteos/include\los_list.h ****  *<li>None.</li>
  97:D:/fchai/work/i-cube/I-CUBE-HUAWEI/Middlewares/Third_Party/Huawei/iot_link/os/liteos/include\los_list.h ****  *</ul>
  98:D:/fchai/work/i-cube/I-CUBE-HUAWEI/Middlewares/Third_Party/Huawei/iot_link/os/liteos/include\los_list.h ****  *
  99:D:/fchai/work/i-cube/I-CUBE-HUAWEI/Middlewares/Third_Party/Huawei/iot_link/os/liteos/include\los_list.h ****  *@param pstObject  [IN] Node in the doubly linked list.
 100:D:/fchai/work/i-cube/I-CUBE-HUAWEI/Middlewares/Third_Party/Huawei/iot_link/os/liteos/include\los_list.h ****  *
 101:D:/fchai/work/i-cube/I-CUBE-HUAWEI/Middlewares/Third_Party/Huawei/iot_link/os/liteos/include\los_list.h ****  *@retval None.
 102:D:/fchai/work/i-cube/I-CUBE-HUAWEI/Middlewares/Third_Party/Huawei/iot_link/os/liteos/include\los_list.h ****  *@par Dependency:
 103:D:/fchai/work/i-cube/I-CUBE-HUAWEI/Middlewares/Third_Party/Huawei/iot_link/os/liteos/include\los_list.h ****  *<ul><li>los_list.h: the header file that contains the API declaration.</li></ul>
 104:D:/fchai/work/i-cube/I-CUBE-HUAWEI/Middlewares/Third_Party/Huawei/iot_link/os/liteos/include\los_list.h ****  *@see
 105:D:/fchai/work/i-cube/I-CUBE-HUAWEI/Middlewares/Third_Party/Huawei/iot_link/os/liteos/include\los_list.h ****  *@since Huawei LiteOS V100R001C00
 106:D:/fchai/work/i-cube/I-CUBE-HUAWEI/Middlewares/Third_Party/Huawei/iot_link/os/liteos/include\los_list.h ****  */
 107:D:/fchai/work/i-cube/I-CUBE-HUAWEI/Middlewares/Third_Party/Huawei/iot_link/os/liteos/include\los_list.h **** #define LOS_DL_LIST_FIRST(pstObject) ((pstObject)->pstNext)
 108:D:/fchai/work/i-cube/I-CUBE-HUAWEI/Middlewares/Third_Party/Huawei/iot_link/os/liteos/include\los_list.h **** 
 109:D:/fchai/work/i-cube/I-CUBE-HUAWEI/Middlewares/Third_Party/Huawei/iot_link/os/liteos/include\los_list.h **** /**
 110:D:/fchai/work/i-cube/I-CUBE-HUAWEI/Middlewares/Third_Party/Huawei/iot_link/os/liteos/include\los_list.h ****  *@ingroup los_list
 111:D:/fchai/work/i-cube/I-CUBE-HUAWEI/Middlewares/Third_Party/Huawei/iot_link/os/liteos/include\los_list.h ****  *@brief Insert a new node to a doubly linked list.
 112:D:/fchai/work/i-cube/I-CUBE-HUAWEI/Middlewares/Third_Party/Huawei/iot_link/os/liteos/include\los_list.h ****  *
 113:D:/fchai/work/i-cube/I-CUBE-HUAWEI/Middlewares/Third_Party/Huawei/iot_link/os/liteos/include\los_list.h ****  *@par Description:
 114:D:/fchai/work/i-cube/I-CUBE-HUAWEI/Middlewares/Third_Party/Huawei/iot_link/os/liteos/include\los_list.h ****  *This API is used to insert a new node to a doubly linked list.
 115:D:/fchai/work/i-cube/I-CUBE-HUAWEI/Middlewares/Third_Party/Huawei/iot_link/os/liteos/include\los_list.h ****  *@attention
 116:D:/fchai/work/i-cube/I-CUBE-HUAWEI/Middlewares/Third_Party/Huawei/iot_link/os/liteos/include\los_list.h ****  *<ul>
 117:D:/fchai/work/i-cube/I-CUBE-HUAWEI/Middlewares/Third_Party/Huawei/iot_link/os/liteos/include\los_list.h ****  *<li>The parameters passed in should be ensured to be legal pointers.</li>
 118:D:/fchai/work/i-cube/I-CUBE-HUAWEI/Middlewares/Third_Party/Huawei/iot_link/os/liteos/include\los_list.h ****  *</ul>
 119:D:/fchai/work/i-cube/I-CUBE-HUAWEI/Middlewares/Third_Party/Huawei/iot_link/os/liteos/include\los_list.h ****  *
 120:D:/fchai/work/i-cube/I-CUBE-HUAWEI/Middlewares/Third_Party/Huawei/iot_link/os/liteos/include\los_list.h ****  *@param pstList    [IN]   Doubly linked list where the new node is inserted.
 121:D:/fchai/work/i-cube/I-CUBE-HUAWEI/Middlewares/Third_Party/Huawei/iot_link/os/liteos/include\los_list.h ****  *@param pstNode    [IN]   New node to be inserted.
 122:D:/fchai/work/i-cube/I-CUBE-HUAWEI/Middlewares/Third_Party/Huawei/iot_link/os/liteos/include\los_list.h ****  *
 123:D:/fchai/work/i-cube/I-CUBE-HUAWEI/Middlewares/Third_Party/Huawei/iot_link/os/liteos/include\los_list.h ****  *@retval None
 124:D:/fchai/work/i-cube/I-CUBE-HUAWEI/Middlewares/Third_Party/Huawei/iot_link/os/liteos/include\los_list.h ****  *@par Dependency:
 125:D:/fchai/work/i-cube/I-CUBE-HUAWEI/Middlewares/Third_Party/Huawei/iot_link/os/liteos/include\los_list.h ****  *<ul><li>los_list.h: the header file that contains the API declaration.</li></ul>
 126:D:/fchai/work/i-cube/I-CUBE-HUAWEI/Middlewares/Third_Party/Huawei/iot_link/os/liteos/include\los_list.h ****  *@see LOS_ListDelete
 127:D:/fchai/work/i-cube/I-CUBE-HUAWEI/Middlewares/Third_Party/Huawei/iot_link/os/liteos/include\los_list.h ****  *@since Huawei LiteOS V100R001C00
 128:D:/fchai/work/i-cube/I-CUBE-HUAWEI/Middlewares/Third_Party/Huawei/iot_link/os/liteos/include\los_list.h ****  */
 129:D:/fchai/work/i-cube/I-CUBE-HUAWEI/Middlewares/Third_Party/Huawei/iot_link/os/liteos/include\los_list.h **** LITE_OS_SEC_ALW_INLINE STATIC_INLINE VOID LOS_ListAdd(LOS_DL_LIST *pstList, LOS_DL_LIST *pstNode)
 130:D:/fchai/work/i-cube/I-CUBE-HUAWEI/Middlewares/Third_Party/Huawei/iot_link/os/liteos/include\los_list.h **** {
 131:D:/fchai/work/i-cube/I-CUBE-HUAWEI/Middlewares/Third_Party/Huawei/iot_link/os/liteos/include\los_list.h ****     pstNode->pstNext = pstList->pstNext;
 132:D:/fchai/work/i-cube/I-CUBE-HUAWEI/Middlewares/Third_Party/Huawei/iot_link/os/liteos/include\los_list.h ****     pstNode->pstPrev = pstList;
 133:D:/fchai/work/i-cube/I-CUBE-HUAWEI/Middlewares/Third_Party/Huawei/iot_link/os/liteos/include\los_list.h ****     pstList->pstNext->pstPrev = pstNode;
 134:D:/fchai/work/i-cube/I-CUBE-HUAWEI/Middlewares/Third_Party/Huawei/iot_link/os/liteos/include\los_list.h ****     pstList->pstNext = pstNode;
 135:D:/fchai/work/i-cube/I-CUBE-HUAWEI/Middlewares/Third_Party/Huawei/iot_link/os/liteos/include\los_list.h **** }
 136:D:/fchai/work/i-cube/I-CUBE-HUAWEI/Middlewares/Third_Party/Huawei/iot_link/os/liteos/include\los_list.h **** 
 137:D:/fchai/work/i-cube/I-CUBE-HUAWEI/Middlewares/Third_Party/Huawei/iot_link/os/liteos/include\los_list.h **** /**
 138:D:/fchai/work/i-cube/I-CUBE-HUAWEI/Middlewares/Third_Party/Huawei/iot_link/os/liteos/include\los_list.h ****  *@ingroup los_list
 139:D:/fchai/work/i-cube/I-CUBE-HUAWEI/Middlewares/Third_Party/Huawei/iot_link/os/liteos/include\los_list.h ****  *@brief Insert a node to the tail of a doubly linked list.
 140:D:/fchai/work/i-cube/I-CUBE-HUAWEI/Middlewares/Third_Party/Huawei/iot_link/os/liteos/include\los_list.h ****  *
ARM GAS  T:\msys\tmp\ccLNSFcc.s 			page 7


 141:D:/fchai/work/i-cube/I-CUBE-HUAWEI/Middlewares/Third_Party/Huawei/iot_link/os/liteos/include\los_list.h ****  *@par Description:
 142:D:/fchai/work/i-cube/I-CUBE-HUAWEI/Middlewares/Third_Party/Huawei/iot_link/os/liteos/include\los_list.h ****  *This API is used to insert a new node to the tail of a doubly linked list.
 143:D:/fchai/work/i-cube/I-CUBE-HUAWEI/Middlewares/Third_Party/Huawei/iot_link/os/liteos/include\los_list.h ****  *@attention
 144:D:/fchai/work/i-cube/I-CUBE-HUAWEI/Middlewares/Third_Party/Huawei/iot_link/os/liteos/include\los_list.h ****  *<ul>
 145:D:/fchai/work/i-cube/I-CUBE-HUAWEI/Middlewares/Third_Party/Huawei/iot_link/os/liteos/include\los_list.h ****  *<li>The parameters passed in should be ensured to be legal pointers.</li>
 146:D:/fchai/work/i-cube/I-CUBE-HUAWEI/Middlewares/Third_Party/Huawei/iot_link/os/liteos/include\los_list.h ****  *</ul>
 147:D:/fchai/work/i-cube/I-CUBE-HUAWEI/Middlewares/Third_Party/Huawei/iot_link/os/liteos/include\los_list.h ****  *
 148:D:/fchai/work/i-cube/I-CUBE-HUAWEI/Middlewares/Third_Party/Huawei/iot_link/os/liteos/include\los_list.h ****  *@param pstList     [IN] Doubly linked list where the new node is inserted.
 149:D:/fchai/work/i-cube/I-CUBE-HUAWEI/Middlewares/Third_Party/Huawei/iot_link/os/liteos/include\los_list.h ****  *@param pstNode     [IN] New node to be inserted.
 150:D:/fchai/work/i-cube/I-CUBE-HUAWEI/Middlewares/Third_Party/Huawei/iot_link/os/liteos/include\los_list.h ****  *
 151:D:/fchai/work/i-cube/I-CUBE-HUAWEI/Middlewares/Third_Party/Huawei/iot_link/os/liteos/include\los_list.h ****  *@retval None.
 152:D:/fchai/work/i-cube/I-CUBE-HUAWEI/Middlewares/Third_Party/Huawei/iot_link/os/liteos/include\los_list.h ****  *@par Dependency:
 153:D:/fchai/work/i-cube/I-CUBE-HUAWEI/Middlewares/Third_Party/Huawei/iot_link/os/liteos/include\los_list.h ****  *<ul><li>los_list.h: the header file that contains the API declaration.</li></ul>
 154:D:/fchai/work/i-cube/I-CUBE-HUAWEI/Middlewares/Third_Party/Huawei/iot_link/os/liteos/include\los_list.h ****  *@see LOS_ListAdd | LOS_ListHeadInsert
 155:D:/fchai/work/i-cube/I-CUBE-HUAWEI/Middlewares/Third_Party/Huawei/iot_link/os/liteos/include\los_list.h ****  *@since Huawei LiteOS V100R001C00
 156:D:/fchai/work/i-cube/I-CUBE-HUAWEI/Middlewares/Third_Party/Huawei/iot_link/os/liteos/include\los_list.h ****  */
 157:D:/fchai/work/i-cube/I-CUBE-HUAWEI/Middlewares/Third_Party/Huawei/iot_link/os/liteos/include\los_list.h **** LITE_OS_SEC_ALW_INLINE STATIC_INLINE VOID LOS_ListTailInsert(LOS_DL_LIST *pstList, LOS_DL_LIST *pst
 112              		.loc 2 157 43 discriminator 3 view .LVU31
 113              		.loc 2 157 43 is_stmt 0 discriminator 3 view .LVU32
 114              	.LBE48:
 158:D:/fchai/work/i-cube/I-CUBE-HUAWEI/Middlewares/Third_Party/Huawei/iot_link/os/liteos/include\los_list.h **** {
 159:D:/fchai/work/i-cube/I-CUBE-HUAWEI/Middlewares/Third_Party/Huawei/iot_link/os/liteos/include\los_list.h ****     LOS_ListAdd(pstList->pstPrev, pstNode);
 115              		.loc 2 159 5 is_stmt 1 discriminator 3 view .LVU33
 116              	.LBB53:
 117              	.LBB49:
 118              	.LBI49:
 129:D:/fchai/work/i-cube/I-CUBE-HUAWEI/Middlewares/Third_Party/Huawei/iot_link/os/liteos/include\los_list.h **** {
 119              		.loc 2 129 43 discriminator 3 view .LVU34
 120              	.LBB50:
 131:D:/fchai/work/i-cube/I-CUBE-HUAWEI/Middlewares/Third_Party/Huawei/iot_link/os/liteos/include\los_list.h ****     pstNode->pstPrev = pstList;
 121              		.loc 2 131 5 discriminator 3 view .LVU35
 122 003a 0132     		adds	r2, r2, #1
 123              	.LVL6:
 131:D:/fchai/work/i-cube/I-CUBE-HUAWEI/Middlewares/Third_Party/Huawei/iot_link/os/liteos/include\los_list.h ****     pstNode->pstPrev = pstList;
 124              		.loc 2 131 5 is_stmt 0 discriminator 3 view .LVU36
 125              	.LBE50:
 126              	.LBE49:
 127              	.LBE53:
  85:D:/fchai/work/i-cube/I-CUBE-HUAWEI/Middlewares/Third_Party/Huawei/iot_link/os/liteos/base/ipc\los_queue.c ****     {
 128              		.loc 1 85 5 discriminator 3 view .LVU37
 129 003c 0A2A     		cmp	r2, #10
 130              	.LBB54:
 131              	.LBB52:
 132              	.LBB51:
 132:D:/fchai/work/i-cube/I-CUBE-HUAWEI/Middlewares/Third_Party/Huawei/iot_link/os/liteos/include\los_list.h ****     pstList->pstNext->pstPrev = pstNode;
 133              		.loc 2 132 22 discriminator 3 view .LVU38
 134 003e C3E90010 		strd	r1, r0, [r3]
 135              	.LVL7:
 133:D:/fchai/work/i-cube/I-CUBE-HUAWEI/Middlewares/Third_Party/Huawei/iot_link/os/liteos/include\los_list.h ****     pstList->pstNext = pstNode;
 136              		.loc 2 133 5 is_stmt 1 discriminator 3 view .LVU39
 133:D:/fchai/work/i-cube/I-CUBE-HUAWEI/Middlewares/Third_Party/Huawei/iot_link/os/liteos/include\los_list.h ****     pstList->pstNext = pstNode;
 137              		.loc 2 133 31 is_stmt 0 discriminator 3 view .LVU40
 138 0042 0360     		str	r3, [r0]
 134:D:/fchai/work/i-cube/I-CUBE-HUAWEI/Middlewares/Third_Party/Huawei/iot_link/os/liteos/include\los_list.h **** }
 139              		.loc 2 134 5 is_stmt 1 discriminator 3 view .LVU41
 134:D:/fchai/work/i-cube/I-CUBE-HUAWEI/Middlewares/Third_Party/Huawei/iot_link/os/liteos/include\los_list.h **** }
 140              		.loc 2 134 22 is_stmt 0 discriminator 3 view .LVU42
ARM GAS  T:\msys\tmp\ccLNSFcc.s 			page 8


 141 0044 4B60     		str	r3, [r1, #4]
 142              	.LVL8:
 134:D:/fchai/work/i-cube/I-CUBE-HUAWEI/Middlewares/Third_Party/Huawei/iot_link/os/liteos/include\los_list.h **** }
 143              		.loc 2 134 22 discriminator 3 view .LVU43
 144              	.LBE51:
 145              	.LBE52:
 146              	.LBE54:
  85:D:/fchai/work/i-cube/I-CUBE-HUAWEI/Middlewares/Third_Party/Huawei/iot_link/os/liteos/base/ipc\los_queue.c ****     {
 147              		.loc 1 85 62 is_stmt 1 discriminator 3 view .LVU44
  85:D:/fchai/work/i-cube/I-CUBE-HUAWEI/Middlewares/Third_Party/Huawei/iot_link/os/liteos/base/ipc\los_queue.c ****     {
 148              		.loc 1 85 23 discriminator 3 view .LVU45
 149 0046 03F12C03 		add	r3, r3, #44
 150              	.LVL9:
  85:D:/fchai/work/i-cube/I-CUBE-HUAWEI/Middlewares/Third_Party/Huawei/iot_link/os/liteos/base/ipc\los_queue.c ****     {
 151              		.loc 1 85 5 is_stmt 0 discriminator 3 view .LVU46
 152 004a F2D1     		bne	.L9
  90:D:/fchai/work/i-cube/I-CUBE-HUAWEI/Middlewares/Third_Party/Huawei/iot_link/os/liteos/base/ipc\los_queue.c ****     }
  91:D:/fchai/work/i-cube/I-CUBE-HUAWEI/Middlewares/Third_Party/Huawei/iot_link/os/liteos/base/ipc\los_queue.c **** 
  92:D:/fchai/work/i-cube/I-CUBE-HUAWEI/Middlewares/Third_Party/Huawei/iot_link/os/liteos/base/ipc\los_queue.c **** #if ((LOSCFG_PLATFORM_EXC == YES) && (LOSCFG_SAVE_EXC_INFO == YES))
  93:D:/fchai/work/i-cube/I-CUBE-HUAWEI/Middlewares/Third_Party/Huawei/iot_link/os/liteos/base/ipc\los_queue.c ****     g_uwExcQueueMaxNum = LOSCFG_BASE_IPC_QUEUE_LIMIT;
  94:D:/fchai/work/i-cube/I-CUBE-HUAWEI/Middlewares/Third_Party/Huawei/iot_link/os/liteos/base/ipc\los_queue.c ****     osExcRegister(OS_EXC_TYPE_QUE, (EXC_INFO_SAVE_CALLBACK)LOS_QueueInfoGet, &g_uwExcQueueMaxNum);
  95:D:/fchai/work/i-cube/I-CUBE-HUAWEI/Middlewares/Third_Party/Huawei/iot_link/os/liteos/base/ipc\los_queue.c **** #endif
  96:D:/fchai/work/i-cube/I-CUBE-HUAWEI/Middlewares/Third_Party/Huawei/iot_link/os/liteos/base/ipc\los_queue.c **** 
  97:D:/fchai/work/i-cube/I-CUBE-HUAWEI/Middlewares/Third_Party/Huawei/iot_link/os/liteos/base/ipc\los_queue.c ****     return LOS_OK;
 153              		.loc 1 97 12 view .LVU47
 154 004c 0020     		movs	r0, #0
  98:D:/fchai/work/i-cube/I-CUBE-HUAWEI/Middlewares/Third_Party/Huawei/iot_link/os/liteos/base/ipc\los_queue.c **** }
 155              		.loc 1 98 1 view .LVU48
 156 004e 10BD     		pop	{r4, pc}
 157              	.LVL10:
 158              	.L4:
  79:D:/fchai/work/i-cube/I-CUBE-HUAWEI/Middlewares/Third_Party/Huawei/iot_link/os/liteos/base/ipc\los_queue.c ****     }
 159              		.loc 1 79 16 view .LVU49
 160 0050 0348     		ldr	r0, .L10+12
 161              		.loc 1 98 1 view .LVU50
 162 0052 10BD     		pop	{r4, pc}
 163              	.L11:
 164              		.align	2
 165              	.L10:
 166 0054 00000000 		.word	m_aucSysMem0
 167 0058 00000000 		.word	g_pstAllQueue
 168 005c 00000000 		.word	g_stFreeQueueList
 169 0060 01060002 		.word	33555969
 170              		.cfi_endproc
 171              	.LFE133:
 173              		.section	.text.LOS_QueueCreate,"ax",%progbits
 174              		.align	1
 175              		.p2align 2,,3
 176              		.global	LOS_QueueCreate
 177              		.syntax unified
 178              		.thumb
 179              		.thumb_func
 180              		.fpu fpv4-sp-d16
 182              	LOS_QueueCreate:
 183              	.LVL11:
 184              	.LFB134:
  99:D:/fchai/work/i-cube/I-CUBE-HUAWEI/Middlewares/Third_Party/Huawei/iot_link/os/liteos/base/ipc\los_queue.c **** 
ARM GAS  T:\msys\tmp\ccLNSFcc.s 			page 9


 100:D:/fchai/work/i-cube/I-CUBE-HUAWEI/Middlewares/Third_Party/Huawei/iot_link/os/liteos/base/ipc\los_queue.c **** /*****************************************************************************
 101:D:/fchai/work/i-cube/I-CUBE-HUAWEI/Middlewares/Third_Party/Huawei/iot_link/os/liteos/base/ipc\los_queue.c ****  Function    : LOS_QueueCreate
 102:D:/fchai/work/i-cube/I-CUBE-HUAWEI/Middlewares/Third_Party/Huawei/iot_link/os/liteos/base/ipc\los_queue.c ****  Description : Create a queue
 103:D:/fchai/work/i-cube/I-CUBE-HUAWEI/Middlewares/Third_Party/Huawei/iot_link/os/liteos/base/ipc\los_queue.c ****  Input       : pcQueueName  --- Queue name, less than 4 characters
 104:D:/fchai/work/i-cube/I-CUBE-HUAWEI/Middlewares/Third_Party/Huawei/iot_link/os/liteos/base/ipc\los_queue.c ****                usLen        --- Queue lenth
 105:D:/fchai/work/i-cube/I-CUBE-HUAWEI/Middlewares/Third_Party/Huawei/iot_link/os/liteos/base/ipc\los_queue.c ****                uwFlags      --- Queue type, FIFO or PRIO
 106:D:/fchai/work/i-cube/I-CUBE-HUAWEI/Middlewares/Third_Party/Huawei/iot_link/os/liteos/base/ipc\los_queue.c ****                usMaxMsgSize --- Maximum message size in byte
 107:D:/fchai/work/i-cube/I-CUBE-HUAWEI/Middlewares/Third_Party/Huawei/iot_link/os/liteos/base/ipc\los_queue.c ****  Output      : puwQueueID   --- Queue ID
 108:D:/fchai/work/i-cube/I-CUBE-HUAWEI/Middlewares/Third_Party/Huawei/iot_link/os/liteos/base/ipc\los_queue.c ****  Return      : LOS_OK on success or error code on failure
 109:D:/fchai/work/i-cube/I-CUBE-HUAWEI/Middlewares/Third_Party/Huawei/iot_link/os/liteos/base/ipc\los_queue.c ****  *****************************************************************************/
 110:D:/fchai/work/i-cube/I-CUBE-HUAWEI/Middlewares/Third_Party/Huawei/iot_link/os/liteos/base/ipc\los_queue.c **** LITE_OS_SEC_TEXT_INIT UINT32 LOS_QueueCreate(CHAR *pcQueueName,
 111:D:/fchai/work/i-cube/I-CUBE-HUAWEI/Middlewares/Third_Party/Huawei/iot_link/os/liteos/base/ipc\los_queue.c ****                                           UINT16 usLen,
 112:D:/fchai/work/i-cube/I-CUBE-HUAWEI/Middlewares/Third_Party/Huawei/iot_link/os/liteos/base/ipc\los_queue.c ****                                           UINT32 *puwQueueID,
 113:D:/fchai/work/i-cube/I-CUBE-HUAWEI/Middlewares/Third_Party/Huawei/iot_link/os/liteos/base/ipc\los_queue.c ****                                           UINT32 uwFlags,
 114:D:/fchai/work/i-cube/I-CUBE-HUAWEI/Middlewares/Third_Party/Huawei/iot_link/os/liteos/base/ipc\los_queue.c ****                                           UINT16 usMaxMsgSize )
 115:D:/fchai/work/i-cube/I-CUBE-HUAWEI/Middlewares/Third_Party/Huawei/iot_link/os/liteos/base/ipc\los_queue.c **** {
 185              		.loc 1 115 1 is_stmt 1 view -0
 186              		.cfi_startproc
 187              		@ args = 4, pretend = 0, frame = 0
 188              		@ frame_needed = 0, uses_anonymous_args = 0
 116:D:/fchai/work/i-cube/I-CUBE-HUAWEI/Middlewares/Third_Party/Huawei/iot_link/os/liteos/base/ipc\los_queue.c ****     QUEUE_CB_S      *pstQueueCB;
 189              		.loc 1 116 5 view .LVU52
 117:D:/fchai/work/i-cube/I-CUBE-HUAWEI/Middlewares/Third_Party/Huawei/iot_link/os/liteos/base/ipc\los_queue.c ****     UINTPTR         uvIntSave;
 190              		.loc 1 117 5 view .LVU53
 118:D:/fchai/work/i-cube/I-CUBE-HUAWEI/Middlewares/Third_Party/Huawei/iot_link/os/liteos/base/ipc\los_queue.c ****     LOS_DL_LIST     *pstUnusedQueue;
 191              		.loc 1 118 5 view .LVU54
 119:D:/fchai/work/i-cube/I-CUBE-HUAWEI/Middlewares/Third_Party/Huawei/iot_link/os/liteos/base/ipc\los_queue.c ****     UINT8           *pucQueue;
 192              		.loc 1 119 5 view .LVU55
 120:D:/fchai/work/i-cube/I-CUBE-HUAWEI/Middlewares/Third_Party/Huawei/iot_link/os/liteos/base/ipc\los_queue.c ****     UINT16          usMsgSize = usMaxMsgSize + sizeof(UINT32);
 193              		.loc 1 120 5 view .LVU56
 115:D:/fchai/work/i-cube/I-CUBE-HUAWEI/Middlewares/Third_Party/Huawei/iot_link/os/liteos/base/ipc\los_queue.c ****     QUEUE_CB_S      *pstQueueCB;
 194              		.loc 1 115 1 is_stmt 0 view .LVU57
 195 0000 2DE9F843 		push	{r3, r4, r5, r6, r7, r8, r9, lr}
 196              	.LCFI1:
 197              		.cfi_def_cfa_offset 32
 198              		.cfi_offset 3, -32
 199              		.cfi_offset 4, -28
 200              		.cfi_offset 5, -24
 201              		.cfi_offset 6, -20
 202              		.cfi_offset 7, -16
 203              		.cfi_offset 8, -12
 204              		.cfi_offset 9, -8
 205              		.cfi_offset 14, -4
 115:D:/fchai/work/i-cube/I-CUBE-HUAWEI/Middlewares/Third_Party/Huawei/iot_link/os/liteos/base/ipc\los_queue.c ****     QUEUE_CB_S      *pstQueueCB;
 206              		.loc 1 115 1 view .LVU58
 207 0004 BDF82030 		ldrh	r3, [sp, #32]
 208              	.LVL12:
 121:D:/fchai/work/i-cube/I-CUBE-HUAWEI/Middlewares/Third_Party/Huawei/iot_link/os/liteos/base/ipc\los_queue.c **** 
 122:D:/fchai/work/i-cube/I-CUBE-HUAWEI/Middlewares/Third_Party/Huawei/iot_link/os/liteos/base/ipc\los_queue.c ****     (VOID)pcQueueName;
 209              		.loc 1 122 5 is_stmt 1 view .LVU59
 123:D:/fchai/work/i-cube/I-CUBE-HUAWEI/Middlewares/Third_Party/Huawei/iot_link/os/liteos/base/ipc\los_queue.c ****     (VOID)uwFlags;
 210              		.loc 1 123 5 view .LVU60
 124:D:/fchai/work/i-cube/I-CUBE-HUAWEI/Middlewares/Third_Party/Huawei/iot_link/os/liteos/base/ipc\los_queue.c **** 
 125:D:/fchai/work/i-cube/I-CUBE-HUAWEI/Middlewares/Third_Party/Huawei/iot_link/os/liteos/base/ipc\los_queue.c ****     if (NULL == puwQueueID)
 211              		.loc 1 125 5 view .LVU61
 212              		.loc 1 125 8 is_stmt 0 view .LVU62
 213 0008 002A     		cmp	r2, #0
ARM GAS  T:\msys\tmp\ccLNSFcc.s 			page 10


 214 000a 4AD0     		beq	.L15
 215 000c 1746     		mov	r7, r2
 126:D:/fchai/work/i-cube/I-CUBE-HUAWEI/Middlewares/Third_Party/Huawei/iot_link/os/liteos/base/ipc\los_queue.c ****     {
 127:D:/fchai/work/i-cube/I-CUBE-HUAWEI/Middlewares/Third_Party/Huawei/iot_link/os/liteos/base/ipc\los_queue.c ****         return LOS_ERRNO_QUEUE_CREAT_PTR_NULL;
 128:D:/fchai/work/i-cube/I-CUBE-HUAWEI/Middlewares/Third_Party/Huawei/iot_link/os/liteos/base/ipc\los_queue.c ****     }
 129:D:/fchai/work/i-cube/I-CUBE-HUAWEI/Middlewares/Third_Party/Huawei/iot_link/os/liteos/base/ipc\los_queue.c **** 
 130:D:/fchai/work/i-cube/I-CUBE-HUAWEI/Middlewares/Third_Party/Huawei/iot_link/os/liteos/base/ipc\los_queue.c ****     if(usMaxMsgSize > OS_NULL_SHORT -4)
 216              		.loc 1 130 5 is_stmt 1 view .LVU63
 217              		.loc 1 130 7 is_stmt 0 view .LVU64
 218 000e 4FF6FB72 		movw	r2, #65531
 219              	.LVL13:
 220              		.loc 1 130 7 view .LVU65
 221 0012 9342     		cmp	r3, r2
 222 0014 42D8     		bhi	.L16
 131:D:/fchai/work/i-cube/I-CUBE-HUAWEI/Middlewares/Third_Party/Huawei/iot_link/os/liteos/base/ipc\los_queue.c ****     {
 132:D:/fchai/work/i-cube/I-CUBE-HUAWEI/Middlewares/Third_Party/Huawei/iot_link/os/liteos/base/ipc\los_queue.c ****         return LOS_ERRNO_QUEUE_SIZE_TOO_BIG;
 133:D:/fchai/work/i-cube/I-CUBE-HUAWEI/Middlewares/Third_Party/Huawei/iot_link/os/liteos/base/ipc\los_queue.c ****     }
 134:D:/fchai/work/i-cube/I-CUBE-HUAWEI/Middlewares/Third_Party/Huawei/iot_link/os/liteos/base/ipc\los_queue.c **** 
 135:D:/fchai/work/i-cube/I-CUBE-HUAWEI/Middlewares/Third_Party/Huawei/iot_link/os/liteos/base/ipc\los_queue.c ****     if ((0 == usLen) || (0 == usMaxMsgSize))
 223              		.loc 1 135 5 is_stmt 1 view .LVU66
 224 0016 0D46     		mov	r5, r1
 225              		.loc 1 135 8 is_stmt 0 view .LVU67
 226 0018 0029     		cmp	r1, #0
 227 001a 3CD0     		beq	.L18
 228              		.loc 1 135 22 discriminator 1 view .LVU68
 229 001c 002B     		cmp	r3, #0
 230 001e 3AD0     		beq	.L18
 120:D:/fchai/work/i-cube/I-CUBE-HUAWEI/Middlewares/Third_Party/Huawei/iot_link/os/liteos/base/ipc\los_queue.c **** 
 231              		.loc 1 120 21 view .LVU69
 232 0020 0433     		adds	r3, r3, #4
 233              	.LVL14:
 136:D:/fchai/work/i-cube/I-CUBE-HUAWEI/Middlewares/Third_Party/Huawei/iot_link/os/liteos/base/ipc\los_queue.c ****     {
 137:D:/fchai/work/i-cube/I-CUBE-HUAWEI/Middlewares/Third_Party/Huawei/iot_link/os/liteos/base/ipc\los_queue.c ****         return LOS_ERRNO_QUEUE_PARA_ISZERO;
 138:D:/fchai/work/i-cube/I-CUBE-HUAWEI/Middlewares/Third_Party/Huawei/iot_link/os/liteos/base/ipc\los_queue.c ****     }
 139:D:/fchai/work/i-cube/I-CUBE-HUAWEI/Middlewares/Third_Party/Huawei/iot_link/os/liteos/base/ipc\los_queue.c **** 
 140:D:/fchai/work/i-cube/I-CUBE-HUAWEI/Middlewares/Third_Party/Huawei/iot_link/os/liteos/base/ipc\los_queue.c ****     /* Memory allocation is time-consuming, to shorten the time of disable interrupt,
 141:D:/fchai/work/i-cube/I-CUBE-HUAWEI/Middlewares/Third_Party/Huawei/iot_link/os/liteos/base/ipc\los_queue.c ****        move the memory allocation to here. */
 142:D:/fchai/work/i-cube/I-CUBE-HUAWEI/Middlewares/Third_Party/Huawei/iot_link/os/liteos/base/ipc\los_queue.c ****     pucQueue = (UINT8 *)LOS_MemAlloc(m_aucSysMem0, usLen * usMsgSize);
 234              		.loc 1 142 25 view .LVU70
 235 0022 DFF8B480 		ldr	r8, .L22+24
 120:D:/fchai/work/i-cube/I-CUBE-HUAWEI/Middlewares/Third_Party/Huawei/iot_link/os/liteos/base/ipc\los_queue.c **** 
 236              		.loc 1 120 21 view .LVU71
 237 0026 9EB2     		uxth	r6, r3
 238              		.loc 1 142 5 is_stmt 1 view .LVU72
 239              		.loc 1 142 25 is_stmt 0 view .LVU73
 240 0028 D8F80000 		ldr	r0, [r8]
 241              	.LVL15:
 242              		.loc 1 142 25 view .LVU74
 243 002c 06FB01F1 		mul	r1, r6, r1
 244              	.LVL16:
 245              		.loc 1 142 25 view .LVU75
 246 0030 FFF7FEFF 		bl	LOS_MemAlloc
 247              	.LVL17:
 143:D:/fchai/work/i-cube/I-CUBE-HUAWEI/Middlewares/Third_Party/Huawei/iot_link/os/liteos/base/ipc\los_queue.c ****     if (NULL == pucQueue)
 248              		.loc 1 143 5 is_stmt 1 view .LVU76
 249              		.loc 1 143 8 is_stmt 0 view .LVU77
 250 0034 8146     		mov	r9, r0
ARM GAS  T:\msys\tmp\ccLNSFcc.s 			page 11


 251 0036 B8B3     		cbz	r0, .L19
 144:D:/fchai/work/i-cube/I-CUBE-HUAWEI/Middlewares/Third_Party/Huawei/iot_link/os/liteos/base/ipc\los_queue.c ****     {
 145:D:/fchai/work/i-cube/I-CUBE-HUAWEI/Middlewares/Third_Party/Huawei/iot_link/os/liteos/base/ipc\los_queue.c ****         return LOS_ERRNO_QUEUE_CREATE_NO_MEMORY;
 146:D:/fchai/work/i-cube/I-CUBE-HUAWEI/Middlewares/Third_Party/Huawei/iot_link/os/liteos/base/ipc\los_queue.c ****     }
 147:D:/fchai/work/i-cube/I-CUBE-HUAWEI/Middlewares/Third_Party/Huawei/iot_link/os/liteos/base/ipc\los_queue.c **** 
 148:D:/fchai/work/i-cube/I-CUBE-HUAWEI/Middlewares/Third_Party/Huawei/iot_link/os/liteos/base/ipc\los_queue.c ****     uvIntSave = LOS_IntLock();
 252              		.loc 1 148 5 is_stmt 1 view .LVU78
 253              		.loc 1 148 17 is_stmt 0 view .LVU79
 254 0038 FFF7FEFF 		bl	LOS_IntLock
 255              	.LVL18:
 149:D:/fchai/work/i-cube/I-CUBE-HUAWEI/Middlewares/Third_Party/Huawei/iot_link/os/liteos/base/ipc\los_queue.c ****     if (LOS_ListEmpty(&g_stFreeQueueList))
 256              		.loc 1 149 5 is_stmt 1 view .LVU80
 257              	.LBB55:
 258              	.LBI55:
 160:D:/fchai/work/i-cube/I-CUBE-HUAWEI/Middlewares/Third_Party/Huawei/iot_link/os/liteos/include\los_list.h **** }
 161:D:/fchai/work/i-cube/I-CUBE-HUAWEI/Middlewares/Third_Party/Huawei/iot_link/os/liteos/include\los_list.h **** 
 162:D:/fchai/work/i-cube/I-CUBE-HUAWEI/Middlewares/Third_Party/Huawei/iot_link/os/liteos/include\los_list.h **** /**
 163:D:/fchai/work/i-cube/I-CUBE-HUAWEI/Middlewares/Third_Party/Huawei/iot_link/os/liteos/include\los_list.h ****  *@ingroup los_list
 164:D:/fchai/work/i-cube/I-CUBE-HUAWEI/Middlewares/Third_Party/Huawei/iot_link/os/liteos/include\los_list.h ****  *@brief Delete a specified node from a doubly linked list.
 165:D:/fchai/work/i-cube/I-CUBE-HUAWEI/Middlewares/Third_Party/Huawei/iot_link/os/liteos/include\los_list.h ****  *
 166:D:/fchai/work/i-cube/I-CUBE-HUAWEI/Middlewares/Third_Party/Huawei/iot_link/os/liteos/include\los_list.h ****  *@par Description:
 167:D:/fchai/work/i-cube/I-CUBE-HUAWEI/Middlewares/Third_Party/Huawei/iot_link/os/liteos/include\los_list.h ****  *<ul>
 168:D:/fchai/work/i-cube/I-CUBE-HUAWEI/Middlewares/Third_Party/Huawei/iot_link/os/liteos/include\los_list.h ****  *<li>This API is used to delete a specified node from a doubly linked list.</li>
 169:D:/fchai/work/i-cube/I-CUBE-HUAWEI/Middlewares/Third_Party/Huawei/iot_link/os/liteos/include\los_list.h ****  *</ul>
 170:D:/fchai/work/i-cube/I-CUBE-HUAWEI/Middlewares/Third_Party/Huawei/iot_link/os/liteos/include\los_list.h ****  *@attention
 171:D:/fchai/work/i-cube/I-CUBE-HUAWEI/Middlewares/Third_Party/Huawei/iot_link/os/liteos/include\los_list.h ****  *<ul>
 172:D:/fchai/work/i-cube/I-CUBE-HUAWEI/Middlewares/Third_Party/Huawei/iot_link/os/liteos/include\los_list.h ****  *<li>The parameter passed in should be ensured to be a legal pointer.</li>
 173:D:/fchai/work/i-cube/I-CUBE-HUAWEI/Middlewares/Third_Party/Huawei/iot_link/os/liteos/include\los_list.h ****  *</ul>
 174:D:/fchai/work/i-cube/I-CUBE-HUAWEI/Middlewares/Third_Party/Huawei/iot_link/os/liteos/include\los_list.h ****  *
 175:D:/fchai/work/i-cube/I-CUBE-HUAWEI/Middlewares/Third_Party/Huawei/iot_link/os/liteos/include\los_list.h ****  *@param pstNode    [IN] Node to be deleted.
 176:D:/fchai/work/i-cube/I-CUBE-HUAWEI/Middlewares/Third_Party/Huawei/iot_link/os/liteos/include\los_list.h ****  *
 177:D:/fchai/work/i-cube/I-CUBE-HUAWEI/Middlewares/Third_Party/Huawei/iot_link/os/liteos/include\los_list.h ****  *@retval None.
 178:D:/fchai/work/i-cube/I-CUBE-HUAWEI/Middlewares/Third_Party/Huawei/iot_link/os/liteos/include\los_list.h ****  *@par Dependency:
 179:D:/fchai/work/i-cube/I-CUBE-HUAWEI/Middlewares/Third_Party/Huawei/iot_link/os/liteos/include\los_list.h ****  *<ul><li>los_list.h: the header file that contains the API declaration.</li></ul>
 180:D:/fchai/work/i-cube/I-CUBE-HUAWEI/Middlewares/Third_Party/Huawei/iot_link/os/liteos/include\los_list.h ****  *@see LOS_ListAdd
 181:D:/fchai/work/i-cube/I-CUBE-HUAWEI/Middlewares/Third_Party/Huawei/iot_link/os/liteos/include\los_list.h ****  *@since Huawei LiteOS V100R001C00
 182:D:/fchai/work/i-cube/I-CUBE-HUAWEI/Middlewares/Third_Party/Huawei/iot_link/os/liteos/include\los_list.h ****  */
 183:D:/fchai/work/i-cube/I-CUBE-HUAWEI/Middlewares/Third_Party/Huawei/iot_link/os/liteos/include\los_list.h **** LITE_OS_SEC_ALW_INLINE STATIC_INLINE VOID LOS_ListDelete(LOS_DL_LIST *pstNode)
 184:D:/fchai/work/i-cube/I-CUBE-HUAWEI/Middlewares/Third_Party/Huawei/iot_link/os/liteos/include\los_list.h **** {
 185:D:/fchai/work/i-cube/I-CUBE-HUAWEI/Middlewares/Third_Party/Huawei/iot_link/os/liteos/include\los_list.h ****     pstNode->pstNext->pstPrev = pstNode->pstPrev;
 186:D:/fchai/work/i-cube/I-CUBE-HUAWEI/Middlewares/Third_Party/Huawei/iot_link/os/liteos/include\los_list.h ****     pstNode->pstPrev->pstNext = pstNode->pstNext;
 187:D:/fchai/work/i-cube/I-CUBE-HUAWEI/Middlewares/Third_Party/Huawei/iot_link/os/liteos/include\los_list.h ****     pstNode->pstNext = (LOS_DL_LIST *)NULL;
 188:D:/fchai/work/i-cube/I-CUBE-HUAWEI/Middlewares/Third_Party/Huawei/iot_link/os/liteos/include\los_list.h ****     pstNode->pstPrev = (LOS_DL_LIST *)NULL;
 189:D:/fchai/work/i-cube/I-CUBE-HUAWEI/Middlewares/Third_Party/Huawei/iot_link/os/liteos/include\los_list.h **** }
 190:D:/fchai/work/i-cube/I-CUBE-HUAWEI/Middlewares/Third_Party/Huawei/iot_link/os/liteos/include\los_list.h **** 
 191:D:/fchai/work/i-cube/I-CUBE-HUAWEI/Middlewares/Third_Party/Huawei/iot_link/os/liteos/include\los_list.h **** /**
 192:D:/fchai/work/i-cube/I-CUBE-HUAWEI/Middlewares/Third_Party/Huawei/iot_link/os/liteos/include\los_list.h ****  *@ingroup los_list
 193:D:/fchai/work/i-cube/I-CUBE-HUAWEI/Middlewares/Third_Party/Huawei/iot_link/os/liteos/include\los_list.h ****  *@brief Identify whether a specified doubly linked list is empty.
 194:D:/fchai/work/i-cube/I-CUBE-HUAWEI/Middlewares/Third_Party/Huawei/iot_link/os/liteos/include\los_list.h ****  *
 195:D:/fchai/work/i-cube/I-CUBE-HUAWEI/Middlewares/Third_Party/Huawei/iot_link/os/liteos/include\los_list.h ****  *@par Description:
 196:D:/fchai/work/i-cube/I-CUBE-HUAWEI/Middlewares/Third_Party/Huawei/iot_link/os/liteos/include\los_list.h ****  *<ul>
 197:D:/fchai/work/i-cube/I-CUBE-HUAWEI/Middlewares/Third_Party/Huawei/iot_link/os/liteos/include\los_list.h ****  *<li>This API is used to return whether a doubly linked list is empty.</li>
 198:D:/fchai/work/i-cube/I-CUBE-HUAWEI/Middlewares/Third_Party/Huawei/iot_link/os/liteos/include\los_list.h ****  *</ul>
 199:D:/fchai/work/i-cube/I-CUBE-HUAWEI/Middlewares/Third_Party/Huawei/iot_link/os/liteos/include\los_list.h ****  *@attention
 200:D:/fchai/work/i-cube/I-CUBE-HUAWEI/Middlewares/Third_Party/Huawei/iot_link/os/liteos/include\los_list.h ****  *<ul>
 201:D:/fchai/work/i-cube/I-CUBE-HUAWEI/Middlewares/Third_Party/Huawei/iot_link/os/liteos/include\los_list.h ****  *<li>The parameter passed in should be ensured to be a legal pointer.</li>
 202:D:/fchai/work/i-cube/I-CUBE-HUAWEI/Middlewares/Third_Party/Huawei/iot_link/os/liteos/include\los_list.h ****  *</ul>
ARM GAS  T:\msys\tmp\ccLNSFcc.s 			page 12


 203:D:/fchai/work/i-cube/I-CUBE-HUAWEI/Middlewares/Third_Party/Huawei/iot_link/os/liteos/include\los_list.h ****  *
 204:D:/fchai/work/i-cube/I-CUBE-HUAWEI/Middlewares/Third_Party/Huawei/iot_link/os/liteos/include\los_list.h ****  *@param pstList  [IN] Doubly linked list.
 205:D:/fchai/work/i-cube/I-CUBE-HUAWEI/Middlewares/Third_Party/Huawei/iot_link/os/liteos/include\los_list.h ****  *
 206:D:/fchai/work/i-cube/I-CUBE-HUAWEI/Middlewares/Third_Party/Huawei/iot_link/os/liteos/include\los_list.h ****  *@retval TRUE The doubly linked list is empty.
 207:D:/fchai/work/i-cube/I-CUBE-HUAWEI/Middlewares/Third_Party/Huawei/iot_link/os/liteos/include\los_list.h ****  *@retval FALSE The doubly linked list is not empty.
 208:D:/fchai/work/i-cube/I-CUBE-HUAWEI/Middlewares/Third_Party/Huawei/iot_link/os/liteos/include\los_list.h ****  *@par Dependency:
 209:D:/fchai/work/i-cube/I-CUBE-HUAWEI/Middlewares/Third_Party/Huawei/iot_link/os/liteos/include\los_list.h ****  *<ul><li>los_list.h: the header file that contains the API declaration.</li></ul>
 210:D:/fchai/work/i-cube/I-CUBE-HUAWEI/Middlewares/Third_Party/Huawei/iot_link/os/liteos/include\los_list.h ****  *@see
 211:D:/fchai/work/i-cube/I-CUBE-HUAWEI/Middlewares/Third_Party/Huawei/iot_link/os/liteos/include\los_list.h ****  *@since Huawei LiteOS V100R001C00
 212:D:/fchai/work/i-cube/I-CUBE-HUAWEI/Middlewares/Third_Party/Huawei/iot_link/os/liteos/include\los_list.h ****  */
 213:D:/fchai/work/i-cube/I-CUBE-HUAWEI/Middlewares/Third_Party/Huawei/iot_link/os/liteos/include\los_list.h **** LITE_OS_SEC_ALW_INLINE STATIC_INLINE BOOL LOS_ListEmpty(LOS_DL_LIST *pstNode)
 259              		.loc 2 213 43 view .LVU81
 260              	.LBB56:
 214:D:/fchai/work/i-cube/I-CUBE-HUAWEI/Middlewares/Third_Party/Huawei/iot_link/os/liteos/include\los_list.h **** {
 215:D:/fchai/work/i-cube/I-CUBE-HUAWEI/Middlewares/Third_Party/Huawei/iot_link/os/liteos/include\los_list.h ****     return (BOOL)(pstNode->pstNext == pstNode);
 261              		.loc 2 215 5 view .LVU82
 262              		.loc 2 215 26 is_stmt 0 view .LVU83
 263 003c 204B     		ldr	r3, .L22
 264 003e 5C68     		ldr	r4, [r3, #4]
 265              	.LVL19:
 266              		.loc 2 215 26 view .LVU84
 267              	.LBE56:
 268              	.LBE55:
 269              		.loc 1 149 8 view .LVU85
 270 0040 9C42     		cmp	r4, r3
 271 0042 33D0     		beq	.L21
 150:D:/fchai/work/i-cube/I-CUBE-HUAWEI/Middlewares/Third_Party/Huawei/iot_link/os/liteos/base/ipc\los_queue.c ****     {
 151:D:/fchai/work/i-cube/I-CUBE-HUAWEI/Middlewares/Third_Party/Huawei/iot_link/os/liteos/base/ipc\los_queue.c ****         LOS_IntRestore(uvIntSave);
 152:D:/fchai/work/i-cube/I-CUBE-HUAWEI/Middlewares/Third_Party/Huawei/iot_link/os/liteos/base/ipc\los_queue.c ****         (VOID)LOS_MemFree(m_aucSysMem0, pucQueue);
 153:D:/fchai/work/i-cube/I-CUBE-HUAWEI/Middlewares/Third_Party/Huawei/iot_link/os/liteos/base/ipc\los_queue.c ****         return LOS_ERRNO_QUEUE_CB_UNAVAILABLE;
 154:D:/fchai/work/i-cube/I-CUBE-HUAWEI/Middlewares/Third_Party/Huawei/iot_link/os/liteos/base/ipc\los_queue.c ****     }
 155:D:/fchai/work/i-cube/I-CUBE-HUAWEI/Middlewares/Third_Party/Huawei/iot_link/os/liteos/base/ipc\los_queue.c **** 
 156:D:/fchai/work/i-cube/I-CUBE-HUAWEI/Middlewares/Third_Party/Huawei/iot_link/os/liteos/base/ipc\los_queue.c ****     pstUnusedQueue = LOS_DL_LIST_FIRST(&(g_stFreeQueueList));
 272              		.loc 1 156 5 is_stmt 1 view .LVU86
 273              	.LVL20:
 157:D:/fchai/work/i-cube/I-CUBE-HUAWEI/Middlewares/Third_Party/Huawei/iot_link/os/liteos/base/ipc\los_queue.c ****     LOS_ListDelete(pstUnusedQueue);
 274              		.loc 1 157 5 view .LVU87
 275              	.LBB57:
 276              	.LBI57:
 183:D:/fchai/work/i-cube/I-CUBE-HUAWEI/Middlewares/Third_Party/Huawei/iot_link/os/liteos/include\los_list.h **** {
 277              		.loc 2 183 43 view .LVU88
 278              	.LBB58:
 185:D:/fchai/work/i-cube/I-CUBE-HUAWEI/Middlewares/Third_Party/Huawei/iot_link/os/liteos/include\los_list.h ****     pstNode->pstPrev->pstNext = pstNode->pstNext;
 279              		.loc 2 185 5 view .LVU89
 185:D:/fchai/work/i-cube/I-CUBE-HUAWEI/Middlewares/Third_Party/Huawei/iot_link/os/liteos/include\los_list.h ****     pstNode->pstPrev->pstNext = pstNode->pstNext;
 280              		.loc 2 185 40 is_stmt 0 view .LVU90
 281 0044 D4E90032 		ldrd	r3, r2, [r4]
 282              	.LBE58:
 283              	.LBE57:
 158:D:/fchai/work/i-cube/I-CUBE-HUAWEI/Middlewares/Third_Party/Huawei/iot_link/os/liteos/base/ipc\los_queue.c ****     pstQueueCB = (GET_QUEUE_LIST(pstUnusedQueue));
 159:D:/fchai/work/i-cube/I-CUBE-HUAWEI/Middlewares/Third_Party/Huawei/iot_link/os/liteos/base/ipc\los_queue.c ****     pstQueueCB->usQueueLen = usLen;
 160:D:/fchai/work/i-cube/I-CUBE-HUAWEI/Middlewares/Third_Party/Huawei/iot_link/os/liteos/base/ipc\los_queue.c ****     pstQueueCB->usQueueSize = usMsgSize;
 161:D:/fchai/work/i-cube/I-CUBE-HUAWEI/Middlewares/Third_Party/Huawei/iot_link/os/liteos/base/ipc\los_queue.c ****     pstQueueCB->pucQueue = pucQueue;
 162:D:/fchai/work/i-cube/I-CUBE-HUAWEI/Middlewares/Third_Party/Huawei/iot_link/os/liteos/base/ipc\los_queue.c ****     pstQueueCB->usQueueState = OS_QUEUE_INUSED;
 163:D:/fchai/work/i-cube/I-CUBE-HUAWEI/Middlewares/Third_Party/Huawei/iot_link/os/liteos/base/ipc\los_queue.c ****     pstQueueCB->usReadWriteableCnt[OS_QUEUE_READ]  = 0;
 284              		.loc 1 163 52 view .LVU91
 285 0048 4FF00008 		mov	r8, #0
ARM GAS  T:\msys\tmp\ccLNSFcc.s 			page 13


 286              	.LBB61:
 287              	.LBB59:
 185:D:/fchai/work/i-cube/I-CUBE-HUAWEI/Middlewares/Third_Party/Huawei/iot_link/os/liteos/include\los_list.h ****     pstNode->pstPrev->pstNext = pstNode->pstNext;
 288              		.loc 2 185 31 view .LVU92
 289 004c 1360     		str	r3, [r2]
 186:D:/fchai/work/i-cube/I-CUBE-HUAWEI/Middlewares/Third_Party/Huawei/iot_link/os/liteos/include\los_list.h ****     pstNode->pstNext = (LOS_DL_LIST *)NULL;
 290              		.loc 2 186 5 is_stmt 1 view .LVU93
 291              	.LBE59:
 292              	.LBE61:
 162:D:/fchai/work/i-cube/I-CUBE-HUAWEI/Middlewares/Third_Party/Huawei/iot_link/os/liteos/base/ipc\los_queue.c ****     pstQueueCB->usReadWriteableCnt[OS_QUEUE_READ]  = 0;
 293              		.loc 1 162 30 is_stmt 0 view .LVU94
 294 004e 0121     		movs	r1, #1
 295              	.LBB62:
 296              	.LBB60:
 186:D:/fchai/work/i-cube/I-CUBE-HUAWEI/Middlewares/Third_Party/Huawei/iot_link/os/liteos/include\los_list.h ****     pstNode->pstNext = (LOS_DL_LIST *)NULL;
 297              		.loc 2 186 31 view .LVU95
 298 0050 5A60     		str	r2, [r3, #4]
 187:D:/fchai/work/i-cube/I-CUBE-HUAWEI/Middlewares/Third_Party/Huawei/iot_link/os/liteos/include\los_list.h ****     pstNode->pstPrev = (LOS_DL_LIST *)NULL;
 299              		.loc 2 187 5 is_stmt 1 view .LVU96
 188:D:/fchai/work/i-cube/I-CUBE-HUAWEI/Middlewares/Third_Party/Huawei/iot_link/os/liteos/include\los_list.h **** }
 300              		.loc 2 188 5 view .LVU97
 301              	.LBE60:
 302              	.LBE62:
 158:D:/fchai/work/i-cube/I-CUBE-HUAWEI/Middlewares/Third_Party/Huawei/iot_link/os/liteos/base/ipc\los_queue.c ****     pstQueueCB->usQueueLen = usLen;
 303              		.loc 1 158 5 view .LVU98
 304              	.LVL21:
 159:D:/fchai/work/i-cube/I-CUBE-HUAWEI/Middlewares/Third_Party/Huawei/iot_link/os/liteos/base/ipc\los_queue.c ****     pstQueueCB->usQueueSize = usMsgSize;
 305              		.loc 1 159 5 view .LVU99
 164:D:/fchai/work/i-cube/I-CUBE-HUAWEI/Middlewares/Third_Party/Huawei/iot_link/os/liteos/base/ipc\los_queue.c ****     pstQueueCB->usReadWriteableCnt[OS_QUEUE_WRITE] = usLen;
 165:D:/fchai/work/i-cube/I-CUBE-HUAWEI/Middlewares/Third_Party/Huawei/iot_link/os/liteos/base/ipc\los_queue.c ****     pstQueueCB->usQueueHead = 0;
 166:D:/fchai/work/i-cube/I-CUBE-HUAWEI/Middlewares/Third_Party/Huawei/iot_link/os/liteos/base/ipc\los_queue.c ****     pstQueueCB->usQueueTail = 0;
 167:D:/fchai/work/i-cube/I-CUBE-HUAWEI/Middlewares/Third_Party/Huawei/iot_link/os/liteos/base/ipc\los_queue.c ****     LOS_ListInit(&pstQueueCB->stReadWriteList[OS_QUEUE_READ]);
 168:D:/fchai/work/i-cube/I-CUBE-HUAWEI/Middlewares/Third_Party/Huawei/iot_link/os/liteos/base/ipc\los_queue.c ****     LOS_ListInit(&pstQueueCB->stReadWriteList[OS_QUEUE_WRITE]);
 169:D:/fchai/work/i-cube/I-CUBE-HUAWEI/Middlewares/Third_Party/Huawei/iot_link/os/liteos/base/ipc\los_queue.c ****     LOS_ListInit(&pstQueueCB->stMemList);
 306              		.loc 1 169 5 is_stmt 0 view .LVU100
 307 0052 04F10803 		add	r3, r4, #8
 167:D:/fchai/work/i-cube/I-CUBE-HUAWEI/Middlewares/Third_Party/Huawei/iot_link/os/liteos/base/ipc\los_queue.c ****     LOS_ListInit(&pstQueueCB->stReadWriteList[OS_QUEUE_WRITE]);
 308              		.loc 1 167 5 view .LVU101
 309 0056 A4F10802 		sub	r2, r4, #8
 310              	.LBB63:
 311              	.LBB64:
  83:D:/fchai/work/i-cube/I-CUBE-HUAWEI/Middlewares/Third_Party/Huawei/iot_link/os/liteos/include\los_list.h **** }
 312              		.loc 2 83 22 view .LVU102
 313 005a C4E90233 		strd	r3, r3, [r4, #8]
 314              	.LBE64:
 315              	.LBE63:
 316              	.LBB66:
 317              	.LBB67:
 318 005e C4E90044 		strd	r4, r4, [r4]
 319              	.LBE67:
 320              	.LBE66:
 321              	.LBB69:
 322              	.LBB70:
 323 0062 44E90222 		strd	r2, r2, [r4, #-8]
 324              	.LBE70:
 325              	.LBE69:
 159:D:/fchai/work/i-cube/I-CUBE-HUAWEI/Middlewares/Third_Party/Huawei/iot_link/os/liteos/base/ipc\los_queue.c ****     pstQueueCB->usQueueSize = usMsgSize;
ARM GAS  T:\msys\tmp\ccLNSFcc.s 			page 14


 326              		.loc 1 159 28 view .LVU103
 327 0066 24F8165C 		strh	r5, [r4, #-22]	@ movhi
 160:D:/fchai/work/i-cube/I-CUBE-HUAWEI/Middlewares/Third_Party/Huawei/iot_link/os/liteos/base/ipc\los_queue.c ****     pstQueueCB->pucQueue = pucQueue;
 328              		.loc 1 160 5 is_stmt 1 view .LVU104
 160:D:/fchai/work/i-cube/I-CUBE-HUAWEI/Middlewares/Third_Party/Huawei/iot_link/os/liteos/base/ipc\los_queue.c ****     pstQueueCB->pucQueue = pucQueue;
 329              		.loc 1 160 29 is_stmt 0 view .LVU105
 330 006a 24F8146C 		strh	r6, [r4, #-20]	@ movhi
 161:D:/fchai/work/i-cube/I-CUBE-HUAWEI/Middlewares/Third_Party/Huawei/iot_link/os/liteos/base/ipc\los_queue.c ****     pstQueueCB->usQueueState = OS_QUEUE_INUSED;
 331              		.loc 1 161 5 is_stmt 1 view .LVU106
 161:D:/fchai/work/i-cube/I-CUBE-HUAWEI/Middlewares/Third_Party/Huawei/iot_link/os/liteos/base/ipc\los_queue.c ****     pstQueueCB->usQueueState = OS_QUEUE_INUSED;
 332              		.loc 1 161 26 is_stmt 0 view .LVU107
 333 006e 44F81C9C 		str	r9, [r4, #-28]
 162:D:/fchai/work/i-cube/I-CUBE-HUAWEI/Middlewares/Third_Party/Huawei/iot_link/os/liteos/base/ipc\los_queue.c ****     pstQueueCB->usReadWriteableCnt[OS_QUEUE_READ]  = 0;
 334              		.loc 1 162 5 is_stmt 1 view .LVU108
 164:D:/fchai/work/i-cube/I-CUBE-HUAWEI/Middlewares/Third_Party/Huawei/iot_link/os/liteos/base/ipc\los_queue.c ****     pstQueueCB->usQueueHead = 0;
 335              		.loc 1 164 52 is_stmt 0 view .LVU109
 336 0072 24F80A5C 		strh	r5, [r4, #-10]	@ movhi
 162:D:/fchai/work/i-cube/I-CUBE-HUAWEI/Middlewares/Third_Party/Huawei/iot_link/os/liteos/base/ipc\los_queue.c ****     pstQueueCB->usReadWriteableCnt[OS_QUEUE_READ]  = 0;
 337              		.loc 1 162 30 view .LVU110
 338 0076 24F8181C 		strh	r1, [r4, #-24]	@ movhi
 163:D:/fchai/work/i-cube/I-CUBE-HUAWEI/Middlewares/Third_Party/Huawei/iot_link/os/liteos/base/ipc\los_queue.c ****     pstQueueCB->usReadWriteableCnt[OS_QUEUE_WRITE] = usLen;
 339              		.loc 1 163 5 is_stmt 1 view .LVU111
 163:D:/fchai/work/i-cube/I-CUBE-HUAWEI/Middlewares/Third_Party/Huawei/iot_link/os/liteos/base/ipc\los_queue.c ****     pstQueueCB->usReadWriteableCnt[OS_QUEUE_WRITE] = usLen;
 340              		.loc 1 163 52 is_stmt 0 view .LVU112
 341 007a 24F80C8C 		strh	r8, [r4, #-12]	@ movhi
 164:D:/fchai/work/i-cube/I-CUBE-HUAWEI/Middlewares/Third_Party/Huawei/iot_link/os/liteos/base/ipc\los_queue.c ****     pstQueueCB->usQueueHead = 0;
 342              		.loc 1 164 5 is_stmt 1 view .LVU113
 165:D:/fchai/work/i-cube/I-CUBE-HUAWEI/Middlewares/Third_Party/Huawei/iot_link/os/liteos/base/ipc\los_queue.c ****     pstQueueCB->usQueueTail = 0;
 343              		.loc 1 165 5 view .LVU114
 165:D:/fchai/work/i-cube/I-CUBE-HUAWEI/Middlewares/Third_Party/Huawei/iot_link/os/liteos/base/ipc\los_queue.c ****     pstQueueCB->usQueueTail = 0;
 344              		.loc 1 165 29 is_stmt 0 view .LVU115
 345 007e 24F8108C 		strh	r8, [r4, #-16]	@ movhi
 166:D:/fchai/work/i-cube/I-CUBE-HUAWEI/Middlewares/Third_Party/Huawei/iot_link/os/liteos/base/ipc\los_queue.c ****     LOS_ListInit(&pstQueueCB->stReadWriteList[OS_QUEUE_READ]);
 346              		.loc 1 166 5 is_stmt 1 view .LVU116
 166:D:/fchai/work/i-cube/I-CUBE-HUAWEI/Middlewares/Third_Party/Huawei/iot_link/os/liteos/base/ipc\los_queue.c ****     LOS_ListInit(&pstQueueCB->stReadWriteList[OS_QUEUE_READ]);
 347              		.loc 1 166 29 is_stmt 0 view .LVU117
 348 0082 24F80E8C 		strh	r8, [r4, #-14]	@ movhi
 167:D:/fchai/work/i-cube/I-CUBE-HUAWEI/Middlewares/Third_Party/Huawei/iot_link/os/liteos/base/ipc\los_queue.c ****     LOS_ListInit(&pstQueueCB->stReadWriteList[OS_QUEUE_WRITE]);
 349              		.loc 1 167 5 is_stmt 1 view .LVU118
 350              	.LVL22:
 351              	.LBB72:
 352              	.LBI69:
  80:D:/fchai/work/i-cube/I-CUBE-HUAWEI/Middlewares/Third_Party/Huawei/iot_link/os/liteos/include\los_list.h **** {
 353              		.loc 2 80 43 view .LVU119
 354              	.LBB71:
  82:D:/fchai/work/i-cube/I-CUBE-HUAWEI/Middlewares/Third_Party/Huawei/iot_link/os/liteos/include\los_list.h ****     pstList->pstPrev = pstList;
 355              		.loc 2 82 5 view .LVU120
  82:D:/fchai/work/i-cube/I-CUBE-HUAWEI/Middlewares/Third_Party/Huawei/iot_link/os/liteos/include\los_list.h ****     pstList->pstPrev = pstList;
 356              		.loc 2 82 5 is_stmt 0 view .LVU121
 357              	.LBE71:
 358              	.LBE72:
 168:D:/fchai/work/i-cube/I-CUBE-HUAWEI/Middlewares/Third_Party/Huawei/iot_link/os/liteos/base/ipc\los_queue.c ****     LOS_ListInit(&pstQueueCB->stMemList);
 359              		.loc 1 168 5 is_stmt 1 view .LVU122
 360              	.LBB73:
 361              	.LBI66:
  80:D:/fchai/work/i-cube/I-CUBE-HUAWEI/Middlewares/Third_Party/Huawei/iot_link/os/liteos/include\los_list.h **** {
 362              		.loc 2 80 43 view .LVU123
ARM GAS  T:\msys\tmp\ccLNSFcc.s 			page 15


 363              	.LBB68:
  82:D:/fchai/work/i-cube/I-CUBE-HUAWEI/Middlewares/Third_Party/Huawei/iot_link/os/liteos/include\los_list.h ****     pstList->pstPrev = pstList;
 364              		.loc 2 82 5 view .LVU124
  83:D:/fchai/work/i-cube/I-CUBE-HUAWEI/Middlewares/Third_Party/Huawei/iot_link/os/liteos/include\los_list.h **** }
 365              		.loc 2 83 5 view .LVU125
  83:D:/fchai/work/i-cube/I-CUBE-HUAWEI/Middlewares/Third_Party/Huawei/iot_link/os/liteos/include\los_list.h **** }
 366              		.loc 2 83 5 is_stmt 0 view .LVU126
 367              	.LBE68:
 368              	.LBE73:
 369              		.loc 1 169 5 is_stmt 1 view .LVU127
 370              	.LBB74:
 371              	.LBI63:
  80:D:/fchai/work/i-cube/I-CUBE-HUAWEI/Middlewares/Third_Party/Huawei/iot_link/os/liteos/include\los_list.h **** {
 372              		.loc 2 80 43 view .LVU128
 373              	.LBB65:
  82:D:/fchai/work/i-cube/I-CUBE-HUAWEI/Middlewares/Third_Party/Huawei/iot_link/os/liteos/include\los_list.h ****     pstList->pstPrev = pstList;
 374              		.loc 2 82 5 view .LVU129
  82:D:/fchai/work/i-cube/I-CUBE-HUAWEI/Middlewares/Third_Party/Huawei/iot_link/os/liteos/include\los_list.h ****     pstList->pstPrev = pstList;
 375              		.loc 2 82 5 is_stmt 0 view .LVU130
 376              	.LBE65:
 377              	.LBE74:
 170:D:/fchai/work/i-cube/I-CUBE-HUAWEI/Middlewares/Third_Party/Huawei/iot_link/os/liteos/base/ipc\los_queue.c ****     LOS_IntRestore(uvIntSave);
 378              		.loc 1 170 5 is_stmt 1 view .LVU131
 379 0086 FFF7FEFF 		bl	LOS_IntRestore
 380              	.LVL23:
 171:D:/fchai/work/i-cube/I-CUBE-HUAWEI/Middlewares/Third_Party/Huawei/iot_link/os/liteos/base/ipc\los_queue.c **** 
 172:D:/fchai/work/i-cube/I-CUBE-HUAWEI/Middlewares/Third_Party/Huawei/iot_link/os/liteos/base/ipc\los_queue.c ****     *puwQueueID = pstQueueCB->usQueueID;
 381              		.loc 1 172 5 view .LVU132
 382              		.loc 1 172 29 is_stmt 0 view .LVU133
 383 008a 34F8123C 		ldrh	r3, [r4, #-18]
 384 008e 3B60     		str	r3, [r7]
 173:D:/fchai/work/i-cube/I-CUBE-HUAWEI/Middlewares/Third_Party/Huawei/iot_link/os/liteos/base/ipc\los_queue.c **** 
 174:D:/fchai/work/i-cube/I-CUBE-HUAWEI/Middlewares/Third_Party/Huawei/iot_link/os/liteos/base/ipc\los_queue.c ****     return LOS_OK;
 385              		.loc 1 174 5 is_stmt 1 view .LVU134
 386              		.loc 1 174 12 is_stmt 0 view .LVU135
 387 0090 4046     		mov	r0, r8
 388              	.LVL24:
 389              	.L12:
 175:D:/fchai/work/i-cube/I-CUBE-HUAWEI/Middlewares/Third_Party/Huawei/iot_link/os/liteos/base/ipc\los_queue.c **** }
 390              		.loc 1 175 1 view .LVU136
 391 0092 BDE8F883 		pop	{r3, r4, r5, r6, r7, r8, r9, pc}
 392              	.LVL25:
 393              	.L18:
 137:D:/fchai/work/i-cube/I-CUBE-HUAWEI/Middlewares/Third_Party/Huawei/iot_link/os/liteos/base/ipc\los_queue.c ****     }
 394              		.loc 1 137 16 view .LVU137
 395 0096 0B48     		ldr	r0, .L22+4
 396              	.LVL26:
 397              		.loc 1 175 1 view .LVU138
 398 0098 BDE8F883 		pop	{r3, r4, r5, r6, r7, r8, r9, pc}
 399              	.LVL27:
 400              	.L16:
 132:D:/fchai/work/i-cube/I-CUBE-HUAWEI/Middlewares/Third_Party/Huawei/iot_link/os/liteos/base/ipc\los_queue.c ****     }
 401              		.loc 1 132 16 view .LVU139
 402 009c 0A48     		ldr	r0, .L22+8
 403              	.LVL28:
 404              		.loc 1 175 1 view .LVU140
 405 009e BDE8F883 		pop	{r3, r4, r5, r6, r7, r8, r9, pc}
ARM GAS  T:\msys\tmp\ccLNSFcc.s 			page 16


 406              	.LVL29:
 407              	.L15:
 127:D:/fchai/work/i-cube/I-CUBE-HUAWEI/Middlewares/Third_Party/Huawei/iot_link/os/liteos/base/ipc\los_queue.c ****     }
 408              		.loc 1 127 16 view .LVU141
 409 00a2 0A48     		ldr	r0, .L22+12
 410              	.LVL30:
 411              		.loc 1 175 1 view .LVU142
 412 00a4 BDE8F883 		pop	{r3, r4, r5, r6, r7, r8, r9, pc}
 413              	.LVL31:
 414              	.L19:
 145:D:/fchai/work/i-cube/I-CUBE-HUAWEI/Middlewares/Third_Party/Huawei/iot_link/os/liteos/base/ipc\los_queue.c ****     }
 415              		.loc 1 145 16 view .LVU143
 416 00a8 0948     		ldr	r0, .L22+16
 417              	.LVL32:
 145:D:/fchai/work/i-cube/I-CUBE-HUAWEI/Middlewares/Third_Party/Huawei/iot_link/os/liteos/base/ipc\los_queue.c ****     }
 418              		.loc 1 145 16 view .LVU144
 419 00aa F2E7     		b	.L12
 420              	.LVL33:
 421              	.L21:
 151:D:/fchai/work/i-cube/I-CUBE-HUAWEI/Middlewares/Third_Party/Huawei/iot_link/os/liteos/base/ipc\los_queue.c ****         (VOID)LOS_MemFree(m_aucSysMem0, pucQueue);
 422              		.loc 1 151 9 is_stmt 1 view .LVU145
 423 00ac FFF7FEFF 		bl	LOS_IntRestore
 424              	.LVL34:
 152:D:/fchai/work/i-cube/I-CUBE-HUAWEI/Middlewares/Third_Party/Huawei/iot_link/os/liteos/base/ipc\los_queue.c ****         return LOS_ERRNO_QUEUE_CB_UNAVAILABLE;
 425              		.loc 1 152 9 view .LVU146
 152:D:/fchai/work/i-cube/I-CUBE-HUAWEI/Middlewares/Third_Party/Huawei/iot_link/os/liteos/base/ipc\los_queue.c ****         return LOS_ERRNO_QUEUE_CB_UNAVAILABLE;
 426              		.loc 1 152 15 is_stmt 0 view .LVU147
 427 00b0 D8F80000 		ldr	r0, [r8]
 428 00b4 4946     		mov	r1, r9
 429 00b6 FFF7FEFF 		bl	LOS_MemFree
 430              	.LVL35:
 153:D:/fchai/work/i-cube/I-CUBE-HUAWEI/Middlewares/Third_Party/Huawei/iot_link/os/liteos/base/ipc\los_queue.c ****     }
 431              		.loc 1 153 9 is_stmt 1 view .LVU148
 153:D:/fchai/work/i-cube/I-CUBE-HUAWEI/Middlewares/Third_Party/Huawei/iot_link/os/liteos/base/ipc\los_queue.c ****     }
 432              		.loc 1 153 16 is_stmt 0 view .LVU149
 433 00ba 0648     		ldr	r0, .L22+20
 434 00bc E9E7     		b	.L12
 435              	.L23:
 436 00be 00BF     		.align	2
 437              	.L22:
 438 00c0 00000000 		.word	g_stFreeQueueList
 439 00c4 0D060002 		.word	33555981
 440 00c8 03060002 		.word	33555971
 441 00cc 0C060002 		.word	33555980
 442 00d0 02060002 		.word	33555970
 443 00d4 04060002 		.word	33555972
 444 00d8 00000000 		.word	m_aucSysMem0
 445              		.cfi_endproc
 446              	.LFE134:
 448              		.section	.rodata.osQueueOperate.str1.4,"aMS",%progbits,1
 449              		.align	2
 450              	.LC0:
 451 0000 5B455252 		.ascii	"[ERR] \000"
 451      5D2000
 452 0007 00       		.align	2
 453              	.LC1:
 454 0008 696E7661 		.ascii	"invalid queue operate type!\000"
ARM GAS  T:\msys\tmp\ccLNSFcc.s 			page 17


 454      6C696420 
 454      71756575 
 454      65206F70 
 454      65726174 
 455              		.section	.text.osQueueOperate,"ax",%progbits
 456              		.align	1
 457              		.p2align 2,,3
 458              		.global	osQueueOperate
 459              		.syntax unified
 460              		.thumb
 461              		.thumb_func
 462              		.fpu fpv4-sp-d16
 464              	osQueueOperate:
 465              	.LVL36:
 466              	.LFB138:
 176:D:/fchai/work/i-cube/I-CUBE-HUAWEI/Middlewares/Third_Party/Huawei/iot_link/os/liteos/base/ipc\los_queue.c **** 
 177:D:/fchai/work/i-cube/I-CUBE-HUAWEI/Middlewares/Third_Party/Huawei/iot_link/os/liteos/base/ipc\los_queue.c **** LITE_OS_SEC_TEXT static INLINE UINT32 osQueueReadParameterCheck(UINT32 uwQueueID, VOID *pBufferAddr
 178:D:/fchai/work/i-cube/I-CUBE-HUAWEI/Middlewares/Third_Party/Huawei/iot_link/os/liteos/base/ipc\los_queue.c **** {
 179:D:/fchai/work/i-cube/I-CUBE-HUAWEI/Middlewares/Third_Party/Huawei/iot_link/os/liteos/base/ipc\los_queue.c ****     if (uwQueueID >= LOSCFG_BASE_IPC_QUEUE_LIMIT)
 180:D:/fchai/work/i-cube/I-CUBE-HUAWEI/Middlewares/Third_Party/Huawei/iot_link/os/liteos/base/ipc\los_queue.c ****     {
 181:D:/fchai/work/i-cube/I-CUBE-HUAWEI/Middlewares/Third_Party/Huawei/iot_link/os/liteos/base/ipc\los_queue.c ****         return LOS_ERRNO_QUEUE_INVALID;
 182:D:/fchai/work/i-cube/I-CUBE-HUAWEI/Middlewares/Third_Party/Huawei/iot_link/os/liteos/base/ipc\los_queue.c ****     }
 183:D:/fchai/work/i-cube/I-CUBE-HUAWEI/Middlewares/Third_Party/Huawei/iot_link/os/liteos/base/ipc\los_queue.c ****     if ((NULL == pBufferAddr) || (NULL == puwBufferSize))
 184:D:/fchai/work/i-cube/I-CUBE-HUAWEI/Middlewares/Third_Party/Huawei/iot_link/os/liteos/base/ipc\los_queue.c ****     {
 185:D:/fchai/work/i-cube/I-CUBE-HUAWEI/Middlewares/Third_Party/Huawei/iot_link/os/liteos/base/ipc\los_queue.c ****         return LOS_ERRNO_QUEUE_READ_PTR_NULL;
 186:D:/fchai/work/i-cube/I-CUBE-HUAWEI/Middlewares/Third_Party/Huawei/iot_link/os/liteos/base/ipc\los_queue.c ****     }
 187:D:/fchai/work/i-cube/I-CUBE-HUAWEI/Middlewares/Third_Party/Huawei/iot_link/os/liteos/base/ipc\los_queue.c **** 
 188:D:/fchai/work/i-cube/I-CUBE-HUAWEI/Middlewares/Third_Party/Huawei/iot_link/os/liteos/base/ipc\los_queue.c ****     if (0 == *puwBufferSize)
 189:D:/fchai/work/i-cube/I-CUBE-HUAWEI/Middlewares/Third_Party/Huawei/iot_link/os/liteos/base/ipc\los_queue.c ****     {
 190:D:/fchai/work/i-cube/I-CUBE-HUAWEI/Middlewares/Third_Party/Huawei/iot_link/os/liteos/base/ipc\los_queue.c ****         return LOS_ERRNO_QUEUE_READSIZE_ISZERO;
 191:D:/fchai/work/i-cube/I-CUBE-HUAWEI/Middlewares/Third_Party/Huawei/iot_link/os/liteos/base/ipc\los_queue.c ****     }
 192:D:/fchai/work/i-cube/I-CUBE-HUAWEI/Middlewares/Third_Party/Huawei/iot_link/os/liteos/base/ipc\los_queue.c **** 
 193:D:/fchai/work/i-cube/I-CUBE-HUAWEI/Middlewares/Third_Party/Huawei/iot_link/os/liteos/base/ipc\los_queue.c ****     if (LOS_NO_WAIT != uwTimeOut)
 194:D:/fchai/work/i-cube/I-CUBE-HUAWEI/Middlewares/Third_Party/Huawei/iot_link/os/liteos/base/ipc\los_queue.c ****     {
 195:D:/fchai/work/i-cube/I-CUBE-HUAWEI/Middlewares/Third_Party/Huawei/iot_link/os/liteos/base/ipc\los_queue.c ****         if (OS_INT_ACTIVE)
 196:D:/fchai/work/i-cube/I-CUBE-HUAWEI/Middlewares/Third_Party/Huawei/iot_link/os/liteos/base/ipc\los_queue.c ****         {
 197:D:/fchai/work/i-cube/I-CUBE-HUAWEI/Middlewares/Third_Party/Huawei/iot_link/os/liteos/base/ipc\los_queue.c ****             return LOS_ERRNO_QUEUE_READ_IN_INTERRUPT;
 198:D:/fchai/work/i-cube/I-CUBE-HUAWEI/Middlewares/Third_Party/Huawei/iot_link/os/liteos/base/ipc\los_queue.c ****         }
 199:D:/fchai/work/i-cube/I-CUBE-HUAWEI/Middlewares/Third_Party/Huawei/iot_link/os/liteos/base/ipc\los_queue.c ****     }
 200:D:/fchai/work/i-cube/I-CUBE-HUAWEI/Middlewares/Third_Party/Huawei/iot_link/os/liteos/base/ipc\los_queue.c ****     return LOS_OK;
 201:D:/fchai/work/i-cube/I-CUBE-HUAWEI/Middlewares/Third_Party/Huawei/iot_link/os/liteos/base/ipc\los_queue.c **** }
 202:D:/fchai/work/i-cube/I-CUBE-HUAWEI/Middlewares/Third_Party/Huawei/iot_link/os/liteos/base/ipc\los_queue.c **** 
 203:D:/fchai/work/i-cube/I-CUBE-HUAWEI/Middlewares/Third_Party/Huawei/iot_link/os/liteos/base/ipc\los_queue.c **** 
 204:D:/fchai/work/i-cube/I-CUBE-HUAWEI/Middlewares/Third_Party/Huawei/iot_link/os/liteos/base/ipc\los_queue.c **** LITE_OS_SEC_TEXT static INLINE UINT32 osQueueWriteParameterCheck(UINT32 uwQueueID, VOID *pBufferAdd
 205:D:/fchai/work/i-cube/I-CUBE-HUAWEI/Middlewares/Third_Party/Huawei/iot_link/os/liteos/base/ipc\los_queue.c **** {
 206:D:/fchai/work/i-cube/I-CUBE-HUAWEI/Middlewares/Third_Party/Huawei/iot_link/os/liteos/base/ipc\los_queue.c ****     if (uwQueueID >= LOSCFG_BASE_IPC_QUEUE_LIMIT)
 207:D:/fchai/work/i-cube/I-CUBE-HUAWEI/Middlewares/Third_Party/Huawei/iot_link/os/liteos/base/ipc\los_queue.c ****     {
 208:D:/fchai/work/i-cube/I-CUBE-HUAWEI/Middlewares/Third_Party/Huawei/iot_link/os/liteos/base/ipc\los_queue.c ****         return LOS_ERRNO_QUEUE_INVALID;
 209:D:/fchai/work/i-cube/I-CUBE-HUAWEI/Middlewares/Third_Party/Huawei/iot_link/os/liteos/base/ipc\los_queue.c ****     }
 210:D:/fchai/work/i-cube/I-CUBE-HUAWEI/Middlewares/Third_Party/Huawei/iot_link/os/liteos/base/ipc\los_queue.c **** 
 211:D:/fchai/work/i-cube/I-CUBE-HUAWEI/Middlewares/Third_Party/Huawei/iot_link/os/liteos/base/ipc\los_queue.c ****     if (NULL == pBufferAddr)
 212:D:/fchai/work/i-cube/I-CUBE-HUAWEI/Middlewares/Third_Party/Huawei/iot_link/os/liteos/base/ipc\los_queue.c ****     {
 213:D:/fchai/work/i-cube/I-CUBE-HUAWEI/Middlewares/Third_Party/Huawei/iot_link/os/liteos/base/ipc\los_queue.c ****         return LOS_ERRNO_QUEUE_WRITE_PTR_NULL;
 214:D:/fchai/work/i-cube/I-CUBE-HUAWEI/Middlewares/Third_Party/Huawei/iot_link/os/liteos/base/ipc\los_queue.c ****     }
 215:D:/fchai/work/i-cube/I-CUBE-HUAWEI/Middlewares/Third_Party/Huawei/iot_link/os/liteos/base/ipc\los_queue.c **** 
 216:D:/fchai/work/i-cube/I-CUBE-HUAWEI/Middlewares/Third_Party/Huawei/iot_link/os/liteos/base/ipc\los_queue.c ****     if (0 == *puwBufferSize)
 217:D:/fchai/work/i-cube/I-CUBE-HUAWEI/Middlewares/Third_Party/Huawei/iot_link/os/liteos/base/ipc\los_queue.c ****     {
ARM GAS  T:\msys\tmp\ccLNSFcc.s 			page 18


 218:D:/fchai/work/i-cube/I-CUBE-HUAWEI/Middlewares/Third_Party/Huawei/iot_link/os/liteos/base/ipc\los_queue.c ****         return LOS_ERRNO_QUEUE_WRITESIZE_ISZERO;
 219:D:/fchai/work/i-cube/I-CUBE-HUAWEI/Middlewares/Third_Party/Huawei/iot_link/os/liteos/base/ipc\los_queue.c ****     }
 220:D:/fchai/work/i-cube/I-CUBE-HUAWEI/Middlewares/Third_Party/Huawei/iot_link/os/liteos/base/ipc\los_queue.c **** 
 221:D:/fchai/work/i-cube/I-CUBE-HUAWEI/Middlewares/Third_Party/Huawei/iot_link/os/liteos/base/ipc\los_queue.c ****     if (LOS_NO_WAIT != uwTimeOut)
 222:D:/fchai/work/i-cube/I-CUBE-HUAWEI/Middlewares/Third_Party/Huawei/iot_link/os/liteos/base/ipc\los_queue.c ****     {
 223:D:/fchai/work/i-cube/I-CUBE-HUAWEI/Middlewares/Third_Party/Huawei/iot_link/os/liteos/base/ipc\los_queue.c ****         if (OS_INT_ACTIVE)
 224:D:/fchai/work/i-cube/I-CUBE-HUAWEI/Middlewares/Third_Party/Huawei/iot_link/os/liteos/base/ipc\los_queue.c ****         {
 225:D:/fchai/work/i-cube/I-CUBE-HUAWEI/Middlewares/Third_Party/Huawei/iot_link/os/liteos/base/ipc\los_queue.c ****             return LOS_ERRNO_QUEUE_WRITE_IN_INTERRUPT;
 226:D:/fchai/work/i-cube/I-CUBE-HUAWEI/Middlewares/Third_Party/Huawei/iot_link/os/liteos/base/ipc\los_queue.c ****         }
 227:D:/fchai/work/i-cube/I-CUBE-HUAWEI/Middlewares/Third_Party/Huawei/iot_link/os/liteos/base/ipc\los_queue.c ****     }
 228:D:/fchai/work/i-cube/I-CUBE-HUAWEI/Middlewares/Third_Party/Huawei/iot_link/os/liteos/base/ipc\los_queue.c ****     return LOS_OK;
 229:D:/fchai/work/i-cube/I-CUBE-HUAWEI/Middlewares/Third_Party/Huawei/iot_link/os/liteos/base/ipc\los_queue.c **** }
 230:D:/fchai/work/i-cube/I-CUBE-HUAWEI/Middlewares/Third_Party/Huawei/iot_link/os/liteos/base/ipc\los_queue.c **** 
 231:D:/fchai/work/i-cube/I-CUBE-HUAWEI/Middlewares/Third_Party/Huawei/iot_link/os/liteos/base/ipc\los_queue.c **** LITE_OS_SEC_TEXT static INLINE VOID osQueueBufferOperate(QUEUE_CB_S *pstQueueCB, UINT32 uwOperateTy
 232:D:/fchai/work/i-cube/I-CUBE-HUAWEI/Middlewares/Third_Party/Huawei/iot_link/os/liteos/base/ipc\los_queue.c **** {
 233:D:/fchai/work/i-cube/I-CUBE-HUAWEI/Middlewares/Third_Party/Huawei/iot_link/os/liteos/base/ipc\los_queue.c ****     UINT8        *pucQueueNode;
 234:D:/fchai/work/i-cube/I-CUBE-HUAWEI/Middlewares/Third_Party/Huawei/iot_link/os/liteos/base/ipc\los_queue.c ****     UINT32       uwMsgDataSize = 0;
 235:D:/fchai/work/i-cube/I-CUBE-HUAWEI/Middlewares/Third_Party/Huawei/iot_link/os/liteos/base/ipc\los_queue.c ****     UINT16      usQueuePosion = 0;
 236:D:/fchai/work/i-cube/I-CUBE-HUAWEI/Middlewares/Third_Party/Huawei/iot_link/os/liteos/base/ipc\los_queue.c **** 
 237:D:/fchai/work/i-cube/I-CUBE-HUAWEI/Middlewares/Third_Party/Huawei/iot_link/os/liteos/base/ipc\los_queue.c ****     /* get the queue position */
 238:D:/fchai/work/i-cube/I-CUBE-HUAWEI/Middlewares/Third_Party/Huawei/iot_link/os/liteos/base/ipc\los_queue.c ****     switch (OS_QUEUE_OPERATE_GET(uwOperateType))
 239:D:/fchai/work/i-cube/I-CUBE-HUAWEI/Middlewares/Third_Party/Huawei/iot_link/os/liteos/base/ipc\los_queue.c ****     {
 240:D:/fchai/work/i-cube/I-CUBE-HUAWEI/Middlewares/Third_Party/Huawei/iot_link/os/liteos/base/ipc\los_queue.c ****         case OS_QUEUE_READ_HEAD:
 241:D:/fchai/work/i-cube/I-CUBE-HUAWEI/Middlewares/Third_Party/Huawei/iot_link/os/liteos/base/ipc\los_queue.c ****             usQueuePosion = pstQueueCB->usQueueHead;
 242:D:/fchai/work/i-cube/I-CUBE-HUAWEI/Middlewares/Third_Party/Huawei/iot_link/os/liteos/base/ipc\los_queue.c ****             (pstQueueCB->usQueueHead + 1 == pstQueueCB->usQueueLen) ? (pstQueueCB->usQueueHead = 0)
 243:D:/fchai/work/i-cube/I-CUBE-HUAWEI/Middlewares/Third_Party/Huawei/iot_link/os/liteos/base/ipc\los_queue.c ****             break;
 244:D:/fchai/work/i-cube/I-CUBE-HUAWEI/Middlewares/Third_Party/Huawei/iot_link/os/liteos/base/ipc\los_queue.c **** 
 245:D:/fchai/work/i-cube/I-CUBE-HUAWEI/Middlewares/Third_Party/Huawei/iot_link/os/liteos/base/ipc\los_queue.c ****         case OS_QUEUE_WRITE_HEAD:
 246:D:/fchai/work/i-cube/I-CUBE-HUAWEI/Middlewares/Third_Party/Huawei/iot_link/os/liteos/base/ipc\los_queue.c ****             (0 == pstQueueCB->usQueueHead) ? (pstQueueCB->usQueueHead = pstQueueCB->usQueueLen - 1)
 247:D:/fchai/work/i-cube/I-CUBE-HUAWEI/Middlewares/Third_Party/Huawei/iot_link/os/liteos/base/ipc\los_queue.c ****             usQueuePosion = pstQueueCB->usQueueHead;
 248:D:/fchai/work/i-cube/I-CUBE-HUAWEI/Middlewares/Third_Party/Huawei/iot_link/os/liteos/base/ipc\los_queue.c ****             break;
 249:D:/fchai/work/i-cube/I-CUBE-HUAWEI/Middlewares/Third_Party/Huawei/iot_link/os/liteos/base/ipc\los_queue.c **** 
 250:D:/fchai/work/i-cube/I-CUBE-HUAWEI/Middlewares/Third_Party/Huawei/iot_link/os/liteos/base/ipc\los_queue.c ****         case OS_QUEUE_WRITE_TAIL :
 251:D:/fchai/work/i-cube/I-CUBE-HUAWEI/Middlewares/Third_Party/Huawei/iot_link/os/liteos/base/ipc\los_queue.c ****             usQueuePosion = pstQueueCB->usQueueTail;
 252:D:/fchai/work/i-cube/I-CUBE-HUAWEI/Middlewares/Third_Party/Huawei/iot_link/os/liteos/base/ipc\los_queue.c ****             (pstQueueCB->usQueueTail + 1 == pstQueueCB->usQueueLen) ? (pstQueueCB->usQueueTail = 0)
 253:D:/fchai/work/i-cube/I-CUBE-HUAWEI/Middlewares/Third_Party/Huawei/iot_link/os/liteos/base/ipc\los_queue.c ****             break;
 254:D:/fchai/work/i-cube/I-CUBE-HUAWEI/Middlewares/Third_Party/Huawei/iot_link/os/liteos/base/ipc\los_queue.c **** 
 255:D:/fchai/work/i-cube/I-CUBE-HUAWEI/Middlewares/Third_Party/Huawei/iot_link/os/liteos/base/ipc\los_queue.c ****         default: //read tail , reserved.
 256:D:/fchai/work/i-cube/I-CUBE-HUAWEI/Middlewares/Third_Party/Huawei/iot_link/os/liteos/base/ipc\los_queue.c ****             PRINT_ERR("invalid queue operate type!\n");
 257:D:/fchai/work/i-cube/I-CUBE-HUAWEI/Middlewares/Third_Party/Huawei/iot_link/os/liteos/base/ipc\los_queue.c ****             return;
 258:D:/fchai/work/i-cube/I-CUBE-HUAWEI/Middlewares/Third_Party/Huawei/iot_link/os/liteos/base/ipc\los_queue.c ****     }
 259:D:/fchai/work/i-cube/I-CUBE-HUAWEI/Middlewares/Third_Party/Huawei/iot_link/os/liteos/base/ipc\los_queue.c **** 
 260:D:/fchai/work/i-cube/I-CUBE-HUAWEI/Middlewares/Third_Party/Huawei/iot_link/os/liteos/base/ipc\los_queue.c ****     pucQueueNode = &(pstQueueCB->pucQueue[(usQueuePosion * (pstQueueCB->usQueueSize))]);
 261:D:/fchai/work/i-cube/I-CUBE-HUAWEI/Middlewares/Third_Party/Huawei/iot_link/os/liteos/base/ipc\los_queue.c **** 
 262:D:/fchai/work/i-cube/I-CUBE-HUAWEI/Middlewares/Third_Party/Huawei/iot_link/os/liteos/base/ipc\los_queue.c ****     if(OS_QUEUE_IS_POINT(uwOperateType))
 263:D:/fchai/work/i-cube/I-CUBE-HUAWEI/Middlewares/Third_Party/Huawei/iot_link/os/liteos/base/ipc\los_queue.c ****     {
 264:D:/fchai/work/i-cube/I-CUBE-HUAWEI/Middlewares/Third_Party/Huawei/iot_link/os/liteos/base/ipc\los_queue.c ****         if(OS_QUEUE_IS_READ(uwOperateType))
 265:D:/fchai/work/i-cube/I-CUBE-HUAWEI/Middlewares/Third_Party/Huawei/iot_link/os/liteos/base/ipc\los_queue.c ****         {
 266:D:/fchai/work/i-cube/I-CUBE-HUAWEI/Middlewares/Third_Party/Huawei/iot_link/os/liteos/base/ipc\los_queue.c ****             *(UINT32 *)pBufferAddr = *(UINT32 *)pucQueueNode;
 267:D:/fchai/work/i-cube/I-CUBE-HUAWEI/Middlewares/Third_Party/Huawei/iot_link/os/liteos/base/ipc\los_queue.c ****         }
 268:D:/fchai/work/i-cube/I-CUBE-HUAWEI/Middlewares/Third_Party/Huawei/iot_link/os/liteos/base/ipc\los_queue.c ****         else
 269:D:/fchai/work/i-cube/I-CUBE-HUAWEI/Middlewares/Third_Party/Huawei/iot_link/os/liteos/base/ipc\los_queue.c ****         {
 270:D:/fchai/work/i-cube/I-CUBE-HUAWEI/Middlewares/Third_Party/Huawei/iot_link/os/liteos/base/ipc\los_queue.c ****             *(UINT32 *)pucQueueNode = *(UINT32 *)pBufferAddr;//change to pp when calling osQueueOpe
 271:D:/fchai/work/i-cube/I-CUBE-HUAWEI/Middlewares/Third_Party/Huawei/iot_link/os/liteos/base/ipc\los_queue.c ****         }
 272:D:/fchai/work/i-cube/I-CUBE-HUAWEI/Middlewares/Third_Party/Huawei/iot_link/os/liteos/base/ipc\los_queue.c ****     }
 273:D:/fchai/work/i-cube/I-CUBE-HUAWEI/Middlewares/Third_Party/Huawei/iot_link/os/liteos/base/ipc\los_queue.c ****     else
 274:D:/fchai/work/i-cube/I-CUBE-HUAWEI/Middlewares/Third_Party/Huawei/iot_link/os/liteos/base/ipc\los_queue.c ****     {
ARM GAS  T:\msys\tmp\ccLNSFcc.s 			page 19


 275:D:/fchai/work/i-cube/I-CUBE-HUAWEI/Middlewares/Third_Party/Huawei/iot_link/os/liteos/base/ipc\los_queue.c ****         if(OS_QUEUE_IS_READ(uwOperateType))
 276:D:/fchai/work/i-cube/I-CUBE-HUAWEI/Middlewares/Third_Party/Huawei/iot_link/os/liteos/base/ipc\los_queue.c ****         {
 277:D:/fchai/work/i-cube/I-CUBE-HUAWEI/Middlewares/Third_Party/Huawei/iot_link/os/liteos/base/ipc\los_queue.c ****             memcpy((VOID *)&uwMsgDataSize, (VOID *)(pucQueueNode + pstQueueCB->usQueueSize - sizeof
 278:D:/fchai/work/i-cube/I-CUBE-HUAWEI/Middlewares/Third_Party/Huawei/iot_link/os/liteos/base/ipc\los_queue.c ****             memcpy((VOID *)pBufferAddr, (VOID *)pucQueueNode, uwMsgDataSize);
 279:D:/fchai/work/i-cube/I-CUBE-HUAWEI/Middlewares/Third_Party/Huawei/iot_link/os/liteos/base/ipc\los_queue.c ****             *puwBufferSize = uwMsgDataSize;
 280:D:/fchai/work/i-cube/I-CUBE-HUAWEI/Middlewares/Third_Party/Huawei/iot_link/os/liteos/base/ipc\los_queue.c ****         }
 281:D:/fchai/work/i-cube/I-CUBE-HUAWEI/Middlewares/Third_Party/Huawei/iot_link/os/liteos/base/ipc\los_queue.c ****         else
 282:D:/fchai/work/i-cube/I-CUBE-HUAWEI/Middlewares/Third_Party/Huawei/iot_link/os/liteos/base/ipc\los_queue.c ****         {
 283:D:/fchai/work/i-cube/I-CUBE-HUAWEI/Middlewares/Third_Party/Huawei/iot_link/os/liteos/base/ipc\los_queue.c ****             memcpy((VOID *)pucQueueNode, (VOID *)pBufferAddr, *puwBufferSize);
 284:D:/fchai/work/i-cube/I-CUBE-HUAWEI/Middlewares/Third_Party/Huawei/iot_link/os/liteos/base/ipc\los_queue.c ****             memcpy((VOID *)(pucQueueNode + pstQueueCB->usQueueSize - sizeof(UINT32)), puwBufferSize
 285:D:/fchai/work/i-cube/I-CUBE-HUAWEI/Middlewares/Third_Party/Huawei/iot_link/os/liteos/base/ipc\los_queue.c ****         }
 286:D:/fchai/work/i-cube/I-CUBE-HUAWEI/Middlewares/Third_Party/Huawei/iot_link/os/liteos/base/ipc\los_queue.c ****     }
 287:D:/fchai/work/i-cube/I-CUBE-HUAWEI/Middlewares/Third_Party/Huawei/iot_link/os/liteos/base/ipc\los_queue.c **** }
 288:D:/fchai/work/i-cube/I-CUBE-HUAWEI/Middlewares/Third_Party/Huawei/iot_link/os/liteos/base/ipc\los_queue.c **** 
 289:D:/fchai/work/i-cube/I-CUBE-HUAWEI/Middlewares/Third_Party/Huawei/iot_link/os/liteos/base/ipc\los_queue.c **** 
 290:D:/fchai/work/i-cube/I-CUBE-HUAWEI/Middlewares/Third_Party/Huawei/iot_link/os/liteos/base/ipc\los_queue.c **** LITE_OS_SEC_TEXT UINT32 osQueueOperate(UINT32 uwQueueID, UINT32 uwOperateType, VOID *pBufferAddr, U
 291:D:/fchai/work/i-cube/I-CUBE-HUAWEI/Middlewares/Third_Party/Huawei/iot_link/os/liteos/base/ipc\los_queue.c **** {
 467              		.loc 1 291 1 is_stmt 1 view -0
 468              		.cfi_startproc
 469              		@ args = 4, pretend = 0, frame = 8
 470              		@ frame_needed = 0, uses_anonymous_args = 0
 292:D:/fchai/work/i-cube/I-CUBE-HUAWEI/Middlewares/Third_Party/Huawei/iot_link/os/liteos/base/ipc\los_queue.c ****     QUEUE_CB_S *pstQueueCB;
 471              		.loc 1 292 5 view .LVU151
 293:D:/fchai/work/i-cube/I-CUBE-HUAWEI/Middlewares/Third_Party/Huawei/iot_link/os/liteos/base/ipc\los_queue.c ****     LOS_TASK_CB  *pstRunTsk;
 472              		.loc 1 293 5 view .LVU152
 294:D:/fchai/work/i-cube/I-CUBE-HUAWEI/Middlewares/Third_Party/Huawei/iot_link/os/liteos/base/ipc\los_queue.c ****     UINTPTR      uvIntSave;
 473              		.loc 1 294 5 view .LVU153
 295:D:/fchai/work/i-cube/I-CUBE-HUAWEI/Middlewares/Third_Party/Huawei/iot_link/os/liteos/base/ipc\los_queue.c ****     LOS_TASK_CB  *pstResumedTask;
 474              		.loc 1 295 5 view .LVU154
 296:D:/fchai/work/i-cube/I-CUBE-HUAWEI/Middlewares/Third_Party/Huawei/iot_link/os/liteos/base/ipc\los_queue.c ****     UINT32       uwRet = LOS_OK;
 475              		.loc 1 296 5 view .LVU155
 297:D:/fchai/work/i-cube/I-CUBE-HUAWEI/Middlewares/Third_Party/Huawei/iot_link/os/liteos/base/ipc\los_queue.c ****     UINT32       uwReadWrite = OS_QUEUE_READ_WRITE_GET(uwOperateType);
 476              		.loc 1 297 5 view .LVU156
 291:D:/fchai/work/i-cube/I-CUBE-HUAWEI/Middlewares/Third_Party/Huawei/iot_link/os/liteos/base/ipc\los_queue.c ****     QUEUE_CB_S *pstQueueCB;
 477              		.loc 1 291 1 is_stmt 0 view .LVU157
 478 0000 2DE9F04F 		push	{r4, r5, r6, r7, r8, r9, r10, fp, lr}
 479              	.LCFI2:
 480              		.cfi_def_cfa_offset 36
 481              		.cfi_offset 4, -36
 482              		.cfi_offset 5, -32
 483              		.cfi_offset 6, -28
 484              		.cfi_offset 7, -24
 485              		.cfi_offset 8, -20
 486              		.cfi_offset 9, -16
 487              		.cfi_offset 10, -12
 488              		.cfi_offset 11, -8
 489              		.cfi_offset 14, -4
 490 0004 83B0     		sub	sp, sp, #12
 491              	.LCFI3:
 492              		.cfi_def_cfa_offset 48
 291:D:/fchai/work/i-cube/I-CUBE-HUAWEI/Middlewares/Third_Party/Huawei/iot_link/os/liteos/base/ipc\los_queue.c ****     QUEUE_CB_S *pstQueueCB;
 493              		.loc 1 291 1 view .LVU158
 494 0006 0746     		mov	r7, r0
 495 0008 9146     		mov	r9, r2
 496 000a 9846     		mov	r8, r3
 497 000c 0D46     		mov	r5, r1
 498              	.LVL37:
ARM GAS  T:\msys\tmp\ccLNSFcc.s 			page 20


 298:D:/fchai/work/i-cube/I-CUBE-HUAWEI/Middlewares/Third_Party/Huawei/iot_link/os/liteos/base/ipc\los_queue.c **** 
 299:D:/fchai/work/i-cube/I-CUBE-HUAWEI/Middlewares/Third_Party/Huawei/iot_link/os/liteos/base/ipc\los_queue.c ****     uvIntSave = LOS_IntLock();
 499              		.loc 1 299 5 is_stmt 1 view .LVU159
 500              		.loc 1 299 17 is_stmt 0 view .LVU160
 501 000e FFF7FEFF 		bl	LOS_IntLock
 502              	.LVL38:
 300:D:/fchai/work/i-cube/I-CUBE-HUAWEI/Middlewares/Third_Party/Huawei/iot_link/os/liteos/base/ipc\los_queue.c **** 
 301:D:/fchai/work/i-cube/I-CUBE-HUAWEI/Middlewares/Third_Party/Huawei/iot_link/os/liteos/base/ipc\los_queue.c ****     pstQueueCB = (QUEUE_CB_S *)GET_QUEUE_HANDLE(uwQueueID);
 503              		.loc 1 301 18 view .LVU161
 504 0012 6A4B     		ldr	r3, .L59
 505              		.loc 1 301 32 view .LVU162
 506 0014 2C22     		movs	r2, #44
 507              		.loc 1 301 16 view .LVU163
 508 0016 1B68     		ldr	r3, [r3]
 509              		.loc 1 301 32 view .LVU164
 510 0018 02FB07F7 		mul	r7, r2, r7
 511              	.LVL39:
 512              		.loc 1 301 16 view .LVU165
 513 001c DC19     		adds	r4, r3, r7
 299:D:/fchai/work/i-cube/I-CUBE-HUAWEI/Middlewares/Third_Party/Huawei/iot_link/os/liteos/base/ipc\los_queue.c **** 
 514              		.loc 1 299 17 view .LVU166
 515 001e 0646     		mov	r6, r0
 516              	.LVL40:
 517              		.loc 1 301 5 is_stmt 1 view .LVU167
 302:D:/fchai/work/i-cube/I-CUBE-HUAWEI/Middlewares/Third_Party/Huawei/iot_link/os/liteos/base/ipc\los_queue.c ****     if (OS_QUEUE_UNUSED == pstQueueCB->usQueueState)
 518              		.loc 1 302 5 view .LVU168
 519              		.loc 1 302 8 is_stmt 0 view .LVU169
 520 0020 A288     		ldrh	r2, [r4, #4]
 521 0022 002A     		cmp	r2, #0
 522 0024 3DD0     		beq	.L45
 303:D:/fchai/work/i-cube/I-CUBE-HUAWEI/Middlewares/Third_Party/Huawei/iot_link/os/liteos/base/ipc\los_queue.c ****     {
 304:D:/fchai/work/i-cube/I-CUBE-HUAWEI/Middlewares/Third_Party/Huawei/iot_link/os/liteos/base/ipc\los_queue.c ****         uwRet = LOS_ERRNO_QUEUE_NOT_CREATE;
 305:D:/fchai/work/i-cube/I-CUBE-HUAWEI/Middlewares/Third_Party/Huawei/iot_link/os/liteos/base/ipc\los_queue.c ****         goto QUEUE_END;
 306:D:/fchai/work/i-cube/I-CUBE-HUAWEI/Middlewares/Third_Party/Huawei/iot_link/os/liteos/base/ipc\los_queue.c **** 
 307:D:/fchai/work/i-cube/I-CUBE-HUAWEI/Middlewares/Third_Party/Huawei/iot_link/os/liteos/base/ipc\los_queue.c ****     }
 308:D:/fchai/work/i-cube/I-CUBE-HUAWEI/Middlewares/Third_Party/Huawei/iot_link/os/liteos/base/ipc\los_queue.c **** 
 309:D:/fchai/work/i-cube/I-CUBE-HUAWEI/Middlewares/Third_Party/Huawei/iot_link/os/liteos/base/ipc\los_queue.c ****     if(OS_QUEUE_IS_READ(uwOperateType) && (*puwBufferSize < pstQueueCB->usQueueSize - sizeof(UINT32
 523              		.loc 1 309 5 is_stmt 1 view .LVU170
 524              		.loc 1 309 71 is_stmt 0 view .LVU171
 525 0026 2289     		ldrh	r2, [r4, #8]
 526              		.loc 1 309 40 view .LVU172
 527 0028 D8F80010 		ldr	r1, [r8]
 528              		.loc 1 309 7 view .LVU173
 529 002c 15F0010A 		ands	r10, r5, #1
 530              	.LVL41:
 531              		.loc 1 309 85 view .LVU174
 532 0030 A2F10402 		sub	r2, r2, #4
 533              		.loc 1 309 7 view .LVU175
 534 0034 31D1     		bne	.L26
 535              		.loc 1 309 40 discriminator 1 view .LVU176
 536 0036 9142     		cmp	r1, r2
 537 0038 C0F08280 		bcc	.L54
 538              	.L27:
 310:D:/fchai/work/i-cube/I-CUBE-HUAWEI/Middlewares/Third_Party/Huawei/iot_link/os/liteos/base/ipc\los_queue.c ****     {
 311:D:/fchai/work/i-cube/I-CUBE-HUAWEI/Middlewares/Third_Party/Huawei/iot_link/os/liteos/base/ipc\los_queue.c ****         uwRet = LOS_ERRNO_QUEUE_READ_SIZE_TOO_SMALL;
 312:D:/fchai/work/i-cube/I-CUBE-HUAWEI/Middlewares/Third_Party/Huawei/iot_link/os/liteos/base/ipc\los_queue.c ****         goto QUEUE_END;
 313:D:/fchai/work/i-cube/I-CUBE-HUAWEI/Middlewares/Third_Party/Huawei/iot_link/os/liteos/base/ipc\los_queue.c ****     }
ARM GAS  T:\msys\tmp\ccLNSFcc.s 			page 21


 314:D:/fchai/work/i-cube/I-CUBE-HUAWEI/Middlewares/Third_Party/Huawei/iot_link/os/liteos/base/ipc\los_queue.c ****     else if(OS_QUEUE_IS_WRITE(uwOperateType) && (*puwBufferSize > pstQueueCB->usQueueSize - sizeof(
 315:D:/fchai/work/i-cube/I-CUBE-HUAWEI/Middlewares/Third_Party/Huawei/iot_link/os/liteos/base/ipc\los_queue.c ****     {
 316:D:/fchai/work/i-cube/I-CUBE-HUAWEI/Middlewares/Third_Party/Huawei/iot_link/os/liteos/base/ipc\los_queue.c ****         uwRet = LOS_ERRNO_QUEUE_WRITE_SIZE_TOO_BIG;
 317:D:/fchai/work/i-cube/I-CUBE-HUAWEI/Middlewares/Third_Party/Huawei/iot_link/os/liteos/base/ipc\los_queue.c ****         goto QUEUE_END;
 318:D:/fchai/work/i-cube/I-CUBE-HUAWEI/Middlewares/Third_Party/Huawei/iot_link/os/liteos/base/ipc\los_queue.c ****     }
 319:D:/fchai/work/i-cube/I-CUBE-HUAWEI/Middlewares/Third_Party/Huawei/iot_link/os/liteos/base/ipc\los_queue.c **** 
 320:D:/fchai/work/i-cube/I-CUBE-HUAWEI/Middlewares/Third_Party/Huawei/iot_link/os/liteos/base/ipc\los_queue.c ****     if (0 == pstQueueCB->usReadWriteableCnt[uwReadWrite])
 539              		.loc 1 320 5 is_stmt 1 view .LVU177
 540 003c 04EB4A01 		add	r1, r4, r10, lsl #1
 541              		.loc 1 320 44 is_stmt 0 view .LVU178
 542 0040 0A8A     		ldrh	r2, [r1, #16]
 543              		.loc 1 320 8 view .LVU179
 544 0042 002A     		cmp	r2, #0
 545 0044 35D1     		bne	.L28
 321:D:/fchai/work/i-cube/I-CUBE-HUAWEI/Middlewares/Third_Party/Huawei/iot_link/os/liteos/base/ipc\los_queue.c ****     {
 322:D:/fchai/work/i-cube/I-CUBE-HUAWEI/Middlewares/Third_Party/Huawei/iot_link/os/liteos/base/ipc\los_queue.c ****         if (LOS_NO_WAIT == uwTimeOut)
 546              		.loc 1 322 9 is_stmt 1 view .LVU180
 547              		.loc 1 322 12 is_stmt 0 view .LVU181
 548 0046 0C9A     		ldr	r2, [sp, #48]
 549 0048 002A     		cmp	r2, #0
 550 004a 72D0     		beq	.L55
 323:D:/fchai/work/i-cube/I-CUBE-HUAWEI/Middlewares/Third_Party/Huawei/iot_link/os/liteos/base/ipc\los_queue.c ****         {
 324:D:/fchai/work/i-cube/I-CUBE-HUAWEI/Middlewares/Third_Party/Huawei/iot_link/os/liteos/base/ipc\los_queue.c ****             uwRet = OS_QUEUE_IS_READ(uwOperateType) ? LOS_ERRNO_QUEUE_ISEMPTY : LOS_ERRNO_QUEUE_ISF
 325:D:/fchai/work/i-cube/I-CUBE-HUAWEI/Middlewares/Third_Party/Huawei/iot_link/os/liteos/base/ipc\los_queue.c ****             goto QUEUE_END;
 326:D:/fchai/work/i-cube/I-CUBE-HUAWEI/Middlewares/Third_Party/Huawei/iot_link/os/liteos/base/ipc\los_queue.c ****         }
 327:D:/fchai/work/i-cube/I-CUBE-HUAWEI/Middlewares/Third_Party/Huawei/iot_link/os/liteos/base/ipc\los_queue.c **** 
 328:D:/fchai/work/i-cube/I-CUBE-HUAWEI/Middlewares/Third_Party/Huawei/iot_link/os/liteos/base/ipc\los_queue.c ****         if (g_usLosTaskLock)
 551              		.loc 1 328 9 is_stmt 1 view .LVU182
 552              		.loc 1 328 13 is_stmt 0 view .LVU183
 553 004c 5C4A     		ldr	r2, .L59+4
 554 004e 0193     		str	r3, [sp, #4]
 555              		.loc 1 328 12 view .LVU184
 556 0050 1288     		ldrh	r2, [r2]
 557 0052 002A     		cmp	r2, #0
 558 0054 40F09380 		bne	.L49
 329:D:/fchai/work/i-cube/I-CUBE-HUAWEI/Middlewares/Third_Party/Huawei/iot_link/os/liteos/base/ipc\los_queue.c ****         {
 330:D:/fchai/work/i-cube/I-CUBE-HUAWEI/Middlewares/Third_Party/Huawei/iot_link/os/liteos/base/ipc\los_queue.c ****             uwRet = LOS_ERRNO_QUEUE_PEND_IN_LOCK;
 331:D:/fchai/work/i-cube/I-CUBE-HUAWEI/Middlewares/Third_Party/Huawei/iot_link/os/liteos/base/ipc\los_queue.c ****             goto QUEUE_END;
 332:D:/fchai/work/i-cube/I-CUBE-HUAWEI/Middlewares/Third_Party/Huawei/iot_link/os/liteos/base/ipc\los_queue.c ****         }
 333:D:/fchai/work/i-cube/I-CUBE-HUAWEI/Middlewares/Third_Party/Huawei/iot_link/os/liteos/base/ipc\los_queue.c **** 
 334:D:/fchai/work/i-cube/I-CUBE-HUAWEI/Middlewares/Third_Party/Huawei/iot_link/os/liteos/base/ipc\los_queue.c ****         pstRunTsk = (LOS_TASK_CB *)g_stLosTask.pstRunTask;
 559              		.loc 1 334 9 is_stmt 1 view .LVU185
 560              		.loc 1 334 19 is_stmt 0 view .LVU186
 561 0058 5A4A     		ldr	r2, .L59+8
 335:D:/fchai/work/i-cube/I-CUBE-HUAWEI/Middlewares/Third_Party/Huawei/iot_link/os/liteos/base/ipc\los_queue.c ****         osTaskWait(&pstQueueCB->stReadWriteList[uwReadWrite], OS_TASK_STATUS_PEND_QUEUE, uwTimeOut)
 562              		.loc 1 335 9 view .LVU187
 563 005a 0AF10200 		add	r0, r10, #2
 564              	.LVL42:
 565              		.loc 1 335 9 view .LVU188
 566 005e 04EBC000 		add	r0, r4, r0, lsl #3
 567 0062 4FF40051 		mov	r1, #8192
 334:D:/fchai/work/i-cube/I-CUBE-HUAWEI/Middlewares/Third_Party/Huawei/iot_link/os/liteos/base/ipc\los_queue.c ****         osTaskWait(&pstQueueCB->stReadWriteList[uwReadWrite], OS_TASK_STATUS_PEND_QUEUE, uwTimeOut)
 568              		.loc 1 334 19 view .LVU189
 569 0066 D2F800B0 		ldr	fp, [r2]
 570              	.LVL43:
 571              		.loc 1 335 9 is_stmt 1 view .LVU190
 572 006a 0C9A     		ldr	r2, [sp, #48]
ARM GAS  T:\msys\tmp\ccLNSFcc.s 			page 22


 573 006c 0430     		adds	r0, r0, #4
 574 006e FFF7FEFF 		bl	osTaskWait
 575              	.LVL44:
 336:D:/fchai/work/i-cube/I-CUBE-HUAWEI/Middlewares/Third_Party/Huawei/iot_link/os/liteos/base/ipc\los_queue.c ****         LOS_IntRestore(uvIntSave);
 576              		.loc 1 336 9 view .LVU191
 577 0072 3046     		mov	r0, r6
 578 0074 FFF7FEFF 		bl	LOS_IntRestore
 579              	.LVL45:
 337:D:/fchai/work/i-cube/I-CUBE-HUAWEI/Middlewares/Third_Party/Huawei/iot_link/os/liteos/base/ipc\los_queue.c ****         LOS_Schedule();
 580              		.loc 1 337 9 view .LVU192
 581 0078 FFF7FEFF 		bl	LOS_Schedule
 582              	.LVL46:
 338:D:/fchai/work/i-cube/I-CUBE-HUAWEI/Middlewares/Third_Party/Huawei/iot_link/os/liteos/base/ipc\los_queue.c **** 
 339:D:/fchai/work/i-cube/I-CUBE-HUAWEI/Middlewares/Third_Party/Huawei/iot_link/os/liteos/base/ipc\los_queue.c ****         uvIntSave = LOS_IntLock();
 583              		.loc 1 339 9 view .LVU193
 584              		.loc 1 339 21 is_stmt 0 view .LVU194
 585 007c FFF7FEFF 		bl	LOS_IntLock
 586              	.LVL47:
 340:D:/fchai/work/i-cube/I-CUBE-HUAWEI/Middlewares/Third_Party/Huawei/iot_link/os/liteos/base/ipc\los_queue.c **** 
 341:D:/fchai/work/i-cube/I-CUBE-HUAWEI/Middlewares/Third_Party/Huawei/iot_link/os/liteos/base/ipc\los_queue.c ****         if (pstRunTsk->usTaskStatus & OS_TASK_STATUS_TIMEOUT)
 587              		.loc 1 341 22 view .LVU195
 588 0080 BBF80420 		ldrh	r2, [fp, #4]
 589              		.loc 1 341 12 view .LVU196
 590 0084 019B     		ldr	r3, [sp, #4]
 591 0086 12F0400F 		tst	r2, #64
 339:D:/fchai/work/i-cube/I-CUBE-HUAWEI/Middlewares/Third_Party/Huawei/iot_link/os/liteos/base/ipc\los_queue.c **** 
 592              		.loc 1 339 21 view .LVU197
 593 008a 0646     		mov	r6, r0
 594              	.LVL48:
 595              		.loc 1 341 9 is_stmt 1 view .LVU198
 596              		.loc 1 341 12 is_stmt 0 view .LVU199
 597 008c 13D0     		beq	.L30
 342:D:/fchai/work/i-cube/I-CUBE-HUAWEI/Middlewares/Third_Party/Huawei/iot_link/os/liteos/base/ipc\los_queue.c ****         {
 343:D:/fchai/work/i-cube/I-CUBE-HUAWEI/Middlewares/Third_Party/Huawei/iot_link/os/liteos/base/ipc\los_queue.c ****             pstRunTsk->usTaskStatus &= (~OS_TASK_STATUS_TIMEOUT);
 598              		.loc 1 343 13 is_stmt 1 view .LVU200
 599              		.loc 1 343 37 is_stmt 0 view .LVU201
 600 008e 22F04002 		bic	r2, r2, #64
 344:D:/fchai/work/i-cube/I-CUBE-HUAWEI/Middlewares/Third_Party/Huawei/iot_link/os/liteos/base/ipc\los_queue.c ****             uwRet = LOS_ERRNO_QUEUE_TIMEOUT;
 601              		.loc 1 344 19 view .LVU202
 602 0092 4D4D     		ldr	r5, .L59+12
 603              	.LVL49:
 343:D:/fchai/work/i-cube/I-CUBE-HUAWEI/Middlewares/Third_Party/Huawei/iot_link/os/liteos/base/ipc\los_queue.c ****             uwRet = LOS_ERRNO_QUEUE_TIMEOUT;
 604              		.loc 1 343 37 view .LVU203
 605 0094 ABF80420 		strh	r2, [fp, #4]	@ movhi
 606              		.loc 1 344 13 is_stmt 1 view .LVU204
 607              	.LVL50:
 345:D:/fchai/work/i-cube/I-CUBE-HUAWEI/Middlewares/Third_Party/Huawei/iot_link/os/liteos/base/ipc\los_queue.c ****             goto QUEUE_END;
 608              		.loc 1 345 13 view .LVU205
 609 0098 04E0     		b	.L25
 610              	.LVL51:
 611              	.L26:
 314:D:/fchai/work/i-cube/I-CUBE-HUAWEI/Middlewares/Third_Party/Huawei/iot_link/os/liteos/base/ipc\los_queue.c ****     {
 612              		.loc 1 314 10 discriminator 1 view .LVU206
 314:D:/fchai/work/i-cube/I-CUBE-HUAWEI/Middlewares/Third_Party/Huawei/iot_link/os/liteos/base/ipc\los_queue.c ****     {
 613              		.loc 1 314 46 is_stmt 0 discriminator 1 view .LVU207
 614 009a 9142     		cmp	r1, r2
 615 009c CED9     		bls	.L27
ARM GAS  T:\msys\tmp\ccLNSFcc.s 			page 23


 316:D:/fchai/work/i-cube/I-CUBE-HUAWEI/Middlewares/Third_Party/Huawei/iot_link/os/liteos/base/ipc\los_queue.c ****         goto QUEUE_END;
 616              		.loc 1 316 15 view .LVU208
 617 009e 4B4D     		ldr	r5, .L59+16
 618              	.LVL52:
 316:D:/fchai/work/i-cube/I-CUBE-HUAWEI/Middlewares/Third_Party/Huawei/iot_link/os/liteos/base/ipc\los_queue.c ****         goto QUEUE_END;
 619              		.loc 1 316 15 view .LVU209
 620 00a0 00E0     		b	.L25
 621              	.LVL53:
 622              	.L45:
 304:D:/fchai/work/i-cube/I-CUBE-HUAWEI/Middlewares/Third_Party/Huawei/iot_link/os/liteos/base/ipc\los_queue.c ****         goto QUEUE_END;
 623              		.loc 1 304 15 view .LVU210
 624 00a2 4B4D     		ldr	r5, .L59+20
 625              	.LVL54:
 626              	.L25:
 346:D:/fchai/work/i-cube/I-CUBE-HUAWEI/Middlewares/Third_Party/Huawei/iot_link/os/liteos/base/ipc\los_queue.c ****         }
 347:D:/fchai/work/i-cube/I-CUBE-HUAWEI/Middlewares/Third_Party/Huawei/iot_link/os/liteos/base/ipc\los_queue.c ****     }
 348:D:/fchai/work/i-cube/I-CUBE-HUAWEI/Middlewares/Third_Party/Huawei/iot_link/os/liteos/base/ipc\los_queue.c ****     else
 349:D:/fchai/work/i-cube/I-CUBE-HUAWEI/Middlewares/Third_Party/Huawei/iot_link/os/liteos/base/ipc\los_queue.c ****     {
 350:D:/fchai/work/i-cube/I-CUBE-HUAWEI/Middlewares/Third_Party/Huawei/iot_link/os/liteos/base/ipc\los_queue.c ****         pstQueueCB->usReadWriteableCnt[uwReadWrite]--;
 351:D:/fchai/work/i-cube/I-CUBE-HUAWEI/Middlewares/Third_Party/Huawei/iot_link/os/liteos/base/ipc\los_queue.c ****     }
 352:D:/fchai/work/i-cube/I-CUBE-HUAWEI/Middlewares/Third_Party/Huawei/iot_link/os/liteos/base/ipc\los_queue.c **** 
 353:D:/fchai/work/i-cube/I-CUBE-HUAWEI/Middlewares/Third_Party/Huawei/iot_link/os/liteos/base/ipc\los_queue.c ****     osQueueBufferOperate(pstQueueCB, uwOperateType, pBufferAddr, puwBufferSize);
 354:D:/fchai/work/i-cube/I-CUBE-HUAWEI/Middlewares/Third_Party/Huawei/iot_link/os/liteos/base/ipc\los_queue.c **** 
 355:D:/fchai/work/i-cube/I-CUBE-HUAWEI/Middlewares/Third_Party/Huawei/iot_link/os/liteos/base/ipc\los_queue.c ****     if (!LOS_ListEmpty(&pstQueueCB->stReadWriteList[!uwReadWrite])) /*lint !e514*/
 356:D:/fchai/work/i-cube/I-CUBE-HUAWEI/Middlewares/Third_Party/Huawei/iot_link/os/liteos/base/ipc\los_queue.c ****     {
 357:D:/fchai/work/i-cube/I-CUBE-HUAWEI/Middlewares/Third_Party/Huawei/iot_link/os/liteos/base/ipc\los_queue.c ****         pstResumedTask = OS_TCB_FROM_PENDLIST(LOS_DL_LIST_FIRST(&pstQueueCB->stReadWriteList[!uwRea
 358:D:/fchai/work/i-cube/I-CUBE-HUAWEI/Middlewares/Third_Party/Huawei/iot_link/os/liteos/base/ipc\los_queue.c ****         osTaskWake(pstResumedTask, OS_TASK_STATUS_PEND_QUEUE);
 359:D:/fchai/work/i-cube/I-CUBE-HUAWEI/Middlewares/Third_Party/Huawei/iot_link/os/liteos/base/ipc\los_queue.c ****         LOS_IntRestore(uvIntSave);
 360:D:/fchai/work/i-cube/I-CUBE-HUAWEI/Middlewares/Third_Party/Huawei/iot_link/os/liteos/base/ipc\los_queue.c ****         LOS_Schedule();
 361:D:/fchai/work/i-cube/I-CUBE-HUAWEI/Middlewares/Third_Party/Huawei/iot_link/os/liteos/base/ipc\los_queue.c ****         return LOS_OK;
 362:D:/fchai/work/i-cube/I-CUBE-HUAWEI/Middlewares/Third_Party/Huawei/iot_link/os/liteos/base/ipc\los_queue.c ****     }
 363:D:/fchai/work/i-cube/I-CUBE-HUAWEI/Middlewares/Third_Party/Huawei/iot_link/os/liteos/base/ipc\los_queue.c ****     else
 364:D:/fchai/work/i-cube/I-CUBE-HUAWEI/Middlewares/Third_Party/Huawei/iot_link/os/liteos/base/ipc\los_queue.c ****     {
 365:D:/fchai/work/i-cube/I-CUBE-HUAWEI/Middlewares/Third_Party/Huawei/iot_link/os/liteos/base/ipc\los_queue.c ****         pstQueueCB->usReadWriteableCnt[!uwReadWrite]++; /*lint !e514*/
 366:D:/fchai/work/i-cube/I-CUBE-HUAWEI/Middlewares/Third_Party/Huawei/iot_link/os/liteos/base/ipc\los_queue.c ****     }
 367:D:/fchai/work/i-cube/I-CUBE-HUAWEI/Middlewares/Third_Party/Huawei/iot_link/os/liteos/base/ipc\los_queue.c **** 
 368:D:/fchai/work/i-cube/I-CUBE-HUAWEI/Middlewares/Third_Party/Huawei/iot_link/os/liteos/base/ipc\los_queue.c **** QUEUE_END:
 369:D:/fchai/work/i-cube/I-CUBE-HUAWEI/Middlewares/Third_Party/Huawei/iot_link/os/liteos/base/ipc\los_queue.c ****     LOS_IntRestore(uvIntSave);
 627              		.loc 1 369 5 is_stmt 1 view .LVU211
 628 00a4 3046     		mov	r0, r6
 629 00a6 FFF7FEFF 		bl	LOS_IntRestore
 630              	.LVL55:
 370:D:/fchai/work/i-cube/I-CUBE-HUAWEI/Middlewares/Third_Party/Huawei/iot_link/os/liteos/base/ipc\los_queue.c ****     return uwRet;
 631              		.loc 1 370 5 view .LVU212
 371:D:/fchai/work/i-cube/I-CUBE-HUAWEI/Middlewares/Third_Party/Huawei/iot_link/os/liteos/base/ipc\los_queue.c **** }
 632              		.loc 1 371 1 is_stmt 0 view .LVU213
 633 00aa 2846     		mov	r0, r5
 634 00ac 03B0     		add	sp, sp, #12
 635              	.LCFI4:
 636              		.cfi_remember_state
 637              		.cfi_def_cfa_offset 36
 638              		@ sp needed
 639 00ae BDE8F08F 		pop	{r4, r5, r6, r7, r8, r9, r10, fp, pc}
 640              	.LVL56:
 641              	.L28:
 642              	.LCFI5:
 643              		.cfi_restore_state
ARM GAS  T:\msys\tmp\ccLNSFcc.s 			page 24


 350:D:/fchai/work/i-cube/I-CUBE-HUAWEI/Middlewares/Third_Party/Huawei/iot_link/os/liteos/base/ipc\los_queue.c ****     }
 644              		.loc 1 350 9 is_stmt 1 view .LVU214
 350:D:/fchai/work/i-cube/I-CUBE-HUAWEI/Middlewares/Third_Party/Huawei/iot_link/os/liteos/base/ipc\los_queue.c ****     }
 645              		.loc 1 350 52 is_stmt 0 view .LVU215
 646 00b2 013A     		subs	r2, r2, #1
 647 00b4 0A82     		strh	r2, [r1, #16]	@ movhi
 648              	.L30:
 353:D:/fchai/work/i-cube/I-CUBE-HUAWEI/Middlewares/Third_Party/Huawei/iot_link/os/liteos/base/ipc\los_queue.c **** 
 649              		.loc 1 353 5 is_stmt 1 view .LVU216
 650              	.LVL57:
 651              	.LBB79:
 652              	.LBI79:
 231:D:/fchai/work/i-cube/I-CUBE-HUAWEI/Middlewares/Third_Party/Huawei/iot_link/os/liteos/base/ipc\los_queue.c **** {
 653              		.loc 1 231 37 view .LVU217
 654              	.LBB80:
 233:D:/fchai/work/i-cube/I-CUBE-HUAWEI/Middlewares/Third_Party/Huawei/iot_link/os/liteos/base/ipc\los_queue.c ****     UINT32       uwMsgDataSize = 0;
 655              		.loc 1 233 5 view .LVU218
 234:D:/fchai/work/i-cube/I-CUBE-HUAWEI/Middlewares/Third_Party/Huawei/iot_link/os/liteos/base/ipc\los_queue.c ****     UINT16      usQueuePosion = 0;
 656              		.loc 1 234 5 view .LVU219
 235:D:/fchai/work/i-cube/I-CUBE-HUAWEI/Middlewares/Third_Party/Huawei/iot_link/os/liteos/base/ipc\los_queue.c **** 
 657              		.loc 1 235 5 view .LVU220
 238:D:/fchai/work/i-cube/I-CUBE-HUAWEI/Middlewares/Third_Party/Huawei/iot_link/os/liteos/base/ipc\los_queue.c ****     {
 658              		.loc 1 238 5 view .LVU221
 238:D:/fchai/work/i-cube/I-CUBE-HUAWEI/Middlewares/Third_Party/Huawei/iot_link/os/liteos/base/ipc\los_queue.c ****     {
 659              		.loc 1 238 13 is_stmt 0 view .LVU222
 660 00b6 05F00301 		and	r1, r5, #3
 238:D:/fchai/work/i-cube/I-CUBE-HUAWEI/Middlewares/Third_Party/Huawei/iot_link/os/liteos/base/ipc\los_queue.c ****     {
 661              		.loc 1 238 5 view .LVU223
 662 00ba 0129     		cmp	r1, #1
 663 00bc 61D0     		beq	.L31
 238:D:/fchai/work/i-cube/I-CUBE-HUAWEI/Middlewares/Third_Party/Huawei/iot_link/os/liteos/base/ipc\los_queue.c ****     {
 664              		.loc 1 238 5 view .LVU224
 665 00be 0329     		cmp	r1, #3
 666 00c0 18D0     		beq	.L32
 667 00c2 69B3     		cbz	r1, .L56
 256:D:/fchai/work/i-cube/I-CUBE-HUAWEI/Middlewares/Third_Party/Huawei/iot_link/os/liteos/base/ipc\los_queue.c ****             return;
 668              		.loc 1 256 13 is_stmt 1 view .LVU225
 256:D:/fchai/work/i-cube/I-CUBE-HUAWEI/Middlewares/Third_Party/Huawei/iot_link/os/liteos/base/ipc\los_queue.c ****             return;
 669              		.loc 1 256 13 view .LVU226
 670 00c4 4348     		ldr	r0, .L59+24
 671              	.LVL58:
 256:D:/fchai/work/i-cube/I-CUBE-HUAWEI/Middlewares/Third_Party/Huawei/iot_link/os/liteos/base/ipc\los_queue.c ****             return;
 672              		.loc 1 256 13 is_stmt 0 view .LVU227
 673 00c6 FFF7FEFF 		bl	printf
 674              	.LVL59:
 675 00ca 4348     		ldr	r0, .L59+28
 676 00cc FFF7FEFF 		bl	puts
 677              	.LVL60:
 256:D:/fchai/work/i-cube/I-CUBE-HUAWEI/Middlewares/Third_Party/Huawei/iot_link/os/liteos/base/ipc\los_queue.c ****             return;
 678              		.loc 1 256 13 is_stmt 1 view .LVU228
 257:D:/fchai/work/i-cube/I-CUBE-HUAWEI/Middlewares/Third_Party/Huawei/iot_link/os/liteos/base/ipc\los_queue.c ****     }
 679              		.loc 1 257 13 view .LVU229
 680              	.L39:
 257:D:/fchai/work/i-cube/I-CUBE-HUAWEI/Middlewares/Third_Party/Huawei/iot_link/os/liteos/base/ipc\los_queue.c ****     }
 681              		.loc 1 257 13 is_stmt 0 view .LVU230
 682              	.LBE80:
 683              	.LBE79:
ARM GAS  T:\msys\tmp\ccLNSFcc.s 			page 25


 355:D:/fchai/work/i-cube/I-CUBE-HUAWEI/Middlewares/Third_Party/Huawei/iot_link/os/liteos/base/ipc\los_queue.c ****     {
 684              		.loc 1 355 5 is_stmt 1 view .LVU231
 685 00d0 8AF0010A 		eor	r10, r10, #1
 686              	.LVL61:
 687              	.LBB84:
 688              	.LBI84:
 213:D:/fchai/work/i-cube/I-CUBE-HUAWEI/Middlewares/Third_Party/Huawei/iot_link/os/liteos/include\los_list.h **** {
 689              		.loc 2 213 43 view .LVU232
 690              	.LBB85:
 691              		.loc 2 215 5 view .LVU233
 692              		.loc 2 215 26 is_stmt 0 view .LVU234
 693 00d4 0AF10203 		add	r3, r10, #2
 694 00d8 04EBC302 		add	r2, r4, r3, lsl #3
 695              	.LBE85:
 696              	.LBE84:
 355:D:/fchai/work/i-cube/I-CUBE-HUAWEI/Middlewares/Third_Party/Huawei/iot_link/os/liteos/base/ipc\los_queue.c ****     {
 697              		.loc 1 355 10 view .LVU235
 698 00dc 1346     		mov	r3, r2
 699              	.LBB87:
 700              	.LBB86:
 701              		.loc 2 215 26 view .LVU236
 702 00de 9068     		ldr	r0, [r2, #8]
 703              	.LVL62:
 704              		.loc 2 215 26 view .LVU237
 705              	.LBE86:
 706              	.LBE87:
 355:D:/fchai/work/i-cube/I-CUBE-HUAWEI/Middlewares/Third_Party/Huawei/iot_link/os/liteos/base/ipc\los_queue.c ****     {
 707              		.loc 1 355 10 view .LVU238
 708 00e0 0433     		adds	r3, r3, #4
 355:D:/fchai/work/i-cube/I-CUBE-HUAWEI/Middlewares/Third_Party/Huawei/iot_link/os/liteos/base/ipc\los_queue.c ****     {
 709              		.loc 1 355 8 view .LVU239
 710 00e2 9842     		cmp	r0, r3
 711 00e4 3CD1     		bne	.L57
 365:D:/fchai/work/i-cube/I-CUBE-HUAWEI/Middlewares/Third_Party/Huawei/iot_link/os/liteos/base/ipc\los_queue.c ****     }
 712              		.loc 1 365 9 is_stmt 1 view .LVU240
 713 00e6 04EB4A04 		add	r4, r4, r10, lsl #1
 714              	.LVL63:
 296:D:/fchai/work/i-cube/I-CUBE-HUAWEI/Middlewares/Third_Party/Huawei/iot_link/os/liteos/base/ipc\los_queue.c ****     UINT32       uwReadWrite = OS_QUEUE_READ_WRITE_GET(uwOperateType);
 715              		.loc 1 296 18 is_stmt 0 view .LVU241
 716 00ea 0025     		movs	r5, #0
 365:D:/fchai/work/i-cube/I-CUBE-HUAWEI/Middlewares/Third_Party/Huawei/iot_link/os/liteos/base/ipc\los_queue.c ****     }
 717              		.loc 1 365 53 view .LVU242
 718 00ec 238A     		ldrh	r3, [r4, #16]
 719 00ee 0133     		adds	r3, r3, #1
 720 00f0 2382     		strh	r3, [r4, #16]	@ movhi
 721 00f2 D7E7     		b	.L25
 722              	.LVL64:
 723              	.L32:
 724              	.LBB88:
 725              	.LBB81:
 251:D:/fchai/work/i-cube/I-CUBE-HUAWEI/Middlewares/Third_Party/Huawei/iot_link/os/liteos/base/ipc\los_queue.c ****             (pstQueueCB->usQueueTail + 1 == pstQueueCB->usQueueLen) ? (pstQueueCB->usQueueTail = 0)
 726              		.loc 1 251 13 is_stmt 1 view .LVU243
 251:D:/fchai/work/i-cube/I-CUBE-HUAWEI/Middlewares/Third_Party/Huawei/iot_link/os/liteos/base/ipc\los_queue.c ****             (pstQueueCB->usQueueTail + 1 == pstQueueCB->usQueueLen) ? (pstQueueCB->usQueueTail = 0)
 727              		.loc 1 251 27 is_stmt 0 view .LVU244
 728 00f4 E289     		ldrh	r2, [r4, #14]
 729              	.LVL65:
 252:D:/fchai/work/i-cube/I-CUBE-HUAWEI/Middlewares/Third_Party/Huawei/iot_link/os/liteos/base/ipc\los_queue.c ****             break;
ARM GAS  T:\msys\tmp\ccLNSFcc.s 			page 26


 730              		.loc 1 252 13 is_stmt 1 view .LVU245
 252:D:/fchai/work/i-cube/I-CUBE-HUAWEI/Middlewares/Third_Party/Huawei/iot_link/os/liteos/base/ipc\los_queue.c ****             break;
 731              		.loc 1 252 55 is_stmt 0 view .LVU246
 732 00f6 E088     		ldrh	r0, [r4, #6]
 733              	.LVL66:
 252:D:/fchai/work/i-cube/I-CUBE-HUAWEI/Middlewares/Third_Party/Huawei/iot_link/os/liteos/base/ipc\los_queue.c ****             break;
 734              		.loc 1 252 38 view .LVU247
 735 00f8 511C     		adds	r1, r2, #1
 252:D:/fchai/work/i-cube/I-CUBE-HUAWEI/Middlewares/Third_Party/Huawei/iot_link/os/liteos/base/ipc\los_queue.c ****             break;
 736              		.loc 1 252 101 view .LVU248
 737 00fa 8142     		cmp	r1, r0
 252:D:/fchai/work/i-cube/I-CUBE-HUAWEI/Middlewares/Third_Party/Huawei/iot_link/os/liteos/base/ipc\los_queue.c ****             break;
 738              		.loc 1 252 96 view .LVU249
 739 00fc 08BF     		it	eq
 740 00fe 0021     		moveq	r1, #0
 252:D:/fchai/work/i-cube/I-CUBE-HUAWEI/Middlewares/Third_Party/Huawei/iot_link/os/liteos/base/ipc\los_queue.c ****             break;
 741              		.loc 1 252 127 view .LVU250
 742 0100 E181     		strh	r1, [r4, #14]	@ movhi
 743              	.L35:
 260:D:/fchai/work/i-cube/I-CUBE-HUAWEI/Middlewares/Third_Party/Huawei/iot_link/os/liteos/base/ipc\los_queue.c **** 
 744              		.loc 1 260 5 is_stmt 1 view .LVU251
 260:D:/fchai/work/i-cube/I-CUBE-HUAWEI/Middlewares/Third_Party/Huawei/iot_link/os/liteos/base/ipc\los_queue.c **** 
 745              		.loc 1 260 71 is_stmt 0 view .LVU252
 746 0102 2189     		ldrh	r1, [r4, #8]
 260:D:/fchai/work/i-cube/I-CUBE-HUAWEI/Middlewares/Third_Party/Huawei/iot_link/os/liteos/base/ipc\los_queue.c **** 
 747              		.loc 1 260 18 view .LVU253
 748 0104 D859     		ldr	r0, [r3, r7]
 260:D:/fchai/work/i-cube/I-CUBE-HUAWEI/Middlewares/Third_Party/Huawei/iot_link/os/liteos/base/ipc\los_queue.c **** 
 749              		.loc 1 260 58 view .LVU254
 750 0106 02FB01F2 		mul	r2, r2, r1
 262:D:/fchai/work/i-cube/I-CUBE-HUAWEI/Middlewares/Third_Party/Huawei/iot_link/os/liteos/base/ipc\los_queue.c ****     {
 751              		.loc 1 262 7 view .LVU255
 752 010a 6D07     		lsls	r5, r5, #29
 753              	.LVL67:
 260:D:/fchai/work/i-cube/I-CUBE-HUAWEI/Middlewares/Third_Party/Huawei/iot_link/os/liteos/base/ipc\los_queue.c **** 
 754              		.loc 1 260 18 view .LVU256
 755 010c 00EB0203 		add	r3, r0, r2
 756              	.LVL68:
 262:D:/fchai/work/i-cube/I-CUBE-HUAWEI/Middlewares/Third_Party/Huawei/iot_link/os/liteos/base/ipc\los_queue.c ****     {
 757              		.loc 1 262 5 is_stmt 1 view .LVU257
 262:D:/fchai/work/i-cube/I-CUBE-HUAWEI/Middlewares/Third_Party/Huawei/iot_link/os/liteos/base/ipc\los_queue.c ****     {
 758              		.loc 1 262 7 is_stmt 0 view .LVU258
 759 0110 18D5     		bpl	.L40
 264:D:/fchai/work/i-cube/I-CUBE-HUAWEI/Middlewares/Third_Party/Huawei/iot_link/os/liteos/base/ipc\los_queue.c ****         {
 760              		.loc 1 264 9 is_stmt 1 view .LVU259
 264:D:/fchai/work/i-cube/I-CUBE-HUAWEI/Middlewares/Third_Party/Huawei/iot_link/os/liteos/base/ipc\los_queue.c ****         {
 761              		.loc 1 264 11 is_stmt 0 view .LVU260
 762 0112 BAF1000F 		cmp	r10, #0
 763 0116 3AD1     		bne	.L41
 266:D:/fchai/work/i-cube/I-CUBE-HUAWEI/Middlewares/Third_Party/Huawei/iot_link/os/liteos/base/ipc\los_queue.c ****         }
 764              		.loc 1 266 13 is_stmt 1 view .LVU261
 266:D:/fchai/work/i-cube/I-CUBE-HUAWEI/Middlewares/Third_Party/Huawei/iot_link/os/liteos/base/ipc\los_queue.c ****         }
 765              		.loc 1 266 38 is_stmt 0 view .LVU262
 766 0118 8358     		ldr	r3, [r0, r2]
 767              	.LVL69:
 266:D:/fchai/work/i-cube/I-CUBE-HUAWEI/Middlewares/Third_Party/Huawei/iot_link/os/liteos/base/ipc\los_queue.c ****         }
 768              		.loc 1 266 36 view .LVU263
ARM GAS  T:\msys\tmp\ccLNSFcc.s 			page 27


 769 011a C9F80030 		str	r3, [r9]
 770 011e D7E7     		b	.L39
 771              	.LVL70:
 772              	.L56:
 241:D:/fchai/work/i-cube/I-CUBE-HUAWEI/Middlewares/Third_Party/Huawei/iot_link/os/liteos/base/ipc\los_queue.c ****             (pstQueueCB->usQueueHead + 1 == pstQueueCB->usQueueLen) ? (pstQueueCB->usQueueHead = 0)
 773              		.loc 1 241 13 is_stmt 1 view .LVU264
 241:D:/fchai/work/i-cube/I-CUBE-HUAWEI/Middlewares/Third_Party/Huawei/iot_link/os/liteos/base/ipc\los_queue.c ****             (pstQueueCB->usQueueHead + 1 == pstQueueCB->usQueueLen) ? (pstQueueCB->usQueueHead = 0)
 774              		.loc 1 241 27 is_stmt 0 view .LVU265
 775 0120 A289     		ldrh	r2, [r4, #12]
 776              	.LVL71:
 242:D:/fchai/work/i-cube/I-CUBE-HUAWEI/Middlewares/Third_Party/Huawei/iot_link/os/liteos/base/ipc\los_queue.c ****             break;
 777              		.loc 1 242 13 is_stmt 1 view .LVU266
 242:D:/fchai/work/i-cube/I-CUBE-HUAWEI/Middlewares/Third_Party/Huawei/iot_link/os/liteos/base/ipc\los_queue.c ****             break;
 778              		.loc 1 242 55 is_stmt 0 view .LVU267
 779 0122 B4F806C0 		ldrh	ip, [r4, #6]
 242:D:/fchai/work/i-cube/I-CUBE-HUAWEI/Middlewares/Third_Party/Huawei/iot_link/os/liteos/base/ipc\los_queue.c ****             break;
 780              		.loc 1 242 38 view .LVU268
 781 0126 501C     		adds	r0, r2, #1
 782              	.LVL72:
 242:D:/fchai/work/i-cube/I-CUBE-HUAWEI/Middlewares/Third_Party/Huawei/iot_link/os/liteos/base/ipc\los_queue.c ****             break;
 783              		.loc 1 242 96 view .LVU269
 784 0128 6045     		cmp	r0, ip
 785 012a 08BF     		it	eq
 786 012c 0846     		moveq	r0, r1
 787 012e A081     		strh	r0, [r4, #12]	@ movhi
 788 0130 E7E7     		b	.L35
 789              	.LVL73:
 790              	.L55:
 242:D:/fchai/work/i-cube/I-CUBE-HUAWEI/Middlewares/Third_Party/Huawei/iot_link/os/liteos/base/ipc\los_queue.c ****             break;
 791              		.loc 1 242 96 view .LVU270
 792              	.LBE81:
 793              	.LBE88:
 324:D:/fchai/work/i-cube/I-CUBE-HUAWEI/Middlewares/Third_Party/Huawei/iot_link/os/liteos/base/ipc\los_queue.c ****             goto QUEUE_END;
 794              		.loc 1 324 13 is_stmt 1 view .LVU271
 324:D:/fchai/work/i-cube/I-CUBE-HUAWEI/Middlewares/Third_Party/Huawei/iot_link/os/liteos/base/ipc\los_queue.c ****             goto QUEUE_END;
 795              		.loc 1 324 79 is_stmt 0 view .LVU272
 796 0132 2A4D     		ldr	r5, .L59+32
 797              	.LVL74:
 324:D:/fchai/work/i-cube/I-CUBE-HUAWEI/Middlewares/Third_Party/Huawei/iot_link/os/liteos/base/ipc\los_queue.c ****             goto QUEUE_END;
 798              		.loc 1 324 79 view .LVU273
 799 0134 2A4C     		ldr	r4, .L59+36
 800              	.LVL75:
 324:D:/fchai/work/i-cube/I-CUBE-HUAWEI/Middlewares/Third_Party/Huawei/iot_link/os/liteos/base/ipc\los_queue.c ****             goto QUEUE_END;
 801              		.loc 1 324 79 view .LVU274
 802 0136 BAF1000F 		cmp	r10, #0
 803 013a 18BF     		it	ne
 804 013c 2546     		movne	r5, r4
 805 013e B1E7     		b	.L25
 806              	.LVL76:
 807              	.L54:
 311:D:/fchai/work/i-cube/I-CUBE-HUAWEI/Middlewares/Third_Party/Huawei/iot_link/os/liteos/base/ipc\los_queue.c ****         goto QUEUE_END;
 808              		.loc 1 311 15 view .LVU275
 809 0140 284D     		ldr	r5, .L59+40
 810              	.LVL77:
 311:D:/fchai/work/i-cube/I-CUBE-HUAWEI/Middlewares/Third_Party/Huawei/iot_link/os/liteos/base/ipc\los_queue.c ****         goto QUEUE_END;
 811              		.loc 1 311 15 view .LVU276
 812 0142 AFE7     		b	.L25
ARM GAS  T:\msys\tmp\ccLNSFcc.s 			page 28


 813              	.LVL78:
 814              	.L40:
 815              	.LBB89:
 816              	.LBB82:
 275:D:/fchai/work/i-cube/I-CUBE-HUAWEI/Middlewares/Third_Party/Huawei/iot_link/os/liteos/base/ipc\los_queue.c ****         {
 817              		.loc 1 275 9 is_stmt 1 view .LVU277
 275:D:/fchai/work/i-cube/I-CUBE-HUAWEI/Middlewares/Third_Party/Huawei/iot_link/os/liteos/base/ipc\los_queue.c ****         {
 818              		.loc 1 275 11 is_stmt 0 view .LVU278
 819 0144 BAF1000F 		cmp	r10, #0
 820 0148 25D1     		bne	.L42
 277:D:/fchai/work/i-cube/I-CUBE-HUAWEI/Middlewares/Third_Party/Huawei/iot_link/os/liteos/base/ipc\los_queue.c ****             memcpy((VOID *)pBufferAddr, (VOID *)pucQueueNode, uwMsgDataSize);
 821              		.loc 1 277 13 is_stmt 1 view .LVU279
 822 014a 5A18     		adds	r2, r3, r1
 278:D:/fchai/work/i-cube/I-CUBE-HUAWEI/Middlewares/Third_Party/Huawei/iot_link/os/liteos/base/ipc\los_queue.c ****             *puwBufferSize = uwMsgDataSize;
 823              		.loc 1 278 13 is_stmt 0 view .LVU280
 824 014c 4846     		mov	r0, r9
 825 014e 52F8045C 		ldr	r5, [r2, #-4]	@ unaligned
 826              	.LVL79:
 278:D:/fchai/work/i-cube/I-CUBE-HUAWEI/Middlewares/Third_Party/Huawei/iot_link/os/liteos/base/ipc\los_queue.c ****             *puwBufferSize = uwMsgDataSize;
 827              		.loc 1 278 13 is_stmt 1 view .LVU281
 828 0152 1946     		mov	r1, r3
 829 0154 2A46     		mov	r2, r5
 830 0156 FFF7FEFF 		bl	memcpy
 831              	.LVL80:
 279:D:/fchai/work/i-cube/I-CUBE-HUAWEI/Middlewares/Third_Party/Huawei/iot_link/os/liteos/base/ipc\los_queue.c ****         }
 832              		.loc 1 279 13 view .LVU282
 279:D:/fchai/work/i-cube/I-CUBE-HUAWEI/Middlewares/Third_Party/Huawei/iot_link/os/liteos/base/ipc\los_queue.c ****         }
 833              		.loc 1 279 28 is_stmt 0 view .LVU283
 834 015a C8F80050 		str	r5, [r8]
 835 015e B7E7     		b	.L39
 836              	.LVL81:
 837              	.L57:
 279:D:/fchai/work/i-cube/I-CUBE-HUAWEI/Middlewares/Third_Party/Huawei/iot_link/os/liteos/base/ipc\los_queue.c ****         }
 838              		.loc 1 279 28 view .LVU284
 839              	.LBE82:
 840              	.LBE89:
 357:D:/fchai/work/i-cube/I-CUBE-HUAWEI/Middlewares/Third_Party/Huawei/iot_link/os/liteos/base/ipc\los_queue.c ****         osTaskWake(pstResumedTask, OS_TASK_STATUS_PEND_QUEUE);
 841              		.loc 1 357 9 is_stmt 1 view .LVU285
 358:D:/fchai/work/i-cube/I-CUBE-HUAWEI/Middlewares/Third_Party/Huawei/iot_link/os/liteos/base/ipc\los_queue.c ****         LOS_IntRestore(uvIntSave);
 842              		.loc 1 358 9 view .LVU286
 843 0160 4FF40051 		mov	r1, #8192
 844 0164 2838     		subs	r0, r0, #40
 845              	.LVL82:
 358:D:/fchai/work/i-cube/I-CUBE-HUAWEI/Middlewares/Third_Party/Huawei/iot_link/os/liteos/base/ipc\los_queue.c ****         LOS_IntRestore(uvIntSave);
 846              		.loc 1 358 9 is_stmt 0 view .LVU287
 847 0166 FFF7FEFF 		bl	osTaskWake
 848              	.LVL83:
 359:D:/fchai/work/i-cube/I-CUBE-HUAWEI/Middlewares/Third_Party/Huawei/iot_link/os/liteos/base/ipc\los_queue.c ****         LOS_Schedule();
 849              		.loc 1 359 9 is_stmt 1 view .LVU288
 850 016a 3046     		mov	r0, r6
 851 016c FFF7FEFF 		bl	LOS_IntRestore
 852              	.LVL84:
 360:D:/fchai/work/i-cube/I-CUBE-HUAWEI/Middlewares/Third_Party/Huawei/iot_link/os/liteos/base/ipc\los_queue.c ****         return LOS_OK;
 853              		.loc 1 360 9 view .LVU289
 854 0170 FFF7FEFF 		bl	LOS_Schedule
 855              	.LVL85:
 361:D:/fchai/work/i-cube/I-CUBE-HUAWEI/Middlewares/Third_Party/Huawei/iot_link/os/liteos/base/ipc\los_queue.c ****     }
ARM GAS  T:\msys\tmp\ccLNSFcc.s 			page 29


 856              		.loc 1 361 9 view .LVU290
 361:D:/fchai/work/i-cube/I-CUBE-HUAWEI/Middlewares/Third_Party/Huawei/iot_link/os/liteos/base/ipc\los_queue.c ****     }
 857              		.loc 1 361 16 is_stmt 0 view .LVU291
 858 0174 0025     		movs	r5, #0
 859              		.loc 1 371 1 view .LVU292
 860 0176 2846     		mov	r0, r5
 861 0178 03B0     		add	sp, sp, #12
 862              	.LCFI6:
 863              		.cfi_remember_state
 864              		.cfi_def_cfa_offset 36
 865              		@ sp needed
 866 017a BDE8F08F 		pop	{r4, r5, r6, r7, r8, r9, r10, fp, pc}
 867              	.LVL86:
 868              	.L49:
 869              	.LCFI7:
 870              		.cfi_restore_state
 330:D:/fchai/work/i-cube/I-CUBE-HUAWEI/Middlewares/Third_Party/Huawei/iot_link/os/liteos/base/ipc\los_queue.c ****             goto QUEUE_END;
 871              		.loc 1 330 19 view .LVU293
 872 017e 1A4D     		ldr	r5, .L59+44
 873              	.LVL87:
 330:D:/fchai/work/i-cube/I-CUBE-HUAWEI/Middlewares/Third_Party/Huawei/iot_link/os/liteos/base/ipc\los_queue.c ****             goto QUEUE_END;
 874              		.loc 1 330 19 view .LVU294
 875 0180 90E7     		b	.L25
 876              	.LVL88:
 877              	.L31:
 878              	.LBB90:
 879              	.LBB83:
 246:D:/fchai/work/i-cube/I-CUBE-HUAWEI/Middlewares/Third_Party/Huawei/iot_link/os/liteos/base/ipc\los_queue.c ****             usQueuePosion = pstQueueCB->usQueueHead;
 880              		.loc 1 246 13 is_stmt 1 view .LVU295
 246:D:/fchai/work/i-cube/I-CUBE-HUAWEI/Middlewares/Third_Party/Huawei/iot_link/os/liteos/base/ipc\los_queue.c ****             usQueuePosion = pstQueueCB->usQueueHead;
 881              		.loc 1 246 29 is_stmt 0 view .LVU296
 882 0182 A289     		ldrh	r2, [r4, #12]
 246:D:/fchai/work/i-cube/I-CUBE-HUAWEI/Middlewares/Third_Party/Huawei/iot_link/os/liteos/base/ipc\los_queue.c ****             usQueuePosion = pstQueueCB->usQueueHead;
 883              		.loc 1 246 101 view .LVU297
 884 0184 AAB1     		cbz	r2, .L58
 246:D:/fchai/work/i-cube/I-CUBE-HUAWEI/Middlewares/Third_Party/Huawei/iot_link/os/liteos/base/ipc\los_queue.c ****             usQueuePosion = pstQueueCB->usQueueHead;
 885              		.loc 1 246 104 view .LVU298
 886 0186 013A     		subs	r2, r2, #1
 887 0188 92B2     		uxth	r2, r2
 888              	.L37:
 246:D:/fchai/work/i-cube/I-CUBE-HUAWEI/Middlewares/Third_Party/Huawei/iot_link/os/liteos/base/ipc\los_queue.c ****             usQueuePosion = pstQueueCB->usQueueHead;
 889              		.loc 1 246 104 view .LVU299
 890 018a A281     		strh	r2, [r4, #12]	@ movhi
 247:D:/fchai/work/i-cube/I-CUBE-HUAWEI/Middlewares/Third_Party/Huawei/iot_link/os/liteos/base/ipc\los_queue.c ****             break;
 891              		.loc 1 247 13 is_stmt 1 view .LVU300
 892              	.LVL89:
 248:D:/fchai/work/i-cube/I-CUBE-HUAWEI/Middlewares/Third_Party/Huawei/iot_link/os/liteos/base/ipc\los_queue.c **** 
 893              		.loc 1 248 13 view .LVU301
 894 018c B9E7     		b	.L35
 895              	.LVL90:
 896              	.L41:
 270:D:/fchai/work/i-cube/I-CUBE-HUAWEI/Middlewares/Third_Party/Huawei/iot_link/os/liteos/base/ipc\los_queue.c ****         }
 897              		.loc 1 270 13 view .LVU302
 270:D:/fchai/work/i-cube/I-CUBE-HUAWEI/Middlewares/Third_Party/Huawei/iot_link/os/liteos/base/ipc\los_queue.c ****         }
 898              		.loc 1 270 39 is_stmt 0 view .LVU303
 899 018e D9F80030 		ldr	r3, [r9]
 900              	.LVL91:
ARM GAS  T:\msys\tmp\ccLNSFcc.s 			page 30


 270:D:/fchai/work/i-cube/I-CUBE-HUAWEI/Middlewares/Third_Party/Huawei/iot_link/os/liteos/base/ipc\los_queue.c ****         }
 901              		.loc 1 270 37 view .LVU304
 902 0192 8350     		str	r3, [r0, r2]
 903 0194 9CE7     		b	.L39
 904              	.LVL92:
 905              	.L42:
 283:D:/fchai/work/i-cube/I-CUBE-HUAWEI/Middlewares/Third_Party/Huawei/iot_link/os/liteos/base/ipc\los_queue.c ****             memcpy((VOID *)(pucQueueNode + pstQueueCB->usQueueSize - sizeof(UINT32)), puwBufferSize
 906              		.loc 1 283 13 is_stmt 1 view .LVU305
 907 0196 D8F80020 		ldr	r2, [r8]
 908 019a 4946     		mov	r1, r9
 909 019c 1846     		mov	r0, r3
 910 019e FFF7FEFF 		bl	memcpy
 911              	.LVL93:
 284:D:/fchai/work/i-cube/I-CUBE-HUAWEI/Middlewares/Third_Party/Huawei/iot_link/os/liteos/base/ipc\los_queue.c ****         }
 912              		.loc 1 284 54 is_stmt 0 view .LVU306
 913 01a2 2189     		ldrh	r1, [r4, #8]
 914 01a4 D8F80020 		ldr	r2, [r8]	@ unaligned
 283:D:/fchai/work/i-cube/I-CUBE-HUAWEI/Middlewares/Third_Party/Huawei/iot_link/os/liteos/base/ipc\los_queue.c ****             memcpy((VOID *)(pucQueueNode + pstQueueCB->usQueueSize - sizeof(UINT32)), puwBufferSize
 915              		.loc 1 283 13 view .LVU307
 916 01a8 0346     		mov	r3, r0
 284:D:/fchai/work/i-cube/I-CUBE-HUAWEI/Middlewares/Third_Party/Huawei/iot_link/os/liteos/base/ipc\los_queue.c ****         }
 917              		.loc 1 284 13 is_stmt 1 view .LVU308
 918 01aa 0B44     		add	r3, r3, r1
 919 01ac 43F8042C 		str	r2, [r3, #-4]	@ unaligned
 920 01b0 8EE7     		b	.L39
 921              	.LVL94:
 922              	.L58:
 246:D:/fchai/work/i-cube/I-CUBE-HUAWEI/Middlewares/Third_Party/Huawei/iot_link/os/liteos/base/ipc\los_queue.c ****             usQueuePosion = pstQueueCB->usQueueHead;
 923              		.loc 1 246 96 is_stmt 0 view .LVU309
 924 01b2 E288     		ldrh	r2, [r4, #6]
 925 01b4 013A     		subs	r2, r2, #1
 926 01b6 92B2     		uxth	r2, r2
 927 01b8 E7E7     		b	.L37
 928              	.L60:
 929 01ba 00BF     		.align	2
 930              	.L59:
 931 01bc 00000000 		.word	g_pstAllQueue
 932 01c0 00000000 		.word	g_usLosTaskLock
 933 01c4 00000000 		.word	g_stLosTask
 934 01c8 07060002 		.word	33555975
 935 01cc 15060002 		.word	33555989
 936 01d0 0A060002 		.word	33555978
 937 01d4 00000000 		.word	.LC0
 938 01d8 08000000 		.word	.LC1
 939 01dc 1D060002 		.word	33555997
 940 01e0 16060002 		.word	33555990
 941 01e4 1F060002 		.word	33555999
 942 01e8 06060002 		.word	33555974
 943              	.LBE83:
 944              	.LBE90:
 945              		.cfi_endproc
 946              	.LFE138:
 948              		.section	.text.LOS_QueueReadCopy,"ax",%progbits
 949              		.align	1
 950              		.p2align 2,,3
 951              		.global	LOS_QueueReadCopy
 952              		.syntax unified
ARM GAS  T:\msys\tmp\ccLNSFcc.s 			page 31


 953              		.thumb
 954              		.thumb_func
 955              		.fpu fpv4-sp-d16
 957              	LOS_QueueReadCopy:
 958              	.LVL95:
 959              	.LFB139:
 372:D:/fchai/work/i-cube/I-CUBE-HUAWEI/Middlewares/Third_Party/Huawei/iot_link/os/liteos/base/ipc\los_queue.c **** 
 373:D:/fchai/work/i-cube/I-CUBE-HUAWEI/Middlewares/Third_Party/Huawei/iot_link/os/liteos/base/ipc\los_queue.c **** /*****************************************************************************
 374:D:/fchai/work/i-cube/I-CUBE-HUAWEI/Middlewares/Third_Party/Huawei/iot_link/os/liteos/base/ipc\los_queue.c ****  Function    : LOS_QueueReadCopy
 375:D:/fchai/work/i-cube/I-CUBE-HUAWEI/Middlewares/Third_Party/Huawei/iot_link/os/liteos/base/ipc\los_queue.c ****  Description : Read queue
 376:D:/fchai/work/i-cube/I-CUBE-HUAWEI/Middlewares/Third_Party/Huawei/iot_link/os/liteos/base/ipc\los_queue.c ****  Input       : uwQueueID
 377:D:/fchai/work/i-cube/I-CUBE-HUAWEI/Middlewares/Third_Party/Huawei/iot_link/os/liteos/base/ipc\los_queue.c ****                puwBufferSize
 378:D:/fchai/work/i-cube/I-CUBE-HUAWEI/Middlewares/Third_Party/Huawei/iot_link/os/liteos/base/ipc\los_queue.c ****                uwTimeOut
 379:D:/fchai/work/i-cube/I-CUBE-HUAWEI/Middlewares/Third_Party/Huawei/iot_link/os/liteos/base/ipc\los_queue.c ****  Output      : pBufferAddr
 380:D:/fchai/work/i-cube/I-CUBE-HUAWEI/Middlewares/Third_Party/Huawei/iot_link/os/liteos/base/ipc\los_queue.c ****                puwBufferSize
 381:D:/fchai/work/i-cube/I-CUBE-HUAWEI/Middlewares/Third_Party/Huawei/iot_link/os/liteos/base/ipc\los_queue.c ****  Return      : LOS_OK on success or error code on failure
 382:D:/fchai/work/i-cube/I-CUBE-HUAWEI/Middlewares/Third_Party/Huawei/iot_link/os/liteos/base/ipc\los_queue.c ****  *****************************************************************************/
 383:D:/fchai/work/i-cube/I-CUBE-HUAWEI/Middlewares/Third_Party/Huawei/iot_link/os/liteos/base/ipc\los_queue.c **** LITE_OS_SEC_TEXT UINT32 LOS_QueueReadCopy(UINT32  uwQueueID,
 384:D:/fchai/work/i-cube/I-CUBE-HUAWEI/Middlewares/Third_Party/Huawei/iot_link/os/liteos/base/ipc\los_queue.c ****                     VOID *  pBufferAddr,
 385:D:/fchai/work/i-cube/I-CUBE-HUAWEI/Middlewares/Third_Party/Huawei/iot_link/os/liteos/base/ipc\los_queue.c ****                     UINT32 * puwBufferSize,
 386:D:/fchai/work/i-cube/I-CUBE-HUAWEI/Middlewares/Third_Party/Huawei/iot_link/os/liteos/base/ipc\los_queue.c ****                     UINT32  uwTimeOut)
 387:D:/fchai/work/i-cube/I-CUBE-HUAWEI/Middlewares/Third_Party/Huawei/iot_link/os/liteos/base/ipc\los_queue.c **** {
 960              		.loc 1 387 1 is_stmt 1 view -0
 961              		.cfi_startproc
 962              		@ args = 0, pretend = 0, frame = 0
 963              		@ frame_needed = 0, uses_anonymous_args = 0
 388:D:/fchai/work/i-cube/I-CUBE-HUAWEI/Middlewares/Third_Party/Huawei/iot_link/os/liteos/base/ipc\los_queue.c ****     UINT32 uwRet;
 964              		.loc 1 388 5 view .LVU311
 389:D:/fchai/work/i-cube/I-CUBE-HUAWEI/Middlewares/Third_Party/Huawei/iot_link/os/liteos/base/ipc\los_queue.c ****     UINT32 uwOperateType;
 965              		.loc 1 389 5 view .LVU312
 390:D:/fchai/work/i-cube/I-CUBE-HUAWEI/Middlewares/Third_Party/Huawei/iot_link/os/liteos/base/ipc\los_queue.c **** 
 391:D:/fchai/work/i-cube/I-CUBE-HUAWEI/Middlewares/Third_Party/Huawei/iot_link/os/liteos/base/ipc\los_queue.c ****     uwRet = osQueueReadParameterCheck(uwQueueID, pBufferAddr, puwBufferSize, uwTimeOut);
 966              		.loc 1 391 5 view .LVU313
 967              	.LBB95:
 968              	.LBI95:
 177:D:/fchai/work/i-cube/I-CUBE-HUAWEI/Middlewares/Third_Party/Huawei/iot_link/os/liteos/base/ipc\los_queue.c **** {
 969              		.loc 1 177 39 view .LVU314
 970              	.LBB96:
 179:D:/fchai/work/i-cube/I-CUBE-HUAWEI/Middlewares/Third_Party/Huawei/iot_link/os/liteos/base/ipc\los_queue.c ****     {
 971              		.loc 1 179 5 view .LVU315
 179:D:/fchai/work/i-cube/I-CUBE-HUAWEI/Middlewares/Third_Party/Huawei/iot_link/os/liteos/base/ipc\los_queue.c ****     {
 972              		.loc 1 179 8 is_stmt 0 view .LVU316
 973 0000 0928     		cmp	r0, #9
 974 0002 11D8     		bhi	.L64
 183:D:/fchai/work/i-cube/I-CUBE-HUAWEI/Middlewares/Third_Party/Huawei/iot_link/os/liteos/base/ipc\los_queue.c ****     {
 975              		.loc 1 183 5 is_stmt 1 view .LVU317
 183:D:/fchai/work/i-cube/I-CUBE-HUAWEI/Middlewares/Third_Party/Huawei/iot_link/os/liteos/base/ipc\los_queue.c ****     {
 976              		.loc 1 183 8 is_stmt 0 view .LVU318
 977 0004 B9B1     		cbz	r1, .L66
 183:D:/fchai/work/i-cube/I-CUBE-HUAWEI/Middlewares/Third_Party/Huawei/iot_link/os/liteos/base/ipc\los_queue.c ****     {
 978              		.loc 1 183 31 view .LVU319
 979 0006 B2B1     		cbz	r2, .L66
 188:D:/fchai/work/i-cube/I-CUBE-HUAWEI/Middlewares/Third_Party/Huawei/iot_link/os/liteos/base/ipc\los_queue.c ****     {
 980              		.loc 1 188 5 is_stmt 1 view .LVU320
 981              	.LBE96:
 982              	.LBE95:
 387:D:/fchai/work/i-cube/I-CUBE-HUAWEI/Middlewares/Third_Party/Huawei/iot_link/os/liteos/base/ipc\los_queue.c ****     UINT32 uwRet;
ARM GAS  T:\msys\tmp\ccLNSFcc.s 			page 32


 983              		.loc 1 387 1 is_stmt 0 view .LVU321
 984 0008 10B5     		push	{r4, lr}
 985              	.LCFI8:
 986              		.cfi_def_cfa_offset 8
 987              		.cfi_offset 4, -8
 988              		.cfi_offset 14, -4
 989              	.LBB105:
 990              	.LBB101:
 188:D:/fchai/work/i-cube/I-CUBE-HUAWEI/Middlewares/Third_Party/Huawei/iot_link/os/liteos/base/ipc\los_queue.c ****     {
 991              		.loc 1 188 8 view .LVU322
 992 000a 1468     		ldr	r4, [r2]
 993              	.LBE101:
 994              	.LBE105:
 387:D:/fchai/work/i-cube/I-CUBE-HUAWEI/Middlewares/Third_Party/Huawei/iot_link/os/liteos/base/ipc\los_queue.c ****     UINT32 uwRet;
 995              		.loc 1 387 1 view .LVU323
 996 000c 82B0     		sub	sp, sp, #8
 997              	.LCFI9:
 998              		.cfi_def_cfa_offset 16
 999              	.LBB106:
 1000              	.LBB102:
 188:D:/fchai/work/i-cube/I-CUBE-HUAWEI/Middlewares/Third_Party/Huawei/iot_link/os/liteos/base/ipc\los_queue.c ****     {
 1001              		.loc 1 188 8 view .LVU324
 1002 000e 6CB1     		cbz	r4, .L67
 193:D:/fchai/work/i-cube/I-CUBE-HUAWEI/Middlewares/Third_Party/Huawei/iot_link/os/liteos/base/ipc\los_queue.c ****     {
 1003              		.loc 1 193 5 is_stmt 1 view .LVU325
 193:D:/fchai/work/i-cube/I-CUBE-HUAWEI/Middlewares/Third_Party/Huawei/iot_link/os/liteos/base/ipc\los_queue.c ****     {
 1004              		.loc 1 193 8 is_stmt 0 view .LVU326
 1005 0010 13B1     		cbz	r3, .L63
 1006              	.LBB97:
 1007              	.LBI97:
 177:D:/fchai/work/i-cube/I-CUBE-HUAWEI/Middlewares/Third_Party/Huawei/iot_link/os/liteos/base/ipc\los_queue.c **** {
 1008              		.loc 1 177 39 is_stmt 1 view .LVU327
 1009              	.LVL96:
 1010              	.LBB98:
 195:D:/fchai/work/i-cube/I-CUBE-HUAWEI/Middlewares/Third_Party/Huawei/iot_link/os/liteos/base/ipc\los_queue.c ****         {
 1011              		.loc 1 195 9 view .LVU328
 195:D:/fchai/work/i-cube/I-CUBE-HUAWEI/Middlewares/Third_Party/Huawei/iot_link/os/liteos/base/ipc\los_queue.c ****         {
 1012              		.loc 1 195 13 is_stmt 0 view .LVU329
 1013 0012 0A4C     		ldr	r4, .L76
 195:D:/fchai/work/i-cube/I-CUBE-HUAWEI/Middlewares/Third_Party/Huawei/iot_link/os/liteos/base/ipc\los_queue.c ****         {
 1014              		.loc 1 195 12 view .LVU330
 1015 0014 2468     		ldr	r4, [r4]
 1016 0016 64B9     		cbnz	r4, .L68
 1017              	.LVL97:
 1018              	.L63:
 195:D:/fchai/work/i-cube/I-CUBE-HUAWEI/Middlewares/Third_Party/Huawei/iot_link/os/liteos/base/ipc\los_queue.c ****         {
 1019              		.loc 1 195 12 view .LVU331
 1020              	.LBE98:
 1021              	.LBE97:
 1022              	.LBE102:
 1023              	.LBE106:
 392:D:/fchai/work/i-cube/I-CUBE-HUAWEI/Middlewares/Third_Party/Huawei/iot_link/os/liteos/base/ipc\los_queue.c ****     if(uwRet != LOS_OK)
 393:D:/fchai/work/i-cube/I-CUBE-HUAWEI/Middlewares/Third_Party/Huawei/iot_link/os/liteos/base/ipc\los_queue.c ****     {
 394:D:/fchai/work/i-cube/I-CUBE-HUAWEI/Middlewares/Third_Party/Huawei/iot_link/os/liteos/base/ipc\los_queue.c ****         return uwRet;
 395:D:/fchai/work/i-cube/I-CUBE-HUAWEI/Middlewares/Third_Party/Huawei/iot_link/os/liteos/base/ipc\los_queue.c ****     }
 396:D:/fchai/work/i-cube/I-CUBE-HUAWEI/Middlewares/Third_Party/Huawei/iot_link/os/liteos/base/ipc\los_queue.c **** 
 397:D:/fchai/work/i-cube/I-CUBE-HUAWEI/Middlewares/Third_Party/Huawei/iot_link/os/liteos/base/ipc\los_queue.c ****     uwOperateType = OS_QUEUE_OPERATE_TYPE(OS_QUEUE_READ, OS_QUEUE_HEAD,OS_QUEUE_NOT_POINT);
ARM GAS  T:\msys\tmp\ccLNSFcc.s 			page 33


 1024              		.loc 1 397 5 is_stmt 1 view .LVU332
 398:D:/fchai/work/i-cube/I-CUBE-HUAWEI/Middlewares/Third_Party/Huawei/iot_link/os/liteos/base/ipc\los_queue.c ****     return osQueueOperate(uwQueueID, uwOperateType, pBufferAddr, puwBufferSize, uwTimeOut);
 1025              		.loc 1 398 5 view .LVU333
 1026              		.loc 1 398 12 is_stmt 0 view .LVU334
 1027 0018 0093     		str	r3, [sp]
 1028 001a 1346     		mov	r3, r2
 1029              	.LVL98:
 1030              		.loc 1 398 12 view .LVU335
 1031 001c 0A46     		mov	r2, r1
 1032              	.LVL99:
 1033              		.loc 1 398 12 view .LVU336
 1034 001e 0021     		movs	r1, #0
 1035              	.LVL100:
 1036              		.loc 1 398 12 view .LVU337
 1037 0020 FFF7FEFF 		bl	osQueueOperate
 1038              	.LVL101:
 1039              	.L61:
 399:D:/fchai/work/i-cube/I-CUBE-HUAWEI/Middlewares/Third_Party/Huawei/iot_link/os/liteos/base/ipc\los_queue.c **** }
 1040              		.loc 1 399 1 view .LVU338
 1041 0024 02B0     		add	sp, sp, #8
 1042              	.LCFI10:
 1043              		.cfi_def_cfa_offset 8
 1044              		@ sp needed
 1045 0026 10BD     		pop	{r4, pc}
 1046              	.LVL102:
 1047              	.L64:
 1048              	.LCFI11:
 1049              		.cfi_def_cfa_offset 0
 1050              		.cfi_restore 4
 1051              		.cfi_restore 14
 1052              	.LBB107:
 1053              	.LBB103:
 181:D:/fchai/work/i-cube/I-CUBE-HUAWEI/Middlewares/Third_Party/Huawei/iot_link/os/liteos/base/ipc\los_queue.c ****     }
 1054              		.loc 1 181 16 view .LVU339
 1055 0028 0548     		ldr	r0, .L76+4
 1056              	.LVL103:
 181:D:/fchai/work/i-cube/I-CUBE-HUAWEI/Middlewares/Third_Party/Huawei/iot_link/os/liteos/base/ipc\los_queue.c ****     }
 1057              		.loc 1 181 16 view .LVU340
 1058 002a 7047     		bx	lr
 1059              	.LVL104:
 1060              	.L67:
 1061              	.LCFI12:
 1062              		.cfi_def_cfa_offset 16
 1063              		.cfi_offset 4, -8
 1064              		.cfi_offset 14, -4
 190:D:/fchai/work/i-cube/I-CUBE-HUAWEI/Middlewares/Third_Party/Huawei/iot_link/os/liteos/base/ipc\los_queue.c ****     }
 1065              		.loc 1 190 16 view .LVU341
 1066 002c 0548     		ldr	r0, .L76+8
 1067              	.LVL105:
 190:D:/fchai/work/i-cube/I-CUBE-HUAWEI/Middlewares/Third_Party/Huawei/iot_link/os/liteos/base/ipc\los_queue.c ****     }
 1068              		.loc 1 190 16 view .LVU342
 1069              	.LBE103:
 1070              	.LBE107:
 1071              		.loc 1 399 1 view .LVU343
 1072 002e 02B0     		add	sp, sp, #8
 1073              	.LCFI13:
 1074              		.cfi_remember_state
ARM GAS  T:\msys\tmp\ccLNSFcc.s 			page 34


 1075              		.cfi_def_cfa_offset 8
 1076              		@ sp needed
 1077 0030 10BD     		pop	{r4, pc}
 1078              	.LVL106:
 1079              	.L68:
 1080              	.LCFI14:
 1081              		.cfi_restore_state
 1082              	.LBB108:
 1083              	.LBB104:
 1084              	.LBB100:
 1085              	.LBB99:
 197:D:/fchai/work/i-cube/I-CUBE-HUAWEI/Middlewares/Third_Party/Huawei/iot_link/os/liteos/base/ipc\los_queue.c ****         }
 1086              		.loc 1 197 20 view .LVU344
 1087 0032 0548     		ldr	r0, .L76+12
 1088              	.LVL107:
 197:D:/fchai/work/i-cube/I-CUBE-HUAWEI/Middlewares/Third_Party/Huawei/iot_link/os/liteos/base/ipc\los_queue.c ****         }
 1089              		.loc 1 197 20 view .LVU345
 1090 0034 F6E7     		b	.L61
 1091              	.LVL108:
 1092              	.L66:
 1093              	.LCFI15:
 1094              		.cfi_def_cfa_offset 0
 1095              		.cfi_restore 4
 1096              		.cfi_restore 14
 197:D:/fchai/work/i-cube/I-CUBE-HUAWEI/Middlewares/Third_Party/Huawei/iot_link/os/liteos/base/ipc\los_queue.c ****         }
 1097              		.loc 1 197 20 view .LVU346
 1098              	.LBE99:
 1099              	.LBE100:
 185:D:/fchai/work/i-cube/I-CUBE-HUAWEI/Middlewares/Third_Party/Huawei/iot_link/os/liteos/base/ipc\los_queue.c ****     }
 1100              		.loc 1 185 16 view .LVU347
 1101 0036 0548     		ldr	r0, .L76+16
 1102              	.LVL109:
 185:D:/fchai/work/i-cube/I-CUBE-HUAWEI/Middlewares/Third_Party/Huawei/iot_link/os/liteos/base/ipc\los_queue.c ****     }
 1103              		.loc 1 185 16 view .LVU348
 1104              	.LBE104:
 1105              	.LBE108:
 1106              		.loc 1 399 1 view .LVU349
 1107 0038 7047     		bx	lr
 1108              	.L77:
 1109 003a 00BF     		.align	2
 1110              	.L76:
 1111 003c 00000000 		.word	g_vuwIntCount
 1112 0040 0E060002 		.word	33555982
 1113 0044 10060002 		.word	33555984
 1114 0048 18060002 		.word	33555992
 1115 004c 0F060002 		.word	33555983
 1116              		.cfi_endproc
 1117              	.LFE139:
 1119              		.section	.text.LOS_QueueWriteHeadCopy,"ax",%progbits
 1120              		.align	1
 1121              		.p2align 2,,3
 1122              		.global	LOS_QueueWriteHeadCopy
 1123              		.syntax unified
 1124              		.thumb
 1125              		.thumb_func
 1126              		.fpu fpv4-sp-d16
 1128              	LOS_QueueWriteHeadCopy:
ARM GAS  T:\msys\tmp\ccLNSFcc.s 			page 35


 1129              	.LVL110:
 1130              	.LFB140:
 400:D:/fchai/work/i-cube/I-CUBE-HUAWEI/Middlewares/Third_Party/Huawei/iot_link/os/liteos/base/ipc\los_queue.c **** 
 401:D:/fchai/work/i-cube/I-CUBE-HUAWEI/Middlewares/Third_Party/Huawei/iot_link/os/liteos/base/ipc\los_queue.c **** /*****************************************************************************
 402:D:/fchai/work/i-cube/I-CUBE-HUAWEI/Middlewares/Third_Party/Huawei/iot_link/os/liteos/base/ipc\los_queue.c ****  Function    : LOS_QueueWriteHeadCopy
 403:D:/fchai/work/i-cube/I-CUBE-HUAWEI/Middlewares/Third_Party/Huawei/iot_link/os/liteos/base/ipc\los_queue.c ****  Description : Write queue head
 404:D:/fchai/work/i-cube/I-CUBE-HUAWEI/Middlewares/Third_Party/Huawei/iot_link/os/liteos/base/ipc\los_queue.c ****  Input       : uwQueueID
 405:D:/fchai/work/i-cube/I-CUBE-HUAWEI/Middlewares/Third_Party/Huawei/iot_link/os/liteos/base/ipc\los_queue.c ****                pBufferAddr
 406:D:/fchai/work/i-cube/I-CUBE-HUAWEI/Middlewares/Third_Party/Huawei/iot_link/os/liteos/base/ipc\los_queue.c ****                uwBufferSize
 407:D:/fchai/work/i-cube/I-CUBE-HUAWEI/Middlewares/Third_Party/Huawei/iot_link/os/liteos/base/ipc\los_queue.c ****                uwTimeOut
 408:D:/fchai/work/i-cube/I-CUBE-HUAWEI/Middlewares/Third_Party/Huawei/iot_link/os/liteos/base/ipc\los_queue.c ****  Output      : None
 409:D:/fchai/work/i-cube/I-CUBE-HUAWEI/Middlewares/Third_Party/Huawei/iot_link/os/liteos/base/ipc\los_queue.c ****  Return      : LOS_OK on success or error code on failure
 410:D:/fchai/work/i-cube/I-CUBE-HUAWEI/Middlewares/Third_Party/Huawei/iot_link/os/liteos/base/ipc\los_queue.c ****  *****************************************************************************/
 411:D:/fchai/work/i-cube/I-CUBE-HUAWEI/Middlewares/Third_Party/Huawei/iot_link/os/liteos/base/ipc\los_queue.c **** LITE_OS_SEC_TEXT UINT32 LOS_QueueWriteHeadCopy(UINT32 uwQueueID,
 412:D:/fchai/work/i-cube/I-CUBE-HUAWEI/Middlewares/Third_Party/Huawei/iot_link/os/liteos/base/ipc\los_queue.c ****                                      VOID * pBufferAddr,
 413:D:/fchai/work/i-cube/I-CUBE-HUAWEI/Middlewares/Third_Party/Huawei/iot_link/os/liteos/base/ipc\los_queue.c ****                                      UINT32 uwBufferSize,
 414:D:/fchai/work/i-cube/I-CUBE-HUAWEI/Middlewares/Third_Party/Huawei/iot_link/os/liteos/base/ipc\los_queue.c ****                                      UINT32 uwTimeOut )
 415:D:/fchai/work/i-cube/I-CUBE-HUAWEI/Middlewares/Third_Party/Huawei/iot_link/os/liteos/base/ipc\los_queue.c **** {
 1131              		.loc 1 415 1 is_stmt 1 view -0
 1132              		.cfi_startproc
 1133              		@ args = 0, pretend = 0, frame = 8
 1134              		@ frame_needed = 0, uses_anonymous_args = 0
 416:D:/fchai/work/i-cube/I-CUBE-HUAWEI/Middlewares/Third_Party/Huawei/iot_link/os/liteos/base/ipc\los_queue.c ****     UINT32 uwRet;
 1135              		.loc 1 416 5 view .LVU351
 417:D:/fchai/work/i-cube/I-CUBE-HUAWEI/Middlewares/Third_Party/Huawei/iot_link/os/liteos/base/ipc\los_queue.c ****     UINT32 uwOperateType;
 1136              		.loc 1 417 5 view .LVU352
 418:D:/fchai/work/i-cube/I-CUBE-HUAWEI/Middlewares/Third_Party/Huawei/iot_link/os/liteos/base/ipc\los_queue.c **** 
 419:D:/fchai/work/i-cube/I-CUBE-HUAWEI/Middlewares/Third_Party/Huawei/iot_link/os/liteos/base/ipc\los_queue.c ****     uwRet = osQueueWriteParameterCheck(uwQueueID, pBufferAddr, &uwBufferSize, uwTimeOut);
 1137              		.loc 1 419 5 view .LVU353
 415:D:/fchai/work/i-cube/I-CUBE-HUAWEI/Middlewares/Third_Party/Huawei/iot_link/os/liteos/base/ipc\los_queue.c ****     UINT32 uwRet;
 1138              		.loc 1 415 1 is_stmt 0 view .LVU354
 1139 0000 00B5     		push	{lr}
 1140              	.LCFI16:
 1141              		.cfi_def_cfa_offset 4
 1142              		.cfi_offset 14, -4
 1143 0002 85B0     		sub	sp, sp, #20
 1144              	.LCFI17:
 1145              		.cfi_def_cfa_offset 24
 1146              	.LVL111:
 1147              	.LBB113:
 1148              	.LBI113:
 204:D:/fchai/work/i-cube/I-CUBE-HUAWEI/Middlewares/Third_Party/Huawei/iot_link/os/liteos/base/ipc\los_queue.c **** {
 1149              		.loc 1 204 39 is_stmt 1 view .LVU355
 1150              	.LBB114:
 206:D:/fchai/work/i-cube/I-CUBE-HUAWEI/Middlewares/Third_Party/Huawei/iot_link/os/liteos/base/ipc\los_queue.c ****     {
 1151              		.loc 1 206 5 view .LVU356
 206:D:/fchai/work/i-cube/I-CUBE-HUAWEI/Middlewares/Third_Party/Huawei/iot_link/os/liteos/base/ipc\los_queue.c ****     {
 1152              		.loc 1 206 8 is_stmt 0 view .LVU357
 1153 0004 0928     		cmp	r0, #9
 1154              	.LBE114:
 1155              	.LBE113:
 415:D:/fchai/work/i-cube/I-CUBE-HUAWEI/Middlewares/Third_Party/Huawei/iot_link/os/liteos/base/ipc\los_queue.c ****     UINT32 uwRet;
 1156              		.loc 1 415 1 view .LVU358
 1157 0006 0392     		str	r2, [sp, #12]
 1158              	.LBB121:
 1159              	.LBB117:
 206:D:/fchai/work/i-cube/I-CUBE-HUAWEI/Middlewares/Third_Party/Huawei/iot_link/os/liteos/base/ipc\los_queue.c ****     {
ARM GAS  T:\msys\tmp\ccLNSFcc.s 			page 36


 1160              		.loc 1 206 8 view .LVU359
 1161 0008 11D8     		bhi	.L81
 211:D:/fchai/work/i-cube/I-CUBE-HUAWEI/Middlewares/Third_Party/Huawei/iot_link/os/liteos/base/ipc\los_queue.c ****     {
 1162              		.loc 1 211 5 is_stmt 1 view .LVU360
 211:D:/fchai/work/i-cube/I-CUBE-HUAWEI/Middlewares/Third_Party/Huawei/iot_link/os/liteos/base/ipc\los_queue.c ****     {
 1163              		.loc 1 211 8 is_stmt 0 view .LVU361
 1164 000a C1B1     		cbz	r1, .L82
 216:D:/fchai/work/i-cube/I-CUBE-HUAWEI/Middlewares/Third_Party/Huawei/iot_link/os/liteos/base/ipc\los_queue.c ****     {
 1165              		.loc 1 216 5 is_stmt 1 view .LVU362
 216:D:/fchai/work/i-cube/I-CUBE-HUAWEI/Middlewares/Third_Party/Huawei/iot_link/os/liteos/base/ipc\los_queue.c ****     {
 1166              		.loc 1 216 8 is_stmt 0 view .LVU363
 1167 000c 9AB1     		cbz	r2, .L83
 221:D:/fchai/work/i-cube/I-CUBE-HUAWEI/Middlewares/Third_Party/Huawei/iot_link/os/liteos/base/ipc\los_queue.c ****     {
 1168              		.loc 1 221 5 is_stmt 1 view .LVU364
 221:D:/fchai/work/i-cube/I-CUBE-HUAWEI/Middlewares/Third_Party/Huawei/iot_link/os/liteos/base/ipc\los_queue.c ****     {
 1169              		.loc 1 221 8 is_stmt 0 view .LVU365
 1170 000e 43B9     		cbnz	r3, .L89
 1171              	.LVL112:
 1172              	.L80:
 221:D:/fchai/work/i-cube/I-CUBE-HUAWEI/Middlewares/Third_Party/Huawei/iot_link/os/liteos/base/ipc\los_queue.c ****     {
 1173              		.loc 1 221 8 view .LVU366
 1174              	.LBE117:
 1175              	.LBE121:
 420:D:/fchai/work/i-cube/I-CUBE-HUAWEI/Middlewares/Third_Party/Huawei/iot_link/os/liteos/base/ipc\los_queue.c ****     if(uwRet != LOS_OK)
 421:D:/fchai/work/i-cube/I-CUBE-HUAWEI/Middlewares/Third_Party/Huawei/iot_link/os/liteos/base/ipc\los_queue.c ****     {
 422:D:/fchai/work/i-cube/I-CUBE-HUAWEI/Middlewares/Third_Party/Huawei/iot_link/os/liteos/base/ipc\los_queue.c ****         return uwRet;
 423:D:/fchai/work/i-cube/I-CUBE-HUAWEI/Middlewares/Third_Party/Huawei/iot_link/os/liteos/base/ipc\los_queue.c ****     }
 424:D:/fchai/work/i-cube/I-CUBE-HUAWEI/Middlewares/Third_Party/Huawei/iot_link/os/liteos/base/ipc\los_queue.c **** 
 425:D:/fchai/work/i-cube/I-CUBE-HUAWEI/Middlewares/Third_Party/Huawei/iot_link/os/liteos/base/ipc\los_queue.c ****     uwOperateType = OS_QUEUE_OPERATE_TYPE(OS_QUEUE_WRITE, OS_QUEUE_HEAD,OS_QUEUE_NOT_POINT);
 1176              		.loc 1 425 5 is_stmt 1 view .LVU367
 426:D:/fchai/work/i-cube/I-CUBE-HUAWEI/Middlewares/Third_Party/Huawei/iot_link/os/liteos/base/ipc\los_queue.c ****     return osQueueOperate(uwQueueID, uwOperateType, pBufferAddr, &uwBufferSize, uwTimeOut);
 1177              		.loc 1 426 5 view .LVU368
 1178              		.loc 1 426 12 is_stmt 0 view .LVU369
 1179 0010 0093     		str	r3, [sp]
 1180 0012 0A46     		mov	r2, r1
 1181 0014 03AB     		add	r3, sp, #12
 1182              	.LVL113:
 1183              		.loc 1 426 12 view .LVU370
 1184 0016 0121     		movs	r1, #1
 1185              	.LVL114:
 1186              		.loc 1 426 12 view .LVU371
 1187 0018 FFF7FEFF 		bl	osQueueOperate
 1188              	.LVL115:
 1189              	.L78:
 427:D:/fchai/work/i-cube/I-CUBE-HUAWEI/Middlewares/Third_Party/Huawei/iot_link/os/liteos/base/ipc\los_queue.c **** }
 1190              		.loc 1 427 1 view .LVU372
 1191 001c 05B0     		add	sp, sp, #20
 1192              	.LCFI18:
 1193              		.cfi_remember_state
 1194              		.cfi_def_cfa_offset 4
 1195              		@ sp needed
 1196 001e 5DF804FB 		ldr	pc, [sp], #4
 1197              	.LVL116:
 1198              	.L89:
 1199              	.LCFI19:
 1200              		.cfi_restore_state
 1201              	.LBB122:
ARM GAS  T:\msys\tmp\ccLNSFcc.s 			page 37


 1202              	.LBB118:
 1203              	.LBB115:
 1204              	.LBI115:
 204:D:/fchai/work/i-cube/I-CUBE-HUAWEI/Middlewares/Third_Party/Huawei/iot_link/os/liteos/base/ipc\los_queue.c **** {
 1205              		.loc 1 204 39 is_stmt 1 view .LVU373
 1206              	.LBB116:
 223:D:/fchai/work/i-cube/I-CUBE-HUAWEI/Middlewares/Third_Party/Huawei/iot_link/os/liteos/base/ipc\los_queue.c ****         {
 1207              		.loc 1 223 9 view .LVU374
 223:D:/fchai/work/i-cube/I-CUBE-HUAWEI/Middlewares/Third_Party/Huawei/iot_link/os/liteos/base/ipc\los_queue.c ****         {
 1208              		.loc 1 223 13 is_stmt 0 view .LVU375
 1209 0022 084A     		ldr	r2, .L90
 1210              	.LVL117:
 223:D:/fchai/work/i-cube/I-CUBE-HUAWEI/Middlewares/Third_Party/Huawei/iot_link/os/liteos/base/ipc\los_queue.c ****         {
 1211              		.loc 1 223 12 view .LVU376
 1212 0024 1268     		ldr	r2, [r2]
 1213 0026 002A     		cmp	r2, #0
 1214 0028 F2D0     		beq	.L80
 225:D:/fchai/work/i-cube/I-CUBE-HUAWEI/Middlewares/Third_Party/Huawei/iot_link/os/liteos/base/ipc\los_queue.c ****         }
 1215              		.loc 1 225 20 view .LVU377
 1216 002a 0748     		ldr	r0, .L90+4
 1217              	.LVL118:
 225:D:/fchai/work/i-cube/I-CUBE-HUAWEI/Middlewares/Third_Party/Huawei/iot_link/os/liteos/base/ipc\los_queue.c ****         }
 1218              		.loc 1 225 20 view .LVU378
 1219 002c F6E7     		b	.L78
 1220              	.LVL119:
 1221              	.L81:
 225:D:/fchai/work/i-cube/I-CUBE-HUAWEI/Middlewares/Third_Party/Huawei/iot_link/os/liteos/base/ipc\los_queue.c ****         }
 1222              		.loc 1 225 20 view .LVU379
 1223              	.LBE116:
 1224              	.LBE115:
 208:D:/fchai/work/i-cube/I-CUBE-HUAWEI/Middlewares/Third_Party/Huawei/iot_link/os/liteos/base/ipc\los_queue.c ****     }
 1225              		.loc 1 208 16 view .LVU380
 1226 002e 0748     		ldr	r0, .L90+8
 1227              	.LVL120:
 208:D:/fchai/work/i-cube/I-CUBE-HUAWEI/Middlewares/Third_Party/Huawei/iot_link/os/liteos/base/ipc\los_queue.c ****     }
 1228              		.loc 1 208 16 view .LVU381
 1229              	.LBE118:
 1230              	.LBE122:
 1231              		.loc 1 427 1 view .LVU382
 1232 0030 05B0     		add	sp, sp, #20
 1233              	.LCFI20:
 1234              		.cfi_remember_state
 1235              		.cfi_def_cfa_offset 4
 1236              		@ sp needed
 1237 0032 5DF804FB 		ldr	pc, [sp], #4
 1238              	.LVL121:
 1239              	.L83:
 1240              	.LCFI21:
 1241              		.cfi_restore_state
 1242              	.LBB123:
 1243              	.LBB119:
 218:D:/fchai/work/i-cube/I-CUBE-HUAWEI/Middlewares/Third_Party/Huawei/iot_link/os/liteos/base/ipc\los_queue.c ****     }
 1244              		.loc 1 218 16 view .LVU383
 1245 0036 0648     		ldr	r0, .L90+12
 1246              	.LVL122:
 218:D:/fchai/work/i-cube/I-CUBE-HUAWEI/Middlewares/Third_Party/Huawei/iot_link/os/liteos/base/ipc\los_queue.c ****     }
 1247              		.loc 1 218 16 view .LVU384
ARM GAS  T:\msys\tmp\ccLNSFcc.s 			page 38


 1248              	.LBE119:
 1249              	.LBE123:
 1250              		.loc 1 427 1 view .LVU385
 1251 0038 05B0     		add	sp, sp, #20
 1252              	.LCFI22:
 1253              		.cfi_remember_state
 1254              		.cfi_def_cfa_offset 4
 1255              		@ sp needed
 1256 003a 5DF804FB 		ldr	pc, [sp], #4
 1257              	.LVL123:
 1258              	.L82:
 1259              	.LCFI23:
 1260              		.cfi_restore_state
 1261              	.LBB124:
 1262              	.LBB120:
 213:D:/fchai/work/i-cube/I-CUBE-HUAWEI/Middlewares/Third_Party/Huawei/iot_link/os/liteos/base/ipc\los_queue.c ****     }
 1263              		.loc 1 213 16 view .LVU386
 1264 003e 0548     		ldr	r0, .L90+16
 1265              	.LVL124:
 213:D:/fchai/work/i-cube/I-CUBE-HUAWEI/Middlewares/Third_Party/Huawei/iot_link/os/liteos/base/ipc\los_queue.c ****     }
 1266              		.loc 1 213 16 view .LVU387
 1267 0040 ECE7     		b	.L78
 1268              	.L91:
 1269 0042 00BF     		.align	2
 1270              	.L90:
 1271 0044 00000000 		.word	g_vuwIntCount
 1272 0048 09060002 		.word	33555977
 1273 004c 0E060002 		.word	33555982
 1274 0050 13060002 		.word	33555987
 1275 0054 12060002 		.word	33555986
 1276              	.LBE120:
 1277              	.LBE124:
 1278              		.cfi_endproc
 1279              	.LFE140:
 1281              		.section	.text.LOS_QueueWriteCopy,"ax",%progbits
 1282              		.align	1
 1283              		.p2align 2,,3
 1284              		.global	LOS_QueueWriteCopy
 1285              		.syntax unified
 1286              		.thumb
 1287              		.thumb_func
 1288              		.fpu fpv4-sp-d16
 1290              	LOS_QueueWriteCopy:
 1291              	.LVL125:
 1292              	.LFB141:
 428:D:/fchai/work/i-cube/I-CUBE-HUAWEI/Middlewares/Third_Party/Huawei/iot_link/os/liteos/base/ipc\los_queue.c **** 
 429:D:/fchai/work/i-cube/I-CUBE-HUAWEI/Middlewares/Third_Party/Huawei/iot_link/os/liteos/base/ipc\los_queue.c **** /*****************************************************************************
 430:D:/fchai/work/i-cube/I-CUBE-HUAWEI/Middlewares/Third_Party/Huawei/iot_link/os/liteos/base/ipc\los_queue.c ****  Function    : LOS_QueueWriteCopy
 431:D:/fchai/work/i-cube/I-CUBE-HUAWEI/Middlewares/Third_Party/Huawei/iot_link/os/liteos/base/ipc\los_queue.c ****  Description : Write queue tail
 432:D:/fchai/work/i-cube/I-CUBE-HUAWEI/Middlewares/Third_Party/Huawei/iot_link/os/liteos/base/ipc\los_queue.c ****  Input       : uwQueueID
 433:D:/fchai/work/i-cube/I-CUBE-HUAWEI/Middlewares/Third_Party/Huawei/iot_link/os/liteos/base/ipc\los_queue.c ****                pBufferAddr
 434:D:/fchai/work/i-cube/I-CUBE-HUAWEI/Middlewares/Third_Party/Huawei/iot_link/os/liteos/base/ipc\los_queue.c ****                uwBufferSize
 435:D:/fchai/work/i-cube/I-CUBE-HUAWEI/Middlewares/Third_Party/Huawei/iot_link/os/liteos/base/ipc\los_queue.c ****                uwTimeOut
 436:D:/fchai/work/i-cube/I-CUBE-HUAWEI/Middlewares/Third_Party/Huawei/iot_link/os/liteos/base/ipc\los_queue.c ****  Output      : None
 437:D:/fchai/work/i-cube/I-CUBE-HUAWEI/Middlewares/Third_Party/Huawei/iot_link/os/liteos/base/ipc\los_queue.c ****  Return      : LOS_OK on success or error code on failure
 438:D:/fchai/work/i-cube/I-CUBE-HUAWEI/Middlewares/Third_Party/Huawei/iot_link/os/liteos/base/ipc\los_queue.c ****  *****************************************************************************/
 439:D:/fchai/work/i-cube/I-CUBE-HUAWEI/Middlewares/Third_Party/Huawei/iot_link/os/liteos/base/ipc\los_queue.c **** LITE_OS_SEC_TEXT UINT32 LOS_QueueWriteCopy( UINT32 uwQueueID,
ARM GAS  T:\msys\tmp\ccLNSFcc.s 			page 39


 440:D:/fchai/work/i-cube/I-CUBE-HUAWEI/Middlewares/Third_Party/Huawei/iot_link/os/liteos/base/ipc\los_queue.c ****                                      VOID * pBufferAddr,
 441:D:/fchai/work/i-cube/I-CUBE-HUAWEI/Middlewares/Third_Party/Huawei/iot_link/os/liteos/base/ipc\los_queue.c ****                                      UINT32 uwBufferSize,
 442:D:/fchai/work/i-cube/I-CUBE-HUAWEI/Middlewares/Third_Party/Huawei/iot_link/os/liteos/base/ipc\los_queue.c ****                                      UINT32 uwTimeOut )
 443:D:/fchai/work/i-cube/I-CUBE-HUAWEI/Middlewares/Third_Party/Huawei/iot_link/os/liteos/base/ipc\los_queue.c **** {
 1293              		.loc 1 443 1 is_stmt 1 view -0
 1294              		.cfi_startproc
 1295              		@ args = 0, pretend = 0, frame = 8
 1296              		@ frame_needed = 0, uses_anonymous_args = 0
 444:D:/fchai/work/i-cube/I-CUBE-HUAWEI/Middlewares/Third_Party/Huawei/iot_link/os/liteos/base/ipc\los_queue.c ****     UINT32 uwRet;
 1297              		.loc 1 444 5 view .LVU389
 445:D:/fchai/work/i-cube/I-CUBE-HUAWEI/Middlewares/Third_Party/Huawei/iot_link/os/liteos/base/ipc\los_queue.c ****     UINT32 uwOperateType;
 1298              		.loc 1 445 5 view .LVU390
 446:D:/fchai/work/i-cube/I-CUBE-HUAWEI/Middlewares/Third_Party/Huawei/iot_link/os/liteos/base/ipc\los_queue.c **** 
 447:D:/fchai/work/i-cube/I-CUBE-HUAWEI/Middlewares/Third_Party/Huawei/iot_link/os/liteos/base/ipc\los_queue.c ****     uwRet = osQueueWriteParameterCheck(uwQueueID, pBufferAddr, &uwBufferSize, uwTimeOut);
 1299              		.loc 1 447 5 view .LVU391
 443:D:/fchai/work/i-cube/I-CUBE-HUAWEI/Middlewares/Third_Party/Huawei/iot_link/os/liteos/base/ipc\los_queue.c ****     UINT32 uwRet;
 1300              		.loc 1 443 1 is_stmt 0 view .LVU392
 1301 0000 00B5     		push	{lr}
 1302              	.LCFI24:
 1303              		.cfi_def_cfa_offset 4
 1304              		.cfi_offset 14, -4
 1305 0002 85B0     		sub	sp, sp, #20
 1306              	.LCFI25:
 1307              		.cfi_def_cfa_offset 24
 1308              	.LVL126:
 1309              	.LBB129:
 1310              	.LBI129:
 204:D:/fchai/work/i-cube/I-CUBE-HUAWEI/Middlewares/Third_Party/Huawei/iot_link/os/liteos/base/ipc\los_queue.c **** {
 1311              		.loc 1 204 39 is_stmt 1 view .LVU393
 1312              	.LBB130:
 206:D:/fchai/work/i-cube/I-CUBE-HUAWEI/Middlewares/Third_Party/Huawei/iot_link/os/liteos/base/ipc\los_queue.c ****     {
 1313              		.loc 1 206 5 view .LVU394
 206:D:/fchai/work/i-cube/I-CUBE-HUAWEI/Middlewares/Third_Party/Huawei/iot_link/os/liteos/base/ipc\los_queue.c ****     {
 1314              		.loc 1 206 8 is_stmt 0 view .LVU395
 1315 0004 0928     		cmp	r0, #9
 1316              	.LBE130:
 1317              	.LBE129:
 443:D:/fchai/work/i-cube/I-CUBE-HUAWEI/Middlewares/Third_Party/Huawei/iot_link/os/liteos/base/ipc\los_queue.c ****     UINT32 uwRet;
 1318              		.loc 1 443 1 view .LVU396
 1319 0006 0392     		str	r2, [sp, #12]
 1320              	.LBB137:
 1321              	.LBB133:
 206:D:/fchai/work/i-cube/I-CUBE-HUAWEI/Middlewares/Third_Party/Huawei/iot_link/os/liteos/base/ipc\los_queue.c ****     {
 1322              		.loc 1 206 8 view .LVU397
 1323 0008 11D8     		bhi	.L95
 211:D:/fchai/work/i-cube/I-CUBE-HUAWEI/Middlewares/Third_Party/Huawei/iot_link/os/liteos/base/ipc\los_queue.c ****     {
 1324              		.loc 1 211 5 is_stmt 1 view .LVU398
 211:D:/fchai/work/i-cube/I-CUBE-HUAWEI/Middlewares/Third_Party/Huawei/iot_link/os/liteos/base/ipc\los_queue.c ****     {
 1325              		.loc 1 211 8 is_stmt 0 view .LVU399
 1326 000a C1B1     		cbz	r1, .L96
 216:D:/fchai/work/i-cube/I-CUBE-HUAWEI/Middlewares/Third_Party/Huawei/iot_link/os/liteos/base/ipc\los_queue.c ****     {
 1327              		.loc 1 216 5 is_stmt 1 view .LVU400
 216:D:/fchai/work/i-cube/I-CUBE-HUAWEI/Middlewares/Third_Party/Huawei/iot_link/os/liteos/base/ipc\los_queue.c ****     {
 1328              		.loc 1 216 8 is_stmt 0 view .LVU401
 1329 000c 9AB1     		cbz	r2, .L97
 221:D:/fchai/work/i-cube/I-CUBE-HUAWEI/Middlewares/Third_Party/Huawei/iot_link/os/liteos/base/ipc\los_queue.c ****     {
 1330              		.loc 1 221 5 is_stmt 1 view .LVU402
ARM GAS  T:\msys\tmp\ccLNSFcc.s 			page 40


 221:D:/fchai/work/i-cube/I-CUBE-HUAWEI/Middlewares/Third_Party/Huawei/iot_link/os/liteos/base/ipc\los_queue.c ****     {
 1331              		.loc 1 221 8 is_stmt 0 view .LVU403
 1332 000e 43B9     		cbnz	r3, .L103
 1333              	.LVL127:
 1334              	.L94:
 221:D:/fchai/work/i-cube/I-CUBE-HUAWEI/Middlewares/Third_Party/Huawei/iot_link/os/liteos/base/ipc\los_queue.c ****     {
 1335              		.loc 1 221 8 view .LVU404
 1336              	.LBE133:
 1337              	.LBE137:
 448:D:/fchai/work/i-cube/I-CUBE-HUAWEI/Middlewares/Third_Party/Huawei/iot_link/os/liteos/base/ipc\los_queue.c ****     if(uwRet != LOS_OK)
 449:D:/fchai/work/i-cube/I-CUBE-HUAWEI/Middlewares/Third_Party/Huawei/iot_link/os/liteos/base/ipc\los_queue.c ****     {
 450:D:/fchai/work/i-cube/I-CUBE-HUAWEI/Middlewares/Third_Party/Huawei/iot_link/os/liteos/base/ipc\los_queue.c ****         return uwRet;
 451:D:/fchai/work/i-cube/I-CUBE-HUAWEI/Middlewares/Third_Party/Huawei/iot_link/os/liteos/base/ipc\los_queue.c ****     }
 452:D:/fchai/work/i-cube/I-CUBE-HUAWEI/Middlewares/Third_Party/Huawei/iot_link/os/liteos/base/ipc\los_queue.c **** 
 453:D:/fchai/work/i-cube/I-CUBE-HUAWEI/Middlewares/Third_Party/Huawei/iot_link/os/liteos/base/ipc\los_queue.c ****     uwOperateType = OS_QUEUE_OPERATE_TYPE(OS_QUEUE_WRITE, OS_QUEUE_TAIL, OS_QUEUE_NOT_POINT);
 1338              		.loc 1 453 5 is_stmt 1 view .LVU405
 454:D:/fchai/work/i-cube/I-CUBE-HUAWEI/Middlewares/Third_Party/Huawei/iot_link/os/liteos/base/ipc\los_queue.c ****     return osQueueOperate(uwQueueID, uwOperateType, pBufferAddr, &uwBufferSize, uwTimeOut);
 1339              		.loc 1 454 5 view .LVU406
 1340              		.loc 1 454 12 is_stmt 0 view .LVU407
 1341 0010 0093     		str	r3, [sp]
 1342 0012 0A46     		mov	r2, r1
 1343 0014 03AB     		add	r3, sp, #12
 1344              	.LVL128:
 1345              		.loc 1 454 12 view .LVU408
 1346 0016 0321     		movs	r1, #3
 1347              	.LVL129:
 1348              		.loc 1 454 12 view .LVU409
 1349 0018 FFF7FEFF 		bl	osQueueOperate
 1350              	.LVL130:
 1351              	.L92:
 455:D:/fchai/work/i-cube/I-CUBE-HUAWEI/Middlewares/Third_Party/Huawei/iot_link/os/liteos/base/ipc\los_queue.c **** }
 1352              		.loc 1 455 1 view .LVU410
 1353 001c 05B0     		add	sp, sp, #20
 1354              	.LCFI26:
 1355              		.cfi_remember_state
 1356              		.cfi_def_cfa_offset 4
 1357              		@ sp needed
 1358 001e 5DF804FB 		ldr	pc, [sp], #4
 1359              	.LVL131:
 1360              	.L103:
 1361              	.LCFI27:
 1362              		.cfi_restore_state
 1363              	.LBB138:
 1364              	.LBB134:
 1365              	.LBB131:
 1366              	.LBI131:
 204:D:/fchai/work/i-cube/I-CUBE-HUAWEI/Middlewares/Third_Party/Huawei/iot_link/os/liteos/base/ipc\los_queue.c **** {
 1367              		.loc 1 204 39 is_stmt 1 view .LVU411
 1368              	.LBB132:
 223:D:/fchai/work/i-cube/I-CUBE-HUAWEI/Middlewares/Third_Party/Huawei/iot_link/os/liteos/base/ipc\los_queue.c ****         {
 1369              		.loc 1 223 9 view .LVU412
 223:D:/fchai/work/i-cube/I-CUBE-HUAWEI/Middlewares/Third_Party/Huawei/iot_link/os/liteos/base/ipc\los_queue.c ****         {
 1370              		.loc 1 223 13 is_stmt 0 view .LVU413
 1371 0022 084A     		ldr	r2, .L104
 1372              	.LVL132:
 223:D:/fchai/work/i-cube/I-CUBE-HUAWEI/Middlewares/Third_Party/Huawei/iot_link/os/liteos/base/ipc\los_queue.c ****         {
 1373              		.loc 1 223 12 view .LVU414
ARM GAS  T:\msys\tmp\ccLNSFcc.s 			page 41


 1374 0024 1268     		ldr	r2, [r2]
 1375 0026 002A     		cmp	r2, #0
 1376 0028 F2D0     		beq	.L94
 225:D:/fchai/work/i-cube/I-CUBE-HUAWEI/Middlewares/Third_Party/Huawei/iot_link/os/liteos/base/ipc\los_queue.c ****         }
 1377              		.loc 1 225 20 view .LVU415
 1378 002a 0748     		ldr	r0, .L104+4
 1379              	.LVL133:
 225:D:/fchai/work/i-cube/I-CUBE-HUAWEI/Middlewares/Third_Party/Huawei/iot_link/os/liteos/base/ipc\los_queue.c ****         }
 1380              		.loc 1 225 20 view .LVU416
 1381 002c F6E7     		b	.L92
 1382              	.LVL134:
 1383              	.L95:
 225:D:/fchai/work/i-cube/I-CUBE-HUAWEI/Middlewares/Third_Party/Huawei/iot_link/os/liteos/base/ipc\los_queue.c ****         }
 1384              		.loc 1 225 20 view .LVU417
 1385              	.LBE132:
 1386              	.LBE131:
 208:D:/fchai/work/i-cube/I-CUBE-HUAWEI/Middlewares/Third_Party/Huawei/iot_link/os/liteos/base/ipc\los_queue.c ****     }
 1387              		.loc 1 208 16 view .LVU418
 1388 002e 0748     		ldr	r0, .L104+8
 1389              	.LVL135:
 208:D:/fchai/work/i-cube/I-CUBE-HUAWEI/Middlewares/Third_Party/Huawei/iot_link/os/liteos/base/ipc\los_queue.c ****     }
 1390              		.loc 1 208 16 view .LVU419
 1391              	.LBE134:
 1392              	.LBE138:
 1393              		.loc 1 455 1 view .LVU420
 1394 0030 05B0     		add	sp, sp, #20
 1395              	.LCFI28:
 1396              		.cfi_remember_state
 1397              		.cfi_def_cfa_offset 4
 1398              		@ sp needed
 1399 0032 5DF804FB 		ldr	pc, [sp], #4
 1400              	.LVL136:
 1401              	.L97:
 1402              	.LCFI29:
 1403              		.cfi_restore_state
 1404              	.LBB139:
 1405              	.LBB135:
 218:D:/fchai/work/i-cube/I-CUBE-HUAWEI/Middlewares/Third_Party/Huawei/iot_link/os/liteos/base/ipc\los_queue.c ****     }
 1406              		.loc 1 218 16 view .LVU421
 1407 0036 0648     		ldr	r0, .L104+12
 1408              	.LVL137:
 218:D:/fchai/work/i-cube/I-CUBE-HUAWEI/Middlewares/Third_Party/Huawei/iot_link/os/liteos/base/ipc\los_queue.c ****     }
 1409              		.loc 1 218 16 view .LVU422
 1410              	.LBE135:
 1411              	.LBE139:
 1412              		.loc 1 455 1 view .LVU423
 1413 0038 05B0     		add	sp, sp, #20
 1414              	.LCFI30:
 1415              		.cfi_remember_state
 1416              		.cfi_def_cfa_offset 4
 1417              		@ sp needed
 1418 003a 5DF804FB 		ldr	pc, [sp], #4
 1419              	.LVL138:
 1420              	.L96:
 1421              	.LCFI31:
 1422              		.cfi_restore_state
 1423              	.LBB140:
ARM GAS  T:\msys\tmp\ccLNSFcc.s 			page 42


 1424              	.LBB136:
 213:D:/fchai/work/i-cube/I-CUBE-HUAWEI/Middlewares/Third_Party/Huawei/iot_link/os/liteos/base/ipc\los_queue.c ****     }
 1425              		.loc 1 213 16 view .LVU424
 1426 003e 0548     		ldr	r0, .L104+16
 1427              	.LVL139:
 213:D:/fchai/work/i-cube/I-CUBE-HUAWEI/Middlewares/Third_Party/Huawei/iot_link/os/liteos/base/ipc\los_queue.c ****     }
 1428              		.loc 1 213 16 view .LVU425
 1429 0040 ECE7     		b	.L92
 1430              	.L105:
 1431 0042 00BF     		.align	2
 1432              	.L104:
 1433 0044 00000000 		.word	g_vuwIntCount
 1434 0048 09060002 		.word	33555977
 1435 004c 0E060002 		.word	33555982
 1436 0050 13060002 		.word	33555987
 1437 0054 12060002 		.word	33555986
 1438              	.LBE136:
 1439              	.LBE140:
 1440              		.cfi_endproc
 1441              	.LFE141:
 1443              		.section	.text.LOS_QueueRead,"ax",%progbits
 1444              		.align	1
 1445              		.p2align 2,,3
 1446              		.global	LOS_QueueRead
 1447              		.syntax unified
 1448              		.thumb
 1449              		.thumb_func
 1450              		.fpu fpv4-sp-d16
 1452              	LOS_QueueRead:
 1453              	.LVL140:
 1454              	.LFB142:
 456:D:/fchai/work/i-cube/I-CUBE-HUAWEI/Middlewares/Third_Party/Huawei/iot_link/os/liteos/base/ipc\los_queue.c **** 
 457:D:/fchai/work/i-cube/I-CUBE-HUAWEI/Middlewares/Third_Party/Huawei/iot_link/os/liteos/base/ipc\los_queue.c **** /*****************************************************************************
 458:D:/fchai/work/i-cube/I-CUBE-HUAWEI/Middlewares/Third_Party/Huawei/iot_link/os/liteos/base/ipc\los_queue.c ****  Function    : LOS_QueueRead
 459:D:/fchai/work/i-cube/I-CUBE-HUAWEI/Middlewares/Third_Party/Huawei/iot_link/os/liteos/base/ipc\los_queue.c ****  Description : read queue
 460:D:/fchai/work/i-cube/I-CUBE-HUAWEI/Middlewares/Third_Party/Huawei/iot_link/os/liteos/base/ipc\los_queue.c ****  Input       : uwQueueID
 461:D:/fchai/work/i-cube/I-CUBE-HUAWEI/Middlewares/Third_Party/Huawei/iot_link/os/liteos/base/ipc\los_queue.c ****                uwBufferSize
 462:D:/fchai/work/i-cube/I-CUBE-HUAWEI/Middlewares/Third_Party/Huawei/iot_link/os/liteos/base/ipc\los_queue.c ****                uwTimeOut
 463:D:/fchai/work/i-cube/I-CUBE-HUAWEI/Middlewares/Third_Party/Huawei/iot_link/os/liteos/base/ipc\los_queue.c ****  Output      : pBufferAddr
 464:D:/fchai/work/i-cube/I-CUBE-HUAWEI/Middlewares/Third_Party/Huawei/iot_link/os/liteos/base/ipc\los_queue.c ****  Return      : LOS_OK on success or error code on failure
 465:D:/fchai/work/i-cube/I-CUBE-HUAWEI/Middlewares/Third_Party/Huawei/iot_link/os/liteos/base/ipc\los_queue.c ****  *****************************************************************************/
 466:D:/fchai/work/i-cube/I-CUBE-HUAWEI/Middlewares/Third_Party/Huawei/iot_link/os/liteos/base/ipc\los_queue.c **** LITE_OS_SEC_TEXT UINT32 LOS_QueueRead(UINT32  uwQueueID, VOID *pBufferAddr, UINT32 uwBufferSize, UI
 467:D:/fchai/work/i-cube/I-CUBE-HUAWEI/Middlewares/Third_Party/Huawei/iot_link/os/liteos/base/ipc\los_queue.c **** {
 1455              		.loc 1 467 1 is_stmt 1 view -0
 1456              		.cfi_startproc
 1457              		@ args = 0, pretend = 0, frame = 8
 1458              		@ frame_needed = 0, uses_anonymous_args = 0
 468:D:/fchai/work/i-cube/I-CUBE-HUAWEI/Middlewares/Third_Party/Huawei/iot_link/os/liteos/base/ipc\los_queue.c ****     UINT32 uwRet;
 1459              		.loc 1 468 5 view .LVU427
 469:D:/fchai/work/i-cube/I-CUBE-HUAWEI/Middlewares/Third_Party/Huawei/iot_link/os/liteos/base/ipc\los_queue.c ****     UINT32 uwOperateType;
 1460              		.loc 1 469 5 view .LVU428
 470:D:/fchai/work/i-cube/I-CUBE-HUAWEI/Middlewares/Third_Party/Huawei/iot_link/os/liteos/base/ipc\los_queue.c **** 
 471:D:/fchai/work/i-cube/I-CUBE-HUAWEI/Middlewares/Third_Party/Huawei/iot_link/os/liteos/base/ipc\los_queue.c ****     uwRet = osQueueReadParameterCheck(uwQueueID, pBufferAddr, &uwBufferSize, uwTimeOut);
 1461              		.loc 1 471 5 view .LVU429
 467:D:/fchai/work/i-cube/I-CUBE-HUAWEI/Middlewares/Third_Party/Huawei/iot_link/os/liteos/base/ipc\los_queue.c ****     UINT32 uwRet;
 1462              		.loc 1 467 1 is_stmt 0 view .LVU430
 1463 0000 00B5     		push	{lr}
ARM GAS  T:\msys\tmp\ccLNSFcc.s 			page 43


 1464              	.LCFI32:
 1465              		.cfi_def_cfa_offset 4
 1466              		.cfi_offset 14, -4
 1467 0002 85B0     		sub	sp, sp, #20
 1468              	.LCFI33:
 1469              		.cfi_def_cfa_offset 24
 1470              	.LVL141:
 1471              	.LBB145:
 1472              	.LBI145:
 177:D:/fchai/work/i-cube/I-CUBE-HUAWEI/Middlewares/Third_Party/Huawei/iot_link/os/liteos/base/ipc\los_queue.c **** {
 1473              		.loc 1 177 39 is_stmt 1 view .LVU431
 1474              	.LBB146:
 179:D:/fchai/work/i-cube/I-CUBE-HUAWEI/Middlewares/Third_Party/Huawei/iot_link/os/liteos/base/ipc\los_queue.c ****     {
 1475              		.loc 1 179 5 view .LVU432
 179:D:/fchai/work/i-cube/I-CUBE-HUAWEI/Middlewares/Third_Party/Huawei/iot_link/os/liteos/base/ipc\los_queue.c ****     {
 1476              		.loc 1 179 8 is_stmt 0 view .LVU433
 1477 0004 0928     		cmp	r0, #9
 1478              	.LBE146:
 1479              	.LBE145:
 467:D:/fchai/work/i-cube/I-CUBE-HUAWEI/Middlewares/Third_Party/Huawei/iot_link/os/liteos/base/ipc\los_queue.c ****     UINT32 uwRet;
 1480              		.loc 1 467 1 view .LVU434
 1481 0006 0392     		str	r2, [sp, #12]
 1482              	.LBB153:
 1483              	.LBB149:
 179:D:/fchai/work/i-cube/I-CUBE-HUAWEI/Middlewares/Third_Party/Huawei/iot_link/os/liteos/base/ipc\los_queue.c ****     {
 1484              		.loc 1 179 8 view .LVU435
 1485 0008 11D8     		bhi	.L109
 183:D:/fchai/work/i-cube/I-CUBE-HUAWEI/Middlewares/Third_Party/Huawei/iot_link/os/liteos/base/ipc\los_queue.c ****     {
 1486              		.loc 1 183 5 is_stmt 1 view .LVU436
 183:D:/fchai/work/i-cube/I-CUBE-HUAWEI/Middlewares/Third_Party/Huawei/iot_link/os/liteos/base/ipc\los_queue.c ****     {
 1487              		.loc 1 183 8 is_stmt 0 view .LVU437
 1488 000a C1B1     		cbz	r1, .L110
 188:D:/fchai/work/i-cube/I-CUBE-HUAWEI/Middlewares/Third_Party/Huawei/iot_link/os/liteos/base/ipc\los_queue.c ****     {
 1489              		.loc 1 188 5 is_stmt 1 view .LVU438
 188:D:/fchai/work/i-cube/I-CUBE-HUAWEI/Middlewares/Third_Party/Huawei/iot_link/os/liteos/base/ipc\los_queue.c ****     {
 1490              		.loc 1 188 8 is_stmt 0 view .LVU439
 1491 000c 9AB1     		cbz	r2, .L111
 193:D:/fchai/work/i-cube/I-CUBE-HUAWEI/Middlewares/Third_Party/Huawei/iot_link/os/liteos/base/ipc\los_queue.c ****     {
 1492              		.loc 1 193 5 is_stmt 1 view .LVU440
 193:D:/fchai/work/i-cube/I-CUBE-HUAWEI/Middlewares/Third_Party/Huawei/iot_link/os/liteos/base/ipc\los_queue.c ****     {
 1493              		.loc 1 193 8 is_stmt 0 view .LVU441
 1494 000e 43B9     		cbnz	r3, .L117
 1495              	.LVL142:
 1496              	.L108:
 193:D:/fchai/work/i-cube/I-CUBE-HUAWEI/Middlewares/Third_Party/Huawei/iot_link/os/liteos/base/ipc\los_queue.c ****     {
 1497              		.loc 1 193 8 view .LVU442
 1498              	.LBE149:
 1499              	.LBE153:
 472:D:/fchai/work/i-cube/I-CUBE-HUAWEI/Middlewares/Third_Party/Huawei/iot_link/os/liteos/base/ipc\los_queue.c ****     if(uwRet != LOS_OK)
 473:D:/fchai/work/i-cube/I-CUBE-HUAWEI/Middlewares/Third_Party/Huawei/iot_link/os/liteos/base/ipc\los_queue.c ****     {
 474:D:/fchai/work/i-cube/I-CUBE-HUAWEI/Middlewares/Third_Party/Huawei/iot_link/os/liteos/base/ipc\los_queue.c ****         return uwRet;
 475:D:/fchai/work/i-cube/I-CUBE-HUAWEI/Middlewares/Third_Party/Huawei/iot_link/os/liteos/base/ipc\los_queue.c ****     }
 476:D:/fchai/work/i-cube/I-CUBE-HUAWEI/Middlewares/Third_Party/Huawei/iot_link/os/liteos/base/ipc\los_queue.c **** 
 477:D:/fchai/work/i-cube/I-CUBE-HUAWEI/Middlewares/Third_Party/Huawei/iot_link/os/liteos/base/ipc\los_queue.c ****     uwOperateType = OS_QUEUE_OPERATE_TYPE(OS_QUEUE_READ, OS_QUEUE_HEAD, OS_QUEUE_POINT);
 1500              		.loc 1 477 5 is_stmt 1 view .LVU443
 478:D:/fchai/work/i-cube/I-CUBE-HUAWEI/Middlewares/Third_Party/Huawei/iot_link/os/liteos/base/ipc\los_queue.c ****     return osQueueOperate(uwQueueID, uwOperateType, pBufferAddr, &uwBufferSize, uwTimeOut);
 1501              		.loc 1 478 5 view .LVU444
ARM GAS  T:\msys\tmp\ccLNSFcc.s 			page 44


 1502              		.loc 1 478 12 is_stmt 0 view .LVU445
 1503 0010 0093     		str	r3, [sp]
 1504 0012 0A46     		mov	r2, r1
 1505 0014 03AB     		add	r3, sp, #12
 1506              	.LVL143:
 1507              		.loc 1 478 12 view .LVU446
 1508 0016 0421     		movs	r1, #4
 1509              	.LVL144:
 1510              		.loc 1 478 12 view .LVU447
 1511 0018 FFF7FEFF 		bl	osQueueOperate
 1512              	.LVL145:
 1513              	.L106:
 479:D:/fchai/work/i-cube/I-CUBE-HUAWEI/Middlewares/Third_Party/Huawei/iot_link/os/liteos/base/ipc\los_queue.c **** }
 1514              		.loc 1 479 1 view .LVU448
 1515 001c 05B0     		add	sp, sp, #20
 1516              	.LCFI34:
 1517              		.cfi_remember_state
 1518              		.cfi_def_cfa_offset 4
 1519              		@ sp needed
 1520 001e 5DF804FB 		ldr	pc, [sp], #4
 1521              	.LVL146:
 1522              	.L117:
 1523              	.LCFI35:
 1524              		.cfi_restore_state
 1525              	.LBB154:
 1526              	.LBB150:
 1527              	.LBB147:
 1528              	.LBI147:
 177:D:/fchai/work/i-cube/I-CUBE-HUAWEI/Middlewares/Third_Party/Huawei/iot_link/os/liteos/base/ipc\los_queue.c **** {
 1529              		.loc 1 177 39 is_stmt 1 view .LVU449
 1530              	.LBB148:
 195:D:/fchai/work/i-cube/I-CUBE-HUAWEI/Middlewares/Third_Party/Huawei/iot_link/os/liteos/base/ipc\los_queue.c ****         {
 1531              		.loc 1 195 9 view .LVU450
 195:D:/fchai/work/i-cube/I-CUBE-HUAWEI/Middlewares/Third_Party/Huawei/iot_link/os/liteos/base/ipc\los_queue.c ****         {
 1532              		.loc 1 195 13 is_stmt 0 view .LVU451
 1533 0022 084A     		ldr	r2, .L118
 1534              	.LVL147:
 195:D:/fchai/work/i-cube/I-CUBE-HUAWEI/Middlewares/Third_Party/Huawei/iot_link/os/liteos/base/ipc\los_queue.c ****         {
 1535              		.loc 1 195 12 view .LVU452
 1536 0024 1268     		ldr	r2, [r2]
 1537 0026 002A     		cmp	r2, #0
 1538 0028 F2D0     		beq	.L108
 197:D:/fchai/work/i-cube/I-CUBE-HUAWEI/Middlewares/Third_Party/Huawei/iot_link/os/liteos/base/ipc\los_queue.c ****         }
 1539              		.loc 1 197 20 view .LVU453
 1540 002a 0748     		ldr	r0, .L118+4
 1541              	.LVL148:
 197:D:/fchai/work/i-cube/I-CUBE-HUAWEI/Middlewares/Third_Party/Huawei/iot_link/os/liteos/base/ipc\los_queue.c ****         }
 1542              		.loc 1 197 20 view .LVU454
 1543 002c F6E7     		b	.L106
 1544              	.LVL149:
 1545              	.L109:
 197:D:/fchai/work/i-cube/I-CUBE-HUAWEI/Middlewares/Third_Party/Huawei/iot_link/os/liteos/base/ipc\los_queue.c ****         }
 1546              		.loc 1 197 20 view .LVU455
 1547              	.LBE148:
 1548              	.LBE147:
 181:D:/fchai/work/i-cube/I-CUBE-HUAWEI/Middlewares/Third_Party/Huawei/iot_link/os/liteos/base/ipc\los_queue.c ****     }
 1549              		.loc 1 181 16 view .LVU456
ARM GAS  T:\msys\tmp\ccLNSFcc.s 			page 45


 1550 002e 0748     		ldr	r0, .L118+8
 1551              	.LVL150:
 181:D:/fchai/work/i-cube/I-CUBE-HUAWEI/Middlewares/Third_Party/Huawei/iot_link/os/liteos/base/ipc\los_queue.c ****     }
 1552              		.loc 1 181 16 view .LVU457
 1553              	.LBE150:
 1554              	.LBE154:
 1555              		.loc 1 479 1 view .LVU458
 1556 0030 05B0     		add	sp, sp, #20
 1557              	.LCFI36:
 1558              		.cfi_remember_state
 1559              		.cfi_def_cfa_offset 4
 1560              		@ sp needed
 1561 0032 5DF804FB 		ldr	pc, [sp], #4
 1562              	.LVL151:
 1563              	.L111:
 1564              	.LCFI37:
 1565              		.cfi_restore_state
 1566              	.LBB155:
 1567              	.LBB151:
 190:D:/fchai/work/i-cube/I-CUBE-HUAWEI/Middlewares/Third_Party/Huawei/iot_link/os/liteos/base/ipc\los_queue.c ****     }
 1568              		.loc 1 190 16 view .LVU459
 1569 0036 0648     		ldr	r0, .L118+12
 1570              	.LVL152:
 190:D:/fchai/work/i-cube/I-CUBE-HUAWEI/Middlewares/Third_Party/Huawei/iot_link/os/liteos/base/ipc\los_queue.c ****     }
 1571              		.loc 1 190 16 view .LVU460
 1572              	.LBE151:
 1573              	.LBE155:
 1574              		.loc 1 479 1 view .LVU461
 1575 0038 05B0     		add	sp, sp, #20
 1576              	.LCFI38:
 1577              		.cfi_remember_state
 1578              		.cfi_def_cfa_offset 4
 1579              		@ sp needed
 1580 003a 5DF804FB 		ldr	pc, [sp], #4
 1581              	.LVL153:
 1582              	.L110:
 1583              	.LCFI39:
 1584              		.cfi_restore_state
 1585              	.LBB156:
 1586              	.LBB152:
 185:D:/fchai/work/i-cube/I-CUBE-HUAWEI/Middlewares/Third_Party/Huawei/iot_link/os/liteos/base/ipc\los_queue.c ****     }
 1587              		.loc 1 185 16 view .LVU462
 1588 003e 0548     		ldr	r0, .L118+16
 1589              	.LVL154:
 185:D:/fchai/work/i-cube/I-CUBE-HUAWEI/Middlewares/Third_Party/Huawei/iot_link/os/liteos/base/ipc\los_queue.c ****     }
 1590              		.loc 1 185 16 view .LVU463
 1591 0040 ECE7     		b	.L106
 1592              	.L119:
 1593 0042 00BF     		.align	2
 1594              	.L118:
 1595 0044 00000000 		.word	g_vuwIntCount
 1596 0048 18060002 		.word	33555992
 1597 004c 0E060002 		.word	33555982
 1598 0050 10060002 		.word	33555984
 1599 0054 0F060002 		.word	33555983
 1600              	.LBE152:
 1601              	.LBE156:
ARM GAS  T:\msys\tmp\ccLNSFcc.s 			page 46


 1602              		.cfi_endproc
 1603              	.LFE142:
 1605              		.section	.text.LOS_QueueWrite,"ax",%progbits
 1606              		.align	1
 1607              		.p2align 2,,3
 1608              		.global	LOS_QueueWrite
 1609              		.syntax unified
 1610              		.thumb
 1611              		.thumb_func
 1612              		.fpu fpv4-sp-d16
 1614              	LOS_QueueWrite:
 1615              	.LVL155:
 1616              	.LFB143:
 480:D:/fchai/work/i-cube/I-CUBE-HUAWEI/Middlewares/Third_Party/Huawei/iot_link/os/liteos/base/ipc\los_queue.c **** 
 481:D:/fchai/work/i-cube/I-CUBE-HUAWEI/Middlewares/Third_Party/Huawei/iot_link/os/liteos/base/ipc\los_queue.c **** /*****************************************************************************
 482:D:/fchai/work/i-cube/I-CUBE-HUAWEI/Middlewares/Third_Party/Huawei/iot_link/os/liteos/base/ipc\los_queue.c ****  Function    : LOS_QueueWrite
 483:D:/fchai/work/i-cube/I-CUBE-HUAWEI/Middlewares/Third_Party/Huawei/iot_link/os/liteos/base/ipc\los_queue.c ****  Description : Write queue tail
 484:D:/fchai/work/i-cube/I-CUBE-HUAWEI/Middlewares/Third_Party/Huawei/iot_link/os/liteos/base/ipc\los_queue.c ****  Input       : uwQueueID
 485:D:/fchai/work/i-cube/I-CUBE-HUAWEI/Middlewares/Third_Party/Huawei/iot_link/os/liteos/base/ipc\los_queue.c ****                pBufferAddr
 486:D:/fchai/work/i-cube/I-CUBE-HUAWEI/Middlewares/Third_Party/Huawei/iot_link/os/liteos/base/ipc\los_queue.c ****                uwBufferSize
 487:D:/fchai/work/i-cube/I-CUBE-HUAWEI/Middlewares/Third_Party/Huawei/iot_link/os/liteos/base/ipc\los_queue.c ****                uwTimeOut
 488:D:/fchai/work/i-cube/I-CUBE-HUAWEI/Middlewares/Third_Party/Huawei/iot_link/os/liteos/base/ipc\los_queue.c ****  Output      : None
 489:D:/fchai/work/i-cube/I-CUBE-HUAWEI/Middlewares/Third_Party/Huawei/iot_link/os/liteos/base/ipc\los_queue.c ****  Return      : LOS_OK on success or error code on failure
 490:D:/fchai/work/i-cube/I-CUBE-HUAWEI/Middlewares/Third_Party/Huawei/iot_link/os/liteos/base/ipc\los_queue.c ****  *****************************************************************************/
 491:D:/fchai/work/i-cube/I-CUBE-HUAWEI/Middlewares/Third_Party/Huawei/iot_link/os/liteos/base/ipc\los_queue.c **** LITE_OS_SEC_TEXT UINT32 LOS_QueueWrite(UINT32 uwQueueID, VOID *pBufferAddr, UINT32 uwBufferSize, UI
 492:D:/fchai/work/i-cube/I-CUBE-HUAWEI/Middlewares/Third_Party/Huawei/iot_link/os/liteos/base/ipc\los_queue.c **** {
 1617              		.loc 1 492 1 is_stmt 1 view -0
 1618              		.cfi_startproc
 1619              		@ args = 0, pretend = 0, frame = 8
 1620              		@ frame_needed = 0, uses_anonymous_args = 0
 493:D:/fchai/work/i-cube/I-CUBE-HUAWEI/Middlewares/Third_Party/Huawei/iot_link/os/liteos/base/ipc\los_queue.c ****     UINT32 uwRet;
 1621              		.loc 1 493 5 view .LVU465
 494:D:/fchai/work/i-cube/I-CUBE-HUAWEI/Middlewares/Third_Party/Huawei/iot_link/os/liteos/base/ipc\los_queue.c ****     UINT32 uwOperateType;
 1622              		.loc 1 494 5 view .LVU466
 495:D:/fchai/work/i-cube/I-CUBE-HUAWEI/Middlewares/Third_Party/Huawei/iot_link/os/liteos/base/ipc\los_queue.c **** 
 496:D:/fchai/work/i-cube/I-CUBE-HUAWEI/Middlewares/Third_Party/Huawei/iot_link/os/liteos/base/ipc\los_queue.c ****     uwBufferSize = sizeof(UINT32*);
 1623              		.loc 1 496 5 view .LVU467
 492:D:/fchai/work/i-cube/I-CUBE-HUAWEI/Middlewares/Third_Party/Huawei/iot_link/os/liteos/base/ipc\los_queue.c ****     UINT32 uwRet;
 1624              		.loc 1 492 1 is_stmt 0 view .LVU468
 1625 0000 00B5     		push	{lr}
 1626              	.LCFI40:
 1627              		.cfi_def_cfa_offset 4
 1628              		.cfi_offset 14, -4
 1629              		.loc 1 496 18 view .LVU469
 1630 0002 0422     		movs	r2, #4
 1631              	.LVL156:
 492:D:/fchai/work/i-cube/I-CUBE-HUAWEI/Middlewares/Third_Party/Huawei/iot_link/os/liteos/base/ipc\los_queue.c ****     UINT32 uwRet;
 1632              		.loc 1 492 1 view .LVU470
 1633 0004 85B0     		sub	sp, sp, #20
 1634              	.LCFI41:
 1635              		.cfi_def_cfa_offset 24
 1636              	.LBB161:
 1637              	.LBB162:
 206:D:/fchai/work/i-cube/I-CUBE-HUAWEI/Middlewares/Third_Party/Huawei/iot_link/os/liteos/base/ipc\los_queue.c ****     {
 1638              		.loc 1 206 8 view .LVU471
 1639 0006 0928     		cmp	r0, #9
 1640              	.LBE162:
ARM GAS  T:\msys\tmp\ccLNSFcc.s 			page 47


 1641              	.LBE161:
 1642              		.loc 1 496 18 view .LVU472
 1643 0008 CDE90221 		strd	r2, r1, [sp, #8]
 497:D:/fchai/work/i-cube/I-CUBE-HUAWEI/Middlewares/Third_Party/Huawei/iot_link/os/liteos/base/ipc\los_queue.c **** 
 498:D:/fchai/work/i-cube/I-CUBE-HUAWEI/Middlewares/Third_Party/Huawei/iot_link/os/liteos/base/ipc\los_queue.c ****     uwRet = osQueueWriteParameterCheck(uwQueueID, pBufferAddr, &uwBufferSize, uwTimeOut);
 1644              		.loc 1 498 5 is_stmt 1 view .LVU473
 1645              	.LVL157:
 1646              	.LBB168:
 1647              	.LBI161:
 204:D:/fchai/work/i-cube/I-CUBE-HUAWEI/Middlewares/Third_Party/Huawei/iot_link/os/liteos/base/ipc\los_queue.c **** {
 1648              		.loc 1 204 39 view .LVU474
 1649              	.LBB165:
 206:D:/fchai/work/i-cube/I-CUBE-HUAWEI/Middlewares/Third_Party/Huawei/iot_link/os/liteos/base/ipc\los_queue.c ****     {
 1650              		.loc 1 206 5 view .LVU475
 206:D:/fchai/work/i-cube/I-CUBE-HUAWEI/Middlewares/Third_Party/Huawei/iot_link/os/liteos/base/ipc\los_queue.c ****     {
 1651              		.loc 1 206 8 is_stmt 0 view .LVU476
 1652 000c 10D8     		bhi	.L123
 211:D:/fchai/work/i-cube/I-CUBE-HUAWEI/Middlewares/Third_Party/Huawei/iot_link/os/liteos/base/ipc\los_queue.c ****     {
 1653              		.loc 1 211 5 is_stmt 1 view .LVU477
 211:D:/fchai/work/i-cube/I-CUBE-HUAWEI/Middlewares/Third_Party/Huawei/iot_link/os/liteos/base/ipc\los_queue.c ****     {
 1654              		.loc 1 211 8 is_stmt 0 view .LVU478
 1655 000e 99B1     		cbz	r1, .L124
 216:D:/fchai/work/i-cube/I-CUBE-HUAWEI/Middlewares/Third_Party/Huawei/iot_link/os/liteos/base/ipc\los_queue.c ****     {
 1656              		.loc 1 216 5 is_stmt 1 view .LVU479
 221:D:/fchai/work/i-cube/I-CUBE-HUAWEI/Middlewares/Third_Party/Huawei/iot_link/os/liteos/base/ipc\los_queue.c ****     {
 1657              		.loc 1 221 5 view .LVU480
 221:D:/fchai/work/i-cube/I-CUBE-HUAWEI/Middlewares/Third_Party/Huawei/iot_link/os/liteos/base/ipc\los_queue.c ****     {
 1658              		.loc 1 221 8 is_stmt 0 view .LVU481
 1659 0010 43B9     		cbnz	r3, .L130
 1660              	.L122:
 1661              	.LVL158:
 221:D:/fchai/work/i-cube/I-CUBE-HUAWEI/Middlewares/Third_Party/Huawei/iot_link/os/liteos/base/ipc\los_queue.c ****     {
 1662              		.loc 1 221 8 view .LVU482
 1663              	.LBE165:
 1664              	.LBE168:
 499:D:/fchai/work/i-cube/I-CUBE-HUAWEI/Middlewares/Third_Party/Huawei/iot_link/os/liteos/base/ipc\los_queue.c ****     if(uwRet != LOS_OK)
 500:D:/fchai/work/i-cube/I-CUBE-HUAWEI/Middlewares/Third_Party/Huawei/iot_link/os/liteos/base/ipc\los_queue.c ****     {
 501:D:/fchai/work/i-cube/I-CUBE-HUAWEI/Middlewares/Third_Party/Huawei/iot_link/os/liteos/base/ipc\los_queue.c ****         return uwRet;
 502:D:/fchai/work/i-cube/I-CUBE-HUAWEI/Middlewares/Third_Party/Huawei/iot_link/os/liteos/base/ipc\los_queue.c ****     }
 503:D:/fchai/work/i-cube/I-CUBE-HUAWEI/Middlewares/Third_Party/Huawei/iot_link/os/liteos/base/ipc\los_queue.c **** 
 504:D:/fchai/work/i-cube/I-CUBE-HUAWEI/Middlewares/Third_Party/Huawei/iot_link/os/liteos/base/ipc\los_queue.c ****     uwOperateType = OS_QUEUE_OPERATE_TYPE(OS_QUEUE_WRITE, OS_QUEUE_TAIL, OS_QUEUE_POINT);
 1665              		.loc 1 504 5 is_stmt 1 view .LVU483
 505:D:/fchai/work/i-cube/I-CUBE-HUAWEI/Middlewares/Third_Party/Huawei/iot_link/os/liteos/base/ipc\los_queue.c ****     return osQueueOperate(uwQueueID, uwOperateType, &pBufferAddr, &uwBufferSize, uwTimeOut);
 1666              		.loc 1 505 5 view .LVU484
 1667              		.loc 1 505 12 is_stmt 0 view .LVU485
 1668 0012 0093     		str	r3, [sp]
 1669 0014 03AA     		add	r2, sp, #12
 1670 0016 02AB     		add	r3, sp, #8
 1671              	.LVL159:
 1672              		.loc 1 505 12 view .LVU486
 1673 0018 0721     		movs	r1, #7
 1674              	.LVL160:
 1675              		.loc 1 505 12 view .LVU487
 1676 001a FFF7FEFF 		bl	osQueueOperate
 1677              	.LVL161:
 1678              	.L120:
 506:D:/fchai/work/i-cube/I-CUBE-HUAWEI/Middlewares/Third_Party/Huawei/iot_link/os/liteos/base/ipc\los_queue.c **** }
ARM GAS  T:\msys\tmp\ccLNSFcc.s 			page 48


 1679              		.loc 1 506 1 view .LVU488
 1680 001e 05B0     		add	sp, sp, #20
 1681              	.LCFI42:
 1682              		.cfi_remember_state
 1683              		.cfi_def_cfa_offset 4
 1684              		@ sp needed
 1685 0020 5DF804FB 		ldr	pc, [sp], #4
 1686              	.LVL162:
 1687              	.L130:
 1688              	.LCFI43:
 1689              		.cfi_restore_state
 1690              	.LBB169:
 1691              	.LBB166:
 1692              	.LBB163:
 1693              	.LBI163:
 204:D:/fchai/work/i-cube/I-CUBE-HUAWEI/Middlewares/Third_Party/Huawei/iot_link/os/liteos/base/ipc\los_queue.c **** {
 1694              		.loc 1 204 39 is_stmt 1 view .LVU489
 1695              	.LBB164:
 223:D:/fchai/work/i-cube/I-CUBE-HUAWEI/Middlewares/Third_Party/Huawei/iot_link/os/liteos/base/ipc\los_queue.c ****         {
 1696              		.loc 1 223 9 view .LVU490
 223:D:/fchai/work/i-cube/I-CUBE-HUAWEI/Middlewares/Third_Party/Huawei/iot_link/os/liteos/base/ipc\los_queue.c ****         {
 1697              		.loc 1 223 13 is_stmt 0 view .LVU491
 1698 0024 054A     		ldr	r2, .L131
 223:D:/fchai/work/i-cube/I-CUBE-HUAWEI/Middlewares/Third_Party/Huawei/iot_link/os/liteos/base/ipc\los_queue.c ****         {
 1699              		.loc 1 223 12 view .LVU492
 1700 0026 1268     		ldr	r2, [r2]
 1701 0028 002A     		cmp	r2, #0
 1702 002a F2D0     		beq	.L122
 225:D:/fchai/work/i-cube/I-CUBE-HUAWEI/Middlewares/Third_Party/Huawei/iot_link/os/liteos/base/ipc\los_queue.c ****         }
 1703              		.loc 1 225 20 view .LVU493
 1704 002c 0448     		ldr	r0, .L131+4
 1705              	.LVL163:
 225:D:/fchai/work/i-cube/I-CUBE-HUAWEI/Middlewares/Third_Party/Huawei/iot_link/os/liteos/base/ipc\los_queue.c ****         }
 1706              		.loc 1 225 20 view .LVU494
 1707 002e F6E7     		b	.L120
 1708              	.LVL164:
 1709              	.L123:
 225:D:/fchai/work/i-cube/I-CUBE-HUAWEI/Middlewares/Third_Party/Huawei/iot_link/os/liteos/base/ipc\los_queue.c ****         }
 1710              		.loc 1 225 20 view .LVU495
 1711              	.LBE164:
 1712              	.LBE163:
 208:D:/fchai/work/i-cube/I-CUBE-HUAWEI/Middlewares/Third_Party/Huawei/iot_link/os/liteos/base/ipc\los_queue.c ****     }
 1713              		.loc 1 208 16 view .LVU496
 1714 0030 0448     		ldr	r0, .L131+8
 1715              	.LVL165:
 208:D:/fchai/work/i-cube/I-CUBE-HUAWEI/Middlewares/Third_Party/Huawei/iot_link/os/liteos/base/ipc\los_queue.c ****     }
 1716              		.loc 1 208 16 view .LVU497
 1717              	.LBE166:
 1718              	.LBE169:
 1719              		.loc 1 506 1 view .LVU498
 1720 0032 05B0     		add	sp, sp, #20
 1721              	.LCFI44:
 1722              		.cfi_remember_state
 1723              		.cfi_def_cfa_offset 4
 1724              		@ sp needed
 1725 0034 5DF804FB 		ldr	pc, [sp], #4
 1726              	.LVL166:
ARM GAS  T:\msys\tmp\ccLNSFcc.s 			page 49


 1727              	.L124:
 1728              	.LCFI45:
 1729              		.cfi_restore_state
 1730              	.LBB170:
 1731              	.LBB167:
 213:D:/fchai/work/i-cube/I-CUBE-HUAWEI/Middlewares/Third_Party/Huawei/iot_link/os/liteos/base/ipc\los_queue.c ****     }
 1732              		.loc 1 213 16 view .LVU499
 1733 0038 0348     		ldr	r0, .L131+12
 1734              	.LVL167:
 213:D:/fchai/work/i-cube/I-CUBE-HUAWEI/Middlewares/Third_Party/Huawei/iot_link/os/liteos/base/ipc\los_queue.c ****     }
 1735              		.loc 1 213 16 view .LVU500
 1736 003a F0E7     		b	.L120
 1737              	.L132:
 1738              		.align	2
 1739              	.L131:
 1740 003c 00000000 		.word	g_vuwIntCount
 1741 0040 09060002 		.word	33555977
 1742 0044 0E060002 		.word	33555982
 1743 0048 12060002 		.word	33555986
 1744              	.LBE167:
 1745              	.LBE170:
 1746              		.cfi_endproc
 1747              	.LFE143:
 1749              		.section	.text.LOS_QueueWriteHead,"ax",%progbits
 1750              		.align	1
 1751              		.p2align 2,,3
 1752              		.global	LOS_QueueWriteHead
 1753              		.syntax unified
 1754              		.thumb
 1755              		.thumb_func
 1756              		.fpu fpv4-sp-d16
 1758              	LOS_QueueWriteHead:
 1759              	.LVL168:
 1760              	.LFB144:
 507:D:/fchai/work/i-cube/I-CUBE-HUAWEI/Middlewares/Third_Party/Huawei/iot_link/os/liteos/base/ipc\los_queue.c **** 
 508:D:/fchai/work/i-cube/I-CUBE-HUAWEI/Middlewares/Third_Party/Huawei/iot_link/os/liteos/base/ipc\los_queue.c **** /*****************************************************************************
 509:D:/fchai/work/i-cube/I-CUBE-HUAWEI/Middlewares/Third_Party/Huawei/iot_link/os/liteos/base/ipc\los_queue.c ****  Function    : LOS_QueueWriteHead
 510:D:/fchai/work/i-cube/I-CUBE-HUAWEI/Middlewares/Third_Party/Huawei/iot_link/os/liteos/base/ipc\los_queue.c ****  Description : write queue head
 511:D:/fchai/work/i-cube/I-CUBE-HUAWEI/Middlewares/Third_Party/Huawei/iot_link/os/liteos/base/ipc\los_queue.c ****  Input       : uwQueueID
 512:D:/fchai/work/i-cube/I-CUBE-HUAWEI/Middlewares/Third_Party/Huawei/iot_link/os/liteos/base/ipc\los_queue.c ****                pBufferAddr
 513:D:/fchai/work/i-cube/I-CUBE-HUAWEI/Middlewares/Third_Party/Huawei/iot_link/os/liteos/base/ipc\los_queue.c ****                uwBufferSize
 514:D:/fchai/work/i-cube/I-CUBE-HUAWEI/Middlewares/Third_Party/Huawei/iot_link/os/liteos/base/ipc\los_queue.c ****                uwTimeOut
 515:D:/fchai/work/i-cube/I-CUBE-HUAWEI/Middlewares/Third_Party/Huawei/iot_link/os/liteos/base/ipc\los_queue.c ****  Output      : None
 516:D:/fchai/work/i-cube/I-CUBE-HUAWEI/Middlewares/Third_Party/Huawei/iot_link/os/liteos/base/ipc\los_queue.c ****  Return      : LOS_OK on success or error code on failure
 517:D:/fchai/work/i-cube/I-CUBE-HUAWEI/Middlewares/Third_Party/Huawei/iot_link/os/liteos/base/ipc\los_queue.c ****  *****************************************************************************/
 518:D:/fchai/work/i-cube/I-CUBE-HUAWEI/Middlewares/Third_Party/Huawei/iot_link/os/liteos/base/ipc\los_queue.c **** LITE_OS_SEC_TEXT UINT32 LOS_QueueWriteHead( UINT32 uwQueueID,
 519:D:/fchai/work/i-cube/I-CUBE-HUAWEI/Middlewares/Third_Party/Huawei/iot_link/os/liteos/base/ipc\los_queue.c ****                                      VOID * pBufferAddr,
 520:D:/fchai/work/i-cube/I-CUBE-HUAWEI/Middlewares/Third_Party/Huawei/iot_link/os/liteos/base/ipc\los_queue.c ****                                      UINT32 uwBufferSize,
 521:D:/fchai/work/i-cube/I-CUBE-HUAWEI/Middlewares/Third_Party/Huawei/iot_link/os/liteos/base/ipc\los_queue.c ****                                      UINT32 uwTimeOut )
 522:D:/fchai/work/i-cube/I-CUBE-HUAWEI/Middlewares/Third_Party/Huawei/iot_link/os/liteos/base/ipc\los_queue.c **** {
 1761              		.loc 1 522 1 is_stmt 1 view -0
 1762              		.cfi_startproc
 1763              		@ args = 0, pretend = 0, frame = 8
 1764              		@ frame_needed = 0, uses_anonymous_args = 0
 523:D:/fchai/work/i-cube/I-CUBE-HUAWEI/Middlewares/Third_Party/Huawei/iot_link/os/liteos/base/ipc\los_queue.c ****     if(pBufferAddr == NULL)
 1765              		.loc 1 523 5 view .LVU502
 522:D:/fchai/work/i-cube/I-CUBE-HUAWEI/Middlewares/Third_Party/Huawei/iot_link/os/liteos/base/ipc\los_queue.c ****     if(pBufferAddr == NULL)
ARM GAS  T:\msys\tmp\ccLNSFcc.s 			page 50


 1766              		.loc 1 522 1 is_stmt 0 view .LVU503
 1767 0000 00B5     		push	{lr}
 1768              	.LCFI46:
 1769              		.cfi_def_cfa_offset 4
 1770              		.cfi_offset 14, -4
 1771 0002 83B0     		sub	sp, sp, #12
 1772              	.LCFI47:
 1773              		.cfi_def_cfa_offset 16
 522:D:/fchai/work/i-cube/I-CUBE-HUAWEI/Middlewares/Third_Party/Huawei/iot_link/os/liteos/base/ipc\los_queue.c ****     if(pBufferAddr == NULL)
 1774              		.loc 1 522 1 view .LVU504
 1775 0004 0191     		str	r1, [sp, #4]
 1776              		.loc 1 523 7 view .LVU505
 1777 0006 39B1     		cbz	r1, .L135
 524:D:/fchai/work/i-cube/I-CUBE-HUAWEI/Middlewares/Third_Party/Huawei/iot_link/os/liteos/base/ipc\los_queue.c ****     {
 525:D:/fchai/work/i-cube/I-CUBE-HUAWEI/Middlewares/Third_Party/Huawei/iot_link/os/liteos/base/ipc\los_queue.c ****         return LOS_ERRNO_QUEUE_WRITE_PTR_NULL;
 526:D:/fchai/work/i-cube/I-CUBE-HUAWEI/Middlewares/Third_Party/Huawei/iot_link/os/liteos/base/ipc\los_queue.c ****     }
 527:D:/fchai/work/i-cube/I-CUBE-HUAWEI/Middlewares/Third_Party/Huawei/iot_link/os/liteos/base/ipc\los_queue.c ****     uwBufferSize = sizeof(UINT32*);
 1778              		.loc 1 527 5 is_stmt 1 view .LVU506
 1779              	.LVL169:
 528:D:/fchai/work/i-cube/I-CUBE-HUAWEI/Middlewares/Third_Party/Huawei/iot_link/os/liteos/base/ipc\los_queue.c ****     return LOS_QueueWriteHeadCopy(uwQueueID, &pBufferAddr, uwBufferSize, uwTimeOut);
 1780              		.loc 1 528 5 view .LVU507
 1781              		.loc 1 528 12 is_stmt 0 view .LVU508
 1782 0008 0422     		movs	r2, #4
 1783 000a 0DEB0201 		add	r1, sp, r2
 1784              	.LVL170:
 1785              		.loc 1 528 12 view .LVU509
 1786 000e FFF7FEFF 		bl	LOS_QueueWriteHeadCopy
 1787              	.LVL171:
 529:D:/fchai/work/i-cube/I-CUBE-HUAWEI/Middlewares/Third_Party/Huawei/iot_link/os/liteos/base/ipc\los_queue.c **** }
 1788              		.loc 1 529 1 view .LVU510
 1789 0012 03B0     		add	sp, sp, #12
 1790              	.LCFI48:
 1791              		.cfi_remember_state
 1792              		.cfi_def_cfa_offset 4
 1793              		@ sp needed
 1794 0014 5DF804FB 		ldr	pc, [sp], #4
 1795              	.LVL172:
 1796              	.L135:
 1797              	.LCFI49:
 1798              		.cfi_restore_state
 525:D:/fchai/work/i-cube/I-CUBE-HUAWEI/Middlewares/Third_Party/Huawei/iot_link/os/liteos/base/ipc\los_queue.c ****     }
 1799              		.loc 1 525 16 view .LVU511
 1800 0018 0148     		ldr	r0, .L137
 1801              	.LVL173:
 1802              		.loc 1 529 1 view .LVU512
 1803 001a 03B0     		add	sp, sp, #12
 1804              	.LCFI50:
 1805              		.cfi_def_cfa_offset 4
 1806              		@ sp needed
 1807 001c 5DF804FB 		ldr	pc, [sp], #4
 1808              	.L138:
 1809              		.align	2
 1810              	.L137:
 1811 0020 12060002 		.word	33555986
 1812              		.cfi_endproc
 1813              	.LFE144:
 1815              		.section	.text.osQueueMailAlloc,"ax",%progbits
ARM GAS  T:\msys\tmp\ccLNSFcc.s 			page 51


 1816              		.align	1
 1817              		.p2align 2,,3
 1818              		.global	osQueueMailAlloc
 1819              		.syntax unified
 1820              		.thumb
 1821              		.thumb_func
 1822              		.fpu fpv4-sp-d16
 1824              	osQueueMailAlloc:
 1825              	.LVL174:
 1826              	.LFB145:
 530:D:/fchai/work/i-cube/I-CUBE-HUAWEI/Middlewares/Third_Party/Huawei/iot_link/os/liteos/base/ipc\los_queue.c **** 
 531:D:/fchai/work/i-cube/I-CUBE-HUAWEI/Middlewares/Third_Party/Huawei/iot_link/os/liteos/base/ipc\los_queue.c **** /*****************************************************************************
 532:D:/fchai/work/i-cube/I-CUBE-HUAWEI/Middlewares/Third_Party/Huawei/iot_link/os/liteos/base/ipc\los_queue.c ****  Function    : osQueueMailAlloc
 533:D:/fchai/work/i-cube/I-CUBE-HUAWEI/Middlewares/Third_Party/Huawei/iot_link/os/liteos/base/ipc\los_queue.c ****  Description : Mail allocate memory
 534:D:/fchai/work/i-cube/I-CUBE-HUAWEI/Middlewares/Third_Party/Huawei/iot_link/os/liteos/base/ipc\los_queue.c ****  Input       : uwQueueID   --- QueueID
 535:D:/fchai/work/i-cube/I-CUBE-HUAWEI/Middlewares/Third_Party/Huawei/iot_link/os/liteos/base/ipc\los_queue.c ****              : pMailPool   --- MailPool
 536:D:/fchai/work/i-cube/I-CUBE-HUAWEI/Middlewares/Third_Party/Huawei/iot_link/os/liteos/base/ipc\los_queue.c ****              : uwTimeOut   --- TimeOut
 537:D:/fchai/work/i-cube/I-CUBE-HUAWEI/Middlewares/Third_Party/Huawei/iot_link/os/liteos/base/ipc\los_queue.c ****  Output      : None
 538:D:/fchai/work/i-cube/I-CUBE-HUAWEI/Middlewares/Third_Party/Huawei/iot_link/os/liteos/base/ipc\los_queue.c ****  Return      : pointer if success otherwise NULL
 539:D:/fchai/work/i-cube/I-CUBE-HUAWEI/Middlewares/Third_Party/Huawei/iot_link/os/liteos/base/ipc\los_queue.c ****  *****************************************************************************/
 540:D:/fchai/work/i-cube/I-CUBE-HUAWEI/Middlewares/Third_Party/Huawei/iot_link/os/liteos/base/ipc\los_queue.c **** LITE_OS_SEC_TEXT VOID *osQueueMailAlloc(UINT32  uwQueueID, VOID* pMailPool, UINT32 uwTimeOut)
 541:D:/fchai/work/i-cube/I-CUBE-HUAWEI/Middlewares/Third_Party/Huawei/iot_link/os/liteos/base/ipc\los_queue.c **** {
 1827              		.loc 1 541 1 is_stmt 1 view -0
 1828              		.cfi_startproc
 1829              		@ args = 0, pretend = 0, frame = 0
 1830              		@ frame_needed = 0, uses_anonymous_args = 0
 542:D:/fchai/work/i-cube/I-CUBE-HUAWEI/Middlewares/Third_Party/Huawei/iot_link/os/liteos/base/ipc\los_queue.c ****     VOID *pMem = (VOID *)NULL;
 1831              		.loc 1 542 5 view .LVU514
 543:D:/fchai/work/i-cube/I-CUBE-HUAWEI/Middlewares/Third_Party/Huawei/iot_link/os/liteos/base/ipc\los_queue.c ****     UINTPTR uvIntSave;
 1832              		.loc 1 543 5 view .LVU515
 544:D:/fchai/work/i-cube/I-CUBE-HUAWEI/Middlewares/Third_Party/Huawei/iot_link/os/liteos/base/ipc\los_queue.c ****     QUEUE_CB_S *pstQueueCB = (QUEUE_CB_S *)NULL;
 1833              		.loc 1 544 5 view .LVU516
 545:D:/fchai/work/i-cube/I-CUBE-HUAWEI/Middlewares/Third_Party/Huawei/iot_link/os/liteos/base/ipc\los_queue.c ****     LOS_TASK_CB *pstRunTsk = (LOS_TASK_CB *)NULL;
 1834              		.loc 1 545 5 view .LVU517
 546:D:/fchai/work/i-cube/I-CUBE-HUAWEI/Middlewares/Third_Party/Huawei/iot_link/os/liteos/base/ipc\los_queue.c **** 
 547:D:/fchai/work/i-cube/I-CUBE-HUAWEI/Middlewares/Third_Party/Huawei/iot_link/os/liteos/base/ipc\los_queue.c ****     if (uwQueueID >= LOSCFG_BASE_IPC_QUEUE_LIMIT)
 1835              		.loc 1 547 5 view .LVU518
 1836              		.loc 1 547 8 is_stmt 0 view .LVU519
 1837 0000 0928     		cmp	r0, #9
 541:D:/fchai/work/i-cube/I-CUBE-HUAWEI/Middlewares/Third_Party/Huawei/iot_link/os/liteos/base/ipc\los_queue.c ****     VOID *pMem = (VOID *)NULL;
 1838              		.loc 1 541 1 view .LVU520
 1839 0002 2DE9F041 		push	{r4, r5, r6, r7, r8, lr}
 1840              	.LCFI51:
 1841              		.cfi_def_cfa_offset 24
 1842              		.cfi_offset 4, -24
 1843              		.cfi_offset 5, -20
 1844              		.cfi_offset 6, -16
 1845              		.cfi_offset 7, -12
 1846              		.cfi_offset 8, -8
 1847              		.cfi_offset 14, -4
 1848              		.loc 1 547 8 view .LVU521
 1849 0006 3DD8     		bhi	.L146
 548:D:/fchai/work/i-cube/I-CUBE-HUAWEI/Middlewares/Third_Party/Huawei/iot_link/os/liteos/base/ipc\los_queue.c ****     {
 549:D:/fchai/work/i-cube/I-CUBE-HUAWEI/Middlewares/Third_Party/Huawei/iot_link/os/liteos/base/ipc\los_queue.c ****         return NULL;
 550:D:/fchai/work/i-cube/I-CUBE-HUAWEI/Middlewares/Third_Party/Huawei/iot_link/os/liteos/base/ipc\los_queue.c ****     }
 551:D:/fchai/work/i-cube/I-CUBE-HUAWEI/Middlewares/Third_Party/Huawei/iot_link/os/liteos/base/ipc\los_queue.c **** 
 552:D:/fchai/work/i-cube/I-CUBE-HUAWEI/Middlewares/Third_Party/Huawei/iot_link/os/liteos/base/ipc\los_queue.c ****     if (pMailPool == NULL)
ARM GAS  T:\msys\tmp\ccLNSFcc.s 			page 52


 1850              		.loc 1 552 5 is_stmt 1 view .LVU522
 1851 0008 0E46     		mov	r6, r1
 1852              		.loc 1 552 8 is_stmt 0 view .LVU523
 1853 000a 0029     		cmp	r1, #0
 1854 000c 3AD0     		beq	.L146
 553:D:/fchai/work/i-cube/I-CUBE-HUAWEI/Middlewares/Third_Party/Huawei/iot_link/os/liteos/base/ipc\los_queue.c ****     {
 554:D:/fchai/work/i-cube/I-CUBE-HUAWEI/Middlewares/Third_Party/Huawei/iot_link/os/liteos/base/ipc\los_queue.c ****         return NULL;
 555:D:/fchai/work/i-cube/I-CUBE-HUAWEI/Middlewares/Third_Party/Huawei/iot_link/os/liteos/base/ipc\los_queue.c ****     }
 556:D:/fchai/work/i-cube/I-CUBE-HUAWEI/Middlewares/Third_Party/Huawei/iot_link/os/liteos/base/ipc\los_queue.c **** 
 557:D:/fchai/work/i-cube/I-CUBE-HUAWEI/Middlewares/Third_Party/Huawei/iot_link/os/liteos/base/ipc\los_queue.c ****     if (LOS_NO_WAIT != uwTimeOut)
 1855              		.loc 1 557 5 is_stmt 1 view .LVU524
 1856 000e 0446     		mov	r4, r0
 1857 0010 1746     		mov	r7, r2
 1858              		.loc 1 557 8 is_stmt 0 view .LVU525
 1859 0012 1AB1     		cbz	r2, .L141
 558:D:/fchai/work/i-cube/I-CUBE-HUAWEI/Middlewares/Third_Party/Huawei/iot_link/os/liteos/base/ipc\los_queue.c ****     {
 559:D:/fchai/work/i-cube/I-CUBE-HUAWEI/Middlewares/Third_Party/Huawei/iot_link/os/liteos/base/ipc\los_queue.c ****         if (OS_INT_ACTIVE)
 1860              		.loc 1 559 9 is_stmt 1 view .LVU526
 1861              		.loc 1 559 13 is_stmt 0 view .LVU527
 1862 0014 1D4B     		ldr	r3, .L156
 1863              		.loc 1 559 12 view .LVU528
 1864 0016 1B68     		ldr	r3, [r3]
 1865 0018 002B     		cmp	r3, #0
 1866 001a 33D1     		bne	.L146
 1867              	.L141:
 560:D:/fchai/work/i-cube/I-CUBE-HUAWEI/Middlewares/Third_Party/Huawei/iot_link/os/liteos/base/ipc\los_queue.c ****         {
 561:D:/fchai/work/i-cube/I-CUBE-HUAWEI/Middlewares/Third_Party/Huawei/iot_link/os/liteos/base/ipc\los_queue.c ****             return NULL;
 562:D:/fchai/work/i-cube/I-CUBE-HUAWEI/Middlewares/Third_Party/Huawei/iot_link/os/liteos/base/ipc\los_queue.c ****         }
 563:D:/fchai/work/i-cube/I-CUBE-HUAWEI/Middlewares/Third_Party/Huawei/iot_link/os/liteos/base/ipc\los_queue.c ****     }
 564:D:/fchai/work/i-cube/I-CUBE-HUAWEI/Middlewares/Third_Party/Huawei/iot_link/os/liteos/base/ipc\los_queue.c **** 
 565:D:/fchai/work/i-cube/I-CUBE-HUAWEI/Middlewares/Third_Party/Huawei/iot_link/os/liteos/base/ipc\los_queue.c ****     uvIntSave = LOS_IntLock();
 1868              		.loc 1 565 5 is_stmt 1 view .LVU529
 1869              		.loc 1 565 17 is_stmt 0 view .LVU530
 1870 001c FFF7FEFF 		bl	LOS_IntLock
 1871              	.LVL175:
 566:D:/fchai/work/i-cube/I-CUBE-HUAWEI/Middlewares/Third_Party/Huawei/iot_link/os/liteos/base/ipc\los_queue.c ****     pstQueueCB = GET_QUEUE_HANDLE(uwQueueID);
 1872              		.loc 1 566 18 view .LVU531
 1873 0020 1B4B     		ldr	r3, .L156+4
 1874              		.loc 1 566 16 view .LVU532
 1875 0022 1B68     		ldr	r3, [r3]
 1876              		.loc 1 566 18 view .LVU533
 1877 0024 2C22     		movs	r2, #44
 1878              		.loc 1 566 16 view .LVU534
 1879 0026 02FB0434 		mla	r4, r2, r4, r3
 1880              	.LVL176:
 565:D:/fchai/work/i-cube/I-CUBE-HUAWEI/Middlewares/Third_Party/Huawei/iot_link/os/liteos/base/ipc\los_queue.c ****     pstQueueCB = GET_QUEUE_HANDLE(uwQueueID);
 1881              		.loc 1 565 17 view .LVU535
 1882 002a 8046     		mov	r8, r0
 1883              	.LVL177:
 1884              		.loc 1 566 5 is_stmt 1 view .LVU536
 567:D:/fchai/work/i-cube/I-CUBE-HUAWEI/Middlewares/Third_Party/Huawei/iot_link/os/liteos/base/ipc\los_queue.c ****     if (OS_QUEUE_UNUSED == pstQueueCB->usQueueState)
 1885              		.loc 1 567 5 view .LVU537
 1886              		.loc 1 567 8 is_stmt 0 view .LVU538
 1887 002c A588     		ldrh	r5, [r4, #4]
 1888 002e 2DB9     		cbnz	r5, .L155
 1889              	.LVL178:
 1890              	.L142:
ARM GAS  T:\msys\tmp\ccLNSFcc.s 			page 53


 568:D:/fchai/work/i-cube/I-CUBE-HUAWEI/Middlewares/Third_Party/Huawei/iot_link/os/liteos/base/ipc\los_queue.c ****     {
 569:D:/fchai/work/i-cube/I-CUBE-HUAWEI/Middlewares/Third_Party/Huawei/iot_link/os/liteos/base/ipc\los_queue.c ****         goto END;
 570:D:/fchai/work/i-cube/I-CUBE-HUAWEI/Middlewares/Third_Party/Huawei/iot_link/os/liteos/base/ipc\los_queue.c ****     }
 571:D:/fchai/work/i-cube/I-CUBE-HUAWEI/Middlewares/Third_Party/Huawei/iot_link/os/liteos/base/ipc\los_queue.c **** 
 572:D:/fchai/work/i-cube/I-CUBE-HUAWEI/Middlewares/Third_Party/Huawei/iot_link/os/liteos/base/ipc\los_queue.c ****     pMem = LOS_MemboxAlloc(pMailPool);
 573:D:/fchai/work/i-cube/I-CUBE-HUAWEI/Middlewares/Third_Party/Huawei/iot_link/os/liteos/base/ipc\los_queue.c ****     if (NULL == pMem)
 574:D:/fchai/work/i-cube/I-CUBE-HUAWEI/Middlewares/Third_Party/Huawei/iot_link/os/liteos/base/ipc\los_queue.c ****     {
 575:D:/fchai/work/i-cube/I-CUBE-HUAWEI/Middlewares/Third_Party/Huawei/iot_link/os/liteos/base/ipc\los_queue.c ****         if (uwTimeOut == LOS_NO_WAIT)
 576:D:/fchai/work/i-cube/I-CUBE-HUAWEI/Middlewares/Third_Party/Huawei/iot_link/os/liteos/base/ipc\los_queue.c ****         {
 577:D:/fchai/work/i-cube/I-CUBE-HUAWEI/Middlewares/Third_Party/Huawei/iot_link/os/liteos/base/ipc\los_queue.c ****             goto END;
 578:D:/fchai/work/i-cube/I-CUBE-HUAWEI/Middlewares/Third_Party/Huawei/iot_link/os/liteos/base/ipc\los_queue.c ****         }
 579:D:/fchai/work/i-cube/I-CUBE-HUAWEI/Middlewares/Third_Party/Huawei/iot_link/os/liteos/base/ipc\los_queue.c **** 
 580:D:/fchai/work/i-cube/I-CUBE-HUAWEI/Middlewares/Third_Party/Huawei/iot_link/os/liteos/base/ipc\los_queue.c ****         pstRunTsk = (LOS_TASK_CB *)g_stLosTask.pstRunTask;
 581:D:/fchai/work/i-cube/I-CUBE-HUAWEI/Middlewares/Third_Party/Huawei/iot_link/os/liteos/base/ipc\los_queue.c ****         osTaskWait(&pstQueueCB->stMemList, OS_TASK_STATUS_PEND_QUEUE, uwTimeOut);
 582:D:/fchai/work/i-cube/I-CUBE-HUAWEI/Middlewares/Third_Party/Huawei/iot_link/os/liteos/base/ipc\los_queue.c ****         LOS_IntRestore(uvIntSave);
 583:D:/fchai/work/i-cube/I-CUBE-HUAWEI/Middlewares/Third_Party/Huawei/iot_link/os/liteos/base/ipc\los_queue.c ****         LOS_Schedule();
 584:D:/fchai/work/i-cube/I-CUBE-HUAWEI/Middlewares/Third_Party/Huawei/iot_link/os/liteos/base/ipc\los_queue.c **** 
 585:D:/fchai/work/i-cube/I-CUBE-HUAWEI/Middlewares/Third_Party/Huawei/iot_link/os/liteos/base/ipc\los_queue.c ****         uvIntSave = LOS_IntLock();
 586:D:/fchai/work/i-cube/I-CUBE-HUAWEI/Middlewares/Third_Party/Huawei/iot_link/os/liteos/base/ipc\los_queue.c ****         if (pstRunTsk->usTaskStatus & OS_TASK_STATUS_TIMEOUT)
 587:D:/fchai/work/i-cube/I-CUBE-HUAWEI/Middlewares/Third_Party/Huawei/iot_link/os/liteos/base/ipc\los_queue.c ****         {
 588:D:/fchai/work/i-cube/I-CUBE-HUAWEI/Middlewares/Third_Party/Huawei/iot_link/os/liteos/base/ipc\los_queue.c ****             pstRunTsk->usTaskStatus &= (~OS_TASK_STATUS_TIMEOUT);
 589:D:/fchai/work/i-cube/I-CUBE-HUAWEI/Middlewares/Third_Party/Huawei/iot_link/os/liteos/base/ipc\los_queue.c ****             goto END;
 590:D:/fchai/work/i-cube/I-CUBE-HUAWEI/Middlewares/Third_Party/Huawei/iot_link/os/liteos/base/ipc\los_queue.c ****         }
 591:D:/fchai/work/i-cube/I-CUBE-HUAWEI/Middlewares/Third_Party/Huawei/iot_link/os/liteos/base/ipc\los_queue.c ****         else
 592:D:/fchai/work/i-cube/I-CUBE-HUAWEI/Middlewares/Third_Party/Huawei/iot_link/os/liteos/base/ipc\los_queue.c ****         {
 593:D:/fchai/work/i-cube/I-CUBE-HUAWEI/Middlewares/Third_Party/Huawei/iot_link/os/liteos/base/ipc\los_queue.c ****             /* When enters the current branch, means the current task already got a available membo
 594:D:/fchai/work/i-cube/I-CUBE-HUAWEI/Middlewares/Third_Party/Huawei/iot_link/os/liteos/base/ipc\los_queue.c ****              * so the pstRunTsk->puwMsg can not be NULL.
 595:D:/fchai/work/i-cube/I-CUBE-HUAWEI/Middlewares/Third_Party/Huawei/iot_link/os/liteos/base/ipc\los_queue.c ****              */
 596:D:/fchai/work/i-cube/I-CUBE-HUAWEI/Middlewares/Third_Party/Huawei/iot_link/os/liteos/base/ipc\los_queue.c ****             pMem = pstRunTsk->puwMsg;
 597:D:/fchai/work/i-cube/I-CUBE-HUAWEI/Middlewares/Third_Party/Huawei/iot_link/os/liteos/base/ipc\los_queue.c ****             pstRunTsk->puwMsg = NULL;
 598:D:/fchai/work/i-cube/I-CUBE-HUAWEI/Middlewares/Third_Party/Huawei/iot_link/os/liteos/base/ipc\los_queue.c ****         }
 599:D:/fchai/work/i-cube/I-CUBE-HUAWEI/Middlewares/Third_Party/Huawei/iot_link/os/liteos/base/ipc\los_queue.c ****     }
 600:D:/fchai/work/i-cube/I-CUBE-HUAWEI/Middlewares/Third_Party/Huawei/iot_link/os/liteos/base/ipc\los_queue.c **** 
 601:D:/fchai/work/i-cube/I-CUBE-HUAWEI/Middlewares/Third_Party/Huawei/iot_link/os/liteos/base/ipc\los_queue.c **** END:
 602:D:/fchai/work/i-cube/I-CUBE-HUAWEI/Middlewares/Third_Party/Huawei/iot_link/os/liteos/base/ipc\los_queue.c ****     LOS_IntRestore(uvIntSave);
 1891              		.loc 1 602 5 is_stmt 1 view .LVU539
 1892 0030 4046     		mov	r0, r8
 1893 0032 FFF7FEFF 		bl	LOS_IntRestore
 1894              	.LVL179:
 603:D:/fchai/work/i-cube/I-CUBE-HUAWEI/Middlewares/Third_Party/Huawei/iot_link/os/liteos/base/ipc\los_queue.c ****     return pMem;
 1895              		.loc 1 603 5 view .LVU540
 604:D:/fchai/work/i-cube/I-CUBE-HUAWEI/Middlewares/Third_Party/Huawei/iot_link/os/liteos/base/ipc\los_queue.c **** }
 1896              		.loc 1 604 1 is_stmt 0 view .LVU541
 1897 0036 2846     		mov	r0, r5
 1898 0038 BDE8F081 		pop	{r4, r5, r6, r7, r8, pc}
 1899              	.LVL180:
 1900              	.L155:
 572:D:/fchai/work/i-cube/I-CUBE-HUAWEI/Middlewares/Third_Party/Huawei/iot_link/os/liteos/base/ipc\los_queue.c ****     if (NULL == pMem)
 1901              		.loc 1 572 5 is_stmt 1 view .LVU542
 572:D:/fchai/work/i-cube/I-CUBE-HUAWEI/Middlewares/Third_Party/Huawei/iot_link/os/liteos/base/ipc\los_queue.c ****     if (NULL == pMem)
 1902              		.loc 1 572 12 is_stmt 0 view .LVU543
 1903 003c 3046     		mov	r0, r6
 1904              	.LVL181:
 572:D:/fchai/work/i-cube/I-CUBE-HUAWEI/Middlewares/Third_Party/Huawei/iot_link/os/liteos/base/ipc\los_queue.c ****     if (NULL == pMem)
 1905              		.loc 1 572 12 view .LVU544
 1906 003e FFF7FEFF 		bl	LOS_MemboxAlloc
 1907              	.LVL182:
ARM GAS  T:\msys\tmp\ccLNSFcc.s 			page 54


 573:D:/fchai/work/i-cube/I-CUBE-HUAWEI/Middlewares/Third_Party/Huawei/iot_link/os/liteos/base/ipc\los_queue.c ****     {
 1908              		.loc 1 573 5 is_stmt 1 view .LVU545
 573:D:/fchai/work/i-cube/I-CUBE-HUAWEI/Middlewares/Third_Party/Huawei/iot_link/os/liteos/base/ipc\los_queue.c ****     {
 1909              		.loc 1 573 8 is_stmt 0 view .LVU546
 1910 0042 0546     		mov	r5, r0
 1911 0044 0028     		cmp	r0, #0
 1912 0046 F3D1     		bne	.L142
 575:D:/fchai/work/i-cube/I-CUBE-HUAWEI/Middlewares/Third_Party/Huawei/iot_link/os/liteos/base/ipc\los_queue.c ****         {
 1913              		.loc 1 575 9 is_stmt 1 view .LVU547
 575:D:/fchai/work/i-cube/I-CUBE-HUAWEI/Middlewares/Third_Party/Huawei/iot_link/os/liteos/base/ipc\los_queue.c ****         {
 1914              		.loc 1 575 12 is_stmt 0 view .LVU548
 1915 0048 002F     		cmp	r7, #0
 1916 004a F1D0     		beq	.L142
 580:D:/fchai/work/i-cube/I-CUBE-HUAWEI/Middlewares/Third_Party/Huawei/iot_link/os/liteos/base/ipc\los_queue.c ****         osTaskWait(&pstQueueCB->stMemList, OS_TASK_STATUS_PEND_QUEUE, uwTimeOut);
 1917              		.loc 1 580 9 is_stmt 1 view .LVU549
 580:D:/fchai/work/i-cube/I-CUBE-HUAWEI/Middlewares/Third_Party/Huawei/iot_link/os/liteos/base/ipc\los_queue.c ****         osTaskWait(&pstQueueCB->stMemList, OS_TASK_STATUS_PEND_QUEUE, uwTimeOut);
 1918              		.loc 1 580 19 is_stmt 0 view .LVU550
 1919 004c 114B     		ldr	r3, .L156+8
 581:D:/fchai/work/i-cube/I-CUBE-HUAWEI/Middlewares/Third_Party/Huawei/iot_link/os/liteos/base/ipc\los_queue.c ****         LOS_IntRestore(uvIntSave);
 1920              		.loc 1 581 9 view .LVU551
 1921 004e 3A46     		mov	r2, r7
 1922 0050 4FF40051 		mov	r1, #8192
 1923 0054 04F12400 		add	r0, r4, #36
 1924              	.LVL183:
 580:D:/fchai/work/i-cube/I-CUBE-HUAWEI/Middlewares/Third_Party/Huawei/iot_link/os/liteos/base/ipc\los_queue.c ****         osTaskWait(&pstQueueCB->stMemList, OS_TASK_STATUS_PEND_QUEUE, uwTimeOut);
 1925              		.loc 1 580 19 view .LVU552
 1926 0058 1C68     		ldr	r4, [r3]
 1927              	.LVL184:
 581:D:/fchai/work/i-cube/I-CUBE-HUAWEI/Middlewares/Third_Party/Huawei/iot_link/os/liteos/base/ipc\los_queue.c ****         LOS_IntRestore(uvIntSave);
 1928              		.loc 1 581 9 is_stmt 1 view .LVU553
 1929 005a FFF7FEFF 		bl	osTaskWait
 1930              	.LVL185:
 582:D:/fchai/work/i-cube/I-CUBE-HUAWEI/Middlewares/Third_Party/Huawei/iot_link/os/liteos/base/ipc\los_queue.c ****         LOS_Schedule();
 1931              		.loc 1 582 9 view .LVU554
 1932 005e 4046     		mov	r0, r8
 1933 0060 FFF7FEFF 		bl	LOS_IntRestore
 1934              	.LVL186:
 583:D:/fchai/work/i-cube/I-CUBE-HUAWEI/Middlewares/Third_Party/Huawei/iot_link/os/liteos/base/ipc\los_queue.c **** 
 1935              		.loc 1 583 9 view .LVU555
 1936 0064 FFF7FEFF 		bl	LOS_Schedule
 1937              	.LVL187:
 585:D:/fchai/work/i-cube/I-CUBE-HUAWEI/Middlewares/Third_Party/Huawei/iot_link/os/liteos/base/ipc\los_queue.c ****         if (pstRunTsk->usTaskStatus & OS_TASK_STATUS_TIMEOUT)
 1938              		.loc 1 585 9 view .LVU556
 585:D:/fchai/work/i-cube/I-CUBE-HUAWEI/Middlewares/Third_Party/Huawei/iot_link/os/liteos/base/ipc\los_queue.c ****         if (pstRunTsk->usTaskStatus & OS_TASK_STATUS_TIMEOUT)
 1939              		.loc 1 585 21 is_stmt 0 view .LVU557
 1940 0068 FFF7FEFF 		bl	LOS_IntLock
 1941              	.LVL188:
 586:D:/fchai/work/i-cube/I-CUBE-HUAWEI/Middlewares/Third_Party/Huawei/iot_link/os/liteos/base/ipc\los_queue.c ****         {
 1942              		.loc 1 586 22 view .LVU558
 1943 006c A388     		ldrh	r3, [r4, #4]
 586:D:/fchai/work/i-cube/I-CUBE-HUAWEI/Middlewares/Third_Party/Huawei/iot_link/os/liteos/base/ipc\los_queue.c ****         {
 1944              		.loc 1 586 12 view .LVU559
 1945 006e 13F04002 		ands	r2, r3, #64
 588:D:/fchai/work/i-cube/I-CUBE-HUAWEI/Middlewares/Third_Party/Huawei/iot_link/os/liteos/base/ipc\los_queue.c ****             goto END;
 1946              		.loc 1 588 37 view .LVU560
 1947 0072 16BF     		itet	ne
 1948 0074 23F04003 		bicne	r3, r3, #64
ARM GAS  T:\msys\tmp\ccLNSFcc.s 			page 55


 596:D:/fchai/work/i-cube/I-CUBE-HUAWEI/Middlewares/Third_Party/Huawei/iot_link/os/liteos/base/ipc\los_queue.c ****             pstRunTsk->puwMsg = NULL;
 1949              		.loc 1 596 18 view .LVU561
 1950 0078 256D     		ldreq	r5, [r4, #80]
 1951              	.LVL189:
 588:D:/fchai/work/i-cube/I-CUBE-HUAWEI/Middlewares/Third_Party/Huawei/iot_link/os/liteos/base/ipc\los_queue.c ****             goto END;
 1952              		.loc 1 588 37 view .LVU562
 1953 007a A380     		strhne	r3, [r4, #4]	@ movhi
 585:D:/fchai/work/i-cube/I-CUBE-HUAWEI/Middlewares/Third_Party/Huawei/iot_link/os/liteos/base/ipc\los_queue.c ****         if (pstRunTsk->usTaskStatus & OS_TASK_STATUS_TIMEOUT)
 1954              		.loc 1 585 21 view .LVU563
 1955 007c 8046     		mov	r8, r0
 1956              	.LVL190:
 586:D:/fchai/work/i-cube/I-CUBE-HUAWEI/Middlewares/Third_Party/Huawei/iot_link/os/liteos/base/ipc\los_queue.c ****         {
 1957              		.loc 1 586 9 is_stmt 1 view .LVU564
 588:D:/fchai/work/i-cube/I-CUBE-HUAWEI/Middlewares/Third_Party/Huawei/iot_link/os/liteos/base/ipc\los_queue.c ****             goto END;
 1958              		.loc 1 588 13 view .LVU565
 589:D:/fchai/work/i-cube/I-CUBE-HUAWEI/Middlewares/Third_Party/Huawei/iot_link/os/liteos/base/ipc\los_queue.c ****         }
 1959              		.loc 1 589 13 view .LVU566
 596:D:/fchai/work/i-cube/I-CUBE-HUAWEI/Middlewares/Third_Party/Huawei/iot_link/os/liteos/base/ipc\los_queue.c ****             pstRunTsk->puwMsg = NULL;
 1960              		.loc 1 596 13 view .LVU567
 597:D:/fchai/work/i-cube/I-CUBE-HUAWEI/Middlewares/Third_Party/Huawei/iot_link/os/liteos/base/ipc\los_queue.c ****         }
 1961              		.loc 1 597 13 view .LVU568
 597:D:/fchai/work/i-cube/I-CUBE-HUAWEI/Middlewares/Third_Party/Huawei/iot_link/os/liteos/base/ipc\los_queue.c ****         }
 1962              		.loc 1 597 31 is_stmt 0 view .LVU569
 1963 007e 08BF     		it	eq
 1964 0080 2265     		streq	r2, [r4, #80]
 1965 0082 D5E7     		b	.L142
 1966              	.LVL191:
 1967              	.L146:
 549:D:/fchai/work/i-cube/I-CUBE-HUAWEI/Middlewares/Third_Party/Huawei/iot_link/os/liteos/base/ipc\los_queue.c ****     }
 1968              		.loc 1 549 16 view .LVU570
 1969 0084 0025     		movs	r5, #0
 1970              		.loc 1 604 1 view .LVU571
 1971 0086 2846     		mov	r0, r5
 1972              	.LVL192:
 1973              		.loc 1 604 1 view .LVU572
 1974 0088 BDE8F081 		pop	{r4, r5, r6, r7, r8, pc}
 1975              	.L157:
 1976              		.align	2
 1977              	.L156:
 1978 008c 00000000 		.word	g_vuwIntCount
 1979 0090 00000000 		.word	g_pstAllQueue
 1980 0094 00000000 		.word	g_stLosTask
 1981              		.cfi_endproc
 1982              	.LFE145:
 1984              		.section	.text.osQueueMailFree,"ax",%progbits
 1985              		.align	1
 1986              		.p2align 2,,3
 1987              		.global	osQueueMailFree
 1988              		.syntax unified
 1989              		.thumb
 1990              		.thumb_func
 1991              		.fpu fpv4-sp-d16
 1993              	osQueueMailFree:
 1994              	.LVL193:
 1995              	.LFB146:
 605:D:/fchai/work/i-cube/I-CUBE-HUAWEI/Middlewares/Third_Party/Huawei/iot_link/os/liteos/base/ipc\los_queue.c **** 
