ARM GAS  T:\msys\tmp\ccccxHvg.s 			page 1


   1              		.cpu cortex-m4
   2              		.eabi_attribute 27, 1
   3              		.eabi_attribute 28, 1
   4              		.eabi_attribute 20, 1
   5              		.eabi_attribute 21, 1
   6              		.eabi_attribute 23, 3
   7              		.eabi_attribute 24, 1
   8              		.eabi_attribute 25, 1
   9              		.eabi_attribute 26, 1
  10              		.eabi_attribute 30, 2
  11              		.eabi_attribute 34, 1
  12              		.eabi_attribute 18, 4
  13              		.file	"los_mux.c"
  14              		.text
  15              	.Ltext0:
  16              		.cfi_sections	.debug_frame
  17              		.section	.text.osMuxInit.part.0,"ax",%progbits
  18              		.align	1
  19              		.p2align 2,,3
  20              		.arch armv7e-m
  21              		.syntax unified
  22              		.thumb
  23              		.thumb_func
  24              		.fpu fpv4-sp-d16
  26              	osMuxInit.part.0:
  27              	.LFB140:
  28              		.file 1 "D:/fchai/work/i-cube/I-CUBE-HUAWEI/Middlewares/Third_Party/Huawei/iot_link/os/liteos/base
   1:D:/fchai/work/i-cube/I-CUBE-HUAWEI/Middlewares/Third_Party/Huawei/iot_link/os/liteos/base/ipc\los_mux.c **** /*----------------------------------------------------------------------------
   2:D:/fchai/work/i-cube/I-CUBE-HUAWEI/Middlewares/Third_Party/Huawei/iot_link/os/liteos/base/ipc\los_mux.c ****  * Copyright (c) <2013-2015>, <Huawei Technologies Co., Ltd>
   3:D:/fchai/work/i-cube/I-CUBE-HUAWEI/Middlewares/Third_Party/Huawei/iot_link/os/liteos/base/ipc\los_mux.c ****  * All rights reserved.
   4:D:/fchai/work/i-cube/I-CUBE-HUAWEI/Middlewares/Third_Party/Huawei/iot_link/os/liteos/base/ipc\los_mux.c ****  * Redistribution and use in source and binary forms, with or without modification,
   5:D:/fchai/work/i-cube/I-CUBE-HUAWEI/Middlewares/Third_Party/Huawei/iot_link/os/liteos/base/ipc\los_mux.c ****  * are permitted provided that the following conditions are met:
   6:D:/fchai/work/i-cube/I-CUBE-HUAWEI/Middlewares/Third_Party/Huawei/iot_link/os/liteos/base/ipc\los_mux.c ****  * 1. Redistributions of source code must retain the above copyright notice, this list of
   7:D:/fchai/work/i-cube/I-CUBE-HUAWEI/Middlewares/Third_Party/Huawei/iot_link/os/liteos/base/ipc\los_mux.c ****  * conditions and the following disclaimer.
   8:D:/fchai/work/i-cube/I-CUBE-HUAWEI/Middlewares/Third_Party/Huawei/iot_link/os/liteos/base/ipc\los_mux.c ****  * 2. Redistributions in binary form must reproduce the above copyright notice, this list
   9:D:/fchai/work/i-cube/I-CUBE-HUAWEI/Middlewares/Third_Party/Huawei/iot_link/os/liteos/base/ipc\los_mux.c ****  * of conditions and the following disclaimer in the documentation and/or other materials
  10:D:/fchai/work/i-cube/I-CUBE-HUAWEI/Middlewares/Third_Party/Huawei/iot_link/os/liteos/base/ipc\los_mux.c ****  * provided with the distribution.
  11:D:/fchai/work/i-cube/I-CUBE-HUAWEI/Middlewares/Third_Party/Huawei/iot_link/os/liteos/base/ipc\los_mux.c ****  * 3. Neither the name of the copyright holder nor the names of its contributors may be used
  12:D:/fchai/work/i-cube/I-CUBE-HUAWEI/Middlewares/Third_Party/Huawei/iot_link/os/liteos/base/ipc\los_mux.c ****  * to endorse or promote products derived from this software without specific prior written
  13:D:/fchai/work/i-cube/I-CUBE-HUAWEI/Middlewares/Third_Party/Huawei/iot_link/os/liteos/base/ipc\los_mux.c ****  * permission.
  14:D:/fchai/work/i-cube/I-CUBE-HUAWEI/Middlewares/Third_Party/Huawei/iot_link/os/liteos/base/ipc\los_mux.c ****  * THIS SOFTWARE IS PROVIDED BY THE COPYRIGHT HOLDERS AND CONTRIBUTORS
  15:D:/fchai/work/i-cube/I-CUBE-HUAWEI/Middlewares/Third_Party/Huawei/iot_link/os/liteos/base/ipc\los_mux.c ****  * "AS IS" AND ANY EXPRESS OR IMPLIED WARRANTIES, INCLUDING, BUT NOT LIMITED TO,
  16:D:/fchai/work/i-cube/I-CUBE-HUAWEI/Middlewares/Third_Party/Huawei/iot_link/os/liteos/base/ipc\los_mux.c ****  * THE IMPLIED WARRANTIES OF MERCHANTABILITY AND FITNESS FOR A PARTICULAR
  17:D:/fchai/work/i-cube/I-CUBE-HUAWEI/Middlewares/Third_Party/Huawei/iot_link/os/liteos/base/ipc\los_mux.c ****  * PURPOSE ARE DISCLAIMED. IN NO EVENT SHALL THE COPYRIGHT HOLDER OR
  18:D:/fchai/work/i-cube/I-CUBE-HUAWEI/Middlewares/Third_Party/Huawei/iot_link/os/liteos/base/ipc\los_mux.c ****  * CONTRIBUTORS BE LIABLE FOR ANY DIRECT, INDIRECT, INCIDENTAL, SPECIAL,
  19:D:/fchai/work/i-cube/I-CUBE-HUAWEI/Middlewares/Third_Party/Huawei/iot_link/os/liteos/base/ipc\los_mux.c ****  * EXEMPLARY, OR CONSEQUENTIAL DAMAGES (INCLUDING, BUT NOT LIMITED TO,
  20:D:/fchai/work/i-cube/I-CUBE-HUAWEI/Middlewares/Third_Party/Huawei/iot_link/os/liteos/base/ipc\los_mux.c ****  * PROCUREMENT OF SUBSTITUTE GOODS OR SERVICES; LOSS OF USE, DATA, OR PROFITS;
  21:D:/fchai/work/i-cube/I-CUBE-HUAWEI/Middlewares/Third_Party/Huawei/iot_link/os/liteos/base/ipc\los_mux.c ****  * OR BUSINESS INTERRUPTION) HOWEVER CAUSED AND ON ANY THEORY OF LIABILITY,
  22:D:/fchai/work/i-cube/I-CUBE-HUAWEI/Middlewares/Third_Party/Huawei/iot_link/os/liteos/base/ipc\los_mux.c ****  * WHETHER IN CONTRACT, STRICT LIABILITY, OR TORT (INCLUDING NEGLIGENCE OR
  23:D:/fchai/work/i-cube/I-CUBE-HUAWEI/Middlewares/Third_Party/Huawei/iot_link/os/liteos/base/ipc\los_mux.c ****  * OTHERWISE) ARISING IN ANY WAY OUT OF THE USE OF THIS SOFTWARE, EVEN IF
  24:D:/fchai/work/i-cube/I-CUBE-HUAWEI/Middlewares/Third_Party/Huawei/iot_link/os/liteos/base/ipc\los_mux.c ****  * ADVISED OF THE POSSIBILITY OF SUCH DAMAGE.
  25:D:/fchai/work/i-cube/I-CUBE-HUAWEI/Middlewares/Third_Party/Huawei/iot_link/os/liteos/base/ipc\los_mux.c ****  *---------------------------------------------------------------------------*/
  26:D:/fchai/work/i-cube/I-CUBE-HUAWEI/Middlewares/Third_Party/Huawei/iot_link/os/liteos/base/ipc\los_mux.c **** /*----------------------------------------------------------------------------
  27:D:/fchai/work/i-cube/I-CUBE-HUAWEI/Middlewares/Third_Party/Huawei/iot_link/os/liteos/base/ipc\los_mux.c ****  * Notice of Export Control Law
  28:D:/fchai/work/i-cube/I-CUBE-HUAWEI/Middlewares/Third_Party/Huawei/iot_link/os/liteos/base/ipc\los_mux.c ****  * ===============================================
  29:D:/fchai/work/i-cube/I-CUBE-HUAWEI/Middlewares/Third_Party/Huawei/iot_link/os/liteos/base/ipc\los_mux.c ****  * Huawei LiteOS may be subject to applicable export control laws and regulations, which might
  30:D:/fchai/work/i-cube/I-CUBE-HUAWEI/Middlewares/Third_Party/Huawei/iot_link/os/liteos/base/ipc\los_mux.c ****  * include those applicable to Huawei LiteOS of U.S. and the country in which you are located.
ARM GAS  T:\msys\tmp\ccccxHvg.s 			page 2


  31:D:/fchai/work/i-cube/I-CUBE-HUAWEI/Middlewares/Third_Party/Huawei/iot_link/os/liteos/base/ipc\los_mux.c ****  * Import, export and usage of Huawei LiteOS in any manner by you shall be in compliance with such
  32:D:/fchai/work/i-cube/I-CUBE-HUAWEI/Middlewares/Third_Party/Huawei/iot_link/os/liteos/base/ipc\los_mux.c ****  * applicable export control laws and regulations.
  33:D:/fchai/work/i-cube/I-CUBE-HUAWEI/Middlewares/Third_Party/Huawei/iot_link/os/liteos/base/ipc\los_mux.c ****  *---------------------------------------------------------------------------*/
  34:D:/fchai/work/i-cube/I-CUBE-HUAWEI/Middlewares/Third_Party/Huawei/iot_link/os/liteos/base/ipc\los_mux.c **** 
  35:D:/fchai/work/i-cube/I-CUBE-HUAWEI/Middlewares/Third_Party/Huawei/iot_link/os/liteos/base/ipc\los_mux.c **** #include "los_mux.inc"
  36:D:/fchai/work/i-cube/I-CUBE-HUAWEI/Middlewares/Third_Party/Huawei/iot_link/os/liteos/base/ipc\los_mux.c **** #include "los_err.ph"
  37:D:/fchai/work/i-cube/I-CUBE-HUAWEI/Middlewares/Third_Party/Huawei/iot_link/os/liteos/base/ipc\los_mux.c **** #include "los_memory.ph"
  38:D:/fchai/work/i-cube/I-CUBE-HUAWEI/Middlewares/Third_Party/Huawei/iot_link/os/liteos/base/ipc\los_mux.c **** #include "los_priqueue.ph"
  39:D:/fchai/work/i-cube/I-CUBE-HUAWEI/Middlewares/Third_Party/Huawei/iot_link/os/liteos/base/ipc\los_mux.c **** #include "los_task.ph"
  40:D:/fchai/work/i-cube/I-CUBE-HUAWEI/Middlewares/Third_Party/Huawei/iot_link/os/liteos/base/ipc\los_mux.c **** #if (LOSCFG_PLATFORM_EXC == YES)
  41:D:/fchai/work/i-cube/I-CUBE-HUAWEI/Middlewares/Third_Party/Huawei/iot_link/os/liteos/base/ipc\los_mux.c **** #include "los_exc.h"
  42:D:/fchai/work/i-cube/I-CUBE-HUAWEI/Middlewares/Third_Party/Huawei/iot_link/os/liteos/base/ipc\los_mux.c **** #endif
  43:D:/fchai/work/i-cube/I-CUBE-HUAWEI/Middlewares/Third_Party/Huawei/iot_link/os/liteos/base/ipc\los_mux.c **** #include "los_hw.h"
  44:D:/fchai/work/i-cube/I-CUBE-HUAWEI/Middlewares/Third_Party/Huawei/iot_link/os/liteos/base/ipc\los_mux.c **** 
  45:D:/fchai/work/i-cube/I-CUBE-HUAWEI/Middlewares/Third_Party/Huawei/iot_link/os/liteos/base/ipc\los_mux.c **** #ifdef __cplusplus
  46:D:/fchai/work/i-cube/I-CUBE-HUAWEI/Middlewares/Third_Party/Huawei/iot_link/os/liteos/base/ipc\los_mux.c **** #if __cplusplus
  47:D:/fchai/work/i-cube/I-CUBE-HUAWEI/Middlewares/Third_Party/Huawei/iot_link/os/liteos/base/ipc\los_mux.c **** extern "C"{
  48:D:/fchai/work/i-cube/I-CUBE-HUAWEI/Middlewares/Third_Party/Huawei/iot_link/os/liteos/base/ipc\los_mux.c **** #endif
  49:D:/fchai/work/i-cube/I-CUBE-HUAWEI/Middlewares/Third_Party/Huawei/iot_link/os/liteos/base/ipc\los_mux.c **** #endif /* __cplusplus */
  50:D:/fchai/work/i-cube/I-CUBE-HUAWEI/Middlewares/Third_Party/Huawei/iot_link/os/liteos/base/ipc\los_mux.c **** 
  51:D:/fchai/work/i-cube/I-CUBE-HUAWEI/Middlewares/Third_Party/Huawei/iot_link/os/liteos/base/ipc\los_mux.c **** 
  52:D:/fchai/work/i-cube/I-CUBE-HUAWEI/Middlewares/Third_Party/Huawei/iot_link/os/liteos/base/ipc\los_mux.c **** #if (LOSCFG_BASE_IPC_MUX == YES)
  53:D:/fchai/work/i-cube/I-CUBE-HUAWEI/Middlewares/Third_Party/Huawei/iot_link/os/liteos/base/ipc\los_mux.c **** 
  54:D:/fchai/work/i-cube/I-CUBE-HUAWEI/Middlewares/Third_Party/Huawei/iot_link/os/liteos/base/ipc\los_mux.c **** LITE_OS_SEC_BSS MUX_CB_S             *g_pstAllMux = NULL;
  55:D:/fchai/work/i-cube/I-CUBE-HUAWEI/Middlewares/Third_Party/Huawei/iot_link/os/liteos/base/ipc\los_mux.c **** LITE_OS_SEC_BSS LOS_DL_LIST          g_stUnusedMuxList;
  56:D:/fchai/work/i-cube/I-CUBE-HUAWEI/Middlewares/Third_Party/Huawei/iot_link/os/liteos/base/ipc\los_mux.c **** 
  57:D:/fchai/work/i-cube/I-CUBE-HUAWEI/Middlewares/Third_Party/Huawei/iot_link/os/liteos/base/ipc\los_mux.c **** 
  58:D:/fchai/work/i-cube/I-CUBE-HUAWEI/Middlewares/Third_Party/Huawei/iot_link/os/liteos/base/ipc\los_mux.c **** /*****************************************************************************
  59:D:/fchai/work/i-cube/I-CUBE-HUAWEI/Middlewares/Third_Party/Huawei/iot_link/os/liteos/base/ipc\los_mux.c ****  Funtion         : osMuxInit,
  60:D:/fchai/work/i-cube/I-CUBE-HUAWEI/Middlewares/Third_Party/Huawei/iot_link/os/liteos/base/ipc\los_mux.c ****  Description  : Initializes the mutex,
  61:D:/fchai/work/i-cube/I-CUBE-HUAWEI/Middlewares/Third_Party/Huawei/iot_link/os/liteos/base/ipc\los_mux.c ****  Input        : None
  62:D:/fchai/work/i-cube/I-CUBE-HUAWEI/Middlewares/Third_Party/Huawei/iot_link/os/liteos/base/ipc\los_mux.c ****  Output       : None
  63:D:/fchai/work/i-cube/I-CUBE-HUAWEI/Middlewares/Third_Party/Huawei/iot_link/os/liteos/base/ipc\los_mux.c ****  Return       : LOS_OK on success ,or error code on failure
  64:D:/fchai/work/i-cube/I-CUBE-HUAWEI/Middlewares/Third_Party/Huawei/iot_link/os/liteos/base/ipc\los_mux.c ****  *****************************************************************************/
  65:D:/fchai/work/i-cube/I-CUBE-HUAWEI/Middlewares/Third_Party/Huawei/iot_link/os/liteos/base/ipc\los_mux.c **** LITE_OS_SEC_TEXT_INIT UINT32 osMuxInit(VOID)
  29              		.loc 1 65 30 view -0
  30              		.cfi_startproc
  31              		@ args = 0, pretend = 0, frame = 0
  32              		@ frame_needed = 0, uses_anonymous_args = 0
  33              		@ link register save eliminated.
  66:D:/fchai/work/i-cube/I-CUBE-HUAWEI/Middlewares/Third_Party/Huawei/iot_link/os/liteos/base/ipc\los_mux.c **** {
  67:D:/fchai/work/i-cube/I-CUBE-HUAWEI/Middlewares/Third_Party/Huawei/iot_link/os/liteos/base/ipc\los_mux.c ****     MUX_CB_S *pstMuxNode;
  68:D:/fchai/work/i-cube/I-CUBE-HUAWEI/Middlewares/Third_Party/Huawei/iot_link/os/liteos/base/ipc\los_mux.c ****     UINT32   uwIndex;
  69:D:/fchai/work/i-cube/I-CUBE-HUAWEI/Middlewares/Third_Party/Huawei/iot_link/os/liteos/base/ipc\los_mux.c **** 
  70:D:/fchai/work/i-cube/I-CUBE-HUAWEI/Middlewares/Third_Party/Huawei/iot_link/os/liteos/base/ipc\los_mux.c ****     static MUX_CB_S s_astAllMux [LOSCFG_BASE_IPC_MUX_LIMIT];
  71:D:/fchai/work/i-cube/I-CUBE-HUAWEI/Middlewares/Third_Party/Huawei/iot_link/os/liteos/base/ipc\los_mux.c **** 
  72:D:/fchai/work/i-cube/I-CUBE-HUAWEI/Middlewares/Third_Party/Huawei/iot_link/os/liteos/base/ipc\los_mux.c ****     if (g_pstAllMux != NULL)
  73:D:/fchai/work/i-cube/I-CUBE-HUAWEI/Middlewares/Third_Party/Huawei/iot_link/os/liteos/base/ipc\los_mux.c ****         {
  74:D:/fchai/work/i-cube/I-CUBE-HUAWEI/Middlewares/Third_Party/Huawei/iot_link/os/liteos/base/ipc\los_mux.c ****         return LOS_OK;
  75:D:/fchai/work/i-cube/I-CUBE-HUAWEI/Middlewares/Third_Party/Huawei/iot_link/os/liteos/base/ipc\los_mux.c ****         }
  76:D:/fchai/work/i-cube/I-CUBE-HUAWEI/Middlewares/Third_Party/Huawei/iot_link/os/liteos/base/ipc\los_mux.c **** 
  77:D:/fchai/work/i-cube/I-CUBE-HUAWEI/Middlewares/Third_Party/Huawei/iot_link/os/liteos/base/ipc\los_mux.c ****     g_pstAllMux = s_astAllMux;
  34              		.loc 1 77 5 view .LVU1
  35              	.LBB32:
  36              	.LBB33:
  37              		.file 2 "D:/fchai/work/i-cube/I-CUBE-HUAWEI/Middlewares/Third_Party/Huawei/iot_link/os/liteos/incl
   1:D:/fchai/work/i-cube/I-CUBE-HUAWEI/Middlewares/Third_Party/Huawei/iot_link/os/liteos/include\los_list.h **** /*----------------------------------------------------------------------------
ARM GAS  T:\msys\tmp\ccccxHvg.s 			page 3


   2:D:/fchai/work/i-cube/I-CUBE-HUAWEI/Middlewares/Third_Party/Huawei/iot_link/os/liteos/include\los_list.h ****  * Copyright (c) <2013-2015>, <Huawei Technologies Co., Ltd>
   3:D:/fchai/work/i-cube/I-CUBE-HUAWEI/Middlewares/Third_Party/Huawei/iot_link/os/liteos/include\los_list.h ****  * All rights reserved.
   4:D:/fchai/work/i-cube/I-CUBE-HUAWEI/Middlewares/Third_Party/Huawei/iot_link/os/liteos/include\los_list.h ****  * Redistribution and use in source and binary forms, with or without modification,
   5:D:/fchai/work/i-cube/I-CUBE-HUAWEI/Middlewares/Third_Party/Huawei/iot_link/os/liteos/include\los_list.h ****  * are permitted provided that the following conditions are met:
   6:D:/fchai/work/i-cube/I-CUBE-HUAWEI/Middlewares/Third_Party/Huawei/iot_link/os/liteos/include\los_list.h ****  * 1. Redistributions of source code must retain the above copyright notice, this list of
   7:D:/fchai/work/i-cube/I-CUBE-HUAWEI/Middlewares/Third_Party/Huawei/iot_link/os/liteos/include\los_list.h ****  * conditions and the following disclaimer.
   8:D:/fchai/work/i-cube/I-CUBE-HUAWEI/Middlewares/Third_Party/Huawei/iot_link/os/liteos/include\los_list.h ****  * 2. Redistributions in binary form must reproduce the above copyright notice, this list
   9:D:/fchai/work/i-cube/I-CUBE-HUAWEI/Middlewares/Third_Party/Huawei/iot_link/os/liteos/include\los_list.h ****  * of conditions and the following disclaimer in the documentation and/or other materials
  10:D:/fchai/work/i-cube/I-CUBE-HUAWEI/Middlewares/Third_Party/Huawei/iot_link/os/liteos/include\los_list.h ****  * provided with the distribution.
  11:D:/fchai/work/i-cube/I-CUBE-HUAWEI/Middlewares/Third_Party/Huawei/iot_link/os/liteos/include\los_list.h ****  * 3. Neither the name of the copyright holder nor the names of its contributors may be used
  12:D:/fchai/work/i-cube/I-CUBE-HUAWEI/Middlewares/Third_Party/Huawei/iot_link/os/liteos/include\los_list.h ****  * to endorse or promote products derived from this software without specific prior written
  13:D:/fchai/work/i-cube/I-CUBE-HUAWEI/Middlewares/Third_Party/Huawei/iot_link/os/liteos/include\los_list.h ****  * permission.
  14:D:/fchai/work/i-cube/I-CUBE-HUAWEI/Middlewares/Third_Party/Huawei/iot_link/os/liteos/include\los_list.h ****  * THIS SOFTWARE IS PROVIDED BY THE COPYRIGHT HOLDERS AND CONTRIBUTORS
  15:D:/fchai/work/i-cube/I-CUBE-HUAWEI/Middlewares/Third_Party/Huawei/iot_link/os/liteos/include\los_list.h ****  * "AS IS" AND ANY EXPRESS OR IMPLIED WARRANTIES, INCLUDING, BUT NOT LIMITED TO,
  16:D:/fchai/work/i-cube/I-CUBE-HUAWEI/Middlewares/Third_Party/Huawei/iot_link/os/liteos/include\los_list.h ****  * THE IMPLIED WARRANTIES OF MERCHANTABILITY AND FITNESS FOR A PARTICULAR
  17:D:/fchai/work/i-cube/I-CUBE-HUAWEI/Middlewares/Third_Party/Huawei/iot_link/os/liteos/include\los_list.h ****  * PURPOSE ARE DISCLAIMED. IN NO EVENT SHALL THE COPYRIGHT HOLDER OR
  18:D:/fchai/work/i-cube/I-CUBE-HUAWEI/Middlewares/Third_Party/Huawei/iot_link/os/liteos/include\los_list.h ****  * CONTRIBUTORS BE LIABLE FOR ANY DIRECT, INDIRECT, INCIDENTAL, SPECIAL,
  19:D:/fchai/work/i-cube/I-CUBE-HUAWEI/Middlewares/Third_Party/Huawei/iot_link/os/liteos/include\los_list.h ****  * EXEMPLARY, OR CONSEQUENTIAL DAMAGES (INCLUDING, BUT NOT LIMITED TO,
  20:D:/fchai/work/i-cube/I-CUBE-HUAWEI/Middlewares/Third_Party/Huawei/iot_link/os/liteos/include\los_list.h ****  * PROCUREMENT OF SUBSTITUTE GOODS OR SERVICES; LOSS OF USE, DATA, OR PROFITS;
  21:D:/fchai/work/i-cube/I-CUBE-HUAWEI/Middlewares/Third_Party/Huawei/iot_link/os/liteos/include\los_list.h ****  * OR BUSINESS INTERRUPTION) HOWEVER CAUSED AND ON ANY THEORY OF LIABILITY,
  22:D:/fchai/work/i-cube/I-CUBE-HUAWEI/Middlewares/Third_Party/Huawei/iot_link/os/liteos/include\los_list.h ****  * WHETHER IN CONTRACT, STRICT LIABILITY, OR TORT (INCLUDING NEGLIGENCE OR
  23:D:/fchai/work/i-cube/I-CUBE-HUAWEI/Middlewares/Third_Party/Huawei/iot_link/os/liteos/include\los_list.h ****  * OTHERWISE) ARISING IN ANY WAY OUT OF THE USE OF THIS SOFTWARE, EVEN IF
  24:D:/fchai/work/i-cube/I-CUBE-HUAWEI/Middlewares/Third_Party/Huawei/iot_link/os/liteos/include\los_list.h ****  * ADVISED OF THE POSSIBILITY OF SUCH DAMAGE.
  25:D:/fchai/work/i-cube/I-CUBE-HUAWEI/Middlewares/Third_Party/Huawei/iot_link/os/liteos/include\los_list.h ****  *---------------------------------------------------------------------------*/
  26:D:/fchai/work/i-cube/I-CUBE-HUAWEI/Middlewares/Third_Party/Huawei/iot_link/os/liteos/include\los_list.h **** /*----------------------------------------------------------------------------
  27:D:/fchai/work/i-cube/I-CUBE-HUAWEI/Middlewares/Third_Party/Huawei/iot_link/os/liteos/include\los_list.h ****  * Notice of Export Control Law
  28:D:/fchai/work/i-cube/I-CUBE-HUAWEI/Middlewares/Third_Party/Huawei/iot_link/os/liteos/include\los_list.h ****  * ===============================================
  29:D:/fchai/work/i-cube/I-CUBE-HUAWEI/Middlewares/Third_Party/Huawei/iot_link/os/liteos/include\los_list.h ****  * Huawei LiteOS may be subject to applicable export control laws and regulations, which might
  30:D:/fchai/work/i-cube/I-CUBE-HUAWEI/Middlewares/Third_Party/Huawei/iot_link/os/liteos/include\los_list.h ****  * include those applicable to Huawei LiteOS of U.S. and the country in which you are located.
  31:D:/fchai/work/i-cube/I-CUBE-HUAWEI/Middlewares/Third_Party/Huawei/iot_link/os/liteos/include\los_list.h ****  * Import, export and usage of Huawei LiteOS in any manner by you shall be in compliance with such
  32:D:/fchai/work/i-cube/I-CUBE-HUAWEI/Middlewares/Third_Party/Huawei/iot_link/os/liteos/include\los_list.h ****  * applicable export control laws and regulations.
  33:D:/fchai/work/i-cube/I-CUBE-HUAWEI/Middlewares/Third_Party/Huawei/iot_link/os/liteos/include\los_list.h ****  *---------------------------------------------------------------------------*/
  34:D:/fchai/work/i-cube/I-CUBE-HUAWEI/Middlewares/Third_Party/Huawei/iot_link/os/liteos/include\los_list.h **** 
  35:D:/fchai/work/i-cube/I-CUBE-HUAWEI/Middlewares/Third_Party/Huawei/iot_link/os/liteos/include\los_list.h ****  /** @defgroup los_list Doubly linked list
  36:D:/fchai/work/i-cube/I-CUBE-HUAWEI/Middlewares/Third_Party/Huawei/iot_link/os/liteos/include\los_list.h ****  * @ingroup kernel
  37:D:/fchai/work/i-cube/I-CUBE-HUAWEI/Middlewares/Third_Party/Huawei/iot_link/os/liteos/include\los_list.h ****  */
  38:D:/fchai/work/i-cube/I-CUBE-HUAWEI/Middlewares/Third_Party/Huawei/iot_link/os/liteos/include\los_list.h **** 
  39:D:/fchai/work/i-cube/I-CUBE-HUAWEI/Middlewares/Third_Party/Huawei/iot_link/os/liteos/include\los_list.h **** #ifndef _LOS_LIST_H
  40:D:/fchai/work/i-cube/I-CUBE-HUAWEI/Middlewares/Third_Party/Huawei/iot_link/os/liteos/include\los_list.h **** #define _LOS_LIST_H
  41:D:/fchai/work/i-cube/I-CUBE-HUAWEI/Middlewares/Third_Party/Huawei/iot_link/os/liteos/include\los_list.h **** 
  42:D:/fchai/work/i-cube/I-CUBE-HUAWEI/Middlewares/Third_Party/Huawei/iot_link/os/liteos/include\los_list.h **** #include "los_typedef.h"
  43:D:/fchai/work/i-cube/I-CUBE-HUAWEI/Middlewares/Third_Party/Huawei/iot_link/os/liteos/include\los_list.h **** 
  44:D:/fchai/work/i-cube/I-CUBE-HUAWEI/Middlewares/Third_Party/Huawei/iot_link/os/liteos/include\los_list.h **** #ifdef __cplusplus
  45:D:/fchai/work/i-cube/I-CUBE-HUAWEI/Middlewares/Third_Party/Huawei/iot_link/os/liteos/include\los_list.h **** #if __cplusplus
  46:D:/fchai/work/i-cube/I-CUBE-HUAWEI/Middlewares/Third_Party/Huawei/iot_link/os/liteos/include\los_list.h **** extern "C" {
  47:D:/fchai/work/i-cube/I-CUBE-HUAWEI/Middlewares/Third_Party/Huawei/iot_link/os/liteos/include\los_list.h **** #endif /* __cplusplus */
  48:D:/fchai/work/i-cube/I-CUBE-HUAWEI/Middlewares/Third_Party/Huawei/iot_link/os/liteos/include\los_list.h **** #endif /* __cplusplus */
  49:D:/fchai/work/i-cube/I-CUBE-HUAWEI/Middlewares/Third_Party/Huawei/iot_link/os/liteos/include\los_list.h **** 
  50:D:/fchai/work/i-cube/I-CUBE-HUAWEI/Middlewares/Third_Party/Huawei/iot_link/os/liteos/include\los_list.h **** 
  51:D:/fchai/work/i-cube/I-CUBE-HUAWEI/Middlewares/Third_Party/Huawei/iot_link/os/liteos/include\los_list.h **** /**
  52:D:/fchai/work/i-cube/I-CUBE-HUAWEI/Middlewares/Third_Party/Huawei/iot_link/os/liteos/include\los_list.h ****  *@ingroup los_list
  53:D:/fchai/work/i-cube/I-CUBE-HUAWEI/Middlewares/Third_Party/Huawei/iot_link/os/liteos/include\los_list.h ****  *Structure of a node in a doubly linked list.
  54:D:/fchai/work/i-cube/I-CUBE-HUAWEI/Middlewares/Third_Party/Huawei/iot_link/os/liteos/include\los_list.h ****  */
  55:D:/fchai/work/i-cube/I-CUBE-HUAWEI/Middlewares/Third_Party/Huawei/iot_link/os/liteos/include\los_list.h **** typedef struct LOS_DL_LIST
  56:D:/fchai/work/i-cube/I-CUBE-HUAWEI/Middlewares/Third_Party/Huawei/iot_link/os/liteos/include\los_list.h **** {
  57:D:/fchai/work/i-cube/I-CUBE-HUAWEI/Middlewares/Third_Party/Huawei/iot_link/os/liteos/include\los_list.h ****     struct LOS_DL_LIST *pstPrev;            /**< Current node's pointer to the previous node*/
  58:D:/fchai/work/i-cube/I-CUBE-HUAWEI/Middlewares/Third_Party/Huawei/iot_link/os/liteos/include\los_list.h ****     struct LOS_DL_LIST *pstNext;            /**< Current node's pointer to the next node*/
ARM GAS  T:\msys\tmp\ccccxHvg.s 			page 4


  59:D:/fchai/work/i-cube/I-CUBE-HUAWEI/Middlewares/Third_Party/Huawei/iot_link/os/liteos/include\los_list.h **** } LOS_DL_LIST;
  60:D:/fchai/work/i-cube/I-CUBE-HUAWEI/Middlewares/Third_Party/Huawei/iot_link/os/liteos/include\los_list.h **** 
  61:D:/fchai/work/i-cube/I-CUBE-HUAWEI/Middlewares/Third_Party/Huawei/iot_link/os/liteos/include\los_list.h **** /**
  62:D:/fchai/work/i-cube/I-CUBE-HUAWEI/Middlewares/Third_Party/Huawei/iot_link/os/liteos/include\los_list.h ****  *@ingroup los_list
  63:D:/fchai/work/i-cube/I-CUBE-HUAWEI/Middlewares/Third_Party/Huawei/iot_link/os/liteos/include\los_list.h ****  *@brief Initialize a doubly linked list.
  64:D:/fchai/work/i-cube/I-CUBE-HUAWEI/Middlewares/Third_Party/Huawei/iot_link/os/liteos/include\los_list.h ****  *
  65:D:/fchai/work/i-cube/I-CUBE-HUAWEI/Middlewares/Third_Party/Huawei/iot_link/os/liteos/include\los_list.h ****  *@par Description:
  66:D:/fchai/work/i-cube/I-CUBE-HUAWEI/Middlewares/Third_Party/Huawei/iot_link/os/liteos/include\los_list.h ****  *This API is used to initialize a doubly linked list.
  67:D:/fchai/work/i-cube/I-CUBE-HUAWEI/Middlewares/Third_Party/Huawei/iot_link/os/liteos/include\los_list.h ****  *@attention
  68:D:/fchai/work/i-cube/I-CUBE-HUAWEI/Middlewares/Third_Party/Huawei/iot_link/os/liteos/include\los_list.h ****  *<ul>
  69:D:/fchai/work/i-cube/I-CUBE-HUAWEI/Middlewares/Third_Party/Huawei/iot_link/os/liteos/include\los_list.h ****  *<li>The parameter passed in should be ensured to be a legal pointer.</li>
  70:D:/fchai/work/i-cube/I-CUBE-HUAWEI/Middlewares/Third_Party/Huawei/iot_link/os/liteos/include\los_list.h ****  *</ul>
  71:D:/fchai/work/i-cube/I-CUBE-HUAWEI/Middlewares/Third_Party/Huawei/iot_link/os/liteos/include\los_list.h ****  *
  72:D:/fchai/work/i-cube/I-CUBE-HUAWEI/Middlewares/Third_Party/Huawei/iot_link/os/liteos/include\los_list.h ****  *@param pstList    [IN] Node in a doubly linked list.
  73:D:/fchai/work/i-cube/I-CUBE-HUAWEI/Middlewares/Third_Party/Huawei/iot_link/os/liteos/include\los_list.h ****  *
  74:D:/fchai/work/i-cube/I-CUBE-HUAWEI/Middlewares/Third_Party/Huawei/iot_link/os/liteos/include\los_list.h ****  *@retval None.
  75:D:/fchai/work/i-cube/I-CUBE-HUAWEI/Middlewares/Third_Party/Huawei/iot_link/os/liteos/include\los_list.h ****  *@par Dependency:
  76:D:/fchai/work/i-cube/I-CUBE-HUAWEI/Middlewares/Third_Party/Huawei/iot_link/os/liteos/include\los_list.h ****  *<ul><li>los_list.h: the header file that contains the API declaration.</li></ul>
  77:D:/fchai/work/i-cube/I-CUBE-HUAWEI/Middlewares/Third_Party/Huawei/iot_link/os/liteos/include\los_list.h ****  *@see
  78:D:/fchai/work/i-cube/I-CUBE-HUAWEI/Middlewares/Third_Party/Huawei/iot_link/os/liteos/include\los_list.h ****  *@since Huawei LiteOS V100R001C00
  79:D:/fchai/work/i-cube/I-CUBE-HUAWEI/Middlewares/Third_Party/Huawei/iot_link/os/liteos/include\los_list.h ****  */
  80:D:/fchai/work/i-cube/I-CUBE-HUAWEI/Middlewares/Third_Party/Huawei/iot_link/os/liteos/include\los_list.h **** LITE_OS_SEC_ALW_INLINE STATIC_INLINE VOID LOS_ListInit(LOS_DL_LIST *pstList)
  81:D:/fchai/work/i-cube/I-CUBE-HUAWEI/Middlewares/Third_Party/Huawei/iot_link/os/liteos/include\los_list.h **** {
  82:D:/fchai/work/i-cube/I-CUBE-HUAWEI/Middlewares/Third_Party/Huawei/iot_link/os/liteos/include\los_list.h ****     pstList->pstNext = pstList;
  38              		.loc 2 82 22 is_stmt 0 view .LVU2
  39 0000 0E49     		ldr	r1, .L8
  40              	.LBE33:
  41              	.LBE32:
  42              		.loc 1 77 17 view .LVU3
  43 0002 0F4B     		ldr	r3, .L8+4
  44 0004 0F48     		ldr	r0, .L8+8
  78:D:/fchai/work/i-cube/I-CUBE-HUAWEI/Middlewares/Third_Party/Huawei/iot_link/os/liteos/base/ipc\los_mux.c **** 
  79:D:/fchai/work/i-cube/I-CUBE-HUAWEI/Middlewares/Third_Party/Huawei/iot_link/os/liteos/base/ipc\los_mux.c ****     LOS_ListInit(&g_stUnusedMuxList);
  80:D:/fchai/work/i-cube/I-CUBE-HUAWEI/Middlewares/Third_Party/Huawei/iot_link/os/liteos/base/ipc\los_mux.c **** 
  81:D:/fchai/work/i-cube/I-CUBE-HUAWEI/Middlewares/Third_Party/Huawei/iot_link/os/liteos/base/ipc\los_mux.c ****     if (LOSCFG_BASE_IPC_MUX_LIMIT == 0)   /*lint !e506*/
  82:D:/fchai/work/i-cube/I-CUBE-HUAWEI/Middlewares/Third_Party/Huawei/iot_link/os/liteos/base/ipc\los_mux.c ****     {
  83:D:/fchai/work/i-cube/I-CUBE-HUAWEI/Middlewares/Third_Party/Huawei/iot_link/os/liteos/base/ipc\los_mux.c ****         return LOS_ERRNO_MUX_MAXNUM_ZERO;
  84:D:/fchai/work/i-cube/I-CUBE-HUAWEI/Middlewares/Third_Party/Huawei/iot_link/os/liteos/base/ipc\los_mux.c ****     }
  85:D:/fchai/work/i-cube/I-CUBE-HUAWEI/Middlewares/Third_Party/Huawei/iot_link/os/liteos/base/ipc\los_mux.c **** 
  86:D:/fchai/work/i-cube/I-CUBE-HUAWEI/Middlewares/Third_Party/Huawei/iot_link/os/liteos/base/ipc\los_mux.c ****     for (uwIndex = 0; uwIndex < LOSCFG_BASE_IPC_MUX_LIMIT; uwIndex++)
  45              		.loc 1 86 18 view .LVU4
  46 0006 0022     		movs	r2, #0
  65:D:/fchai/work/i-cube/I-CUBE-HUAWEI/Middlewares/Third_Party/Huawei/iot_link/os/liteos/base/ipc\los_mux.c **** {
  47              		.loc 1 65 30 view .LVU5
  48 0008 30B4     		push	{r4, r5}
  49              	.LCFI0:
  50              		.cfi_def_cfa_offset 8
  51              		.cfi_offset 4, -8
  52              		.cfi_offset 5, -4
  77:D:/fchai/work/i-cube/I-CUBE-HUAWEI/Middlewares/Third_Party/Huawei/iot_link/os/liteos/base/ipc\los_mux.c **** 
  53              		.loc 1 77 17 view .LVU6
  54 000a 0360     		str	r3, [r0]
  79:D:/fchai/work/i-cube/I-CUBE-HUAWEI/Middlewares/Third_Party/Huawei/iot_link/os/liteos/base/ipc\los_mux.c **** 
  55              		.loc 1 79 5 is_stmt 1 view .LVU7
  56              	.LVL0:
  57              	.LBB36:
  58              	.LBI32:
ARM GAS  T:\msys\tmp\ccccxHvg.s 			page 5


  80:D:/fchai/work/i-cube/I-CUBE-HUAWEI/Middlewares/Third_Party/Huawei/iot_link/os/liteos/include\los_list.h **** {
  59              		.loc 2 80 43 view .LVU8
  60              	.LBB34:
  61              		.loc 2 82 5 view .LVU9
  83:D:/fchai/work/i-cube/I-CUBE-HUAWEI/Middlewares/Third_Party/Huawei/iot_link/os/liteos/include\los_list.h ****     pstList->pstPrev = pstList;
  62              		.loc 2 83 5 view .LVU10
  63              		.loc 2 83 5 is_stmt 0 view .LVU11
  64              	.LBE34:
  65              	.LBE36:
  81:D:/fchai/work/i-cube/I-CUBE-HUAWEI/Middlewares/Third_Party/Huawei/iot_link/os/liteos/base/ipc\los_mux.c ****     {
  66              		.loc 1 81 5 is_stmt 1 view .LVU12
  67              		.loc 1 86 5 view .LVU13
  68              		.loc 1 86 23 view .LVU14
  69              	.LBB37:
  70              	.LBB35:
  82:D:/fchai/work/i-cube/I-CUBE-HUAWEI/Middlewares/Third_Party/Huawei/iot_link/os/liteos/include\los_list.h ****     pstList->pstPrev = pstList;
  71              		.loc 2 82 22 is_stmt 0 view .LVU15
  72 000c 4960     		str	r1, [r1, #4]
  73              		.loc 2 83 22 view .LVU16
  74 000e 0D46     		mov	r5, r1
  75 0010 0960     		str	r1, [r1]
  76 0012 0833     		adds	r3, r3, #8
  77              	.LBE35:
  78              	.LBE37:
  87:D:/fchai/work/i-cube/I-CUBE-HUAWEI/Middlewares/Third_Party/Huawei/iot_link/os/liteos/base/ipc\los_mux.c ****     {
  88:D:/fchai/work/i-cube/I-CUBE-HUAWEI/Middlewares/Third_Party/Huawei/iot_link/os/liteos/base/ipc\los_mux.c ****         pstMuxNode              = ((MUX_CB_S *)g_pstAllMux) + uwIndex;
  89:D:/fchai/work/i-cube/I-CUBE-HUAWEI/Middlewares/Third_Party/Huawei/iot_link/os/liteos/base/ipc\los_mux.c ****         pstMuxNode->ucMuxID     = uwIndex;
  90:D:/fchai/work/i-cube/I-CUBE-HUAWEI/Middlewares/Third_Party/Huawei/iot_link/os/liteos/base/ipc\los_mux.c ****         pstMuxNode->ucMuxStat   = OS_MUX_UNUSED;
  79              		.loc 1 90 33 view .LVU17
  80 0014 1446     		mov	r4, r2
  81 0016 00E0     		b	.L3
  82              	.LVL1:
  83              	.L7:
  84              		.loc 1 90 33 view .LVU18
  85 0018 2968     		ldr	r1, [r5]
  86              	.LVL2:
  87              	.L3:
  88:D:/fchai/work/i-cube/I-CUBE-HUAWEI/Middlewares/Third_Party/Huawei/iot_link/os/liteos/base/ipc\los_mux.c ****         pstMuxNode->ucMuxID     = uwIndex;
  88              		.loc 1 88 9 is_stmt 1 view .LVU19
  89:D:/fchai/work/i-cube/I-CUBE-HUAWEI/Middlewares/Third_Party/Huawei/iot_link/os/liteos/base/ipc\los_mux.c ****         pstMuxNode->ucMuxStat   = OS_MUX_UNUSED;
  89              		.loc 1 89 9 view .LVU20
  90              		.loc 1 90 33 is_stmt 0 view .LVU21
  91 001a 03F8084C 		strb	r4, [r3, #-8]
  92              	.LBB38:
  93              	.LBB39:
  94              	.LBB40:
  84:D:/fchai/work/i-cube/I-CUBE-HUAWEI/Middlewares/Third_Party/Huawei/iot_link/os/liteos/include\los_list.h **** }
  85:D:/fchai/work/i-cube/I-CUBE-HUAWEI/Middlewares/Third_Party/Huawei/iot_link/os/liteos/include\los_list.h **** 
  86:D:/fchai/work/i-cube/I-CUBE-HUAWEI/Middlewares/Third_Party/Huawei/iot_link/os/liteos/include\los_list.h **** /**
  87:D:/fchai/work/i-cube/I-CUBE-HUAWEI/Middlewares/Third_Party/Huawei/iot_link/os/liteos/include\los_list.h ****  *@ingroup los_list
  88:D:/fchai/work/i-cube/I-CUBE-HUAWEI/Middlewares/Third_Party/Huawei/iot_link/os/liteos/include\los_list.h ****  *@brief Point to the next node pointed to by the current node.
  89:D:/fchai/work/i-cube/I-CUBE-HUAWEI/Middlewares/Third_Party/Huawei/iot_link/os/liteos/include\los_list.h ****  *
  90:D:/fchai/work/i-cube/I-CUBE-HUAWEI/Middlewares/Third_Party/Huawei/iot_link/os/liteos/include\los_list.h ****  *@par Description:
  91:D:/fchai/work/i-cube/I-CUBE-HUAWEI/Middlewares/Third_Party/Huawei/iot_link/os/liteos/include\los_list.h ****  *<ul>
  92:D:/fchai/work/i-cube/I-CUBE-HUAWEI/Middlewares/Third_Party/Huawei/iot_link/os/liteos/include\los_list.h ****  *<li>This API is used to point to the next node pointed to by the current node.</li>
  93:D:/fchai/work/i-cube/I-CUBE-HUAWEI/Middlewares/Third_Party/Huawei/iot_link/os/liteos/include\los_list.h ****  *</ul>
  94:D:/fchai/work/i-cube/I-CUBE-HUAWEI/Middlewares/Third_Party/Huawei/iot_link/os/liteos/include\los_list.h ****  *@attention
ARM GAS  T:\msys\tmp\ccccxHvg.s 			page 6


  95:D:/fchai/work/i-cube/I-CUBE-HUAWEI/Middlewares/Third_Party/Huawei/iot_link/os/liteos/include\los_list.h ****  *<ul>
  96:D:/fchai/work/i-cube/I-CUBE-HUAWEI/Middlewares/Third_Party/Huawei/iot_link/os/liteos/include\los_list.h ****  *<li>None.</li>
  97:D:/fchai/work/i-cube/I-CUBE-HUAWEI/Middlewares/Third_Party/Huawei/iot_link/os/liteos/include\los_list.h ****  *</ul>
  98:D:/fchai/work/i-cube/I-CUBE-HUAWEI/Middlewares/Third_Party/Huawei/iot_link/os/liteos/include\los_list.h ****  *
  99:D:/fchai/work/i-cube/I-CUBE-HUAWEI/Middlewares/Third_Party/Huawei/iot_link/os/liteos/include\los_list.h ****  *@param pstObject  [IN] Node in the doubly linked list.
 100:D:/fchai/work/i-cube/I-CUBE-HUAWEI/Middlewares/Third_Party/Huawei/iot_link/os/liteos/include\los_list.h ****  *
 101:D:/fchai/work/i-cube/I-CUBE-HUAWEI/Middlewares/Third_Party/Huawei/iot_link/os/liteos/include\los_list.h ****  *@retval None.
 102:D:/fchai/work/i-cube/I-CUBE-HUAWEI/Middlewares/Third_Party/Huawei/iot_link/os/liteos/include\los_list.h ****  *@par Dependency:
 103:D:/fchai/work/i-cube/I-CUBE-HUAWEI/Middlewares/Third_Party/Huawei/iot_link/os/liteos/include\los_list.h ****  *<ul><li>los_list.h: the header file that contains the API declaration.</li></ul>
 104:D:/fchai/work/i-cube/I-CUBE-HUAWEI/Middlewares/Third_Party/Huawei/iot_link/os/liteos/include\los_list.h ****  *@see
 105:D:/fchai/work/i-cube/I-CUBE-HUAWEI/Middlewares/Third_Party/Huawei/iot_link/os/liteos/include\los_list.h ****  *@since Huawei LiteOS V100R001C00
 106:D:/fchai/work/i-cube/I-CUBE-HUAWEI/Middlewares/Third_Party/Huawei/iot_link/os/liteos/include\los_list.h ****  */
 107:D:/fchai/work/i-cube/I-CUBE-HUAWEI/Middlewares/Third_Party/Huawei/iot_link/os/liteos/include\los_list.h **** #define LOS_DL_LIST_FIRST(pstObject) ((pstObject)->pstNext)
 108:D:/fchai/work/i-cube/I-CUBE-HUAWEI/Middlewares/Third_Party/Huawei/iot_link/os/liteos/include\los_list.h **** 
 109:D:/fchai/work/i-cube/I-CUBE-HUAWEI/Middlewares/Third_Party/Huawei/iot_link/os/liteos/include\los_list.h **** /**
 110:D:/fchai/work/i-cube/I-CUBE-HUAWEI/Middlewares/Third_Party/Huawei/iot_link/os/liteos/include\los_list.h ****  *@ingroup los_list
 111:D:/fchai/work/i-cube/I-CUBE-HUAWEI/Middlewares/Third_Party/Huawei/iot_link/os/liteos/include\los_list.h ****  *@brief Insert a new node to a doubly linked list.
 112:D:/fchai/work/i-cube/I-CUBE-HUAWEI/Middlewares/Third_Party/Huawei/iot_link/os/liteos/include\los_list.h ****  *
 113:D:/fchai/work/i-cube/I-CUBE-HUAWEI/Middlewares/Third_Party/Huawei/iot_link/os/liteos/include\los_list.h ****  *@par Description:
 114:D:/fchai/work/i-cube/I-CUBE-HUAWEI/Middlewares/Third_Party/Huawei/iot_link/os/liteos/include\los_list.h ****  *This API is used to insert a new node to a doubly linked list.
 115:D:/fchai/work/i-cube/I-CUBE-HUAWEI/Middlewares/Third_Party/Huawei/iot_link/os/liteos/include\los_list.h ****  *@attention
 116:D:/fchai/work/i-cube/I-CUBE-HUAWEI/Middlewares/Third_Party/Huawei/iot_link/os/liteos/include\los_list.h ****  *<ul>
 117:D:/fchai/work/i-cube/I-CUBE-HUAWEI/Middlewares/Third_Party/Huawei/iot_link/os/liteos/include\los_list.h ****  *<li>The parameters passed in should be ensured to be legal pointers.</li>
 118:D:/fchai/work/i-cube/I-CUBE-HUAWEI/Middlewares/Third_Party/Huawei/iot_link/os/liteos/include\los_list.h ****  *</ul>
 119:D:/fchai/work/i-cube/I-CUBE-HUAWEI/Middlewares/Third_Party/Huawei/iot_link/os/liteos/include\los_list.h ****  *
 120:D:/fchai/work/i-cube/I-CUBE-HUAWEI/Middlewares/Third_Party/Huawei/iot_link/os/liteos/include\los_list.h ****  *@param pstList    [IN]   Doubly linked list where the new node is inserted.
 121:D:/fchai/work/i-cube/I-CUBE-HUAWEI/Middlewares/Third_Party/Huawei/iot_link/os/liteos/include\los_list.h ****  *@param pstNode    [IN]   New node to be inserted.
 122:D:/fchai/work/i-cube/I-CUBE-HUAWEI/Middlewares/Third_Party/Huawei/iot_link/os/liteos/include\los_list.h ****  *
 123:D:/fchai/work/i-cube/I-CUBE-HUAWEI/Middlewares/Third_Party/Huawei/iot_link/os/liteos/include\los_list.h ****  *@retval None
 124:D:/fchai/work/i-cube/I-CUBE-HUAWEI/Middlewares/Third_Party/Huawei/iot_link/os/liteos/include\los_list.h ****  *@par Dependency:
 125:D:/fchai/work/i-cube/I-CUBE-HUAWEI/Middlewares/Third_Party/Huawei/iot_link/os/liteos/include\los_list.h ****  *<ul><li>los_list.h: the header file that contains the API declaration.</li></ul>
 126:D:/fchai/work/i-cube/I-CUBE-HUAWEI/Middlewares/Third_Party/Huawei/iot_link/os/liteos/include\los_list.h ****  *@see LOS_ListDelete
 127:D:/fchai/work/i-cube/I-CUBE-HUAWEI/Middlewares/Third_Party/Huawei/iot_link/os/liteos/include\los_list.h ****  *@since Huawei LiteOS V100R001C00
 128:D:/fchai/work/i-cube/I-CUBE-HUAWEI/Middlewares/Third_Party/Huawei/iot_link/os/liteos/include\los_list.h ****  */
 129:D:/fchai/work/i-cube/I-CUBE-HUAWEI/Middlewares/Third_Party/Huawei/iot_link/os/liteos/include\los_list.h **** LITE_OS_SEC_ALW_INLINE STATIC_INLINE VOID LOS_ListAdd(LOS_DL_LIST *pstList, LOS_DL_LIST *pstNode)
 130:D:/fchai/work/i-cube/I-CUBE-HUAWEI/Middlewares/Third_Party/Huawei/iot_link/os/liteos/include\los_list.h **** {
 131:D:/fchai/work/i-cube/I-CUBE-HUAWEI/Middlewares/Third_Party/Huawei/iot_link/os/liteos/include\los_list.h ****     pstNode->pstNext = pstList->pstNext;
  95              		.loc 2 131 31 view .LVU22
  96 001e 4868     		ldr	r0, [r1, #4]
  97              	.LBE40:
  98              	.LBE39:
  99              	.LBE38:
  89:D:/fchai/work/i-cube/I-CUBE-HUAWEI/Middlewares/Third_Party/Huawei/iot_link/os/liteos/base/ipc\los_mux.c ****         pstMuxNode->ucMuxStat   = OS_MUX_UNUSED;
 100              		.loc 1 89 33 view .LVU23
 101 0020 43F8042C 		str	r2, [r3, #-4]
 102              		.loc 1 90 9 is_stmt 1 view .LVU24
  91:D:/fchai/work/i-cube/I-CUBE-HUAWEI/Middlewares/Third_Party/Huawei/iot_link/os/liteos/base/ipc\los_mux.c ****         LOS_ListTailInsert(&g_stUnusedMuxList, &pstMuxNode->stMuxList);
 103              		.loc 1 91 9 view .LVU25
 104              	.LVL3:
 105              	.LBB45:
 106              	.LBI38:
 132:D:/fchai/work/i-cube/I-CUBE-HUAWEI/Middlewares/Third_Party/Huawei/iot_link/os/liteos/include\los_list.h ****     pstNode->pstPrev = pstList;
 133:D:/fchai/work/i-cube/I-CUBE-HUAWEI/Middlewares/Third_Party/Huawei/iot_link/os/liteos/include\los_list.h ****     pstList->pstNext->pstPrev = pstNode;
 134:D:/fchai/work/i-cube/I-CUBE-HUAWEI/Middlewares/Third_Party/Huawei/iot_link/os/liteos/include\los_list.h ****     pstList->pstNext = pstNode;
 135:D:/fchai/work/i-cube/I-CUBE-HUAWEI/Middlewares/Third_Party/Huawei/iot_link/os/liteos/include\los_list.h **** }
 136:D:/fchai/work/i-cube/I-CUBE-HUAWEI/Middlewares/Third_Party/Huawei/iot_link/os/liteos/include\los_list.h **** 
 137:D:/fchai/work/i-cube/I-CUBE-HUAWEI/Middlewares/Third_Party/Huawei/iot_link/os/liteos/include\los_list.h **** /**
ARM GAS  T:\msys\tmp\ccccxHvg.s 			page 7


 138:D:/fchai/work/i-cube/I-CUBE-HUAWEI/Middlewares/Third_Party/Huawei/iot_link/os/liteos/include\los_list.h ****  *@ingroup los_list
 139:D:/fchai/work/i-cube/I-CUBE-HUAWEI/Middlewares/Third_Party/Huawei/iot_link/os/liteos/include\los_list.h ****  *@brief Insert a node to the tail of a doubly linked list.
 140:D:/fchai/work/i-cube/I-CUBE-HUAWEI/Middlewares/Third_Party/Huawei/iot_link/os/liteos/include\los_list.h ****  *
 141:D:/fchai/work/i-cube/I-CUBE-HUAWEI/Middlewares/Third_Party/Huawei/iot_link/os/liteos/include\los_list.h ****  *@par Description:
 142:D:/fchai/work/i-cube/I-CUBE-HUAWEI/Middlewares/Third_Party/Huawei/iot_link/os/liteos/include\los_list.h ****  *This API is used to insert a new node to the tail of a doubly linked list.
 143:D:/fchai/work/i-cube/I-CUBE-HUAWEI/Middlewares/Third_Party/Huawei/iot_link/os/liteos/include\los_list.h ****  *@attention
 144:D:/fchai/work/i-cube/I-CUBE-HUAWEI/Middlewares/Third_Party/Huawei/iot_link/os/liteos/include\los_list.h ****  *<ul>
 145:D:/fchai/work/i-cube/I-CUBE-HUAWEI/Middlewares/Third_Party/Huawei/iot_link/os/liteos/include\los_list.h ****  *<li>The parameters passed in should be ensured to be legal pointers.</li>
 146:D:/fchai/work/i-cube/I-CUBE-HUAWEI/Middlewares/Third_Party/Huawei/iot_link/os/liteos/include\los_list.h ****  *</ul>
 147:D:/fchai/work/i-cube/I-CUBE-HUAWEI/Middlewares/Third_Party/Huawei/iot_link/os/liteos/include\los_list.h ****  *
 148:D:/fchai/work/i-cube/I-CUBE-HUAWEI/Middlewares/Third_Party/Huawei/iot_link/os/liteos/include\los_list.h ****  *@param pstList     [IN] Doubly linked list where the new node is inserted.
 149:D:/fchai/work/i-cube/I-CUBE-HUAWEI/Middlewares/Third_Party/Huawei/iot_link/os/liteos/include\los_list.h ****  *@param pstNode     [IN] New node to be inserted.
 150:D:/fchai/work/i-cube/I-CUBE-HUAWEI/Middlewares/Third_Party/Huawei/iot_link/os/liteos/include\los_list.h ****  *
 151:D:/fchai/work/i-cube/I-CUBE-HUAWEI/Middlewares/Third_Party/Huawei/iot_link/os/liteos/include\los_list.h ****  *@retval None.
 152:D:/fchai/work/i-cube/I-CUBE-HUAWEI/Middlewares/Third_Party/Huawei/iot_link/os/liteos/include\los_list.h ****  *@par Dependency:
 153:D:/fchai/work/i-cube/I-CUBE-HUAWEI/Middlewares/Third_Party/Huawei/iot_link/os/liteos/include\los_list.h ****  *<ul><li>los_list.h: the header file that contains the API declaration.</li></ul>
 154:D:/fchai/work/i-cube/I-CUBE-HUAWEI/Middlewares/Third_Party/Huawei/iot_link/os/liteos/include\los_list.h ****  *@see LOS_ListAdd | LOS_ListHeadInsert
 155:D:/fchai/work/i-cube/I-CUBE-HUAWEI/Middlewares/Third_Party/Huawei/iot_link/os/liteos/include\los_list.h ****  *@since Huawei LiteOS V100R001C00
 156:D:/fchai/work/i-cube/I-CUBE-HUAWEI/Middlewares/Third_Party/Huawei/iot_link/os/liteos/include\los_list.h ****  */
 157:D:/fchai/work/i-cube/I-CUBE-HUAWEI/Middlewares/Third_Party/Huawei/iot_link/os/liteos/include\los_list.h **** LITE_OS_SEC_ALW_INLINE STATIC_INLINE VOID LOS_ListTailInsert(LOS_DL_LIST *pstList, LOS_DL_LIST *pst
 107              		.loc 2 157 43 view .LVU26
 108              		.loc 2 157 43 is_stmt 0 view .LVU27
 109              	.LBE45:
 158:D:/fchai/work/i-cube/I-CUBE-HUAWEI/Middlewares/Third_Party/Huawei/iot_link/os/liteos/include\los_list.h **** {
 159:D:/fchai/work/i-cube/I-CUBE-HUAWEI/Middlewares/Third_Party/Huawei/iot_link/os/liteos/include\los_list.h ****     LOS_ListAdd(pstList->pstPrev, pstNode);
 110              		.loc 2 159 5 is_stmt 1 view .LVU28
 111              	.LBB46:
 112              	.LBB43:
 113              	.LBI39:
 129:D:/fchai/work/i-cube/I-CUBE-HUAWEI/Middlewares/Third_Party/Huawei/iot_link/os/liteos/include\los_list.h **** {
 114              		.loc 2 129 43 view .LVU29
 115              	.LBB41:
 131:D:/fchai/work/i-cube/I-CUBE-HUAWEI/Middlewares/Third_Party/Huawei/iot_link/os/liteos/include\los_list.h ****     pstNode->pstPrev = pstList;
 116              		.loc 2 131 5 view .LVU30
 117              	.LBE41:
 118              	.LBE43:
 119              	.LBE46:
  86:D:/fchai/work/i-cube/I-CUBE-HUAWEI/Middlewares/Third_Party/Huawei/iot_link/os/liteos/base/ipc\los_mux.c ****     {
 120              		.loc 1 86 67 is_stmt 0 view .LVU31
 121 0024 0132     		adds	r2, r2, #1
 122              	.LVL4:
  86:D:/fchai/work/i-cube/I-CUBE-HUAWEI/Middlewares/Third_Party/Huawei/iot_link/os/liteos/base/ipc\los_mux.c ****     {
 123              		.loc 1 86 5 view .LVU32
 124 0026 142A     		cmp	r2, #20
 125              	.LBB47:
 126              	.LBB44:
 127              	.LBB42:
 132:D:/fchai/work/i-cube/I-CUBE-HUAWEI/Middlewares/Third_Party/Huawei/iot_link/os/liteos/include\los_list.h ****     pstList->pstNext->pstPrev = pstNode;
 128              		.loc 2 132 22 view .LVU33
 129 0028 C3E90010 		strd	r1, r0, [r3]
 133:D:/fchai/work/i-cube/I-CUBE-HUAWEI/Middlewares/Third_Party/Huawei/iot_link/os/liteos/include\los_list.h ****     pstList->pstNext = pstNode;
 130              		.loc 2 133 5 is_stmt 1 view .LVU34
 133:D:/fchai/work/i-cube/I-CUBE-HUAWEI/Middlewares/Third_Party/Huawei/iot_link/os/liteos/include\los_list.h ****     pstList->pstNext = pstNode;
 131              		.loc 2 133 31 is_stmt 0 view .LVU35
 132 002c 0360     		str	r3, [r0]
 133              	.LVL5:
 134:D:/fchai/work/i-cube/I-CUBE-HUAWEI/Middlewares/Third_Party/Huawei/iot_link/os/liteos/include\los_list.h **** }
ARM GAS  T:\msys\tmp\ccccxHvg.s 			page 8


 134              		.loc 2 134 5 is_stmt 1 view .LVU36
 134:D:/fchai/work/i-cube/I-CUBE-HUAWEI/Middlewares/Third_Party/Huawei/iot_link/os/liteos/include\los_list.h **** }
 135              		.loc 2 134 22 is_stmt 0 view .LVU37
 136 002e 4B60     		str	r3, [r1, #4]
 137              	.LVL6:
 134:D:/fchai/work/i-cube/I-CUBE-HUAWEI/Middlewares/Third_Party/Huawei/iot_link/os/liteos/include\los_list.h **** }
 138              		.loc 2 134 22 view .LVU38
 139              	.LBE42:
 140              	.LBE44:
 141              	.LBE47:
  86:D:/fchai/work/i-cube/I-CUBE-HUAWEI/Middlewares/Third_Party/Huawei/iot_link/os/liteos/base/ipc\los_mux.c ****     {
 142              		.loc 1 86 60 is_stmt 1 view .LVU39
  86:D:/fchai/work/i-cube/I-CUBE-HUAWEI/Middlewares/Third_Party/Huawei/iot_link/os/liteos/base/ipc\los_mux.c ****     {
 143              		.loc 1 86 23 view .LVU40
 144 0030 03F11803 		add	r3, r3, #24
 145              	.LVL7:
  86:D:/fchai/work/i-cube/I-CUBE-HUAWEI/Middlewares/Third_Party/Huawei/iot_link/os/liteos/base/ipc\los_mux.c ****     {
 146              		.loc 1 86 5 is_stmt 0 view .LVU41
 147 0034 F0D1     		bne	.L7
  92:D:/fchai/work/i-cube/I-CUBE-HUAWEI/Middlewares/Third_Party/Huawei/iot_link/os/liteos/base/ipc\los_mux.c ****     }
  93:D:/fchai/work/i-cube/I-CUBE-HUAWEI/Middlewares/Third_Party/Huawei/iot_link/os/liteos/base/ipc\los_mux.c ****     return LOS_OK;
  94:D:/fchai/work/i-cube/I-CUBE-HUAWEI/Middlewares/Third_Party/Huawei/iot_link/os/liteos/base/ipc\los_mux.c **** }
 148              		.loc 1 94 1 view .LVU42
 149 0036 30BC     		pop	{r4, r5}
 150              	.LCFI1:
 151              		.cfi_restore 5
 152              		.cfi_restore 4
 153              		.cfi_def_cfa_offset 0
 154 0038 7047     		bx	lr
 155              	.L9:
 156 003a 00BF     		.align	2
 157              	.L8:
 158 003c 00000000 		.word	g_stUnusedMuxList
 159 0040 00000000 		.word	.LANCHOR1
 160 0044 00000000 		.word	.LANCHOR0
 161              		.cfi_endproc
 162              	.LFE140:
 164              		.section	.text.osMuxInit,"ax",%progbits
 165              		.align	1
 166              		.p2align 2,,3
 167              		.global	osMuxInit
 168              		.syntax unified
 169              		.thumb
 170              		.thumb_func
 171              		.fpu fpv4-sp-d16
 173              	osMuxInit:
 174              	.LFB133:
  66:D:/fchai/work/i-cube/I-CUBE-HUAWEI/Middlewares/Third_Party/Huawei/iot_link/os/liteos/base/ipc\los_mux.c ****     MUX_CB_S *pstMuxNode;
 175              		.loc 1 66 1 is_stmt 1 view -0
 176              		.cfi_startproc
 177              		@ args = 0, pretend = 0, frame = 0
 178              		@ frame_needed = 0, uses_anonymous_args = 0
  67:D:/fchai/work/i-cube/I-CUBE-HUAWEI/Middlewares/Third_Party/Huawei/iot_link/os/liteos/base/ipc\los_mux.c ****     UINT32   uwIndex;
 179              		.loc 1 67 5 view .LVU44
  68:D:/fchai/work/i-cube/I-CUBE-HUAWEI/Middlewares/Third_Party/Huawei/iot_link/os/liteos/base/ipc\los_mux.c **** 
 180              		.loc 1 68 5 view .LVU45
  70:D:/fchai/work/i-cube/I-CUBE-HUAWEI/Middlewares/Third_Party/Huawei/iot_link/os/liteos/base/ipc\los_mux.c **** 
ARM GAS  T:\msys\tmp\ccccxHvg.s 			page 9


 181              		.loc 1 70 5 view .LVU46
  72:D:/fchai/work/i-cube/I-CUBE-HUAWEI/Middlewares/Third_Party/Huawei/iot_link/os/liteos/base/ipc\los_mux.c ****         {
 182              		.loc 1 72 5 view .LVU47
  66:D:/fchai/work/i-cube/I-CUBE-HUAWEI/Middlewares/Third_Party/Huawei/iot_link/os/liteos/base/ipc\los_mux.c ****     MUX_CB_S *pstMuxNode;
 183              		.loc 1 66 1 is_stmt 0 view .LVU48
 184 0000 08B5     		push	{r3, lr}
 185              	.LCFI2:
 186              		.cfi_def_cfa_offset 8
 187              		.cfi_offset 3, -8
 188              		.cfi_offset 14, -4
  72:D:/fchai/work/i-cube/I-CUBE-HUAWEI/Middlewares/Third_Party/Huawei/iot_link/os/liteos/base/ipc\los_mux.c ****         {
 189              		.loc 1 72 21 view .LVU49
 190 0002 034B     		ldr	r3, .L13
  72:D:/fchai/work/i-cube/I-CUBE-HUAWEI/Middlewares/Third_Party/Huawei/iot_link/os/liteos/base/ipc\los_mux.c ****         {
 191              		.loc 1 72 8 view .LVU50
 192 0004 1B68     		ldr	r3, [r3]
 193 0006 0BB9     		cbnz	r3, .L11
 194 0008 FFF7FEFF 		bl	osMuxInit.part.0
 195              	.LVL8:
 196              	.L11:
 197              		.loc 1 94 1 view .LVU51
 198 000c 0020     		movs	r0, #0
 199 000e 08BD     		pop	{r3, pc}
 200              	.L14:
 201              		.align	2
 202              	.L13:
 203 0010 00000000 		.word	.LANCHOR0
 204              		.cfi_endproc
 205              	.LFE133:
 207              		.section	.rodata.LOS_MuxCreate.str1.4,"aMS",%progbits,1
 208              		.align	2
 209              	.LC0:
 210 0000 6F735F75 		.ascii	"os_unspecific_file\000"
 210      6E737065 
 210      63696669 
 210      635F6669 
 210      6C6500
 211              		.section	.text.LOS_MuxCreate,"ax",%progbits
 212              		.align	1
 213              		.p2align 2,,3
 214              		.global	LOS_MuxCreate
 215              		.syntax unified
 216              		.thumb
 217              		.thumb_func
 218              		.fpu fpv4-sp-d16
 220              	LOS_MuxCreate:
 221              	.LVL9:
 222              	.LFB134:
  95:D:/fchai/work/i-cube/I-CUBE-HUAWEI/Middlewares/Third_Party/Huawei/iot_link/os/liteos/base/ipc\los_mux.c **** 
  96:D:/fchai/work/i-cube/I-CUBE-HUAWEI/Middlewares/Third_Party/Huawei/iot_link/os/liteos/base/ipc\los_mux.c **** /*****************************************************************************
  97:D:/fchai/work/i-cube/I-CUBE-HUAWEI/Middlewares/Third_Party/Huawei/iot_link/os/liteos/base/ipc\los_mux.c ****  Function     : LOS_MuxCreate
  98:D:/fchai/work/i-cube/I-CUBE-HUAWEI/Middlewares/Third_Party/Huawei/iot_link/os/liteos/base/ipc\los_mux.c ****  Description  : Create a mutex,
  99:D:/fchai/work/i-cube/I-CUBE-HUAWEI/Middlewares/Third_Party/Huawei/iot_link/os/liteos/base/ipc\los_mux.c ****  Input        : None
 100:D:/fchai/work/i-cube/I-CUBE-HUAWEI/Middlewares/Third_Party/Huawei/iot_link/os/liteos/base/ipc\los_mux.c ****  Output       : puwMuxHandle ------ Mutex operation handle
 101:D:/fchai/work/i-cube/I-CUBE-HUAWEI/Middlewares/Third_Party/Huawei/iot_link/os/liteos/base/ipc\los_mux.c ****  Return       : LOS_OK on success ,or error code on failure
 102:D:/fchai/work/i-cube/I-CUBE-HUAWEI/Middlewares/Third_Party/Huawei/iot_link/os/liteos/base/ipc\los_mux.c ****  *****************************************************************************/
 103:D:/fchai/work/i-cube/I-CUBE-HUAWEI/Middlewares/Third_Party/Huawei/iot_link/os/liteos/base/ipc\los_mux.c **** LITE_OS_SEC_TEXT_INIT  UINT32  LOS_MuxCreate (UINT32 *puwMuxHandle)
ARM GAS  T:\msys\tmp\ccccxHvg.s 			page 10


 104:D:/fchai/work/i-cube/I-CUBE-HUAWEI/Middlewares/Third_Party/Huawei/iot_link/os/liteos/base/ipc\los_mux.c **** {
 223              		.loc 1 104 1 is_stmt 1 view -0
 224              		.cfi_startproc
 225              		@ args = 0, pretend = 0, frame = 0
 226              		@ frame_needed = 0, uses_anonymous_args = 0
 105:D:/fchai/work/i-cube/I-CUBE-HUAWEI/Middlewares/Third_Party/Huawei/iot_link/os/liteos/base/ipc\los_mux.c ****     UINT32      uwIntSave;
 227              		.loc 1 105 5 view .LVU53
 106:D:/fchai/work/i-cube/I-CUBE-HUAWEI/Middlewares/Third_Party/Huawei/iot_link/os/liteos/base/ipc\los_mux.c ****     MUX_CB_S    *pstMuxCreated;
 228              		.loc 1 106 5 view .LVU54
 107:D:/fchai/work/i-cube/I-CUBE-HUAWEI/Middlewares/Third_Party/Huawei/iot_link/os/liteos/base/ipc\los_mux.c ****     LOS_DL_LIST *pstUnusedMux;
 229              		.loc 1 107 5 view .LVU55
 108:D:/fchai/work/i-cube/I-CUBE-HUAWEI/Middlewares/Third_Party/Huawei/iot_link/os/liteos/base/ipc\los_mux.c ****     UINT32      uwErrNo;
 230              		.loc 1 108 5 view .LVU56
 109:D:/fchai/work/i-cube/I-CUBE-HUAWEI/Middlewares/Third_Party/Huawei/iot_link/os/liteos/base/ipc\los_mux.c ****     UINT32      uwErrLine;
 231              		.loc 1 109 5 view .LVU57
 110:D:/fchai/work/i-cube/I-CUBE-HUAWEI/Middlewares/Third_Party/Huawei/iot_link/os/liteos/base/ipc\los_mux.c **** 
 111:D:/fchai/work/i-cube/I-CUBE-HUAWEI/Middlewares/Third_Party/Huawei/iot_link/os/liteos/base/ipc\los_mux.c ****     if (g_pstAllMux == NULL)
 232              		.loc 1 111 5 view .LVU58
 104:D:/fchai/work/i-cube/I-CUBE-HUAWEI/Middlewares/Third_Party/Huawei/iot_link/os/liteos/base/ipc\los_mux.c ****     UINT32      uwIntSave;
 233              		.loc 1 104 1 is_stmt 0 view .LVU59
 234 0000 70B5     		push	{r4, r5, r6, lr}
 235              	.LCFI3:
 236              		.cfi_def_cfa_offset 16
 237              		.cfi_offset 4, -16
 238              		.cfi_offset 5, -12
 239              		.cfi_offset 6, -8
 240              		.cfi_offset 14, -4
 241              		.loc 1 111 21 view .LVU60
 242 0002 1A4B     		ldr	r3, .L24
 243              		.loc 1 111 8 view .LVU61
 244 0004 1B68     		ldr	r3, [r3]
 104:D:/fchai/work/i-cube/I-CUBE-HUAWEI/Middlewares/Third_Party/Huawei/iot_link/os/liteos/base/ipc\los_mux.c ****     UINT32      uwIntSave;
 245              		.loc 1 104 1 view .LVU62
 246 0006 82B0     		sub	sp, sp, #8
 247              	.LCFI4:
 248              		.cfi_def_cfa_offset 24
 104:D:/fchai/work/i-cube/I-CUBE-HUAWEI/Middlewares/Third_Party/Huawei/iot_link/os/liteos/base/ipc\los_mux.c ****     UINT32      uwIntSave;
 249              		.loc 1 104 1 view .LVU63
 250 0008 0546     		mov	r5, r0
 251              		.loc 1 111 8 view .LVU64
 252 000a E3B1     		cbz	r3, .L21
 112:D:/fchai/work/i-cube/I-CUBE-HUAWEI/Middlewares/Third_Party/Huawei/iot_link/os/liteos/base/ipc\los_mux.c ****         {
 113:D:/fchai/work/i-cube/I-CUBE-HUAWEI/Middlewares/Third_Party/Huawei/iot_link/os/liteos/base/ipc\los_mux.c ****         osMuxInit ();
 114:D:/fchai/work/i-cube/I-CUBE-HUAWEI/Middlewares/Third_Party/Huawei/iot_link/os/liteos/base/ipc\los_mux.c ****         }
 115:D:/fchai/work/i-cube/I-CUBE-HUAWEI/Middlewares/Third_Party/Huawei/iot_link/os/liteos/base/ipc\los_mux.c **** 
 116:D:/fchai/work/i-cube/I-CUBE-HUAWEI/Middlewares/Third_Party/Huawei/iot_link/os/liteos/base/ipc\los_mux.c ****     if (NULL == puwMuxHandle)
 253              		.loc 1 116 5 is_stmt 1 view .LVU65
 254              		.loc 1 116 8 is_stmt 0 view .LVU66
 255 000c FDB1     		cbz	r5, .L19
 256              	.LVL10:
 257              	.L23:
 117:D:/fchai/work/i-cube/I-CUBE-HUAWEI/Middlewares/Third_Party/Huawei/iot_link/os/liteos/base/ipc\los_mux.c ****     {
 118:D:/fchai/work/i-cube/I-CUBE-HUAWEI/Middlewares/Third_Party/Huawei/iot_link/os/liteos/base/ipc\los_mux.c ****         return LOS_ERRNO_MUX_PTR_NULL;
 119:D:/fchai/work/i-cube/I-CUBE-HUAWEI/Middlewares/Third_Party/Huawei/iot_link/os/liteos/base/ipc\los_mux.c ****     }
 120:D:/fchai/work/i-cube/I-CUBE-HUAWEI/Middlewares/Third_Party/Huawei/iot_link/os/liteos/base/ipc\los_mux.c **** 
 121:D:/fchai/work/i-cube/I-CUBE-HUAWEI/Middlewares/Third_Party/Huawei/iot_link/os/liteos/base/ipc\los_mux.c ****     uwIntSave = LOS_IntLock();
 258              		.loc 1 121 5 is_stmt 1 view .LVU67
ARM GAS  T:\msys\tmp\ccccxHvg.s 			page 11


 259              		.loc 1 121 17 is_stmt 0 view .LVU68
 260 000e FFF7FEFF 		bl	LOS_IntLock
 261              	.LVL11:
 122:D:/fchai/work/i-cube/I-CUBE-HUAWEI/Middlewares/Third_Party/Huawei/iot_link/os/liteos/base/ipc\los_mux.c ****     if (LOS_ListEmpty(&g_stUnusedMuxList))
 262              		.loc 1 122 5 is_stmt 1 view .LVU69
 263              	.LBB48:
 264              	.LBI48:
 160:D:/fchai/work/i-cube/I-CUBE-HUAWEI/Middlewares/Third_Party/Huawei/iot_link/os/liteos/include\los_list.h **** }
 161:D:/fchai/work/i-cube/I-CUBE-HUAWEI/Middlewares/Third_Party/Huawei/iot_link/os/liteos/include\los_list.h **** 
 162:D:/fchai/work/i-cube/I-CUBE-HUAWEI/Middlewares/Third_Party/Huawei/iot_link/os/liteos/include\los_list.h **** /**
 163:D:/fchai/work/i-cube/I-CUBE-HUAWEI/Middlewares/Third_Party/Huawei/iot_link/os/liteos/include\los_list.h ****  *@ingroup los_list
 164:D:/fchai/work/i-cube/I-CUBE-HUAWEI/Middlewares/Third_Party/Huawei/iot_link/os/liteos/include\los_list.h ****  *@brief Delete a specified node from a doubly linked list.
 165:D:/fchai/work/i-cube/I-CUBE-HUAWEI/Middlewares/Third_Party/Huawei/iot_link/os/liteos/include\los_list.h ****  *
 166:D:/fchai/work/i-cube/I-CUBE-HUAWEI/Middlewares/Third_Party/Huawei/iot_link/os/liteos/include\los_list.h ****  *@par Description:
 167:D:/fchai/work/i-cube/I-CUBE-HUAWEI/Middlewares/Third_Party/Huawei/iot_link/os/liteos/include\los_list.h ****  *<ul>
 168:D:/fchai/work/i-cube/I-CUBE-HUAWEI/Middlewares/Third_Party/Huawei/iot_link/os/liteos/include\los_list.h ****  *<li>This API is used to delete a specified node from a doubly linked list.</li>
 169:D:/fchai/work/i-cube/I-CUBE-HUAWEI/Middlewares/Third_Party/Huawei/iot_link/os/liteos/include\los_list.h ****  *</ul>
 170:D:/fchai/work/i-cube/I-CUBE-HUAWEI/Middlewares/Third_Party/Huawei/iot_link/os/liteos/include\los_list.h ****  *@attention
 171:D:/fchai/work/i-cube/I-CUBE-HUAWEI/Middlewares/Third_Party/Huawei/iot_link/os/liteos/include\los_list.h ****  *<ul>
 172:D:/fchai/work/i-cube/I-CUBE-HUAWEI/Middlewares/Third_Party/Huawei/iot_link/os/liteos/include\los_list.h ****  *<li>The parameter passed in should be ensured to be a legal pointer.</li>
 173:D:/fchai/work/i-cube/I-CUBE-HUAWEI/Middlewares/Third_Party/Huawei/iot_link/os/liteos/include\los_list.h ****  *</ul>
 174:D:/fchai/work/i-cube/I-CUBE-HUAWEI/Middlewares/Third_Party/Huawei/iot_link/os/liteos/include\los_list.h ****  *
 175:D:/fchai/work/i-cube/I-CUBE-HUAWEI/Middlewares/Third_Party/Huawei/iot_link/os/liteos/include\los_list.h ****  *@param pstNode    [IN] Node to be deleted.
 176:D:/fchai/work/i-cube/I-CUBE-HUAWEI/Middlewares/Third_Party/Huawei/iot_link/os/liteos/include\los_list.h ****  *
 177:D:/fchai/work/i-cube/I-CUBE-HUAWEI/Middlewares/Third_Party/Huawei/iot_link/os/liteos/include\los_list.h ****  *@retval None.
 178:D:/fchai/work/i-cube/I-CUBE-HUAWEI/Middlewares/Third_Party/Huawei/iot_link/os/liteos/include\los_list.h ****  *@par Dependency:
 179:D:/fchai/work/i-cube/I-CUBE-HUAWEI/Middlewares/Third_Party/Huawei/iot_link/os/liteos/include\los_list.h ****  *<ul><li>los_list.h: the header file that contains the API declaration.</li></ul>
 180:D:/fchai/work/i-cube/I-CUBE-HUAWEI/Middlewares/Third_Party/Huawei/iot_link/os/liteos/include\los_list.h ****  *@see LOS_ListAdd
 181:D:/fchai/work/i-cube/I-CUBE-HUAWEI/Middlewares/Third_Party/Huawei/iot_link/os/liteos/include\los_list.h ****  *@since Huawei LiteOS V100R001C00
 182:D:/fchai/work/i-cube/I-CUBE-HUAWEI/Middlewares/Third_Party/Huawei/iot_link/os/liteos/include\los_list.h ****  */
 183:D:/fchai/work/i-cube/I-CUBE-HUAWEI/Middlewares/Third_Party/Huawei/iot_link/os/liteos/include\los_list.h **** LITE_OS_SEC_ALW_INLINE STATIC_INLINE VOID LOS_ListDelete(LOS_DL_LIST *pstNode)
 184:D:/fchai/work/i-cube/I-CUBE-HUAWEI/Middlewares/Third_Party/Huawei/iot_link/os/liteos/include\los_list.h **** {
 185:D:/fchai/work/i-cube/I-CUBE-HUAWEI/Middlewares/Third_Party/Huawei/iot_link/os/liteos/include\los_list.h ****     pstNode->pstNext->pstPrev = pstNode->pstPrev;
 186:D:/fchai/work/i-cube/I-CUBE-HUAWEI/Middlewares/Third_Party/Huawei/iot_link/os/liteos/include\los_list.h ****     pstNode->pstPrev->pstNext = pstNode->pstNext;
 187:D:/fchai/work/i-cube/I-CUBE-HUAWEI/Middlewares/Third_Party/Huawei/iot_link/os/liteos/include\los_list.h ****     pstNode->pstNext = (LOS_DL_LIST *)NULL;
 188:D:/fchai/work/i-cube/I-CUBE-HUAWEI/Middlewares/Third_Party/Huawei/iot_link/os/liteos/include\los_list.h ****     pstNode->pstPrev = (LOS_DL_LIST *)NULL;
 189:D:/fchai/work/i-cube/I-CUBE-HUAWEI/Middlewares/Third_Party/Huawei/iot_link/os/liteos/include\los_list.h **** }
 190:D:/fchai/work/i-cube/I-CUBE-HUAWEI/Middlewares/Third_Party/Huawei/iot_link/os/liteos/include\los_list.h **** 
 191:D:/fchai/work/i-cube/I-CUBE-HUAWEI/Middlewares/Third_Party/Huawei/iot_link/os/liteos/include\los_list.h **** /**
 192:D:/fchai/work/i-cube/I-CUBE-HUAWEI/Middlewares/Third_Party/Huawei/iot_link/os/liteos/include\los_list.h ****  *@ingroup los_list
 193:D:/fchai/work/i-cube/I-CUBE-HUAWEI/Middlewares/Third_Party/Huawei/iot_link/os/liteos/include\los_list.h ****  *@brief Identify whether a specified doubly linked list is empty.
 194:D:/fchai/work/i-cube/I-CUBE-HUAWEI/Middlewares/Third_Party/Huawei/iot_link/os/liteos/include\los_list.h ****  *
 195:D:/fchai/work/i-cube/I-CUBE-HUAWEI/Middlewares/Third_Party/Huawei/iot_link/os/liteos/include\los_list.h ****  *@par Description:
 196:D:/fchai/work/i-cube/I-CUBE-HUAWEI/Middlewares/Third_Party/Huawei/iot_link/os/liteos/include\los_list.h ****  *<ul>
 197:D:/fchai/work/i-cube/I-CUBE-HUAWEI/Middlewares/Third_Party/Huawei/iot_link/os/liteos/include\los_list.h ****  *<li>This API is used to return whether a doubly linked list is empty.</li>
 198:D:/fchai/work/i-cube/I-CUBE-HUAWEI/Middlewares/Third_Party/Huawei/iot_link/os/liteos/include\los_list.h ****  *</ul>
 199:D:/fchai/work/i-cube/I-CUBE-HUAWEI/Middlewares/Third_Party/Huawei/iot_link/os/liteos/include\los_list.h ****  *@attention
 200:D:/fchai/work/i-cube/I-CUBE-HUAWEI/Middlewares/Third_Party/Huawei/iot_link/os/liteos/include\los_list.h ****  *<ul>
 201:D:/fchai/work/i-cube/I-CUBE-HUAWEI/Middlewares/Third_Party/Huawei/iot_link/os/liteos/include\los_list.h ****  *<li>The parameter passed in should be ensured to be a legal pointer.</li>
 202:D:/fchai/work/i-cube/I-CUBE-HUAWEI/Middlewares/Third_Party/Huawei/iot_link/os/liteos/include\los_list.h ****  *</ul>
 203:D:/fchai/work/i-cube/I-CUBE-HUAWEI/Middlewares/Third_Party/Huawei/iot_link/os/liteos/include\los_list.h ****  *
 204:D:/fchai/work/i-cube/I-CUBE-HUAWEI/Middlewares/Third_Party/Huawei/iot_link/os/liteos/include\los_list.h ****  *@param pstList  [IN] Doubly linked list.
 205:D:/fchai/work/i-cube/I-CUBE-HUAWEI/Middlewares/Third_Party/Huawei/iot_link/os/liteos/include\los_list.h ****  *
 206:D:/fchai/work/i-cube/I-CUBE-HUAWEI/Middlewares/Third_Party/Huawei/iot_link/os/liteos/include\los_list.h ****  *@retval TRUE The doubly linked list is empty.
 207:D:/fchai/work/i-cube/I-CUBE-HUAWEI/Middlewares/Third_Party/Huawei/iot_link/os/liteos/include\los_list.h ****  *@retval FALSE The doubly linked list is not empty.
 208:D:/fchai/work/i-cube/I-CUBE-HUAWEI/Middlewares/Third_Party/Huawei/iot_link/os/liteos/include\los_list.h ****  *@par Dependency:
 209:D:/fchai/work/i-cube/I-CUBE-HUAWEI/Middlewares/Third_Party/Huawei/iot_link/os/liteos/include\los_list.h ****  *<ul><li>los_list.h: the header file that contains the API declaration.</li></ul>
ARM GAS  T:\msys\tmp\ccccxHvg.s 			page 12


 210:D:/fchai/work/i-cube/I-CUBE-HUAWEI/Middlewares/Third_Party/Huawei/iot_link/os/liteos/include\los_list.h ****  *@see
 211:D:/fchai/work/i-cube/I-CUBE-HUAWEI/Middlewares/Third_Party/Huawei/iot_link/os/liteos/include\los_list.h ****  *@since Huawei LiteOS V100R001C00
 212:D:/fchai/work/i-cube/I-CUBE-HUAWEI/Middlewares/Third_Party/Huawei/iot_link/os/liteos/include\los_list.h ****  */
 213:D:/fchai/work/i-cube/I-CUBE-HUAWEI/Middlewares/Third_Party/Huawei/iot_link/os/liteos/include\los_list.h **** LITE_OS_SEC_ALW_INLINE STATIC_INLINE BOOL LOS_ListEmpty(LOS_DL_LIST *pstNode)
 265              		.loc 2 213 43 view .LVU70
 266              	.LBB49:
 214:D:/fchai/work/i-cube/I-CUBE-HUAWEI/Middlewares/Third_Party/Huawei/iot_link/os/liteos/include\los_list.h **** {
 215:D:/fchai/work/i-cube/I-CUBE-HUAWEI/Middlewares/Third_Party/Huawei/iot_link/os/liteos/include\los_list.h ****     return (BOOL)(pstNode->pstNext == pstNode);
 267              		.loc 2 215 5 view .LVU71
 268              		.loc 2 215 26 is_stmt 0 view .LVU72
 269 0012 174A     		ldr	r2, .L24+4
 270 0014 5368     		ldr	r3, [r2, #4]
 271              	.LVL12:
 272              		.loc 2 215 26 view .LVU73
 273              	.LBE49:
 274              	.LBE48:
 275              		.loc 1 122 8 view .LVU74
 276 0016 9342     		cmp	r3, r2
 277 0018 1CD0     		beq	.L22
 123:D:/fchai/work/i-cube/I-CUBE-HUAWEI/Middlewares/Third_Party/Huawei/iot_link/os/liteos/base/ipc\los_mux.c ****     {
 124:D:/fchai/work/i-cube/I-CUBE-HUAWEI/Middlewares/Third_Party/Huawei/iot_link/os/liteos/base/ipc\los_mux.c ****         LOS_IntRestore(uwIntSave);
 125:D:/fchai/work/i-cube/I-CUBE-HUAWEI/Middlewares/Third_Party/Huawei/iot_link/os/liteos/base/ipc\los_mux.c ****         OS_GOTO_ERR_HANDLER(LOS_ERRNO_MUX_ALL_BUSY);
 278              		.loc 1 125 9 is_stmt 1 view .LVU75
 126:D:/fchai/work/i-cube/I-CUBE-HUAWEI/Middlewares/Third_Party/Huawei/iot_link/os/liteos/base/ipc\los_mux.c ****     }
 127:D:/fchai/work/i-cube/I-CUBE-HUAWEI/Middlewares/Third_Party/Huawei/iot_link/os/liteos/base/ipc\los_mux.c **** 
 128:D:/fchai/work/i-cube/I-CUBE-HUAWEI/Middlewares/Third_Party/Huawei/iot_link/os/liteos/base/ipc\los_mux.c ****     pstUnusedMux                = LOS_DL_LIST_FIRST(&(g_stUnusedMuxList));
 279              		.loc 1 128 5 view .LVU76
 280              	.LVL13:
 129:D:/fchai/work/i-cube/I-CUBE-HUAWEI/Middlewares/Third_Party/Huawei/iot_link/os/liteos/base/ipc\los_mux.c ****     LOS_ListDelete(pstUnusedMux);
 281              		.loc 1 129 5 view .LVU77
 282              	.LBB50:
 283              	.LBI50:
 183:D:/fchai/work/i-cube/I-CUBE-HUAWEI/Middlewares/Third_Party/Huawei/iot_link/os/liteos/include\los_list.h **** {
 284              		.loc 2 183 43 view .LVU78
 285              	.LBB51:
 185:D:/fchai/work/i-cube/I-CUBE-HUAWEI/Middlewares/Third_Party/Huawei/iot_link/os/liteos/include\los_list.h ****     pstNode->pstPrev->pstNext = pstNode->pstNext;
 286              		.loc 2 185 5 view .LVU79
 185:D:/fchai/work/i-cube/I-CUBE-HUAWEI/Middlewares/Third_Party/Huawei/iot_link/os/liteos/include\los_list.h ****     pstNode->pstPrev->pstNext = pstNode->pstNext;
 287              		.loc 2 185 40 is_stmt 0 view .LVU80
 288 001a D3E90021 		ldrd	r2, r1, [r3]
 289              	.LBE51:
 290              	.LBE50:
 130:D:/fchai/work/i-cube/I-CUBE-HUAWEI/Middlewares/Third_Party/Huawei/iot_link/os/liteos/base/ipc\los_mux.c ****     pstMuxCreated               = (GET_MUX_LIST(pstUnusedMux)); /*lint !e413*/
 131:D:/fchai/work/i-cube/I-CUBE-HUAWEI/Middlewares/Third_Party/Huawei/iot_link/os/liteos/base/ipc\los_mux.c ****     pstMuxCreated->usMuxCount   = 0;
 132:D:/fchai/work/i-cube/I-CUBE-HUAWEI/Middlewares/Third_Party/Huawei/iot_link/os/liteos/base/ipc\los_mux.c ****     pstMuxCreated->ucMuxStat    = OS_MUX_USED;
 133:D:/fchai/work/i-cube/I-CUBE-HUAWEI/Middlewares/Third_Party/Huawei/iot_link/os/liteos/base/ipc\los_mux.c ****     pstMuxCreated->usPriority   = 0;
 134:D:/fchai/work/i-cube/I-CUBE-HUAWEI/Middlewares/Third_Party/Huawei/iot_link/os/liteos/base/ipc\los_mux.c ****     pstMuxCreated->pstOwner     = (LOS_TASK_CB *)NULL;
 135:D:/fchai/work/i-cube/I-CUBE-HUAWEI/Middlewares/Third_Party/Huawei/iot_link/os/liteos/base/ipc\los_mux.c ****     LOS_ListInit(&pstMuxCreated->stMuxList);
 136:D:/fchai/work/i-cube/I-CUBE-HUAWEI/Middlewares/Third_Party/Huawei/iot_link/os/liteos/base/ipc\los_mux.c ****     *puwMuxHandle               = (UINT32)pstMuxCreated->ucMuxID;
 291              		.loc 1 136 56 view .LVU81
 292 001e 53F8046C 		ldr	r6, [r3, #-4]
 293              	.LBB54:
 294              	.LBB52:
 185:D:/fchai/work/i-cube/I-CUBE-HUAWEI/Middlewares/Third_Party/Huawei/iot_link/os/liteos/include\los_list.h ****     pstNode->pstPrev->pstNext = pstNode->pstNext;
 295              		.loc 2 185 31 view .LVU82
 296 0022 0A60     		str	r2, [r1]
 186:D:/fchai/work/i-cube/I-CUBE-HUAWEI/Middlewares/Third_Party/Huawei/iot_link/os/liteos/include\los_list.h ****     pstNode->pstNext = (LOS_DL_LIST *)NULL;
ARM GAS  T:\msys\tmp\ccccxHvg.s 			page 13


 297              		.loc 2 186 5 is_stmt 1 view .LVU83
 298              	.LBE52:
 299              	.LBE54:
 131:D:/fchai/work/i-cube/I-CUBE-HUAWEI/Middlewares/Third_Party/Huawei/iot_link/os/liteos/base/ipc\los_mux.c ****     pstMuxCreated->ucMuxStat    = OS_MUX_USED;
 300              		.loc 1 131 33 is_stmt 0 view .LVU84
 301 0024 0024     		movs	r4, #0
 302              	.LBB55:
 303              	.LBB53:
 186:D:/fchai/work/i-cube/I-CUBE-HUAWEI/Middlewares/Third_Party/Huawei/iot_link/os/liteos/include\los_list.h ****     pstNode->pstNext = (LOS_DL_LIST *)NULL;
 304              		.loc 2 186 31 view .LVU85
 305 0026 5160     		str	r1, [r2, #4]
 187:D:/fchai/work/i-cube/I-CUBE-HUAWEI/Middlewares/Third_Party/Huawei/iot_link/os/liteos/include\los_list.h ****     pstNode->pstPrev = (LOS_DL_LIST *)NULL;
 306              		.loc 2 187 5 is_stmt 1 view .LVU86
 188:D:/fchai/work/i-cube/I-CUBE-HUAWEI/Middlewares/Third_Party/Huawei/iot_link/os/liteos/include\los_list.h **** }
 307              		.loc 2 188 5 view .LVU87
 308              	.LBE53:
 309              	.LBE55:
 130:D:/fchai/work/i-cube/I-CUBE-HUAWEI/Middlewares/Third_Party/Huawei/iot_link/os/liteos/base/ipc\los_mux.c ****     pstMuxCreated->usMuxCount   = 0;
 310              		.loc 1 130 5 view .LVU88
 311              	.LVL14:
 131:D:/fchai/work/i-cube/I-CUBE-HUAWEI/Middlewares/Third_Party/Huawei/iot_link/os/liteos/base/ipc\los_mux.c ****     pstMuxCreated->ucMuxStat    = OS_MUX_USED;
 312              		.loc 1 131 5 view .LVU89
 132:D:/fchai/work/i-cube/I-CUBE-HUAWEI/Middlewares/Third_Party/Huawei/iot_link/os/liteos/base/ipc\los_mux.c ****     pstMuxCreated->usPriority   = 0;
 313              		.loc 1 132 33 is_stmt 0 view .LVU90
 314 0028 0122     		movs	r2, #1
 315              	.LBB56:
 316              	.LBB57:
  83:D:/fchai/work/i-cube/I-CUBE-HUAWEI/Middlewares/Third_Party/Huawei/iot_link/os/liteos/include\los_list.h **** }
 317              		.loc 2 83 22 view .LVU91
 318 002a C3E90033 		strd	r3, r3, [r3]
 319              	.LBE57:
 320              	.LBE56:
 131:D:/fchai/work/i-cube/I-CUBE-HUAWEI/Middlewares/Third_Party/Huawei/iot_link/os/liteos/base/ipc\los_mux.c ****     pstMuxCreated->ucMuxStat    = OS_MUX_USED;
 321              		.loc 1 131 33 view .LVU92
 322 002e 23F8064C 		strh	r4, [r3, #-6]	@ movhi
 132:D:/fchai/work/i-cube/I-CUBE-HUAWEI/Middlewares/Third_Party/Huawei/iot_link/os/liteos/base/ipc\los_mux.c ****     pstMuxCreated->usPriority   = 0;
 323              		.loc 1 132 5 is_stmt 1 view .LVU93
 133:D:/fchai/work/i-cube/I-CUBE-HUAWEI/Middlewares/Third_Party/Huawei/iot_link/os/liteos/base/ipc\los_mux.c ****     pstMuxCreated->pstOwner     = (LOS_TASK_CB *)NULL;
 324              		.loc 1 133 33 is_stmt 0 view .LVU94
 325 0032 9C81     		strh	r4, [r3, #12]	@ movhi
 134:D:/fchai/work/i-cube/I-CUBE-HUAWEI/Middlewares/Third_Party/Huawei/iot_link/os/liteos/base/ipc\los_mux.c ****     LOS_ListInit(&pstMuxCreated->stMuxList);
 326              		.loc 1 134 33 view .LVU95
 327 0034 9C60     		str	r4, [r3, #8]
 132:D:/fchai/work/i-cube/I-CUBE-HUAWEI/Middlewares/Third_Party/Huawei/iot_link/os/liteos/base/ipc\los_mux.c ****     pstMuxCreated->usPriority   = 0;
 328              		.loc 1 132 33 view .LVU96
 329 0036 03F8082C 		strb	r2, [r3, #-8]
 133:D:/fchai/work/i-cube/I-CUBE-HUAWEI/Middlewares/Third_Party/Huawei/iot_link/os/liteos/base/ipc\los_mux.c ****     pstMuxCreated->pstOwner     = (LOS_TASK_CB *)NULL;
 330              		.loc 1 133 5 is_stmt 1 view .LVU97
 134:D:/fchai/work/i-cube/I-CUBE-HUAWEI/Middlewares/Third_Party/Huawei/iot_link/os/liteos/base/ipc\los_mux.c ****     LOS_ListInit(&pstMuxCreated->stMuxList);
 331              		.loc 1 134 5 view .LVU98
 135:D:/fchai/work/i-cube/I-CUBE-HUAWEI/Middlewares/Third_Party/Huawei/iot_link/os/liteos/base/ipc\los_mux.c ****     *puwMuxHandle               = (UINT32)pstMuxCreated->ucMuxID;
 332              		.loc 1 135 5 view .LVU99
 333              	.LVL15:
 334              	.LBB59:
 335              	.LBI56:
  80:D:/fchai/work/i-cube/I-CUBE-HUAWEI/Middlewares/Third_Party/Huawei/iot_link/os/liteos/include\los_list.h **** {
 336              		.loc 2 80 43 view .LVU100
ARM GAS  T:\msys\tmp\ccccxHvg.s 			page 14


 337              	.LBB58:
  82:D:/fchai/work/i-cube/I-CUBE-HUAWEI/Middlewares/Third_Party/Huawei/iot_link/os/liteos/include\los_list.h ****     pstList->pstPrev = pstList;
 338              		.loc 2 82 5 view .LVU101
  83:D:/fchai/work/i-cube/I-CUBE-HUAWEI/Middlewares/Third_Party/Huawei/iot_link/os/liteos/include\los_list.h **** }
 339              		.loc 2 83 5 view .LVU102
  83:D:/fchai/work/i-cube/I-CUBE-HUAWEI/Middlewares/Third_Party/Huawei/iot_link/os/liteos/include\los_list.h **** }
 340              		.loc 2 83 5 is_stmt 0 view .LVU103
 341              	.LBE58:
 342              	.LBE59:
 343              		.loc 1 136 5 is_stmt 1 view .LVU104
 344              		.loc 1 136 33 is_stmt 0 view .LVU105
 345 003a 2E60     		str	r6, [r5]
 137:D:/fchai/work/i-cube/I-CUBE-HUAWEI/Middlewares/Third_Party/Huawei/iot_link/os/liteos/base/ipc\los_mux.c ****     LOS_IntRestore(uwIntSave);
 346              		.loc 1 137 5 is_stmt 1 view .LVU106
 347 003c FFF7FEFF 		bl	LOS_IntRestore
 348              	.LVL16:
 138:D:/fchai/work/i-cube/I-CUBE-HUAWEI/Middlewares/Third_Party/Huawei/iot_link/os/liteos/base/ipc\los_mux.c ****     return LOS_OK;
 349              		.loc 1 138 5 view .LVU107
 350              		.loc 1 138 12 is_stmt 0 view .LVU108
 351 0040 2046     		mov	r0, r4
 352              	.L15:
 139:D:/fchai/work/i-cube/I-CUBE-HUAWEI/Middlewares/Third_Party/Huawei/iot_link/os/liteos/base/ipc\los_mux.c **** ErrHandler:
 140:D:/fchai/work/i-cube/I-CUBE-HUAWEI/Middlewares/Third_Party/Huawei/iot_link/os/liteos/base/ipc\los_mux.c ****     OS_RETURN_ERROR_P2(uwErrLine, uwErrNo);
 141:D:/fchai/work/i-cube/I-CUBE-HUAWEI/Middlewares/Third_Party/Huawei/iot_link/os/liteos/base/ipc\los_mux.c **** }
 353              		.loc 1 141 1 view .LVU109
 354 0042 02B0     		add	sp, sp, #8
 355              	.LCFI5:
 356              		.cfi_remember_state
 357              		.cfi_def_cfa_offset 16
 358              		@ sp needed
 359 0044 70BD     		pop	{r4, r5, r6, pc}
 360              	.LVL17:
 361              	.L21:
 362              	.LCFI6:
 363              		.cfi_restore_state
 113:D:/fchai/work/i-cube/I-CUBE-HUAWEI/Middlewares/Third_Party/Huawei/iot_link/os/liteos/base/ipc\los_mux.c ****         }
 364              		.loc 1 113 9 is_stmt 1 view .LVU110
 365              	.LBB60:
 366              	.LBI60:
  65:D:/fchai/work/i-cube/I-CUBE-HUAWEI/Middlewares/Third_Party/Huawei/iot_link/os/liteos/base/ipc\los_mux.c **** {
 367              		.loc 1 65 30 view .LVU111
 368              	.LBB61:
  67:D:/fchai/work/i-cube/I-CUBE-HUAWEI/Middlewares/Third_Party/Huawei/iot_link/os/liteos/base/ipc\los_mux.c ****     UINT32   uwIndex;
 369              		.loc 1 67 5 view .LVU112
  68:D:/fchai/work/i-cube/I-CUBE-HUAWEI/Middlewares/Third_Party/Huawei/iot_link/os/liteos/base/ipc\los_mux.c **** 
 370              		.loc 1 68 5 view .LVU113
  70:D:/fchai/work/i-cube/I-CUBE-HUAWEI/Middlewares/Third_Party/Huawei/iot_link/os/liteos/base/ipc\los_mux.c **** 
 371              		.loc 1 70 5 view .LVU114
  72:D:/fchai/work/i-cube/I-CUBE-HUAWEI/Middlewares/Third_Party/Huawei/iot_link/os/liteos/base/ipc\los_mux.c ****         {
 372              		.loc 1 72 5 view .LVU115
 373 0046 FFF7FEFF 		bl	osMuxInit.part.0
 374              	.LVL18:
  72:D:/fchai/work/i-cube/I-CUBE-HUAWEI/Middlewares/Third_Party/Huawei/iot_link/os/liteos/base/ipc\los_mux.c ****         {
 375              		.loc 1 72 5 is_stmt 0 view .LVU116
 376              	.LBE61:
 377              	.LBE60:
 116:D:/fchai/work/i-cube/I-CUBE-HUAWEI/Middlewares/Third_Party/Huawei/iot_link/os/liteos/base/ipc\los_mux.c ****     {
ARM GAS  T:\msys\tmp\ccccxHvg.s 			page 15


 378              		.loc 1 116 5 is_stmt 1 view .LVU117
 116:D:/fchai/work/i-cube/I-CUBE-HUAWEI/Middlewares/Third_Party/Huawei/iot_link/os/liteos/base/ipc\los_mux.c ****     {
 379              		.loc 1 116 8 is_stmt 0 view .LVU118
 380 004a 002D     		cmp	r5, #0
 381 004c DFD1     		bne	.L23
 382              	.L19:
 118:D:/fchai/work/i-cube/I-CUBE-HUAWEI/Middlewares/Third_Party/Huawei/iot_link/os/liteos/base/ipc\los_mux.c ****     }
 383              		.loc 1 118 16 view .LVU119
 384 004e 0948     		ldr	r0, .L24+8
 140:D:/fchai/work/i-cube/I-CUBE-HUAWEI/Middlewares/Third_Party/Huawei/iot_link/os/liteos/base/ipc\los_mux.c **** }
 385              		.loc 1 140 5 is_stmt 1 view .LVU120
 386              		.loc 1 141 1 is_stmt 0 view .LVU121
 387 0050 02B0     		add	sp, sp, #8
 388              	.LCFI7:
 389              		.cfi_remember_state
 390              		.cfi_def_cfa_offset 16
 391              		@ sp needed
 392 0052 70BD     		pop	{r4, r5, r6, pc}
 393              	.LVL19:
 394              	.L22:
 395              	.LCFI8:
 396              		.cfi_restore_state
 124:D:/fchai/work/i-cube/I-CUBE-HUAWEI/Middlewares/Third_Party/Huawei/iot_link/os/liteos/base/ipc\los_mux.c ****         OS_GOTO_ERR_HANDLER(LOS_ERRNO_MUX_ALL_BUSY);
 397              		.loc 1 124 9 is_stmt 1 view .LVU122
 398 0054 FFF7FEFF 		bl	LOS_IntRestore
 399              	.LVL20:
 125:D:/fchai/work/i-cube/I-CUBE-HUAWEI/Middlewares/Third_Party/Huawei/iot_link/os/liteos/base/ipc\los_mux.c ****     }
 400              		.loc 1 125 9 view .LVU123
 125:D:/fchai/work/i-cube/I-CUBE-HUAWEI/Middlewares/Third_Party/Huawei/iot_link/os/liteos/base/ipc\los_mux.c ****     }
 401              		.loc 1 125 9 view .LVU124
 125:D:/fchai/work/i-cube/I-CUBE-HUAWEI/Middlewares/Third_Party/Huawei/iot_link/os/liteos/base/ipc\los_mux.c ****     }
 402              		.loc 1 125 9 view .LVU125
 125:D:/fchai/work/i-cube/I-CUBE-HUAWEI/Middlewares/Third_Party/Huawei/iot_link/os/liteos/base/ipc\los_mux.c ****     }
 403              		.loc 1 125 9 view .LVU126
 404              	.LDL1:
 140:D:/fchai/work/i-cube/I-CUBE-HUAWEI/Middlewares/Third_Party/Huawei/iot_link/os/liteos/base/ipc\los_mux.c **** }
 405              		.loc 1 140 5 view .LVU127
 140:D:/fchai/work/i-cube/I-CUBE-HUAWEI/Middlewares/Third_Party/Huawei/iot_link/os/liteos/base/ipc\los_mux.c **** }
 406              		.loc 1 140 5 view .LVU128
 407 0058 0023     		movs	r3, #0
 408 005a 074A     		ldr	r2, .L24+12
 409 005c 0749     		ldr	r1, .L24+16
 410 005e 0848     		ldr	r0, .L24+20
 411 0060 0093     		str	r3, [sp]
 412 0062 FFF7FEFF 		bl	LOS_ErrHandle
 413              	.LVL21:
 140:D:/fchai/work/i-cube/I-CUBE-HUAWEI/Middlewares/Third_Party/Huawei/iot_link/os/liteos/base/ipc\los_mux.c **** }
 414              		.loc 1 140 5 view .LVU129
 415 0066 0448     		ldr	r0, .L24+12
 416 0068 EBE7     		b	.L15
 417              	.L25:
 418 006a 00BF     		.align	2
 419              	.L24:
 420 006c 00000000 		.word	.LANCHOR0
 421 0070 00000000 		.word	g_stUnusedMuxList
 422 0074 021D0002 		.word	33561858
 423 0078 031D0002 		.word	33561859
ARM GAS  T:\msys\tmp\ccccxHvg.s 			page 16


 424 007c F8C3B2A1 		.word	-1582119944
 425 0080 00000000 		.word	.LC0
 426              		.cfi_endproc
 427              	.LFE134:
 429              		.section	.text.LOS_MuxDelete,"ax",%progbits
 430              		.align	1
 431              		.p2align 2,,3
 432              		.global	LOS_MuxDelete
 433              		.syntax unified
 434              		.thumb
 435              		.thumb_func
 436              		.fpu fpv4-sp-d16
 438              	LOS_MuxDelete:
 439              	.LVL22:
 440              	.LFB135:
 142:D:/fchai/work/i-cube/I-CUBE-HUAWEI/Middlewares/Third_Party/Huawei/iot_link/os/liteos/base/ipc\los_mux.c **** 
 143:D:/fchai/work/i-cube/I-CUBE-HUAWEI/Middlewares/Third_Party/Huawei/iot_link/os/liteos/base/ipc\los_mux.c **** /*****************************************************************************
 144:D:/fchai/work/i-cube/I-CUBE-HUAWEI/Middlewares/Third_Party/Huawei/iot_link/os/liteos/base/ipc\los_mux.c ****  Function     : LOS_MuxDelete
 145:D:/fchai/work/i-cube/I-CUBE-HUAWEI/Middlewares/Third_Party/Huawei/iot_link/os/liteos/base/ipc\los_mux.c ****  Description  : Delete a mutex,
 146:D:/fchai/work/i-cube/I-CUBE-HUAWEI/Middlewares/Third_Party/Huawei/iot_link/os/liteos/base/ipc\los_mux.c ****  Input        : uwMuxHandle------Mutex operation handle
 147:D:/fchai/work/i-cube/I-CUBE-HUAWEI/Middlewares/Third_Party/Huawei/iot_link/os/liteos/base/ipc\los_mux.c ****  Output       : None
 148:D:/fchai/work/i-cube/I-CUBE-HUAWEI/Middlewares/Third_Party/Huawei/iot_link/os/liteos/base/ipc\los_mux.c ****  Return       : LOS_OK on success ,or error code on failure
 149:D:/fchai/work/i-cube/I-CUBE-HUAWEI/Middlewares/Third_Party/Huawei/iot_link/os/liteos/base/ipc\los_mux.c ****  *****************************************************************************/
 150:D:/fchai/work/i-cube/I-CUBE-HUAWEI/Middlewares/Third_Party/Huawei/iot_link/os/liteos/base/ipc\los_mux.c **** LITE_OS_SEC_TEXT_INIT UINT32 LOS_MuxDelete(UINT32 uwMuxHandle)
 151:D:/fchai/work/i-cube/I-CUBE-HUAWEI/Middlewares/Third_Party/Huawei/iot_link/os/liteos/base/ipc\los_mux.c **** {
 441              		.loc 1 151 1 view -0
 442              		.cfi_startproc
 443              		@ args = 0, pretend = 0, frame = 0
 444              		@ frame_needed = 0, uses_anonymous_args = 0
 152:D:/fchai/work/i-cube/I-CUBE-HUAWEI/Middlewares/Third_Party/Huawei/iot_link/os/liteos/base/ipc\los_mux.c ****     UINT32    uwIntSave;
 445              		.loc 1 152 5 view .LVU131
 153:D:/fchai/work/i-cube/I-CUBE-HUAWEI/Middlewares/Third_Party/Huawei/iot_link/os/liteos/base/ipc\los_mux.c ****     MUX_CB_S *pstMuxDeleted;
 446              		.loc 1 153 5 view .LVU132
 154:D:/fchai/work/i-cube/I-CUBE-HUAWEI/Middlewares/Third_Party/Huawei/iot_link/os/liteos/base/ipc\los_mux.c ****     UINT32   uwErrNo;
 447              		.loc 1 154 5 view .LVU133
 155:D:/fchai/work/i-cube/I-CUBE-HUAWEI/Middlewares/Third_Party/Huawei/iot_link/os/liteos/base/ipc\los_mux.c ****     UINT32   uwErrLine;
 448              		.loc 1 155 5 view .LVU134
 156:D:/fchai/work/i-cube/I-CUBE-HUAWEI/Middlewares/Third_Party/Huawei/iot_link/os/liteos/base/ipc\los_mux.c **** 
 157:D:/fchai/work/i-cube/I-CUBE-HUAWEI/Middlewares/Third_Party/Huawei/iot_link/os/liteos/base/ipc\los_mux.c ****     if (uwMuxHandle >= (UINT32)LOSCFG_BASE_IPC_MUX_LIMIT)
 449              		.loc 1 157 5 view .LVU135
 151:D:/fchai/work/i-cube/I-CUBE-HUAWEI/Middlewares/Third_Party/Huawei/iot_link/os/liteos/base/ipc\los_mux.c ****     UINT32    uwIntSave;
 450              		.loc 1 151 1 is_stmt 0 view .LVU136
 451 0000 F0B5     		push	{r4, r5, r6, r7, lr}
 452              	.LCFI9:
 453              		.cfi_def_cfa_offset 20
 454              		.cfi_offset 4, -20
 455              		.cfi_offset 5, -16
 456              		.cfi_offset 6, -12
 457              		.cfi_offset 7, -8
 458              		.cfi_offset 14, -4
 459              		.loc 1 157 8 view .LVU137
 460 0002 1328     		cmp	r0, #19
 151:D:/fchai/work/i-cube/I-CUBE-HUAWEI/Middlewares/Third_Party/Huawei/iot_link/os/liteos/base/ipc\los_mux.c ****     UINT32    uwIntSave;
 461              		.loc 1 151 1 view .LVU138
 462 0004 83B0     		sub	sp, sp, #12
 463              	.LCFI10:
 464              		.cfi_def_cfa_offset 32
ARM GAS  T:\msys\tmp\ccccxHvg.s 			page 17


 465              		.loc 1 157 8 view .LVU139
 466 0006 0AD9     		bls	.L34
 158:D:/fchai/work/i-cube/I-CUBE-HUAWEI/Middlewares/Third_Party/Huawei/iot_link/os/liteos/base/ipc\los_mux.c ****     {
 159:D:/fchai/work/i-cube/I-CUBE-HUAWEI/Middlewares/Third_Party/Huawei/iot_link/os/liteos/base/ipc\los_mux.c ****         OS_GOTO_ERR_HANDLER(LOS_ERRNO_MUX_INVALID);
 467              		.loc 1 159 9 view .LVU140
 468 0008 194D     		ldr	r5, .L36
 469              	.LVL23:
 470              	.L27:
 160:D:/fchai/work/i-cube/I-CUBE-HUAWEI/Middlewares/Third_Party/Huawei/iot_link/os/liteos/base/ipc\los_mux.c ****     }
 161:D:/fchai/work/i-cube/I-CUBE-HUAWEI/Middlewares/Third_Party/Huawei/iot_link/os/liteos/base/ipc\los_mux.c **** 
 162:D:/fchai/work/i-cube/I-CUBE-HUAWEI/Middlewares/Third_Party/Huawei/iot_link/os/liteos/base/ipc\los_mux.c ****     pstMuxDeleted = GET_MUX(uwMuxHandle);
 163:D:/fchai/work/i-cube/I-CUBE-HUAWEI/Middlewares/Third_Party/Huawei/iot_link/os/liteos/base/ipc\los_mux.c ****     uwIntSave = LOS_IntLock();
 164:D:/fchai/work/i-cube/I-CUBE-HUAWEI/Middlewares/Third_Party/Huawei/iot_link/os/liteos/base/ipc\los_mux.c ****     if (OS_MUX_UNUSED == pstMuxDeleted->ucMuxStat)
 165:D:/fchai/work/i-cube/I-CUBE-HUAWEI/Middlewares/Third_Party/Huawei/iot_link/os/liteos/base/ipc\los_mux.c ****     {
 166:D:/fchai/work/i-cube/I-CUBE-HUAWEI/Middlewares/Third_Party/Huawei/iot_link/os/liteos/base/ipc\los_mux.c ****         LOS_IntRestore(uwIntSave);
 167:D:/fchai/work/i-cube/I-CUBE-HUAWEI/Middlewares/Third_Party/Huawei/iot_link/os/liteos/base/ipc\los_mux.c ****         OS_GOTO_ERR_HANDLER(LOS_ERRNO_MUX_INVALID);
 168:D:/fchai/work/i-cube/I-CUBE-HUAWEI/Middlewares/Third_Party/Huawei/iot_link/os/liteos/base/ipc\los_mux.c ****     }
 169:D:/fchai/work/i-cube/I-CUBE-HUAWEI/Middlewares/Third_Party/Huawei/iot_link/os/liteos/base/ipc\los_mux.c **** 
 170:D:/fchai/work/i-cube/I-CUBE-HUAWEI/Middlewares/Third_Party/Huawei/iot_link/os/liteos/base/ipc\los_mux.c ****     if (!LOS_ListEmpty(&pstMuxDeleted->stMuxList) || pstMuxDeleted->usMuxCount)
 171:D:/fchai/work/i-cube/I-CUBE-HUAWEI/Middlewares/Third_Party/Huawei/iot_link/os/liteos/base/ipc\los_mux.c ****     {
 172:D:/fchai/work/i-cube/I-CUBE-HUAWEI/Middlewares/Third_Party/Huawei/iot_link/os/liteos/base/ipc\los_mux.c ****         LOS_IntRestore(uwIntSave);
 173:D:/fchai/work/i-cube/I-CUBE-HUAWEI/Middlewares/Third_Party/Huawei/iot_link/os/liteos/base/ipc\los_mux.c ****         OS_GOTO_ERR_HANDLER(LOS_ERRNO_MUX_PENDED);
 174:D:/fchai/work/i-cube/I-CUBE-HUAWEI/Middlewares/Third_Party/Huawei/iot_link/os/liteos/base/ipc\los_mux.c ****     }
 175:D:/fchai/work/i-cube/I-CUBE-HUAWEI/Middlewares/Third_Party/Huawei/iot_link/os/liteos/base/ipc\los_mux.c **** 
 176:D:/fchai/work/i-cube/I-CUBE-HUAWEI/Middlewares/Third_Party/Huawei/iot_link/os/liteos/base/ipc\los_mux.c ****     LOS_ListAdd(&g_stUnusedMuxList, &pstMuxDeleted->stMuxList);
 177:D:/fchai/work/i-cube/I-CUBE-HUAWEI/Middlewares/Third_Party/Huawei/iot_link/os/liteos/base/ipc\los_mux.c ****     pstMuxDeleted->ucMuxStat = OS_MUX_UNUSED;
 178:D:/fchai/work/i-cube/I-CUBE-HUAWEI/Middlewares/Third_Party/Huawei/iot_link/os/liteos/base/ipc\los_mux.c **** 
 179:D:/fchai/work/i-cube/I-CUBE-HUAWEI/Middlewares/Third_Party/Huawei/iot_link/os/liteos/base/ipc\los_mux.c ****     LOS_IntRestore(uwIntSave);
 180:D:/fchai/work/i-cube/I-CUBE-HUAWEI/Middlewares/Third_Party/Huawei/iot_link/os/liteos/base/ipc\los_mux.c **** 
 181:D:/fchai/work/i-cube/I-CUBE-HUAWEI/Middlewares/Third_Party/Huawei/iot_link/os/liteos/base/ipc\los_mux.c ****     return LOS_OK;
 182:D:/fchai/work/i-cube/I-CUBE-HUAWEI/Middlewares/Third_Party/Huawei/iot_link/os/liteos/base/ipc\los_mux.c **** ErrHandler:
 183:D:/fchai/work/i-cube/I-CUBE-HUAWEI/Middlewares/Third_Party/Huawei/iot_link/os/liteos/base/ipc\los_mux.c ****     OS_RETURN_ERROR_P2(uwErrLine, uwErrNo);
 471              		.loc 1 183 5 is_stmt 1 view .LVU141
 472              		.loc 1 183 5 view .LVU142
 473 000a 1A49     		ldr	r1, .L36+4
 474 000c 1A48     		ldr	r0, .L36+8
 475 000e 0023     		movs	r3, #0
 476 0010 0093     		str	r3, [sp]
 477 0012 2A46     		mov	r2, r5
 478 0014 FFF7FEFF 		bl	LOS_ErrHandle
 479              	.LVL24:
 480              		.loc 1 183 5 view .LVU143
 481              		.loc 1 183 5 view .LVU144
 184:D:/fchai/work/i-cube/I-CUBE-HUAWEI/Middlewares/Third_Party/Huawei/iot_link/os/liteos/base/ipc\los_mux.c **** }
 482              		.loc 1 184 1 is_stmt 0 view .LVU145
 483 0018 2846     		mov	r0, r5
 484 001a 03B0     		add	sp, sp, #12
 485              	.LCFI11:
 486              		.cfi_remember_state
 487              		.cfi_def_cfa_offset 20
 488              		@ sp needed
 489 001c F0BD     		pop	{r4, r5, r6, r7, pc}
 490              	.LVL25:
 491              	.L34:
 492              	.LCFI12:
 493              		.cfi_restore_state
 159:D:/fchai/work/i-cube/I-CUBE-HUAWEI/Middlewares/Third_Party/Huawei/iot_link/os/liteos/base/ipc\los_mux.c ****     }
ARM GAS  T:\msys\tmp\ccccxHvg.s 			page 18


 494              		.loc 1 159 9 is_stmt 1 view .LVU146
 162:D:/fchai/work/i-cube/I-CUBE-HUAWEI/Middlewares/Third_Party/Huawei/iot_link/os/liteos/base/ipc\los_mux.c ****     uwIntSave = LOS_IntLock();
 495              		.loc 1 162 5 view .LVU147
 162:D:/fchai/work/i-cube/I-CUBE-HUAWEI/Middlewares/Third_Party/Huawei/iot_link/os/liteos/base/ipc\los_mux.c ****     uwIntSave = LOS_IntLock();
 496              		.loc 1 162 21 is_stmt 0 view .LVU148
 497 001e 174B     		ldr	r3, .L36+12
 498 0020 00EB4000 		add	r0, r0, r0, lsl #1
 499              	.LVL26:
 162:D:/fchai/work/i-cube/I-CUBE-HUAWEI/Middlewares/Third_Party/Huawei/iot_link/os/liteos/base/ipc\los_mux.c ****     uwIntSave = LOS_IntLock();
 500              		.loc 1 162 19 view .LVU149
 501 0024 1E68     		ldr	r6, [r3]
 162:D:/fchai/work/i-cube/I-CUBE-HUAWEI/Middlewares/Third_Party/Huawei/iot_link/os/liteos/base/ipc\los_mux.c ****     uwIntSave = LOS_IntLock();
 502              		.loc 1 162 21 view .LVU150
 503 0026 C700     		lsls	r7, r0, #3
 162:D:/fchai/work/i-cube/I-CUBE-HUAWEI/Middlewares/Third_Party/Huawei/iot_link/os/liteos/base/ipc\los_mux.c ****     uwIntSave = LOS_IntLock();
 504              		.loc 1 162 19 view .LVU151
 505 0028 06EBC004 		add	r4, r6, r0, lsl #3
 506              	.LVL27:
 163:D:/fchai/work/i-cube/I-CUBE-HUAWEI/Middlewares/Third_Party/Huawei/iot_link/os/liteos/base/ipc\los_mux.c ****     if (OS_MUX_UNUSED == pstMuxDeleted->ucMuxStat)
 507              		.loc 1 163 5 is_stmt 1 view .LVU152
 163:D:/fchai/work/i-cube/I-CUBE-HUAWEI/Middlewares/Third_Party/Huawei/iot_link/os/liteos/base/ipc\los_mux.c ****     if (OS_MUX_UNUSED == pstMuxDeleted->ucMuxStat)
 508              		.loc 1 163 17 is_stmt 0 view .LVU153
 509 002c FFF7FEFF 		bl	LOS_IntLock
 510              	.LVL28:
 164:D:/fchai/work/i-cube/I-CUBE-HUAWEI/Middlewares/Third_Party/Huawei/iot_link/os/liteos/base/ipc\los_mux.c ****     {
 511              		.loc 1 164 8 view .LVU154
 512 0030 F25D     		ldrb	r2, [r6, r7]	@ zero_extendqisi2
 163:D:/fchai/work/i-cube/I-CUBE-HUAWEI/Middlewares/Third_Party/Huawei/iot_link/os/liteos/base/ipc\los_mux.c ****     if (OS_MUX_UNUSED == pstMuxDeleted->ucMuxStat)
 513              		.loc 1 163 17 view .LVU155
 514 0032 0346     		mov	r3, r0
 515              	.LVL29:
 164:D:/fchai/work/i-cube/I-CUBE-HUAWEI/Middlewares/Third_Party/Huawei/iot_link/os/liteos/base/ipc\los_mux.c ****     {
 516              		.loc 1 164 5 is_stmt 1 view .LVU156
 164:D:/fchai/work/i-cube/I-CUBE-HUAWEI/Middlewares/Third_Party/Huawei/iot_link/os/liteos/base/ipc\los_mux.c ****     {
 517              		.loc 1 164 8 is_stmt 0 view .LVU157
 518 0034 BAB1     		cbz	r2, .L35
 167:D:/fchai/work/i-cube/I-CUBE-HUAWEI/Middlewares/Third_Party/Huawei/iot_link/os/liteos/base/ipc\los_mux.c ****     }
 519              		.loc 1 167 9 is_stmt 1 view .LVU158
 170:D:/fchai/work/i-cube/I-CUBE-HUAWEI/Middlewares/Third_Party/Huawei/iot_link/os/liteos/base/ipc\los_mux.c ****     {
 520              		.loc 1 170 5 view .LVU159
 170:D:/fchai/work/i-cube/I-CUBE-HUAWEI/Middlewares/Third_Party/Huawei/iot_link/os/liteos/base/ipc\los_mux.c ****     {
 521              		.loc 1 170 8 is_stmt 0 view .LVU160
 522 0036 E168     		ldr	r1, [r4, #12]
 170:D:/fchai/work/i-cube/I-CUBE-HUAWEI/Middlewares/Third_Party/Huawei/iot_link/os/liteos/base/ipc\los_mux.c ****     {
 523              		.loc 1 170 10 view .LVU161
 524 0038 04F10802 		add	r2, r4, #8
 525              	.LVL30:
 526              	.LBB62:
 527              	.LBI62:
 213:D:/fchai/work/i-cube/I-CUBE-HUAWEI/Middlewares/Third_Party/Huawei/iot_link/os/liteos/include\los_list.h **** {
 528              		.loc 2 213 43 is_stmt 1 view .LVU162
 529              	.LBB63:
 530              		.loc 2 215 5 view .LVU163
 531              		.loc 2 215 5 is_stmt 0 view .LVU164
 532              	.LBE63:
 533              	.LBE62:
 170:D:/fchai/work/i-cube/I-CUBE-HUAWEI/Middlewares/Third_Party/Huawei/iot_link/os/liteos/base/ipc\los_mux.c ****     {
ARM GAS  T:\msys\tmp\ccccxHvg.s 			page 19


 534              		.loc 1 170 8 view .LVU165
 535 003c 8A42     		cmp	r2, r1
 536 003e 01D1     		bne	.L29
 170:D:/fchai/work/i-cube/I-CUBE-HUAWEI/Middlewares/Third_Party/Huawei/iot_link/os/liteos/base/ipc\los_mux.c ****     {
 537              		.loc 1 170 51 discriminator 1 view .LVU166
 538 0040 6588     		ldrh	r5, [r4, #2]
 539 0042 25B1     		cbz	r5, .L30
 540              	.L29:
 172:D:/fchai/work/i-cube/I-CUBE-HUAWEI/Middlewares/Third_Party/Huawei/iot_link/os/liteos/base/ipc\los_mux.c ****         OS_GOTO_ERR_HANDLER(LOS_ERRNO_MUX_PENDED);
 541              		.loc 1 172 9 is_stmt 1 view .LVU167
 542 0044 1846     		mov	r0, r3
 543              	.LVL31:
 172:D:/fchai/work/i-cube/I-CUBE-HUAWEI/Middlewares/Third_Party/Huawei/iot_link/os/liteos/base/ipc\los_mux.c ****         OS_GOTO_ERR_HANDLER(LOS_ERRNO_MUX_PENDED);
 544              		.loc 1 172 9 is_stmt 0 view .LVU168
 545 0046 FFF7FEFF 		bl	LOS_IntRestore
 546              	.LVL32:
 173:D:/fchai/work/i-cube/I-CUBE-HUAWEI/Middlewares/Third_Party/Huawei/iot_link/os/liteos/base/ipc\los_mux.c ****     }
 547              		.loc 1 173 9 is_stmt 1 view .LVU169
 173:D:/fchai/work/i-cube/I-CUBE-HUAWEI/Middlewares/Third_Party/Huawei/iot_link/os/liteos/base/ipc\los_mux.c ****     }
 548              		.loc 1 173 9 view .LVU170
 173:D:/fchai/work/i-cube/I-CUBE-HUAWEI/Middlewares/Third_Party/Huawei/iot_link/os/liteos/base/ipc\los_mux.c ****     }
 549              		.loc 1 173 9 view .LVU171
 173:D:/fchai/work/i-cube/I-CUBE-HUAWEI/Middlewares/Third_Party/Huawei/iot_link/os/liteos/base/ipc\los_mux.c ****     }
 550              		.loc 1 173 9 view .LVU172
 551 004a 0D4D     		ldr	r5, .L36+16
 552 004c DDE7     		b	.L27
 553              	.LVL33:
 554              	.L30:
 173:D:/fchai/work/i-cube/I-CUBE-HUAWEI/Middlewares/Third_Party/Huawei/iot_link/os/liteos/base/ipc\los_mux.c ****     }
 555              		.loc 1 173 9 view .LVU173
 176:D:/fchai/work/i-cube/I-CUBE-HUAWEI/Middlewares/Third_Party/Huawei/iot_link/os/liteos/base/ipc\los_mux.c ****     pstMuxDeleted->ucMuxStat = OS_MUX_UNUSED;
 556              		.loc 1 176 5 view .LVU174
 557              	.LBB64:
 558              	.LBI64:
 129:D:/fchai/work/i-cube/I-CUBE-HUAWEI/Middlewares/Third_Party/Huawei/iot_link/os/liteos/include\los_list.h **** {
 559              		.loc 2 129 43 view .LVU175
 560              	.LBB65:
 131:D:/fchai/work/i-cube/I-CUBE-HUAWEI/Middlewares/Third_Party/Huawei/iot_link/os/liteos/include\los_list.h ****     pstNode->pstPrev = pstList;
 561              		.loc 2 131 5 view .LVU176
 131:D:/fchai/work/i-cube/I-CUBE-HUAWEI/Middlewares/Third_Party/Huawei/iot_link/os/liteos/include\los_list.h ****     pstNode->pstPrev = pstList;
 562              		.loc 2 131 31 is_stmt 0 view .LVU177
 563 004e 0D4B     		ldr	r3, .L36+20
 132:D:/fchai/work/i-cube/I-CUBE-HUAWEI/Middlewares/Third_Party/Huawei/iot_link/os/liteos/include\los_list.h ****     pstList->pstNext->pstPrev = pstNode;
 564              		.loc 2 132 22 view .LVU178
 565 0050 A360     		str	r3, [r4, #8]
 131:D:/fchai/work/i-cube/I-CUBE-HUAWEI/Middlewares/Third_Party/Huawei/iot_link/os/liteos/include\los_list.h ****     pstNode->pstPrev = pstList;
 566              		.loc 2 131 31 view .LVU179
 567 0052 5968     		ldr	r1, [r3, #4]
 131:D:/fchai/work/i-cube/I-CUBE-HUAWEI/Middlewares/Third_Party/Huawei/iot_link/os/liteos/include\los_list.h ****     pstNode->pstPrev = pstList;
 568              		.loc 2 131 22 view .LVU180
 569 0054 E160     		str	r1, [r4, #12]
 132:D:/fchai/work/i-cube/I-CUBE-HUAWEI/Middlewares/Third_Party/Huawei/iot_link/os/liteos/include\los_list.h ****     pstList->pstNext->pstPrev = pstNode;
 570              		.loc 2 132 5 is_stmt 1 view .LVU181
 133:D:/fchai/work/i-cube/I-CUBE-HUAWEI/Middlewares/Third_Party/Huawei/iot_link/os/liteos/include\los_list.h ****     pstList->pstNext = pstNode;
 571              		.loc 2 133 5 view .LVU182
 133:D:/fchai/work/i-cube/I-CUBE-HUAWEI/Middlewares/Third_Party/Huawei/iot_link/os/liteos/include\los_list.h ****     pstList->pstNext = pstNode;
 572              		.loc 2 133 31 is_stmt 0 view .LVU183
ARM GAS  T:\msys\tmp\ccccxHvg.s 			page 20


 573 0056 0A60     		str	r2, [r1]
 134:D:/fchai/work/i-cube/I-CUBE-HUAWEI/Middlewares/Third_Party/Huawei/iot_link/os/liteos/include\los_list.h **** }
 574              		.loc 2 134 5 is_stmt 1 view .LVU184
 134:D:/fchai/work/i-cube/I-CUBE-HUAWEI/Middlewares/Third_Party/Huawei/iot_link/os/liteos/include\los_list.h **** }
 575              		.loc 2 134 22 is_stmt 0 view .LVU185
 576 0058 5A60     		str	r2, [r3, #4]
 577              	.LVL34:
 134:D:/fchai/work/i-cube/I-CUBE-HUAWEI/Middlewares/Third_Party/Huawei/iot_link/os/liteos/include\los_list.h **** }
 578              		.loc 2 134 22 view .LVU186
 579              	.LBE65:
 580              	.LBE64:
 177:D:/fchai/work/i-cube/I-CUBE-HUAWEI/Middlewares/Third_Party/Huawei/iot_link/os/liteos/base/ipc\los_mux.c **** 
 581              		.loc 1 177 5 is_stmt 1 view .LVU187
 177:D:/fchai/work/i-cube/I-CUBE-HUAWEI/Middlewares/Third_Party/Huawei/iot_link/os/liteos/base/ipc\los_mux.c **** 
 582              		.loc 1 177 30 is_stmt 0 view .LVU188
 583 005a F555     		strb	r5, [r6, r7]
 179:D:/fchai/work/i-cube/I-CUBE-HUAWEI/Middlewares/Third_Party/Huawei/iot_link/os/liteos/base/ipc\los_mux.c **** 
 584              		.loc 1 179 5 is_stmt 1 view .LVU189
 585 005c FFF7FEFF 		bl	LOS_IntRestore
 586              	.LVL35:
 181:D:/fchai/work/i-cube/I-CUBE-HUAWEI/Middlewares/Third_Party/Huawei/iot_link/os/liteos/base/ipc\los_mux.c **** ErrHandler:
 587              		.loc 1 181 5 view .LVU190
 588              		.loc 1 184 1 is_stmt 0 view .LVU191
 589 0060 2846     		mov	r0, r5
 590 0062 03B0     		add	sp, sp, #12
 591              	.LCFI13:
 592              		.cfi_remember_state
 593              		.cfi_def_cfa_offset 20
 594              		@ sp needed
 595 0064 F0BD     		pop	{r4, r5, r6, r7, pc}
 596              	.LVL36:
 597              	.L35:
 598              	.LCFI14:
 599              		.cfi_restore_state
 166:D:/fchai/work/i-cube/I-CUBE-HUAWEI/Middlewares/Third_Party/Huawei/iot_link/os/liteos/base/ipc\los_mux.c ****         OS_GOTO_ERR_HANDLER(LOS_ERRNO_MUX_INVALID);
 600              		.loc 1 166 9 is_stmt 1 view .LVU192
 601 0066 FFF7FEFF 		bl	LOS_IntRestore
 602              	.LVL37:
 167:D:/fchai/work/i-cube/I-CUBE-HUAWEI/Middlewares/Third_Party/Huawei/iot_link/os/liteos/base/ipc\los_mux.c ****     }
 603              		.loc 1 167 9 view .LVU193
 167:D:/fchai/work/i-cube/I-CUBE-HUAWEI/Middlewares/Third_Party/Huawei/iot_link/os/liteos/base/ipc\los_mux.c ****     }
 604              		.loc 1 167 9 view .LVU194
 167:D:/fchai/work/i-cube/I-CUBE-HUAWEI/Middlewares/Third_Party/Huawei/iot_link/os/liteos/base/ipc\los_mux.c ****     }
 605              		.loc 1 167 9 view .LVU195
 167:D:/fchai/work/i-cube/I-CUBE-HUAWEI/Middlewares/Third_Party/Huawei/iot_link/os/liteos/base/ipc\los_mux.c ****     }
 606              		.loc 1 167 9 view .LVU196
 607 006a 014D     		ldr	r5, .L36
 608 006c CDE7     		b	.L27
 609              	.L37:
 610 006e 00BF     		.align	2
 611              	.L36:
 612 0070 011D0002 		.word	33561857
 613 0074 F8C3B2A1 		.word	-1582119944
 614 0078 00000000 		.word	.LC0
 615 007c 00000000 		.word	.LANCHOR0
 616 0080 091D0002 		.word	33561865
 617 0084 00000000 		.word	g_stUnusedMuxList
ARM GAS  T:\msys\tmp\ccccxHvg.s 			page 21


 618              		.cfi_endproc
 619              	.LFE135:
 621              		.section	.rodata.LOS_MuxPend.str1.4,"aMS",%progbits,1
 622              		.align	2
 623              	.LC1:
 624 0000 5B455252 		.ascii	"[ERR] \000"
 624      5D2000
 625 0007 00       		.align	2
 626              	.LC2:
 627 0008 2121214C 		.ascii	"!!!LOS_ERRNO_MUX_PEND_IN_LOCK!!!\000"
 627      4F535F45 
 627      52524E4F 
 627      5F4D5558 
 627      5F50454E 
 628              		.section	.text.LOS_MuxPend,"ax",%progbits
 629              		.align	1
 630              		.p2align 2,,3
 631              		.global	LOS_MuxPend
 632              		.syntax unified
 633              		.thumb
 634              		.thumb_func
 635              		.fpu fpv4-sp-d16
 637              	LOS_MuxPend:
 638              	.LVL38:
 639              	.LFB136:
 185:D:/fchai/work/i-cube/I-CUBE-HUAWEI/Middlewares/Third_Party/Huawei/iot_link/os/liteos/base/ipc\los_mux.c **** 
 186:D:/fchai/work/i-cube/I-CUBE-HUAWEI/Middlewares/Third_Party/Huawei/iot_link/os/liteos/base/ipc\los_mux.c **** /*****************************************************************************
 187:D:/fchai/work/i-cube/I-CUBE-HUAWEI/Middlewares/Third_Party/Huawei/iot_link/os/liteos/base/ipc\los_mux.c ****  Function     : LOS_MuxPend
 188:D:/fchai/work/i-cube/I-CUBE-HUAWEI/Middlewares/Third_Party/Huawei/iot_link/os/liteos/base/ipc\los_mux.c ****  Description  : Specify the mutex P operation,
 189:D:/fchai/work/i-cube/I-CUBE-HUAWEI/Middlewares/Third_Party/Huawei/iot_link/os/liteos/base/ipc\los_mux.c ****  Input        : uwMuxHandle ------ Mutex operation handleone,
 190:D:/fchai/work/i-cube/I-CUBE-HUAWEI/Middlewares/Third_Party/Huawei/iot_link/os/liteos/base/ipc\los_mux.c ****                 uwTimeOut  ------- waiting time,
 191:D:/fchai/work/i-cube/I-CUBE-HUAWEI/Middlewares/Third_Party/Huawei/iot_link/os/liteos/base/ipc\los_mux.c ****  Output       : None
 192:D:/fchai/work/i-cube/I-CUBE-HUAWEI/Middlewares/Third_Party/Huawei/iot_link/os/liteos/base/ipc\los_mux.c ****  Return       : LOS_OK on success ,or error code on failure
 193:D:/fchai/work/i-cube/I-CUBE-HUAWEI/Middlewares/Third_Party/Huawei/iot_link/os/liteos/base/ipc\los_mux.c ****  *****************************************************************************/
 194:D:/fchai/work/i-cube/I-CUBE-HUAWEI/Middlewares/Third_Party/Huawei/iot_link/os/liteos/base/ipc\los_mux.c **** LITE_OS_SEC_TEXT UINT32 LOS_MuxPend(UINT32 uwMuxHandle, UINT32 uwTimeout)
 195:D:/fchai/work/i-cube/I-CUBE-HUAWEI/Middlewares/Third_Party/Huawei/iot_link/os/liteos/base/ipc\los_mux.c **** {
 640              		.loc 1 195 1 view -0
 641              		.cfi_startproc
 642              		@ args = 0, pretend = 0, frame = 0
 643              		@ frame_needed = 0, uses_anonymous_args = 0
 196:D:/fchai/work/i-cube/I-CUBE-HUAWEI/Middlewares/Third_Party/Huawei/iot_link/os/liteos/base/ipc\los_mux.c ****     UINT32     uwIntSave;
 644              		.loc 1 196 5 view .LVU198
 197:D:/fchai/work/i-cube/I-CUBE-HUAWEI/Middlewares/Third_Party/Huawei/iot_link/os/liteos/base/ipc\los_mux.c ****     MUX_CB_S  *pstMuxPended;
 645              		.loc 1 197 5 view .LVU199
 198:D:/fchai/work/i-cube/I-CUBE-HUAWEI/Middlewares/Third_Party/Huawei/iot_link/os/liteos/base/ipc\los_mux.c ****     UINT32     uwRetErr;
 646              		.loc 1 198 5 view .LVU200
 199:D:/fchai/work/i-cube/I-CUBE-HUAWEI/Middlewares/Third_Party/Huawei/iot_link/os/liteos/base/ipc\los_mux.c ****     LOS_TASK_CB  *pstRunTsk;
 647              		.loc 1 199 5 view .LVU201
 200:D:/fchai/work/i-cube/I-CUBE-HUAWEI/Middlewares/Third_Party/Huawei/iot_link/os/liteos/base/ipc\los_mux.c **** 
 201:D:/fchai/work/i-cube/I-CUBE-HUAWEI/Middlewares/Third_Party/Huawei/iot_link/os/liteos/base/ipc\los_mux.c ****     if (uwMuxHandle >= (UINT32)LOSCFG_BASE_IPC_MUX_LIMIT)
 648              		.loc 1 201 5 view .LVU202
 195:D:/fchai/work/i-cube/I-CUBE-HUAWEI/Middlewares/Third_Party/Huawei/iot_link/os/liteos/base/ipc\los_mux.c ****     UINT32     uwIntSave;
 649              		.loc 1 195 1 is_stmt 0 view .LVU203
 650 0000 2DE9F041 		push	{r4, r5, r6, r7, r8, lr}
 651              	.LCFI15:
 652              		.cfi_def_cfa_offset 24
 653              		.cfi_offset 4, -24
ARM GAS  T:\msys\tmp\ccccxHvg.s 			page 22


 654              		.cfi_offset 5, -20
 655              		.cfi_offset 6, -16
 656              		.cfi_offset 7, -12
 657              		.cfi_offset 8, -8
 658              		.cfi_offset 14, -4
 659              		.loc 1 201 8 view .LVU204
 660 0004 1328     		cmp	r0, #19
 195:D:/fchai/work/i-cube/I-CUBE-HUAWEI/Middlewares/Third_Party/Huawei/iot_link/os/liteos/base/ipc\los_mux.c ****     UINT32     uwIntSave;
 661              		.loc 1 195 1 view .LVU205
 662 0006 82B0     		sub	sp, sp, #8
 663              	.LCFI16:
 664              		.cfi_def_cfa_offset 32
 665              		.loc 1 201 8 view .LVU206
 666 0008 35D8     		bhi	.L54
 202:D:/fchai/work/i-cube/I-CUBE-HUAWEI/Middlewares/Third_Party/Huawei/iot_link/os/liteos/base/ipc\los_mux.c ****     {
 203:D:/fchai/work/i-cube/I-CUBE-HUAWEI/Middlewares/Third_Party/Huawei/iot_link/os/liteos/base/ipc\los_mux.c ****         OS_RETURN_ERROR(LOS_ERRNO_MUX_INVALID);
 667              		.loc 1 203 9 is_stmt 1 view .LVU207
 204:D:/fchai/work/i-cube/I-CUBE-HUAWEI/Middlewares/Third_Party/Huawei/iot_link/os/liteos/base/ipc\los_mux.c ****     }
 205:D:/fchai/work/i-cube/I-CUBE-HUAWEI/Middlewares/Third_Party/Huawei/iot_link/os/liteos/base/ipc\los_mux.c **** 
 206:D:/fchai/work/i-cube/I-CUBE-HUAWEI/Middlewares/Third_Party/Huawei/iot_link/os/liteos/base/ipc\los_mux.c ****     pstMuxPended = GET_MUX(uwMuxHandle);
 668              		.loc 1 206 5 view .LVU208
 669              		.loc 1 206 20 is_stmt 0 view .LVU209
 670 000a 414B     		ldr	r3, .L63
 671 000c 00EB4000 		add	r0, r0, r0, lsl #1
 672              	.LVL39:
 673              		.loc 1 206 18 view .LVU210
 674 0010 1D68     		ldr	r5, [r3]
 675              		.loc 1 206 20 view .LVU211
 676 0012 C600     		lsls	r6, r0, #3
 677              		.loc 1 206 18 view .LVU212
 678 0014 05EBC004 		add	r4, r5, r0, lsl #3
 679              	.LVL40:
 207:D:/fchai/work/i-cube/I-CUBE-HUAWEI/Middlewares/Third_Party/Huawei/iot_link/os/liteos/base/ipc\los_mux.c ****     uwIntSave = LOS_IntLock();
 680              		.loc 1 207 5 is_stmt 1 view .LVU213
 681 0018 0F46     		mov	r7, r1
 682              		.loc 1 207 17 is_stmt 0 view .LVU214
 683 001a FFF7FEFF 		bl	LOS_IntLock
 684              	.LVL41:
 208:D:/fchai/work/i-cube/I-CUBE-HUAWEI/Middlewares/Third_Party/Huawei/iot_link/os/liteos/base/ipc\los_mux.c ****     if (OS_MUX_UNUSED == pstMuxPended->ucMuxStat)
 685              		.loc 1 208 8 view .LVU215
 686 001e AD5D     		ldrb	r5, [r5, r6]	@ zero_extendqisi2
 207:D:/fchai/work/i-cube/I-CUBE-HUAWEI/Middlewares/Third_Party/Huawei/iot_link/os/liteos/base/ipc\los_mux.c ****     uwIntSave = LOS_IntLock();
 687              		.loc 1 207 17 view .LVU216
 688 0020 8046     		mov	r8, r0
 689              	.LVL42:
 690              		.loc 1 208 5 is_stmt 1 view .LVU217
 691              		.loc 1 208 8 is_stmt 0 view .LVU218
 692 0022 002D     		cmp	r5, #0
 693 0024 42D0     		beq	.L55
 209:D:/fchai/work/i-cube/I-CUBE-HUAWEI/Middlewares/Third_Party/Huawei/iot_link/os/liteos/base/ipc\los_mux.c ****     {
 210:D:/fchai/work/i-cube/I-CUBE-HUAWEI/Middlewares/Third_Party/Huawei/iot_link/os/liteos/base/ipc\los_mux.c ****         LOS_IntRestore(uwIntSave);
 211:D:/fchai/work/i-cube/I-CUBE-HUAWEI/Middlewares/Third_Party/Huawei/iot_link/os/liteos/base/ipc\los_mux.c ****         OS_RETURN_ERROR(LOS_ERRNO_MUX_INVALID);
 694              		.loc 1 211 9 is_stmt 1 view .LVU219
 212:D:/fchai/work/i-cube/I-CUBE-HUAWEI/Middlewares/Third_Party/Huawei/iot_link/os/liteos/base/ipc\los_mux.c ****     }
 213:D:/fchai/work/i-cube/I-CUBE-HUAWEI/Middlewares/Third_Party/Huawei/iot_link/os/liteos/base/ipc\los_mux.c **** 
 214:D:/fchai/work/i-cube/I-CUBE-HUAWEI/Middlewares/Third_Party/Huawei/iot_link/os/liteos/base/ipc\los_mux.c ****     if (OS_INT_ACTIVE)
 695              		.loc 1 214 5 view .LVU220
ARM GAS  T:\msys\tmp\ccccxHvg.s 			page 23


 696              		.loc 1 214 9 is_stmt 0 view .LVU221
 697 0026 3B4B     		ldr	r3, .L63+4
 698 0028 1D68     		ldr	r5, [r3]
 699              		.loc 1 214 8 view .LVU222
 700 002a 002D     		cmp	r5, #0
 701 002c 43D1     		bne	.L56
 215:D:/fchai/work/i-cube/I-CUBE-HUAWEI/Middlewares/Third_Party/Huawei/iot_link/os/liteos/base/ipc\los_mux.c ****     {
 216:D:/fchai/work/i-cube/I-CUBE-HUAWEI/Middlewares/Third_Party/Huawei/iot_link/os/liteos/base/ipc\los_mux.c ****         LOS_IntRestore(uwIntSave);
 217:D:/fchai/work/i-cube/I-CUBE-HUAWEI/Middlewares/Third_Party/Huawei/iot_link/os/liteos/base/ipc\los_mux.c ****         return LOS_ERRNO_MUX_PEND_INTERR;
 218:D:/fchai/work/i-cube/I-CUBE-HUAWEI/Middlewares/Third_Party/Huawei/iot_link/os/liteos/base/ipc\los_mux.c ****     }
 219:D:/fchai/work/i-cube/I-CUBE-HUAWEI/Middlewares/Third_Party/Huawei/iot_link/os/liteos/base/ipc\los_mux.c **** 
 220:D:/fchai/work/i-cube/I-CUBE-HUAWEI/Middlewares/Third_Party/Huawei/iot_link/os/liteos/base/ipc\los_mux.c ****     pstRunTsk = (LOS_TASK_CB *)g_stLosTask.pstRunTask;
 702              		.loc 1 220 5 is_stmt 1 view .LVU223
 703              		.loc 1 220 15 is_stmt 0 view .LVU224
 704 002e 3A4B     		ldr	r3, .L63+8
 221:D:/fchai/work/i-cube/I-CUBE-HUAWEI/Middlewares/Third_Party/Huawei/iot_link/os/liteos/base/ipc\los_mux.c ****     if (pstMuxPended->usMuxCount == 0)
 705              		.loc 1 221 21 view .LVU225
 706 0030 6288     		ldrh	r2, [r4, #2]
 220:D:/fchai/work/i-cube/I-CUBE-HUAWEI/Middlewares/Third_Party/Huawei/iot_link/os/liteos/base/ipc\los_mux.c ****     if (pstMuxPended->usMuxCount == 0)
 707              		.loc 1 220 15 view .LVU226
 708 0032 1E68     		ldr	r6, [r3]
 709              	.LVL43:
 710              		.loc 1 221 5 is_stmt 1 view .LVU227
 711              		.loc 1 221 8 is_stmt 0 view .LVU228
 712 0034 5AB3     		cbz	r2, .L57
 222:D:/fchai/work/i-cube/I-CUBE-HUAWEI/Middlewares/Third_Party/Huawei/iot_link/os/liteos/base/ipc\los_mux.c ****     {
 223:D:/fchai/work/i-cube/I-CUBE-HUAWEI/Middlewares/Third_Party/Huawei/iot_link/os/liteos/base/ipc\los_mux.c ****         pstMuxPended->usMuxCount++;
 224:D:/fchai/work/i-cube/I-CUBE-HUAWEI/Middlewares/Third_Party/Huawei/iot_link/os/liteos/base/ipc\los_mux.c ****         pstMuxPended->pstOwner = pstRunTsk;
 225:D:/fchai/work/i-cube/I-CUBE-HUAWEI/Middlewares/Third_Party/Huawei/iot_link/os/liteos/base/ipc\los_mux.c ****         pstMuxPended->usPriority = pstRunTsk->usPriority;
 226:D:/fchai/work/i-cube/I-CUBE-HUAWEI/Middlewares/Third_Party/Huawei/iot_link/os/liteos/base/ipc\los_mux.c ****         LOS_IntRestore(uwIntSave);
 227:D:/fchai/work/i-cube/I-CUBE-HUAWEI/Middlewares/Third_Party/Huawei/iot_link/os/liteos/base/ipc\los_mux.c ****         return LOS_OK;
 228:D:/fchai/work/i-cube/I-CUBE-HUAWEI/Middlewares/Third_Party/Huawei/iot_link/os/liteos/base/ipc\los_mux.c ****     }
 229:D:/fchai/work/i-cube/I-CUBE-HUAWEI/Middlewares/Third_Party/Huawei/iot_link/os/liteos/base/ipc\los_mux.c **** 
 230:D:/fchai/work/i-cube/I-CUBE-HUAWEI/Middlewares/Third_Party/Huawei/iot_link/os/liteos/base/ipc\los_mux.c ****     if (pstMuxPended->pstOwner == pstRunTsk)
 713              		.loc 1 230 5 is_stmt 1 view .LVU229
 714              		.loc 1 230 21 is_stmt 0 view .LVU230
 715 0036 2369     		ldr	r3, [r4, #16]
 716              		.loc 1 230 8 view .LVU231
 717 0038 B342     		cmp	r3, r6
 718 003a 63D0     		beq	.L58
 231:D:/fchai/work/i-cube/I-CUBE-HUAWEI/Middlewares/Third_Party/Huawei/iot_link/os/liteos/base/ipc\los_mux.c ****     {
 232:D:/fchai/work/i-cube/I-CUBE-HUAWEI/Middlewares/Third_Party/Huawei/iot_link/os/liteos/base/ipc\los_mux.c ****         pstMuxPended->usMuxCount++;
 233:D:/fchai/work/i-cube/I-CUBE-HUAWEI/Middlewares/Third_Party/Huawei/iot_link/os/liteos/base/ipc\los_mux.c ****         LOS_IntRestore(uwIntSave);
 234:D:/fchai/work/i-cube/I-CUBE-HUAWEI/Middlewares/Third_Party/Huawei/iot_link/os/liteos/base/ipc\los_mux.c ****         return LOS_OK;
 235:D:/fchai/work/i-cube/I-CUBE-HUAWEI/Middlewares/Third_Party/Huawei/iot_link/os/liteos/base/ipc\los_mux.c ****     }
 236:D:/fchai/work/i-cube/I-CUBE-HUAWEI/Middlewares/Third_Party/Huawei/iot_link/os/liteos/base/ipc\los_mux.c **** 
 237:D:/fchai/work/i-cube/I-CUBE-HUAWEI/Middlewares/Third_Party/Huawei/iot_link/os/liteos/base/ipc\los_mux.c ****     if (!uwTimeout)
 719              		.loc 1 237 5 is_stmt 1 view .LVU232
 720              		.loc 1 237 8 is_stmt 0 view .LVU233
 721 003c 002F     		cmp	r7, #0
 722 003e 5DD0     		beq	.L59
 238:D:/fchai/work/i-cube/I-CUBE-HUAWEI/Middlewares/Third_Party/Huawei/iot_link/os/liteos/base/ipc\los_mux.c ****     {
 239:D:/fchai/work/i-cube/I-CUBE-HUAWEI/Middlewares/Third_Party/Huawei/iot_link/os/liteos/base/ipc\los_mux.c ****         LOS_IntRestore(uwIntSave);
 240:D:/fchai/work/i-cube/I-CUBE-HUAWEI/Middlewares/Third_Party/Huawei/iot_link/os/liteos/base/ipc\los_mux.c ****         return LOS_ERRNO_MUX_UNAVAILABLE;
 241:D:/fchai/work/i-cube/I-CUBE-HUAWEI/Middlewares/Third_Party/Huawei/iot_link/os/liteos/base/ipc\los_mux.c ****     }
 242:D:/fchai/work/i-cube/I-CUBE-HUAWEI/Middlewares/Third_Party/Huawei/iot_link/os/liteos/base/ipc\los_mux.c **** 
 243:D:/fchai/work/i-cube/I-CUBE-HUAWEI/Middlewares/Third_Party/Huawei/iot_link/os/liteos/base/ipc\los_mux.c ****     if (g_usLosTaskLock)
ARM GAS  T:\msys\tmp\ccccxHvg.s 			page 24


 723              		.loc 1 243 5 is_stmt 1 view .LVU234
 724              		.loc 1 243 9 is_stmt 0 view .LVU235
 725 0040 364A     		ldr	r2, .L63+12
 726              		.loc 1 243 8 view .LVU236
 727 0042 1288     		ldrh	r2, [r2]
 728 0044 002A     		cmp	r2, #0
 729 0046 3AD1     		bne	.L60
 244:D:/fchai/work/i-cube/I-CUBE-HUAWEI/Middlewares/Third_Party/Huawei/iot_link/os/liteos/base/ipc\los_mux.c ****     {
 245:D:/fchai/work/i-cube/I-CUBE-HUAWEI/Middlewares/Third_Party/Huawei/iot_link/os/liteos/base/ipc\los_mux.c ****         uwRetErr = LOS_ERRNO_MUX_PEND_IN_LOCK;
 246:D:/fchai/work/i-cube/I-CUBE-HUAWEI/Middlewares/Third_Party/Huawei/iot_link/os/liteos/base/ipc\los_mux.c ****         PRINT_ERR("!!!LOS_ERRNO_MUX_PEND_IN_LOCK!!!\n");
 247:D:/fchai/work/i-cube/I-CUBE-HUAWEI/Middlewares/Third_Party/Huawei/iot_link/os/liteos/base/ipc\los_mux.c **** #if (LOSCFG_PLATFORM_EXC == YES)
 248:D:/fchai/work/i-cube/I-CUBE-HUAWEI/Middlewares/Third_Party/Huawei/iot_link/os/liteos/base/ipc\los_mux.c ****         osBackTrace();
 249:D:/fchai/work/i-cube/I-CUBE-HUAWEI/Middlewares/Third_Party/Huawei/iot_link/os/liteos/base/ipc\los_mux.c **** #endif
 250:D:/fchai/work/i-cube/I-CUBE-HUAWEI/Middlewares/Third_Party/Huawei/iot_link/os/liteos/base/ipc\los_mux.c ****         goto errre_uniMuxPend;
 251:D:/fchai/work/i-cube/I-CUBE-HUAWEI/Middlewares/Third_Party/Huawei/iot_link/os/liteos/base/ipc\los_mux.c ****     }
 252:D:/fchai/work/i-cube/I-CUBE-HUAWEI/Middlewares/Third_Party/Huawei/iot_link/os/liteos/base/ipc\los_mux.c **** 
 253:D:/fchai/work/i-cube/I-CUBE-HUAWEI/Middlewares/Third_Party/Huawei/iot_link/os/liteos/base/ipc\los_mux.c ****     pstRunTsk->pTaskMux = (VOID *)pstMuxPended;
 730              		.loc 1 253 5 is_stmt 1 view .LVU237
 254:D:/fchai/work/i-cube/I-CUBE-HUAWEI/Middlewares/Third_Party/Huawei/iot_link/os/liteos/base/ipc\los_mux.c **** 
 255:D:/fchai/work/i-cube/I-CUBE-HUAWEI/Middlewares/Third_Party/Huawei/iot_link/os/liteos/base/ipc\los_mux.c ****     if (pstMuxPended->pstOwner->usPriority > pstRunTsk->usPriority)
 731              		.loc 1 255 8 is_stmt 0 view .LVU238
 732 0048 DA88     		ldrh	r2, [r3, #6]
 733              		.loc 1 255 55 view .LVU239
 734 004a F188     		ldrh	r1, [r6, #6]
 253:D:/fchai/work/i-cube/I-CUBE-HUAWEI/Middlewares/Third_Party/Huawei/iot_link/os/liteos/base/ipc\los_mux.c **** 
 735              		.loc 1 253 25 view .LVU240
 736 004c F461     		str	r4, [r6, #28]
 737              		.loc 1 255 5 is_stmt 1 view .LVU241
 738              		.loc 1 255 8 is_stmt 0 view .LVU242
 739 004e 8A42     		cmp	r2, r1
 740 0050 28D8     		bhi	.L61
 741              	.LVL44:
 742              	.L48:
 256:D:/fchai/work/i-cube/I-CUBE-HUAWEI/Middlewares/Third_Party/Huawei/iot_link/os/liteos/base/ipc\los_mux.c ****     {
 257:D:/fchai/work/i-cube/I-CUBE-HUAWEI/Middlewares/Third_Party/Huawei/iot_link/os/liteos/base/ipc\los_mux.c ****         osTaskPriModify(pstMuxPended->pstOwner, pstRunTsk->usPriority);
 258:D:/fchai/work/i-cube/I-CUBE-HUAWEI/Middlewares/Third_Party/Huawei/iot_link/os/liteos/base/ipc\los_mux.c ****     }
 259:D:/fchai/work/i-cube/I-CUBE-HUAWEI/Middlewares/Third_Party/Huawei/iot_link/os/liteos/base/ipc\los_mux.c **** 
 260:D:/fchai/work/i-cube/I-CUBE-HUAWEI/Middlewares/Third_Party/Huawei/iot_link/os/liteos/base/ipc\los_mux.c ****     osTaskWait(&pstMuxPended->stMuxList, OS_TASK_STATUS_PEND, uwTimeout);
 743              		.loc 1 260 5 is_stmt 1 view .LVU243
 744 0052 3A46     		mov	r2, r7
 745 0054 0821     		movs	r1, #8
 746 0056 04F10800 		add	r0, r4, #8
 747 005a FFF7FEFF 		bl	osTaskWait
 748              	.LVL45:
 261:D:/fchai/work/i-cube/I-CUBE-HUAWEI/Middlewares/Third_Party/Huawei/iot_link/os/liteos/base/ipc\los_mux.c **** 
 262:D:/fchai/work/i-cube/I-CUBE-HUAWEI/Middlewares/Third_Party/Huawei/iot_link/os/liteos/base/ipc\los_mux.c ****     (VOID)LOS_IntRestore(uwIntSave);
 749              		.loc 1 262 5 view .LVU244
 750 005e 4046     		mov	r0, r8
 751 0060 FFF7FEFF 		bl	LOS_IntRestore
 752              	.LVL46:
 263:D:/fchai/work/i-cube/I-CUBE-HUAWEI/Middlewares/Third_Party/Huawei/iot_link/os/liteos/base/ipc\los_mux.c ****     LOS_Schedule();
 753              		.loc 1 263 5 view .LVU245
 754 0064 FFF7FEFF 		bl	LOS_Schedule
 755              	.LVL47:
 264:D:/fchai/work/i-cube/I-CUBE-HUAWEI/Middlewares/Third_Party/Huawei/iot_link/os/liteos/base/ipc\los_mux.c **** 
 265:D:/fchai/work/i-cube/I-CUBE-HUAWEI/Middlewares/Third_Party/Huawei/iot_link/os/liteos/base/ipc\los_mux.c ****     if (pstRunTsk->usTaskStatus & OS_TASK_STATUS_TIMEOUT)
 756              		.loc 1 265 5 view .LVU246
ARM GAS  T:\msys\tmp\ccccxHvg.s 			page 25


 757              		.loc 1 265 8 is_stmt 0 view .LVU247
 758 0068 B388     		ldrh	r3, [r6, #4]
 759 006a 5B06     		lsls	r3, r3, #25
 760 006c 3CD4     		bmi	.L62
 761              	.LVL48:
 762              	.L38:
 266:D:/fchai/work/i-cube/I-CUBE-HUAWEI/Middlewares/Third_Party/Huawei/iot_link/os/liteos/base/ipc\los_mux.c ****     {
 267:D:/fchai/work/i-cube/I-CUBE-HUAWEI/Middlewares/Third_Party/Huawei/iot_link/os/liteos/base/ipc\los_mux.c ****         uwIntSave = LOS_IntLock();
 268:D:/fchai/work/i-cube/I-CUBE-HUAWEI/Middlewares/Third_Party/Huawei/iot_link/os/liteos/base/ipc\los_mux.c ****         pstRunTsk->usTaskStatus &= (~OS_TASK_STATUS_TIMEOUT);
 269:D:/fchai/work/i-cube/I-CUBE-HUAWEI/Middlewares/Third_Party/Huawei/iot_link/os/liteos/base/ipc\los_mux.c ****         (VOID)LOS_IntRestore(uwIntSave);
 270:D:/fchai/work/i-cube/I-CUBE-HUAWEI/Middlewares/Third_Party/Huawei/iot_link/os/liteos/base/ipc\los_mux.c ****         uwRetErr = LOS_ERRNO_MUX_TIMEOUT;
 271:D:/fchai/work/i-cube/I-CUBE-HUAWEI/Middlewares/Third_Party/Huawei/iot_link/os/liteos/base/ipc\los_mux.c ****         goto error_uniMuxPend;
 272:D:/fchai/work/i-cube/I-CUBE-HUAWEI/Middlewares/Third_Party/Huawei/iot_link/os/liteos/base/ipc\los_mux.c ****     }
 273:D:/fchai/work/i-cube/I-CUBE-HUAWEI/Middlewares/Third_Party/Huawei/iot_link/os/liteos/base/ipc\los_mux.c **** 
 274:D:/fchai/work/i-cube/I-CUBE-HUAWEI/Middlewares/Third_Party/Huawei/iot_link/os/liteos/base/ipc\los_mux.c ****     return LOS_OK;
 275:D:/fchai/work/i-cube/I-CUBE-HUAWEI/Middlewares/Third_Party/Huawei/iot_link/os/liteos/base/ipc\los_mux.c **** 
 276:D:/fchai/work/i-cube/I-CUBE-HUAWEI/Middlewares/Third_Party/Huawei/iot_link/os/liteos/base/ipc\los_mux.c **** errre_uniMuxPend:
 277:D:/fchai/work/i-cube/I-CUBE-HUAWEI/Middlewares/Third_Party/Huawei/iot_link/os/liteos/base/ipc\los_mux.c ****     (VOID)LOS_IntRestore(uwIntSave);
 278:D:/fchai/work/i-cube/I-CUBE-HUAWEI/Middlewares/Third_Party/Huawei/iot_link/os/liteos/base/ipc\los_mux.c **** error_uniMuxPend:
 279:D:/fchai/work/i-cube/I-CUBE-HUAWEI/Middlewares/Third_Party/Huawei/iot_link/os/liteos/base/ipc\los_mux.c ****     OS_RETURN_ERROR(uwRetErr);
 280:D:/fchai/work/i-cube/I-CUBE-HUAWEI/Middlewares/Third_Party/Huawei/iot_link/os/liteos/base/ipc\los_mux.c **** }
 763              		.loc 1 280 1 view .LVU248
 764 006e 2846     		mov	r0, r5
 765 0070 02B0     		add	sp, sp, #8
 766              	.LCFI17:
 767              		.cfi_remember_state
 768              		.cfi_def_cfa_offset 24
 769              		@ sp needed
 770 0072 BDE8F081 		pop	{r4, r5, r6, r7, r8, pc}
 771              	.LVL49:
 772              	.L54:
 773              	.LCFI18:
 774              		.cfi_restore_state
 203:D:/fchai/work/i-cube/I-CUBE-HUAWEI/Middlewares/Third_Party/Huawei/iot_link/os/liteos/base/ipc\los_mux.c ****     }
 775              		.loc 1 203 9 is_stmt 1 view .LVU249
 203:D:/fchai/work/i-cube/I-CUBE-HUAWEI/Middlewares/Third_Party/Huawei/iot_link/os/liteos/base/ipc\los_mux.c ****     }
 776              		.loc 1 203 9 view .LVU250
 777 0076 0023     		movs	r3, #0
 778 0078 0093     		str	r3, [sp]
 779              	.LVL50:
 780              	.L53:
 211:D:/fchai/work/i-cube/I-CUBE-HUAWEI/Middlewares/Third_Party/Huawei/iot_link/os/liteos/base/ipc\los_mux.c ****     }
 781              		.loc 1 211 9 is_stmt 0 view .LVU251
 782 007a 294A     		ldr	r2, .L63+16
 783 007c 2949     		ldr	r1, .L63+20
 784 007e 2A48     		ldr	r0, .L63+24
 785 0080 1546     		mov	r5, r2
 786 0082 FFF7FEFF 		bl	LOS_ErrHandle
 787              	.LVL51:
 211:D:/fchai/work/i-cube/I-CUBE-HUAWEI/Middlewares/Third_Party/Huawei/iot_link/os/liteos/base/ipc\los_mux.c ****     }
 788              		.loc 1 211 9 is_stmt 1 view .LVU252
 789              		.loc 1 280 1 is_stmt 0 view .LVU253
 790 0086 2846     		mov	r0, r5
 791 0088 02B0     		add	sp, sp, #8
 792              	.LCFI19:
 793              		.cfi_remember_state
 794              		.cfi_def_cfa_offset 24
ARM GAS  T:\msys\tmp\ccccxHvg.s 			page 26


 795              		@ sp needed
 796 008a BDE8F081 		pop	{r4, r5, r6, r7, r8, pc}
 797              	.LVL52:
 798              	.L57:
 799              	.LCFI20:
 800              		.cfi_restore_state
 223:D:/fchai/work/i-cube/I-CUBE-HUAWEI/Middlewares/Third_Party/Huawei/iot_link/os/liteos/base/ipc\los_mux.c ****         pstMuxPended->pstOwner = pstRunTsk;
 801              		.loc 1 223 9 is_stmt 1 view .LVU254
 225:D:/fchai/work/i-cube/I-CUBE-HUAWEI/Middlewares/Third_Party/Huawei/iot_link/os/liteos/base/ipc\los_mux.c ****         LOS_IntRestore(uwIntSave);
 802              		.loc 1 225 34 is_stmt 0 view .LVU255
 803 008e F288     		ldrh	r2, [r6, #6]
 804 0090 A282     		strh	r2, [r4, #20]	@ movhi
 223:D:/fchai/work/i-cube/I-CUBE-HUAWEI/Middlewares/Third_Party/Huawei/iot_link/os/liteos/base/ipc\los_mux.c ****         pstMuxPended->pstOwner = pstRunTsk;
 805              		.loc 1 223 33 view .LVU256
 806 0092 0123     		movs	r3, #1
 224:D:/fchai/work/i-cube/I-CUBE-HUAWEI/Middlewares/Third_Party/Huawei/iot_link/os/liteos/base/ipc\los_mux.c ****         pstMuxPended->usPriority = pstRunTsk->usPriority;
 807              		.loc 1 224 32 view .LVU257
 808 0094 2661     		str	r6, [r4, #16]
 223:D:/fchai/work/i-cube/I-CUBE-HUAWEI/Middlewares/Third_Party/Huawei/iot_link/os/liteos/base/ipc\los_mux.c ****         pstMuxPended->pstOwner = pstRunTsk;
 809              		.loc 1 223 33 view .LVU258
 810 0096 6380     		strh	r3, [r4, #2]	@ movhi
 224:D:/fchai/work/i-cube/I-CUBE-HUAWEI/Middlewares/Third_Party/Huawei/iot_link/os/liteos/base/ipc\los_mux.c ****         pstMuxPended->usPriority = pstRunTsk->usPriority;
 811              		.loc 1 224 9 is_stmt 1 view .LVU259
 225:D:/fchai/work/i-cube/I-CUBE-HUAWEI/Middlewares/Third_Party/Huawei/iot_link/os/liteos/base/ipc\los_mux.c ****         LOS_IntRestore(uwIntSave);
 812              		.loc 1 225 9 view .LVU260
 226:D:/fchai/work/i-cube/I-CUBE-HUAWEI/Middlewares/Third_Party/Huawei/iot_link/os/liteos/base/ipc\los_mux.c ****         return LOS_OK;
 813              		.loc 1 226 9 view .LVU261
 814 0098 FFF7FEFF 		bl	LOS_IntRestore
 815              	.LVL53:
 227:D:/fchai/work/i-cube/I-CUBE-HUAWEI/Middlewares/Third_Party/Huawei/iot_link/os/liteos/base/ipc\los_mux.c ****     }
 816              		.loc 1 227 9 view .LVU262
 817              		.loc 1 280 1 is_stmt 0 view .LVU263
 818 009c 2846     		mov	r0, r5
 819 009e 02B0     		add	sp, sp, #8
 820              	.LCFI21:
 821              		.cfi_remember_state
 822              		.cfi_def_cfa_offset 24
 823              		@ sp needed
 824 00a0 BDE8F081 		pop	{r4, r5, r6, r7, r8, pc}
 825              	.LVL54:
 826              	.L61:
 827              	.LCFI22:
 828              		.cfi_restore_state
 257:D:/fchai/work/i-cube/I-CUBE-HUAWEI/Middlewares/Third_Party/Huawei/iot_link/os/liteos/base/ipc\los_mux.c ****     }
 829              		.loc 1 257 9 is_stmt 1 view .LVU264
 830 00a4 1846     		mov	r0, r3
 831              	.LVL55:
 257:D:/fchai/work/i-cube/I-CUBE-HUAWEI/Middlewares/Third_Party/Huawei/iot_link/os/liteos/base/ipc\los_mux.c ****     }
 832              		.loc 1 257 9 is_stmt 0 view .LVU265
 833 00a6 FFF7FEFF 		bl	osTaskPriModify
 834              	.LVL56:
 835 00aa D2E7     		b	.L48
 836              	.LVL57:
 837              	.L55:
 210:D:/fchai/work/i-cube/I-CUBE-HUAWEI/Middlewares/Third_Party/Huawei/iot_link/os/liteos/base/ipc\los_mux.c ****         OS_RETURN_ERROR(LOS_ERRNO_MUX_INVALID);
 838              		.loc 1 210 9 is_stmt 1 view .LVU266
 839 00ac FFF7FEFF 		bl	LOS_IntRestore
ARM GAS  T:\msys\tmp\ccccxHvg.s 			page 27


 840              	.LVL58:
 211:D:/fchai/work/i-cube/I-CUBE-HUAWEI/Middlewares/Third_Party/Huawei/iot_link/os/liteos/base/ipc\los_mux.c ****     }
 841              		.loc 1 211 9 view .LVU267
 211:D:/fchai/work/i-cube/I-CUBE-HUAWEI/Middlewares/Third_Party/Huawei/iot_link/os/liteos/base/ipc\los_mux.c ****     }
 842              		.loc 1 211 9 view .LVU268
 843 00b0 0095     		str	r5, [sp]
 844 00b2 2B46     		mov	r3, r5
 845 00b4 E1E7     		b	.L53
 846              	.LVL59:
 847              	.L56:
 216:D:/fchai/work/i-cube/I-CUBE-HUAWEI/Middlewares/Third_Party/Huawei/iot_link/os/liteos/base/ipc\los_mux.c ****         return LOS_ERRNO_MUX_PEND_INTERR;
 848              		.loc 1 216 9 view .LVU269
 849 00b6 FFF7FEFF 		bl	LOS_IntRestore
 850              	.LVL60:
 217:D:/fchai/work/i-cube/I-CUBE-HUAWEI/Middlewares/Third_Party/Huawei/iot_link/os/liteos/base/ipc\los_mux.c ****     }
 851              		.loc 1 217 9 view .LVU270
 217:D:/fchai/work/i-cube/I-CUBE-HUAWEI/Middlewares/Third_Party/Huawei/iot_link/os/liteos/base/ipc\los_mux.c ****     }
 852              		.loc 1 217 16 is_stmt 0 view .LVU271
 853 00ba 1C4D     		ldr	r5, .L63+28
 854 00bc D7E7     		b	.L38
 855              	.LVL61:
 856              	.L60:
 245:D:/fchai/work/i-cube/I-CUBE-HUAWEI/Middlewares/Third_Party/Huawei/iot_link/os/liteos/base/ipc\los_mux.c ****         PRINT_ERR("!!!LOS_ERRNO_MUX_PEND_IN_LOCK!!!\n");
 857              		.loc 1 245 9 is_stmt 1 view .LVU272
 246:D:/fchai/work/i-cube/I-CUBE-HUAWEI/Middlewares/Third_Party/Huawei/iot_link/os/liteos/base/ipc\los_mux.c **** #if (LOSCFG_PLATFORM_EXC == YES)
 858              		.loc 1 246 9 view .LVU273
 246:D:/fchai/work/i-cube/I-CUBE-HUAWEI/Middlewares/Third_Party/Huawei/iot_link/os/liteos/base/ipc\los_mux.c **** #if (LOSCFG_PLATFORM_EXC == YES)
 859              		.loc 1 246 9 view .LVU274
 860 00be 1C48     		ldr	r0, .L63+32
 861              	.LVL62:
 245:D:/fchai/work/i-cube/I-CUBE-HUAWEI/Middlewares/Third_Party/Huawei/iot_link/os/liteos/base/ipc\los_mux.c ****         PRINT_ERR("!!!LOS_ERRNO_MUX_PEND_IN_LOCK!!!\n");
 862              		.loc 1 245 18 is_stmt 0 view .LVU275
 863 00c0 1C4D     		ldr	r5, .L63+36
 246:D:/fchai/work/i-cube/I-CUBE-HUAWEI/Middlewares/Third_Party/Huawei/iot_link/os/liteos/base/ipc\los_mux.c **** #if (LOSCFG_PLATFORM_EXC == YES)
 864              		.loc 1 246 9 view .LVU276
 865 00c2 FFF7FEFF 		bl	printf
 866              	.LVL63:
 867 00c6 1C48     		ldr	r0, .L63+40
 868 00c8 FFF7FEFF 		bl	puts
 869              	.LVL64:
 246:D:/fchai/work/i-cube/I-CUBE-HUAWEI/Middlewares/Third_Party/Huawei/iot_link/os/liteos/base/ipc\los_mux.c **** #if (LOSCFG_PLATFORM_EXC == YES)
 870              		.loc 1 246 9 is_stmt 1 view .LVU277
 250:D:/fchai/work/i-cube/I-CUBE-HUAWEI/Middlewares/Third_Party/Huawei/iot_link/os/liteos/base/ipc\los_mux.c ****     }
 871              		.loc 1 250 9 view .LVU278
 872              	.LDL2:
 277:D:/fchai/work/i-cube/I-CUBE-HUAWEI/Middlewares/Third_Party/Huawei/iot_link/os/liteos/base/ipc\los_mux.c **** error_uniMuxPend:
 873              		.loc 1 277 5 view .LVU279
 874 00cc 4046     		mov	r0, r8
 875 00ce FFF7FEFF 		bl	LOS_IntRestore
 876              	.LVL65:
 877              	.L47:
 279:D:/fchai/work/i-cube/I-CUBE-HUAWEI/Middlewares/Third_Party/Huawei/iot_link/os/liteos/base/ipc\los_mux.c **** }
 878              		.loc 1 279 5 view .LVU280
 279:D:/fchai/work/i-cube/I-CUBE-HUAWEI/Middlewares/Third_Party/Huawei/iot_link/os/liteos/base/ipc\los_mux.c **** }
 879              		.loc 1 279 5 view .LVU281
 880 00d2 0023     		movs	r3, #0
 881 00d4 1349     		ldr	r1, .L63+20
ARM GAS  T:\msys\tmp\ccccxHvg.s 			page 28


 882 00d6 0093     		str	r3, [sp]
 883 00d8 2A46     		mov	r2, r5
 884 00da 1348     		ldr	r0, .L63+24
 885 00dc FFF7FEFF 		bl	LOS_ErrHandle
 886              	.LVL66:
 279:D:/fchai/work/i-cube/I-CUBE-HUAWEI/Middlewares/Third_Party/Huawei/iot_link/os/liteos/base/ipc\los_mux.c **** }
 887              		.loc 1 279 5 view .LVU282
 279:D:/fchai/work/i-cube/I-CUBE-HUAWEI/Middlewares/Third_Party/Huawei/iot_link/os/liteos/base/ipc\los_mux.c **** }
 888              		.loc 1 279 5 view .LVU283
 889              		.loc 1 280 1 is_stmt 0 view .LVU284
 890 00e0 2846     		mov	r0, r5
 891 00e2 02B0     		add	sp, sp, #8
 892              	.LCFI23:
 893              		.cfi_remember_state
 894              		.cfi_def_cfa_offset 24
 895              		@ sp needed
 896 00e4 BDE8F081 		pop	{r4, r5, r6, r7, r8, pc}
 897              	.LVL67:
 898              	.L62:
 899              	.LCFI24:
 900              		.cfi_restore_state
 267:D:/fchai/work/i-cube/I-CUBE-HUAWEI/Middlewares/Third_Party/Huawei/iot_link/os/liteos/base/ipc\los_mux.c ****         pstRunTsk->usTaskStatus &= (~OS_TASK_STATUS_TIMEOUT);
 901              		.loc 1 267 9 is_stmt 1 view .LVU285
 267:D:/fchai/work/i-cube/I-CUBE-HUAWEI/Middlewares/Third_Party/Huawei/iot_link/os/liteos/base/ipc\los_mux.c ****         pstRunTsk->usTaskStatus &= (~OS_TASK_STATUS_TIMEOUT);
 902              		.loc 1 267 21 is_stmt 0 view .LVU286
 903 00e8 FFF7FEFF 		bl	LOS_IntLock
 904              	.LVL68:
 268:D:/fchai/work/i-cube/I-CUBE-HUAWEI/Middlewares/Third_Party/Huawei/iot_link/os/liteos/base/ipc\los_mux.c ****         (VOID)LOS_IntRestore(uwIntSave);
 905              		.loc 1 268 9 is_stmt 1 view .LVU287
 268:D:/fchai/work/i-cube/I-CUBE-HUAWEI/Middlewares/Third_Party/Huawei/iot_link/os/liteos/base/ipc\los_mux.c ****         (VOID)LOS_IntRestore(uwIntSave);
 906              		.loc 1 268 33 is_stmt 0 view .LVU288
 907 00ec B388     		ldrh	r3, [r6, #4]
 270:D:/fchai/work/i-cube/I-CUBE-HUAWEI/Middlewares/Third_Party/Huawei/iot_link/os/liteos/base/ipc\los_mux.c ****         goto error_uniMuxPend;
 908              		.loc 1 270 18 view .LVU289
 909 00ee 134D     		ldr	r5, .L63+44
 268:D:/fchai/work/i-cube/I-CUBE-HUAWEI/Middlewares/Third_Party/Huawei/iot_link/os/liteos/base/ipc\los_mux.c ****         (VOID)LOS_IntRestore(uwIntSave);
 910              		.loc 1 268 33 view .LVU290
 911 00f0 23F04003 		bic	r3, r3, #64
 912 00f4 B380     		strh	r3, [r6, #4]	@ movhi
 269:D:/fchai/work/i-cube/I-CUBE-HUAWEI/Middlewares/Third_Party/Huawei/iot_link/os/liteos/base/ipc\los_mux.c ****         uwRetErr = LOS_ERRNO_MUX_TIMEOUT;
 913              		.loc 1 269 9 is_stmt 1 view .LVU291
 914 00f6 FFF7FEFF 		bl	LOS_IntRestore
 915              	.LVL69:
 270:D:/fchai/work/i-cube/I-CUBE-HUAWEI/Middlewares/Third_Party/Huawei/iot_link/os/liteos/base/ipc\los_mux.c ****         goto error_uniMuxPend;
 916              		.loc 1 270 9 view .LVU292
 271:D:/fchai/work/i-cube/I-CUBE-HUAWEI/Middlewares/Third_Party/Huawei/iot_link/os/liteos/base/ipc\los_mux.c ****     }
 917              		.loc 1 271 9 view .LVU293
 918 00fa EAE7     		b	.L47
 919              	.LVL70:
 920              	.L59:
 239:D:/fchai/work/i-cube/I-CUBE-HUAWEI/Middlewares/Third_Party/Huawei/iot_link/os/liteos/base/ipc\los_mux.c ****         return LOS_ERRNO_MUX_UNAVAILABLE;
 921              		.loc 1 239 9 view .LVU294
 922 00fc FFF7FEFF 		bl	LOS_IntRestore
 923              	.LVL71:
 240:D:/fchai/work/i-cube/I-CUBE-HUAWEI/Middlewares/Third_Party/Huawei/iot_link/os/liteos/base/ipc\los_mux.c ****     }
 924              		.loc 1 240 9 view .LVU295
 240:D:/fchai/work/i-cube/I-CUBE-HUAWEI/Middlewares/Third_Party/Huawei/iot_link/os/liteos/base/ipc\los_mux.c ****     }
ARM GAS  T:\msys\tmp\ccccxHvg.s 			page 29


 925              		.loc 1 240 16 is_stmt 0 view .LVU296
 926 0100 0F4D     		ldr	r5, .L63+48
 927 0102 B4E7     		b	.L38
 928              	.LVL72:
 929              	.L58:
 232:D:/fchai/work/i-cube/I-CUBE-HUAWEI/Middlewares/Third_Party/Huawei/iot_link/os/liteos/base/ipc\los_mux.c ****         LOS_IntRestore(uwIntSave);
 930              		.loc 1 232 9 is_stmt 1 view .LVU297
 232:D:/fchai/work/i-cube/I-CUBE-HUAWEI/Middlewares/Third_Party/Huawei/iot_link/os/liteos/base/ipc\los_mux.c ****         LOS_IntRestore(uwIntSave);
 931              		.loc 1 232 33 is_stmt 0 view .LVU298
 932 0104 0132     		adds	r2, r2, #1
 933 0106 6280     		strh	r2, [r4, #2]	@ movhi
 233:D:/fchai/work/i-cube/I-CUBE-HUAWEI/Middlewares/Third_Party/Huawei/iot_link/os/liteos/base/ipc\los_mux.c ****         return LOS_OK;
 934              		.loc 1 233 9 is_stmt 1 view .LVU299
 935 0108 FFF7FEFF 		bl	LOS_IntRestore
 936              	.LVL73:
 234:D:/fchai/work/i-cube/I-CUBE-HUAWEI/Middlewares/Third_Party/Huawei/iot_link/os/liteos/base/ipc\los_mux.c ****     }
 937              		.loc 1 234 9 view .LVU300
 234:D:/fchai/work/i-cube/I-CUBE-HUAWEI/Middlewares/Third_Party/Huawei/iot_link/os/liteos/base/ipc\los_mux.c ****     }
 938              		.loc 1 234 16 is_stmt 0 view .LVU301
 939 010c AFE7     		b	.L38
 940              	.L64:
 941 010e 00BF     		.align	2
 942              	.L63:
 943 0110 00000000 		.word	.LANCHOR0
 944 0114 00000000 		.word	g_vuwIntCount
 945 0118 00000000 		.word	g_stLosTask
 946 011c 00000000 		.word	g_usLosTaskLock
 947 0120 011D0002 		.word	33561857
 948 0124 F8C3B2A1 		.word	-1582119944
 949 0128 00000000 		.word	.LC0
 950 012c 051D0002 		.word	33561861
 951 0130 00000000 		.word	.LC1
 952 0134 061D0002 		.word	33561862
 953 0138 08000000 		.word	.LC2
 954 013c 071D0002 		.word	33561863
 955 0140 041D0002 		.word	33561860
 956              		.cfi_endproc
 957              	.LFE136:
 959              		.section	.text.LOS_MuxPost,"ax",%progbits
 960              		.align	1
 961              		.p2align 2,,3
 962              		.global	LOS_MuxPost
 963              		.syntax unified
 964              		.thumb
 965              		.thumb_func
 966              		.fpu fpv4-sp-d16
 968              	LOS_MuxPost:
 969              	.LVL74:
 970              	.LFB137:
 281:D:/fchai/work/i-cube/I-CUBE-HUAWEI/Middlewares/Third_Party/Huawei/iot_link/os/liteos/base/ipc\los_mux.c **** 
 282:D:/fchai/work/i-cube/I-CUBE-HUAWEI/Middlewares/Third_Party/Huawei/iot_link/os/liteos/base/ipc\los_mux.c **** /*****************************************************************************
 283:D:/fchai/work/i-cube/I-CUBE-HUAWEI/Middlewares/Third_Party/Huawei/iot_link/os/liteos/base/ipc\los_mux.c ****  Function     : LOS_MuxPost
 284:D:/fchai/work/i-cube/I-CUBE-HUAWEI/Middlewares/Third_Party/Huawei/iot_link/os/liteos/base/ipc\los_mux.c ****  Description  : Specify the mutex V operation,
 285:D:/fchai/work/i-cube/I-CUBE-HUAWEI/Middlewares/Third_Party/Huawei/iot_link/os/liteos/base/ipc\los_mux.c ****  Input        : uwMuxHandle ------ Mutex operation handle,
 286:D:/fchai/work/i-cube/I-CUBE-HUAWEI/Middlewares/Third_Party/Huawei/iot_link/os/liteos/base/ipc\los_mux.c ****  Output       : None
 287:D:/fchai/work/i-cube/I-CUBE-HUAWEI/Middlewares/Third_Party/Huawei/iot_link/os/liteos/base/ipc\los_mux.c ****  Return       : LOS_OK on success ,or error code on failure
 288:D:/fchai/work/i-cube/I-CUBE-HUAWEI/Middlewares/Third_Party/Huawei/iot_link/os/liteos/base/ipc\los_mux.c ****  *****************************************************************************/
ARM GAS  T:\msys\tmp\ccccxHvg.s 			page 30


 289:D:/fchai/work/i-cube/I-CUBE-HUAWEI/Middlewares/Third_Party/Huawei/iot_link/os/liteos/base/ipc\los_mux.c **** LITE_OS_SEC_TEXT UINT32 LOS_MuxPost(UINT32 uwMuxHandle)
 290:D:/fchai/work/i-cube/I-CUBE-HUAWEI/Middlewares/Third_Party/Huawei/iot_link/os/liteos/base/ipc\los_mux.c **** {
 971              		.loc 1 290 1 is_stmt 1 view -0
 972              		.cfi_startproc
 973              		@ args = 0, pretend = 0, frame = 0
 974              		@ frame_needed = 0, uses_anonymous_args = 0
 291:D:/fchai/work/i-cube/I-CUBE-HUAWEI/Middlewares/Third_Party/Huawei/iot_link/os/liteos/base/ipc\los_mux.c ****     UINT32      uwIntSave;
 975              		.loc 1 291 5 view .LVU303
 292:D:/fchai/work/i-cube/I-CUBE-HUAWEI/Middlewares/Third_Party/Huawei/iot_link/os/liteos/base/ipc\los_mux.c ****     MUX_CB_S    *pstMuxPosted = GET_MUX(uwMuxHandle);
 976              		.loc 1 292 5 view .LVU304
 290:D:/fchai/work/i-cube/I-CUBE-HUAWEI/Middlewares/Third_Party/Huawei/iot_link/os/liteos/base/ipc\los_mux.c ****     UINT32      uwIntSave;
 977              		.loc 1 290 1 is_stmt 0 view .LVU305
 978 0000 2DE9F041 		push	{r4, r5, r6, r7, r8, lr}
 979              	.LCFI25:
 980              		.cfi_def_cfa_offset 24
 981              		.cfi_offset 4, -24
 982              		.cfi_offset 5, -20
 983              		.cfi_offset 6, -16
 984              		.cfi_offset 7, -12
 985              		.cfi_offset 8, -8
 986              		.cfi_offset 14, -4
 987              		.loc 1 292 33 view .LVU306
 988 0004 2A4B     		ldr	r3, .L80
 290:D:/fchai/work/i-cube/I-CUBE-HUAWEI/Middlewares/Third_Party/Huawei/iot_link/os/liteos/base/ipc\los_mux.c ****     UINT32      uwIntSave;
 989              		.loc 1 290 1 view .LVU307
 990 0006 82B0     		sub	sp, sp, #8
 991              	.LCFI26:
 992              		.cfi_def_cfa_offset 32
 993              		.loc 1 292 33 view .LVU308
 994 0008 00EB4004 		add	r4, r0, r0, lsl #1
 995              		.loc 1 292 18 view .LVU309
 996 000c 1E68     		ldr	r6, [r3]
 290:D:/fchai/work/i-cube/I-CUBE-HUAWEI/Middlewares/Third_Party/Huawei/iot_link/os/liteos/base/ipc\los_mux.c ****     UINT32      uwIntSave;
 997              		.loc 1 290 1 view .LVU310
 998 000e 0546     		mov	r5, r0
 293:D:/fchai/work/i-cube/I-CUBE-HUAWEI/Middlewares/Third_Party/Huawei/iot_link/os/liteos/base/ipc\los_mux.c ****     LOS_TASK_CB *pstResumedTask;
 294:D:/fchai/work/i-cube/I-CUBE-HUAWEI/Middlewares/Third_Party/Huawei/iot_link/os/liteos/base/ipc\los_mux.c ****     LOS_TASK_CB *pstRunTsk;
 295:D:/fchai/work/i-cube/I-CUBE-HUAWEI/Middlewares/Third_Party/Huawei/iot_link/os/liteos/base/ipc\los_mux.c **** 
 296:D:/fchai/work/i-cube/I-CUBE-HUAWEI/Middlewares/Third_Party/Huawei/iot_link/os/liteos/base/ipc\los_mux.c ****     uwIntSave = LOS_IntLock();
 999              		.loc 1 296 17 view .LVU311
 1000 0010 FFF7FEFF 		bl	LOS_IntLock
 1001              	.LVL75:
 297:D:/fchai/work/i-cube/I-CUBE-HUAWEI/Middlewares/Third_Party/Huawei/iot_link/os/liteos/base/ipc\los_mux.c **** 
 298:D:/fchai/work/i-cube/I-CUBE-HUAWEI/Middlewares/Third_Party/Huawei/iot_link/os/liteos/base/ipc\los_mux.c ****     if ((uwMuxHandle >= (UINT32)LOSCFG_BASE_IPC_MUX_LIMIT) ||
 1002              		.loc 1 298 8 view .LVU312
 1003 0014 132D     		cmp	r5, #19
 292:D:/fchai/work/i-cube/I-CUBE-HUAWEI/Middlewares/Third_Party/Huawei/iot_link/os/liteos/base/ipc\los_mux.c ****     LOS_TASK_CB *pstResumedTask;
 1004              		.loc 1 292 33 view .LVU313
 1005 0016 4FEAC408 		lsl	r8, r4, #3
 296:D:/fchai/work/i-cube/I-CUBE-HUAWEI/Middlewares/Third_Party/Huawei/iot_link/os/liteos/base/ipc\los_mux.c **** 
 1006              		.loc 1 296 17 view .LVU314
 1007 001a 0746     		mov	r7, r0
 292:D:/fchai/work/i-cube/I-CUBE-HUAWEI/Middlewares/Third_Party/Huawei/iot_link/os/liteos/base/ipc\los_mux.c ****     LOS_TASK_CB *pstResumedTask;
 1008              		.loc 1 292 18 view .LVU315
 1009 001c 06EBC404 		add	r4, r6, r4, lsl #3
 1010              	.LVL76:
 293:D:/fchai/work/i-cube/I-CUBE-HUAWEI/Middlewares/Third_Party/Huawei/iot_link/os/liteos/base/ipc\los_mux.c ****     LOS_TASK_CB *pstRunTsk;
ARM GAS  T:\msys\tmp\ccccxHvg.s 			page 31


 1011              		.loc 1 293 5 is_stmt 1 view .LVU316
 294:D:/fchai/work/i-cube/I-CUBE-HUAWEI/Middlewares/Third_Party/Huawei/iot_link/os/liteos/base/ipc\los_mux.c **** 
 1012              		.loc 1 294 5 view .LVU317
 296:D:/fchai/work/i-cube/I-CUBE-HUAWEI/Middlewares/Third_Party/Huawei/iot_link/os/liteos/base/ipc\los_mux.c **** 
 1013              		.loc 1 296 5 view .LVU318
 1014              		.loc 1 298 5 view .LVU319
 1015              		.loc 1 298 8 is_stmt 0 view .LVU320
 1016 0020 2DD8     		bhi	.L69
 1017              		.loc 1 298 60 discriminator 1 view .LVU321
 1018 0022 16F80830 		ldrb	r3, [r6, r8]	@ zero_extendqisi2
 1019 0026 53B3     		cbz	r3, .L69
 299:D:/fchai/work/i-cube/I-CUBE-HUAWEI/Middlewares/Third_Party/Huawei/iot_link/os/liteos/base/ipc\los_mux.c ****         (OS_MUX_UNUSED == pstMuxPosted->ucMuxStat))
 300:D:/fchai/work/i-cube/I-CUBE-HUAWEI/Middlewares/Third_Party/Huawei/iot_link/os/liteos/base/ipc\los_mux.c ****     {
 301:D:/fchai/work/i-cube/I-CUBE-HUAWEI/Middlewares/Third_Party/Huawei/iot_link/os/liteos/base/ipc\los_mux.c ****         LOS_IntRestore(uwIntSave);
 302:D:/fchai/work/i-cube/I-CUBE-HUAWEI/Middlewares/Third_Party/Huawei/iot_link/os/liteos/base/ipc\los_mux.c ****         OS_RETURN_ERROR(LOS_ERRNO_MUX_INVALID);
 1020              		.loc 1 302 9 is_stmt 1 view .LVU322
 303:D:/fchai/work/i-cube/I-CUBE-HUAWEI/Middlewares/Third_Party/Huawei/iot_link/os/liteos/base/ipc\los_mux.c ****     }
 304:D:/fchai/work/i-cube/I-CUBE-HUAWEI/Middlewares/Third_Party/Huawei/iot_link/os/liteos/base/ipc\los_mux.c **** 
 305:D:/fchai/work/i-cube/I-CUBE-HUAWEI/Middlewares/Third_Party/Huawei/iot_link/os/liteos/base/ipc\los_mux.c ****     pstRunTsk = (LOS_TASK_CB *)g_stLosTask.pstRunTask;
 1021              		.loc 1 305 5 view .LVU323
 1022              		.loc 1 305 15 is_stmt 0 view .LVU324
 1023 0028 224A     		ldr	r2, .L80+4
 306:D:/fchai/work/i-cube/I-CUBE-HUAWEI/Middlewares/Third_Party/Huawei/iot_link/os/liteos/base/ipc\los_mux.c ****     if ((pstMuxPosted->usMuxCount == 0) || (pstMuxPosted->pstOwner != pstRunTsk))
 1024              		.loc 1 306 22 view .LVU325
 1025 002a 6388     		ldrh	r3, [r4, #2]
 305:D:/fchai/work/i-cube/I-CUBE-HUAWEI/Middlewares/Third_Party/Huawei/iot_link/os/liteos/base/ipc\los_mux.c ****     if ((pstMuxPosted->usMuxCount == 0) || (pstMuxPosted->pstOwner != pstRunTsk))
 1026              		.loc 1 305 15 view .LVU326
 1027 002c 1168     		ldr	r1, [r2]
 1028              	.LVL77:
 1029              		.loc 1 306 5 is_stmt 1 view .LVU327
 1030              		.loc 1 306 8 is_stmt 0 view .LVU328
 1031 002e 33B3     		cbz	r3, .L69
 1032              		.loc 1 306 57 discriminator 1 view .LVU329
 1033 0030 2269     		ldr	r2, [r4, #16]
 1034              		.loc 1 306 41 discriminator 1 view .LVU330
 1035 0032 8A42     		cmp	r2, r1
 1036 0034 23D1     		bne	.L69
 307:D:/fchai/work/i-cube/I-CUBE-HUAWEI/Middlewares/Third_Party/Huawei/iot_link/os/liteos/base/ipc\los_mux.c ****     {
 308:D:/fchai/work/i-cube/I-CUBE-HUAWEI/Middlewares/Third_Party/Huawei/iot_link/os/liteos/base/ipc\los_mux.c ****         LOS_IntRestore(uwIntSave);
 309:D:/fchai/work/i-cube/I-CUBE-HUAWEI/Middlewares/Third_Party/Huawei/iot_link/os/liteos/base/ipc\los_mux.c ****         OS_RETURN_ERROR(LOS_ERRNO_MUX_INVALID);
 1037              		.loc 1 309 9 is_stmt 1 view .LVU331
 310:D:/fchai/work/i-cube/I-CUBE-HUAWEI/Middlewares/Third_Party/Huawei/iot_link/os/liteos/base/ipc\los_mux.c ****     }
 311:D:/fchai/work/i-cube/I-CUBE-HUAWEI/Middlewares/Third_Party/Huawei/iot_link/os/liteos/base/ipc\los_mux.c **** 
 312:D:/fchai/work/i-cube/I-CUBE-HUAWEI/Middlewares/Third_Party/Huawei/iot_link/os/liteos/base/ipc\los_mux.c ****     if (--(pstMuxPosted->usMuxCount) != 0)
 1038              		.loc 1 312 5 view .LVU332
 1039              		.loc 1 312 9 is_stmt 0 view .LVU333
 1040 0036 013B     		subs	r3, r3, #1
 1041 0038 9BB2     		uxth	r3, r3
 1042              		.loc 1 312 8 view .LVU334
 1043 003a 6380     		strh	r3, [r4, #2]	@ movhi
 1044 003c 93BB     		cbnz	r3, .L78
 313:D:/fchai/work/i-cube/I-CUBE-HUAWEI/Middlewares/Third_Party/Huawei/iot_link/os/liteos/base/ipc\los_mux.c ****     {
 314:D:/fchai/work/i-cube/I-CUBE-HUAWEI/Middlewares/Third_Party/Huawei/iot_link/os/liteos/base/ipc\los_mux.c ****         LOS_IntRestore(uwIntSave);
 315:D:/fchai/work/i-cube/I-CUBE-HUAWEI/Middlewares/Third_Party/Huawei/iot_link/os/liteos/base/ipc\los_mux.c ****         return LOS_OK;
 316:D:/fchai/work/i-cube/I-CUBE-HUAWEI/Middlewares/Third_Party/Huawei/iot_link/os/liteos/base/ipc\los_mux.c ****     }
 317:D:/fchai/work/i-cube/I-CUBE-HUAWEI/Middlewares/Third_Party/Huawei/iot_link/os/liteos/base/ipc\los_mux.c **** 
 318:D:/fchai/work/i-cube/I-CUBE-HUAWEI/Middlewares/Third_Party/Huawei/iot_link/os/liteos/base/ipc\los_mux.c ****     if ((pstMuxPosted->pstOwner->usPriority) != pstMuxPosted->usPriority)
ARM GAS  T:\msys\tmp\ccccxHvg.s 			page 32


 1045              		.loc 1 318 5 is_stmt 1 view .LVU335
 1046              		.loc 1 318 61 is_stmt 0 view .LVU336
 1047 003e A18A     		ldrh	r1, [r4, #20]
 1048              	.LVL78:
 1049              		.loc 1 318 8 view .LVU337
 1050 0040 D388     		ldrh	r3, [r2, #6]
 1051 0042 8B42     		cmp	r3, r1
 1052 0044 29D1     		bne	.L79
 1053              	.LVL79:
 1054              	.L72:
 319:D:/fchai/work/i-cube/I-CUBE-HUAWEI/Middlewares/Third_Party/Huawei/iot_link/os/liteos/base/ipc\los_mux.c ****     {
 320:D:/fchai/work/i-cube/I-CUBE-HUAWEI/Middlewares/Third_Party/Huawei/iot_link/os/liteos/base/ipc\los_mux.c ****         osTaskPriModify(pstMuxPosted->pstOwner, pstMuxPosted->usPriority);
 321:D:/fchai/work/i-cube/I-CUBE-HUAWEI/Middlewares/Third_Party/Huawei/iot_link/os/liteos/base/ipc\los_mux.c ****     }
 322:D:/fchai/work/i-cube/I-CUBE-HUAWEI/Middlewares/Third_Party/Huawei/iot_link/os/liteos/base/ipc\los_mux.c **** 
 323:D:/fchai/work/i-cube/I-CUBE-HUAWEI/Middlewares/Third_Party/Huawei/iot_link/os/liteos/base/ipc\los_mux.c ****     if (!LOS_ListEmpty(&pstMuxPosted->stMuxList))
 1055              		.loc 1 323 5 is_stmt 1 view .LVU338
 1056              	.LBB66:
 1057              	.LBI66:
 213:D:/fchai/work/i-cube/I-CUBE-HUAWEI/Middlewares/Third_Party/Huawei/iot_link/os/liteos/include\los_list.h **** {
 1058              		.loc 2 213 43 view .LVU339
 1059              	.LBB67:
 1060              		.loc 2 215 5 view .LVU340
 1061              		.loc 2 215 26 is_stmt 0 view .LVU341
 1062 0046 E368     		ldr	r3, [r4, #12]
 1063              	.LVL80:
 1064              		.loc 2 215 26 view .LVU342
 1065              	.LBE67:
 1066              	.LBE66:
 1067              		.loc 1 323 10 view .LVU343
 1068 0048 04F10802 		add	r2, r4, #8
 1069              		.loc 1 323 8 view .LVU344
 1070 004c 9342     		cmp	r3, r2
 1071 004e 28D0     		beq	.L73
 324:D:/fchai/work/i-cube/I-CUBE-HUAWEI/Middlewares/Third_Party/Huawei/iot_link/os/liteos/base/ipc\los_mux.c ****     {
 325:D:/fchai/work/i-cube/I-CUBE-HUAWEI/Middlewares/Third_Party/Huawei/iot_link/os/liteos/base/ipc\los_mux.c ****         pstResumedTask = OS_TCB_FROM_PENDLIST(LOS_DL_LIST_FIRST(&(pstMuxPosted->stMuxList))); /*lin
 1072              		.loc 1 325 9 is_stmt 1 view .LVU345
 326:D:/fchai/work/i-cube/I-CUBE-HUAWEI/Middlewares/Third_Party/Huawei/iot_link/os/liteos/base/ipc\los_mux.c **** 
 327:D:/fchai/work/i-cube/I-CUBE-HUAWEI/Middlewares/Third_Party/Huawei/iot_link/os/liteos/base/ipc\los_mux.c ****         pstMuxPosted->usMuxCount    = 1;
 328:D:/fchai/work/i-cube/I-CUBE-HUAWEI/Middlewares/Third_Party/Huawei/iot_link/os/liteos/base/ipc\los_mux.c ****         pstMuxPosted->pstOwner      = pstResumedTask;
 329:D:/fchai/work/i-cube/I-CUBE-HUAWEI/Middlewares/Third_Party/Huawei/iot_link/os/liteos/base/ipc\los_mux.c ****         pstMuxPosted->usPriority    = pstResumedTask->usPriority;
 1073              		.loc 1 329 37 is_stmt 0 view .LVU346
 1074 0050 33F8222C 		ldrh	r2, [r3, #-34]
 1075 0054 A282     		strh	r2, [r4, #20]	@ movhi
 325:D:/fchai/work/i-cube/I-CUBE-HUAWEI/Middlewares/Third_Party/Huawei/iot_link/os/liteos/base/ipc\los_mux.c **** 
 1076              		.loc 1 325 24 view .LVU347
 1077 0056 A3F12800 		sub	r0, r3, #40
 1078              	.LVL81:
 327:D:/fchai/work/i-cube/I-CUBE-HUAWEI/Middlewares/Third_Party/Huawei/iot_link/os/liteos/base/ipc\los_mux.c ****         pstMuxPosted->pstOwner      = pstResumedTask;
 1079              		.loc 1 327 9 is_stmt 1 view .LVU348
 330:D:/fchai/work/i-cube/I-CUBE-HUAWEI/Middlewares/Third_Party/Huawei/iot_link/os/liteos/base/ipc\los_mux.c ****         pstResumedTask->pTaskMux    = NULL;
 1080              		.loc 1 330 37 is_stmt 0 view .LVU349
 1081 005a 0025     		movs	r5, #0
 1082              	.LVL82:
 327:D:/fchai/work/i-cube/I-CUBE-HUAWEI/Middlewares/Third_Party/Huawei/iot_link/os/liteos/base/ipc\los_mux.c ****         pstMuxPosted->pstOwner      = pstResumedTask;
 1083              		.loc 1 327 37 view .LVU350
 1084 005c 0121     		movs	r1, #1
 328:D:/fchai/work/i-cube/I-CUBE-HUAWEI/Middlewares/Third_Party/Huawei/iot_link/os/liteos/base/ipc\los_mux.c ****         pstMuxPosted->usPriority    = pstResumedTask->usPriority;
ARM GAS  T:\msys\tmp\ccccxHvg.s 			page 33


 1085              		.loc 1 328 37 view .LVU351
 1086 005e 2061     		str	r0, [r4, #16]
 327:D:/fchai/work/i-cube/I-CUBE-HUAWEI/Middlewares/Third_Party/Huawei/iot_link/os/liteos/base/ipc\los_mux.c ****         pstMuxPosted->pstOwner      = pstResumedTask;
 1087              		.loc 1 327 37 view .LVU352
 1088 0060 6180     		strh	r1, [r4, #2]	@ movhi
 328:D:/fchai/work/i-cube/I-CUBE-HUAWEI/Middlewares/Third_Party/Huawei/iot_link/os/liteos/base/ipc\los_mux.c ****         pstMuxPosted->usPriority    = pstResumedTask->usPriority;
 1089              		.loc 1 328 9 is_stmt 1 view .LVU353
 329:D:/fchai/work/i-cube/I-CUBE-HUAWEI/Middlewares/Third_Party/Huawei/iot_link/os/liteos/base/ipc\los_mux.c ****         pstResumedTask->pTaskMux    = NULL;
 1090              		.loc 1 329 9 view .LVU354
 1091              		.loc 1 330 9 view .LVU355
 331:D:/fchai/work/i-cube/I-CUBE-HUAWEI/Middlewares/Third_Party/Huawei/iot_link/os/liteos/base/ipc\los_mux.c **** 
 332:D:/fchai/work/i-cube/I-CUBE-HUAWEI/Middlewares/Third_Party/Huawei/iot_link/os/liteos/base/ipc\los_mux.c ****         osTaskWake(pstResumedTask, OS_TASK_STATUS_PEND);
 1092              		.loc 1 332 9 is_stmt 0 view .LVU356
 1093 0062 0821     		movs	r1, #8
 330:D:/fchai/work/i-cube/I-CUBE-HUAWEI/Middlewares/Third_Party/Huawei/iot_link/os/liteos/base/ipc\los_mux.c **** 
 1094              		.loc 1 330 37 view .LVU357
 1095 0064 43F80C5C 		str	r5, [r3, #-12]
 1096              		.loc 1 332 9 is_stmt 1 view .LVU358
 1097 0068 FFF7FEFF 		bl	osTaskWake
 1098              	.LVL83:
 333:D:/fchai/work/i-cube/I-CUBE-HUAWEI/Middlewares/Third_Party/Huawei/iot_link/os/liteos/base/ipc\los_mux.c **** 
 334:D:/fchai/work/i-cube/I-CUBE-HUAWEI/Middlewares/Third_Party/Huawei/iot_link/os/liteos/base/ipc\los_mux.c ****         (VOID)LOS_IntRestore(uwIntSave);
 1099              		.loc 1 334 9 view .LVU359
 1100 006c 3846     		mov	r0, r7
 1101 006e FFF7FEFF 		bl	LOS_IntRestore
 1102              	.LVL84:
 335:D:/fchai/work/i-cube/I-CUBE-HUAWEI/Middlewares/Third_Party/Huawei/iot_link/os/liteos/base/ipc\los_mux.c ****         LOS_Schedule();
 1103              		.loc 1 335 9 view .LVU360
 1104 0072 FFF7FEFF 		bl	LOS_Schedule
 1105              	.LVL85:
 336:D:/fchai/work/i-cube/I-CUBE-HUAWEI/Middlewares/Third_Party/Huawei/iot_link/os/liteos/base/ipc\los_mux.c ****     }
 337:D:/fchai/work/i-cube/I-CUBE-HUAWEI/Middlewares/Third_Party/Huawei/iot_link/os/liteos/base/ipc\los_mux.c ****     else
 338:D:/fchai/work/i-cube/I-CUBE-HUAWEI/Middlewares/Third_Party/Huawei/iot_link/os/liteos/base/ipc\los_mux.c ****     {
 339:D:/fchai/work/i-cube/I-CUBE-HUAWEI/Middlewares/Third_Party/Huawei/iot_link/os/liteos/base/ipc\los_mux.c ****         (VOID)LOS_IntRestore(uwIntSave);
 340:D:/fchai/work/i-cube/I-CUBE-HUAWEI/Middlewares/Third_Party/Huawei/iot_link/os/liteos/base/ipc\los_mux.c ****     }
 341:D:/fchai/work/i-cube/I-CUBE-HUAWEI/Middlewares/Third_Party/Huawei/iot_link/os/liteos/base/ipc\los_mux.c **** 
 342:D:/fchai/work/i-cube/I-CUBE-HUAWEI/Middlewares/Third_Party/Huawei/iot_link/os/liteos/base/ipc\los_mux.c ****     return LOS_OK;
 1106              		.loc 1 342 12 is_stmt 0 view .LVU361
 1107 0076 2846     		mov	r0, r5
 343:D:/fchai/work/i-cube/I-CUBE-HUAWEI/Middlewares/Third_Party/Huawei/iot_link/os/liteos/base/ipc\los_mux.c **** }
 1108              		.loc 1 343 1 view .LVU362
 1109 0078 02B0     		add	sp, sp, #8
 1110              	.LCFI27:
 1111              		.cfi_remember_state
 1112              		.cfi_def_cfa_offset 24
 1113              		@ sp needed
 1114 007a BDE8F081 		pop	{r4, r5, r6, r7, r8, pc}
 1115              	.LVL86:
 1116              	.L69:
 1117              	.LCFI28:
 1118              		.cfi_restore_state
 308:D:/fchai/work/i-cube/I-CUBE-HUAWEI/Middlewares/Third_Party/Huawei/iot_link/os/liteos/base/ipc\los_mux.c ****         OS_RETURN_ERROR(LOS_ERRNO_MUX_INVALID);
 1119              		.loc 1 308 9 is_stmt 1 view .LVU363
 1120 007e 3846     		mov	r0, r7
 1121              	.LVL87:
 308:D:/fchai/work/i-cube/I-CUBE-HUAWEI/Middlewares/Third_Party/Huawei/iot_link/os/liteos/base/ipc\los_mux.c ****         OS_RETURN_ERROR(LOS_ERRNO_MUX_INVALID);
 1122              		.loc 1 308 9 is_stmt 0 view .LVU364
ARM GAS  T:\msys\tmp\ccccxHvg.s 			page 34


 1123 0080 FFF7FEFF 		bl	LOS_IntRestore
 1124              	.LVL88:
 309:D:/fchai/work/i-cube/I-CUBE-HUAWEI/Middlewares/Third_Party/Huawei/iot_link/os/liteos/base/ipc\los_mux.c ****     }
 1125              		.loc 1 309 9 is_stmt 1 view .LVU365
 309:D:/fchai/work/i-cube/I-CUBE-HUAWEI/Middlewares/Third_Party/Huawei/iot_link/os/liteos/base/ipc\los_mux.c ****     }
 1126              		.loc 1 309 9 view .LVU366
 1127 0084 0023     		movs	r3, #0
 1128 0086 0C4A     		ldr	r2, .L80+8
 1129 0088 0C49     		ldr	r1, .L80+12
 1130 008a 0093     		str	r3, [sp]
 1131 008c 0C48     		ldr	r0, .L80+16
 1132 008e FFF7FEFF 		bl	LOS_ErrHandle
 1133              	.LVL89:
 309:D:/fchai/work/i-cube/I-CUBE-HUAWEI/Middlewares/Third_Party/Huawei/iot_link/os/liteos/base/ipc\los_mux.c ****     }
 1134              		.loc 1 309 9 view .LVU367
 1135 0092 0948     		ldr	r0, .L80+8
 1136              		.loc 1 343 1 is_stmt 0 view .LVU368
 1137 0094 02B0     		add	sp, sp, #8
 1138              	.LCFI29:
 1139              		.cfi_remember_state
 1140              		.cfi_def_cfa_offset 24
 1141              		@ sp needed
 1142 0096 BDE8F081 		pop	{r4, r5, r6, r7, r8, pc}
 1143              	.LVL90:
 1144              	.L79:
 1145              	.LCFI30:
 1146              		.cfi_restore_state
 320:D:/fchai/work/i-cube/I-CUBE-HUAWEI/Middlewares/Third_Party/Huawei/iot_link/os/liteos/base/ipc\los_mux.c ****     }
 1147              		.loc 1 320 9 is_stmt 1 view .LVU369
 1148 009a 1046     		mov	r0, r2
 1149              	.LVL91:
 320:D:/fchai/work/i-cube/I-CUBE-HUAWEI/Middlewares/Third_Party/Huawei/iot_link/os/liteos/base/ipc\los_mux.c ****     }
 1150              		.loc 1 320 9 is_stmt 0 view .LVU370
 1151 009c FFF7FEFF 		bl	osTaskPriModify
 1152              	.LVL92:
 320:D:/fchai/work/i-cube/I-CUBE-HUAWEI/Middlewares/Third_Party/Huawei/iot_link/os/liteos/base/ipc\los_mux.c ****     }
 1153              		.loc 1 320 9 view .LVU371
 1154 00a0 D1E7     		b	.L72
 1155              	.L73:
 339:D:/fchai/work/i-cube/I-CUBE-HUAWEI/Middlewares/Third_Party/Huawei/iot_link/os/liteos/base/ipc\los_mux.c ****     }
 1156              		.loc 1 339 9 is_stmt 1 view .LVU372
 1157 00a2 3846     		mov	r0, r7
 1158              	.LVL93:
 1159              	.L78:
 339:D:/fchai/work/i-cube/I-CUBE-HUAWEI/Middlewares/Third_Party/Huawei/iot_link/os/liteos/base/ipc\los_mux.c ****     }
 1160              		.loc 1 339 9 is_stmt 0 view .LVU373
 1161 00a4 FFF7FEFF 		bl	LOS_IntRestore
 1162              	.LVL94:
 342:D:/fchai/work/i-cube/I-CUBE-HUAWEI/Middlewares/Third_Party/Huawei/iot_link/os/liteos/base/ipc\los_mux.c **** }
 1163              		.loc 1 342 12 view .LVU374
 1164 00a8 0020     		movs	r0, #0
 1165              		.loc 1 343 1 view .LVU375
 1166 00aa 02B0     		add	sp, sp, #8
 1167              	.LCFI31:
 1168              		.cfi_def_cfa_offset 24
 1169              		@ sp needed
 1170 00ac BDE8F081 		pop	{r4, r5, r6, r7, r8, pc}
ARM GAS  T:\msys\tmp\ccccxHvg.s 			page 35


 1171              	.LVL95:
 1172              	.L81:
 1173              		.loc 1 343 1 view .LVU376
 1174              		.align	2
 1175              	.L80:
 1176 00b0 00000000 		.word	.LANCHOR0
 1177 00b4 00000000 		.word	g_stLosTask
 1178 00b8 011D0002 		.word	33561857
 1179 00bc F8C3B2A1 		.word	-1582119944
 1180 00c0 00000000 		.word	.LC0
 1181              		.cfi_endproc
 1182              	.LFE137:
 1184              		.comm	g_stUnusedMuxList,8,4
 1185              		.global	g_pstAllMux
 1186              		.section	.bss.g_pstAllMux,"aw",%nobits
 1187              		.align	2
 1188              		.set	.LANCHOR0,. + 0
 1191              	g_pstAllMux:
 1192 0000 00000000 		.space	4
 1193              		.section	.bss.s_astAllMux.10273,"aw",%nobits
 1194              		.align	2
 1195              		.set	.LANCHOR1,. + 0
 1198              	s_astAllMux.10273:
 1199 0000 00000000 		.space	480
 1199      00000000 
 1199      00000000 
 1199      00000000 
 1199      00000000 
 1200              		.text
 1201              	.Letext0:
 1202              		.file 3 "t:\\msys\\3rd\\gcc-arm-none-eabi-9-2020-q2-update-win32\\lib\\gcc\\arm-none-eabi\\9.3.1\\
 1203              		.file 4 "t:\\msys\\3rd\\gcc-arm-none-eabi-9-2020-q2-update-win32\\arm-none-eabi\\include\\machine\
 1204              		.file 5 "t:\\msys\\3rd\\gcc-arm-none-eabi-9-2020-q2-update-win32\\arm-none-eabi\\include\\sys\\_ty
 1205              		.file 6 "t:\\msys\\3rd\\gcc-arm-none-eabi-9-2020-q2-update-win32\\arm-none-eabi\\include\\sys\\ree
 1206              		.file 7 "t:\\msys\\3rd\\gcc-arm-none-eabi-9-2020-q2-update-win32\\arm-none-eabi\\include\\sys\\loc
 1207              		.file 8 "D:/fchai/work/i-cube/I-CUBE-HUAWEI/Middlewares/Third_Party/Huawei/iot_link/os/liteos/incl
 1208              		.file 9 "t:\\msys\\3rd\\gcc-arm-none-eabi-9-2020-q2-update-win32\\arm-none-eabi\\include\\sys\\_st
 1209              		.file 10 "D:/fchai/work/i-cube/I-CUBE-HUAWEI/Middlewares/Third_Party/Huawei/iot_link/os/liteos/arc
 1210              		.file 11 "D:/fchai/work/i-cube/I-CUBE-HUAWEI/Drivers/CMSIS/Device/ST/STM32L4xx/Include/system_stm3
 1211              		.file 12 "D:/fchai/work/i-cube/I-CUBE-HUAWEI/Drivers/STM32L4xx_HAL_Driver/Inc/stm32l4xx_hal_def.h"
 1212              		.file 13 "D:/fchai/work/i-cube/I-CUBE-HUAWEI/Drivers/STM32L4xx_HAL_Driver/Inc/stm32l4xx_hal_flash.
 1213              		.file 14 "D:/fchai/work/i-cube/I-CUBE-HUAWEI/Drivers/STM32L4xx_HAL_Driver/Inc/stm32l4xx_hal.h"
 1214              		.file 15 "D:/fchai/work/i-cube/I-CUBE-HUAWEI/Middlewares/Third_Party/Huawei/iot_link/os/liteos/inc
 1215              		.file 16 "D:/fchai/work/i-cube/I-CUBE-HUAWEI/Middlewares/Third_Party/Huawei/iot_link/os/liteos/inc
 1216              		.file 17 "D:/fchai/work/i-cube/I-CUBE-HUAWEI/Middlewares/Third_Party/Huawei/iot_link/os/liteos/arc
 1217              		.file 18 "D:/fchai/work/i-cube/I-CUBE-HUAWEI/Middlewares/Third_Party/Huawei/iot_link/os/liteos/inc
 1218              		.file 19 "D:/fchai/work/i-cube/I-CUBE-HUAWEI/Middlewares/Third_Party/Huawei/iot_link/os/liteos/inc
 1219              		.file 20 "D:/fchai/work/i-cube/I-CUBE-HUAWEI/Middlewares/Third_Party/Huawei/iot_link/os/liteos/inc
 1220              		.file 21 "D:/fchai/work/i-cube/I-CUBE-HUAWEI/Middlewares/Third_Party/Huawei/iot_link/os/liteos/bas
 1221              		.file 22 "D:/fchai/work/i-cube/I-CUBE-HUAWEI/Middlewares/Third_Party/Huawei/iot_link/os/liteos/bas
 1222              		.file 23 "D:/fchai/work/i-cube/I-CUBE-HUAWEI/Middlewares/Third_Party/Huawei/iot_link/os/liteos/inc
 1223              		.file 24 "D:/fchai/work/i-cube/I-CUBE-HUAWEI/Middlewares/Third_Party/Huawei/iot_link/os/liteos/arc
 1224              		.file 25 "t:\\msys\\3rd\\gcc-arm-none-eabi-9-2020-q2-update-win32\\arm-none-eabi\\include\\stdio.h
 1225              		.file 26 "<built-in>"
ARM GAS  T:\msys\tmp\ccccxHvg.s 			page 36

