ARM GAS  T:\msys\tmp\ccOGKCS9.s 			page 1


   1              		.cpu cortex-m4
   2              		.eabi_attribute 27, 1
   3              		.eabi_attribute 28, 1
   4              		.eabi_attribute 20, 1
   5              		.eabi_attribute 21, 1
   6              		.eabi_attribute 23, 3
   7              		.eabi_attribute 24, 1
   8              		.eabi_attribute 25, 1
   9              		.eabi_attribute 26, 1
  10              		.eabi_attribute 30, 2
  11              		.eabi_attribute 34, 1
  12              		.eabi_attribute 18, 4
  13              		.file	"oc_mqtt_tiny.c"
  14              		.text
  15              	.Ltext0:
  16              		.cfi_sections	.debug_frame
  17              		.section	.text.config_parameter_release,"ax",%progbits
  18              		.align	1
  19              		.p2align 2,,3
  20              		.arch armv7e-m
  21              		.syntax unified
  22              		.thumb
  23              		.thumb_func
  24              		.fpu fpv4-sp-d16
  26              	config_parameter_release:
  27              	.LVL0:
  28              	.LFB8:
  29              		.file 1 "D:/fchai/work/i-cube/I-CUBE-HUAWEI/Middlewares/Third_Party/Huawei/iot_link/oc/oc_mqtt/oc_
   1:D:/fchai/work/i-cube/I-CUBE-HUAWEI/Middlewares/Third_Party/Huawei/iot_link/oc/oc_mqtt/oc_mqtt_tiny_v5\oc_mqtt_tiny.c **** /*----------------------------------------------------------------------------
   2:D:/fchai/work/i-cube/I-CUBE-HUAWEI/Middlewares/Third_Party/Huawei/iot_link/oc/oc_mqtt/oc_mqtt_tiny_v5\oc_mqtt_tiny.c ****  * Copyright (c) <2018>, <Huawei Technologies Co., Ltd>
   3:D:/fchai/work/i-cube/I-CUBE-HUAWEI/Middlewares/Third_Party/Huawei/iot_link/oc/oc_mqtt/oc_mqtt_tiny_v5\oc_mqtt_tiny.c ****  * All rights reserved.
   4:D:/fchai/work/i-cube/I-CUBE-HUAWEI/Middlewares/Third_Party/Huawei/iot_link/oc/oc_mqtt/oc_mqtt_tiny_v5\oc_mqtt_tiny.c ****  * Redistribution and use in source and binary forms, with or without modification,
   5:D:/fchai/work/i-cube/I-CUBE-HUAWEI/Middlewares/Third_Party/Huawei/iot_link/oc/oc_mqtt/oc_mqtt_tiny_v5\oc_mqtt_tiny.c ****  * are permitted provided that the following conditions are met:
   6:D:/fchai/work/i-cube/I-CUBE-HUAWEI/Middlewares/Third_Party/Huawei/iot_link/oc/oc_mqtt/oc_mqtt_tiny_v5\oc_mqtt_tiny.c ****  * 1. Redistributions of source code must retain the above copyright notice, this list of
   7:D:/fchai/work/i-cube/I-CUBE-HUAWEI/Middlewares/Third_Party/Huawei/iot_link/oc/oc_mqtt/oc_mqtt_tiny_v5\oc_mqtt_tiny.c ****  * conditions and the following disclaimer.
   8:D:/fchai/work/i-cube/I-CUBE-HUAWEI/Middlewares/Third_Party/Huawei/iot_link/oc/oc_mqtt/oc_mqtt_tiny_v5\oc_mqtt_tiny.c ****  * 2. Redistributions in binary form must reproduce the above copyright notice, this list
   9:D:/fchai/work/i-cube/I-CUBE-HUAWEI/Middlewares/Third_Party/Huawei/iot_link/oc/oc_mqtt/oc_mqtt_tiny_v5\oc_mqtt_tiny.c ****  * of conditions and the following disclaimer in the documentation and/or other materials
  10:D:/fchai/work/i-cube/I-CUBE-HUAWEI/Middlewares/Third_Party/Huawei/iot_link/oc/oc_mqtt/oc_mqtt_tiny_v5\oc_mqtt_tiny.c ****  * provided with the distribution.
  11:D:/fchai/work/i-cube/I-CUBE-HUAWEI/Middlewares/Third_Party/Huawei/iot_link/oc/oc_mqtt/oc_mqtt_tiny_v5\oc_mqtt_tiny.c ****  * 3. Neither the name of the copyright holder nor the names of its contributors may be used
  12:D:/fchai/work/i-cube/I-CUBE-HUAWEI/Middlewares/Third_Party/Huawei/iot_link/oc/oc_mqtt/oc_mqtt_tiny_v5\oc_mqtt_tiny.c ****  * to endorse or promote products derived from this software without specific prior written
  13:D:/fchai/work/i-cube/I-CUBE-HUAWEI/Middlewares/Third_Party/Huawei/iot_link/oc/oc_mqtt/oc_mqtt_tiny_v5\oc_mqtt_tiny.c ****  * permission.
  14:D:/fchai/work/i-cube/I-CUBE-HUAWEI/Middlewares/Third_Party/Huawei/iot_link/oc/oc_mqtt/oc_mqtt_tiny_v5\oc_mqtt_tiny.c ****  * THIS SOFTWARE IS PROVIDED BY THE COPYRIGHT HOLDERS AND CONTRIBUTORS
  15:D:/fchai/work/i-cube/I-CUBE-HUAWEI/Middlewares/Third_Party/Huawei/iot_link/oc/oc_mqtt/oc_mqtt_tiny_v5\oc_mqtt_tiny.c ****  * "AS IS" AND ANY EXPRESS OR IMPLIED WARRANTIES, INCLUDING, BUT NOT LIMITED TO,
  16:D:/fchai/work/i-cube/I-CUBE-HUAWEI/Middlewares/Third_Party/Huawei/iot_link/oc/oc_mqtt/oc_mqtt_tiny_v5\oc_mqtt_tiny.c ****  * THE IMPLIED WARRANTIES OF MERCHANTABILITY AND FITNESS FOR A PARTICULAR
  17:D:/fchai/work/i-cube/I-CUBE-HUAWEI/Middlewares/Third_Party/Huawei/iot_link/oc/oc_mqtt/oc_mqtt_tiny_v5\oc_mqtt_tiny.c ****  * PURPOSE ARE DISCLAIMED. IN NO EVENT SHALL THE COPYRIGHT HOLDER OR
  18:D:/fchai/work/i-cube/I-CUBE-HUAWEI/Middlewares/Third_Party/Huawei/iot_link/oc/oc_mqtt/oc_mqtt_tiny_v5\oc_mqtt_tiny.c ****  * CONTRIBUTORS BE LIABLE FOR ANY DIRECT, INDIRECT, INCIDENTAL, SPECIAL,
  19:D:/fchai/work/i-cube/I-CUBE-HUAWEI/Middlewares/Third_Party/Huawei/iot_link/oc/oc_mqtt/oc_mqtt_tiny_v5\oc_mqtt_tiny.c ****  * EXEMPLARY, OR CONSEQUENTIAL DAMAGES (INCLUDING, BUT NOT LIMITED TO,
  20:D:/fchai/work/i-cube/I-CUBE-HUAWEI/Middlewares/Third_Party/Huawei/iot_link/oc/oc_mqtt/oc_mqtt_tiny_v5\oc_mqtt_tiny.c ****  * PROCUREMENT OF SUBSTITUTE GOODS OR SERVICES; LOSS OF USE, DATA, OR PROFITS;
  21:D:/fchai/work/i-cube/I-CUBE-HUAWEI/Middlewares/Third_Party/Huawei/iot_link/oc/oc_mqtt/oc_mqtt_tiny_v5\oc_mqtt_tiny.c ****  * OR BUSINESS INTERRUPTION) HOWEVER CAUSED AND ON ANY THEORY OF LIABILITY,
  22:D:/fchai/work/i-cube/I-CUBE-HUAWEI/Middlewares/Third_Party/Huawei/iot_link/oc/oc_mqtt/oc_mqtt_tiny_v5\oc_mqtt_tiny.c ****  * WHETHER IN CONTRACT, STRICT LIABILITY, OR TORT (INCLUDING NEGLIGENCE OR
  23:D:/fchai/work/i-cube/I-CUBE-HUAWEI/Middlewares/Third_Party/Huawei/iot_link/oc/oc_mqtt/oc_mqtt_tiny_v5\oc_mqtt_tiny.c ****  * OTHERWISE) ARISING IN ANY WAY OUT OF THE USE OF THIS SOFTWARE, EVEN IF
  24:D:/fchai/work/i-cube/I-CUBE-HUAWEI/Middlewares/Third_Party/Huawei/iot_link/oc/oc_mqtt/oc_mqtt_tiny_v5\oc_mqtt_tiny.c ****  * ADVISED OF THE POSSIBILITY OF SUCH DAMAGE.
  25:D:/fchai/work/i-cube/I-CUBE-HUAWEI/Middlewares/Third_Party/Huawei/iot_link/oc/oc_mqtt/oc_mqtt_tiny_v5\oc_mqtt_tiny.c ****  *---------------------------------------------------------------------------*/
  26:D:/fchai/work/i-cube/I-CUBE-HUAWEI/Middlewares/Third_Party/Huawei/iot_link/oc/oc_mqtt/oc_mqtt_tiny_v5\oc_mqtt_tiny.c **** /*----------------------------------------------------------------------------
  27:D:/fchai/work/i-cube/I-CUBE-HUAWEI/Middlewares/Third_Party/Huawei/iot_link/oc/oc_mqtt/oc_mqtt_tiny_v5\oc_mqtt_tiny.c ****  * Notice of Export Control Law
  28:D:/fchai/work/i-cube/I-CUBE-HUAWEI/Middlewares/Third_Party/Huawei/iot_link/oc/oc_mqtt/oc_mqtt_tiny_v5\oc_mqtt_tiny.c ****  * ===============================================
  29:D:/fchai/work/i-cube/I-CUBE-HUAWEI/Middlewares/Third_Party/Huawei/iot_link/oc/oc_mqtt/oc_mqtt_tiny_v5\oc_mqtt_tiny.c ****  * Huawei LiteOS may be subject to applicable export control laws and regulations, which might
ARM GAS  T:\msys\tmp\ccOGKCS9.s 			page 2


  30:D:/fchai/work/i-cube/I-CUBE-HUAWEI/Middlewares/Third_Party/Huawei/iot_link/oc/oc_mqtt/oc_mqtt_tiny_v5\oc_mqtt_tiny.c ****  * include those applicable to Huawei LiteOS of U.S. and the country in which you are located.
  31:D:/fchai/work/i-cube/I-CUBE-HUAWEI/Middlewares/Third_Party/Huawei/iot_link/oc/oc_mqtt/oc_mqtt_tiny_v5\oc_mqtt_tiny.c ****  * Import, export and usage of Huawei LiteOS in any manner by you shall be in compliance with such
  32:D:/fchai/work/i-cube/I-CUBE-HUAWEI/Middlewares/Third_Party/Huawei/iot_link/oc/oc_mqtt/oc_mqtt_tiny_v5\oc_mqtt_tiny.c ****  * applicable export control laws and regulations.
  33:D:/fchai/work/i-cube/I-CUBE-HUAWEI/Middlewares/Third_Party/Huawei/iot_link/oc/oc_mqtt/oc_mqtt_tiny_v5\oc_mqtt_tiny.c ****  *---------------------------------------------------------------------------*/
  34:D:/fchai/work/i-cube/I-CUBE-HUAWEI/Middlewares/Third_Party/Huawei/iot_link/oc/oc_mqtt/oc_mqtt_tiny_v5\oc_mqtt_tiny.c **** /**
  35:D:/fchai/work/i-cube/I-CUBE-HUAWEI/Middlewares/Third_Party/Huawei/iot_link/oc/oc_mqtt/oc_mqtt_tiny_v5\oc_mqtt_tiny.c ****  *  DATE                AUTHOR      INSTRUCTION
  36:D:/fchai/work/i-cube/I-CUBE-HUAWEI/Middlewares/Third_Party/Huawei/iot_link/oc/oc_mqtt/oc_mqtt_tiny_v5\oc_mqtt_tiny.c ****  *  2019-11-10 22:42  zhangqianfu  The first version
  37:D:/fchai/work/i-cube/I-CUBE-HUAWEI/Middlewares/Third_Party/Huawei/iot_link/oc/oc_mqtt/oc_mqtt_tiny_v5\oc_mqtt_tiny.c ****  *
  38:D:/fchai/work/i-cube/I-CUBE-HUAWEI/Middlewares/Third_Party/Huawei/iot_link/oc/oc_mqtt/oc_mqtt_tiny_v5\oc_mqtt_tiny.c ****  *
  39:D:/fchai/work/i-cube/I-CUBE-HUAWEI/Middlewares/Third_Party/Huawei/iot_link/oc/oc_mqtt/oc_mqtt_tiny_v5\oc_mqtt_tiny.c ****  *   *
  40:D:/fchai/work/i-cube/I-CUBE-HUAWEI/Middlewares/Third_Party/Huawei/iot_link/oc/oc_mqtt/oc_mqtt_tiny_v5\oc_mqtt_tiny.c ****  *  1, only support CRT tls mode
  41:D:/fchai/work/i-cube/I-CUBE-HUAWEI/Middlewares/Third_Party/Huawei/iot_link/oc/oc_mqtt/oc_mqtt_tiny_v5\oc_mqtt_tiny.c ****  *  2, the data encode only support the json mode
  42:D:/fchai/work/i-cube/I-CUBE-HUAWEI/Middlewares/Third_Party/Huawei/iot_link/oc/oc_mqtt/oc_mqtt_tiny_v5\oc_mqtt_tiny.c ****  *  3, the pwd only support the no check time mode
  43:D:/fchai/work/i-cube/I-CUBE-HUAWEI/Middlewares/Third_Party/Huawei/iot_link/oc/oc_mqtt/oc_mqtt_tiny_v5\oc_mqtt_tiny.c ****  *
  44:D:/fchai/work/i-cube/I-CUBE-HUAWEI/Middlewares/Third_Party/Huawei/iot_link/oc/oc_mqtt/oc_mqtt_tiny_v5\oc_mqtt_tiny.c ****  */
  45:D:/fchai/work/i-cube/I-CUBE-HUAWEI/Middlewares/Third_Party/Huawei/iot_link/oc/oc_mqtt/oc_mqtt_tiny_v5\oc_mqtt_tiny.c **** #include <stdint.h>
  46:D:/fchai/work/i-cube/I-CUBE-HUAWEI/Middlewares/Third_Party/Huawei/iot_link/oc/oc_mqtt/oc_mqtt_tiny_v5\oc_mqtt_tiny.c **** #include <stddef.h>
  47:D:/fchai/work/i-cube/I-CUBE-HUAWEI/Middlewares/Third_Party/Huawei/iot_link/oc/oc_mqtt/oc_mqtt_tiny_v5\oc_mqtt_tiny.c **** #include <stdlib.h>
  48:D:/fchai/work/i-cube/I-CUBE-HUAWEI/Middlewares/Third_Party/Huawei/iot_link/oc/oc_mqtt/oc_mqtt_tiny_v5\oc_mqtt_tiny.c **** #include <string.h>
  49:D:/fchai/work/i-cube/I-CUBE-HUAWEI/Middlewares/Third_Party/Huawei/iot_link/oc/oc_mqtt/oc_mqtt_tiny_v5\oc_mqtt_tiny.c **** #include <link_misc.h>
  50:D:/fchai/work/i-cube/I-CUBE-HUAWEI/Middlewares/Third_Party/Huawei/iot_link/oc/oc_mqtt/oc_mqtt_tiny_v5\oc_mqtt_tiny.c **** #include <time.h>
  51:D:/fchai/work/i-cube/I-CUBE-HUAWEI/Middlewares/Third_Party/Huawei/iot_link/oc/oc_mqtt/oc_mqtt_tiny_v5\oc_mqtt_tiny.c **** 
  52:D:/fchai/work/i-cube/I-CUBE-HUAWEI/Middlewares/Third_Party/Huawei/iot_link/oc/oc_mqtt/oc_mqtt_tiny_v5\oc_mqtt_tiny.c **** #include <queue.h>
  53:D:/fchai/work/i-cube/I-CUBE-HUAWEI/Middlewares/Third_Party/Huawei/iot_link/oc/oc_mqtt/oc_mqtt_tiny_v5\oc_mqtt_tiny.c **** //#include <osal.h>
  54:D:/fchai/work/i-cube/I-CUBE-HUAWEI/Middlewares/Third_Party/Huawei/iot_link/oc/oc_mqtt/oc_mqtt_tiny_v5\oc_mqtt_tiny.c **** #include <mqtt_al.h>
  55:D:/fchai/work/i-cube/I-CUBE-HUAWEI/Middlewares/Third_Party/Huawei/iot_link/oc/oc_mqtt/oc_mqtt_tiny_v5\oc_mqtt_tiny.c **** #include <oc_mqtt_al.h>
  56:D:/fchai/work/i-cube/I-CUBE-HUAWEI/Middlewares/Third_Party/Huawei/iot_link/oc/oc_mqtt/oc_mqtt_tiny_v5\oc_mqtt_tiny.c **** #include <sal.h>
  57:D:/fchai/work/i-cube/I-CUBE-HUAWEI/Middlewares/Third_Party/Huawei/iot_link/oc/oc_mqtt/oc_mqtt_tiny_v5\oc_mqtt_tiny.c **** 
  58:D:/fchai/work/i-cube/I-CUBE-HUAWEI/Middlewares/Third_Party/Huawei/iot_link/oc/oc_mqtt/oc_mqtt_tiny_v5\oc_mqtt_tiny.c **** #include <cJSON.h>           //json mode
  59:D:/fchai/work/i-cube/I-CUBE-HUAWEI/Middlewares/Third_Party/Huawei/iot_link/oc/oc_mqtt/oc_mqtt_tiny_v5\oc_mqtt_tiny.c **** #include "hmac.h"            //used to generate the user pwd
  60:D:/fchai/work/i-cube/I-CUBE-HUAWEI/Middlewares/Third_Party/Huawei/iot_link/oc/oc_mqtt/oc_mqtt_tiny_v5\oc_mqtt_tiny.c **** 
  61:D:/fchai/work/i-cube/I-CUBE-HUAWEI/Middlewares/Third_Party/Huawei/iot_link/oc/oc_mqtt/oc_mqtt_tiny_v5\oc_mqtt_tiny.c **** ////CRT FOR THE OC
  62:D:/fchai/work/i-cube/I-CUBE-HUAWEI/Middlewares/Third_Party/Huawei/iot_link/oc/oc_mqtt/oc_mqtt_tiny_v5\oc_mqtt_tiny.c **** static const char s_oc_mqtt_ca_crt[] =
  63:D:/fchai/work/i-cube/I-CUBE-HUAWEI/Middlewares/Third_Party/Huawei/iot_link/oc/oc_mqtt/oc_mqtt_tiny_v5\oc_mqtt_tiny.c **** " -----BEGIN CERTIFICATE-----\r\n"
  64:D:/fchai/work/i-cube/I-CUBE-HUAWEI/Middlewares/Third_Party/Huawei/iot_link/oc/oc_mqtt/oc_mqtt_tiny_v5\oc_mqtt_tiny.c **** "MIIDrzCCApegAwIBAgIQCDvgVpBCRrGhdWrJWZHHSjANBgkqhkiG9w0BAQUFADBh\r\n"
  65:D:/fchai/work/i-cube/I-CUBE-HUAWEI/Middlewares/Third_Party/Huawei/iot_link/oc/oc_mqtt/oc_mqtt_tiny_v5\oc_mqtt_tiny.c **** "MQswCQYDVQQGEwJVUzEVMBMGA1UEChMMRGlnaUNlcnQgSW5jMRkwFwYDVQQLExB3\r\n"
  66:D:/fchai/work/i-cube/I-CUBE-HUAWEI/Middlewares/Third_Party/Huawei/iot_link/oc/oc_mqtt/oc_mqtt_tiny_v5\oc_mqtt_tiny.c **** "d3cuZGlnaWNlcnQuY29tMSAwHgYDVQQDExdEaWdpQ2VydCBHbG9iYWwgUm9vdCBD\r\n"
  67:D:/fchai/work/i-cube/I-CUBE-HUAWEI/Middlewares/Third_Party/Huawei/iot_link/oc/oc_mqtt/oc_mqtt_tiny_v5\oc_mqtt_tiny.c **** "QTAeFw0wNjExMTAwMDAwMDBaFw0zMTExMTAwMDAwMDBaMGExCzAJBgNVBAYTAlVT\r\n"
  68:D:/fchai/work/i-cube/I-CUBE-HUAWEI/Middlewares/Third_Party/Huawei/iot_link/oc/oc_mqtt/oc_mqtt_tiny_v5\oc_mqtt_tiny.c **** "MRUwEwYDVQQKEwxEaWdpQ2VydCBJbmMxGTAXBgNVBAsTEHd3dy5kaWdpY2VydC5j\r\n"
  69:D:/fchai/work/i-cube/I-CUBE-HUAWEI/Middlewares/Third_Party/Huawei/iot_link/oc/oc_mqtt/oc_mqtt_tiny_v5\oc_mqtt_tiny.c **** "b20xIDAeBgNVBAMTF0RpZ2lDZXJ0IEdsb2JhbCBSb290IENBMIIBIjANBgkqhkiG\r\n"
  70:D:/fchai/work/i-cube/I-CUBE-HUAWEI/Middlewares/Third_Party/Huawei/iot_link/oc/oc_mqtt/oc_mqtt_tiny_v5\oc_mqtt_tiny.c **** "9w0BAQEFAAOCAQ8AMIIBCgKCAQEA4jvhEXLeqKTTo1eqUKKPC3eQyaKl7hLOllsB\r\n"
  71:D:/fchai/work/i-cube/I-CUBE-HUAWEI/Middlewares/Third_Party/Huawei/iot_link/oc/oc_mqtt/oc_mqtt_tiny_v5\oc_mqtt_tiny.c **** "CSDMAZOnTjC3U/dDxGkAV53ijSLdhwZAAIEJzs4bg7/fzTtxRuLWZscFs3YnFo97\r\n"
  72:D:/fchai/work/i-cube/I-CUBE-HUAWEI/Middlewares/Third_Party/Huawei/iot_link/oc/oc_mqtt/oc_mqtt_tiny_v5\oc_mqtt_tiny.c **** "nh6Vfe63SKMI2tavegw5BmV/Sl0fvBf4q77uKNd0f3p4mVmFaG5cIzJLv07A6Fpt\r\n"
  73:D:/fchai/work/i-cube/I-CUBE-HUAWEI/Middlewares/Third_Party/Huawei/iot_link/oc/oc_mqtt/oc_mqtt_tiny_v5\oc_mqtt_tiny.c **** "43C/dxC//AH2hdmoRBBYMql1GNXRor5H4idq9Joz+EkIYIvUX7Q6hL+hqkpMfT7P\r\n"
  74:D:/fchai/work/i-cube/I-CUBE-HUAWEI/Middlewares/Third_Party/Huawei/iot_link/oc/oc_mqtt/oc_mqtt_tiny_v5\oc_mqtt_tiny.c **** "T19sdl6gSzeRntwi5m3OFBqOasv+zbMUZBfHWymeMr/y7vrTC0LUq7dBMtoM1O/4\r\n"
  75:D:/fchai/work/i-cube/I-CUBE-HUAWEI/Middlewares/Third_Party/Huawei/iot_link/oc/oc_mqtt/oc_mqtt_tiny_v5\oc_mqtt_tiny.c **** "gdW7jVg/tRvoSSiicNoxBN33shbyTApOB6jtSj1etX+jkMOvJwIDAQABo2MwYTAO\r\n"
  76:D:/fchai/work/i-cube/I-CUBE-HUAWEI/Middlewares/Third_Party/Huawei/iot_link/oc/oc_mqtt/oc_mqtt_tiny_v5\oc_mqtt_tiny.c **** "BgNVHQ8BAf8EBAMCAYYwDwYDVR0TAQH/BAUwAwEB/zAdBgNVHQ4EFgQUA95QNVbR\r\n"
  77:D:/fchai/work/i-cube/I-CUBE-HUAWEI/Middlewares/Third_Party/Huawei/iot_link/oc/oc_mqtt/oc_mqtt_tiny_v5\oc_mqtt_tiny.c **** "TLtm8KPiGxvDl7I90VUwHwYDVR0jBBgwFoAUA95QNVbRTLtm8KPiGxvDl7I90VUw\r\n"
  78:D:/fchai/work/i-cube/I-CUBE-HUAWEI/Middlewares/Third_Party/Huawei/iot_link/oc/oc_mqtt/oc_mqtt_tiny_v5\oc_mqtt_tiny.c **** "DQYJKoZIhvcNAQEFBQADggEBAMucN6pIExIK+t1EnE9SsPTfrgT1eXkIoyQY/Esr\r\n"
  79:D:/fchai/work/i-cube/I-CUBE-HUAWEI/Middlewares/Third_Party/Huawei/iot_link/oc/oc_mqtt/oc_mqtt_tiny_v5\oc_mqtt_tiny.c **** "hMAtudXH/vTBH1jLuG2cenTnmCmrEbXjcKChzUyImZOMkXDiqw8cvpOp/2PV5Adg\r\n"
  80:D:/fchai/work/i-cube/I-CUBE-HUAWEI/Middlewares/Third_Party/Huawei/iot_link/oc/oc_mqtt/oc_mqtt_tiny_v5\oc_mqtt_tiny.c **** "06O/nVsJ8dWO41P0jmP6P6fbtGbfYmbW0W5BjfIttep3Sp+dWOIrWcBAI+0tKIJF\r\n"
  81:D:/fchai/work/i-cube/I-CUBE-HUAWEI/Middlewares/Third_Party/Huawei/iot_link/oc/oc_mqtt/oc_mqtt_tiny_v5\oc_mqtt_tiny.c **** "PnlUkiaY4IBIqDfv8NZ5YBberOgOzW6sRBc4L0na4UU+Krk2U886UAb3LujEV0ls\r\n"
  82:D:/fchai/work/i-cube/I-CUBE-HUAWEI/Middlewares/Third_Party/Huawei/iot_link/oc/oc_mqtt/oc_mqtt_tiny_v5\oc_mqtt_tiny.c **** "YSEY1QSteDwsOoBrp+uvFRTp2InBuThs4pFsiv9kuXclVzDAGySj4dzp30d8tbQk\r\n"
  83:D:/fchai/work/i-cube/I-CUBE-HUAWEI/Middlewares/Third_Party/Huawei/iot_link/oc/oc_mqtt/oc_mqtt_tiny_v5\oc_mqtt_tiny.c **** "CAUw7C29C79Fv1C5qfPrmAESrciIxpg0X40KPMbp1ZWVbd4=\r\n"
  84:D:/fchai/work/i-cube/I-CUBE-HUAWEI/Middlewares/Third_Party/Huawei/iot_link/oc/oc_mqtt/oc_mqtt_tiny_v5\oc_mqtt_tiny.c **** "-----END CERTIFICATE-----\r\n";
  85:D:/fchai/work/i-cube/I-CUBE-HUAWEI/Middlewares/Third_Party/Huawei/iot_link/oc/oc_mqtt/oc_mqtt_tiny_v5\oc_mqtt_tiny.c **** 
  86:D:/fchai/work/i-cube/I-CUBE-HUAWEI/Middlewares/Third_Party/Huawei/iot_link/oc/oc_mqtt/oc_mqtt_tiny_v5\oc_mqtt_tiny.c **** 
ARM GAS  T:\msys\tmp\ccOGKCS9.s 			page 3


  87:D:/fchai/work/i-cube/I-CUBE-HUAWEI/Middlewares/Third_Party/Huawei/iot_link/oc/oc_mqtt/oc_mqtt_tiny_v5\oc_mqtt_tiny.c **** ///< devices normal data report and receive topic format
  88:D:/fchai/work/i-cube/I-CUBE-HUAWEI/Middlewares/Third_Party/Huawei/iot_link/oc/oc_mqtt/oc_mqtt_tiny_v5\oc_mqtt_tiny.c **** #define CN_CLIENT_ID_FMTNORMAL               "%s_0_0_%s"    ///< "deviceid_0_0_salttime"
  89:D:/fchai/work/i-cube/I-CUBE-HUAWEI/Middlewares/Third_Party/Huawei/iot_link/oc/oc_mqtt/oc_mqtt_tiny_v5\oc_mqtt_tiny.c **** #define CN_CLIENT_ID_FMTGROUP                "%s_0_%s"      ///< "deviceid_0_scopeid"
  90:D:/fchai/work/i-cube/I-CUBE-HUAWEI/Middlewares/Third_Party/Huawei/iot_link/oc/oc_mqtt/oc_mqtt_tiny_v5\oc_mqtt_tiny.c **** 
  91:D:/fchai/work/i-cube/I-CUBE-HUAWEI/Middlewares/Third_Party/Huawei/iot_link/oc/oc_mqtt/oc_mqtt_tiny_v5\oc_mqtt_tiny.c **** #define CN_OC_BS_REPORT_TOPIC_FMT           "$oc/devices/%s/sys/bootstrap/up"
  92:D:/fchai/work/i-cube/I-CUBE-HUAWEI/Middlewares/Third_Party/Huawei/iot_link/oc/oc_mqtt/oc_mqtt_tiny_v5\oc_mqtt_tiny.c **** #define CN_OC_BS_CMD_TOPIC_FMT              "$oc/devices/%s/sys/bootstrap/down"
  93:D:/fchai/work/i-cube/I-CUBE-HUAWEI/Middlewares/Third_Party/Huawei/iot_link/oc/oc_mqtt/oc_mqtt_tiny_v5\oc_mqtt_tiny.c **** #define CN_OC_HUB_SUBTOPIC_DEFAULT_FMT      "$oc/devices/%s/sys/commands/#"
  94:D:/fchai/work/i-cube/I-CUBE-HUAWEI/Middlewares/Third_Party/Huawei/iot_link/oc/oc_mqtt/oc_mqtt_tiny_v5\oc_mqtt_tiny.c **** #define CN_OC_HUB_PUBTOPIC_DEFAULT_FMT      "$oc/devices/%s/sys/properties/report"
  95:D:/fchai/work/i-cube/I-CUBE-HUAWEI/Middlewares/Third_Party/Huawei/iot_link/oc/oc_mqtt/oc_mqtt_tiny_v5\oc_mqtt_tiny.c **** 
  96:D:/fchai/work/i-cube/I-CUBE-HUAWEI/Middlewares/Third_Party/Huawei/iot_link/oc/oc_mqtt/oc_mqtt_tiny_v5\oc_mqtt_tiny.c **** /*The unit is millisecond*/
  97:D:/fchai/work/i-cube/I-CUBE-HUAWEI/Middlewares/Third_Party/Huawei/iot_link/oc/oc_mqtt/oc_mqtt_tiny_v5\oc_mqtt_tiny.c **** #define CN_CON_BACKOFF_TIME     (1000)   ///< UNIT:ms
  98:D:/fchai/work/i-cube/I-CUBE-HUAWEI/Middlewares/Third_Party/Huawei/iot_link/oc/oc_mqtt/oc_mqtt_tiny_v5\oc_mqtt_tiny.c **** #define CN_CON_BACKOFF_MAXTIMES  40      ///< WHEN WAIT OR GET ADDRESS ,WE COULD TRY MAX TIMES
  99:D:/fchai/work/i-cube/I-CUBE-HUAWEI/Middlewares/Third_Party/Huawei/iot_link/oc/oc_mqtt/oc_mqtt_tiny_v5\oc_mqtt_tiny.c **** #define CN_HMAC_LEN              32
 100:D:/fchai/work/i-cube/I-CUBE-HUAWEI/Middlewares/Third_Party/Huawei/iot_link/oc/oc_mqtt/oc_mqtt_tiny_v5\oc_mqtt_tiny.c **** #define CN_STRING_MAXLEN         127
 101:D:/fchai/work/i-cube/I-CUBE-HUAWEI/Middlewares/Third_Party/Huawei/iot_link/oc/oc_mqtt/oc_mqtt_tiny_v5\oc_mqtt_tiny.c **** 
 102:D:/fchai/work/i-cube/I-CUBE-HUAWEI/Middlewares/Third_Party/Huawei/iot_link/oc/oc_mqtt/oc_mqtt_tiny_v5\oc_mqtt_tiny.c **** #define CN_OC_MQTT_TIMEOUT             (10*1000)
 103:D:/fchai/work/i-cube/I-CUBE-HUAWEI/Middlewares/Third_Party/Huawei/iot_link/oc/oc_mqtt/oc_mqtt_tiny_v5\oc_mqtt_tiny.c **** #define CN_OC_MQTT_LIFETIMEDEFAULT     (120)
 104:D:/fchai/work/i-cube/I-CUBE-HUAWEI/Middlewares/Third_Party/Huawei/iot_link/oc/oc_mqtt/oc_mqtt_tiny_v5\oc_mqtt_tiny.c **** #define CN_OC_MQTT_LIFELEAST           (30)
 105:D:/fchai/work/i-cube/I-CUBE-HUAWEI/Middlewares/Third_Party/Huawei/iot_link/oc/oc_mqtt/oc_mqtt_tiny_v5\oc_mqtt_tiny.c **** #define CN_OC_MQTT_LIFEMAX             (1200)
 106:D:/fchai/work/i-cube/I-CUBE-HUAWEI/Middlewares/Third_Party/Huawei/iot_link/oc/oc_mqtt/oc_mqtt_tiny_v5\oc_mqtt_tiny.c **** 
 107:D:/fchai/work/i-cube/I-CUBE-HUAWEI/Middlewares/Third_Party/Huawei/iot_link/oc/oc_mqtt/oc_mqtt_tiny_v5\oc_mqtt_tiny.c **** const char *s_new_topic_fmt[]=
 108:D:/fchai/work/i-cube/I-CUBE-HUAWEI/Middlewares/Third_Party/Huawei/iot_link/oc/oc_mqtt/oc_mqtt_tiny_v5\oc_mqtt_tiny.c **** {
 109:D:/fchai/work/i-cube/I-CUBE-HUAWEI/Middlewares/Third_Party/Huawei/iot_link/oc/oc_mqtt/oc_mqtt_tiny_v5\oc_mqtt_tiny.c ****     "$oc/devices/%s/sys/messages/down",
 110:D:/fchai/work/i-cube/I-CUBE-HUAWEI/Middlewares/Third_Party/Huawei/iot_link/oc/oc_mqtt/oc_mqtt_tiny_v5\oc_mqtt_tiny.c ****     "$oc/devices/%s/sys/properties/set/#",
 111:D:/fchai/work/i-cube/I-CUBE-HUAWEI/Middlewares/Third_Party/Huawei/iot_link/oc/oc_mqtt/oc_mqtt_tiny_v5\oc_mqtt_tiny.c ****     "$oc/devices/%s/sys/properties/get/#",
 112:D:/fchai/work/i-cube/I-CUBE-HUAWEI/Middlewares/Third_Party/Huawei/iot_link/oc/oc_mqtt/oc_mqtt_tiny_v5\oc_mqtt_tiny.c ****     "$oc/devices/%s/sys/shadow/get/response/#",
 113:D:/fchai/work/i-cube/I-CUBE-HUAWEI/Middlewares/Third_Party/Huawei/iot_link/oc/oc_mqtt/oc_mqtt_tiny_v5\oc_mqtt_tiny.c ****     "$oc/devices/%s/sys/events/down",
 114:D:/fchai/work/i-cube/I-CUBE-HUAWEI/Middlewares/Third_Party/Huawei/iot_link/oc/oc_mqtt/oc_mqtt_tiny_v5\oc_mqtt_tiny.c **** };
 115:D:/fchai/work/i-cube/I-CUBE-HUAWEI/Middlewares/Third_Party/Huawei/iot_link/oc/oc_mqtt/oc_mqtt_tiny_v5\oc_mqtt_tiny.c **** #define CN_NEW_TOPIC_NUM     (sizeof(s_new_topic_fmt)/sizeof(const char *))
 116:D:/fchai/work/i-cube/I-CUBE-HUAWEI/Middlewares/Third_Party/Huawei/iot_link/oc/oc_mqtt/oc_mqtt_tiny_v5\oc_mqtt_tiny.c **** 
 117:D:/fchai/work/i-cube/I-CUBE-HUAWEI/Middlewares/Third_Party/Huawei/iot_link/oc/oc_mqtt/oc_mqtt_tiny_v5\oc_mqtt_tiny.c **** 
 118:D:/fchai/work/i-cube/I-CUBE-HUAWEI/Middlewares/Third_Party/Huawei/iot_link/oc/oc_mqtt/oc_mqtt_tiny_v5\oc_mqtt_tiny.c **** typedef struct
 119:D:/fchai/work/i-cube/I-CUBE-HUAWEI/Middlewares/Third_Party/Huawei/iot_link/oc/oc_mqtt/oc_mqtt_tiny_v5\oc_mqtt_tiny.c **** {
 120:D:/fchai/work/i-cube/I-CUBE-HUAWEI/Middlewares/Third_Party/Huawei/iot_link/oc/oc_mqtt/oc_mqtt_tiny_v5\oc_mqtt_tiny.c ****     char *hubserver_addr;     ///< we get from the bs server
 121:D:/fchai/work/i-cube/I-CUBE-HUAWEI/Middlewares/Third_Party/Huawei/iot_link/oc/oc_mqtt/oc_mqtt_tiny_v5\oc_mqtt_tiny.c ****     char *hubserver_port;     ///< we get from the bs server
 122:D:/fchai/work/i-cube/I-CUBE-HUAWEI/Middlewares/Third_Party/Huawei/iot_link/oc/oc_mqtt/oc_mqtt_tiny_v5\oc_mqtt_tiny.c **** }oc_bs_mqtt_cb_t;             ///< when we used
 123:D:/fchai/work/i-cube/I-CUBE-HUAWEI/Middlewares/Third_Party/Huawei/iot_link/oc/oc_mqtt/oc_mqtt_tiny_v5\oc_mqtt_tiny.c **** 
 124:D:/fchai/work/i-cube/I-CUBE-HUAWEI/Middlewares/Third_Party/Huawei/iot_link/oc/oc_mqtt/oc_mqtt_tiny_v5\oc_mqtt_tiny.c **** 
 125:D:/fchai/work/i-cube/I-CUBE-HUAWEI/Middlewares/Third_Party/Huawei/iot_link/oc/oc_mqtt/oc_mqtt_tiny_v5\oc_mqtt_tiny.c **** typedef struct
 126:D:/fchai/work/i-cube/I-CUBE-HUAWEI/Middlewares/Third_Party/Huawei/iot_link/oc/oc_mqtt/oc_mqtt_tiny_v5\oc_mqtt_tiny.c **** {
 127:D:/fchai/work/i-cube/I-CUBE-HUAWEI/Middlewares/Third_Party/Huawei/iot_link/oc/oc_mqtt/oc_mqtt_tiny_v5\oc_mqtt_tiny.c ****     ///< these parameter has been generated when configured
 128:D:/fchai/work/i-cube/I-CUBE-HUAWEI/Middlewares/Third_Party/Huawei/iot_link/oc/oc_mqtt/oc_mqtt_tiny_v5\oc_mqtt_tiny.c ****     char   *mqtt_clientid;
 129:D:/fchai/work/i-cube/I-CUBE-HUAWEI/Middlewares/Third_Party/Huawei/iot_link/oc/oc_mqtt/oc_mqtt_tiny_v5\oc_mqtt_tiny.c ****     char   *mqtt_user;
 130:D:/fchai/work/i-cube/I-CUBE-HUAWEI/Middlewares/Third_Party/Huawei/iot_link/oc/oc_mqtt/oc_mqtt_tiny_v5\oc_mqtt_tiny.c ****     char   *mqtt_passwd;
 131:D:/fchai/work/i-cube/I-CUBE-HUAWEI/Middlewares/Third_Party/Huawei/iot_link/oc/oc_mqtt/oc_mqtt_tiny_v5\oc_mqtt_tiny.c ****     char   *server_addr;
 132:D:/fchai/work/i-cube/I-CUBE-HUAWEI/Middlewares/Third_Party/Huawei/iot_link/oc/oc_mqtt/oc_mqtt_tiny_v5\oc_mqtt_tiny.c ****     char   *server_port;
 133:D:/fchai/work/i-cube/I-CUBE-HUAWEI/Middlewares/Third_Party/Huawei/iot_link/oc/oc_mqtt/oc_mqtt_tiny_v5\oc_mqtt_tiny.c ****     char   *default_pub_topic;
 134:D:/fchai/work/i-cube/I-CUBE-HUAWEI/Middlewares/Third_Party/Huawei/iot_link/oc/oc_mqtt/oc_mqtt_tiny_v5\oc_mqtt_tiny.c ****     char   *default_sub_topic;
 135:D:/fchai/work/i-cube/I-CUBE-HUAWEI/Middlewares/Third_Party/Huawei/iot_link/oc/oc_mqtt/oc_mqtt_tiny_v5\oc_mqtt_tiny.c ****     fn_mqtt_al_msg_dealer default_msg_deal;
 136:D:/fchai/work/i-cube/I-CUBE-HUAWEI/Middlewares/Third_Party/Huawei/iot_link/oc/oc_mqtt/oc_mqtt_tiny_v5\oc_mqtt_tiny.c ****     ///< these parameter is dynamic  and will changed in the connection process
 137:D:/fchai/work/i-cube/I-CUBE-HUAWEI/Middlewares/Third_Party/Huawei/iot_link/oc/oc_mqtt/oc_mqtt_tiny_v5\oc_mqtt_tiny.c ****     void   *mqtt_handle;
 138:D:/fchai/work/i-cube/I-CUBE-HUAWEI/Middlewares/Third_Party/Huawei/iot_link/oc/oc_mqtt/oc_mqtt_tiny_v5\oc_mqtt_tiny.c **** }oc_mqtt_para_t;
 139:D:/fchai/work/i-cube/I-CUBE-HUAWEI/Middlewares/Third_Party/Huawei/iot_link/oc/oc_mqtt/oc_mqtt_tiny_v5\oc_mqtt_tiny.c **** 
 140:D:/fchai/work/i-cube/I-CUBE-HUAWEI/Middlewares/Third_Party/Huawei/iot_link/oc/oc_mqtt/oc_mqtt_tiny_v5\oc_mqtt_tiny.c **** 
 141:D:/fchai/work/i-cube/I-CUBE-HUAWEI/Middlewares/Third_Party/Huawei/iot_link/oc/oc_mqtt/oc_mqtt_tiny_v5\oc_mqtt_tiny.c **** typedef enum
 142:D:/fchai/work/i-cube/I-CUBE-HUAWEI/Middlewares/Third_Party/Huawei/iot_link/oc/oc_mqtt/oc_mqtt_tiny_v5\oc_mqtt_tiny.c **** {
 143:D:/fchai/work/i-cube/I-CUBE-HUAWEI/Middlewares/Third_Party/Huawei/iot_link/oc/oc_mqtt/oc_mqtt_tiny_v5\oc_mqtt_tiny.c ****     en_daemon_status_idle = 0,
ARM GAS  T:\msys\tmp\ccOGKCS9.s 			page 4


 144:D:/fchai/work/i-cube/I-CUBE-HUAWEI/Middlewares/Third_Party/Huawei/iot_link/oc/oc_mqtt/oc_mqtt_tiny_v5\oc_mqtt_tiny.c ****     en_daemon_status_bs_getaddr,
 145:D:/fchai/work/i-cube/I-CUBE-HUAWEI/Middlewares/Third_Party/Huawei/iot_link/oc/oc_mqtt/oc_mqtt_tiny_v5\oc_mqtt_tiny.c ****     en_daemon_status_dmp_connecting,
 146:D:/fchai/work/i-cube/I-CUBE-HUAWEI/Middlewares/Third_Party/Huawei/iot_link/oc/oc_mqtt/oc_mqtt_tiny_v5\oc_mqtt_tiny.c ****     en_daemon_status_hub_keep,
 147:D:/fchai/work/i-cube/I-CUBE-HUAWEI/Middlewares/Third_Party/Huawei/iot_link/oc/oc_mqtt/oc_mqtt_tiny_v5\oc_mqtt_tiny.c **** }en_daemon_status_t;
 148:D:/fchai/work/i-cube/I-CUBE-HUAWEI/Middlewares/Third_Party/Huawei/iot_link/oc/oc_mqtt/oc_mqtt_tiny_v5\oc_mqtt_tiny.c **** 
 149:D:/fchai/work/i-cube/I-CUBE-HUAWEI/Middlewares/Third_Party/Huawei/iot_link/oc/oc_mqtt/oc_mqtt_tiny_v5\oc_mqtt_tiny.c **** typedef struct
 150:D:/fchai/work/i-cube/I-CUBE-HUAWEI/Middlewares/Third_Party/Huawei/iot_link/oc/oc_mqtt/oc_mqtt_tiny_v5\oc_mqtt_tiny.c **** {
 151:D:/fchai/work/i-cube/I-CUBE-HUAWEI/Middlewares/Third_Party/Huawei/iot_link/oc/oc_mqtt/oc_mqtt_tiny_v5\oc_mqtt_tiny.c ****     void  *nxt;
 152:D:/fchai/work/i-cube/I-CUBE-HUAWEI/Middlewares/Third_Party/Huawei/iot_link/oc/oc_mqtt/oc_mqtt_tiny_v5\oc_mqtt_tiny.c ****     char  *topic;
 153:D:/fchai/work/i-cube/I-CUBE-HUAWEI/Middlewares/Third_Party/Huawei/iot_link/oc/oc_mqtt/oc_mqtt_tiny_v5\oc_mqtt_tiny.c ****     int    qos;
 154:D:/fchai/work/i-cube/I-CUBE-HUAWEI/Middlewares/Third_Party/Huawei/iot_link/oc/oc_mqtt/oc_mqtt_tiny_v5\oc_mqtt_tiny.c **** }tiny_topic_sub_t;
 155:D:/fchai/work/i-cube/I-CUBE-HUAWEI/Middlewares/Third_Party/Huawei/iot_link/oc/oc_mqtt/oc_mqtt_tiny_v5\oc_mqtt_tiny.c **** 
 156:D:/fchai/work/i-cube/I-CUBE-HUAWEI/Middlewares/Third_Party/Huawei/iot_link/oc/oc_mqtt/oc_mqtt_tiny_v5\oc_mqtt_tiny.c **** 
 157:D:/fchai/work/i-cube/I-CUBE-HUAWEI/Middlewares/Third_Party/Huawei/iot_link/oc/oc_mqtt/oc_mqtt_tiny_v5\oc_mqtt_tiny.c **** typedef struct
 158:D:/fchai/work/i-cube/I-CUBE-HUAWEI/Middlewares/Third_Party/Huawei/iot_link/oc/oc_mqtt/oc_mqtt_tiny_v5\oc_mqtt_tiny.c **** {
 159:D:/fchai/work/i-cube/I-CUBE-HUAWEI/Middlewares/Third_Party/Huawei/iot_link/oc/oc_mqtt/oc_mqtt_tiny_v5\oc_mqtt_tiny.c ****     int                     daemon_exit;
 160:D:/fchai/work/i-cube/I-CUBE-HUAWEI/Middlewares/Third_Party/Huawei/iot_link/oc/oc_mqtt/oc_mqtt_tiny_v5\oc_mqtt_tiny.c ****     char                   *config_mem;   ///< used to storage the configuration information
 161:D:/fchai/work/i-cube/I-CUBE-HUAWEI/Middlewares/Third_Party/Huawei/iot_link/oc/oc_mqtt/oc_mqtt_tiny_v5\oc_mqtt_tiny.c ****     oc_mqtt_config_t        config;
 162:D:/fchai/work/i-cube/I-CUBE-HUAWEI/Middlewares/Third_Party/Huawei/iot_link/oc/oc_mqtt/oc_mqtt_tiny_v5\oc_mqtt_tiny.c ****     oc_mqtt_para_t          mqtt_para;
 163:D:/fchai/work/i-cube/I-CUBE-HUAWEI/Middlewares/Third_Party/Huawei/iot_link/oc/oc_mqtt/oc_mqtt_tiny_v5\oc_mqtt_tiny.c ****     union{
 164:D:/fchai/work/i-cube/I-CUBE-HUAWEI/Middlewares/Third_Party/Huawei/iot_link/oc/oc_mqtt/oc_mqtt_tiny_v5\oc_mqtt_tiny.c ****         uint32_t value;
 165:D:/fchai/work/i-cube/I-CUBE-HUAWEI/Middlewares/Third_Party/Huawei/iot_link/oc/oc_mqtt/oc_mqtt_tiny_v5\oc_mqtt_tiny.c ****         struct
 166:D:/fchai/work/i-cube/I-CUBE-HUAWEI/Middlewares/Third_Party/Huawei/iot_link/oc/oc_mqtt/oc_mqtt_tiny_v5\oc_mqtt_tiny.c ****         {
 167:D:/fchai/work/i-cube/I-CUBE-HUAWEI/Middlewares/Third_Party/Huawei/iot_link/oc/oc_mqtt/oc_mqtt_tiny_v5\oc_mqtt_tiny.c ****             uint32_t bit_bs_enable:1;
 168:D:/fchai/work/i-cube/I-CUBE-HUAWEI/Middlewares/Third_Party/Huawei/iot_link/oc/oc_mqtt/oc_mqtt_tiny_v5\oc_mqtt_tiny.c ****             uint32_t bit_daemon_status:3;
 169:D:/fchai/work/i-cube/I-CUBE-HUAWEI/Middlewares/Third_Party/Huawei/iot_link/oc/oc_mqtt/oc_mqtt_tiny_v5\oc_mqtt_tiny.c ****             uint32_t bit_get_hubaddr:1;
 170:D:/fchai/work/i-cube/I-CUBE-HUAWEI/Middlewares/Third_Party/Huawei/iot_link/oc/oc_mqtt/oc_mqtt_tiny_v5\oc_mqtt_tiny.c ****             uint32_t bit_do_bootstrap:1;
 171:D:/fchai/work/i-cube/I-CUBE-HUAWEI/Middlewares/Third_Party/Huawei/iot_link/oc/oc_mqtt/oc_mqtt_tiny_v5\oc_mqtt_tiny.c ****             uint32_t bit_do_reportdisconnect:1;
 172:D:/fchai/work/i-cube/I-CUBE-HUAWEI/Middlewares/Third_Party/Huawei/iot_link/oc/oc_mqtt/oc_mqtt_tiny_v5\oc_mqtt_tiny.c ****         }bits;
 173:D:/fchai/work/i-cube/I-CUBE-HUAWEI/Middlewares/Third_Party/Huawei/iot_link/oc/oc_mqtt/oc_mqtt_tiny_v5\oc_mqtt_tiny.c ****     }flag;
 174:D:/fchai/work/i-cube/I-CUBE-HUAWEI/Middlewares/Third_Party/Huawei/iot_link/oc/oc_mqtt/oc_mqtt_tiny_v5\oc_mqtt_tiny.c ****     oc_bs_mqtt_cb_t     bs_cb;
 175:D:/fchai/work/i-cube/I-CUBE-HUAWEI/Middlewares/Third_Party/Huawei/iot_link/oc/oc_mqtt/oc_mqtt_tiny_v5\oc_mqtt_tiny.c ****     void               *task_daemon;                ///< oc mqtt lite daemon task
 176:D:/fchai/work/i-cube/I-CUBE-HUAWEI/Middlewares/Third_Party/Huawei/iot_link/oc/oc_mqtt/oc_mqtt_tiny_v5\oc_mqtt_tiny.c ****     queue_t            *task_daemon_cmd_queue;      ///< oc mqtt lite daemon task command queue
 177:D:/fchai/work/i-cube/I-CUBE-HUAWEI/Middlewares/Third_Party/Huawei/iot_link/oc/oc_mqtt/oc_mqtt_tiny_v5\oc_mqtt_tiny.c ****     char                salt_time[16];              ///< salt time for the connect
 178:D:/fchai/work/i-cube/I-CUBE-HUAWEI/Middlewares/Third_Party/Huawei/iot_link/oc/oc_mqtt/oc_mqtt_tiny_v5\oc_mqtt_tiny.c ****     char               *hub_sub_topic[CN_NEW_TOPIC_NUM];
 179:D:/fchai/work/i-cube/I-CUBE-HUAWEI/Middlewares/Third_Party/Huawei/iot_link/oc/oc_mqtt/oc_mqtt_tiny_v5\oc_mqtt_tiny.c ****     tiny_topic_sub_t   *subscribe_lst;
 180:D:/fchai/work/i-cube/I-CUBE-HUAWEI/Middlewares/Third_Party/Huawei/iot_link/oc/oc_mqtt/oc_mqtt_tiny_v5\oc_mqtt_tiny.c **** }oc_mqtt_tiny_cb_t;   ///< i think we may only got one mqtt
 181:D:/fchai/work/i-cube/I-CUBE-HUAWEI/Middlewares/Third_Party/Huawei/iot_link/oc/oc_mqtt/oc_mqtt_tiny_v5\oc_mqtt_tiny.c **** static oc_mqtt_tiny_cb_t *s_oc_mqtt_tiny_cb;
 182:D:/fchai/work/i-cube/I-CUBE-HUAWEI/Middlewares/Third_Party/Huawei/iot_link/oc/oc_mqtt/oc_mqtt_tiny_v5\oc_mqtt_tiny.c **** 
 183:D:/fchai/work/i-cube/I-CUBE-HUAWEI/Middlewares/Third_Party/Huawei/iot_link/oc/oc_mqtt/oc_mqtt_tiny_v5\oc_mqtt_tiny.c **** typedef enum
 184:D:/fchai/work/i-cube/I-CUBE-HUAWEI/Middlewares/Third_Party/Huawei/iot_link/oc/oc_mqtt/oc_mqtt_tiny_v5\oc_mqtt_tiny.c **** {
 185:D:/fchai/work/i-cube/I-CUBE-HUAWEI/Middlewares/Third_Party/Huawei/iot_link/oc/oc_mqtt/oc_mqtt_tiny_v5\oc_mqtt_tiny.c ****     en_oc_mqtt_daemon_cmd_connect = 0,
 186:D:/fchai/work/i-cube/I-CUBE-HUAWEI/Middlewares/Third_Party/Huawei/iot_link/oc/oc_mqtt/oc_mqtt_tiny_v5\oc_mqtt_tiny.c ****     en_oc_mqtt_daemon_cmd_send,           ///< when api need send message, then it post this comman
 187:D:/fchai/work/i-cube/I-CUBE-HUAWEI/Middlewares/Third_Party/Huawei/iot_link/oc/oc_mqtt/oc_mqtt_tiny_v5\oc_mqtt_tiny.c ****     en_oc_mqtt_daemon_cmd_publish,        ///< when api need publish message, then it post this com
 188:D:/fchai/work/i-cube/I-CUBE-HUAWEI/Middlewares/Third_Party/Huawei/iot_link/oc/oc_mqtt/oc_mqtt_tiny_v5\oc_mqtt_tiny.c ****     en_oc_mqtt_daemon_cmd_subscribe,      ///< when api need subscribe a topic, then it post this c
 189:D:/fchai/work/i-cube/I-CUBE-HUAWEI/Middlewares/Third_Party/Huawei/iot_link/oc/oc_mqtt/oc_mqtt_tiny_v5\oc_mqtt_tiny.c ****     en_oc_mqtt_daemon_cmd_unsubscribe,    ///< when api need un-subscribe a topic,then it post this
 190:D:/fchai/work/i-cube/I-CUBE-HUAWEI/Middlewares/Third_Party/Huawei/iot_link/oc/oc_mqtt/oc_mqtt_tiny_v5\oc_mqtt_tiny.c ****     en_oc_mqtt_daemon_cmd_disconnect,     ///< when api need to stop the connect, then it post this
 191:D:/fchai/work/i-cube/I-CUBE-HUAWEI/Middlewares/Third_Party/Huawei/iot_link/oc/oc_mqtt/oc_mqtt_tiny_v5\oc_mqtt_tiny.c ****     en_oc_mqtt_daemon_cmd_bsgetaddr,      ///< the bs callback post this command to the daemon when
 192:D:/fchai/work/i-cube/I-CUBE-HUAWEI/Middlewares/Third_Party/Huawei/iot_link/oc/oc_mqtt/oc_mqtt_tiny_v5\oc_mqtt_tiny.c ****     en_oc_mqtt_daemon_cmd_rebootstrap,    ///< the hub callback post this command to the daemon whe
 193:D:/fchai/work/i-cube/I-CUBE-HUAWEI/Middlewares/Third_Party/Huawei/iot_link/oc/oc_mqtt/oc_mqtt_tiny_v5\oc_mqtt_tiny.c **** }en_oc_mqtt_daemon_cmd;
 194:D:/fchai/work/i-cube/I-CUBE-HUAWEI/Middlewares/Third_Party/Huawei/iot_link/oc/oc_mqtt/oc_mqtt_tiny_v5\oc_mqtt_tiny.c **** 
 195:D:/fchai/work/i-cube/I-CUBE-HUAWEI/Middlewares/Third_Party/Huawei/iot_link/oc/oc_mqtt/oc_mqtt_tiny_v5\oc_mqtt_tiny.c **** typedef struct
 196:D:/fchai/work/i-cube/I-CUBE-HUAWEI/Middlewares/Third_Party/Huawei/iot_link/oc/oc_mqtt/oc_mqtt_tiny_v5\oc_mqtt_tiny.c **** {
 197:D:/fchai/work/i-cube/I-CUBE-HUAWEI/Middlewares/Third_Party/Huawei/iot_link/oc/oc_mqtt/oc_mqtt_tiny_v5\oc_mqtt_tiny.c ****     en_oc_mqtt_daemon_cmd   cmd;       ///< this is the command
 198:D:/fchai/work/i-cube/I-CUBE-HUAWEI/Middlewares/Third_Party/Huawei/iot_link/oc/oc_mqtt/oc_mqtt_tiny_v5\oc_mqtt_tiny.c ****     void                   *arg;       ///< this is used for the argument
 199:D:/fchai/work/i-cube/I-CUBE-HUAWEI/Middlewares/Third_Party/Huawei/iot_link/oc/oc_mqtt/oc_mqtt_tiny_v5\oc_mqtt_tiny.c ****     osal_semp_t             signal;    ///< when done the command, please light this signal
 200:D:/fchai/work/i-cube/I-CUBE-HUAWEI/Middlewares/Third_Party/Huawei/iot_link/oc/oc_mqtt/oc_mqtt_tiny_v5\oc_mqtt_tiny.c ****     int                     retcode;   ///< this is the operation code for the command
ARM GAS  T:\msys\tmp\ccOGKCS9.s 			page 5


 201:D:/fchai/work/i-cube/I-CUBE-HUAWEI/Middlewares/Third_Party/Huawei/iot_link/oc/oc_mqtt/oc_mqtt_tiny_v5\oc_mqtt_tiny.c **** }oc_mqtt_daemon_cmd_t;                 ///< use this to do the command for the api
 202:D:/fchai/work/i-cube/I-CUBE-HUAWEI/Middlewares/Third_Party/Huawei/iot_link/oc/oc_mqtt/oc_mqtt_tiny_v5\oc_mqtt_tiny.c **** 
 203:D:/fchai/work/i-cube/I-CUBE-HUAWEI/Middlewares/Third_Party/Huawei/iot_link/oc/oc_mqtt/oc_mqtt_tiny_v5\oc_mqtt_tiny.c **** 
 204:D:/fchai/work/i-cube/I-CUBE-HUAWEI/Middlewares/Third_Party/Huawei/iot_link/oc/oc_mqtt/oc_mqtt_tiny_v5\oc_mqtt_tiny.c **** ///< here we implement the hub and bootstrap server command dealer
 205:D:/fchai/work/i-cube/I-CUBE-HUAWEI/Middlewares/Third_Party/Huawei/iot_link/oc/oc_mqtt/oc_mqtt_tiny_v5\oc_mqtt_tiny.c **** ///< the bs not debug yet
 206:D:/fchai/work/i-cube/I-CUBE-HUAWEI/Middlewares/Third_Party/Huawei/iot_link/oc/oc_mqtt/oc_mqtt_tiny_v5\oc_mqtt_tiny.c **** static void hub_msg_default_deal(void *arg,mqtt_al_msgrcv_t  *msg)
 207:D:/fchai/work/i-cube/I-CUBE-HUAWEI/Middlewares/Third_Party/Huawei/iot_link/oc/oc_mqtt/oc_mqtt_tiny_v5\oc_mqtt_tiny.c **** {
 208:D:/fchai/work/i-cube/I-CUBE-HUAWEI/Middlewares/Third_Party/Huawei/iot_link/oc/oc_mqtt/oc_mqtt_tiny_v5\oc_mqtt_tiny.c ****     ///< we pass this message to the client, and let the client to deal with
 209:D:/fchai/work/i-cube/I-CUBE-HUAWEI/Middlewares/Third_Party/Huawei/iot_link/oc/oc_mqtt/oc_mqtt_tiny_v5\oc_mqtt_tiny.c ****     if ((msg != NULL) && ( msg->msg.data != NULL) &&(msg->msg.len > 0 ) \
 210:D:/fchai/work/i-cube/I-CUBE-HUAWEI/Middlewares/Third_Party/Huawei/iot_link/oc/oc_mqtt/oc_mqtt_tiny_v5\oc_mqtt_tiny.c ****         &&(NULL != s_oc_mqtt_tiny_cb->config.msg_deal))
 211:D:/fchai/work/i-cube/I-CUBE-HUAWEI/Middlewares/Third_Party/Huawei/iot_link/oc/oc_mqtt/oc_mqtt_tiny_v5\oc_mqtt_tiny.c ****     {
 212:D:/fchai/work/i-cube/I-CUBE-HUAWEI/Middlewares/Third_Party/Huawei/iot_link/oc/oc_mqtt/oc_mqtt_tiny_v5\oc_mqtt_tiny.c ****         s_oc_mqtt_tiny_cb->config.msg_deal(s_oc_mqtt_tiny_cb->config.msg_deal_arg,msg);
 213:D:/fchai/work/i-cube/I-CUBE-HUAWEI/Middlewares/Third_Party/Huawei/iot_link/oc/oc_mqtt/oc_mqtt_tiny_v5\oc_mqtt_tiny.c ****     }
 214:D:/fchai/work/i-cube/I-CUBE-HUAWEI/Middlewares/Third_Party/Huawei/iot_link/oc/oc_mqtt/oc_mqtt_tiny_v5\oc_mqtt_tiny.c ****     return;
 215:D:/fchai/work/i-cube/I-CUBE-HUAWEI/Middlewares/Third_Party/Huawei/iot_link/oc/oc_mqtt/oc_mqtt_tiny_v5\oc_mqtt_tiny.c **** }
 216:D:/fchai/work/i-cube/I-CUBE-HUAWEI/Middlewares/Third_Party/Huawei/iot_link/oc/oc_mqtt/oc_mqtt_tiny_v5\oc_mqtt_tiny.c **** 
 217:D:/fchai/work/i-cube/I-CUBE-HUAWEI/Middlewares/Third_Party/Huawei/iot_link/oc/oc_mqtt/oc_mqtt_tiny_v5\oc_mqtt_tiny.c **** ///< deal the bootstrap server messages
 218:D:/fchai/work/i-cube/I-CUBE-HUAWEI/Middlewares/Third_Party/Huawei/iot_link/oc/oc_mqtt/oc_mqtt_tiny_v5\oc_mqtt_tiny.c **** static void bs_msg_default_deal(void *arg,mqtt_al_msgrcv_t *msg)
 219:D:/fchai/work/i-cube/I-CUBE-HUAWEI/Middlewares/Third_Party/Huawei/iot_link/oc/oc_mqtt/oc_mqtt_tiny_v5\oc_mqtt_tiny.c **** {
 220:D:/fchai/work/i-cube/I-CUBE-HUAWEI/Middlewares/Third_Party/Huawei/iot_link/oc/oc_mqtt/oc_mqtt_tiny_v5\oc_mqtt_tiny.c ****    cJSON  *root = NULL;
 221:D:/fchai/work/i-cube/I-CUBE-HUAWEI/Middlewares/Third_Party/Huawei/iot_link/oc/oc_mqtt/oc_mqtt_tiny_v5\oc_mqtt_tiny.c ****    cJSON  *addr_item = NULL;
 222:D:/fchai/work/i-cube/I-CUBE-HUAWEI/Middlewares/Third_Party/Huawei/iot_link/oc/oc_mqtt/oc_mqtt_tiny_v5\oc_mqtt_tiny.c ****    char   *port = NULL;
 223:D:/fchai/work/i-cube/I-CUBE-HUAWEI/Middlewares/Third_Party/Huawei/iot_link/oc/oc_mqtt/oc_mqtt_tiny_v5\oc_mqtt_tiny.c ****    char   *server = NULL;
 224:D:/fchai/work/i-cube/I-CUBE-HUAWEI/Middlewares/Third_Party/Huawei/iot_link/oc/oc_mqtt/oc_mqtt_tiny_v5\oc_mqtt_tiny.c **** 
 225:D:/fchai/work/i-cube/I-CUBE-HUAWEI/Middlewares/Third_Party/Huawei/iot_link/oc/oc_mqtt/oc_mqtt_tiny_v5\oc_mqtt_tiny.c ****    char   *json_buf;
 226:D:/fchai/work/i-cube/I-CUBE-HUAWEI/Middlewares/Third_Party/Huawei/iot_link/oc/oc_mqtt/oc_mqtt_tiny_v5\oc_mqtt_tiny.c **** 
 227:D:/fchai/work/i-cube/I-CUBE-HUAWEI/Middlewares/Third_Party/Huawei/iot_link/oc/oc_mqtt/oc_mqtt_tiny_v5\oc_mqtt_tiny.c ****    LINK_LOG_DEBUG("bs topic:%s qos:%d",msg->topic.data,(int)msg->qos);
 228:D:/fchai/work/i-cube/I-CUBE-HUAWEI/Middlewares/Third_Party/Huawei/iot_link/oc/oc_mqtt/oc_mqtt_tiny_v5\oc_mqtt_tiny.c **** 
 229:D:/fchai/work/i-cube/I-CUBE-HUAWEI/Middlewares/Third_Party/Huawei/iot_link/oc/oc_mqtt/oc_mqtt_tiny_v5\oc_mqtt_tiny.c ****    json_buf = osal_malloc(msg->msg.len + 1);
 230:D:/fchai/work/i-cube/I-CUBE-HUAWEI/Middlewares/Third_Party/Huawei/iot_link/oc/oc_mqtt/oc_mqtt_tiny_v5\oc_mqtt_tiny.c ****    if(NULL == json_buf)
 231:D:/fchai/work/i-cube/I-CUBE-HUAWEI/Middlewares/Third_Party/Huawei/iot_link/oc/oc_mqtt/oc_mqtt_tiny_v5\oc_mqtt_tiny.c ****    {
 232:D:/fchai/work/i-cube/I-CUBE-HUAWEI/Middlewares/Third_Party/Huawei/iot_link/oc/oc_mqtt/oc_mqtt_tiny_v5\oc_mqtt_tiny.c ****        return;
 233:D:/fchai/work/i-cube/I-CUBE-HUAWEI/Middlewares/Third_Party/Huawei/iot_link/oc/oc_mqtt/oc_mqtt_tiny_v5\oc_mqtt_tiny.c ****    }
 234:D:/fchai/work/i-cube/I-CUBE-HUAWEI/Middlewares/Third_Party/Huawei/iot_link/oc/oc_mqtt/oc_mqtt_tiny_v5\oc_mqtt_tiny.c **** 
 235:D:/fchai/work/i-cube/I-CUBE-HUAWEI/Middlewares/Third_Party/Huawei/iot_link/oc/oc_mqtt/oc_mqtt_tiny_v5\oc_mqtt_tiny.c ****    (void) memcpy(json_buf,msg->msg.data,msg->msg.len);
 236:D:/fchai/work/i-cube/I-CUBE-HUAWEI/Middlewares/Third_Party/Huawei/iot_link/oc/oc_mqtt/oc_mqtt_tiny_v5\oc_mqtt_tiny.c ****    json_buf[msg->msg.len] = '\0';
 237:D:/fchai/work/i-cube/I-CUBE-HUAWEI/Middlewares/Third_Party/Huawei/iot_link/oc/oc_mqtt/oc_mqtt_tiny_v5\oc_mqtt_tiny.c **** 
 238:D:/fchai/work/i-cube/I-CUBE-HUAWEI/Middlewares/Third_Party/Huawei/iot_link/oc/oc_mqtt/oc_mqtt_tiny_v5\oc_mqtt_tiny.c ****    LINK_LOG_DEBUG("msg:%s",json_buf);
 239:D:/fchai/work/i-cube/I-CUBE-HUAWEI/Middlewares/Third_Party/Huawei/iot_link/oc/oc_mqtt/oc_mqtt_tiny_v5\oc_mqtt_tiny.c ****    root = cJSON_Parse(json_buf);
 240:D:/fchai/work/i-cube/I-CUBE-HUAWEI/Middlewares/Third_Party/Huawei/iot_link/oc/oc_mqtt/oc_mqtt_tiny_v5\oc_mqtt_tiny.c ****    if(NULL != root)
 241:D:/fchai/work/i-cube/I-CUBE-HUAWEI/Middlewares/Third_Party/Huawei/iot_link/oc/oc_mqtt/oc_mqtt_tiny_v5\oc_mqtt_tiny.c ****    {
 242:D:/fchai/work/i-cube/I-CUBE-HUAWEI/Middlewares/Third_Party/Huawei/iot_link/oc/oc_mqtt/oc_mqtt_tiny_v5\oc_mqtt_tiny.c ****        addr_item = cJSON_GetObjectItem(root,"address");
 243:D:/fchai/work/i-cube/I-CUBE-HUAWEI/Middlewares/Third_Party/Huawei/iot_link/oc/oc_mqtt/oc_mqtt_tiny_v5\oc_mqtt_tiny.c ****        if(NULL != addr_item)
 244:D:/fchai/work/i-cube/I-CUBE-HUAWEI/Middlewares/Third_Party/Huawei/iot_link/oc/oc_mqtt/oc_mqtt_tiny_v5\oc_mqtt_tiny.c ****        {
 245:D:/fchai/work/i-cube/I-CUBE-HUAWEI/Middlewares/Third_Party/Huawei/iot_link/oc/oc_mqtt/oc_mqtt_tiny_v5\oc_mqtt_tiny.c ****            LINK_LOG_DEBUG("address:%s", addr_item->valuestring);
 246:D:/fchai/work/i-cube/I-CUBE-HUAWEI/Middlewares/Third_Party/Huawei/iot_link/oc/oc_mqtt/oc_mqtt_tiny_v5\oc_mqtt_tiny.c ****            port = strrchr(addr_item->valuestring, ':');
 247:D:/fchai/work/i-cube/I-CUBE-HUAWEI/Middlewares/Third_Party/Huawei/iot_link/oc/oc_mqtt/oc_mqtt_tiny_v5\oc_mqtt_tiny.c ****            if(NULL != port)
 248:D:/fchai/work/i-cube/I-CUBE-HUAWEI/Middlewares/Third_Party/Huawei/iot_link/oc/oc_mqtt/oc_mqtt_tiny_v5\oc_mqtt_tiny.c ****            {
 249:D:/fchai/work/i-cube/I-CUBE-HUAWEI/Middlewares/Third_Party/Huawei/iot_link/oc/oc_mqtt/oc_mqtt_tiny_v5\oc_mqtt_tiny.c ****                server = addr_item->valuestring;
 250:D:/fchai/work/i-cube/I-CUBE-HUAWEI/Middlewares/Third_Party/Huawei/iot_link/oc/oc_mqtt/oc_mqtt_tiny_v5\oc_mqtt_tiny.c ****                *port = '\0';
 251:D:/fchai/work/i-cube/I-CUBE-HUAWEI/Middlewares/Third_Party/Huawei/iot_link/oc/oc_mqtt/oc_mqtt_tiny_v5\oc_mqtt_tiny.c ****                port++;
 252:D:/fchai/work/i-cube/I-CUBE-HUAWEI/Middlewares/Third_Party/Huawei/iot_link/oc/oc_mqtt/oc_mqtt_tiny_v5\oc_mqtt_tiny.c ****                osal_free(s_oc_mqtt_tiny_cb->bs_cb.hubserver_addr);
 253:D:/fchai/work/i-cube/I-CUBE-HUAWEI/Middlewares/Third_Party/Huawei/iot_link/oc/oc_mqtt/oc_mqtt_tiny_v5\oc_mqtt_tiny.c ****                osal_free(s_oc_mqtt_tiny_cb->bs_cb.hubserver_port);
 254:D:/fchai/work/i-cube/I-CUBE-HUAWEI/Middlewares/Third_Party/Huawei/iot_link/oc/oc_mqtt/oc_mqtt_tiny_v5\oc_mqtt_tiny.c **** 
 255:D:/fchai/work/i-cube/I-CUBE-HUAWEI/Middlewares/Third_Party/Huawei/iot_link/oc/oc_mqtt/oc_mqtt_tiny_v5\oc_mqtt_tiny.c ****                s_oc_mqtt_tiny_cb->bs_cb.hubserver_addr = osal_strdup(server);
 256:D:/fchai/work/i-cube/I-CUBE-HUAWEI/Middlewares/Third_Party/Huawei/iot_link/oc/oc_mqtt/oc_mqtt_tiny_v5\oc_mqtt_tiny.c ****                s_oc_mqtt_tiny_cb->bs_cb.hubserver_port = osal_strdup(port);
 257:D:/fchai/work/i-cube/I-CUBE-HUAWEI/Middlewares/Third_Party/Huawei/iot_link/oc/oc_mqtt/oc_mqtt_tiny_v5\oc_mqtt_tiny.c **** 
ARM GAS  T:\msys\tmp\ccOGKCS9.s 			page 6


 258:D:/fchai/work/i-cube/I-CUBE-HUAWEI/Middlewares/Third_Party/Huawei/iot_link/oc/oc_mqtt/oc_mqtt_tiny_v5\oc_mqtt_tiny.c ****                if((NULL != s_oc_mqtt_tiny_cb->bs_cb.hubserver_addr) && \
 259:D:/fchai/work/i-cube/I-CUBE-HUAWEI/Middlewares/Third_Party/Huawei/iot_link/oc/oc_mqtt/oc_mqtt_tiny_v5\oc_mqtt_tiny.c ****                        (NULL != s_oc_mqtt_tiny_cb->bs_cb.hubserver_port))
 260:D:/fchai/work/i-cube/I-CUBE-HUAWEI/Middlewares/Third_Party/Huawei/iot_link/oc/oc_mqtt/oc_mqtt_tiny_v5\oc_mqtt_tiny.c ****                {
 261:D:/fchai/work/i-cube/I-CUBE-HUAWEI/Middlewares/Third_Party/Huawei/iot_link/oc/oc_mqtt/oc_mqtt_tiny_v5\oc_mqtt_tiny.c ****                    s_oc_mqtt_tiny_cb->flag.bits.bit_get_hubaddr =1;
 262:D:/fchai/work/i-cube/I-CUBE-HUAWEI/Middlewares/Third_Party/Huawei/iot_link/oc/oc_mqtt/oc_mqtt_tiny_v5\oc_mqtt_tiny.c ****                }
 263:D:/fchai/work/i-cube/I-CUBE-HUAWEI/Middlewares/Third_Party/Huawei/iot_link/oc/oc_mqtt/oc_mqtt_tiny_v5\oc_mqtt_tiny.c **** 
 264:D:/fchai/work/i-cube/I-CUBE-HUAWEI/Middlewares/Third_Party/Huawei/iot_link/oc/oc_mqtt/oc_mqtt_tiny_v5\oc_mqtt_tiny.c ****            }
 265:D:/fchai/work/i-cube/I-CUBE-HUAWEI/Middlewares/Third_Party/Huawei/iot_link/oc/oc_mqtt/oc_mqtt_tiny_v5\oc_mqtt_tiny.c ****        }
 266:D:/fchai/work/i-cube/I-CUBE-HUAWEI/Middlewares/Third_Party/Huawei/iot_link/oc/oc_mqtt/oc_mqtt_tiny_v5\oc_mqtt_tiny.c ****        cJSON_Delete(root);
 267:D:/fchai/work/i-cube/I-CUBE-HUAWEI/Middlewares/Third_Party/Huawei/iot_link/oc/oc_mqtt/oc_mqtt_tiny_v5\oc_mqtt_tiny.c ****    }
 268:D:/fchai/work/i-cube/I-CUBE-HUAWEI/Middlewares/Third_Party/Huawei/iot_link/oc/oc_mqtt/oc_mqtt_tiny_v5\oc_mqtt_tiny.c ****    osal_free(json_buf);
 269:D:/fchai/work/i-cube/I-CUBE-HUAWEI/Middlewares/Third_Party/Huawei/iot_link/oc/oc_mqtt/oc_mqtt_tiny_v5\oc_mqtt_tiny.c ****    ///<any way, we still pass this message to the client and let the client known this message
 270:D:/fchai/work/i-cube/I-CUBE-HUAWEI/Middlewares/Third_Party/Huawei/iot_link/oc/oc_mqtt/oc_mqtt_tiny_v5\oc_mqtt_tiny.c ****    if ((msg != NULL) && ( msg->msg.data != NULL) &&(msg->msg.len > 0 ) \
 271:D:/fchai/work/i-cube/I-CUBE-HUAWEI/Middlewares/Third_Party/Huawei/iot_link/oc/oc_mqtt/oc_mqtt_tiny_v5\oc_mqtt_tiny.c ****        &&(NULL != s_oc_mqtt_tiny_cb->config.msg_deal))
 272:D:/fchai/work/i-cube/I-CUBE-HUAWEI/Middlewares/Third_Party/Huawei/iot_link/oc/oc_mqtt/oc_mqtt_tiny_v5\oc_mqtt_tiny.c ****    {
 273:D:/fchai/work/i-cube/I-CUBE-HUAWEI/Middlewares/Third_Party/Huawei/iot_link/oc/oc_mqtt/oc_mqtt_tiny_v5\oc_mqtt_tiny.c ****        s_oc_mqtt_tiny_cb->config.msg_deal(s_oc_mqtt_tiny_cb->config.msg_deal_arg,msg);
 274:D:/fchai/work/i-cube/I-CUBE-HUAWEI/Middlewares/Third_Party/Huawei/iot_link/oc/oc_mqtt/oc_mqtt_tiny_v5\oc_mqtt_tiny.c ****    }
 275:D:/fchai/work/i-cube/I-CUBE-HUAWEI/Middlewares/Third_Party/Huawei/iot_link/oc/oc_mqtt/oc_mqtt_tiny_v5\oc_mqtt_tiny.c ****    return;
 276:D:/fchai/work/i-cube/I-CUBE-HUAWEI/Middlewares/Third_Party/Huawei/iot_link/oc/oc_mqtt/oc_mqtt_tiny_v5\oc_mqtt_tiny.c **** }
 277:D:/fchai/work/i-cube/I-CUBE-HUAWEI/Middlewares/Third_Party/Huawei/iot_link/oc/oc_mqtt/oc_mqtt_tiny_v5\oc_mqtt_tiny.c **** 
 278:D:/fchai/work/i-cube/I-CUBE-HUAWEI/Middlewares/Third_Party/Huawei/iot_link/oc/oc_mqtt/oc_mqtt_tiny_v5\oc_mqtt_tiny.c **** static char *topic_fmt(const char *fmt, const char *id)
 279:D:/fchai/work/i-cube/I-CUBE-HUAWEI/Middlewares/Third_Party/Huawei/iot_link/oc/oc_mqtt/oc_mqtt_tiny_v5\oc_mqtt_tiny.c **** {
 280:D:/fchai/work/i-cube/I-CUBE-HUAWEI/Middlewares/Third_Party/Huawei/iot_link/oc/oc_mqtt/oc_mqtt_tiny_v5\oc_mqtt_tiny.c ****     char *ret = NULL;
 281:D:/fchai/work/i-cube/I-CUBE-HUAWEI/Middlewares/Third_Party/Huawei/iot_link/oc/oc_mqtt/oc_mqtt_tiny_v5\oc_mqtt_tiny.c ****     int len =  0;
 282:D:/fchai/work/i-cube/I-CUBE-HUAWEI/Middlewares/Third_Party/Huawei/iot_link/oc/oc_mqtt/oc_mqtt_tiny_v5\oc_mqtt_tiny.c **** 
 283:D:/fchai/work/i-cube/I-CUBE-HUAWEI/Middlewares/Third_Party/Huawei/iot_link/oc/oc_mqtt/oc_mqtt_tiny_v5\oc_mqtt_tiny.c ****     len = strlen(fmt) + strlen(id) + 1;
 284:D:/fchai/work/i-cube/I-CUBE-HUAWEI/Middlewares/Third_Party/Huawei/iot_link/oc/oc_mqtt/oc_mqtt_tiny_v5\oc_mqtt_tiny.c **** 
 285:D:/fchai/work/i-cube/I-CUBE-HUAWEI/Middlewares/Third_Party/Huawei/iot_link/oc/oc_mqtt/oc_mqtt_tiny_v5\oc_mqtt_tiny.c ****     ret = osal_malloc(len);
 286:D:/fchai/work/i-cube/I-CUBE-HUAWEI/Middlewares/Third_Party/Huawei/iot_link/oc/oc_mqtt/oc_mqtt_tiny_v5\oc_mqtt_tiny.c ****     if(NULL != ret)
 287:D:/fchai/work/i-cube/I-CUBE-HUAWEI/Middlewares/Third_Party/Huawei/iot_link/oc/oc_mqtt/oc_mqtt_tiny_v5\oc_mqtt_tiny.c ****     {
 288:D:/fchai/work/i-cube/I-CUBE-HUAWEI/Middlewares/Third_Party/Huawei/iot_link/oc/oc_mqtt/oc_mqtt_tiny_v5\oc_mqtt_tiny.c ****         (void) snprintf(ret,len,fmt,id);
 289:D:/fchai/work/i-cube/I-CUBE-HUAWEI/Middlewares/Third_Party/Huawei/iot_link/oc/oc_mqtt/oc_mqtt_tiny_v5\oc_mqtt_tiny.c ****     }
 290:D:/fchai/work/i-cube/I-CUBE-HUAWEI/Middlewares/Third_Party/Huawei/iot_link/oc/oc_mqtt/oc_mqtt_tiny_v5\oc_mqtt_tiny.c **** 
 291:D:/fchai/work/i-cube/I-CUBE-HUAWEI/Middlewares/Third_Party/Huawei/iot_link/oc/oc_mqtt/oc_mqtt_tiny_v5\oc_mqtt_tiny.c ****     return ret;
 292:D:/fchai/work/i-cube/I-CUBE-HUAWEI/Middlewares/Third_Party/Huawei/iot_link/oc/oc_mqtt/oc_mqtt_tiny_v5\oc_mqtt_tiny.c **** }
 293:D:/fchai/work/i-cube/I-CUBE-HUAWEI/Middlewares/Third_Party/Huawei/iot_link/oc/oc_mqtt/oc_mqtt_tiny_v5\oc_mqtt_tiny.c **** 
 294:D:/fchai/work/i-cube/I-CUBE-HUAWEI/Middlewares/Third_Party/Huawei/iot_link/oc/oc_mqtt/oc_mqtt_tiny_v5\oc_mqtt_tiny.c **** static char *clientid_fmt(const char *id, const char *salt_time,const char *scopeid, int group_mode
 295:D:/fchai/work/i-cube/I-CUBE-HUAWEI/Middlewares/Third_Party/Huawei/iot_link/oc/oc_mqtt/oc_mqtt_tiny_v5\oc_mqtt_tiny.c **** {
 296:D:/fchai/work/i-cube/I-CUBE-HUAWEI/Middlewares/Third_Party/Huawei/iot_link/oc/oc_mqtt/oc_mqtt_tiny_v5\oc_mqtt_tiny.c ****     char *ret = NULL;
 297:D:/fchai/work/i-cube/I-CUBE-HUAWEI/Middlewares/Third_Party/Huawei/iot_link/oc/oc_mqtt/oc_mqtt_tiny_v5\oc_mqtt_tiny.c ****     int len =  0;
 298:D:/fchai/work/i-cube/I-CUBE-HUAWEI/Middlewares/Third_Party/Huawei/iot_link/oc/oc_mqtt/oc_mqtt_tiny_v5\oc_mqtt_tiny.c ****     const char *fmt;
 299:D:/fchai/work/i-cube/I-CUBE-HUAWEI/Middlewares/Third_Party/Huawei/iot_link/oc/oc_mqtt/oc_mqtt_tiny_v5\oc_mqtt_tiny.c ****     const char *param;
 300:D:/fchai/work/i-cube/I-CUBE-HUAWEI/Middlewares/Third_Party/Huawei/iot_link/oc/oc_mqtt/oc_mqtt_tiny_v5\oc_mqtt_tiny.c **** 
 301:D:/fchai/work/i-cube/I-CUBE-HUAWEI/Middlewares/Third_Party/Huawei/iot_link/oc/oc_mqtt/oc_mqtt_tiny_v5\oc_mqtt_tiny.c ****     if(group_mode)
 302:D:/fchai/work/i-cube/I-CUBE-HUAWEI/Middlewares/Third_Party/Huawei/iot_link/oc/oc_mqtt/oc_mqtt_tiny_v5\oc_mqtt_tiny.c ****     {
 303:D:/fchai/work/i-cube/I-CUBE-HUAWEI/Middlewares/Third_Party/Huawei/iot_link/oc/oc_mqtt/oc_mqtt_tiny_v5\oc_mqtt_tiny.c ****         fmt = CN_CLIENT_ID_FMTGROUP;
 304:D:/fchai/work/i-cube/I-CUBE-HUAWEI/Middlewares/Third_Party/Huawei/iot_link/oc/oc_mqtt/oc_mqtt_tiny_v5\oc_mqtt_tiny.c ****         param = scopeid;
 305:D:/fchai/work/i-cube/I-CUBE-HUAWEI/Middlewares/Third_Party/Huawei/iot_link/oc/oc_mqtt/oc_mqtt_tiny_v5\oc_mqtt_tiny.c ****     }
 306:D:/fchai/work/i-cube/I-CUBE-HUAWEI/Middlewares/Third_Party/Huawei/iot_link/oc/oc_mqtt/oc_mqtt_tiny_v5\oc_mqtt_tiny.c ****     else
 307:D:/fchai/work/i-cube/I-CUBE-HUAWEI/Middlewares/Third_Party/Huawei/iot_link/oc/oc_mqtt/oc_mqtt_tiny_v5\oc_mqtt_tiny.c ****     {
 308:D:/fchai/work/i-cube/I-CUBE-HUAWEI/Middlewares/Third_Party/Huawei/iot_link/oc/oc_mqtt/oc_mqtt_tiny_v5\oc_mqtt_tiny.c ****         fmt = CN_CLIENT_ID_FMTNORMAL;
 309:D:/fchai/work/i-cube/I-CUBE-HUAWEI/Middlewares/Third_Party/Huawei/iot_link/oc/oc_mqtt/oc_mqtt_tiny_v5\oc_mqtt_tiny.c ****         param = salt_time;
 310:D:/fchai/work/i-cube/I-CUBE-HUAWEI/Middlewares/Third_Party/Huawei/iot_link/oc/oc_mqtt/oc_mqtt_tiny_v5\oc_mqtt_tiny.c ****     }
 311:D:/fchai/work/i-cube/I-CUBE-HUAWEI/Middlewares/Third_Party/Huawei/iot_link/oc/oc_mqtt/oc_mqtt_tiny_v5\oc_mqtt_tiny.c **** 
 312:D:/fchai/work/i-cube/I-CUBE-HUAWEI/Middlewares/Third_Party/Huawei/iot_link/oc/oc_mqtt/oc_mqtt_tiny_v5\oc_mqtt_tiny.c ****     len = strlen(fmt) + strlen(id) + strlen(param) + 1;
 313:D:/fchai/work/i-cube/I-CUBE-HUAWEI/Middlewares/Third_Party/Huawei/iot_link/oc/oc_mqtt/oc_mqtt_tiny_v5\oc_mqtt_tiny.c ****     ret = osal_malloc(len);
 314:D:/fchai/work/i-cube/I-CUBE-HUAWEI/Middlewares/Third_Party/Huawei/iot_link/oc/oc_mqtt/oc_mqtt_tiny_v5\oc_mqtt_tiny.c ****     if(NULL != ret)
ARM GAS  T:\msys\tmp\ccOGKCS9.s 			page 7


 315:D:/fchai/work/i-cube/I-CUBE-HUAWEI/Middlewares/Third_Party/Huawei/iot_link/oc/oc_mqtt/oc_mqtt_tiny_v5\oc_mqtt_tiny.c ****     {
 316:D:/fchai/work/i-cube/I-CUBE-HUAWEI/Middlewares/Third_Party/Huawei/iot_link/oc/oc_mqtt/oc_mqtt_tiny_v5\oc_mqtt_tiny.c ****         (void) snprintf(ret,len,fmt,id,param);
 317:D:/fchai/work/i-cube/I-CUBE-HUAWEI/Middlewares/Third_Party/Huawei/iot_link/oc/oc_mqtt/oc_mqtt_tiny_v5\oc_mqtt_tiny.c ****     }
 318:D:/fchai/work/i-cube/I-CUBE-HUAWEI/Middlewares/Third_Party/Huawei/iot_link/oc/oc_mqtt/oc_mqtt_tiny_v5\oc_mqtt_tiny.c ****     return ret;
 319:D:/fchai/work/i-cube/I-CUBE-HUAWEI/Middlewares/Third_Party/Huawei/iot_link/oc/oc_mqtt/oc_mqtt_tiny_v5\oc_mqtt_tiny.c **** }
 320:D:/fchai/work/i-cube/I-CUBE-HUAWEI/Middlewares/Third_Party/Huawei/iot_link/oc/oc_mqtt/oc_mqtt_tiny_v5\oc_mqtt_tiny.c **** 
 321:D:/fchai/work/i-cube/I-CUBE-HUAWEI/Middlewares/Third_Party/Huawei/iot_link/oc/oc_mqtt/oc_mqtt_tiny_v5\oc_mqtt_tiny.c **** ///< return the command code for the operation
 322:D:/fchai/work/i-cube/I-CUBE-HUAWEI/Middlewares/Third_Party/Huawei/iot_link/oc/oc_mqtt/oc_mqtt_tiny_v5\oc_mqtt_tiny.c **** static int daemon_cmd_post(en_oc_mqtt_daemon_cmd cmd, void *arg)
 323:D:/fchai/work/i-cube/I-CUBE-HUAWEI/Middlewares/Third_Party/Huawei/iot_link/oc/oc_mqtt/oc_mqtt_tiny_v5\oc_mqtt_tiny.c **** {
 324:D:/fchai/work/i-cube/I-CUBE-HUAWEI/Middlewares/Third_Party/Huawei/iot_link/oc/oc_mqtt/oc_mqtt_tiny_v5\oc_mqtt_tiny.c ****     int ret = (int)en_oc_mqtt_err_system;
 325:D:/fchai/work/i-cube/I-CUBE-HUAWEI/Middlewares/Third_Party/Huawei/iot_link/oc/oc_mqtt/oc_mqtt_tiny_v5\oc_mqtt_tiny.c ****     oc_mqtt_daemon_cmd_t *daemon_cmd;
 326:D:/fchai/work/i-cube/I-CUBE-HUAWEI/Middlewares/Third_Party/Huawei/iot_link/oc/oc_mqtt/oc_mqtt_tiny_v5\oc_mqtt_tiny.c **** 
 327:D:/fchai/work/i-cube/I-CUBE-HUAWEI/Middlewares/Third_Party/Huawei/iot_link/oc/oc_mqtt/oc_mqtt_tiny_v5\oc_mqtt_tiny.c ****     daemon_cmd = osal_malloc(sizeof(oc_mqtt_daemon_cmd_t));
 328:D:/fchai/work/i-cube/I-CUBE-HUAWEI/Middlewares/Third_Party/Huawei/iot_link/oc/oc_mqtt/oc_mqtt_tiny_v5\oc_mqtt_tiny.c ****     if(NULL != daemon_cmd)
 329:D:/fchai/work/i-cube/I-CUBE-HUAWEI/Middlewares/Third_Party/Huawei/iot_link/oc/oc_mqtt/oc_mqtt_tiny_v5\oc_mqtt_tiny.c ****     {
 330:D:/fchai/work/i-cube/I-CUBE-HUAWEI/Middlewares/Third_Party/Huawei/iot_link/oc/oc_mqtt/oc_mqtt_tiny_v5\oc_mqtt_tiny.c ****         daemon_cmd->cmd = cmd;
 331:D:/fchai/work/i-cube/I-CUBE-HUAWEI/Middlewares/Third_Party/Huawei/iot_link/oc/oc_mqtt/oc_mqtt_tiny_v5\oc_mqtt_tiny.c ****         daemon_cmd->arg = arg;
 332:D:/fchai/work/i-cube/I-CUBE-HUAWEI/Middlewares/Third_Party/Huawei/iot_link/oc/oc_mqtt/oc_mqtt_tiny_v5\oc_mqtt_tiny.c ****         daemon_cmd->retcode = ret;
 333:D:/fchai/work/i-cube/I-CUBE-HUAWEI/Middlewares/Third_Party/Huawei/iot_link/oc/oc_mqtt/oc_mqtt_tiny_v5\oc_mqtt_tiny.c ****         if(true == osal_semp_create(&daemon_cmd->signal,1,0))
 334:D:/fchai/work/i-cube/I-CUBE-HUAWEI/Middlewares/Third_Party/Huawei/iot_link/oc/oc_mqtt/oc_mqtt_tiny_v5\oc_mqtt_tiny.c ****         {
 335:D:/fchai/work/i-cube/I-CUBE-HUAWEI/Middlewares/Third_Party/Huawei/iot_link/oc/oc_mqtt/oc_mqtt_tiny_v5\oc_mqtt_tiny.c ****             if(0 == queue_push(s_oc_mqtt_tiny_cb->task_daemon_cmd_queue,daemon_cmd,10))
 336:D:/fchai/work/i-cube/I-CUBE-HUAWEI/Middlewares/Third_Party/Huawei/iot_link/oc/oc_mqtt/oc_mqtt_tiny_v5\oc_mqtt_tiny.c ****             {
 337:D:/fchai/work/i-cube/I-CUBE-HUAWEI/Middlewares/Third_Party/Huawei/iot_link/oc/oc_mqtt/oc_mqtt_tiny_v5\oc_mqtt_tiny.c ****                 (void)osal_semp_pend(daemon_cmd->signal,cn_osal_timeout_forever);
 338:D:/fchai/work/i-cube/I-CUBE-HUAWEI/Middlewares/Third_Party/Huawei/iot_link/oc/oc_mqtt/oc_mqtt_tiny_v5\oc_mqtt_tiny.c ****                 ret = daemon_cmd->retcode;
 339:D:/fchai/work/i-cube/I-CUBE-HUAWEI/Middlewares/Third_Party/Huawei/iot_link/oc/oc_mqtt/oc_mqtt_tiny_v5\oc_mqtt_tiny.c ****             }
 340:D:/fchai/work/i-cube/I-CUBE-HUAWEI/Middlewares/Third_Party/Huawei/iot_link/oc/oc_mqtt/oc_mqtt_tiny_v5\oc_mqtt_tiny.c ****             (void) osal_semp_del(daemon_cmd->signal);
 341:D:/fchai/work/i-cube/I-CUBE-HUAWEI/Middlewares/Third_Party/Huawei/iot_link/oc/oc_mqtt/oc_mqtt_tiny_v5\oc_mqtt_tiny.c ****         }
 342:D:/fchai/work/i-cube/I-CUBE-HUAWEI/Middlewares/Third_Party/Huawei/iot_link/oc/oc_mqtt/oc_mqtt_tiny_v5\oc_mqtt_tiny.c ****         osal_free(daemon_cmd);
 343:D:/fchai/work/i-cube/I-CUBE-HUAWEI/Middlewares/Third_Party/Huawei/iot_link/oc/oc_mqtt/oc_mqtt_tiny_v5\oc_mqtt_tiny.c ****     }
 344:D:/fchai/work/i-cube/I-CUBE-HUAWEI/Middlewares/Third_Party/Huawei/iot_link/oc/oc_mqtt/oc_mqtt_tiny_v5\oc_mqtt_tiny.c **** 
 345:D:/fchai/work/i-cube/I-CUBE-HUAWEI/Middlewares/Third_Party/Huawei/iot_link/oc/oc_mqtt/oc_mqtt_tiny_v5\oc_mqtt_tiny.c ****     return ret;
 346:D:/fchai/work/i-cube/I-CUBE-HUAWEI/Middlewares/Third_Party/Huawei/iot_link/oc/oc_mqtt/oc_mqtt_tiny_v5\oc_mqtt_tiny.c **** }
 347:D:/fchai/work/i-cube/I-CUBE-HUAWEI/Middlewares/Third_Party/Huawei/iot_link/oc/oc_mqtt/oc_mqtt_tiny_v5\oc_mqtt_tiny.c **** 
 348:D:/fchai/work/i-cube/I-CUBE-HUAWEI/Middlewares/Third_Party/Huawei/iot_link/oc/oc_mqtt/oc_mqtt_tiny_v5\oc_mqtt_tiny.c **** 
 349:D:/fchai/work/i-cube/I-CUBE-HUAWEI/Middlewares/Third_Party/Huawei/iot_link/oc/oc_mqtt/oc_mqtt_tiny_v5\oc_mqtt_tiny.c **** ///< release the config parameters
 350:D:/fchai/work/i-cube/I-CUBE-HUAWEI/Middlewares/Third_Party/Huawei/iot_link/oc/oc_mqtt/oc_mqtt_tiny_v5\oc_mqtt_tiny.c **** static int config_parameter_release(oc_mqtt_tiny_cb_t *cb)
 351:D:/fchai/work/i-cube/I-CUBE-HUAWEI/Middlewares/Third_Party/Huawei/iot_link/oc/oc_mqtt/oc_mqtt_tiny_v5\oc_mqtt_tiny.c **** {
  30              		.loc 1 351 1 view -0
  31              		.cfi_startproc
  32              		@ args = 0, pretend = 0, frame = 0
  33              		@ frame_needed = 0, uses_anonymous_args = 0
 352:D:/fchai/work/i-cube/I-CUBE-HUAWEI/Middlewares/Third_Party/Huawei/iot_link/oc/oc_mqtt/oc_mqtt_tiny_v5\oc_mqtt_tiny.c ****     tiny_topic_sub_t  *sub_topic;
  34              		.loc 1 352 5 view .LVU1
 353:D:/fchai/work/i-cube/I-CUBE-HUAWEI/Middlewares/Third_Party/Huawei/iot_link/oc/oc_mqtt/oc_mqtt_tiny_v5\oc_mqtt_tiny.c ****     tiny_topic_sub_t  *sub_topic_nxt;
  35              		.loc 1 353 5 view .LVU2
 354:D:/fchai/work/i-cube/I-CUBE-HUAWEI/Middlewares/Third_Party/Huawei/iot_link/oc/oc_mqtt/oc_mqtt_tiny_v5\oc_mqtt_tiny.c **** 
 355:D:/fchai/work/i-cube/I-CUBE-HUAWEI/Middlewares/Third_Party/Huawei/iot_link/oc/oc_mqtt/oc_mqtt_tiny_v5\oc_mqtt_tiny.c ****     if( NULL != cb->config_mem )
  36              		.loc 1 355 5 view .LVU3
 351:D:/fchai/work/i-cube/I-CUBE-HUAWEI/Middlewares/Third_Party/Huawei/iot_link/oc/oc_mqtt/oc_mqtt_tiny_v5\oc_mqtt_tiny.c ****     tiny_topic_sub_t  *sub_topic;
  37              		.loc 1 351 1 is_stmt 0 view .LVU4
  38 0000 F8B5     		push	{r3, r4, r5, r6, r7, lr}
  39              	.LCFI0:
  40              		.cfi_def_cfa_offset 24
  41              		.cfi_offset 3, -24
  42              		.cfi_offset 4, -20
  43              		.cfi_offset 5, -16
  44              		.cfi_offset 6, -12
ARM GAS  T:\msys\tmp\ccOGKCS9.s 			page 8


  45              		.cfi_offset 7, -8
  46              		.cfi_offset 14, -4
 351:D:/fchai/work/i-cube/I-CUBE-HUAWEI/Middlewares/Third_Party/Huawei/iot_link/oc/oc_mqtt/oc_mqtt_tiny_v5\oc_mqtt_tiny.c ****     tiny_topic_sub_t  *sub_topic;
  47              		.loc 1 351 1 view .LVU5
  48 0002 0546     		mov	r5, r0
  49              		.loc 1 355 19 view .LVU6
  50 0004 4068     		ldr	r0, [r0, #4]
  51              	.LVL1:
  52              		.loc 1 355 7 view .LVU7
  53 0006 18B1     		cbz	r0, .L2
 356:D:/fchai/work/i-cube/I-CUBE-HUAWEI/Middlewares/Third_Party/Huawei/iot_link/oc/oc_mqtt/oc_mqtt_tiny_v5\oc_mqtt_tiny.c ****     {
 357:D:/fchai/work/i-cube/I-CUBE-HUAWEI/Middlewares/Third_Party/Huawei/iot_link/oc/oc_mqtt/oc_mqtt_tiny_v5\oc_mqtt_tiny.c ****         osal_free(cb->config_mem);
  54              		.loc 1 357 9 is_stmt 1 view .LVU8
  55 0008 FFF7FEFF 		bl	osal_free
  56              	.LVL2:
 358:D:/fchai/work/i-cube/I-CUBE-HUAWEI/Middlewares/Third_Party/Huawei/iot_link/oc/oc_mqtt/oc_mqtt_tiny_v5\oc_mqtt_tiny.c ****         cb->config_mem = NULL;
  57              		.loc 1 358 9 view .LVU9
  58              		.loc 1 358 24 is_stmt 0 view .LVU10
  59 000c 0023     		movs	r3, #0
  60 000e 6B60     		str	r3, [r5, #4]
  61              	.L2:
 359:D:/fchai/work/i-cube/I-CUBE-HUAWEI/Middlewares/Third_Party/Huawei/iot_link/oc/oc_mqtt/oc_mqtt_tiny_v5\oc_mqtt_tiny.c ****     }
 360:D:/fchai/work/i-cube/I-CUBE-HUAWEI/Middlewares/Third_Party/Huawei/iot_link/oc/oc_mqtt/oc_mqtt_tiny_v5\oc_mqtt_tiny.c **** 
 361:D:/fchai/work/i-cube/I-CUBE-HUAWEI/Middlewares/Third_Party/Huawei/iot_link/oc/oc_mqtt/oc_mqtt_tiny_v5\oc_mqtt_tiny.c ****     if( cb->bs_cb.hubserver_addr != NULL )
  62              		.loc 1 361 5 is_stmt 1 view .LVU11
  63              		.loc 1 361 18 is_stmt 0 view .LVU12
  64 0010 E86F     		ldr	r0, [r5, #124]
  65              		.loc 1 361 7 view .LVU13
  66 0012 08B1     		cbz	r0, .L3
 362:D:/fchai/work/i-cube/I-CUBE-HUAWEI/Middlewares/Third_Party/Huawei/iot_link/oc/oc_mqtt/oc_mqtt_tiny_v5\oc_mqtt_tiny.c ****     {
 363:D:/fchai/work/i-cube/I-CUBE-HUAWEI/Middlewares/Third_Party/Huawei/iot_link/oc/oc_mqtt/oc_mqtt_tiny_v5\oc_mqtt_tiny.c ****         osal_free(cb->bs_cb.hubserver_addr);
  67              		.loc 1 363 9 is_stmt 1 view .LVU14
  68 0014 FFF7FEFF 		bl	osal_free
  69              	.LVL3:
  70              	.L3:
 364:D:/fchai/work/i-cube/I-CUBE-HUAWEI/Middlewares/Third_Party/Huawei/iot_link/oc/oc_mqtt/oc_mqtt_tiny_v5\oc_mqtt_tiny.c ****     }
 365:D:/fchai/work/i-cube/I-CUBE-HUAWEI/Middlewares/Third_Party/Huawei/iot_link/oc/oc_mqtt/oc_mqtt_tiny_v5\oc_mqtt_tiny.c ****     if( cb->bs_cb.hubserver_port != NULL )
  71              		.loc 1 365 5 view .LVU15
  72              		.loc 1 365 18 is_stmt 0 view .LVU16
  73 0018 D5F88000 		ldr	r0, [r5, #128]
  74              		.loc 1 365 7 view .LVU17
  75 001c 08B1     		cbz	r0, .L4
 366:D:/fchai/work/i-cube/I-CUBE-HUAWEI/Middlewares/Third_Party/Huawei/iot_link/oc/oc_mqtt/oc_mqtt_tiny_v5\oc_mqtt_tiny.c ****     {
 367:D:/fchai/work/i-cube/I-CUBE-HUAWEI/Middlewares/Third_Party/Huawei/iot_link/oc/oc_mqtt/oc_mqtt_tiny_v5\oc_mqtt_tiny.c ****         osal_free(cb->bs_cb.hubserver_port);
  76              		.loc 1 367 9 is_stmt 1 view .LVU18
  77 001e FFF7FEFF 		bl	osal_free
  78              	.LVL4:
  79              	.L4:
  80 0022 05F19C07 		add	r7, r5, #156
  81 0026 3C46     		mov	r4, r7
  82 0028 05F1B006 		add	r6, r5, #176
  83              	.L6:
 368:D:/fchai/work/i-cube/I-CUBE-HUAWEI/Middlewares/Third_Party/Huawei/iot_link/oc/oc_mqtt/oc_mqtt_tiny_v5\oc_mqtt_tiny.c ****     }
 369:D:/fchai/work/i-cube/I-CUBE-HUAWEI/Middlewares/Third_Party/Huawei/iot_link/oc/oc_mqtt/oc_mqtt_tiny_v5\oc_mqtt_tiny.c **** 
 370:D:/fchai/work/i-cube/I-CUBE-HUAWEI/Middlewares/Third_Party/Huawei/iot_link/oc/oc_mqtt/oc_mqtt_tiny_v5\oc_mqtt_tiny.c ****     unsigned int i = 0;
 371:D:/fchai/work/i-cube/I-CUBE-HUAWEI/Middlewares/Third_Party/Huawei/iot_link/oc/oc_mqtt/oc_mqtt_tiny_v5\oc_mqtt_tiny.c ****     for(i = 0;i < CN_NEW_TOPIC_NUM;i++)
 372:D:/fchai/work/i-cube/I-CUBE-HUAWEI/Middlewares/Third_Party/Huawei/iot_link/oc/oc_mqtt/oc_mqtt_tiny_v5\oc_mqtt_tiny.c ****     {
ARM GAS  T:\msys\tmp\ccOGKCS9.s 			page 9


 373:D:/fchai/work/i-cube/I-CUBE-HUAWEI/Middlewares/Third_Party/Huawei/iot_link/oc/oc_mqtt/oc_mqtt_tiny_v5\oc_mqtt_tiny.c ****         if(NULL != cb->hub_sub_topic[i])
  84              		.loc 1 373 9 view .LVU19
 374:D:/fchai/work/i-cube/I-CUBE-HUAWEI/Middlewares/Third_Party/Huawei/iot_link/oc/oc_mqtt/oc_mqtt_tiny_v5\oc_mqtt_tiny.c ****         {
 375:D:/fchai/work/i-cube/I-CUBE-HUAWEI/Middlewares/Third_Party/Huawei/iot_link/oc/oc_mqtt/oc_mqtt_tiny_v5\oc_mqtt_tiny.c ****             osal_free(cb->hub_sub_topic[i]);
  85              		.loc 1 375 13 view .LVU20
 373:D:/fchai/work/i-cube/I-CUBE-HUAWEI/Middlewares/Third_Party/Huawei/iot_link/oc/oc_mqtt/oc_mqtt_tiny_v5\oc_mqtt_tiny.c ****         {
  86              		.loc 1 373 37 is_stmt 0 view .LVU21
  87 002c 54F8040B 		ldr	r0, [r4], #4
 373:D:/fchai/work/i-cube/I-CUBE-HUAWEI/Middlewares/Third_Party/Huawei/iot_link/oc/oc_mqtt/oc_mqtt_tiny_v5\oc_mqtt_tiny.c ****         {
  88              		.loc 1 373 11 view .LVU22
  89 0030 08B1     		cbz	r0, .L5
  90              		.loc 1 375 13 view .LVU23
  91 0032 FFF7FEFF 		bl	osal_free
  92              	.LVL5:
  93              	.L5:
 371:D:/fchai/work/i-cube/I-CUBE-HUAWEI/Middlewares/Third_Party/Huawei/iot_link/oc/oc_mqtt/oc_mqtt_tiny_v5\oc_mqtt_tiny.c ****     {
  94              		.loc 1 371 36 is_stmt 1 discriminator 2 view .LVU24
 371:D:/fchai/work/i-cube/I-CUBE-HUAWEI/Middlewares/Third_Party/Huawei/iot_link/oc/oc_mqtt/oc_mqtt_tiny_v5\oc_mqtt_tiny.c ****     {
  95              		.loc 1 371 15 discriminator 2 view .LVU25
 371:D:/fchai/work/i-cube/I-CUBE-HUAWEI/Middlewares/Third_Party/Huawei/iot_link/oc/oc_mqtt/oc_mqtt_tiny_v5\oc_mqtt_tiny.c ****     {
  96              		.loc 1 371 5 is_stmt 0 discriminator 2 view .LVU26
  97 0036 B442     		cmp	r4, r6
  98 0038 F8D1     		bne	.L6
 376:D:/fchai/work/i-cube/I-CUBE-HUAWEI/Middlewares/Third_Party/Huawei/iot_link/oc/oc_mqtt/oc_mqtt_tiny_v5\oc_mqtt_tiny.c ****         }
 377:D:/fchai/work/i-cube/I-CUBE-HUAWEI/Middlewares/Third_Party/Huawei/iot_link/oc/oc_mqtt/oc_mqtt_tiny_v5\oc_mqtt_tiny.c ****     }
 378:D:/fchai/work/i-cube/I-CUBE-HUAWEI/Middlewares/Third_Party/Huawei/iot_link/oc/oc_mqtt/oc_mqtt_tiny_v5\oc_mqtt_tiny.c ****     (void) memset((void *)&cb->hub_sub_topic[0],0,sizeof(cb->hub_sub_topic));
  99              		.loc 1 378 5 is_stmt 1 view .LVU27
 100              		.loc 1 378 12 is_stmt 0 view .LVU28
 101 003a 0026     		movs	r6, #0
 102 003c C5F89C60 		str	r6, [r5, #156]	@ unaligned
 379:D:/fchai/work/i-cube/I-CUBE-HUAWEI/Middlewares/Third_Party/Huawei/iot_link/oc/oc_mqtt/oc_mqtt_tiny_v5\oc_mqtt_tiny.c **** 
 380:D:/fchai/work/i-cube/I-CUBE-HUAWEI/Middlewares/Third_Party/Huawei/iot_link/oc/oc_mqtt/oc_mqtt_tiny_v5\oc_mqtt_tiny.c ****     (void) memset(&cb->config,0,sizeof(oc_mqtt_config_t));
 103              		.loc 1 380 12 view .LVU29
 104 0040 3146     		mov	r1, r6
 378:D:/fchai/work/i-cube/I-CUBE-HUAWEI/Middlewares/Third_Party/Huawei/iot_link/oc/oc_mqtt/oc_mqtt_tiny_v5\oc_mqtt_tiny.c **** 
 105              		.loc 1 378 12 view .LVU30
 106 0042 7E60     		str	r6, [r7, #4]	@ unaligned
 107 0044 BE60     		str	r6, [r7, #8]	@ unaligned
 108 0046 FE60     		str	r6, [r7, #12]	@ unaligned
 109 0048 3E61     		str	r6, [r7, #16]	@ unaligned
 110              		.loc 1 380 5 is_stmt 1 view .LVU31
 111              		.loc 1 380 12 is_stmt 0 view .LVU32
 112 004a 4C22     		movs	r2, #76
 113 004c 05F10800 		add	r0, r5, #8
 114 0050 FFF7FEFF 		bl	memset
 115              	.LVL6:
 381:D:/fchai/work/i-cube/I-CUBE-HUAWEI/Middlewares/Third_Party/Huawei/iot_link/oc/oc_mqtt/oc_mqtt_tiny_v5\oc_mqtt_tiny.c **** 
 382:D:/fchai/work/i-cube/I-CUBE-HUAWEI/Middlewares/Third_Party/Huawei/iot_link/oc/oc_mqtt/oc_mqtt_tiny_v5\oc_mqtt_tiny.c ****     (void) memset(&cb->bs_cb,0,sizeof(oc_bs_mqtt_cb_t));
 116              		.loc 1 382 5 is_stmt 1 view .LVU33
 383:D:/fchai/work/i-cube/I-CUBE-HUAWEI/Middlewares/Third_Party/Huawei/iot_link/oc/oc_mqtt/oc_mqtt_tiny_v5\oc_mqtt_tiny.c **** 
 384:D:/fchai/work/i-cube/I-CUBE-HUAWEI/Middlewares/Third_Party/Huawei/iot_link/oc/oc_mqtt/oc_mqtt_tiny_v5\oc_mqtt_tiny.c ****     cb->flag.bits.bit_daemon_status = en_daemon_status_idle;
 117              		.loc 1 384 37 is_stmt 0 view .LVU34
 118 0054 95F87830 		ldrb	r3, [r5, #120]	@ zero_extendqisi2
 385:D:/fchai/work/i-cube/I-CUBE-HUAWEI/Middlewares/Third_Party/Huawei/iot_link/oc/oc_mqtt/oc_mqtt_tiny_v5\oc_mqtt_tiny.c **** 
 386:D:/fchai/work/i-cube/I-CUBE-HUAWEI/Middlewares/Third_Party/Huawei/iot_link/oc/oc_mqtt/oc_mqtt_tiny_v5\oc_mqtt_tiny.c ****     sub_topic = cb->subscribe_lst;
 119              		.loc 1 386 15 view .LVU35
 120 0058 D5F8B040 		ldr	r4, [r5, #176]
ARM GAS  T:\msys\tmp\ccOGKCS9.s 			page 10


 382:D:/fchai/work/i-cube/I-CUBE-HUAWEI/Middlewares/Third_Party/Huawei/iot_link/oc/oc_mqtt/oc_mqtt_tiny_v5\oc_mqtt_tiny.c **** 
 121              		.loc 1 382 12 view .LVU36
 122 005c EE67     		str	r6, [r5, #124]	@ unaligned
 384:D:/fchai/work/i-cube/I-CUBE-HUAWEI/Middlewares/Third_Party/Huawei/iot_link/oc/oc_mqtt/oc_mqtt_tiny_v5\oc_mqtt_tiny.c **** 
 123              		.loc 1 384 37 view .LVU37
 124 005e 66F34303 		bfi	r3, r6, #1, #3
 382:D:/fchai/work/i-cube/I-CUBE-HUAWEI/Middlewares/Third_Party/Huawei/iot_link/oc/oc_mqtt/oc_mqtt_tiny_v5\oc_mqtt_tiny.c **** 
 125              		.loc 1 382 12 view .LVU38
 126 0062 C5F88060 		str	r6, [r5, #128]	@ unaligned
 384:D:/fchai/work/i-cube/I-CUBE-HUAWEI/Middlewares/Third_Party/Huawei/iot_link/oc/oc_mqtt/oc_mqtt_tiny_v5\oc_mqtt_tiny.c **** 
 127              		.loc 1 384 5 is_stmt 1 view .LVU39
 384:D:/fchai/work/i-cube/I-CUBE-HUAWEI/Middlewares/Third_Party/Huawei/iot_link/oc/oc_mqtt/oc_mqtt_tiny_v5\oc_mqtt_tiny.c **** 
 128              		.loc 1 384 37 is_stmt 0 view .LVU40
 129 0066 85F87830 		strb	r3, [r5, #120]
 130              		.loc 1 386 5 is_stmt 1 view .LVU41
 131              	.LVL7:
 387:D:/fchai/work/i-cube/I-CUBE-HUAWEI/Middlewares/Third_Party/Huawei/iot_link/oc/oc_mqtt/oc_mqtt_tiny_v5\oc_mqtt_tiny.c ****     cb->subscribe_lst = NULL;
 132              		.loc 1 387 5 view .LVU42
 133              		.loc 1 387 23 is_stmt 0 view .LVU43
 134 006a C5F8B060 		str	r6, [r5, #176]
 388:D:/fchai/work/i-cube/I-CUBE-HUAWEI/Middlewares/Third_Party/Huawei/iot_link/oc/oc_mqtt/oc_mqtt_tiny_v5\oc_mqtt_tiny.c **** 
 389:D:/fchai/work/i-cube/I-CUBE-HUAWEI/Middlewares/Third_Party/Huawei/iot_link/oc/oc_mqtt/oc_mqtt_tiny_v5\oc_mqtt_tiny.c ****     while( NULL != sub_topic)
 135              		.loc 1 389 5 is_stmt 1 view .LVU44
 136              		.loc 1 389 10 view .LVU45
 137 006e 2CB1     		cbz	r4, .L7
 138              	.L8:
 390:D:/fchai/work/i-cube/I-CUBE-HUAWEI/Middlewares/Third_Party/Huawei/iot_link/oc/oc_mqtt/oc_mqtt_tiny_v5\oc_mqtt_tiny.c ****     {
 391:D:/fchai/work/i-cube/I-CUBE-HUAWEI/Middlewares/Third_Party/Huawei/iot_link/oc/oc_mqtt/oc_mqtt_tiny_v5\oc_mqtt_tiny.c ****         sub_topic_nxt = sub_topic->nxt;
 139              		.loc 1 391 9 view .LVU46
 140 0070 2046     		mov	r0, r4
 141              		.loc 1 391 23 is_stmt 0 view .LVU47
 142 0072 2468     		ldr	r4, [r4]
 143              	.LVL8:
 392:D:/fchai/work/i-cube/I-CUBE-HUAWEI/Middlewares/Third_Party/Huawei/iot_link/oc/oc_mqtt/oc_mqtt_tiny_v5\oc_mqtt_tiny.c ****         osal_free ( sub_topic );
 144              		.loc 1 392 9 is_stmt 1 view .LVU48
 145 0074 FFF7FEFF 		bl	osal_free
 146              	.LVL9:
 393:D:/fchai/work/i-cube/I-CUBE-HUAWEI/Middlewares/Third_Party/Huawei/iot_link/oc/oc_mqtt/oc_mqtt_tiny_v5\oc_mqtt_tiny.c **** 
 394:D:/fchai/work/i-cube/I-CUBE-HUAWEI/Middlewares/Third_Party/Huawei/iot_link/oc/oc_mqtt/oc_mqtt_tiny_v5\oc_mqtt_tiny.c ****         sub_topic = sub_topic_nxt;
 147              		.loc 1 394 9 view .LVU49
 389:D:/fchai/work/i-cube/I-CUBE-HUAWEI/Middlewares/Third_Party/Huawei/iot_link/oc/oc_mqtt/oc_mqtt_tiny_v5\oc_mqtt_tiny.c ****     {
 148              		.loc 1 389 10 view .LVU50
 149 0078 002C     		cmp	r4, #0
 150 007a F9D1     		bne	.L8
 151              	.LVL10:
 152              	.L7:
 395:D:/fchai/work/i-cube/I-CUBE-HUAWEI/Middlewares/Third_Party/Huawei/iot_link/oc/oc_mqtt/oc_mqtt_tiny_v5\oc_mqtt_tiny.c ****     }
 396:D:/fchai/work/i-cube/I-CUBE-HUAWEI/Middlewares/Third_Party/Huawei/iot_link/oc/oc_mqtt/oc_mqtt_tiny_v5\oc_mqtt_tiny.c **** 
 397:D:/fchai/work/i-cube/I-CUBE-HUAWEI/Middlewares/Third_Party/Huawei/iot_link/oc/oc_mqtt/oc_mqtt_tiny_v5\oc_mqtt_tiny.c ****     return (int)en_oc_mqtt_err_ok;
 153              		.loc 1 397 5 view .LVU51
 398:D:/fchai/work/i-cube/I-CUBE-HUAWEI/Middlewares/Third_Party/Huawei/iot_link/oc/oc_mqtt/oc_mqtt_tiny_v5\oc_mqtt_tiny.c **** }
 154              		.loc 1 398 1 is_stmt 0 view .LVU52
 155 007c 0020     		movs	r0, #0
 156 007e F8BD     		pop	{r3, r4, r5, r6, r7, pc}
 157              		.loc 1 398 1 view .LVU53
 158              		.cfi_endproc
 159              	.LFE8:
ARM GAS  T:\msys\tmp\ccOGKCS9.s 			page 11


 161              		.section	.text.daemon_cmd_post,"ax",%progbits
 162              		.align	1
 163              		.p2align 2,,3
 164              		.syntax unified
 165              		.thumb
 166              		.thumb_func
 167              		.fpu fpv4-sp-d16
 169              	daemon_cmd_post:
 170              	.LVL11:
 171              	.LFB7:
 323:D:/fchai/work/i-cube/I-CUBE-HUAWEI/Middlewares/Third_Party/Huawei/iot_link/oc/oc_mqtt/oc_mqtt_tiny_v5\oc_mqtt_tiny.c ****     int ret = (int)en_oc_mqtt_err_system;
 172              		.loc 1 323 1 is_stmt 1 view -0
 173              		.cfi_startproc
 174              		@ args = 0, pretend = 0, frame = 0
 175              		@ frame_needed = 0, uses_anonymous_args = 0
 324:D:/fchai/work/i-cube/I-CUBE-HUAWEI/Middlewares/Third_Party/Huawei/iot_link/oc/oc_mqtt/oc_mqtt_tiny_v5\oc_mqtt_tiny.c ****     oc_mqtt_daemon_cmd_t *daemon_cmd;
 176              		.loc 1 324 5 view .LVU55
 325:D:/fchai/work/i-cube/I-CUBE-HUAWEI/Middlewares/Third_Party/Huawei/iot_link/oc/oc_mqtt/oc_mqtt_tiny_v5\oc_mqtt_tiny.c **** 
 177              		.loc 1 325 5 view .LVU56
 327:D:/fchai/work/i-cube/I-CUBE-HUAWEI/Middlewares/Third_Party/Huawei/iot_link/oc/oc_mqtt/oc_mqtt_tiny_v5\oc_mqtt_tiny.c ****     if(NULL != daemon_cmd)
 178              		.loc 1 327 5 view .LVU57
 323:D:/fchai/work/i-cube/I-CUBE-HUAWEI/Middlewares/Third_Party/Huawei/iot_link/oc/oc_mqtt/oc_mqtt_tiny_v5\oc_mqtt_tiny.c ****     int ret = (int)en_oc_mqtt_err_system;
 179              		.loc 1 323 1 is_stmt 0 view .LVU58
 180 0000 F8B5     		push	{r3, r4, r5, r6, r7, lr}
 181              	.LCFI1:
 182              		.cfi_def_cfa_offset 24
 183              		.cfi_offset 3, -24
 184              		.cfi_offset 4, -20
 185              		.cfi_offset 5, -16
 186              		.cfi_offset 6, -12
 187              		.cfi_offset 7, -8
 188              		.cfi_offset 14, -4
 323:D:/fchai/work/i-cube/I-CUBE-HUAWEI/Middlewares/Third_Party/Huawei/iot_link/oc/oc_mqtt/oc_mqtt_tiny_v5\oc_mqtt_tiny.c ****     int ret = (int)en_oc_mqtt_err_system;
 189              		.loc 1 323 1 view .LVU59
 190 0002 0746     		mov	r7, r0
 327:D:/fchai/work/i-cube/I-CUBE-HUAWEI/Middlewares/Third_Party/Huawei/iot_link/oc/oc_mqtt/oc_mqtt_tiny_v5\oc_mqtt_tiny.c ****     if(NULL != daemon_cmd)
 191              		.loc 1 327 18 view .LVU60
 192 0004 1020     		movs	r0, #16
 193              	.LVL12:
 323:D:/fchai/work/i-cube/I-CUBE-HUAWEI/Middlewares/Third_Party/Huawei/iot_link/oc/oc_mqtt/oc_mqtt_tiny_v5\oc_mqtt_tiny.c ****     int ret = (int)en_oc_mqtt_err_system;
 194              		.loc 1 323 1 view .LVU61
 195 0006 0E46     		mov	r6, r1
 327:D:/fchai/work/i-cube/I-CUBE-HUAWEI/Middlewares/Third_Party/Huawei/iot_link/oc/oc_mqtt/oc_mqtt_tiny_v5\oc_mqtt_tiny.c ****     if(NULL != daemon_cmd)
 196              		.loc 1 327 18 view .LVU62
 197 0008 FFF7FEFF 		bl	osal_malloc
 198              	.LVL13:
 328:D:/fchai/work/i-cube/I-CUBE-HUAWEI/Middlewares/Third_Party/Huawei/iot_link/oc/oc_mqtt/oc_mqtt_tiny_v5\oc_mqtt_tiny.c ****     {
 199              		.loc 1 328 5 is_stmt 1 view .LVU63
 328:D:/fchai/work/i-cube/I-CUBE-HUAWEI/Middlewares/Third_Party/Huawei/iot_link/oc/oc_mqtt/oc_mqtt_tiny_v5\oc_mqtt_tiny.c ****     {
 200              		.loc 1 328 7 is_stmt 0 view .LVU64
 201 000c 80B1     		cbz	r0, .L32
 330:D:/fchai/work/i-cube/I-CUBE-HUAWEI/Middlewares/Third_Party/Huawei/iot_link/oc/oc_mqtt/oc_mqtt_tiny_v5\oc_mqtt_tiny.c ****         daemon_cmd->arg = arg;
 202              		.loc 1 330 9 is_stmt 1 view .LVU65
 332:D:/fchai/work/i-cube/I-CUBE-HUAWEI/Middlewares/Third_Party/Huawei/iot_link/oc/oc_mqtt/oc_mqtt_tiny_v5\oc_mqtt_tiny.c ****         if(true == osal_semp_create(&daemon_cmd->signal,1,0))
 203              		.loc 1 332 29 is_stmt 0 view .LVU66
 204 000e 1025     		movs	r5, #16
 330:D:/fchai/work/i-cube/I-CUBE-HUAWEI/Middlewares/Third_Party/Huawei/iot_link/oc/oc_mqtt/oc_mqtt_tiny_v5\oc_mqtt_tiny.c ****         daemon_cmd->arg = arg;
ARM GAS  T:\msys\tmp\ccOGKCS9.s 			page 12


 205              		.loc 1 330 25 view .LVU67
 206 0010 0770     		strb	r7, [r0]
 331:D:/fchai/work/i-cube/I-CUBE-HUAWEI/Middlewares/Third_Party/Huawei/iot_link/oc/oc_mqtt/oc_mqtt_tiny_v5\oc_mqtt_tiny.c ****         daemon_cmd->retcode = ret;
 207              		.loc 1 331 9 is_stmt 1 view .LVU68
 331:D:/fchai/work/i-cube/I-CUBE-HUAWEI/Middlewares/Third_Party/Huawei/iot_link/oc/oc_mqtt/oc_mqtt_tiny_v5\oc_mqtt_tiny.c ****         daemon_cmd->retcode = ret;
 208              		.loc 1 331 25 is_stmt 0 view .LVU69
 209 0012 4660     		str	r6, [r0, #4]
 332:D:/fchai/work/i-cube/I-CUBE-HUAWEI/Middlewares/Third_Party/Huawei/iot_link/oc/oc_mqtt/oc_mqtt_tiny_v5\oc_mqtt_tiny.c ****         if(true == osal_semp_create(&daemon_cmd->signal,1,0))
 210              		.loc 1 332 9 is_stmt 1 view .LVU70
 332:D:/fchai/work/i-cube/I-CUBE-HUAWEI/Middlewares/Third_Party/Huawei/iot_link/oc/oc_mqtt/oc_mqtt_tiny_v5\oc_mqtt_tiny.c ****         if(true == osal_semp_create(&daemon_cmd->signal,1,0))
 211              		.loc 1 332 29 is_stmt 0 view .LVU71
 212 0014 C560     		str	r5, [r0, #12]
 333:D:/fchai/work/i-cube/I-CUBE-HUAWEI/Middlewares/Third_Party/Huawei/iot_link/oc/oc_mqtt/oc_mqtt_tiny_v5\oc_mqtt_tiny.c ****         {
 213              		.loc 1 333 9 is_stmt 1 view .LVU72
 214 0016 0446     		mov	r4, r0
 333:D:/fchai/work/i-cube/I-CUBE-HUAWEI/Middlewares/Third_Party/Huawei/iot_link/oc/oc_mqtt/oc_mqtt_tiny_v5\oc_mqtt_tiny.c ****         {
 215              		.loc 1 333 20 is_stmt 0 view .LVU73
 216 0018 0022     		movs	r2, #0
 217 001a 0121     		movs	r1, #1
 218 001c 0830     		adds	r0, r0, #8
 219              	.LVL14:
 333:D:/fchai/work/i-cube/I-CUBE-HUAWEI/Middlewares/Third_Party/Huawei/iot_link/oc/oc_mqtt/oc_mqtt_tiny_v5\oc_mqtt_tiny.c ****         {
 220              		.loc 1 333 20 view .LVU74
 221 001e FFF7FEFF 		bl	osal_semp_create
 222              	.LVL15:
 333:D:/fchai/work/i-cube/I-CUBE-HUAWEI/Middlewares/Third_Party/Huawei/iot_link/oc/oc_mqtt/oc_mqtt_tiny_v5\oc_mqtt_tiny.c ****         {
 223              		.loc 1 333 11 view .LVU75
 224 0022 0128     		cmp	r0, #1
 225 0024 07D0     		beq	.L36
 226              	.LVL16:
 227              	.L30:
 342:D:/fchai/work/i-cube/I-CUBE-HUAWEI/Middlewares/Third_Party/Huawei/iot_link/oc/oc_mqtt/oc_mqtt_tiny_v5\oc_mqtt_tiny.c ****     }
 228              		.loc 1 342 9 is_stmt 1 view .LVU76
 229 0026 2046     		mov	r0, r4
 230 0028 FFF7FEFF 		bl	osal_free
 231              	.LVL17:
 346:D:/fchai/work/i-cube/I-CUBE-HUAWEI/Middlewares/Third_Party/Huawei/iot_link/oc/oc_mqtt/oc_mqtt_tiny_v5\oc_mqtt_tiny.c **** 
 232              		.loc 1 346 1 is_stmt 0 view .LVU77
 233 002c 2846     		mov	r0, r5
 234 002e F8BD     		pop	{r3, r4, r5, r6, r7, pc}
 235              	.LVL18:
 236              	.L32:
 324:D:/fchai/work/i-cube/I-CUBE-HUAWEI/Middlewares/Third_Party/Huawei/iot_link/oc/oc_mqtt/oc_mqtt_tiny_v5\oc_mqtt_tiny.c ****     oc_mqtt_daemon_cmd_t *daemon_cmd;
 237              		.loc 1 324 9 view .LVU78
 238 0030 1025     		movs	r5, #16
 345:D:/fchai/work/i-cube/I-CUBE-HUAWEI/Middlewares/Third_Party/Huawei/iot_link/oc/oc_mqtt/oc_mqtt_tiny_v5\oc_mqtt_tiny.c **** }
 239              		.loc 1 345 5 is_stmt 1 view .LVU79
 346:D:/fchai/work/i-cube/I-CUBE-HUAWEI/Middlewares/Third_Party/Huawei/iot_link/oc/oc_mqtt/oc_mqtt_tiny_v5\oc_mqtt_tiny.c **** 
 240              		.loc 1 346 1 is_stmt 0 view .LVU80
 241 0032 2846     		mov	r0, r5
 242              	.LVL19:
 346:D:/fchai/work/i-cube/I-CUBE-HUAWEI/Middlewares/Third_Party/Huawei/iot_link/oc/oc_mqtt/oc_mqtt_tiny_v5\oc_mqtt_tiny.c **** 
 243              		.loc 1 346 1 view .LVU81
 244 0034 F8BD     		pop	{r3, r4, r5, r6, r7, pc}
 245              	.LVL20:
 246              	.L36:
 335:D:/fchai/work/i-cube/I-CUBE-HUAWEI/Middlewares/Third_Party/Huawei/iot_link/oc/oc_mqtt/oc_mqtt_tiny_v5\oc_mqtt_tiny.c ****             {
ARM GAS  T:\msys\tmp\ccOGKCS9.s 			page 13


 247              		.loc 1 335 13 is_stmt 1 view .LVU82
 335:D:/fchai/work/i-cube/I-CUBE-HUAWEI/Middlewares/Third_Party/Huawei/iot_link/oc/oc_mqtt/oc_mqtt_tiny_v5\oc_mqtt_tiny.c ****             {
 248              		.loc 1 335 49 is_stmt 0 view .LVU83
 249 0036 0A4B     		ldr	r3, .L38
 335:D:/fchai/work/i-cube/I-CUBE-HUAWEI/Middlewares/Third_Party/Huawei/iot_link/oc/oc_mqtt/oc_mqtt_tiny_v5\oc_mqtt_tiny.c ****             {
 250              		.loc 1 335 21 view .LVU84
 251 0038 1B68     		ldr	r3, [r3]
 252 003a 0A22     		movs	r2, #10
 253 003c D3F88800 		ldr	r0, [r3, #136]
 254 0040 2146     		mov	r1, r4
 255 0042 FFF7FEFF 		bl	queue_push
 256              	.LVL21:
 335:D:/fchai/work/i-cube/I-CUBE-HUAWEI/Middlewares/Third_Party/Huawei/iot_link/oc/oc_mqtt/oc_mqtt_tiny_v5\oc_mqtt_tiny.c ****             {
 257              		.loc 1 335 15 view .LVU85
 258 0046 18B1     		cbz	r0, .L37
 259              	.LVL22:
 260              	.L31:
 340:D:/fchai/work/i-cube/I-CUBE-HUAWEI/Middlewares/Third_Party/Huawei/iot_link/oc/oc_mqtt/oc_mqtt_tiny_v5\oc_mqtt_tiny.c ****         }
 261              		.loc 1 340 13 is_stmt 1 view .LVU86
 340:D:/fchai/work/i-cube/I-CUBE-HUAWEI/Middlewares/Third_Party/Huawei/iot_link/oc/oc_mqtt/oc_mqtt_tiny_v5\oc_mqtt_tiny.c ****         }
 262              		.loc 1 340 20 is_stmt 0 view .LVU87
 263 0048 A068     		ldr	r0, [r4, #8]
 264 004a FFF7FEFF 		bl	osal_semp_del
 265              	.LVL23:
 266 004e EAE7     		b	.L30
 267              	.LVL24:
 268              	.L37:
 337:D:/fchai/work/i-cube/I-CUBE-HUAWEI/Middlewares/Third_Party/Huawei/iot_link/oc/oc_mqtt/oc_mqtt_tiny_v5\oc_mqtt_tiny.c ****                 ret = daemon_cmd->retcode;
 269              		.loc 1 337 17 is_stmt 1 view .LVU88
 337:D:/fchai/work/i-cube/I-CUBE-HUAWEI/Middlewares/Third_Party/Huawei/iot_link/oc/oc_mqtt/oc_mqtt_tiny_v5\oc_mqtt_tiny.c ****                 ret = daemon_cmd->retcode;
 270              		.loc 1 337 23 is_stmt 0 view .LVU89
 271 0050 A068     		ldr	r0, [r4, #8]
 272 0052 4FF0FF31 		mov	r1, #-1
 273 0056 FFF7FEFF 		bl	osal_semp_pend
 274              	.LVL25:
 338:D:/fchai/work/i-cube/I-CUBE-HUAWEI/Middlewares/Third_Party/Huawei/iot_link/oc/oc_mqtt/oc_mqtt_tiny_v5\oc_mqtt_tiny.c ****             }
 275              		.loc 1 338 17 is_stmt 1 view .LVU90
 338:D:/fchai/work/i-cube/I-CUBE-HUAWEI/Middlewares/Third_Party/Huawei/iot_link/oc/oc_mqtt/oc_mqtt_tiny_v5\oc_mqtt_tiny.c ****             }
 276              		.loc 1 338 21 is_stmt 0 view .LVU91
 277 005a E568     		ldr	r5, [r4, #12]
 278              	.LVL26:
 338:D:/fchai/work/i-cube/I-CUBE-HUAWEI/Middlewares/Third_Party/Huawei/iot_link/oc/oc_mqtt/oc_mqtt_tiny_v5\oc_mqtt_tiny.c ****             }
 279              		.loc 1 338 21 view .LVU92
 280 005c F4E7     		b	.L31
 281              	.L39:
 282 005e 00BF     		.align	2
 283              	.L38:
 284 0060 00000000 		.word	.LANCHOR0
 285              		.cfi_endproc
 286              	.LFE7:
 288              		.section	.text.tiny_unsubscribe,"ax",%progbits
 289              		.align	1
 290              		.p2align 2,,3
 291              		.syntax unified
 292              		.thumb
 293              		.thumb_func
 294              		.fpu fpv4-sp-d16
ARM GAS  T:\msys\tmp\ccOGKCS9.s 			page 14


 296              	tiny_unsubscribe:
 297              	.LVL27:
 298              	.LFB24:
 399:D:/fchai/work/i-cube/I-CUBE-HUAWEI/Middlewares/Third_Party/Huawei/iot_link/oc/oc_mqtt/oc_mqtt_tiny_v5\oc_mqtt_tiny.c **** ///< check the config parameters
 400:D:/fchai/work/i-cube/I-CUBE-HUAWEI/Middlewares/Third_Party/Huawei/iot_link/oc/oc_mqtt/oc_mqtt_tiny_v5\oc_mqtt_tiny.c **** static int config_parameter_clone(oc_mqtt_tiny_cb_t *cb,oc_mqtt_config_t *config)
 401:D:/fchai/work/i-cube/I-CUBE-HUAWEI/Middlewares/Third_Party/Huawei/iot_link/oc/oc_mqtt/oc_mqtt_tiny_v5\oc_mqtt_tiny.c **** {
 402:D:/fchai/work/i-cube/I-CUBE-HUAWEI/Middlewares/Third_Party/Huawei/iot_link/oc/oc_mqtt/oc_mqtt_tiny_v5\oc_mqtt_tiny.c ****     int ret = (int)en_oc_mqtt_err_parafmt;
 403:D:/fchai/work/i-cube/I-CUBE-HUAWEI/Middlewares/Third_Party/Huawei/iot_link/oc/oc_mqtt/oc_mqtt_tiny_v5\oc_mqtt_tiny.c ****     int mem_len = 0;
 404:D:/fchai/work/i-cube/I-CUBE-HUAWEI/Middlewares/Third_Party/Huawei/iot_link/oc/oc_mqtt/oc_mqtt_tiny_v5\oc_mqtt_tiny.c ****     char *mem_buf = NULL;
 405:D:/fchai/work/i-cube/I-CUBE-HUAWEI/Middlewares/Third_Party/Huawei/iot_link/oc/oc_mqtt/oc_mqtt_tiny_v5\oc_mqtt_tiny.c **** 
 406:D:/fchai/work/i-cube/I-CUBE-HUAWEI/Middlewares/Third_Party/Huawei/iot_link/oc/oc_mqtt/oc_mqtt_tiny_v5\oc_mqtt_tiny.c ****     if(config->security.type == EN_DTLS_AL_SECURITY_TYPE_CERT)
 407:D:/fchai/work/i-cube/I-CUBE-HUAWEI/Middlewares/Third_Party/Huawei/iot_link/oc/oc_mqtt/oc_mqtt_tiny_v5\oc_mqtt_tiny.c ****     {
 408:D:/fchai/work/i-cube/I-CUBE-HUAWEI/Middlewares/Third_Party/Huawei/iot_link/oc/oc_mqtt/oc_mqtt_tiny_v5\oc_mqtt_tiny.c ****         mem_len += config->security.u.cert.server_ca_len + config->security.u.cert.client_ca_len +\
 409:D:/fchai/work/i-cube/I-CUBE-HUAWEI/Middlewares/Third_Party/Huawei/iot_link/oc/oc_mqtt/oc_mqtt_tiny_v5\oc_mqtt_tiny.c ****                    config->security.u.cert.client_pk_len + config->security.u.cert.client_pk_pwd_le
 410:D:/fchai/work/i-cube/I-CUBE-HUAWEI/Middlewares/Third_Party/Huawei/iot_link/oc/oc_mqtt/oc_mqtt_tiny_v5\oc_mqtt_tiny.c ****         if(NULL != config->security.u.cert.server_name)
 411:D:/fchai/work/i-cube/I-CUBE-HUAWEI/Middlewares/Third_Party/Huawei/iot_link/oc/oc_mqtt/oc_mqtt_tiny_v5\oc_mqtt_tiny.c ****         {
 412:D:/fchai/work/i-cube/I-CUBE-HUAWEI/Middlewares/Third_Party/Huawei/iot_link/oc/oc_mqtt/oc_mqtt_tiny_v5\oc_mqtt_tiny.c ****             mem_len += strlen(config->security.u.cert.server_name) + 1;
 413:D:/fchai/work/i-cube/I-CUBE-HUAWEI/Middlewares/Third_Party/Huawei/iot_link/oc/oc_mqtt/oc_mqtt_tiny_v5\oc_mqtt_tiny.c ****         }
 414:D:/fchai/work/i-cube/I-CUBE-HUAWEI/Middlewares/Third_Party/Huawei/iot_link/oc/oc_mqtt/oc_mqtt_tiny_v5\oc_mqtt_tiny.c ****     }
 415:D:/fchai/work/i-cube/I-CUBE-HUAWEI/Middlewares/Third_Party/Huawei/iot_link/oc/oc_mqtt/oc_mqtt_tiny_v5\oc_mqtt_tiny.c ****     else if(config->security.type == EN_DTLS_AL_SECURITY_TYPE_PSK)
 416:D:/fchai/work/i-cube/I-CUBE-HUAWEI/Middlewares/Third_Party/Huawei/iot_link/oc/oc_mqtt/oc_mqtt_tiny_v5\oc_mqtt_tiny.c ****     {
 417:D:/fchai/work/i-cube/I-CUBE-HUAWEI/Middlewares/Third_Party/Huawei/iot_link/oc/oc_mqtt/oc_mqtt_tiny_v5\oc_mqtt_tiny.c ****         mem_len += config->security.u.psk.psk_id_len + config->security.u.psk.psk_key_len;
 418:D:/fchai/work/i-cube/I-CUBE-HUAWEI/Middlewares/Third_Party/Huawei/iot_link/oc/oc_mqtt/oc_mqtt_tiny_v5\oc_mqtt_tiny.c ****     }
 419:D:/fchai/work/i-cube/I-CUBE-HUAWEI/Middlewares/Third_Party/Huawei/iot_link/oc/oc_mqtt/oc_mqtt_tiny_v5\oc_mqtt_tiny.c **** 
 420:D:/fchai/work/i-cube/I-CUBE-HUAWEI/Middlewares/Third_Party/Huawei/iot_link/oc/oc_mqtt/oc_mqtt_tiny_v5\oc_mqtt_tiny.c ****     mem_len += strlen(config->id) +1;
 421:D:/fchai/work/i-cube/I-CUBE-HUAWEI/Middlewares/Third_Party/Huawei/iot_link/oc/oc_mqtt/oc_mqtt_tiny_v5\oc_mqtt_tiny.c ****     if( NULL != config->pwd )                              ///PWD could be NULL
 422:D:/fchai/work/i-cube/I-CUBE-HUAWEI/Middlewares/Third_Party/Huawei/iot_link/oc/oc_mqtt/oc_mqtt_tiny_v5\oc_mqtt_tiny.c ****     {
 423:D:/fchai/work/i-cube/I-CUBE-HUAWEI/Middlewares/Third_Party/Huawei/iot_link/oc/oc_mqtt/oc_mqtt_tiny_v5\oc_mqtt_tiny.c ****         mem_len += strlen(config->pwd) + 1;
 424:D:/fchai/work/i-cube/I-CUBE-HUAWEI/Middlewares/Third_Party/Huawei/iot_link/oc/oc_mqtt/oc_mqtt_tiny_v5\oc_mqtt_tiny.c ****     }
 425:D:/fchai/work/i-cube/I-CUBE-HUAWEI/Middlewares/Third_Party/Huawei/iot_link/oc/oc_mqtt/oc_mqtt_tiny_v5\oc_mqtt_tiny.c ****     if( NULL != config->scope_id)
 426:D:/fchai/work/i-cube/I-CUBE-HUAWEI/Middlewares/Third_Party/Huawei/iot_link/oc/oc_mqtt/oc_mqtt_tiny_v5\oc_mqtt_tiny.c ****     {
 427:D:/fchai/work/i-cube/I-CUBE-HUAWEI/Middlewares/Third_Party/Huawei/iot_link/oc/oc_mqtt/oc_mqtt_tiny_v5\oc_mqtt_tiny.c ****         mem_len += strlen(config->scope_id) + 1;
 428:D:/fchai/work/i-cube/I-CUBE-HUAWEI/Middlewares/Third_Party/Huawei/iot_link/oc/oc_mqtt/oc_mqtt_tiny_v5\oc_mqtt_tiny.c ****     }
 429:D:/fchai/work/i-cube/I-CUBE-HUAWEI/Middlewares/Third_Party/Huawei/iot_link/oc/oc_mqtt/oc_mqtt_tiny_v5\oc_mqtt_tiny.c ****     mem_len += strlen(config->server_addr) + 1;
 430:D:/fchai/work/i-cube/I-CUBE-HUAWEI/Middlewares/Third_Party/Huawei/iot_link/oc/oc_mqtt/oc_mqtt_tiny_v5\oc_mqtt_tiny.c ****     mem_len += strlen(config->server_port) + 1;
 431:D:/fchai/work/i-cube/I-CUBE-HUAWEI/Middlewares/Third_Party/Huawei/iot_link/oc/oc_mqtt/oc_mqtt_tiny_v5\oc_mqtt_tiny.c ****     ////< now we
 432:D:/fchai/work/i-cube/I-CUBE-HUAWEI/Middlewares/Third_Party/Huawei/iot_link/oc/oc_mqtt/oc_mqtt_tiny_v5\oc_mqtt_tiny.c ****     mem_buf = osal_malloc(mem_len);
 433:D:/fchai/work/i-cube/I-CUBE-HUAWEI/Middlewares/Third_Party/Huawei/iot_link/oc/oc_mqtt/oc_mqtt_tiny_v5\oc_mqtt_tiny.c ****     if( NULL == mem_buf )
 434:D:/fchai/work/i-cube/I-CUBE-HUAWEI/Middlewares/Third_Party/Huawei/iot_link/oc/oc_mqtt/oc_mqtt_tiny_v5\oc_mqtt_tiny.c ****     {
 435:D:/fchai/work/i-cube/I-CUBE-HUAWEI/Middlewares/Third_Party/Huawei/iot_link/oc/oc_mqtt/oc_mqtt_tiny_v5\oc_mqtt_tiny.c ****         return ret;
 436:D:/fchai/work/i-cube/I-CUBE-HUAWEI/Middlewares/Third_Party/Huawei/iot_link/oc/oc_mqtt/oc_mqtt_tiny_v5\oc_mqtt_tiny.c ****     }
 437:D:/fchai/work/i-cube/I-CUBE-HUAWEI/Middlewares/Third_Party/Huawei/iot_link/oc/oc_mqtt/oc_mqtt_tiny_v5\oc_mqtt_tiny.c **** 
 438:D:/fchai/work/i-cube/I-CUBE-HUAWEI/Middlewares/Third_Party/Huawei/iot_link/oc/oc_mqtt/oc_mqtt_tiny_v5\oc_mqtt_tiny.c ****     /// now we copy the parameter
 439:D:/fchai/work/i-cube/I-CUBE-HUAWEI/Middlewares/Third_Party/Huawei/iot_link/oc/oc_mqtt/oc_mqtt_tiny_v5\oc_mqtt_tiny.c ****     (void) memset( &cb->config, 0 ,sizeof(cb->config) );
 440:D:/fchai/work/i-cube/I-CUBE-HUAWEI/Middlewares/Third_Party/Huawei/iot_link/oc/oc_mqtt/oc_mqtt_tiny_v5\oc_mqtt_tiny.c **** 
 441:D:/fchai/work/i-cube/I-CUBE-HUAWEI/Middlewares/Third_Party/Huawei/iot_link/oc/oc_mqtt/oc_mqtt_tiny_v5\oc_mqtt_tiny.c ****     if( config->boot_mode == en_oc_mqtt_mode_bs_static_nodeid_hmacsha256_notimecheck_json )
 442:D:/fchai/work/i-cube/I-CUBE-HUAWEI/Middlewares/Third_Party/Huawei/iot_link/oc/oc_mqtt/oc_mqtt_tiny_v5\oc_mqtt_tiny.c ****     {
 443:D:/fchai/work/i-cube/I-CUBE-HUAWEI/Middlewares/Third_Party/Huawei/iot_link/oc/oc_mqtt/oc_mqtt_tiny_v5\oc_mqtt_tiny.c ****         cb->flag.bits.bit_bs_enable = 1;
 444:D:/fchai/work/i-cube/I-CUBE-HUAWEI/Middlewares/Third_Party/Huawei/iot_link/oc/oc_mqtt/oc_mqtt_tiny_v5\oc_mqtt_tiny.c ****     }
 445:D:/fchai/work/i-cube/I-CUBE-HUAWEI/Middlewares/Third_Party/Huawei/iot_link/oc/oc_mqtt/oc_mqtt_tiny_v5\oc_mqtt_tiny.c ****     else
 446:D:/fchai/work/i-cube/I-CUBE-HUAWEI/Middlewares/Third_Party/Huawei/iot_link/oc/oc_mqtt/oc_mqtt_tiny_v5\oc_mqtt_tiny.c ****     {
 447:D:/fchai/work/i-cube/I-CUBE-HUAWEI/Middlewares/Third_Party/Huawei/iot_link/oc/oc_mqtt/oc_mqtt_tiny_v5\oc_mqtt_tiny.c ****         cb->flag.bits.bit_bs_enable = 0;
 448:D:/fchai/work/i-cube/I-CUBE-HUAWEI/Middlewares/Third_Party/Huawei/iot_link/oc/oc_mqtt/oc_mqtt_tiny_v5\oc_mqtt_tiny.c ****     }
 449:D:/fchai/work/i-cube/I-CUBE-HUAWEI/Middlewares/Third_Party/Huawei/iot_link/oc/oc_mqtt/oc_mqtt_tiny_v5\oc_mqtt_tiny.c ****     cb->config.boot_mode  = config->boot_mode;
 450:D:/fchai/work/i-cube/I-CUBE-HUAWEI/Middlewares/Third_Party/Huawei/iot_link/oc/oc_mqtt/oc_mqtt_tiny_v5\oc_mqtt_tiny.c ****     cb->config.lifetime = config->lifetime;
 451:D:/fchai/work/i-cube/I-CUBE-HUAWEI/Middlewares/Third_Party/Huawei/iot_link/oc/oc_mqtt/oc_mqtt_tiny_v5\oc_mqtt_tiny.c ****     cb->config.msg_deal = config->msg_deal;
 452:D:/fchai/work/i-cube/I-CUBE-HUAWEI/Middlewares/Third_Party/Huawei/iot_link/oc/oc_mqtt/oc_mqtt_tiny_v5\oc_mqtt_tiny.c ****     cb->config.msg_deal_arg = config->msg_deal_arg;
ARM GAS  T:\msys\tmp\ccOGKCS9.s 			page 15


 453:D:/fchai/work/i-cube/I-CUBE-HUAWEI/Middlewares/Third_Party/Huawei/iot_link/oc/oc_mqtt/oc_mqtt_tiny_v5\oc_mqtt_tiny.c ****     cb->config.log_dealer  = config->log_dealer;
 454:D:/fchai/work/i-cube/I-CUBE-HUAWEI/Middlewares/Third_Party/Huawei/iot_link/oc/oc_mqtt/oc_mqtt_tiny_v5\oc_mqtt_tiny.c **** 
 455:D:/fchai/work/i-cube/I-CUBE-HUAWEI/Middlewares/Third_Party/Huawei/iot_link/oc/oc_mqtt/oc_mqtt_tiny_v5\oc_mqtt_tiny.c ****     cb->config_mem = mem_buf; ///< this is the membuf
 456:D:/fchai/work/i-cube/I-CUBE-HUAWEI/Middlewares/Third_Party/Huawei/iot_link/oc/oc_mqtt/oc_mqtt_tiny_v5\oc_mqtt_tiny.c **** 
 457:D:/fchai/work/i-cube/I-CUBE-HUAWEI/Middlewares/Third_Party/Huawei/iot_link/oc/oc_mqtt/oc_mqtt_tiny_v5\oc_mqtt_tiny.c ****     cb->config.id = mem_buf;
 458:D:/fchai/work/i-cube/I-CUBE-HUAWEI/Middlewares/Third_Party/Huawei/iot_link/oc/oc_mqtt/oc_mqtt_tiny_v5\oc_mqtt_tiny.c ****     (void) strncpy( mem_buf,config->id,strlen(config->id)+1 );
 459:D:/fchai/work/i-cube/I-CUBE-HUAWEI/Middlewares/Third_Party/Huawei/iot_link/oc/oc_mqtt/oc_mqtt_tiny_v5\oc_mqtt_tiny.c ****     mem_buf += strlen(config->id) + 1;
 460:D:/fchai/work/i-cube/I-CUBE-HUAWEI/Middlewares/Third_Party/Huawei/iot_link/oc/oc_mqtt/oc_mqtt_tiny_v5\oc_mqtt_tiny.c **** 
 461:D:/fchai/work/i-cube/I-CUBE-HUAWEI/Middlewares/Third_Party/Huawei/iot_link/oc/oc_mqtt/oc_mqtt_tiny_v5\oc_mqtt_tiny.c ****     if ( NULL != config->pwd )
 462:D:/fchai/work/i-cube/I-CUBE-HUAWEI/Middlewares/Third_Party/Huawei/iot_link/oc/oc_mqtt/oc_mqtt_tiny_v5\oc_mqtt_tiny.c ****     {
 463:D:/fchai/work/i-cube/I-CUBE-HUAWEI/Middlewares/Third_Party/Huawei/iot_link/oc/oc_mqtt/oc_mqtt_tiny_v5\oc_mqtt_tiny.c ****         (void) strncpy( mem_buf, config->pwd ,strlen(config->pwd)+1);
 464:D:/fchai/work/i-cube/I-CUBE-HUAWEI/Middlewares/Third_Party/Huawei/iot_link/oc/oc_mqtt/oc_mqtt_tiny_v5\oc_mqtt_tiny.c ****         cb->config.pwd = mem_buf;
 465:D:/fchai/work/i-cube/I-CUBE-HUAWEI/Middlewares/Third_Party/Huawei/iot_link/oc/oc_mqtt/oc_mqtt_tiny_v5\oc_mqtt_tiny.c ****         mem_buf += strlen( config->pwd ) + 1;
 466:D:/fchai/work/i-cube/I-CUBE-HUAWEI/Middlewares/Third_Party/Huawei/iot_link/oc/oc_mqtt/oc_mqtt_tiny_v5\oc_mqtt_tiny.c ****     }
 467:D:/fchai/work/i-cube/I-CUBE-HUAWEI/Middlewares/Third_Party/Huawei/iot_link/oc/oc_mqtt/oc_mqtt_tiny_v5\oc_mqtt_tiny.c ****     else
 468:D:/fchai/work/i-cube/I-CUBE-HUAWEI/Middlewares/Third_Party/Huawei/iot_link/oc/oc_mqtt/oc_mqtt_tiny_v5\oc_mqtt_tiny.c ****     {
 469:D:/fchai/work/i-cube/I-CUBE-HUAWEI/Middlewares/Third_Party/Huawei/iot_link/oc/oc_mqtt/oc_mqtt_tiny_v5\oc_mqtt_tiny.c ****         cb->config.pwd = NULL;
 470:D:/fchai/work/i-cube/I-CUBE-HUAWEI/Middlewares/Third_Party/Huawei/iot_link/oc/oc_mqtt/oc_mqtt_tiny_v5\oc_mqtt_tiny.c ****     }
 471:D:/fchai/work/i-cube/I-CUBE-HUAWEI/Middlewares/Third_Party/Huawei/iot_link/oc/oc_mqtt/oc_mqtt_tiny_v5\oc_mqtt_tiny.c **** 
 472:D:/fchai/work/i-cube/I-CUBE-HUAWEI/Middlewares/Third_Party/Huawei/iot_link/oc/oc_mqtt/oc_mqtt_tiny_v5\oc_mqtt_tiny.c ****     if (NULL != config->scope_id)
 473:D:/fchai/work/i-cube/I-CUBE-HUAWEI/Middlewares/Third_Party/Huawei/iot_link/oc/oc_mqtt/oc_mqtt_tiny_v5\oc_mqtt_tiny.c ****     {
 474:D:/fchai/work/i-cube/I-CUBE-HUAWEI/Middlewares/Third_Party/Huawei/iot_link/oc/oc_mqtt/oc_mqtt_tiny_v5\oc_mqtt_tiny.c ****         (void) strncpy( mem_buf, config->scope_id ,strlen(config->scope_id)+1);
 475:D:/fchai/work/i-cube/I-CUBE-HUAWEI/Middlewares/Third_Party/Huawei/iot_link/oc/oc_mqtt/oc_mqtt_tiny_v5\oc_mqtt_tiny.c ****         cb->config.scope_id = mem_buf;
 476:D:/fchai/work/i-cube/I-CUBE-HUAWEI/Middlewares/Third_Party/Huawei/iot_link/oc/oc_mqtt/oc_mqtt_tiny_v5\oc_mqtt_tiny.c ****         mem_buf += strlen( config->scope_id ) + 1;
 477:D:/fchai/work/i-cube/I-CUBE-HUAWEI/Middlewares/Third_Party/Huawei/iot_link/oc/oc_mqtt/oc_mqtt_tiny_v5\oc_mqtt_tiny.c ****     }
 478:D:/fchai/work/i-cube/I-CUBE-HUAWEI/Middlewares/Third_Party/Huawei/iot_link/oc/oc_mqtt/oc_mqtt_tiny_v5\oc_mqtt_tiny.c ****     else
 479:D:/fchai/work/i-cube/I-CUBE-HUAWEI/Middlewares/Third_Party/Huawei/iot_link/oc/oc_mqtt/oc_mqtt_tiny_v5\oc_mqtt_tiny.c ****     {
 480:D:/fchai/work/i-cube/I-CUBE-HUAWEI/Middlewares/Third_Party/Huawei/iot_link/oc/oc_mqtt/oc_mqtt_tiny_v5\oc_mqtt_tiny.c ****         cb->config.scope_id = NULL;
 481:D:/fchai/work/i-cube/I-CUBE-HUAWEI/Middlewares/Third_Party/Huawei/iot_link/oc/oc_mqtt/oc_mqtt_tiny_v5\oc_mqtt_tiny.c ****     }
 482:D:/fchai/work/i-cube/I-CUBE-HUAWEI/Middlewares/Third_Party/Huawei/iot_link/oc/oc_mqtt/oc_mqtt_tiny_v5\oc_mqtt_tiny.c **** 
 483:D:/fchai/work/i-cube/I-CUBE-HUAWEI/Middlewares/Third_Party/Huawei/iot_link/oc/oc_mqtt/oc_mqtt_tiny_v5\oc_mqtt_tiny.c ****     (void) strncpy( mem_buf,config->server_addr,strlen(config->server_addr)+1 );
 484:D:/fchai/work/i-cube/I-CUBE-HUAWEI/Middlewares/Third_Party/Huawei/iot_link/oc/oc_mqtt/oc_mqtt_tiny_v5\oc_mqtt_tiny.c ****     cb->config.server_addr = mem_buf;
 485:D:/fchai/work/i-cube/I-CUBE-HUAWEI/Middlewares/Third_Party/Huawei/iot_link/oc/oc_mqtt/oc_mqtt_tiny_v5\oc_mqtt_tiny.c ****     mem_buf += strlen(config->server_addr) + 1;
 486:D:/fchai/work/i-cube/I-CUBE-HUAWEI/Middlewares/Third_Party/Huawei/iot_link/oc/oc_mqtt/oc_mqtt_tiny_v5\oc_mqtt_tiny.c **** 
 487:D:/fchai/work/i-cube/I-CUBE-HUAWEI/Middlewares/Third_Party/Huawei/iot_link/oc/oc_mqtt/oc_mqtt_tiny_v5\oc_mqtt_tiny.c ****     (void) strncpy( mem_buf,config->server_port,strlen(config->server_port) + 1 );
 488:D:/fchai/work/i-cube/I-CUBE-HUAWEI/Middlewares/Third_Party/Huawei/iot_link/oc/oc_mqtt/oc_mqtt_tiny_v5\oc_mqtt_tiny.c ****     cb->config.server_port = mem_buf;
 489:D:/fchai/work/i-cube/I-CUBE-HUAWEI/Middlewares/Third_Party/Huawei/iot_link/oc/oc_mqtt/oc_mqtt_tiny_v5\oc_mqtt_tiny.c ****     mem_buf += strlen(config->server_port) + 1;
 490:D:/fchai/work/i-cube/I-CUBE-HUAWEI/Middlewares/Third_Party/Huawei/iot_link/oc/oc_mqtt/oc_mqtt_tiny_v5\oc_mqtt_tiny.c **** 
 491:D:/fchai/work/i-cube/I-CUBE-HUAWEI/Middlewares/Third_Party/Huawei/iot_link/oc/oc_mqtt/oc_mqtt_tiny_v5\oc_mqtt_tiny.c ****     cb->config.security.type = config->security.type;
 492:D:/fchai/work/i-cube/I-CUBE-HUAWEI/Middlewares/Third_Party/Huawei/iot_link/oc/oc_mqtt/oc_mqtt_tiny_v5\oc_mqtt_tiny.c ****     if(config->security.type == EN_DTLS_AL_SECURITY_TYPE_CERT)
 493:D:/fchai/work/i-cube/I-CUBE-HUAWEI/Middlewares/Third_Party/Huawei/iot_link/oc/oc_mqtt/oc_mqtt_tiny_v5\oc_mqtt_tiny.c ****     {
 494:D:/fchai/work/i-cube/I-CUBE-HUAWEI/Middlewares/Third_Party/Huawei/iot_link/oc/oc_mqtt/oc_mqtt_tiny_v5\oc_mqtt_tiny.c ****         if ( 0 != config->security.u.cert.server_ca_len)
 495:D:/fchai/work/i-cube/I-CUBE-HUAWEI/Middlewares/Third_Party/Huawei/iot_link/oc/oc_mqtt/oc_mqtt_tiny_v5\oc_mqtt_tiny.c ****         {
 496:D:/fchai/work/i-cube/I-CUBE-HUAWEI/Middlewares/Third_Party/Huawei/iot_link/oc/oc_mqtt/oc_mqtt_tiny_v5\oc_mqtt_tiny.c ****             cb->config.security.u.cert.server_ca_len = config->security.u.cert.server_ca_len;
 497:D:/fchai/work/i-cube/I-CUBE-HUAWEI/Middlewares/Third_Party/Huawei/iot_link/oc/oc_mqtt/oc_mqtt_tiny_v5\oc_mqtt_tiny.c ****             (void) memcpy( mem_buf, config->security.u.cert.server_ca, config->security.u.cert.serv
 498:D:/fchai/work/i-cube/I-CUBE-HUAWEI/Middlewares/Third_Party/Huawei/iot_link/oc/oc_mqtt/oc_mqtt_tiny_v5\oc_mqtt_tiny.c ****             cb->config.security.u.cert.server_ca = (uint8_t *)mem_buf;
 499:D:/fchai/work/i-cube/I-CUBE-HUAWEI/Middlewares/Third_Party/Huawei/iot_link/oc/oc_mqtt/oc_mqtt_tiny_v5\oc_mqtt_tiny.c ****             mem_buf += config->security.u.cert.server_ca_len;
 500:D:/fchai/work/i-cube/I-CUBE-HUAWEI/Middlewares/Third_Party/Huawei/iot_link/oc/oc_mqtt/oc_mqtt_tiny_v5\oc_mqtt_tiny.c ****         }
 501:D:/fchai/work/i-cube/I-CUBE-HUAWEI/Middlewares/Third_Party/Huawei/iot_link/oc/oc_mqtt/oc_mqtt_tiny_v5\oc_mqtt_tiny.c ****         else
 502:D:/fchai/work/i-cube/I-CUBE-HUAWEI/Middlewares/Third_Party/Huawei/iot_link/oc/oc_mqtt/oc_mqtt_tiny_v5\oc_mqtt_tiny.c ****         {
 503:D:/fchai/work/i-cube/I-CUBE-HUAWEI/Middlewares/Third_Party/Huawei/iot_link/oc/oc_mqtt/oc_mqtt_tiny_v5\oc_mqtt_tiny.c ****             cb->config.security.u.cert.server_ca  =  (uint8_t *) s_oc_mqtt_ca_crt;
 504:D:/fchai/work/i-cube/I-CUBE-HUAWEI/Middlewares/Third_Party/Huawei/iot_link/oc/oc_mqtt/oc_mqtt_tiny_v5\oc_mqtt_tiny.c ****             cb->config.security.u.cert.server_ca_len = sizeof( s_oc_mqtt_ca_crt );
 505:D:/fchai/work/i-cube/I-CUBE-HUAWEI/Middlewares/Third_Party/Huawei/iot_link/oc/oc_mqtt/oc_mqtt_tiny_v5\oc_mqtt_tiny.c ****         }
 506:D:/fchai/work/i-cube/I-CUBE-HUAWEI/Middlewares/Third_Party/Huawei/iot_link/oc/oc_mqtt/oc_mqtt_tiny_v5\oc_mqtt_tiny.c **** 
 507:D:/fchai/work/i-cube/I-CUBE-HUAWEI/Middlewares/Third_Party/Huawei/iot_link/oc/oc_mqtt/oc_mqtt_tiny_v5\oc_mqtt_tiny.c ****         if ( 0 != config->security.u.cert.client_ca_len)
 508:D:/fchai/work/i-cube/I-CUBE-HUAWEI/Middlewares/Third_Party/Huawei/iot_link/oc/oc_mqtt/oc_mqtt_tiny_v5\oc_mqtt_tiny.c ****         {
 509:D:/fchai/work/i-cube/I-CUBE-HUAWEI/Middlewares/Third_Party/Huawei/iot_link/oc/oc_mqtt/oc_mqtt_tiny_v5\oc_mqtt_tiny.c ****             cb->config.security.u.cert.client_ca_len =  config->security.u.cert.client_ca_len;
ARM GAS  T:\msys\tmp\ccOGKCS9.s 			page 16


 510:D:/fchai/work/i-cube/I-CUBE-HUAWEI/Middlewares/Third_Party/Huawei/iot_link/oc/oc_mqtt/oc_mqtt_tiny_v5\oc_mqtt_tiny.c ****             (void) memcpy( mem_buf, config->security.u.cert.client_ca, config->security.u.cert.clie
 511:D:/fchai/work/i-cube/I-CUBE-HUAWEI/Middlewares/Third_Party/Huawei/iot_link/oc/oc_mqtt/oc_mqtt_tiny_v5\oc_mqtt_tiny.c ****             cb->config.security.u.cert.client_ca = (uint8_t *)mem_buf;
 512:D:/fchai/work/i-cube/I-CUBE-HUAWEI/Middlewares/Third_Party/Huawei/iot_link/oc/oc_mqtt/oc_mqtt_tiny_v5\oc_mqtt_tiny.c ****             mem_buf += config->security.u.cert.client_ca_len;
 513:D:/fchai/work/i-cube/I-CUBE-HUAWEI/Middlewares/Third_Party/Huawei/iot_link/oc/oc_mqtt/oc_mqtt_tiny_v5\oc_mqtt_tiny.c ****         }
 514:D:/fchai/work/i-cube/I-CUBE-HUAWEI/Middlewares/Third_Party/Huawei/iot_link/oc/oc_mqtt/oc_mqtt_tiny_v5\oc_mqtt_tiny.c **** 
 515:D:/fchai/work/i-cube/I-CUBE-HUAWEI/Middlewares/Third_Party/Huawei/iot_link/oc/oc_mqtt/oc_mqtt_tiny_v5\oc_mqtt_tiny.c ****         if ( 0 != config->security.u.cert.client_pk_len)
 516:D:/fchai/work/i-cube/I-CUBE-HUAWEI/Middlewares/Third_Party/Huawei/iot_link/oc/oc_mqtt/oc_mqtt_tiny_v5\oc_mqtt_tiny.c ****         {
 517:D:/fchai/work/i-cube/I-CUBE-HUAWEI/Middlewares/Third_Party/Huawei/iot_link/oc/oc_mqtt/oc_mqtt_tiny_v5\oc_mqtt_tiny.c ****             cb->config.security.u.cert.client_pk_len =  config->security.u.cert.client_pk_len;
 518:D:/fchai/work/i-cube/I-CUBE-HUAWEI/Middlewares/Third_Party/Huawei/iot_link/oc/oc_mqtt/oc_mqtt_tiny_v5\oc_mqtt_tiny.c ****             (void) memcpy( mem_buf, config->security.u.cert.client_pk, config->security.u.cert.clie
 519:D:/fchai/work/i-cube/I-CUBE-HUAWEI/Middlewares/Third_Party/Huawei/iot_link/oc/oc_mqtt/oc_mqtt_tiny_v5\oc_mqtt_tiny.c ****             cb->config.security.u.cert.client_pk = (uint8_t *)mem_buf;
 520:D:/fchai/work/i-cube/I-CUBE-HUAWEI/Middlewares/Third_Party/Huawei/iot_link/oc/oc_mqtt/oc_mqtt_tiny_v5\oc_mqtt_tiny.c ****             mem_buf += config->security.u.cert.client_pk_len;
 521:D:/fchai/work/i-cube/I-CUBE-HUAWEI/Middlewares/Third_Party/Huawei/iot_link/oc/oc_mqtt/oc_mqtt_tiny_v5\oc_mqtt_tiny.c ****         }
 522:D:/fchai/work/i-cube/I-CUBE-HUAWEI/Middlewares/Third_Party/Huawei/iot_link/oc/oc_mqtt/oc_mqtt_tiny_v5\oc_mqtt_tiny.c **** 
 523:D:/fchai/work/i-cube/I-CUBE-HUAWEI/Middlewares/Third_Party/Huawei/iot_link/oc/oc_mqtt/oc_mqtt_tiny_v5\oc_mqtt_tiny.c ****         if ( 0 != config->security.u.cert.client_pk_pwd_len)
 524:D:/fchai/work/i-cube/I-CUBE-HUAWEI/Middlewares/Third_Party/Huawei/iot_link/oc/oc_mqtt/oc_mqtt_tiny_v5\oc_mqtt_tiny.c ****         {
 525:D:/fchai/work/i-cube/I-CUBE-HUAWEI/Middlewares/Third_Party/Huawei/iot_link/oc/oc_mqtt/oc_mqtt_tiny_v5\oc_mqtt_tiny.c ****             cb->config.security.u.cert.client_pk_pwd_len = config->security.u.cert.client_pk_pwd_le
 526:D:/fchai/work/i-cube/I-CUBE-HUAWEI/Middlewares/Third_Party/Huawei/iot_link/oc/oc_mqtt/oc_mqtt_tiny_v5\oc_mqtt_tiny.c ****             (void) memcpy( mem_buf, config->security.u.cert.client_pk_pwd, config->security.u.cert.
 527:D:/fchai/work/i-cube/I-CUBE-HUAWEI/Middlewares/Third_Party/Huawei/iot_link/oc/oc_mqtt/oc_mqtt_tiny_v5\oc_mqtt_tiny.c ****             cb->config.security.u.cert.client_pk_pwd = (uint8_t *)mem_buf;
 528:D:/fchai/work/i-cube/I-CUBE-HUAWEI/Middlewares/Third_Party/Huawei/iot_link/oc/oc_mqtt/oc_mqtt_tiny_v5\oc_mqtt_tiny.c ****         }
 529:D:/fchai/work/i-cube/I-CUBE-HUAWEI/Middlewares/Third_Party/Huawei/iot_link/oc/oc_mqtt/oc_mqtt_tiny_v5\oc_mqtt_tiny.c ****     }
 530:D:/fchai/work/i-cube/I-CUBE-HUAWEI/Middlewares/Third_Party/Huawei/iot_link/oc/oc_mqtt/oc_mqtt_tiny_v5\oc_mqtt_tiny.c **** 
 531:D:/fchai/work/i-cube/I-CUBE-HUAWEI/Middlewares/Third_Party/Huawei/iot_link/oc/oc_mqtt/oc_mqtt_tiny_v5\oc_mqtt_tiny.c ****     unsigned int i = 0;
 532:D:/fchai/work/i-cube/I-CUBE-HUAWEI/Middlewares/Third_Party/Huawei/iot_link/oc/oc_mqtt/oc_mqtt_tiny_v5\oc_mqtt_tiny.c ****     for(i = 0;i < CN_NEW_TOPIC_NUM;i++)
 533:D:/fchai/work/i-cube/I-CUBE-HUAWEI/Middlewares/Third_Party/Huawei/iot_link/oc/oc_mqtt/oc_mqtt_tiny_v5\oc_mqtt_tiny.c ****     {
 534:D:/fchai/work/i-cube/I-CUBE-HUAWEI/Middlewares/Third_Party/Huawei/iot_link/oc/oc_mqtt/oc_mqtt_tiny_v5\oc_mqtt_tiny.c ****         cb->hub_sub_topic[i] = topic_fmt(s_new_topic_fmt[i],(const char *)cb->config.id);
 535:D:/fchai/work/i-cube/I-CUBE-HUAWEI/Middlewares/Third_Party/Huawei/iot_link/oc/oc_mqtt/oc_mqtt_tiny_v5\oc_mqtt_tiny.c ****         if(NULL == cb->hub_sub_topic[i])
 536:D:/fchai/work/i-cube/I-CUBE-HUAWEI/Middlewares/Third_Party/Huawei/iot_link/oc/oc_mqtt/oc_mqtt_tiny_v5\oc_mqtt_tiny.c ****         {
 537:D:/fchai/work/i-cube/I-CUBE-HUAWEI/Middlewares/Third_Party/Huawei/iot_link/oc/oc_mqtt/oc_mqtt_tiny_v5\oc_mqtt_tiny.c ****             (void)config_parameter_release(cb);
 538:D:/fchai/work/i-cube/I-CUBE-HUAWEI/Middlewares/Third_Party/Huawei/iot_link/oc/oc_mqtt/oc_mqtt_tiny_v5\oc_mqtt_tiny.c ****             ret = (int)en_oc_mqtt_err_sysmem;
 539:D:/fchai/work/i-cube/I-CUBE-HUAWEI/Middlewares/Third_Party/Huawei/iot_link/oc/oc_mqtt/oc_mqtt_tiny_v5\oc_mqtt_tiny.c ****             return ret;
 540:D:/fchai/work/i-cube/I-CUBE-HUAWEI/Middlewares/Third_Party/Huawei/iot_link/oc/oc_mqtt/oc_mqtt_tiny_v5\oc_mqtt_tiny.c ****         }
 541:D:/fchai/work/i-cube/I-CUBE-HUAWEI/Middlewares/Third_Party/Huawei/iot_link/oc/oc_mqtt/oc_mqtt_tiny_v5\oc_mqtt_tiny.c ****     }
 542:D:/fchai/work/i-cube/I-CUBE-HUAWEI/Middlewares/Third_Party/Huawei/iot_link/oc/oc_mqtt/oc_mqtt_tiny_v5\oc_mqtt_tiny.c **** 
 543:D:/fchai/work/i-cube/I-CUBE-HUAWEI/Middlewares/Third_Party/Huawei/iot_link/oc/oc_mqtt/oc_mqtt_tiny_v5\oc_mqtt_tiny.c ****     ret = (int)en_oc_mqtt_err_ok;
 544:D:/fchai/work/i-cube/I-CUBE-HUAWEI/Middlewares/Third_Party/Huawei/iot_link/oc/oc_mqtt/oc_mqtt_tiny_v5\oc_mqtt_tiny.c ****     return ret;
 545:D:/fchai/work/i-cube/I-CUBE-HUAWEI/Middlewares/Third_Party/Huawei/iot_link/oc/oc_mqtt/oc_mqtt_tiny_v5\oc_mqtt_tiny.c **** }
 546:D:/fchai/work/i-cube/I-CUBE-HUAWEI/Middlewares/Third_Party/Huawei/iot_link/oc/oc_mqtt/oc_mqtt_tiny_v5\oc_mqtt_tiny.c **** 
 547:D:/fchai/work/i-cube/I-CUBE-HUAWEI/Middlewares/Third_Party/Huawei/iot_link/oc/oc_mqtt/oc_mqtt_tiny_v5\oc_mqtt_tiny.c **** 
 548:D:/fchai/work/i-cube/I-CUBE-HUAWEI/Middlewares/Third_Party/Huawei/iot_link/oc/oc_mqtt/oc_mqtt_tiny_v5\oc_mqtt_tiny.c **** ///< generate the client_id user pwd for the mqtt need
 549:D:/fchai/work/i-cube/I-CUBE-HUAWEI/Middlewares/Third_Party/Huawei/iot_link/oc/oc_mqtt/oc_mqtt_tiny_v5\oc_mqtt_tiny.c **** static int oc_mqtt_para_release(oc_mqtt_tiny_cb_t *cb)
 550:D:/fchai/work/i-cube/I-CUBE-HUAWEI/Middlewares/Third_Party/Huawei/iot_link/oc/oc_mqtt/oc_mqtt_tiny_v5\oc_mqtt_tiny.c **** {
 551:D:/fchai/work/i-cube/I-CUBE-HUAWEI/Middlewares/Third_Party/Huawei/iot_link/oc/oc_mqtt/oc_mqtt_tiny_v5\oc_mqtt_tiny.c ****     (void)mqtt_al_disconnect(cb->mqtt_para.mqtt_handle);
 552:D:/fchai/work/i-cube/I-CUBE-HUAWEI/Middlewares/Third_Party/Huawei/iot_link/oc/oc_mqtt/oc_mqtt_tiny_v5\oc_mqtt_tiny.c ****     osal_free(cb->mqtt_para.mqtt_clientid);
 553:D:/fchai/work/i-cube/I-CUBE-HUAWEI/Middlewares/Third_Party/Huawei/iot_link/oc/oc_mqtt/oc_mqtt_tiny_v5\oc_mqtt_tiny.c ****     osal_free(cb->mqtt_para.mqtt_user);
 554:D:/fchai/work/i-cube/I-CUBE-HUAWEI/Middlewares/Third_Party/Huawei/iot_link/oc/oc_mqtt/oc_mqtt_tiny_v5\oc_mqtt_tiny.c ****     osal_free(cb->mqtt_para.mqtt_passwd);
 555:D:/fchai/work/i-cube/I-CUBE-HUAWEI/Middlewares/Third_Party/Huawei/iot_link/oc/oc_mqtt/oc_mqtt_tiny_v5\oc_mqtt_tiny.c ****     osal_free(cb->mqtt_para.default_pub_topic);
 556:D:/fchai/work/i-cube/I-CUBE-HUAWEI/Middlewares/Third_Party/Huawei/iot_link/oc/oc_mqtt/oc_mqtt_tiny_v5\oc_mqtt_tiny.c ****     osal_free(cb->mqtt_para.default_sub_topic);
 557:D:/fchai/work/i-cube/I-CUBE-HUAWEI/Middlewares/Third_Party/Huawei/iot_link/oc/oc_mqtt/oc_mqtt_tiny_v5\oc_mqtt_tiny.c **** 
 558:D:/fchai/work/i-cube/I-CUBE-HUAWEI/Middlewares/Third_Party/Huawei/iot_link/oc/oc_mqtt/oc_mqtt_tiny_v5\oc_mqtt_tiny.c ****     (void) memset(&cb->mqtt_para,0,sizeof(oc_mqtt_para_t));
 559:D:/fchai/work/i-cube/I-CUBE-HUAWEI/Middlewares/Third_Party/Huawei/iot_link/oc/oc_mqtt/oc_mqtt_tiny_v5\oc_mqtt_tiny.c **** 
 560:D:/fchai/work/i-cube/I-CUBE-HUAWEI/Middlewares/Third_Party/Huawei/iot_link/oc/oc_mqtt/oc_mqtt_tiny_v5\oc_mqtt_tiny.c ****     return 0;
 561:D:/fchai/work/i-cube/I-CUBE-HUAWEI/Middlewares/Third_Party/Huawei/iot_link/oc/oc_mqtt/oc_mqtt_tiny_v5\oc_mqtt_tiny.c **** }
 562:D:/fchai/work/i-cube/I-CUBE-HUAWEI/Middlewares/Third_Party/Huawei/iot_link/oc/oc_mqtt/oc_mqtt_tiny_v5\oc_mqtt_tiny.c **** 
 563:D:/fchai/work/i-cube/I-CUBE-HUAWEI/Middlewares/Third_Party/Huawei/iot_link/oc/oc_mqtt/oc_mqtt_tiny_v5\oc_mqtt_tiny.c **** static int oc_mqtt_para_gernerate(oc_mqtt_tiny_cb_t *cb)
 564:D:/fchai/work/i-cube/I-CUBE-HUAWEI/Middlewares/Third_Party/Huawei/iot_link/oc/oc_mqtt/oc_mqtt_tiny_v5\oc_mqtt_tiny.c **** {
 565:D:/fchai/work/i-cube/I-CUBE-HUAWEI/Middlewares/Third_Party/Huawei/iot_link/oc/oc_mqtt/oc_mqtt_tiny_v5\oc_mqtt_tiny.c ****     int ret = (int)en_oc_mqtt_err_ok;
 566:D:/fchai/work/i-cube/I-CUBE-HUAWEI/Middlewares/Third_Party/Huawei/iot_link/oc/oc_mqtt/oc_mqtt_tiny_v5\oc_mqtt_tiny.c ****     int group_mode = 0;
ARM GAS  T:\msys\tmp\ccOGKCS9.s 			page 17


 567:D:/fchai/work/i-cube/I-CUBE-HUAWEI/Middlewares/Third_Party/Huawei/iot_link/oc/oc_mqtt/oc_mqtt_tiny_v5\oc_mqtt_tiny.c ****     uint8_t hmac[CN_HMAC_LEN] = {0};
 568:D:/fchai/work/i-cube/I-CUBE-HUAWEI/Middlewares/Third_Party/Huawei/iot_link/oc/oc_mqtt/oc_mqtt_tiny_v5\oc_mqtt_tiny.c ****     struct tm *date;
 569:D:/fchai/work/i-cube/I-CUBE-HUAWEI/Middlewares/Third_Party/Huawei/iot_link/oc/oc_mqtt/oc_mqtt_tiny_v5\oc_mqtt_tiny.c ****     time_t time_now;
 570:D:/fchai/work/i-cube/I-CUBE-HUAWEI/Middlewares/Third_Party/Huawei/iot_link/oc/oc_mqtt/oc_mqtt_tiny_v5\oc_mqtt_tiny.c **** 
 571:D:/fchai/work/i-cube/I-CUBE-HUAWEI/Middlewares/Third_Party/Huawei/iot_link/oc/oc_mqtt/oc_mqtt_tiny_v5\oc_mqtt_tiny.c ****     time_now = osal_sys_time()/1000;
 572:D:/fchai/work/i-cube/I-CUBE-HUAWEI/Middlewares/Third_Party/Huawei/iot_link/oc/oc_mqtt/oc_mqtt_tiny_v5\oc_mqtt_tiny.c ****     date = gmtime(&time_now);
 573:D:/fchai/work/i-cube/I-CUBE-HUAWEI/Middlewares/Third_Party/Huawei/iot_link/oc/oc_mqtt/oc_mqtt_tiny_v5\oc_mqtt_tiny.c ****     if(NULL == date)
 574:D:/fchai/work/i-cube/I-CUBE-HUAWEI/Middlewares/Third_Party/Huawei/iot_link/oc/oc_mqtt/oc_mqtt_tiny_v5\oc_mqtt_tiny.c ****     {
 575:D:/fchai/work/i-cube/I-CUBE-HUAWEI/Middlewares/Third_Party/Huawei/iot_link/oc/oc_mqtt/oc_mqtt_tiny_v5\oc_mqtt_tiny.c ****         return ret;
 576:D:/fchai/work/i-cube/I-CUBE-HUAWEI/Middlewares/Third_Party/Huawei/iot_link/oc/oc_mqtt/oc_mqtt_tiny_v5\oc_mqtt_tiny.c ****     }
 577:D:/fchai/work/i-cube/I-CUBE-HUAWEI/Middlewares/Third_Party/Huawei/iot_link/oc/oc_mqtt/oc_mqtt_tiny_v5\oc_mqtt_tiny.c **** 
 578:D:/fchai/work/i-cube/I-CUBE-HUAWEI/Middlewares/Third_Party/Huawei/iot_link/oc/oc_mqtt/oc_mqtt_tiny_v5\oc_mqtt_tiny.c ****     (void) snprintf(cb->salt_time,11,"%04d%02d%02d%02d",date->tm_year+1900,\
 579:D:/fchai/work/i-cube/I-CUBE-HUAWEI/Middlewares/Third_Party/Huawei/iot_link/oc/oc_mqtt/oc_mqtt_tiny_v5\oc_mqtt_tiny.c ****             date->tm_mon,date->tm_mday,date->tm_hour);
 580:D:/fchai/work/i-cube/I-CUBE-HUAWEI/Middlewares/Third_Party/Huawei/iot_link/oc/oc_mqtt/oc_mqtt_tiny_v5\oc_mqtt_tiny.c **** 
 581:D:/fchai/work/i-cube/I-CUBE-HUAWEI/Middlewares/Third_Party/Huawei/iot_link/oc/oc_mqtt/oc_mqtt_tiny_v5\oc_mqtt_tiny.c ****     (void) oc_mqtt_para_release(cb);         ///< try to free all the resource we have built
 582:D:/fchai/work/i-cube/I-CUBE-HUAWEI/Middlewares/Third_Party/Huawei/iot_link/oc/oc_mqtt/oc_mqtt_tiny_v5\oc_mqtt_tiny.c **** 
 583:D:/fchai/work/i-cube/I-CUBE-HUAWEI/Middlewares/Third_Party/Huawei/iot_link/oc/oc_mqtt/oc_mqtt_tiny_v5\oc_mqtt_tiny.c ****     cb->mqtt_para.mqtt_user = osal_strdup(cb->config.id);
 584:D:/fchai/work/i-cube/I-CUBE-HUAWEI/Middlewares/Third_Party/Huawei/iot_link/oc/oc_mqtt/oc_mqtt_tiny_v5\oc_mqtt_tiny.c ****     if(NULL == cb->mqtt_para.mqtt_user)
 585:D:/fchai/work/i-cube/I-CUBE-HUAWEI/Middlewares/Third_Party/Huawei/iot_link/oc/oc_mqtt/oc_mqtt_tiny_v5\oc_mqtt_tiny.c ****     {
 586:D:/fchai/work/i-cube/I-CUBE-HUAWEI/Middlewares/Third_Party/Huawei/iot_link/oc/oc_mqtt/oc_mqtt_tiny_v5\oc_mqtt_tiny.c ****         goto EXIT_MEM;
 587:D:/fchai/work/i-cube/I-CUBE-HUAWEI/Middlewares/Third_Party/Huawei/iot_link/oc/oc_mqtt/oc_mqtt_tiny_v5\oc_mqtt_tiny.c ****     }
 588:D:/fchai/work/i-cube/I-CUBE-HUAWEI/Middlewares/Third_Party/Huawei/iot_link/oc/oc_mqtt/oc_mqtt_tiny_v5\oc_mqtt_tiny.c **** 
 589:D:/fchai/work/i-cube/I-CUBE-HUAWEI/Middlewares/Third_Party/Huawei/iot_link/oc/oc_mqtt/oc_mqtt_tiny_v5\oc_mqtt_tiny.c ****     if(NULL != cb->config.pwd)
 590:D:/fchai/work/i-cube/I-CUBE-HUAWEI/Middlewares/Third_Party/Huawei/iot_link/oc/oc_mqtt/oc_mqtt_tiny_v5\oc_mqtt_tiny.c ****     {
 591:D:/fchai/work/i-cube/I-CUBE-HUAWEI/Middlewares/Third_Party/Huawei/iot_link/oc/oc_mqtt/oc_mqtt_tiny_v5\oc_mqtt_tiny.c ****         (void) hmac_generate_passwd(cb->config.pwd,strlen(cb->config.pwd),\
 592:D:/fchai/work/i-cube/I-CUBE-HUAWEI/Middlewares/Third_Party/Huawei/iot_link/oc/oc_mqtt/oc_mqtt_tiny_v5\oc_mqtt_tiny.c ****                 cb->salt_time,strlen(cb->salt_time),hmac,sizeof(hmac));
 593:D:/fchai/work/i-cube/I-CUBE-HUAWEI/Middlewares/Third_Party/Huawei/iot_link/oc/oc_mqtt/oc_mqtt_tiny_v5\oc_mqtt_tiny.c ****         cb->mqtt_para.mqtt_passwd = osal_malloc(CN_HMAC_LEN*2+1);
 594:D:/fchai/work/i-cube/I-CUBE-HUAWEI/Middlewares/Third_Party/Huawei/iot_link/oc/oc_mqtt/oc_mqtt_tiny_v5\oc_mqtt_tiny.c ****         if(NULL != cb->mqtt_para.mqtt_passwd)
 595:D:/fchai/work/i-cube/I-CUBE-HUAWEI/Middlewares/Third_Party/Huawei/iot_link/oc/oc_mqtt/oc_mqtt_tiny_v5\oc_mqtt_tiny.c ****         {
 596:D:/fchai/work/i-cube/I-CUBE-HUAWEI/Middlewares/Third_Party/Huawei/iot_link/oc/oc_mqtt/oc_mqtt_tiny_v5\oc_mqtt_tiny.c ****             (void)byte2hexstr(hmac,CN_HMAC_LEN,cb->mqtt_para.mqtt_passwd);
 597:D:/fchai/work/i-cube/I-CUBE-HUAWEI/Middlewares/Third_Party/Huawei/iot_link/oc/oc_mqtt/oc_mqtt_tiny_v5\oc_mqtt_tiny.c ****         }
 598:D:/fchai/work/i-cube/I-CUBE-HUAWEI/Middlewares/Third_Party/Huawei/iot_link/oc/oc_mqtt/oc_mqtt_tiny_v5\oc_mqtt_tiny.c ****         else
 599:D:/fchai/work/i-cube/I-CUBE-HUAWEI/Middlewares/Third_Party/Huawei/iot_link/oc/oc_mqtt/oc_mqtt_tiny_v5\oc_mqtt_tiny.c ****         {
 600:D:/fchai/work/i-cube/I-CUBE-HUAWEI/Middlewares/Third_Party/Huawei/iot_link/oc/oc_mqtt/oc_mqtt_tiny_v5\oc_mqtt_tiny.c ****             goto EXIT_MEM;
 601:D:/fchai/work/i-cube/I-CUBE-HUAWEI/Middlewares/Third_Party/Huawei/iot_link/oc/oc_mqtt/oc_mqtt_tiny_v5\oc_mqtt_tiny.c ****         }
 602:D:/fchai/work/i-cube/I-CUBE-HUAWEI/Middlewares/Third_Party/Huawei/iot_link/oc/oc_mqtt/oc_mqtt_tiny_v5\oc_mqtt_tiny.c ****     }
 603:D:/fchai/work/i-cube/I-CUBE-HUAWEI/Middlewares/Third_Party/Huawei/iot_link/oc/oc_mqtt/oc_mqtt_tiny_v5\oc_mqtt_tiny.c ****     else
 604:D:/fchai/work/i-cube/I-CUBE-HUAWEI/Middlewares/Third_Party/Huawei/iot_link/oc/oc_mqtt/oc_mqtt_tiny_v5\oc_mqtt_tiny.c ****     {
 605:D:/fchai/work/i-cube/I-CUBE-HUAWEI/Middlewares/Third_Party/Huawei/iot_link/oc/oc_mqtt/oc_mqtt_tiny_v5\oc_mqtt_tiny.c ****         cb->mqtt_para.mqtt_passwd = NULL;
 606:D:/fchai/work/i-cube/I-CUBE-HUAWEI/Middlewares/Third_Party/Huawei/iot_link/oc/oc_mqtt/oc_mqtt_tiny_v5\oc_mqtt_tiny.c ****     }
 607:D:/fchai/work/i-cube/I-CUBE-HUAWEI/Middlewares/Third_Party/Huawei/iot_link/oc/oc_mqtt/oc_mqtt_tiny_v5\oc_mqtt_tiny.c **** 
 608:D:/fchai/work/i-cube/I-CUBE-HUAWEI/Middlewares/Third_Party/Huawei/iot_link/oc/oc_mqtt/oc_mqtt_tiny_v5\oc_mqtt_tiny.c **** 
 609:D:/fchai/work/i-cube/I-CUBE-HUAWEI/Middlewares/Third_Party/Huawei/iot_link/oc/oc_mqtt/oc_mqtt_tiny_v5\oc_mqtt_tiny.c ****     if(cb->flag.bits.bit_daemon_status == (int)en_daemon_status_bs_getaddr)
 610:D:/fchai/work/i-cube/I-CUBE-HUAWEI/Middlewares/Third_Party/Huawei/iot_link/oc/oc_mqtt/oc_mqtt_tiny_v5\oc_mqtt_tiny.c ****     {
 611:D:/fchai/work/i-cube/I-CUBE-HUAWEI/Middlewares/Third_Party/Huawei/iot_link/oc/oc_mqtt/oc_mqtt_tiny_v5\oc_mqtt_tiny.c ****         if(NULL != cb->config.scope_id)
 612:D:/fchai/work/i-cube/I-CUBE-HUAWEI/Middlewares/Third_Party/Huawei/iot_link/oc/oc_mqtt/oc_mqtt_tiny_v5\oc_mqtt_tiny.c ****         {
 613:D:/fchai/work/i-cube/I-CUBE-HUAWEI/Middlewares/Third_Party/Huawei/iot_link/oc/oc_mqtt/oc_mqtt_tiny_v5\oc_mqtt_tiny.c ****             group_mode = 1;
 614:D:/fchai/work/i-cube/I-CUBE-HUAWEI/Middlewares/Third_Party/Huawei/iot_link/oc/oc_mqtt/oc_mqtt_tiny_v5\oc_mqtt_tiny.c ****         }
 615:D:/fchai/work/i-cube/I-CUBE-HUAWEI/Middlewares/Third_Party/Huawei/iot_link/oc/oc_mqtt/oc_mqtt_tiny_v5\oc_mqtt_tiny.c ****         cb->mqtt_para.default_pub_topic = topic_fmt(CN_OC_BS_REPORT_TOPIC_FMT,(const char *)cb->con
 616:D:/fchai/work/i-cube/I-CUBE-HUAWEI/Middlewares/Third_Party/Huawei/iot_link/oc/oc_mqtt/oc_mqtt_tiny_v5\oc_mqtt_tiny.c ****         cb->mqtt_para.default_sub_topic = topic_fmt(CN_OC_BS_CMD_TOPIC_FMT,(const char *)cb->config
 617:D:/fchai/work/i-cube/I-CUBE-HUAWEI/Middlewares/Third_Party/Huawei/iot_link/oc/oc_mqtt/oc_mqtt_tiny_v5\oc_mqtt_tiny.c ****         cb->mqtt_para.default_msg_deal = bs_msg_default_deal;
 618:D:/fchai/work/i-cube/I-CUBE-HUAWEI/Middlewares/Third_Party/Huawei/iot_link/oc/oc_mqtt/oc_mqtt_tiny_v5\oc_mqtt_tiny.c ****         if((NULL == cb->mqtt_para.default_pub_topic) || \
 619:D:/fchai/work/i-cube/I-CUBE-HUAWEI/Middlewares/Third_Party/Huawei/iot_link/oc/oc_mqtt/oc_mqtt_tiny_v5\oc_mqtt_tiny.c ****                 (NULL == cb->mqtt_para.default_sub_topic))
 620:D:/fchai/work/i-cube/I-CUBE-HUAWEI/Middlewares/Third_Party/Huawei/iot_link/oc/oc_mqtt/oc_mqtt_tiny_v5\oc_mqtt_tiny.c ****         {
 621:D:/fchai/work/i-cube/I-CUBE-HUAWEI/Middlewares/Third_Party/Huawei/iot_link/oc/oc_mqtt/oc_mqtt_tiny_v5\oc_mqtt_tiny.c ****             goto EXIT_MEM;
 622:D:/fchai/work/i-cube/I-CUBE-HUAWEI/Middlewares/Third_Party/Huawei/iot_link/oc/oc_mqtt/oc_mqtt_tiny_v5\oc_mqtt_tiny.c ****         }
 623:D:/fchai/work/i-cube/I-CUBE-HUAWEI/Middlewares/Third_Party/Huawei/iot_link/oc/oc_mqtt/oc_mqtt_tiny_v5\oc_mqtt_tiny.c ****     }
ARM GAS  T:\msys\tmp\ccOGKCS9.s 			page 18


 624:D:/fchai/work/i-cube/I-CUBE-HUAWEI/Middlewares/Third_Party/Huawei/iot_link/oc/oc_mqtt/oc_mqtt_tiny_v5\oc_mqtt_tiny.c ****     else
 625:D:/fchai/work/i-cube/I-CUBE-HUAWEI/Middlewares/Third_Party/Huawei/iot_link/oc/oc_mqtt/oc_mqtt_tiny_v5\oc_mqtt_tiny.c ****     {
 626:D:/fchai/work/i-cube/I-CUBE-HUAWEI/Middlewares/Third_Party/Huawei/iot_link/oc/oc_mqtt/oc_mqtt_tiny_v5\oc_mqtt_tiny.c **** 
 627:D:/fchai/work/i-cube/I-CUBE-HUAWEI/Middlewares/Third_Party/Huawei/iot_link/oc/oc_mqtt/oc_mqtt_tiny_v5\oc_mqtt_tiny.c ****         cb->mqtt_para.default_pub_topic = topic_fmt(CN_OC_HUB_PUBTOPIC_DEFAULT_FMT,(const char *)cb
 628:D:/fchai/work/i-cube/I-CUBE-HUAWEI/Middlewares/Third_Party/Huawei/iot_link/oc/oc_mqtt/oc_mqtt_tiny_v5\oc_mqtt_tiny.c ****         cb->mqtt_para.default_sub_topic = topic_fmt(CN_OC_HUB_SUBTOPIC_DEFAULT_FMT,(const char *)cb
 629:D:/fchai/work/i-cube/I-CUBE-HUAWEI/Middlewares/Third_Party/Huawei/iot_link/oc/oc_mqtt/oc_mqtt_tiny_v5\oc_mqtt_tiny.c ****         cb->mqtt_para.default_msg_deal = hub_msg_default_deal;
 630:D:/fchai/work/i-cube/I-CUBE-HUAWEI/Middlewares/Third_Party/Huawei/iot_link/oc/oc_mqtt/oc_mqtt_tiny_v5\oc_mqtt_tiny.c ****         if((NULL == cb->mqtt_para.default_pub_topic) || \
 631:D:/fchai/work/i-cube/I-CUBE-HUAWEI/Middlewares/Third_Party/Huawei/iot_link/oc/oc_mqtt/oc_mqtt_tiny_v5\oc_mqtt_tiny.c ****                 (NULL == cb->mqtt_para.default_sub_topic))
 632:D:/fchai/work/i-cube/I-CUBE-HUAWEI/Middlewares/Third_Party/Huawei/iot_link/oc/oc_mqtt/oc_mqtt_tiny_v5\oc_mqtt_tiny.c ****         {
 633:D:/fchai/work/i-cube/I-CUBE-HUAWEI/Middlewares/Third_Party/Huawei/iot_link/oc/oc_mqtt/oc_mqtt_tiny_v5\oc_mqtt_tiny.c ****             goto EXIT_MEM;
 634:D:/fchai/work/i-cube/I-CUBE-HUAWEI/Middlewares/Third_Party/Huawei/iot_link/oc/oc_mqtt/oc_mqtt_tiny_v5\oc_mqtt_tiny.c ****         }
 635:D:/fchai/work/i-cube/I-CUBE-HUAWEI/Middlewares/Third_Party/Huawei/iot_link/oc/oc_mqtt/oc_mqtt_tiny_v5\oc_mqtt_tiny.c ****     }
 636:D:/fchai/work/i-cube/I-CUBE-HUAWEI/Middlewares/Third_Party/Huawei/iot_link/oc/oc_mqtt/oc_mqtt_tiny_v5\oc_mqtt_tiny.c **** 
 637:D:/fchai/work/i-cube/I-CUBE-HUAWEI/Middlewares/Third_Party/Huawei/iot_link/oc/oc_mqtt/oc_mqtt_tiny_v5\oc_mqtt_tiny.c ****     cb->mqtt_para.mqtt_clientid = clientid_fmt((const char *)cb->config.id,(const char *)cb->salt_t
 638:D:/fchai/work/i-cube/I-CUBE-HUAWEI/Middlewares/Third_Party/Huawei/iot_link/oc/oc_mqtt/oc_mqtt_tiny_v5\oc_mqtt_tiny.c ****     if(NULL == cb->mqtt_para.mqtt_clientid)
 639:D:/fchai/work/i-cube/I-CUBE-HUAWEI/Middlewares/Third_Party/Huawei/iot_link/oc/oc_mqtt/oc_mqtt_tiny_v5\oc_mqtt_tiny.c ****     {
 640:D:/fchai/work/i-cube/I-CUBE-HUAWEI/Middlewares/Third_Party/Huawei/iot_link/oc/oc_mqtt/oc_mqtt_tiny_v5\oc_mqtt_tiny.c ****         goto EXIT_MEM;
 641:D:/fchai/work/i-cube/I-CUBE-HUAWEI/Middlewares/Third_Party/Huawei/iot_link/oc/oc_mqtt/oc_mqtt_tiny_v5\oc_mqtt_tiny.c ****     }
 642:D:/fchai/work/i-cube/I-CUBE-HUAWEI/Middlewares/Third_Party/Huawei/iot_link/oc/oc_mqtt/oc_mqtt_tiny_v5\oc_mqtt_tiny.c **** 
 643:D:/fchai/work/i-cube/I-CUBE-HUAWEI/Middlewares/Third_Party/Huawei/iot_link/oc/oc_mqtt/oc_mqtt_tiny_v5\oc_mqtt_tiny.c ****     if(cb->flag.bits.bit_bs_enable && ((cb->flag.bits.bit_daemon_status == (int)en_daemon_status_hu
 644:D:/fchai/work/i-cube/I-CUBE-HUAWEI/Middlewares/Third_Party/Huawei/iot_link/oc/oc_mqtt/oc_mqtt_tiny_v5\oc_mqtt_tiny.c ****             (cb->flag.bits.bit_daemon_status == (int)en_daemon_status_dmp_connecting)))
 645:D:/fchai/work/i-cube/I-CUBE-HUAWEI/Middlewares/Third_Party/Huawei/iot_link/oc/oc_mqtt/oc_mqtt_tiny_v5\oc_mqtt_tiny.c ****     {
 646:D:/fchai/work/i-cube/I-CUBE-HUAWEI/Middlewares/Third_Party/Huawei/iot_link/oc/oc_mqtt/oc_mqtt_tiny_v5\oc_mqtt_tiny.c ****         cb->mqtt_para.server_addr = cb->bs_cb.hubserver_addr;
 647:D:/fchai/work/i-cube/I-CUBE-HUAWEI/Middlewares/Third_Party/Huawei/iot_link/oc/oc_mqtt/oc_mqtt_tiny_v5\oc_mqtt_tiny.c ****         cb->mqtt_para.server_port = cb->bs_cb.hubserver_port;
 648:D:/fchai/work/i-cube/I-CUBE-HUAWEI/Middlewares/Third_Party/Huawei/iot_link/oc/oc_mqtt/oc_mqtt_tiny_v5\oc_mqtt_tiny.c ****     }
 649:D:/fchai/work/i-cube/I-CUBE-HUAWEI/Middlewares/Third_Party/Huawei/iot_link/oc/oc_mqtt/oc_mqtt_tiny_v5\oc_mqtt_tiny.c ****     else
 650:D:/fchai/work/i-cube/I-CUBE-HUAWEI/Middlewares/Third_Party/Huawei/iot_link/oc/oc_mqtt/oc_mqtt_tiny_v5\oc_mqtt_tiny.c ****     {
 651:D:/fchai/work/i-cube/I-CUBE-HUAWEI/Middlewares/Third_Party/Huawei/iot_link/oc/oc_mqtt/oc_mqtt_tiny_v5\oc_mqtt_tiny.c ****         cb->mqtt_para.server_addr = cb->config.server_addr;
 652:D:/fchai/work/i-cube/I-CUBE-HUAWEI/Middlewares/Third_Party/Huawei/iot_link/oc/oc_mqtt/oc_mqtt_tiny_v5\oc_mqtt_tiny.c ****         cb->mqtt_para.server_port = cb->config.server_port;
 653:D:/fchai/work/i-cube/I-CUBE-HUAWEI/Middlewares/Third_Party/Huawei/iot_link/oc/oc_mqtt/oc_mqtt_tiny_v5\oc_mqtt_tiny.c ****     }
 654:D:/fchai/work/i-cube/I-CUBE-HUAWEI/Middlewares/Third_Party/Huawei/iot_link/oc/oc_mqtt/oc_mqtt_tiny_v5\oc_mqtt_tiny.c ****     if((NULL == cb->mqtt_para.server_addr ) || \
 655:D:/fchai/work/i-cube/I-CUBE-HUAWEI/Middlewares/Third_Party/Huawei/iot_link/oc/oc_mqtt/oc_mqtt_tiny_v5\oc_mqtt_tiny.c ****        (NULL == cb->mqtt_para.server_port ))
 656:D:/fchai/work/i-cube/I-CUBE-HUAWEI/Middlewares/Third_Party/Huawei/iot_link/oc/oc_mqtt/oc_mqtt_tiny_v5\oc_mqtt_tiny.c ****     {
 657:D:/fchai/work/i-cube/I-CUBE-HUAWEI/Middlewares/Third_Party/Huawei/iot_link/oc/oc_mqtt/oc_mqtt_tiny_v5\oc_mqtt_tiny.c ****         goto EXIT_MEM;
 658:D:/fchai/work/i-cube/I-CUBE-HUAWEI/Middlewares/Third_Party/Huawei/iot_link/oc/oc_mqtt/oc_mqtt_tiny_v5\oc_mqtt_tiny.c ****     }
 659:D:/fchai/work/i-cube/I-CUBE-HUAWEI/Middlewares/Third_Party/Huawei/iot_link/oc/oc_mqtt/oc_mqtt_tiny_v5\oc_mqtt_tiny.c ****     return ret;
 660:D:/fchai/work/i-cube/I-CUBE-HUAWEI/Middlewares/Third_Party/Huawei/iot_link/oc/oc_mqtt/oc_mqtt_tiny_v5\oc_mqtt_tiny.c **** 
 661:D:/fchai/work/i-cube/I-CUBE-HUAWEI/Middlewares/Third_Party/Huawei/iot_link/oc/oc_mqtt/oc_mqtt_tiny_v5\oc_mqtt_tiny.c **** EXIT_MEM:
 662:D:/fchai/work/i-cube/I-CUBE-HUAWEI/Middlewares/Third_Party/Huawei/iot_link/oc/oc_mqtt/oc_mqtt_tiny_v5\oc_mqtt_tiny.c ****     (void) oc_mqtt_para_release(cb);
 663:D:/fchai/work/i-cube/I-CUBE-HUAWEI/Middlewares/Third_Party/Huawei/iot_link/oc/oc_mqtt/oc_mqtt_tiny_v5\oc_mqtt_tiny.c ****     ret = (int)en_oc_mqtt_err_sysmem;
 664:D:/fchai/work/i-cube/I-CUBE-HUAWEI/Middlewares/Third_Party/Huawei/iot_link/oc/oc_mqtt/oc_mqtt_tiny_v5\oc_mqtt_tiny.c ****     return ret;
 665:D:/fchai/work/i-cube/I-CUBE-HUAWEI/Middlewares/Third_Party/Huawei/iot_link/oc/oc_mqtt/oc_mqtt_tiny_v5\oc_mqtt_tiny.c **** }
 666:D:/fchai/work/i-cube/I-CUBE-HUAWEI/Middlewares/Third_Party/Huawei/iot_link/oc/oc_mqtt/oc_mqtt_tiny_v5\oc_mqtt_tiny.c **** 
 667:D:/fchai/work/i-cube/I-CUBE-HUAWEI/Middlewares/Third_Party/Huawei/iot_link/oc/oc_mqtt/oc_mqtt_tiny_v5\oc_mqtt_tiny.c **** 
 668:D:/fchai/work/i-cube/I-CUBE-HUAWEI/Middlewares/Third_Party/Huawei/iot_link/oc/oc_mqtt/oc_mqtt_tiny_v5\oc_mqtt_tiny.c **** ///< return the reason code defined by the mqtt_al.h
 669:D:/fchai/work/i-cube/I-CUBE-HUAWEI/Middlewares/Third_Party/Huawei/iot_link/oc/oc_mqtt/oc_mqtt_tiny_v5\oc_mqtt_tiny.c **** static int dmp_connect(oc_mqtt_tiny_cb_t *cb)
 670:D:/fchai/work/i-cube/I-CUBE-HUAWEI/Middlewares/Third_Party/Huawei/iot_link/oc/oc_mqtt/oc_mqtt_tiny_v5\oc_mqtt_tiny.c **** {
 671:D:/fchai/work/i-cube/I-CUBE-HUAWEI/Middlewares/Third_Party/Huawei/iot_link/oc/oc_mqtt/oc_mqtt_tiny_v5\oc_mqtt_tiny.c ****     int  ret = (int)en_oc_mqtt_err_system;
 672:D:/fchai/work/i-cube/I-CUBE-HUAWEI/Middlewares/Third_Party/Huawei/iot_link/oc/oc_mqtt/oc_mqtt_tiny_v5\oc_mqtt_tiny.c **** 
 673:D:/fchai/work/i-cube/I-CUBE-HUAWEI/Middlewares/Third_Party/Huawei/iot_link/oc/oc_mqtt/oc_mqtt_tiny_v5\oc_mqtt_tiny.c ****     mqtt_al_conpara_t conpara;
 674:D:/fchai/work/i-cube/I-CUBE-HUAWEI/Middlewares/Third_Party/Huawei/iot_link/oc/oc_mqtt/oc_mqtt_tiny_v5\oc_mqtt_tiny.c **** 
 675:D:/fchai/work/i-cube/I-CUBE-HUAWEI/Middlewares/Third_Party/Huawei/iot_link/oc/oc_mqtt/oc_mqtt_tiny_v5\oc_mqtt_tiny.c ****     (void) memset(&conpara,0,sizeof(conpara));
 676:D:/fchai/work/i-cube/I-CUBE-HUAWEI/Middlewares/Third_Party/Huawei/iot_link/oc/oc_mqtt/oc_mqtt_tiny_v5\oc_mqtt_tiny.c **** 
 677:D:/fchai/work/i-cube/I-CUBE-HUAWEI/Middlewares/Third_Party/Huawei/iot_link/oc/oc_mqtt/oc_mqtt_tiny_v5\oc_mqtt_tiny.c ****     conpara.clientid.data = cb->mqtt_para.mqtt_clientid;
 678:D:/fchai/work/i-cube/I-CUBE-HUAWEI/Middlewares/Third_Party/Huawei/iot_link/oc/oc_mqtt/oc_mqtt_tiny_v5\oc_mqtt_tiny.c ****     conpara.clientid.len = strlen(conpara.clientid.data);
 679:D:/fchai/work/i-cube/I-CUBE-HUAWEI/Middlewares/Third_Party/Huawei/iot_link/oc/oc_mqtt/oc_mqtt_tiny_v5\oc_mqtt_tiny.c **** 
 680:D:/fchai/work/i-cube/I-CUBE-HUAWEI/Middlewares/Third_Party/Huawei/iot_link/oc/oc_mqtt/oc_mqtt_tiny_v5\oc_mqtt_tiny.c ****     conpara.user.data =  cb->mqtt_para.mqtt_user;
ARM GAS  T:\msys\tmp\ccOGKCS9.s 			page 19


 681:D:/fchai/work/i-cube/I-CUBE-HUAWEI/Middlewares/Third_Party/Huawei/iot_link/oc/oc_mqtt/oc_mqtt_tiny_v5\oc_mqtt_tiny.c ****     conpara.user.len = strlen(conpara.user.data);
 682:D:/fchai/work/i-cube/I-CUBE-HUAWEI/Middlewares/Third_Party/Huawei/iot_link/oc/oc_mqtt/oc_mqtt_tiny_v5\oc_mqtt_tiny.c **** 
 683:D:/fchai/work/i-cube/I-CUBE-HUAWEI/Middlewares/Third_Party/Huawei/iot_link/oc/oc_mqtt/oc_mqtt_tiny_v5\oc_mqtt_tiny.c ****     conpara.passwd.data = cb->mqtt_para.mqtt_passwd;
 684:D:/fchai/work/i-cube/I-CUBE-HUAWEI/Middlewares/Third_Party/Huawei/iot_link/oc/oc_mqtt/oc_mqtt_tiny_v5\oc_mqtt_tiny.c ****     if(NULL != cb->mqtt_para.mqtt_passwd)
 685:D:/fchai/work/i-cube/I-CUBE-HUAWEI/Middlewares/Third_Party/Huawei/iot_link/oc/oc_mqtt/oc_mqtt_tiny_v5\oc_mqtt_tiny.c ****     {
 686:D:/fchai/work/i-cube/I-CUBE-HUAWEI/Middlewares/Third_Party/Huawei/iot_link/oc/oc_mqtt/oc_mqtt_tiny_v5\oc_mqtt_tiny.c ****         conpara.passwd.len = strlen(conpara.passwd.data);
 687:D:/fchai/work/i-cube/I-CUBE-HUAWEI/Middlewares/Third_Party/Huawei/iot_link/oc/oc_mqtt/oc_mqtt_tiny_v5\oc_mqtt_tiny.c ****     }
 688:D:/fchai/work/i-cube/I-CUBE-HUAWEI/Middlewares/Third_Party/Huawei/iot_link/oc/oc_mqtt/oc_mqtt_tiny_v5\oc_mqtt_tiny.c **** 
 689:D:/fchai/work/i-cube/I-CUBE-HUAWEI/Middlewares/Third_Party/Huawei/iot_link/oc/oc_mqtt/oc_mqtt_tiny_v5\oc_mqtt_tiny.c ****     conpara.cleansession = 1;
 690:D:/fchai/work/i-cube/I-CUBE-HUAWEI/Middlewares/Third_Party/Huawei/iot_link/oc/oc_mqtt/oc_mqtt_tiny_v5\oc_mqtt_tiny.c ****     conpara.keepalivetime = cb->config.lifetime;
 691:D:/fchai/work/i-cube/I-CUBE-HUAWEI/Middlewares/Third_Party/Huawei/iot_link/oc/oc_mqtt/oc_mqtt_tiny_v5\oc_mqtt_tiny.c ****     conpara.security = &cb->config.security;
 692:D:/fchai/work/i-cube/I-CUBE-HUAWEI/Middlewares/Third_Party/Huawei/iot_link/oc/oc_mqtt/oc_mqtt_tiny_v5\oc_mqtt_tiny.c ****     conpara.serveraddr.data = (char *)cb->mqtt_para.server_addr;
 693:D:/fchai/work/i-cube/I-CUBE-HUAWEI/Middlewares/Third_Party/Huawei/iot_link/oc/oc_mqtt/oc_mqtt_tiny_v5\oc_mqtt_tiny.c ****     conpara.serveraddr.len = strlen(conpara.serveraddr.data);
 694:D:/fchai/work/i-cube/I-CUBE-HUAWEI/Middlewares/Third_Party/Huawei/iot_link/oc/oc_mqtt/oc_mqtt_tiny_v5\oc_mqtt_tiny.c ****     conpara.serverport = atoi(cb->mqtt_para.server_port);
 695:D:/fchai/work/i-cube/I-CUBE-HUAWEI/Middlewares/Third_Party/Huawei/iot_link/oc/oc_mqtt/oc_mqtt_tiny_v5\oc_mqtt_tiny.c ****     conpara.timeout = CN_OC_MQTT_TIMEOUT;
 696:D:/fchai/work/i-cube/I-CUBE-HUAWEI/Middlewares/Third_Party/Huawei/iot_link/oc/oc_mqtt/oc_mqtt_tiny_v5\oc_mqtt_tiny.c ****     conpara.version = en_mqtt_al_version_3_1_1;
 697:D:/fchai/work/i-cube/I-CUBE-HUAWEI/Middlewares/Third_Party/Huawei/iot_link/oc/oc_mqtt/oc_mqtt_tiny_v5\oc_mqtt_tiny.c ****     conpara.willmsg = NULL;
 698:D:/fchai/work/i-cube/I-CUBE-HUAWEI/Middlewares/Third_Party/Huawei/iot_link/oc/oc_mqtt/oc_mqtt_tiny_v5\oc_mqtt_tiny.c **** 
 699:D:/fchai/work/i-cube/I-CUBE-HUAWEI/Middlewares/Third_Party/Huawei/iot_link/oc/oc_mqtt/oc_mqtt_tiny_v5\oc_mqtt_tiny.c ****     LINK_LOG_DEBUG("oc_mqtt_connect:server:%s port:%s",cb->mqtt_para.server_addr,cb->mqtt_para.serv
 700:D:/fchai/work/i-cube/I-CUBE-HUAWEI/Middlewares/Third_Party/Huawei/iot_link/oc/oc_mqtt/oc_mqtt_tiny_v5\oc_mqtt_tiny.c ****     LINK_LOG_DEBUG("oc_mqtt_connect:client_id:%s",cb->mqtt_para.mqtt_clientid);
 701:D:/fchai/work/i-cube/I-CUBE-HUAWEI/Middlewares/Third_Party/Huawei/iot_link/oc/oc_mqtt/oc_mqtt_tiny_v5\oc_mqtt_tiny.c ****     LINK_LOG_DEBUG("oc_mqtt_connect:user:%s passwd:%s",cb->mqtt_para.mqtt_user,(cb->mqtt_para.mqtt_
 702:D:/fchai/work/i-cube/I-CUBE-HUAWEI/Middlewares/Third_Party/Huawei/iot_link/oc/oc_mqtt/oc_mqtt_tiny_v5\oc_mqtt_tiny.c ****     cb->mqtt_para.mqtt_handle = mqtt_al_connect(&conpara);
 703:D:/fchai/work/i-cube/I-CUBE-HUAWEI/Middlewares/Third_Party/Huawei/iot_link/oc/oc_mqtt/oc_mqtt_tiny_v5\oc_mqtt_tiny.c **** 
 704:D:/fchai/work/i-cube/I-CUBE-HUAWEI/Middlewares/Third_Party/Huawei/iot_link/oc/oc_mqtt/oc_mqtt_tiny_v5\oc_mqtt_tiny.c ****     if(NULL != cb->mqtt_para.mqtt_handle)
 705:D:/fchai/work/i-cube/I-CUBE-HUAWEI/Middlewares/Third_Party/Huawei/iot_link/oc/oc_mqtt/oc_mqtt_tiny_v5\oc_mqtt_tiny.c ****     {
 706:D:/fchai/work/i-cube/I-CUBE-HUAWEI/Middlewares/Third_Party/Huawei/iot_link/oc/oc_mqtt/oc_mqtt_tiny_v5\oc_mqtt_tiny.c ****         ret = (int)en_oc_mqtt_err_ok;
 707:D:/fchai/work/i-cube/I-CUBE-HUAWEI/Middlewares/Third_Party/Huawei/iot_link/oc/oc_mqtt/oc_mqtt_tiny_v5\oc_mqtt_tiny.c ****     }
 708:D:/fchai/work/i-cube/I-CUBE-HUAWEI/Middlewares/Third_Party/Huawei/iot_link/oc/oc_mqtt/oc_mqtt_tiny_v5\oc_mqtt_tiny.c ****     else
 709:D:/fchai/work/i-cube/I-CUBE-HUAWEI/Middlewares/Third_Party/Huawei/iot_link/oc/oc_mqtt/oc_mqtt_tiny_v5\oc_mqtt_tiny.c ****     {
 710:D:/fchai/work/i-cube/I-CUBE-HUAWEI/Middlewares/Third_Party/Huawei/iot_link/oc/oc_mqtt/oc_mqtt_tiny_v5\oc_mqtt_tiny.c ****         if(cn_mqtt_al_con_code_err_clientID == conpara.conret)
 711:D:/fchai/work/i-cube/I-CUBE-HUAWEI/Middlewares/Third_Party/Huawei/iot_link/oc/oc_mqtt/oc_mqtt_tiny_v5\oc_mqtt_tiny.c ****         {
 712:D:/fchai/work/i-cube/I-CUBE-HUAWEI/Middlewares/Third_Party/Huawei/iot_link/oc/oc_mqtt/oc_mqtt_tiny_v5\oc_mqtt_tiny.c ****             ret = (int)en_oc_mqtt_err_conclientid;
 713:D:/fchai/work/i-cube/I-CUBE-HUAWEI/Middlewares/Third_Party/Huawei/iot_link/oc/oc_mqtt/oc_mqtt_tiny_v5\oc_mqtt_tiny.c ****         }
 714:D:/fchai/work/i-cube/I-CUBE-HUAWEI/Middlewares/Third_Party/Huawei/iot_link/oc/oc_mqtt/oc_mqtt_tiny_v5\oc_mqtt_tiny.c ****         else if(cn_mqtt_al_con_code_err_netrefuse == conpara.conret)
 715:D:/fchai/work/i-cube/I-CUBE-HUAWEI/Middlewares/Third_Party/Huawei/iot_link/oc/oc_mqtt/oc_mqtt_tiny_v5\oc_mqtt_tiny.c ****         {
 716:D:/fchai/work/i-cube/I-CUBE-HUAWEI/Middlewares/Third_Party/Huawei/iot_link/oc/oc_mqtt/oc_mqtt_tiny_v5\oc_mqtt_tiny.c ****             ret = (int)en_oc_mqtt_err_conserver;
 717:D:/fchai/work/i-cube/I-CUBE-HUAWEI/Middlewares/Third_Party/Huawei/iot_link/oc/oc_mqtt/oc_mqtt_tiny_v5\oc_mqtt_tiny.c ****         }
 718:D:/fchai/work/i-cube/I-CUBE-HUAWEI/Middlewares/Third_Party/Huawei/iot_link/oc/oc_mqtt/oc_mqtt_tiny_v5\oc_mqtt_tiny.c ****         else if(cn_mqtt_al_con_code_err_u_p == conpara.conret)
 719:D:/fchai/work/i-cube/I-CUBE-HUAWEI/Middlewares/Third_Party/Huawei/iot_link/oc/oc_mqtt/oc_mqtt_tiny_v5\oc_mqtt_tiny.c ****         {
 720:D:/fchai/work/i-cube/I-CUBE-HUAWEI/Middlewares/Third_Party/Huawei/iot_link/oc/oc_mqtt/oc_mqtt_tiny_v5\oc_mqtt_tiny.c ****             ret = (int)en_oc_mqtt_err_conuserpwd;
 721:D:/fchai/work/i-cube/I-CUBE-HUAWEI/Middlewares/Third_Party/Huawei/iot_link/oc/oc_mqtt/oc_mqtt_tiny_v5\oc_mqtt_tiny.c ****         }
 722:D:/fchai/work/i-cube/I-CUBE-HUAWEI/Middlewares/Third_Party/Huawei/iot_link/oc/oc_mqtt/oc_mqtt_tiny_v5\oc_mqtt_tiny.c ****         else if(cn_mqtt_al_con_code_err_auth == conpara.conret)
 723:D:/fchai/work/i-cube/I-CUBE-HUAWEI/Middlewares/Third_Party/Huawei/iot_link/oc/oc_mqtt/oc_mqtt_tiny_v5\oc_mqtt_tiny.c ****         {
 724:D:/fchai/work/i-cube/I-CUBE-HUAWEI/Middlewares/Third_Party/Huawei/iot_link/oc/oc_mqtt/oc_mqtt_tiny_v5\oc_mqtt_tiny.c ****             ret = (int)en_oc_mqtt_err_conclient;
 725:D:/fchai/work/i-cube/I-CUBE-HUAWEI/Middlewares/Third_Party/Huawei/iot_link/oc/oc_mqtt/oc_mqtt_tiny_v5\oc_mqtt_tiny.c ****         }
 726:D:/fchai/work/i-cube/I-CUBE-HUAWEI/Middlewares/Third_Party/Huawei/iot_link/oc/oc_mqtt/oc_mqtt_tiny_v5\oc_mqtt_tiny.c ****         else
 727:D:/fchai/work/i-cube/I-CUBE-HUAWEI/Middlewares/Third_Party/Huawei/iot_link/oc/oc_mqtt/oc_mqtt_tiny_v5\oc_mqtt_tiny.c ****         {
 728:D:/fchai/work/i-cube/I-CUBE-HUAWEI/Middlewares/Third_Party/Huawei/iot_link/oc/oc_mqtt/oc_mqtt_tiny_v5\oc_mqtt_tiny.c ****             ret = (int)en_oc_mqtt_err_network;
 729:D:/fchai/work/i-cube/I-CUBE-HUAWEI/Middlewares/Third_Party/Huawei/iot_link/oc/oc_mqtt/oc_mqtt_tiny_v5\oc_mqtt_tiny.c ****         }
 730:D:/fchai/work/i-cube/I-CUBE-HUAWEI/Middlewares/Third_Party/Huawei/iot_link/oc/oc_mqtt/oc_mqtt_tiny_v5\oc_mqtt_tiny.c ****     }
 731:D:/fchai/work/i-cube/I-CUBE-HUAWEI/Middlewares/Third_Party/Huawei/iot_link/oc/oc_mqtt/oc_mqtt_tiny_v5\oc_mqtt_tiny.c **** 
 732:D:/fchai/work/i-cube/I-CUBE-HUAWEI/Middlewares/Third_Party/Huawei/iot_link/oc/oc_mqtt/oc_mqtt_tiny_v5\oc_mqtt_tiny.c ****     LINK_LOG_DEBUG("oc_mqtt_connect:recode:%d :%s",ret,ret==(int)en_oc_mqtt_err_ok?"SUCCESS":"FAILE
 733:D:/fchai/work/i-cube/I-CUBE-HUAWEI/Middlewares/Third_Party/Huawei/iot_link/oc/oc_mqtt/oc_mqtt_tiny_v5\oc_mqtt_tiny.c **** 
 734:D:/fchai/work/i-cube/I-CUBE-HUAWEI/Middlewares/Third_Party/Huawei/iot_link/oc/oc_mqtt/oc_mqtt_tiny_v5\oc_mqtt_tiny.c ****     return ret;
 735:D:/fchai/work/i-cube/I-CUBE-HUAWEI/Middlewares/Third_Party/Huawei/iot_link/oc/oc_mqtt/oc_mqtt_tiny_v5\oc_mqtt_tiny.c **** 
 736:D:/fchai/work/i-cube/I-CUBE-HUAWEI/Middlewares/Third_Party/Huawei/iot_link/oc/oc_mqtt/oc_mqtt_tiny_v5\oc_mqtt_tiny.c **** }
 737:D:/fchai/work/i-cube/I-CUBE-HUAWEI/Middlewares/Third_Party/Huawei/iot_link/oc/oc_mqtt/oc_mqtt_tiny_v5\oc_mqtt_tiny.c **** 
ARM GAS  T:\msys\tmp\ccOGKCS9.s 			page 20


 738:D:/fchai/work/i-cube/I-CUBE-HUAWEI/Middlewares/Third_Party/Huawei/iot_link/oc/oc_mqtt/oc_mqtt_tiny_v5\oc_mqtt_tiny.c **** static int dmp_subscribe(oc_mqtt_tiny_cb_t *cb)
 739:D:/fchai/work/i-cube/I-CUBE-HUAWEI/Middlewares/Third_Party/Huawei/iot_link/oc/oc_mqtt/oc_mqtt_tiny_v5\oc_mqtt_tiny.c **** {
 740:D:/fchai/work/i-cube/I-CUBE-HUAWEI/Middlewares/Third_Party/Huawei/iot_link/oc/oc_mqtt/oc_mqtt_tiny_v5\oc_mqtt_tiny.c ****     int  ret = (int)en_oc_mqtt_err_system;
 741:D:/fchai/work/i-cube/I-CUBE-HUAWEI/Middlewares/Third_Party/Huawei/iot_link/oc/oc_mqtt/oc_mqtt_tiny_v5\oc_mqtt_tiny.c ****     mqtt_al_subpara_t   subpara;
 742:D:/fchai/work/i-cube/I-CUBE-HUAWEI/Middlewares/Third_Party/Huawei/iot_link/oc/oc_mqtt/oc_mqtt_tiny_v5\oc_mqtt_tiny.c **** 
 743:D:/fchai/work/i-cube/I-CUBE-HUAWEI/Middlewares/Third_Party/Huawei/iot_link/oc/oc_mqtt/oc_mqtt_tiny_v5\oc_mqtt_tiny.c ****     LINK_LOG_DEBUG("oc_mqtt_subscribe:start");
 744:D:/fchai/work/i-cube/I-CUBE-HUAWEI/Middlewares/Third_Party/Huawei/iot_link/oc/oc_mqtt/oc_mqtt_tiny_v5\oc_mqtt_tiny.c **** 
 745:D:/fchai/work/i-cube/I-CUBE-HUAWEI/Middlewares/Third_Party/Huawei/iot_link/oc/oc_mqtt/oc_mqtt_tiny_v5\oc_mqtt_tiny.c ****     if(NULL == cb->mqtt_para.mqtt_handle)
 746:D:/fchai/work/i-cube/I-CUBE-HUAWEI/Middlewares/Third_Party/Huawei/iot_link/oc/oc_mqtt/oc_mqtt_tiny_v5\oc_mqtt_tiny.c ****     {
 747:D:/fchai/work/i-cube/I-CUBE-HUAWEI/Middlewares/Third_Party/Huawei/iot_link/oc/oc_mqtt/oc_mqtt_tiny_v5\oc_mqtt_tiny.c ****         ret = (int)en_oc_mqtt_err_noconected;
 748:D:/fchai/work/i-cube/I-CUBE-HUAWEI/Middlewares/Third_Party/Huawei/iot_link/oc/oc_mqtt/oc_mqtt_tiny_v5\oc_mqtt_tiny.c ****         return ret;
 749:D:/fchai/work/i-cube/I-CUBE-HUAWEI/Middlewares/Third_Party/Huawei/iot_link/oc/oc_mqtt/oc_mqtt_tiny_v5\oc_mqtt_tiny.c ****     }
 750:D:/fchai/work/i-cube/I-CUBE-HUAWEI/Middlewares/Third_Party/Huawei/iot_link/oc/oc_mqtt/oc_mqtt_tiny_v5\oc_mqtt_tiny.c ****     (void) memset(&subpara,0,sizeof(subpara));
 751:D:/fchai/work/i-cube/I-CUBE-HUAWEI/Middlewares/Third_Party/Huawei/iot_link/oc/oc_mqtt/oc_mqtt_tiny_v5\oc_mqtt_tiny.c **** 
 752:D:/fchai/work/i-cube/I-CUBE-HUAWEI/Middlewares/Third_Party/Huawei/iot_link/oc/oc_mqtt/oc_mqtt_tiny_v5\oc_mqtt_tiny.c ****     if(cb->flag.bits.bit_daemon_status == (int)en_daemon_status_bs_getaddr)
 753:D:/fchai/work/i-cube/I-CUBE-HUAWEI/Middlewares/Third_Party/Huawei/iot_link/oc/oc_mqtt/oc_mqtt_tiny_v5\oc_mqtt_tiny.c ****     {
 754:D:/fchai/work/i-cube/I-CUBE-HUAWEI/Middlewares/Third_Party/Huawei/iot_link/oc/oc_mqtt/oc_mqtt_tiny_v5\oc_mqtt_tiny.c ****         subpara.dealer = bs_msg_default_deal;
 755:D:/fchai/work/i-cube/I-CUBE-HUAWEI/Middlewares/Third_Party/Huawei/iot_link/oc/oc_mqtt/oc_mqtt_tiny_v5\oc_mqtt_tiny.c ****     }
 756:D:/fchai/work/i-cube/I-CUBE-HUAWEI/Middlewares/Third_Party/Huawei/iot_link/oc/oc_mqtt/oc_mqtt_tiny_v5\oc_mqtt_tiny.c ****     else
 757:D:/fchai/work/i-cube/I-CUBE-HUAWEI/Middlewares/Third_Party/Huawei/iot_link/oc/oc_mqtt/oc_mqtt_tiny_v5\oc_mqtt_tiny.c ****     {
 758:D:/fchai/work/i-cube/I-CUBE-HUAWEI/Middlewares/Third_Party/Huawei/iot_link/oc/oc_mqtt/oc_mqtt_tiny_v5\oc_mqtt_tiny.c ****         subpara.dealer = hub_msg_default_deal;
 759:D:/fchai/work/i-cube/I-CUBE-HUAWEI/Middlewares/Third_Party/Huawei/iot_link/oc/oc_mqtt/oc_mqtt_tiny_v5\oc_mqtt_tiny.c ****     }
 760:D:/fchai/work/i-cube/I-CUBE-HUAWEI/Middlewares/Third_Party/Huawei/iot_link/oc/oc_mqtt/oc_mqtt_tiny_v5\oc_mqtt_tiny.c **** 
 761:D:/fchai/work/i-cube/I-CUBE-HUAWEI/Middlewares/Third_Party/Huawei/iot_link/oc/oc_mqtt/oc_mqtt_tiny_v5\oc_mqtt_tiny.c ****     subpara.arg = cb;
 762:D:/fchai/work/i-cube/I-CUBE-HUAWEI/Middlewares/Third_Party/Huawei/iot_link/oc/oc_mqtt/oc_mqtt_tiny_v5\oc_mqtt_tiny.c ****     subpara.qos = en_mqtt_al_qos_1;
 763:D:/fchai/work/i-cube/I-CUBE-HUAWEI/Middlewares/Third_Party/Huawei/iot_link/oc/oc_mqtt/oc_mqtt_tiny_v5\oc_mqtt_tiny.c ****     subpara.topic.data = cb->mqtt_para.default_sub_topic ;
 764:D:/fchai/work/i-cube/I-CUBE-HUAWEI/Middlewares/Third_Party/Huawei/iot_link/oc/oc_mqtt/oc_mqtt_tiny_v5\oc_mqtt_tiny.c ****     subpara.topic.len = strlen(subpara.topic.data );
 765:D:/fchai/work/i-cube/I-CUBE-HUAWEI/Middlewares/Third_Party/Huawei/iot_link/oc/oc_mqtt/oc_mqtt_tiny_v5\oc_mqtt_tiny.c ****     subpara.timeout = CN_OC_MQTT_TIMEOUT;
 766:D:/fchai/work/i-cube/I-CUBE-HUAWEI/Middlewares/Third_Party/Huawei/iot_link/oc/oc_mqtt/oc_mqtt_tiny_v5\oc_mqtt_tiny.c **** 
 767:D:/fchai/work/i-cube/I-CUBE-HUAWEI/Middlewares/Third_Party/Huawei/iot_link/oc/oc_mqtt/oc_mqtt_tiny_v5\oc_mqtt_tiny.c **** 
 768:D:/fchai/work/i-cube/I-CUBE-HUAWEI/Middlewares/Third_Party/Huawei/iot_link/oc/oc_mqtt/oc_mqtt_tiny_v5\oc_mqtt_tiny.c ****     LINK_LOG_DEBUG("oc_mqtt_default_subscribe:topic:%s",subpara.topic.data);
 769:D:/fchai/work/i-cube/I-CUBE-HUAWEI/Middlewares/Third_Party/Huawei/iot_link/oc/oc_mqtt/oc_mqtt_tiny_v5\oc_mqtt_tiny.c **** 
 770:D:/fchai/work/i-cube/I-CUBE-HUAWEI/Middlewares/Third_Party/Huawei/iot_link/oc/oc_mqtt/oc_mqtt_tiny_v5\oc_mqtt_tiny.c ****     ret = mqtt_al_subscribe(cb->mqtt_para.mqtt_handle,&subpara);
 771:D:/fchai/work/i-cube/I-CUBE-HUAWEI/Middlewares/Third_Party/Huawei/iot_link/oc/oc_mqtt/oc_mqtt_tiny_v5\oc_mqtt_tiny.c ****     if(0 != ret)
 772:D:/fchai/work/i-cube/I-CUBE-HUAWEI/Middlewares/Third_Party/Huawei/iot_link/oc/oc_mqtt/oc_mqtt_tiny_v5\oc_mqtt_tiny.c ****     {
 773:D:/fchai/work/i-cube/I-CUBE-HUAWEI/Middlewares/Third_Party/Huawei/iot_link/oc/oc_mqtt/oc_mqtt_tiny_v5\oc_mqtt_tiny.c ****         ret = (int)en_oc_mqtt_err_subscribe;
 774:D:/fchai/work/i-cube/I-CUBE-HUAWEI/Middlewares/Third_Party/Huawei/iot_link/oc/oc_mqtt/oc_mqtt_tiny_v5\oc_mqtt_tiny.c ****     }
 775:D:/fchai/work/i-cube/I-CUBE-HUAWEI/Middlewares/Third_Party/Huawei/iot_link/oc/oc_mqtt/oc_mqtt_tiny_v5\oc_mqtt_tiny.c **** 
 776:D:/fchai/work/i-cube/I-CUBE-HUAWEI/Middlewares/Third_Party/Huawei/iot_link/oc/oc_mqtt/oc_mqtt_tiny_v5\oc_mqtt_tiny.c ****     LINK_LOG_DEBUG("oc_mqtt_default_subscribe:retcode:%d:%s",ret,oc_mqtt_err(ret));
 777:D:/fchai/work/i-cube/I-CUBE-HUAWEI/Middlewares/Third_Party/Huawei/iot_link/oc/oc_mqtt/oc_mqtt_tiny_v5\oc_mqtt_tiny.c **** 
 778:D:/fchai/work/i-cube/I-CUBE-HUAWEI/Middlewares/Third_Party/Huawei/iot_link/oc/oc_mqtt/oc_mqtt_tiny_v5\oc_mqtt_tiny.c ****     ///if not the bs mode, then subscribe all the other topic
 779:D:/fchai/work/i-cube/I-CUBE-HUAWEI/Middlewares/Third_Party/Huawei/iot_link/oc/oc_mqtt/oc_mqtt_tiny_v5\oc_mqtt_tiny.c ****     if(cb->flag.bits.bit_daemon_status != (int)en_daemon_status_bs_getaddr)
 780:D:/fchai/work/i-cube/I-CUBE-HUAWEI/Middlewares/Third_Party/Huawei/iot_link/oc/oc_mqtt/oc_mqtt_tiny_v5\oc_mqtt_tiny.c ****     {
 781:D:/fchai/work/i-cube/I-CUBE-HUAWEI/Middlewares/Third_Party/Huawei/iot_link/oc/oc_mqtt/oc_mqtt_tiny_v5\oc_mqtt_tiny.c ****         int i = 0;
 782:D:/fchai/work/i-cube/I-CUBE-HUAWEI/Middlewares/Third_Party/Huawei/iot_link/oc/oc_mqtt/oc_mqtt_tiny_v5\oc_mqtt_tiny.c ****         for(i =0;i<(int)CN_NEW_TOPIC_NUM;i++)
 783:D:/fchai/work/i-cube/I-CUBE-HUAWEI/Middlewares/Third_Party/Huawei/iot_link/oc/oc_mqtt/oc_mqtt_tiny_v5\oc_mqtt_tiny.c ****         {
 784:D:/fchai/work/i-cube/I-CUBE-HUAWEI/Middlewares/Third_Party/Huawei/iot_link/oc/oc_mqtt/oc_mqtt_tiny_v5\oc_mqtt_tiny.c ****             subpara.arg = cb;
 785:D:/fchai/work/i-cube/I-CUBE-HUAWEI/Middlewares/Third_Party/Huawei/iot_link/oc/oc_mqtt/oc_mqtt_tiny_v5\oc_mqtt_tiny.c ****             subpara.qos = en_mqtt_al_qos_1;
 786:D:/fchai/work/i-cube/I-CUBE-HUAWEI/Middlewares/Third_Party/Huawei/iot_link/oc/oc_mqtt/oc_mqtt_tiny_v5\oc_mqtt_tiny.c ****             subpara.topic.data = cb->hub_sub_topic[i] ;
 787:D:/fchai/work/i-cube/I-CUBE-HUAWEI/Middlewares/Third_Party/Huawei/iot_link/oc/oc_mqtt/oc_mqtt_tiny_v5\oc_mqtt_tiny.c ****             subpara.topic.len = strlen(subpara.topic.data );
 788:D:/fchai/work/i-cube/I-CUBE-HUAWEI/Middlewares/Third_Party/Huawei/iot_link/oc/oc_mqtt/oc_mqtt_tiny_v5\oc_mqtt_tiny.c ****             subpara.timeout = CN_OC_MQTT_TIMEOUT;
 789:D:/fchai/work/i-cube/I-CUBE-HUAWEI/Middlewares/Third_Party/Huawei/iot_link/oc/oc_mqtt/oc_mqtt_tiny_v5\oc_mqtt_tiny.c **** 
 790:D:/fchai/work/i-cube/I-CUBE-HUAWEI/Middlewares/Third_Party/Huawei/iot_link/oc/oc_mqtt/oc_mqtt_tiny_v5\oc_mqtt_tiny.c ****             LINK_LOG_DEBUG("oc_mqtt_subscribe:topic:%s",subpara.topic.data);
 791:D:/fchai/work/i-cube/I-CUBE-HUAWEI/Middlewares/Third_Party/Huawei/iot_link/oc/oc_mqtt/oc_mqtt_tiny_v5\oc_mqtt_tiny.c **** 
 792:D:/fchai/work/i-cube/I-CUBE-HUAWEI/Middlewares/Third_Party/Huawei/iot_link/oc/oc_mqtt/oc_mqtt_tiny_v5\oc_mqtt_tiny.c ****             ret = mqtt_al_subscribe(cb->mqtt_para.mqtt_handle,&subpara);
 793:D:/fchai/work/i-cube/I-CUBE-HUAWEI/Middlewares/Third_Party/Huawei/iot_link/oc/oc_mqtt/oc_mqtt_tiny_v5\oc_mqtt_tiny.c **** 
 794:D:/fchai/work/i-cube/I-CUBE-HUAWEI/Middlewares/Third_Party/Huawei/iot_link/oc/oc_mqtt/oc_mqtt_tiny_v5\oc_mqtt_tiny.c ****             LINK_LOG_DEBUG("oc_mqtt_subscribe:retcode:%d:%s",ret,oc_mqtt_err(ret));
ARM GAS  T:\msys\tmp\ccOGKCS9.s 			page 21


 795:D:/fchai/work/i-cube/I-CUBE-HUAWEI/Middlewares/Third_Party/Huawei/iot_link/oc/oc_mqtt/oc_mqtt_tiny_v5\oc_mqtt_tiny.c ****             if(0 != ret)
 796:D:/fchai/work/i-cube/I-CUBE-HUAWEI/Middlewares/Third_Party/Huawei/iot_link/oc/oc_mqtt/oc_mqtt_tiny_v5\oc_mqtt_tiny.c ****             {
 797:D:/fchai/work/i-cube/I-CUBE-HUAWEI/Middlewares/Third_Party/Huawei/iot_link/oc/oc_mqtt/oc_mqtt_tiny_v5\oc_mqtt_tiny.c ****                  ret = (int)en_oc_mqtt_err_subscribe;
 798:D:/fchai/work/i-cube/I-CUBE-HUAWEI/Middlewares/Third_Party/Huawei/iot_link/oc/oc_mqtt/oc_mqtt_tiny_v5\oc_mqtt_tiny.c ****                  break;
 799:D:/fchai/work/i-cube/I-CUBE-HUAWEI/Middlewares/Third_Party/Huawei/iot_link/oc/oc_mqtt/oc_mqtt_tiny_v5\oc_mqtt_tiny.c ****             }
 800:D:/fchai/work/i-cube/I-CUBE-HUAWEI/Middlewares/Third_Party/Huawei/iot_link/oc/oc_mqtt/oc_mqtt_tiny_v5\oc_mqtt_tiny.c ****         }
 801:D:/fchai/work/i-cube/I-CUBE-HUAWEI/Middlewares/Third_Party/Huawei/iot_link/oc/oc_mqtt/oc_mqtt_tiny_v5\oc_mqtt_tiny.c **** 
 802:D:/fchai/work/i-cube/I-CUBE-HUAWEI/Middlewares/Third_Party/Huawei/iot_link/oc/oc_mqtt/oc_mqtt_tiny_v5\oc_mqtt_tiny.c ****         ///< subscribe the user topic
 803:D:/fchai/work/i-cube/I-CUBE-HUAWEI/Middlewares/Third_Party/Huawei/iot_link/oc/oc_mqtt/oc_mqtt_tiny_v5\oc_mqtt_tiny.c ****         tiny_topic_sub_t  *topic_sub;
 804:D:/fchai/work/i-cube/I-CUBE-HUAWEI/Middlewares/Third_Party/Huawei/iot_link/oc/oc_mqtt/oc_mqtt_tiny_v5\oc_mqtt_tiny.c ****         topic_sub = cb->subscribe_lst;
 805:D:/fchai/work/i-cube/I-CUBE-HUAWEI/Middlewares/Third_Party/Huawei/iot_link/oc/oc_mqtt/oc_mqtt_tiny_v5\oc_mqtt_tiny.c ****         while(NULL != topic_sub)
 806:D:/fchai/work/i-cube/I-CUBE-HUAWEI/Middlewares/Third_Party/Huawei/iot_link/oc/oc_mqtt/oc_mqtt_tiny_v5\oc_mqtt_tiny.c ****         {
 807:D:/fchai/work/i-cube/I-CUBE-HUAWEI/Middlewares/Third_Party/Huawei/iot_link/oc/oc_mqtt/oc_mqtt_tiny_v5\oc_mqtt_tiny.c ****             subpara.arg = cb;
 808:D:/fchai/work/i-cube/I-CUBE-HUAWEI/Middlewares/Third_Party/Huawei/iot_link/oc/oc_mqtt/oc_mqtt_tiny_v5\oc_mqtt_tiny.c ****             subpara.qos = en_mqtt_al_qos_1;
 809:D:/fchai/work/i-cube/I-CUBE-HUAWEI/Middlewares/Third_Party/Huawei/iot_link/oc/oc_mqtt/oc_mqtt_tiny_v5\oc_mqtt_tiny.c ****             subpara.topic.data = topic_sub->topic ;
 810:D:/fchai/work/i-cube/I-CUBE-HUAWEI/Middlewares/Third_Party/Huawei/iot_link/oc/oc_mqtt/oc_mqtt_tiny_v5\oc_mqtt_tiny.c ****             subpara.topic.len = strlen(subpara.topic.data );
 811:D:/fchai/work/i-cube/I-CUBE-HUAWEI/Middlewares/Third_Party/Huawei/iot_link/oc/oc_mqtt/oc_mqtt_tiny_v5\oc_mqtt_tiny.c ****             subpara.timeout = CN_OC_MQTT_TIMEOUT;
 812:D:/fchai/work/i-cube/I-CUBE-HUAWEI/Middlewares/Third_Party/Huawei/iot_link/oc/oc_mqtt/oc_mqtt_tiny_v5\oc_mqtt_tiny.c **** 
 813:D:/fchai/work/i-cube/I-CUBE-HUAWEI/Middlewares/Third_Party/Huawei/iot_link/oc/oc_mqtt/oc_mqtt_tiny_v5\oc_mqtt_tiny.c ****             LINK_LOG_DEBUG("oc_mqtt_subscribe:topic:%s",subpara.topic.data);
 814:D:/fchai/work/i-cube/I-CUBE-HUAWEI/Middlewares/Third_Party/Huawei/iot_link/oc/oc_mqtt/oc_mqtt_tiny_v5\oc_mqtt_tiny.c **** 
 815:D:/fchai/work/i-cube/I-CUBE-HUAWEI/Middlewares/Third_Party/Huawei/iot_link/oc/oc_mqtt/oc_mqtt_tiny_v5\oc_mqtt_tiny.c ****             ret = mqtt_al_subscribe(cb->mqtt_para.mqtt_handle,&subpara);
 816:D:/fchai/work/i-cube/I-CUBE-HUAWEI/Middlewares/Third_Party/Huawei/iot_link/oc/oc_mqtt/oc_mqtt_tiny_v5\oc_mqtt_tiny.c **** 
 817:D:/fchai/work/i-cube/I-CUBE-HUAWEI/Middlewares/Third_Party/Huawei/iot_link/oc/oc_mqtt/oc_mqtt_tiny_v5\oc_mqtt_tiny.c ****             LINK_LOG_DEBUG("oc_mqtt_subscribe:retcode:%d:%s\n\r",ret,oc_mqtt_err(ret));
 818:D:/fchai/work/i-cube/I-CUBE-HUAWEI/Middlewares/Third_Party/Huawei/iot_link/oc/oc_mqtt/oc_mqtt_tiny_v5\oc_mqtt_tiny.c ****             if(0 != ret)
 819:D:/fchai/work/i-cube/I-CUBE-HUAWEI/Middlewares/Third_Party/Huawei/iot_link/oc/oc_mqtt/oc_mqtt_tiny_v5\oc_mqtt_tiny.c ****             {
 820:D:/fchai/work/i-cube/I-CUBE-HUAWEI/Middlewares/Third_Party/Huawei/iot_link/oc/oc_mqtt/oc_mqtt_tiny_v5\oc_mqtt_tiny.c ****                  ret = (int)en_oc_mqtt_err_subscribe;
 821:D:/fchai/work/i-cube/I-CUBE-HUAWEI/Middlewares/Third_Party/Huawei/iot_link/oc/oc_mqtt/oc_mqtt_tiny_v5\oc_mqtt_tiny.c ****                  break;
 822:D:/fchai/work/i-cube/I-CUBE-HUAWEI/Middlewares/Third_Party/Huawei/iot_link/oc/oc_mqtt/oc_mqtt_tiny_v5\oc_mqtt_tiny.c ****             }
 823:D:/fchai/work/i-cube/I-CUBE-HUAWEI/Middlewares/Third_Party/Huawei/iot_link/oc/oc_mqtt/oc_mqtt_tiny_v5\oc_mqtt_tiny.c ****             topic_sub = topic_sub->nxt;
 824:D:/fchai/work/i-cube/I-CUBE-HUAWEI/Middlewares/Third_Party/Huawei/iot_link/oc/oc_mqtt/oc_mqtt_tiny_v5\oc_mqtt_tiny.c ****         }
 825:D:/fchai/work/i-cube/I-CUBE-HUAWEI/Middlewares/Third_Party/Huawei/iot_link/oc/oc_mqtt/oc_mqtt_tiny_v5\oc_mqtt_tiny.c ****     }
 826:D:/fchai/work/i-cube/I-CUBE-HUAWEI/Middlewares/Third_Party/Huawei/iot_link/oc/oc_mqtt/oc_mqtt_tiny_v5\oc_mqtt_tiny.c **** 
 827:D:/fchai/work/i-cube/I-CUBE-HUAWEI/Middlewares/Third_Party/Huawei/iot_link/oc/oc_mqtt/oc_mqtt_tiny_v5\oc_mqtt_tiny.c ****     return ret;
 828:D:/fchai/work/i-cube/I-CUBE-HUAWEI/Middlewares/Third_Party/Huawei/iot_link/oc/oc_mqtt/oc_mqtt_tiny_v5\oc_mqtt_tiny.c **** }
 829:D:/fchai/work/i-cube/I-CUBE-HUAWEI/Middlewares/Third_Party/Huawei/iot_link/oc/oc_mqtt/oc_mqtt_tiny_v5\oc_mqtt_tiny.c **** 
 830:D:/fchai/work/i-cube/I-CUBE-HUAWEI/Middlewares/Third_Party/Huawei/iot_link/oc/oc_mqtt/oc_mqtt_tiny_v5\oc_mqtt_tiny.c **** static int dmp_publish(oc_mqtt_tiny_cb_t *cb,char *topic, uint8_t *msg, int len, int qos)
 831:D:/fchai/work/i-cube/I-CUBE-HUAWEI/Middlewares/Third_Party/Huawei/iot_link/oc/oc_mqtt/oc_mqtt_tiny_v5\oc_mqtt_tiny.c **** {
 832:D:/fchai/work/i-cube/I-CUBE-HUAWEI/Middlewares/Third_Party/Huawei/iot_link/oc/oc_mqtt/oc_mqtt_tiny_v5\oc_mqtt_tiny.c ****     int  ret = (int)en_oc_mqtt_err_system;
 833:D:/fchai/work/i-cube/I-CUBE-HUAWEI/Middlewares/Third_Party/Huawei/iot_link/oc/oc_mqtt/oc_mqtt_tiny_v5\oc_mqtt_tiny.c ****     mqtt_al_pubpara_t pubpara;
 834:D:/fchai/work/i-cube/I-CUBE-HUAWEI/Middlewares/Third_Party/Huawei/iot_link/oc/oc_mqtt/oc_mqtt_tiny_v5\oc_mqtt_tiny.c **** 
 835:D:/fchai/work/i-cube/I-CUBE-HUAWEI/Middlewares/Third_Party/Huawei/iot_link/oc/oc_mqtt/oc_mqtt_tiny_v5\oc_mqtt_tiny.c **** 
 836:D:/fchai/work/i-cube/I-CUBE-HUAWEI/Middlewares/Third_Party/Huawei/iot_link/oc/oc_mqtt/oc_mqtt_tiny_v5\oc_mqtt_tiny.c ****     ///< pub the mqtt request
 837:D:/fchai/work/i-cube/I-CUBE-HUAWEI/Middlewares/Third_Party/Huawei/iot_link/oc/oc_mqtt/oc_mqtt_tiny_v5\oc_mqtt_tiny.c ****     (void) memset(&pubpara, 0, sizeof(pubpara));
 838:D:/fchai/work/i-cube/I-CUBE-HUAWEI/Middlewares/Third_Party/Huawei/iot_link/oc/oc_mqtt/oc_mqtt_tiny_v5\oc_mqtt_tiny.c ****     pubpara.qos = (en_mqtt_al_qos_t)qos;
 839:D:/fchai/work/i-cube/I-CUBE-HUAWEI/Middlewares/Third_Party/Huawei/iot_link/oc/oc_mqtt/oc_mqtt_tiny_v5\oc_mqtt_tiny.c ****     pubpara.retain = 0;
 840:D:/fchai/work/i-cube/I-CUBE-HUAWEI/Middlewares/Third_Party/Huawei/iot_link/oc/oc_mqtt/oc_mqtt_tiny_v5\oc_mqtt_tiny.c ****     pubpara.timeout = 1000;
 841:D:/fchai/work/i-cube/I-CUBE-HUAWEI/Middlewares/Third_Party/Huawei/iot_link/oc/oc_mqtt/oc_mqtt_tiny_v5\oc_mqtt_tiny.c **** 
 842:D:/fchai/work/i-cube/I-CUBE-HUAWEI/Middlewares/Third_Party/Huawei/iot_link/oc/oc_mqtt/oc_mqtt_tiny_v5\oc_mqtt_tiny.c ****     if(NULL == topic)
 843:D:/fchai/work/i-cube/I-CUBE-HUAWEI/Middlewares/Third_Party/Huawei/iot_link/oc/oc_mqtt/oc_mqtt_tiny_v5\oc_mqtt_tiny.c ****     {
 844:D:/fchai/work/i-cube/I-CUBE-HUAWEI/Middlewares/Third_Party/Huawei/iot_link/oc/oc_mqtt/oc_mqtt_tiny_v5\oc_mqtt_tiny.c ****         topic = cb->mqtt_para.default_pub_topic;
 845:D:/fchai/work/i-cube/I-CUBE-HUAWEI/Middlewares/Third_Party/Huawei/iot_link/oc/oc_mqtt/oc_mqtt_tiny_v5\oc_mqtt_tiny.c ****     }
 846:D:/fchai/work/i-cube/I-CUBE-HUAWEI/Middlewares/Third_Party/Huawei/iot_link/oc/oc_mqtt/oc_mqtt_tiny_v5\oc_mqtt_tiny.c **** 
 847:D:/fchai/work/i-cube/I-CUBE-HUAWEI/Middlewares/Third_Party/Huawei/iot_link/oc/oc_mqtt/oc_mqtt_tiny_v5\oc_mqtt_tiny.c ****     pubpara.topic.data = topic;
 848:D:/fchai/work/i-cube/I-CUBE-HUAWEI/Middlewares/Third_Party/Huawei/iot_link/oc/oc_mqtt/oc_mqtt_tiny_v5\oc_mqtt_tiny.c ****     pubpara.topic.len =strlen(pubpara.topic.data );
 849:D:/fchai/work/i-cube/I-CUBE-HUAWEI/Middlewares/Third_Party/Huawei/iot_link/oc/oc_mqtt/oc_mqtt_tiny_v5\oc_mqtt_tiny.c ****     pubpara.msg.data = (char *)msg;
 850:D:/fchai/work/i-cube/I-CUBE-HUAWEI/Middlewares/Third_Party/Huawei/iot_link/oc/oc_mqtt/oc_mqtt_tiny_v5\oc_mqtt_tiny.c ****     pubpara.msg.len = len;
 851:D:/fchai/work/i-cube/I-CUBE-HUAWEI/Middlewares/Third_Party/Huawei/iot_link/oc/oc_mqtt/oc_mqtt_tiny_v5\oc_mqtt_tiny.c ****     ret = mqtt_al_publish(cb->mqtt_para.mqtt_handle, &pubpara);
ARM GAS  T:\msys\tmp\ccOGKCS9.s 			page 22


 852:D:/fchai/work/i-cube/I-CUBE-HUAWEI/Middlewares/Third_Party/Huawei/iot_link/oc/oc_mqtt/oc_mqtt_tiny_v5\oc_mqtt_tiny.c ****     if(ret != 0)
 853:D:/fchai/work/i-cube/I-CUBE-HUAWEI/Middlewares/Third_Party/Huawei/iot_link/oc/oc_mqtt/oc_mqtt_tiny_v5\oc_mqtt_tiny.c ****     {
 854:D:/fchai/work/i-cube/I-CUBE-HUAWEI/Middlewares/Third_Party/Huawei/iot_link/oc/oc_mqtt/oc_mqtt_tiny_v5\oc_mqtt_tiny.c ****         ret = (int)en_oc_mqtt_err_publish;
 855:D:/fchai/work/i-cube/I-CUBE-HUAWEI/Middlewares/Third_Party/Huawei/iot_link/oc/oc_mqtt/oc_mqtt_tiny_v5\oc_mqtt_tiny.c ****     }
 856:D:/fchai/work/i-cube/I-CUBE-HUAWEI/Middlewares/Third_Party/Huawei/iot_link/oc/oc_mqtt/oc_mqtt_tiny_v5\oc_mqtt_tiny.c ****     return ret;
 857:D:/fchai/work/i-cube/I-CUBE-HUAWEI/Middlewares/Third_Party/Huawei/iot_link/oc/oc_mqtt/oc_mqtt_tiny_v5\oc_mqtt_tiny.c **** }
 858:D:/fchai/work/i-cube/I-CUBE-HUAWEI/Middlewares/Third_Party/Huawei/iot_link/oc/oc_mqtt/oc_mqtt_tiny_v5\oc_mqtt_tiny.c **** static int hub_step(oc_mqtt_tiny_cb_t  *cb)
 859:D:/fchai/work/i-cube/I-CUBE-HUAWEI/Middlewares/Third_Party/Huawei/iot_link/oc/oc_mqtt/oc_mqtt_tiny_v5\oc_mqtt_tiny.c **** {
 860:D:/fchai/work/i-cube/I-CUBE-HUAWEI/Middlewares/Third_Party/Huawei/iot_link/oc/oc_mqtt/oc_mqtt_tiny_v5\oc_mqtt_tiny.c ****     int ret = (int)en_oc_mqtt_err_system;
 861:D:/fchai/work/i-cube/I-CUBE-HUAWEI/Middlewares/Third_Party/Huawei/iot_link/oc/oc_mqtt/oc_mqtt_tiny_v5\oc_mqtt_tiny.c **** 
 862:D:/fchai/work/i-cube/I-CUBE-HUAWEI/Middlewares/Third_Party/Huawei/iot_link/oc/oc_mqtt/oc_mqtt_tiny_v5\oc_mqtt_tiny.c ****     LINK_LOG_DEBUG("%s:enter",__FUNCTION__);
 863:D:/fchai/work/i-cube/I-CUBE-HUAWEI/Middlewares/Third_Party/Huawei/iot_link/oc/oc_mqtt/oc_mqtt_tiny_v5\oc_mqtt_tiny.c ****     if((int)en_oc_mqtt_err_ok != oc_mqtt_para_gernerate(cb))
 864:D:/fchai/work/i-cube/I-CUBE-HUAWEI/Middlewares/Third_Party/Huawei/iot_link/oc/oc_mqtt/oc_mqtt_tiny_v5\oc_mqtt_tiny.c ****     {
 865:D:/fchai/work/i-cube/I-CUBE-HUAWEI/Middlewares/Third_Party/Huawei/iot_link/oc/oc_mqtt/oc_mqtt_tiny_v5\oc_mqtt_tiny.c ****         goto EXIT_ERR;
 866:D:/fchai/work/i-cube/I-CUBE-HUAWEI/Middlewares/Third_Party/Huawei/iot_link/oc/oc_mqtt/oc_mqtt_tiny_v5\oc_mqtt_tiny.c ****     }
 867:D:/fchai/work/i-cube/I-CUBE-HUAWEI/Middlewares/Third_Party/Huawei/iot_link/oc/oc_mqtt/oc_mqtt_tiny_v5\oc_mqtt_tiny.c **** 
 868:D:/fchai/work/i-cube/I-CUBE-HUAWEI/Middlewares/Third_Party/Huawei/iot_link/oc/oc_mqtt/oc_mqtt_tiny_v5\oc_mqtt_tiny.c ****     ret = dmp_connect(cb);
 869:D:/fchai/work/i-cube/I-CUBE-HUAWEI/Middlewares/Third_Party/Huawei/iot_link/oc/oc_mqtt/oc_mqtt_tiny_v5\oc_mqtt_tiny.c ****     if((int)en_oc_mqtt_err_ok != ret)
 870:D:/fchai/work/i-cube/I-CUBE-HUAWEI/Middlewares/Third_Party/Huawei/iot_link/oc/oc_mqtt/oc_mqtt_tiny_v5\oc_mqtt_tiny.c ****     {
 871:D:/fchai/work/i-cube/I-CUBE-HUAWEI/Middlewares/Third_Party/Huawei/iot_link/oc/oc_mqtt/oc_mqtt_tiny_v5\oc_mqtt_tiny.c ****        goto EXIT_ERR;
 872:D:/fchai/work/i-cube/I-CUBE-HUAWEI/Middlewares/Third_Party/Huawei/iot_link/oc/oc_mqtt/oc_mqtt_tiny_v5\oc_mqtt_tiny.c ****     }
 873:D:/fchai/work/i-cube/I-CUBE-HUAWEI/Middlewares/Third_Party/Huawei/iot_link/oc/oc_mqtt/oc_mqtt_tiny_v5\oc_mqtt_tiny.c ****     ///< subscribe the topic here
 874:D:/fchai/work/i-cube/I-CUBE-HUAWEI/Middlewares/Third_Party/Huawei/iot_link/oc/oc_mqtt/oc_mqtt_tiny_v5\oc_mqtt_tiny.c ****     ret = dmp_subscribe(cb);
 875:D:/fchai/work/i-cube/I-CUBE-HUAWEI/Middlewares/Third_Party/Huawei/iot_link/oc/oc_mqtt/oc_mqtt_tiny_v5\oc_mqtt_tiny.c ****     if(ret  != (int)en_oc_mqtt_err_ok)
 876:D:/fchai/work/i-cube/I-CUBE-HUAWEI/Middlewares/Third_Party/Huawei/iot_link/oc/oc_mqtt/oc_mqtt_tiny_v5\oc_mqtt_tiny.c ****     {
 877:D:/fchai/work/i-cube/I-CUBE-HUAWEI/Middlewares/Third_Party/Huawei/iot_link/oc/oc_mqtt/oc_mqtt_tiny_v5\oc_mqtt_tiny.c ****         goto EXIT_ERR;
 878:D:/fchai/work/i-cube/I-CUBE-HUAWEI/Middlewares/Third_Party/Huawei/iot_link/oc/oc_mqtt/oc_mqtt_tiny_v5\oc_mqtt_tiny.c ****     }
 879:D:/fchai/work/i-cube/I-CUBE-HUAWEI/Middlewares/Third_Party/Huawei/iot_link/oc/oc_mqtt/oc_mqtt_tiny_v5\oc_mqtt_tiny.c ****     else
 880:D:/fchai/work/i-cube/I-CUBE-HUAWEI/Middlewares/Third_Party/Huawei/iot_link/oc/oc_mqtt/oc_mqtt_tiny_v5\oc_mqtt_tiny.c ****     {
 881:D:/fchai/work/i-cube/I-CUBE-HUAWEI/Middlewares/Third_Party/Huawei/iot_link/oc/oc_mqtt/oc_mqtt_tiny_v5\oc_mqtt_tiny.c ****         if(NULL != cb->config.log_dealer)
 882:D:/fchai/work/i-cube/I-CUBE-HUAWEI/Middlewares/Third_Party/Huawei/iot_link/oc/oc_mqtt/oc_mqtt_tiny_v5\oc_mqtt_tiny.c ****         {
 883:D:/fchai/work/i-cube/I-CUBE-HUAWEI/Middlewares/Third_Party/Huawei/iot_link/oc/oc_mqtt/oc_mqtt_tiny_v5\oc_mqtt_tiny.c ****             cb->flag.bits.bit_do_reportdisconnect = 0;
 884:D:/fchai/work/i-cube/I-CUBE-HUAWEI/Middlewares/Third_Party/Huawei/iot_link/oc/oc_mqtt/oc_mqtt_tiny_v5\oc_mqtt_tiny.c ****             cb->config.log_dealer(en_oc_mqtt_log_connected);
 885:D:/fchai/work/i-cube/I-CUBE-HUAWEI/Middlewares/Third_Party/Huawei/iot_link/oc/oc_mqtt/oc_mqtt_tiny_v5\oc_mqtt_tiny.c ****         }
 886:D:/fchai/work/i-cube/I-CUBE-HUAWEI/Middlewares/Third_Party/Huawei/iot_link/oc/oc_mqtt/oc_mqtt_tiny_v5\oc_mqtt_tiny.c ****     }
 887:D:/fchai/work/i-cube/I-CUBE-HUAWEI/Middlewares/Third_Party/Huawei/iot_link/oc/oc_mqtt/oc_mqtt_tiny_v5\oc_mqtt_tiny.c **** 
 888:D:/fchai/work/i-cube/I-CUBE-HUAWEI/Middlewares/Third_Party/Huawei/iot_link/oc/oc_mqtt/oc_mqtt_tiny_v5\oc_mqtt_tiny.c ****     LINK_LOG_DEBUG("%s:ok exit",__FUNCTION__);
 889:D:/fchai/work/i-cube/I-CUBE-HUAWEI/Middlewares/Third_Party/Huawei/iot_link/oc/oc_mqtt/oc_mqtt_tiny_v5\oc_mqtt_tiny.c ****     return ret;
 890:D:/fchai/work/i-cube/I-CUBE-HUAWEI/Middlewares/Third_Party/Huawei/iot_link/oc/oc_mqtt/oc_mqtt_tiny_v5\oc_mqtt_tiny.c **** 
 891:D:/fchai/work/i-cube/I-CUBE-HUAWEI/Middlewares/Third_Party/Huawei/iot_link/oc/oc_mqtt/oc_mqtt_tiny_v5\oc_mqtt_tiny.c **** EXIT_ERR:
 892:D:/fchai/work/i-cube/I-CUBE-HUAWEI/Middlewares/Third_Party/Huawei/iot_link/oc/oc_mqtt/oc_mqtt_tiny_v5\oc_mqtt_tiny.c ****     (void) oc_mqtt_para_release(cb);
 893:D:/fchai/work/i-cube/I-CUBE-HUAWEI/Middlewares/Third_Party/Huawei/iot_link/oc/oc_mqtt/oc_mqtt_tiny_v5\oc_mqtt_tiny.c ****     LINK_LOG_DEBUG("%s:err:%d",__FUNCTION__,ret);
 894:D:/fchai/work/i-cube/I-CUBE-HUAWEI/Middlewares/Third_Party/Huawei/iot_link/oc/oc_mqtt/oc_mqtt_tiny_v5\oc_mqtt_tiny.c ****     return ret;
 895:D:/fchai/work/i-cube/I-CUBE-HUAWEI/Middlewares/Third_Party/Huawei/iot_link/oc/oc_mqtt/oc_mqtt_tiny_v5\oc_mqtt_tiny.c **** 
 896:D:/fchai/work/i-cube/I-CUBE-HUAWEI/Middlewares/Third_Party/Huawei/iot_link/oc/oc_mqtt/oc_mqtt_tiny_v5\oc_mqtt_tiny.c **** }
 897:D:/fchai/work/i-cube/I-CUBE-HUAWEI/Middlewares/Third_Party/Huawei/iot_link/oc/oc_mqtt/oc_mqtt_tiny_v5\oc_mqtt_tiny.c **** 
 898:D:/fchai/work/i-cube/I-CUBE-HUAWEI/Middlewares/Third_Party/Huawei/iot_link/oc/oc_mqtt/oc_mqtt_tiny_v5\oc_mqtt_tiny.c **** ///< this is the hub connect subscribe
 899:D:/fchai/work/i-cube/I-CUBE-HUAWEI/Middlewares/Third_Party/Huawei/iot_link/oc/oc_mqtt/oc_mqtt_tiny_v5\oc_mqtt_tiny.c **** static int bs_step(oc_mqtt_tiny_cb_t  *cb)
 900:D:/fchai/work/i-cube/I-CUBE-HUAWEI/Middlewares/Third_Party/Huawei/iot_link/oc/oc_mqtt/oc_mqtt_tiny_v5\oc_mqtt_tiny.c **** {
 901:D:/fchai/work/i-cube/I-CUBE-HUAWEI/Middlewares/Third_Party/Huawei/iot_link/oc/oc_mqtt/oc_mqtt_tiny_v5\oc_mqtt_tiny.c ****     int ret = (int)en_oc_mqtt_err_system;
 902:D:/fchai/work/i-cube/I-CUBE-HUAWEI/Middlewares/Third_Party/Huawei/iot_link/oc/oc_mqtt/oc_mqtt_tiny_v5\oc_mqtt_tiny.c ****     int wait_times = CN_CON_BACKOFF_MAXTIMES;
 903:D:/fchai/work/i-cube/I-CUBE-HUAWEI/Middlewares/Third_Party/Huawei/iot_link/oc/oc_mqtt/oc_mqtt_tiny_v5\oc_mqtt_tiny.c **** 
 904:D:/fchai/work/i-cube/I-CUBE-HUAWEI/Middlewares/Third_Party/Huawei/iot_link/oc/oc_mqtt/oc_mqtt_tiny_v5\oc_mqtt_tiny.c ****     LINK_LOG_DEBUG("%s:enter",__FUNCTION__);
 905:D:/fchai/work/i-cube/I-CUBE-HUAWEI/Middlewares/Third_Party/Huawei/iot_link/oc/oc_mqtt/oc_mqtt_tiny_v5\oc_mqtt_tiny.c ****     cb->flag.bits.bit_get_hubaddr = 0;
 906:D:/fchai/work/i-cube/I-CUBE-HUAWEI/Middlewares/Third_Party/Huawei/iot_link/oc/oc_mqtt/oc_mqtt_tiny_v5\oc_mqtt_tiny.c **** 
 907:D:/fchai/work/i-cube/I-CUBE-HUAWEI/Middlewares/Third_Party/Huawei/iot_link/oc/oc_mqtt/oc_mqtt_tiny_v5\oc_mqtt_tiny.c ****     if((int)en_oc_mqtt_err_ok != oc_mqtt_para_gernerate(cb))
 908:D:/fchai/work/i-cube/I-CUBE-HUAWEI/Middlewares/Third_Party/Huawei/iot_link/oc/oc_mqtt/oc_mqtt_tiny_v5\oc_mqtt_tiny.c ****     {
ARM GAS  T:\msys\tmp\ccOGKCS9.s 			page 23


 909:D:/fchai/work/i-cube/I-CUBE-HUAWEI/Middlewares/Third_Party/Huawei/iot_link/oc/oc_mqtt/oc_mqtt_tiny_v5\oc_mqtt_tiny.c ****         goto EXIT_ERR;
 910:D:/fchai/work/i-cube/I-CUBE-HUAWEI/Middlewares/Third_Party/Huawei/iot_link/oc/oc_mqtt/oc_mqtt_tiny_v5\oc_mqtt_tiny.c ****     }
 911:D:/fchai/work/i-cube/I-CUBE-HUAWEI/Middlewares/Third_Party/Huawei/iot_link/oc/oc_mqtt/oc_mqtt_tiny_v5\oc_mqtt_tiny.c **** 
 912:D:/fchai/work/i-cube/I-CUBE-HUAWEI/Middlewares/Third_Party/Huawei/iot_link/oc/oc_mqtt/oc_mqtt_tiny_v5\oc_mqtt_tiny.c ****     ret = dmp_connect(cb);
 913:D:/fchai/work/i-cube/I-CUBE-HUAWEI/Middlewares/Third_Party/Huawei/iot_link/oc/oc_mqtt/oc_mqtt_tiny_v5\oc_mqtt_tiny.c ****     if((int)en_oc_mqtt_err_ok != ret)
 914:D:/fchai/work/i-cube/I-CUBE-HUAWEI/Middlewares/Third_Party/Huawei/iot_link/oc/oc_mqtt/oc_mqtt_tiny_v5\oc_mqtt_tiny.c ****     {
 915:D:/fchai/work/i-cube/I-CUBE-HUAWEI/Middlewares/Third_Party/Huawei/iot_link/oc/oc_mqtt/oc_mqtt_tiny_v5\oc_mqtt_tiny.c ****        goto EXIT_ERR;
 916:D:/fchai/work/i-cube/I-CUBE-HUAWEI/Middlewares/Third_Party/Huawei/iot_link/oc/oc_mqtt/oc_mqtt_tiny_v5\oc_mqtt_tiny.c ****     }
 917:D:/fchai/work/i-cube/I-CUBE-HUAWEI/Middlewares/Third_Party/Huawei/iot_link/oc/oc_mqtt/oc_mqtt_tiny_v5\oc_mqtt_tiny.c ****     ///< subscribe the topic here
 918:D:/fchai/work/i-cube/I-CUBE-HUAWEI/Middlewares/Third_Party/Huawei/iot_link/oc/oc_mqtt/oc_mqtt_tiny_v5\oc_mqtt_tiny.c ****     ret = dmp_subscribe(cb);
 919:D:/fchai/work/i-cube/I-CUBE-HUAWEI/Middlewares/Third_Party/Huawei/iot_link/oc/oc_mqtt/oc_mqtt_tiny_v5\oc_mqtt_tiny.c ****     if(ret  != (int)en_oc_mqtt_err_ok)
 920:D:/fchai/work/i-cube/I-CUBE-HUAWEI/Middlewares/Third_Party/Huawei/iot_link/oc/oc_mqtt/oc_mqtt_tiny_v5\oc_mqtt_tiny.c ****     {
 921:D:/fchai/work/i-cube/I-CUBE-HUAWEI/Middlewares/Third_Party/Huawei/iot_link/oc/oc_mqtt/oc_mqtt_tiny_v5\oc_mqtt_tiny.c ****        goto EXIT_ERR;
 922:D:/fchai/work/i-cube/I-CUBE-HUAWEI/Middlewares/Third_Party/Huawei/iot_link/oc/oc_mqtt/oc_mqtt_tiny_v5\oc_mqtt_tiny.c ****     }
 923:D:/fchai/work/i-cube/I-CUBE-HUAWEI/Middlewares/Third_Party/Huawei/iot_link/oc/oc_mqtt/oc_mqtt_tiny_v5\oc_mqtt_tiny.c **** 
 924:D:/fchai/work/i-cube/I-CUBE-HUAWEI/Middlewares/Third_Party/Huawei/iot_link/oc/oc_mqtt/oc_mqtt_tiny_v5\oc_mqtt_tiny.c ****     ///< pub the mqtt request
 925:D:/fchai/work/i-cube/I-CUBE-HUAWEI/Middlewares/Third_Party/Huawei/iot_link/oc/oc_mqtt/oc_mqtt_tiny_v5\oc_mqtt_tiny.c ****     if(ret != dmp_publish(cb,NULL,NULL,0,1))
 926:D:/fchai/work/i-cube/I-CUBE-HUAWEI/Middlewares/Third_Party/Huawei/iot_link/oc/oc_mqtt/oc_mqtt_tiny_v5\oc_mqtt_tiny.c ****     {
 927:D:/fchai/work/i-cube/I-CUBE-HUAWEI/Middlewares/Third_Party/Huawei/iot_link/oc/oc_mqtt/oc_mqtt_tiny_v5\oc_mqtt_tiny.c ****         goto EXIT_ERR;
 928:D:/fchai/work/i-cube/I-CUBE-HUAWEI/Middlewares/Third_Party/Huawei/iot_link/oc/oc_mqtt/oc_mqtt_tiny_v5\oc_mqtt_tiny.c ****     }
 929:D:/fchai/work/i-cube/I-CUBE-HUAWEI/Middlewares/Third_Party/Huawei/iot_link/oc/oc_mqtt/oc_mqtt_tiny_v5\oc_mqtt_tiny.c ****     ///< do the wait for the new address until timeout
 930:D:/fchai/work/i-cube/I-CUBE-HUAWEI/Middlewares/Third_Party/Huawei/iot_link/oc/oc_mqtt/oc_mqtt_tiny_v5\oc_mqtt_tiny.c ****     while((0 == cb->flag.bits.bit_get_hubaddr) && (wait_times-- > 0))
 931:D:/fchai/work/i-cube/I-CUBE-HUAWEI/Middlewares/Third_Party/Huawei/iot_link/oc/oc_mqtt/oc_mqtt_tiny_v5\oc_mqtt_tiny.c ****     {
 932:D:/fchai/work/i-cube/I-CUBE-HUAWEI/Middlewares/Third_Party/Huawei/iot_link/oc/oc_mqtt/oc_mqtt_tiny_v5\oc_mqtt_tiny.c ****         osal_task_sleep(CN_CON_BACKOFF_TIME);
 933:D:/fchai/work/i-cube/I-CUBE-HUAWEI/Middlewares/Third_Party/Huawei/iot_link/oc/oc_mqtt/oc_mqtt_tiny_v5\oc_mqtt_tiny.c ****     }
 934:D:/fchai/work/i-cube/I-CUBE-HUAWEI/Middlewares/Third_Party/Huawei/iot_link/oc/oc_mqtt/oc_mqtt_tiny_v5\oc_mqtt_tiny.c **** 
 935:D:/fchai/work/i-cube/I-CUBE-HUAWEI/Middlewares/Third_Party/Huawei/iot_link/oc/oc_mqtt/oc_mqtt_tiny_v5\oc_mqtt_tiny.c ****     if(cb->flag.bits.bit_get_hubaddr)
 936:D:/fchai/work/i-cube/I-CUBE-HUAWEI/Middlewares/Third_Party/Huawei/iot_link/oc/oc_mqtt/oc_mqtt_tiny_v5\oc_mqtt_tiny.c ****     {
 937:D:/fchai/work/i-cube/I-CUBE-HUAWEI/Middlewares/Third_Party/Huawei/iot_link/oc/oc_mqtt/oc_mqtt_tiny_v5\oc_mqtt_tiny.c ****         ret = (int)en_oc_mqtt_err_ok;
 938:D:/fchai/work/i-cube/I-CUBE-HUAWEI/Middlewares/Third_Party/Huawei/iot_link/oc/oc_mqtt/oc_mqtt_tiny_v5\oc_mqtt_tiny.c ****     }
 939:D:/fchai/work/i-cube/I-CUBE-HUAWEI/Middlewares/Third_Party/Huawei/iot_link/oc/oc_mqtt/oc_mqtt_tiny_v5\oc_mqtt_tiny.c ****     else
 940:D:/fchai/work/i-cube/I-CUBE-HUAWEI/Middlewares/Third_Party/Huawei/iot_link/oc/oc_mqtt/oc_mqtt_tiny_v5\oc_mqtt_tiny.c ****     {
 941:D:/fchai/work/i-cube/I-CUBE-HUAWEI/Middlewares/Third_Party/Huawei/iot_link/oc/oc_mqtt/oc_mqtt_tiny_v5\oc_mqtt_tiny.c ****         ret = (int)en_oc_mqtt_err_gethubaddrtimeout;
 942:D:/fchai/work/i-cube/I-CUBE-HUAWEI/Middlewares/Third_Party/Huawei/iot_link/oc/oc_mqtt/oc_mqtt_tiny_v5\oc_mqtt_tiny.c ****     }
 943:D:/fchai/work/i-cube/I-CUBE-HUAWEI/Middlewares/Third_Party/Huawei/iot_link/oc/oc_mqtt/oc_mqtt_tiny_v5\oc_mqtt_tiny.c **** 
 944:D:/fchai/work/i-cube/I-CUBE-HUAWEI/Middlewares/Third_Party/Huawei/iot_link/oc/oc_mqtt/oc_mqtt_tiny_v5\oc_mqtt_tiny.c **** 
 945:D:/fchai/work/i-cube/I-CUBE-HUAWEI/Middlewares/Third_Party/Huawei/iot_link/oc/oc_mqtt/oc_mqtt_tiny_v5\oc_mqtt_tiny.c **** 
 946:D:/fchai/work/i-cube/I-CUBE-HUAWEI/Middlewares/Third_Party/Huawei/iot_link/oc/oc_mqtt/oc_mqtt_tiny_v5\oc_mqtt_tiny.c **** EXIT_ERR:
 947:D:/fchai/work/i-cube/I-CUBE-HUAWEI/Middlewares/Third_Party/Huawei/iot_link/oc/oc_mqtt/oc_mqtt_tiny_v5\oc_mqtt_tiny.c ****     (void) oc_mqtt_para_release(cb);
 948:D:/fchai/work/i-cube/I-CUBE-HUAWEI/Middlewares/Third_Party/Huawei/iot_link/oc/oc_mqtt/oc_mqtt_tiny_v5\oc_mqtt_tiny.c ****     LINK_LOG_DEBUG("%s:exit ret:%d",__FUNCTION__,ret);
 949:D:/fchai/work/i-cube/I-CUBE-HUAWEI/Middlewares/Third_Party/Huawei/iot_link/oc/oc_mqtt/oc_mqtt_tiny_v5\oc_mqtt_tiny.c **** 
 950:D:/fchai/work/i-cube/I-CUBE-HUAWEI/Middlewares/Third_Party/Huawei/iot_link/oc/oc_mqtt/oc_mqtt_tiny_v5\oc_mqtt_tiny.c ****     return ret;
 951:D:/fchai/work/i-cube/I-CUBE-HUAWEI/Middlewares/Third_Party/Huawei/iot_link/oc/oc_mqtt/oc_mqtt_tiny_v5\oc_mqtt_tiny.c **** 
 952:D:/fchai/work/i-cube/I-CUBE-HUAWEI/Middlewares/Third_Party/Huawei/iot_link/oc/oc_mqtt/oc_mqtt_tiny_v5\oc_mqtt_tiny.c **** }
 953:D:/fchai/work/i-cube/I-CUBE-HUAWEI/Middlewares/Third_Party/Huawei/iot_link/oc/oc_mqtt/oc_mqtt_tiny_v5\oc_mqtt_tiny.c **** 
 954:D:/fchai/work/i-cube/I-CUBE-HUAWEI/Middlewares/Third_Party/Huawei/iot_link/oc/oc_mqtt/oc_mqtt_tiny_v5\oc_mqtt_tiny.c **** 
 955:D:/fchai/work/i-cube/I-CUBE-HUAWEI/Middlewares/Third_Party/Huawei/iot_link/oc/oc_mqtt/oc_mqtt_tiny_v5\oc_mqtt_tiny.c **** ///< this function deal with api subscribe
 956:D:/fchai/work/i-cube/I-CUBE-HUAWEI/Middlewares/Third_Party/Huawei/iot_link/oc/oc_mqtt/oc_mqtt_tiny_v5\oc_mqtt_tiny.c **** static int deal_api_subscribe( oc_mqtt_tiny_cb_t  *cb, oc_mqtt_daemon_cmd_t *cmd)
 957:D:/fchai/work/i-cube/I-CUBE-HUAWEI/Middlewares/Third_Party/Huawei/iot_link/oc/oc_mqtt/oc_mqtt_tiny_v5\oc_mqtt_tiny.c **** {
 958:D:/fchai/work/i-cube/I-CUBE-HUAWEI/Middlewares/Third_Party/Huawei/iot_link/oc/oc_mqtt/oc_mqtt_tiny_v5\oc_mqtt_tiny.c ****     int ret = (int)en_oc_mqtt_err_noconfigured;
 959:D:/fchai/work/i-cube/I-CUBE-HUAWEI/Middlewares/Third_Party/Huawei/iot_link/oc/oc_mqtt/oc_mqtt_tiny_v5\oc_mqtt_tiny.c ****     tiny_topic_sub_t  *topic_sub;
 960:D:/fchai/work/i-cube/I-CUBE-HUAWEI/Middlewares/Third_Party/Huawei/iot_link/oc/oc_mqtt/oc_mqtt_tiny_v5\oc_mqtt_tiny.c ****     mqtt_al_subpara_t *subpara;
 961:D:/fchai/work/i-cube/I-CUBE-HUAWEI/Middlewares/Third_Party/Huawei/iot_link/oc/oc_mqtt/oc_mqtt_tiny_v5\oc_mqtt_tiny.c ****     mqtt_al_subpara_t  sub_new;
 962:D:/fchai/work/i-cube/I-CUBE-HUAWEI/Middlewares/Third_Party/Huawei/iot_link/oc/oc_mqtt/oc_mqtt_tiny_v5\oc_mqtt_tiny.c **** 
 963:D:/fchai/work/i-cube/I-CUBE-HUAWEI/Middlewares/Third_Party/Huawei/iot_link/oc/oc_mqtt/oc_mqtt_tiny_v5\oc_mqtt_tiny.c ****     subpara = cmd->arg;
 964:D:/fchai/work/i-cube/I-CUBE-HUAWEI/Middlewares/Third_Party/Huawei/iot_link/oc/oc_mqtt/oc_mqtt_tiny_v5\oc_mqtt_tiny.c ****     if((int)en_daemon_status_idle == cb->flag.bits.bit_daemon_status)
 965:D:/fchai/work/i-cube/I-CUBE-HUAWEI/Middlewares/Third_Party/Huawei/iot_link/oc/oc_mqtt/oc_mqtt_tiny_v5\oc_mqtt_tiny.c ****     {
ARM GAS  T:\msys\tmp\ccOGKCS9.s 			page 24


 966:D:/fchai/work/i-cube/I-CUBE-HUAWEI/Middlewares/Third_Party/Huawei/iot_link/oc/oc_mqtt/oc_mqtt_tiny_v5\oc_mqtt_tiny.c ****         ret = (int)en_oc_mqtt_err_noconfigured;
 967:D:/fchai/work/i-cube/I-CUBE-HUAWEI/Middlewares/Third_Party/Huawei/iot_link/oc/oc_mqtt/oc_mqtt_tiny_v5\oc_mqtt_tiny.c ****     }
 968:D:/fchai/work/i-cube/I-CUBE-HUAWEI/Middlewares/Third_Party/Huawei/iot_link/oc/oc_mqtt/oc_mqtt_tiny_v5\oc_mqtt_tiny.c ****     else if(((int)en_daemon_status_hub_keep == cb->flag.bits.bit_daemon_status) &&\
 969:D:/fchai/work/i-cube/I-CUBE-HUAWEI/Middlewares/Third_Party/Huawei/iot_link/oc/oc_mqtt/oc_mqtt_tiny_v5\oc_mqtt_tiny.c ****             (en_mqtt_al_connect_ok == mqtt_al_check_status(cb->mqtt_para.mqtt_handle)))
 970:D:/fchai/work/i-cube/I-CUBE-HUAWEI/Middlewares/Third_Party/Huawei/iot_link/oc/oc_mqtt/oc_mqtt_tiny_v5\oc_mqtt_tiny.c ****     {
 971:D:/fchai/work/i-cube/I-CUBE-HUAWEI/Middlewares/Third_Party/Huawei/iot_link/oc/oc_mqtt/oc_mqtt_tiny_v5\oc_mqtt_tiny.c ****         ///< checkif the topic has been subscribe
 972:D:/fchai/work/i-cube/I-CUBE-HUAWEI/Middlewares/Third_Party/Huawei/iot_link/oc/oc_mqtt/oc_mqtt_tiny_v5\oc_mqtt_tiny.c ****         topic_sub = cb->subscribe_lst;
 973:D:/fchai/work/i-cube/I-CUBE-HUAWEI/Middlewares/Third_Party/Huawei/iot_link/oc/oc_mqtt/oc_mqtt_tiny_v5\oc_mqtt_tiny.c ****         while(NULL != topic_sub)
 974:D:/fchai/work/i-cube/I-CUBE-HUAWEI/Middlewares/Third_Party/Huawei/iot_link/oc/oc_mqtt/oc_mqtt_tiny_v5\oc_mqtt_tiny.c ****         {
 975:D:/fchai/work/i-cube/I-CUBE-HUAWEI/Middlewares/Third_Party/Huawei/iot_link/oc/oc_mqtt/oc_mqtt_tiny_v5\oc_mqtt_tiny.c ****             if(0 == strcmp(topic_sub->topic, subpara->topic.data))
 976:D:/fchai/work/i-cube/I-CUBE-HUAWEI/Middlewares/Third_Party/Huawei/iot_link/oc/oc_mqtt/oc_mqtt_tiny_v5\oc_mqtt_tiny.c ****             {
 977:D:/fchai/work/i-cube/I-CUBE-HUAWEI/Middlewares/Third_Party/Huawei/iot_link/oc/oc_mqtt/oc_mqtt_tiny_v5\oc_mqtt_tiny.c ****                 break;
 978:D:/fchai/work/i-cube/I-CUBE-HUAWEI/Middlewares/Third_Party/Huawei/iot_link/oc/oc_mqtt/oc_mqtt_tiny_v5\oc_mqtt_tiny.c ****             }
 979:D:/fchai/work/i-cube/I-CUBE-HUAWEI/Middlewares/Third_Party/Huawei/iot_link/oc/oc_mqtt/oc_mqtt_tiny_v5\oc_mqtt_tiny.c ****             topic_sub = topic_sub->nxt;
 980:D:/fchai/work/i-cube/I-CUBE-HUAWEI/Middlewares/Third_Party/Huawei/iot_link/oc/oc_mqtt/oc_mqtt_tiny_v5\oc_mqtt_tiny.c ****         }
 981:D:/fchai/work/i-cube/I-CUBE-HUAWEI/Middlewares/Third_Party/Huawei/iot_link/oc/oc_mqtt/oc_mqtt_tiny_v5\oc_mqtt_tiny.c **** 
 982:D:/fchai/work/i-cube/I-CUBE-HUAWEI/Middlewares/Third_Party/Huawei/iot_link/oc/oc_mqtt/oc_mqtt_tiny_v5\oc_mqtt_tiny.c ****         if(NULL != topic_sub) ///< THERE HAS BEEN ONE
 983:D:/fchai/work/i-cube/I-CUBE-HUAWEI/Middlewares/Third_Party/Huawei/iot_link/oc/oc_mqtt/oc_mqtt_tiny_v5\oc_mqtt_tiny.c ****         {
 984:D:/fchai/work/i-cube/I-CUBE-HUAWEI/Middlewares/Third_Party/Huawei/iot_link/oc/oc_mqtt/oc_mqtt_tiny_v5\oc_mqtt_tiny.c ****             LINK_LOG_DEBUG("RESUBSCRIBED THE SAME TOPIC");
 985:D:/fchai/work/i-cube/I-CUBE-HUAWEI/Middlewares/Third_Party/Huawei/iot_link/oc/oc_mqtt/oc_mqtt_tiny_v5\oc_mqtt_tiny.c ****             ret = (int)en_oc_mqtt_err_subscribe;
 986:D:/fchai/work/i-cube/I-CUBE-HUAWEI/Middlewares/Third_Party/Huawei/iot_link/oc/oc_mqtt/oc_mqtt_tiny_v5\oc_mqtt_tiny.c ****         }
 987:D:/fchai/work/i-cube/I-CUBE-HUAWEI/Middlewares/Third_Party/Huawei/iot_link/oc/oc_mqtt/oc_mqtt_tiny_v5\oc_mqtt_tiny.c ****         else
 988:D:/fchai/work/i-cube/I-CUBE-HUAWEI/Middlewares/Third_Party/Huawei/iot_link/oc/oc_mqtt/oc_mqtt_tiny_v5\oc_mqtt_tiny.c ****         {
 989:D:/fchai/work/i-cube/I-CUBE-HUAWEI/Middlewares/Third_Party/Huawei/iot_link/oc/oc_mqtt/oc_mqtt_tiny_v5\oc_mqtt_tiny.c ****             topic_sub = osal_malloc( sizeof( tiny_topic_sub_t ) + subpara->topic.len + 1 );
 990:D:/fchai/work/i-cube/I-CUBE-HUAWEI/Middlewares/Third_Party/Huawei/iot_link/oc/oc_mqtt/oc_mqtt_tiny_v5\oc_mqtt_tiny.c ****             if ( NULL != topic_sub)
 991:D:/fchai/work/i-cube/I-CUBE-HUAWEI/Middlewares/Third_Party/Huawei/iot_link/oc/oc_mqtt/oc_mqtt_tiny_v5\oc_mqtt_tiny.c ****             {
 992:D:/fchai/work/i-cube/I-CUBE-HUAWEI/Middlewares/Third_Party/Huawei/iot_link/oc/oc_mqtt/oc_mqtt_tiny_v5\oc_mqtt_tiny.c ****                 ///< initialize the subtopic and add it to the subscribe list when success
 993:D:/fchai/work/i-cube/I-CUBE-HUAWEI/Middlewares/Third_Party/Huawei/iot_link/oc/oc_mqtt/oc_mqtt_tiny_v5\oc_mqtt_tiny.c ****                 topic_sub->qos = (int) subpara->qos;
 994:D:/fchai/work/i-cube/I-CUBE-HUAWEI/Middlewares/Third_Party/Huawei/iot_link/oc/oc_mqtt/oc_mqtt_tiny_v5\oc_mqtt_tiny.c ****                 topic_sub->topic = (char *)topic_sub + sizeof(tiny_topic_sub_t);
 995:D:/fchai/work/i-cube/I-CUBE-HUAWEI/Middlewares/Third_Party/Huawei/iot_link/oc/oc_mqtt/oc_mqtt_tiny_v5\oc_mqtt_tiny.c ****                 (void) strncpy(topic_sub->topic, subpara->topic.data,subpara->topic.len);
 996:D:/fchai/work/i-cube/I-CUBE-HUAWEI/Middlewares/Third_Party/Huawei/iot_link/oc/oc_mqtt/oc_mqtt_tiny_v5\oc_mqtt_tiny.c ****                 topic_sub->topic[subpara->topic.len] = '\0';
 997:D:/fchai/work/i-cube/I-CUBE-HUAWEI/Middlewares/Third_Party/Huawei/iot_link/oc/oc_mqtt/oc_mqtt_tiny_v5\oc_mqtt_tiny.c **** 
 998:D:/fchai/work/i-cube/I-CUBE-HUAWEI/Middlewares/Third_Party/Huawei/iot_link/oc/oc_mqtt/oc_mqtt_tiny_v5\oc_mqtt_tiny.c ****                 ///< copy the old parameters to the new one, for we could not change the user's mem
 999:D:/fchai/work/i-cube/I-CUBE-HUAWEI/Middlewares/Third_Party/Huawei/iot_link/oc/oc_mqtt/oc_mqtt_tiny_v5\oc_mqtt_tiny.c ****                 (void)memset(&sub_new,0,sizeof(sub_new));
1000:D:/fchai/work/i-cube/I-CUBE-HUAWEI/Middlewares/Third_Party/Huawei/iot_link/oc/oc_mqtt/oc_mqtt_tiny_v5\oc_mqtt_tiny.c ****                 sub_new.arg = cb;
1001:D:/fchai/work/i-cube/I-CUBE-HUAWEI/Middlewares/Third_Party/Huawei/iot_link/oc/oc_mqtt/oc_mqtt_tiny_v5\oc_mqtt_tiny.c ****                 sub_new.dealer = hub_msg_default_deal;
1002:D:/fchai/work/i-cube/I-CUBE-HUAWEI/Middlewares/Third_Party/Huawei/iot_link/oc/oc_mqtt/oc_mqtt_tiny_v5\oc_mqtt_tiny.c ****                 sub_new.timeout = CN_OC_MQTT_TIMEOUT;
1003:D:/fchai/work/i-cube/I-CUBE-HUAWEI/Middlewares/Third_Party/Huawei/iot_link/oc/oc_mqtt/oc_mqtt_tiny_v5\oc_mqtt_tiny.c ****                 sub_new.qos = topic_sub->qos;
1004:D:/fchai/work/i-cube/I-CUBE-HUAWEI/Middlewares/Third_Party/Huawei/iot_link/oc/oc_mqtt/oc_mqtt_tiny_v5\oc_mqtt_tiny.c ****                 sub_new.topic.data  = topic_sub->topic;
1005:D:/fchai/work/i-cube/I-CUBE-HUAWEI/Middlewares/Third_Party/Huawei/iot_link/oc/oc_mqtt/oc_mqtt_tiny_v5\oc_mqtt_tiny.c ****                 sub_new.topic.len = subpara->topic.len;
1006:D:/fchai/work/i-cube/I-CUBE-HUAWEI/Middlewares/Third_Party/Huawei/iot_link/oc/oc_mqtt/oc_mqtt_tiny_v5\oc_mqtt_tiny.c ****                 if( 0  == mqtt_al_subscribe( cb->mqtt_para.mqtt_handle, &sub_new) )
1007:D:/fchai/work/i-cube/I-CUBE-HUAWEI/Middlewares/Third_Party/Huawei/iot_link/oc/oc_mqtt/oc_mqtt_tiny_v5\oc_mqtt_tiny.c ****                 {
1008:D:/fchai/work/i-cube/I-CUBE-HUAWEI/Middlewares/Third_Party/Huawei/iot_link/oc/oc_mqtt/oc_mqtt_tiny_v5\oc_mqtt_tiny.c ****                     topic_sub->nxt = cb->subscribe_lst;
1009:D:/fchai/work/i-cube/I-CUBE-HUAWEI/Middlewares/Third_Party/Huawei/iot_link/oc/oc_mqtt/oc_mqtt_tiny_v5\oc_mqtt_tiny.c ****                     cb->subscribe_lst = topic_sub;
1010:D:/fchai/work/i-cube/I-CUBE-HUAWEI/Middlewares/Third_Party/Huawei/iot_link/oc/oc_mqtt/oc_mqtt_tiny_v5\oc_mqtt_tiny.c ****                     ret = (int)en_oc_mqtt_err_ok;
1011:D:/fchai/work/i-cube/I-CUBE-HUAWEI/Middlewares/Third_Party/Huawei/iot_link/oc/oc_mqtt/oc_mqtt_tiny_v5\oc_mqtt_tiny.c ****                 }
1012:D:/fchai/work/i-cube/I-CUBE-HUAWEI/Middlewares/Third_Party/Huawei/iot_link/oc/oc_mqtt/oc_mqtt_tiny_v5\oc_mqtt_tiny.c ****                 else
1013:D:/fchai/work/i-cube/I-CUBE-HUAWEI/Middlewares/Third_Party/Huawei/iot_link/oc/oc_mqtt/oc_mqtt_tiny_v5\oc_mqtt_tiny.c ****                 {
1014:D:/fchai/work/i-cube/I-CUBE-HUAWEI/Middlewares/Third_Party/Huawei/iot_link/oc/oc_mqtt/oc_mqtt_tiny_v5\oc_mqtt_tiny.c ****                     osal_free ( topic_sub );
1015:D:/fchai/work/i-cube/I-CUBE-HUAWEI/Middlewares/Third_Party/Huawei/iot_link/oc/oc_mqtt/oc_mqtt_tiny_v5\oc_mqtt_tiny.c ****                     ret = (int)en_oc_mqtt_err_subscribe;
1016:D:/fchai/work/i-cube/I-CUBE-HUAWEI/Middlewares/Third_Party/Huawei/iot_link/oc/oc_mqtt/oc_mqtt_tiny_v5\oc_mqtt_tiny.c ****                 }
1017:D:/fchai/work/i-cube/I-CUBE-HUAWEI/Middlewares/Third_Party/Huawei/iot_link/oc/oc_mqtt/oc_mqtt_tiny_v5\oc_mqtt_tiny.c ****                 subpara->subret = sub_new.subret;
1018:D:/fchai/work/i-cube/I-CUBE-HUAWEI/Middlewares/Third_Party/Huawei/iot_link/oc/oc_mqtt/oc_mqtt_tiny_v5\oc_mqtt_tiny.c ****             }
1019:D:/fchai/work/i-cube/I-CUBE-HUAWEI/Middlewares/Third_Party/Huawei/iot_link/oc/oc_mqtt/oc_mqtt_tiny_v5\oc_mqtt_tiny.c ****             else
1020:D:/fchai/work/i-cube/I-CUBE-HUAWEI/Middlewares/Third_Party/Huawei/iot_link/oc/oc_mqtt/oc_mqtt_tiny_v5\oc_mqtt_tiny.c ****             {
1021:D:/fchai/work/i-cube/I-CUBE-HUAWEI/Middlewares/Third_Party/Huawei/iot_link/oc/oc_mqtt/oc_mqtt_tiny_v5\oc_mqtt_tiny.c ****                 ret = (int)en_oc_mqtt_err_sysmem;
1022:D:/fchai/work/i-cube/I-CUBE-HUAWEI/Middlewares/Third_Party/Huawei/iot_link/oc/oc_mqtt/oc_mqtt_tiny_v5\oc_mqtt_tiny.c ****             }
ARM GAS  T:\msys\tmp\ccOGKCS9.s 			page 25


1023:D:/fchai/work/i-cube/I-CUBE-HUAWEI/Middlewares/Third_Party/Huawei/iot_link/oc/oc_mqtt/oc_mqtt_tiny_v5\oc_mqtt_tiny.c ****         }
1024:D:/fchai/work/i-cube/I-CUBE-HUAWEI/Middlewares/Third_Party/Huawei/iot_link/oc/oc_mqtt/oc_mqtt_tiny_v5\oc_mqtt_tiny.c ****     }
1025:D:/fchai/work/i-cube/I-CUBE-HUAWEI/Middlewares/Third_Party/Huawei/iot_link/oc/oc_mqtt/oc_mqtt_tiny_v5\oc_mqtt_tiny.c ****     else
1026:D:/fchai/work/i-cube/I-CUBE-HUAWEI/Middlewares/Third_Party/Huawei/iot_link/oc/oc_mqtt/oc_mqtt_tiny_v5\oc_mqtt_tiny.c ****     {
1027:D:/fchai/work/i-cube/I-CUBE-HUAWEI/Middlewares/Third_Party/Huawei/iot_link/oc/oc_mqtt/oc_mqtt_tiny_v5\oc_mqtt_tiny.c ****         ret = (int)en_oc_mqtt_err_noconected;
1028:D:/fchai/work/i-cube/I-CUBE-HUAWEI/Middlewares/Third_Party/Huawei/iot_link/oc/oc_mqtt/oc_mqtt_tiny_v5\oc_mqtt_tiny.c ****     }
1029:D:/fchai/work/i-cube/I-CUBE-HUAWEI/Middlewares/Third_Party/Huawei/iot_link/oc/oc_mqtt/oc_mqtt_tiny_v5\oc_mqtt_tiny.c **** 
1030:D:/fchai/work/i-cube/I-CUBE-HUAWEI/Middlewares/Third_Party/Huawei/iot_link/oc/oc_mqtt/oc_mqtt_tiny_v5\oc_mqtt_tiny.c ****     cmd->retcode = ret;
1031:D:/fchai/work/i-cube/I-CUBE-HUAWEI/Middlewares/Third_Party/Huawei/iot_link/oc/oc_mqtt/oc_mqtt_tiny_v5\oc_mqtt_tiny.c **** 
1032:D:/fchai/work/i-cube/I-CUBE-HUAWEI/Middlewares/Third_Party/Huawei/iot_link/oc/oc_mqtt/oc_mqtt_tiny_v5\oc_mqtt_tiny.c ****     return ret;
1033:D:/fchai/work/i-cube/I-CUBE-HUAWEI/Middlewares/Third_Party/Huawei/iot_link/oc/oc_mqtt/oc_mqtt_tiny_v5\oc_mqtt_tiny.c **** 
1034:D:/fchai/work/i-cube/I-CUBE-HUAWEI/Middlewares/Third_Party/Huawei/iot_link/oc/oc_mqtt/oc_mqtt_tiny_v5\oc_mqtt_tiny.c **** }
1035:D:/fchai/work/i-cube/I-CUBE-HUAWEI/Middlewares/Third_Party/Huawei/iot_link/oc/oc_mqtt/oc_mqtt_tiny_v5\oc_mqtt_tiny.c **** 
1036:D:/fchai/work/i-cube/I-CUBE-HUAWEI/Middlewares/Third_Party/Huawei/iot_link/oc/oc_mqtt/oc_mqtt_tiny_v5\oc_mqtt_tiny.c **** ///< unsubscribe the specified topic
1037:D:/fchai/work/i-cube/I-CUBE-HUAWEI/Middlewares/Third_Party/Huawei/iot_link/oc/oc_mqtt/oc_mqtt_tiny_v5\oc_mqtt_tiny.c **** static int deal_api_unsubscribe( oc_mqtt_tiny_cb_t  *cb, oc_mqtt_daemon_cmd_t *cmd)
1038:D:/fchai/work/i-cube/I-CUBE-HUAWEI/Middlewares/Third_Party/Huawei/iot_link/oc/oc_mqtt/oc_mqtt_tiny_v5\oc_mqtt_tiny.c **** {
1039:D:/fchai/work/i-cube/I-CUBE-HUAWEI/Middlewares/Third_Party/Huawei/iot_link/oc/oc_mqtt/oc_mqtt_tiny_v5\oc_mqtt_tiny.c ****     int ret = (int)en_oc_mqtt_err_noconfigured;
1040:D:/fchai/work/i-cube/I-CUBE-HUAWEI/Middlewares/Third_Party/Huawei/iot_link/oc/oc_mqtt/oc_mqtt_tiny_v5\oc_mqtt_tiny.c ****     tiny_topic_sub_t  *topic_sub;
1041:D:/fchai/work/i-cube/I-CUBE-HUAWEI/Middlewares/Third_Party/Huawei/iot_link/oc/oc_mqtt/oc_mqtt_tiny_v5\oc_mqtt_tiny.c ****     tiny_topic_sub_t  *topic_sub_nxt;
1042:D:/fchai/work/i-cube/I-CUBE-HUAWEI/Middlewares/Third_Party/Huawei/iot_link/oc/oc_mqtt/oc_mqtt_tiny_v5\oc_mqtt_tiny.c ****     mqtt_al_unsubpara_t *unsubpara;
1043:D:/fchai/work/i-cube/I-CUBE-HUAWEI/Middlewares/Third_Party/Huawei/iot_link/oc/oc_mqtt/oc_mqtt_tiny_v5\oc_mqtt_tiny.c **** 
1044:D:/fchai/work/i-cube/I-CUBE-HUAWEI/Middlewares/Third_Party/Huawei/iot_link/oc/oc_mqtt/oc_mqtt_tiny_v5\oc_mqtt_tiny.c ****     unsubpara = cmd->arg;
1045:D:/fchai/work/i-cube/I-CUBE-HUAWEI/Middlewares/Third_Party/Huawei/iot_link/oc/oc_mqtt/oc_mqtt_tiny_v5\oc_mqtt_tiny.c **** 
1046:D:/fchai/work/i-cube/I-CUBE-HUAWEI/Middlewares/Third_Party/Huawei/iot_link/oc/oc_mqtt/oc_mqtt_tiny_v5\oc_mqtt_tiny.c ****     if((int)en_daemon_status_idle == cb->flag.bits.bit_daemon_status)
1047:D:/fchai/work/i-cube/I-CUBE-HUAWEI/Middlewares/Third_Party/Huawei/iot_link/oc/oc_mqtt/oc_mqtt_tiny_v5\oc_mqtt_tiny.c ****     {
1048:D:/fchai/work/i-cube/I-CUBE-HUAWEI/Middlewares/Third_Party/Huawei/iot_link/oc/oc_mqtt/oc_mqtt_tiny_v5\oc_mqtt_tiny.c ****         ret = (int)en_oc_mqtt_err_noconfigured;
1049:D:/fchai/work/i-cube/I-CUBE-HUAWEI/Middlewares/Third_Party/Huawei/iot_link/oc/oc_mqtt/oc_mqtt_tiny_v5\oc_mqtt_tiny.c ****     }
1050:D:/fchai/work/i-cube/I-CUBE-HUAWEI/Middlewares/Third_Party/Huawei/iot_link/oc/oc_mqtt/oc_mqtt_tiny_v5\oc_mqtt_tiny.c ****     else if(((int)en_daemon_status_hub_keep == cb->flag.bits.bit_daemon_status) &&\
1051:D:/fchai/work/i-cube/I-CUBE-HUAWEI/Middlewares/Third_Party/Huawei/iot_link/oc/oc_mqtt/oc_mqtt_tiny_v5\oc_mqtt_tiny.c ****             (en_mqtt_al_connect_ok == mqtt_al_check_status(cb->mqtt_para.mqtt_handle)))
1052:D:/fchai/work/i-cube/I-CUBE-HUAWEI/Middlewares/Third_Party/Huawei/iot_link/oc/oc_mqtt/oc_mqtt_tiny_v5\oc_mqtt_tiny.c ****     {
1053:D:/fchai/work/i-cube/I-CUBE-HUAWEI/Middlewares/Third_Party/Huawei/iot_link/oc/oc_mqtt/oc_mqtt_tiny_v5\oc_mqtt_tiny.c **** 
1054:D:/fchai/work/i-cube/I-CUBE-HUAWEI/Middlewares/Third_Party/Huawei/iot_link/oc/oc_mqtt/oc_mqtt_tiny_v5\oc_mqtt_tiny.c ****         if( 0  == mqtt_al_unsubscribe( cb->mqtt_para.mqtt_handle, unsubpara) )
1055:D:/fchai/work/i-cube/I-CUBE-HUAWEI/Middlewares/Third_Party/Huawei/iot_link/oc/oc_mqtt/oc_mqtt_tiny_v5\oc_mqtt_tiny.c ****         {
1056:D:/fchai/work/i-cube/I-CUBE-HUAWEI/Middlewares/Third_Party/Huawei/iot_link/oc/oc_mqtt/oc_mqtt_tiny_v5\oc_mqtt_tiny.c ****             ///< remove the topic from the subscribe list;
1057:D:/fchai/work/i-cube/I-CUBE-HUAWEI/Middlewares/Third_Party/Huawei/iot_link/oc/oc_mqtt/oc_mqtt_tiny_v5\oc_mqtt_tiny.c ****             topic_sub = cb->subscribe_lst;
1058:D:/fchai/work/i-cube/I-CUBE-HUAWEI/Middlewares/Third_Party/Huawei/iot_link/oc/oc_mqtt/oc_mqtt_tiny_v5\oc_mqtt_tiny.c ****             if(NULL != topic_sub)
1059:D:/fchai/work/i-cube/I-CUBE-HUAWEI/Middlewares/Third_Party/Huawei/iot_link/oc/oc_mqtt/oc_mqtt_tiny_v5\oc_mqtt_tiny.c ****             {
1060:D:/fchai/work/i-cube/I-CUBE-HUAWEI/Middlewares/Third_Party/Huawei/iot_link/oc/oc_mqtt/oc_mqtt_tiny_v5\oc_mqtt_tiny.c ****                 if  ( 0 == strcmp( unsubpara->topic.data, topic_sub->topic ))
1061:D:/fchai/work/i-cube/I-CUBE-HUAWEI/Middlewares/Third_Party/Huawei/iot_link/oc/oc_mqtt/oc_mqtt_tiny_v5\oc_mqtt_tiny.c ****                 {
1062:D:/fchai/work/i-cube/I-CUBE-HUAWEI/Middlewares/Third_Party/Huawei/iot_link/oc/oc_mqtt/oc_mqtt_tiny_v5\oc_mqtt_tiny.c ****                     cb->subscribe_lst = topic_sub->nxt;
1063:D:/fchai/work/i-cube/I-CUBE-HUAWEI/Middlewares/Third_Party/Huawei/iot_link/oc/oc_mqtt/oc_mqtt_tiny_v5\oc_mqtt_tiny.c ****                     osal_free(topic_sub);
1064:D:/fchai/work/i-cube/I-CUBE-HUAWEI/Middlewares/Third_Party/Huawei/iot_link/oc/oc_mqtt/oc_mqtt_tiny_v5\oc_mqtt_tiny.c ****                 }
1065:D:/fchai/work/i-cube/I-CUBE-HUAWEI/Middlewares/Third_Party/Huawei/iot_link/oc/oc_mqtt/oc_mqtt_tiny_v5\oc_mqtt_tiny.c ****                 else
1066:D:/fchai/work/i-cube/I-CUBE-HUAWEI/Middlewares/Third_Party/Huawei/iot_link/oc/oc_mqtt/oc_mqtt_tiny_v5\oc_mqtt_tiny.c ****                 {
1067:D:/fchai/work/i-cube/I-CUBE-HUAWEI/Middlewares/Third_Party/Huawei/iot_link/oc/oc_mqtt/oc_mqtt_tiny_v5\oc_mqtt_tiny.c ****                     topic_sub_nxt = topic_sub->nxt;
1068:D:/fchai/work/i-cube/I-CUBE-HUAWEI/Middlewares/Third_Party/Huawei/iot_link/oc/oc_mqtt/oc_mqtt_tiny_v5\oc_mqtt_tiny.c ****                     while( NULL != topic_sub_nxt )
1069:D:/fchai/work/i-cube/I-CUBE-HUAWEI/Middlewares/Third_Party/Huawei/iot_link/oc/oc_mqtt/oc_mqtt_tiny_v5\oc_mqtt_tiny.c ****                     {
1070:D:/fchai/work/i-cube/I-CUBE-HUAWEI/Middlewares/Third_Party/Huawei/iot_link/oc/oc_mqtt/oc_mqtt_tiny_v5\oc_mqtt_tiny.c ****                         if ( 0 == strcmp( unsubpara->topic.data, topic_sub_nxt->topic))
1071:D:/fchai/work/i-cube/I-CUBE-HUAWEI/Middlewares/Third_Party/Huawei/iot_link/oc/oc_mqtt/oc_mqtt_tiny_v5\oc_mqtt_tiny.c ****                         {
1072:D:/fchai/work/i-cube/I-CUBE-HUAWEI/Middlewares/Third_Party/Huawei/iot_link/oc/oc_mqtt/oc_mqtt_tiny_v5\oc_mqtt_tiny.c ****                             topic_sub->nxt = topic_sub_nxt->nxt;
1073:D:/fchai/work/i-cube/I-CUBE-HUAWEI/Middlewares/Third_Party/Huawei/iot_link/oc/oc_mqtt/oc_mqtt_tiny_v5\oc_mqtt_tiny.c ****                             osal_free(topic_sub_nxt);
1074:D:/fchai/work/i-cube/I-CUBE-HUAWEI/Middlewares/Third_Party/Huawei/iot_link/oc/oc_mqtt/oc_mqtt_tiny_v5\oc_mqtt_tiny.c ****                             break;
1075:D:/fchai/work/i-cube/I-CUBE-HUAWEI/Middlewares/Third_Party/Huawei/iot_link/oc/oc_mqtt/oc_mqtt_tiny_v5\oc_mqtt_tiny.c ****                         }
1076:D:/fchai/work/i-cube/I-CUBE-HUAWEI/Middlewares/Third_Party/Huawei/iot_link/oc/oc_mqtt/oc_mqtt_tiny_v5\oc_mqtt_tiny.c ****                         else
1077:D:/fchai/work/i-cube/I-CUBE-HUAWEI/Middlewares/Third_Party/Huawei/iot_link/oc/oc_mqtt/oc_mqtt_tiny_v5\oc_mqtt_tiny.c ****                         {
1078:D:/fchai/work/i-cube/I-CUBE-HUAWEI/Middlewares/Third_Party/Huawei/iot_link/oc/oc_mqtt/oc_mqtt_tiny_v5\oc_mqtt_tiny.c ****                             topic_sub = topic_sub_nxt;
1079:D:/fchai/work/i-cube/I-CUBE-HUAWEI/Middlewares/Third_Party/Huawei/iot_link/oc/oc_mqtt/oc_mqtt_tiny_v5\oc_mqtt_tiny.c ****                             topic_sub_nxt = topic_sub_nxt->nxt;
ARM GAS  T:\msys\tmp\ccOGKCS9.s 			page 26


1080:D:/fchai/work/i-cube/I-CUBE-HUAWEI/Middlewares/Third_Party/Huawei/iot_link/oc/oc_mqtt/oc_mqtt_tiny_v5\oc_mqtt_tiny.c ****                         }
1081:D:/fchai/work/i-cube/I-CUBE-HUAWEI/Middlewares/Third_Party/Huawei/iot_link/oc/oc_mqtt/oc_mqtt_tiny_v5\oc_mqtt_tiny.c ****                     }
1082:D:/fchai/work/i-cube/I-CUBE-HUAWEI/Middlewares/Third_Party/Huawei/iot_link/oc/oc_mqtt/oc_mqtt_tiny_v5\oc_mqtt_tiny.c ****                 }
1083:D:/fchai/work/i-cube/I-CUBE-HUAWEI/Middlewares/Third_Party/Huawei/iot_link/oc/oc_mqtt/oc_mqtt_tiny_v5\oc_mqtt_tiny.c ****             }
1084:D:/fchai/work/i-cube/I-CUBE-HUAWEI/Middlewares/Third_Party/Huawei/iot_link/oc/oc_mqtt/oc_mqtt_tiny_v5\oc_mqtt_tiny.c ****             ret = (int)en_oc_mqtt_err_ok;
1085:D:/fchai/work/i-cube/I-CUBE-HUAWEI/Middlewares/Third_Party/Huawei/iot_link/oc/oc_mqtt/oc_mqtt_tiny_v5\oc_mqtt_tiny.c ****         }
1086:D:/fchai/work/i-cube/I-CUBE-HUAWEI/Middlewares/Third_Party/Huawei/iot_link/oc/oc_mqtt/oc_mqtt_tiny_v5\oc_mqtt_tiny.c ****         else
1087:D:/fchai/work/i-cube/I-CUBE-HUAWEI/Middlewares/Third_Party/Huawei/iot_link/oc/oc_mqtt/oc_mqtt_tiny_v5\oc_mqtt_tiny.c ****         {
1088:D:/fchai/work/i-cube/I-CUBE-HUAWEI/Middlewares/Third_Party/Huawei/iot_link/oc/oc_mqtt/oc_mqtt_tiny_v5\oc_mqtt_tiny.c ****             ret = (int)en_oc_mqtt_err_unsubscribe;
1089:D:/fchai/work/i-cube/I-CUBE-HUAWEI/Middlewares/Third_Party/Huawei/iot_link/oc/oc_mqtt/oc_mqtt_tiny_v5\oc_mqtt_tiny.c ****         }
1090:D:/fchai/work/i-cube/I-CUBE-HUAWEI/Middlewares/Third_Party/Huawei/iot_link/oc/oc_mqtt/oc_mqtt_tiny_v5\oc_mqtt_tiny.c ****     }
1091:D:/fchai/work/i-cube/I-CUBE-HUAWEI/Middlewares/Third_Party/Huawei/iot_link/oc/oc_mqtt/oc_mqtt_tiny_v5\oc_mqtt_tiny.c ****     else
1092:D:/fchai/work/i-cube/I-CUBE-HUAWEI/Middlewares/Third_Party/Huawei/iot_link/oc/oc_mqtt/oc_mqtt_tiny_v5\oc_mqtt_tiny.c ****     {
1093:D:/fchai/work/i-cube/I-CUBE-HUAWEI/Middlewares/Third_Party/Huawei/iot_link/oc/oc_mqtt/oc_mqtt_tiny_v5\oc_mqtt_tiny.c ****         ret = (int)en_oc_mqtt_err_noconected;
1094:D:/fchai/work/i-cube/I-CUBE-HUAWEI/Middlewares/Third_Party/Huawei/iot_link/oc/oc_mqtt/oc_mqtt_tiny_v5\oc_mqtt_tiny.c ****     }
1095:D:/fchai/work/i-cube/I-CUBE-HUAWEI/Middlewares/Third_Party/Huawei/iot_link/oc/oc_mqtt/oc_mqtt_tiny_v5\oc_mqtt_tiny.c **** 
1096:D:/fchai/work/i-cube/I-CUBE-HUAWEI/Middlewares/Third_Party/Huawei/iot_link/oc/oc_mqtt/oc_mqtt_tiny_v5\oc_mqtt_tiny.c ****     cmd->retcode = ret;
1097:D:/fchai/work/i-cube/I-CUBE-HUAWEI/Middlewares/Third_Party/Huawei/iot_link/oc/oc_mqtt/oc_mqtt_tiny_v5\oc_mqtt_tiny.c **** 
1098:D:/fchai/work/i-cube/I-CUBE-HUAWEI/Middlewares/Third_Party/Huawei/iot_link/oc/oc_mqtt/oc_mqtt_tiny_v5\oc_mqtt_tiny.c ****     return ret;
1099:D:/fchai/work/i-cube/I-CUBE-HUAWEI/Middlewares/Third_Party/Huawei/iot_link/oc/oc_mqtt/oc_mqtt_tiny_v5\oc_mqtt_tiny.c **** 
1100:D:/fchai/work/i-cube/I-CUBE-HUAWEI/Middlewares/Third_Party/Huawei/iot_link/oc/oc_mqtt/oc_mqtt_tiny_v5\oc_mqtt_tiny.c **** }
1101:D:/fchai/work/i-cube/I-CUBE-HUAWEI/Middlewares/Third_Party/Huawei/iot_link/oc/oc_mqtt/oc_mqtt_tiny_v5\oc_mqtt_tiny.c **** 
1102:D:/fchai/work/i-cube/I-CUBE-HUAWEI/Middlewares/Third_Party/Huawei/iot_link/oc/oc_mqtt/oc_mqtt_tiny_v5\oc_mqtt_tiny.c **** 
1103:D:/fchai/work/i-cube/I-CUBE-HUAWEI/Middlewares/Third_Party/Huawei/iot_link/oc/oc_mqtt/oc_mqtt_tiny_v5\oc_mqtt_tiny.c **** int daemon_entry_exit( oc_mqtt_tiny_cb_t  *cb)
1104:D:/fchai/work/i-cube/I-CUBE-HUAWEI/Middlewares/Third_Party/Huawei/iot_link/oc/oc_mqtt/oc_mqtt_tiny_v5\oc_mqtt_tiny.c **** {
1105:D:/fchai/work/i-cube/I-CUBE-HUAWEI/Middlewares/Third_Party/Huawei/iot_link/oc/oc_mqtt/oc_mqtt_tiny_v5\oc_mqtt_tiny.c ****     int ret = -1;
1106:D:/fchai/work/i-cube/I-CUBE-HUAWEI/Middlewares/Third_Party/Huawei/iot_link/oc/oc_mqtt/oc_mqtt_tiny_v5\oc_mqtt_tiny.c **** 
1107:D:/fchai/work/i-cube/I-CUBE-HUAWEI/Middlewares/Third_Party/Huawei/iot_link/oc/oc_mqtt/oc_mqtt_tiny_v5\oc_mqtt_tiny.c ****     if(NULL != cb)
1108:D:/fchai/work/i-cube/I-CUBE-HUAWEI/Middlewares/Third_Party/Huawei/iot_link/oc/oc_mqtt/oc_mqtt_tiny_v5\oc_mqtt_tiny.c ****     {
1109:D:/fchai/work/i-cube/I-CUBE-HUAWEI/Middlewares/Third_Party/Huawei/iot_link/oc/oc_mqtt/oc_mqtt_tiny_v5\oc_mqtt_tiny.c ****         cb->daemon_exit = 1;
1110:D:/fchai/work/i-cube/I-CUBE-HUAWEI/Middlewares/Third_Party/Huawei/iot_link/oc/oc_mqtt/oc_mqtt_tiny_v5\oc_mqtt_tiny.c ****         ret = 0;
1111:D:/fchai/work/i-cube/I-CUBE-HUAWEI/Middlewares/Third_Party/Huawei/iot_link/oc/oc_mqtt/oc_mqtt_tiny_v5\oc_mqtt_tiny.c ****     }
1112:D:/fchai/work/i-cube/I-CUBE-HUAWEI/Middlewares/Third_Party/Huawei/iot_link/oc/oc_mqtt/oc_mqtt_tiny_v5\oc_mqtt_tiny.c ****     return ret;
1113:D:/fchai/work/i-cube/I-CUBE-HUAWEI/Middlewares/Third_Party/Huawei/iot_link/oc/oc_mqtt/oc_mqtt_tiny_v5\oc_mqtt_tiny.c **** }
1114:D:/fchai/work/i-cube/I-CUBE-HUAWEI/Middlewares/Third_Party/Huawei/iot_link/oc/oc_mqtt/oc_mqtt_tiny_v5\oc_mqtt_tiny.c **** 
1115:D:/fchai/work/i-cube/I-CUBE-HUAWEI/Middlewares/Third_Party/Huawei/iot_link/oc/oc_mqtt/oc_mqtt_tiny_v5\oc_mqtt_tiny.c **** 
1116:D:/fchai/work/i-cube/I-CUBE-HUAWEI/Middlewares/Third_Party/Huawei/iot_link/oc/oc_mqtt/oc_mqtt_tiny_v5\oc_mqtt_tiny.c **** ///< this is the daemon task entry
1117:D:/fchai/work/i-cube/I-CUBE-HUAWEI/Middlewares/Third_Party/Huawei/iot_link/oc/oc_mqtt/oc_mqtt_tiny_v5\oc_mqtt_tiny.c **** static int daemon_entry(void *arg)
1118:D:/fchai/work/i-cube/I-CUBE-HUAWEI/Middlewares/Third_Party/Huawei/iot_link/oc/oc_mqtt/oc_mqtt_tiny_v5\oc_mqtt_tiny.c **** {
1119:D:/fchai/work/i-cube/I-CUBE-HUAWEI/Middlewares/Third_Party/Huawei/iot_link/oc/oc_mqtt/oc_mqtt_tiny_v5\oc_mqtt_tiny.c ****     int ret = (int)en_oc_mqtt_err_ok;
1120:D:/fchai/work/i-cube/I-CUBE-HUAWEI/Middlewares/Third_Party/Huawei/iot_link/oc/oc_mqtt/oc_mqtt_tiny_v5\oc_mqtt_tiny.c ****     oc_mqtt_tiny_cb_t  *cb;
1121:D:/fchai/work/i-cube/I-CUBE-HUAWEI/Middlewares/Third_Party/Huawei/iot_link/oc/oc_mqtt/oc_mqtt_tiny_v5\oc_mqtt_tiny.c ****     oc_mqtt_daemon_cmd_t   *daemon_cmd = NULL;
1122:D:/fchai/work/i-cube/I-CUBE-HUAWEI/Middlewares/Third_Party/Huawei/iot_link/oc/oc_mqtt/oc_mqtt_tiny_v5\oc_mqtt_tiny.c **** 
1123:D:/fchai/work/i-cube/I-CUBE-HUAWEI/Middlewares/Third_Party/Huawei/iot_link/oc/oc_mqtt/oc_mqtt_tiny_v5\oc_mqtt_tiny.c ****     cb = arg;
1124:D:/fchai/work/i-cube/I-CUBE-HUAWEI/Middlewares/Third_Party/Huawei/iot_link/oc/oc_mqtt/oc_mqtt_tiny_v5\oc_mqtt_tiny.c ****     while((NULL != cb) && (0 == cb->daemon_exit))
1125:D:/fchai/work/i-cube/I-CUBE-HUAWEI/Middlewares/Third_Party/Huawei/iot_link/oc/oc_mqtt/oc_mqtt_tiny_v5\oc_mqtt_tiny.c ****     {
1126:D:/fchai/work/i-cube/I-CUBE-HUAWEI/Middlewares/Third_Party/Huawei/iot_link/oc/oc_mqtt/oc_mqtt_tiny_v5\oc_mqtt_tiny.c ****         if(0 == queue_pop(cb->task_daemon_cmd_queue,(void **)&daemon_cmd,10*1000))
1127:D:/fchai/work/i-cube/I-CUBE-HUAWEI/Middlewares/Third_Party/Huawei/iot_link/oc/oc_mqtt/oc_mqtt_tiny_v5\oc_mqtt_tiny.c ****         {
1128:D:/fchai/work/i-cube/I-CUBE-HUAWEI/Middlewares/Third_Party/Huawei/iot_link/oc/oc_mqtt/oc_mqtt_tiny_v5\oc_mqtt_tiny.c ****             switch (daemon_cmd->cmd)             ///< execute the command here
1129:D:/fchai/work/i-cube/I-CUBE-HUAWEI/Middlewares/Third_Party/Huawei/iot_link/oc/oc_mqtt/oc_mqtt_tiny_v5\oc_mqtt_tiny.c ****             {
1130:D:/fchai/work/i-cube/I-CUBE-HUAWEI/Middlewares/Third_Party/Huawei/iot_link/oc/oc_mqtt/oc_mqtt_tiny_v5\oc_mqtt_tiny.c ****                 case en_oc_mqtt_daemon_cmd_connect:
1131:D:/fchai/work/i-cube/I-CUBE-HUAWEI/Middlewares/Third_Party/Huawei/iot_link/oc/oc_mqtt/oc_mqtt_tiny_v5\oc_mqtt_tiny.c ****                     if(cb->flag.bits.bit_daemon_status != (int)en_daemon_status_idle)
1132:D:/fchai/work/i-cube/I-CUBE-HUAWEI/Middlewares/Third_Party/Huawei/iot_link/oc/oc_mqtt/oc_mqtt_tiny_v5\oc_mqtt_tiny.c ****                     {
1133:D:/fchai/work/i-cube/I-CUBE-HUAWEI/Middlewares/Third_Party/Huawei/iot_link/oc/oc_mqtt/oc_mqtt_tiny_v5\oc_mqtt_tiny.c ****                          ret = (int)en_oc_mqtt_err_configured;
1134:D:/fchai/work/i-cube/I-CUBE-HUAWEI/Middlewares/Third_Party/Huawei/iot_link/oc/oc_mqtt/oc_mqtt_tiny_v5\oc_mqtt_tiny.c ****                     }
1135:D:/fchai/work/i-cube/I-CUBE-HUAWEI/Middlewares/Third_Party/Huawei/iot_link/oc/oc_mqtt/oc_mqtt_tiny_v5\oc_mqtt_tiny.c ****                     else
1136:D:/fchai/work/i-cube/I-CUBE-HUAWEI/Middlewares/Third_Party/Huawei/iot_link/oc/oc_mqtt/oc_mqtt_tiny_v5\oc_mqtt_tiny.c ****                     {
ARM GAS  T:\msys\tmp\ccOGKCS9.s 			page 27


1137:D:/fchai/work/i-cube/I-CUBE-HUAWEI/Middlewares/Third_Party/Huawei/iot_link/oc/oc_mqtt/oc_mqtt_tiny_v5\oc_mqtt_tiny.c ****                         ret = config_parameter_clone(cb,daemon_cmd->arg);
1138:D:/fchai/work/i-cube/I-CUBE-HUAWEI/Middlewares/Third_Party/Huawei/iot_link/oc/oc_mqtt/oc_mqtt_tiny_v5\oc_mqtt_tiny.c ****                         if((ret == (int)en_oc_mqtt_err_ok) && (cb->flag.bits.bit_bs_enable))
1139:D:/fchai/work/i-cube/I-CUBE-HUAWEI/Middlewares/Third_Party/Huawei/iot_link/oc/oc_mqtt/oc_mqtt_tiny_v5\oc_mqtt_tiny.c ****                         {
1140:D:/fchai/work/i-cube/I-CUBE-HUAWEI/Middlewares/Third_Party/Huawei/iot_link/oc/oc_mqtt/oc_mqtt_tiny_v5\oc_mqtt_tiny.c ****                             cb->flag.bits.bit_daemon_status = en_daemon_status_bs_getaddr;
1141:D:/fchai/work/i-cube/I-CUBE-HUAWEI/Middlewares/Third_Party/Huawei/iot_link/oc/oc_mqtt/oc_mqtt_tiny_v5\oc_mqtt_tiny.c ****                             ret = bs_step(cb);
1142:D:/fchai/work/i-cube/I-CUBE-HUAWEI/Middlewares/Third_Party/Huawei/iot_link/oc/oc_mqtt/oc_mqtt_tiny_v5\oc_mqtt_tiny.c ****                         }
1143:D:/fchai/work/i-cube/I-CUBE-HUAWEI/Middlewares/Third_Party/Huawei/iot_link/oc/oc_mqtt/oc_mqtt_tiny_v5\oc_mqtt_tiny.c ****                         if(ret == (int)en_oc_mqtt_err_ok)
1144:D:/fchai/work/i-cube/I-CUBE-HUAWEI/Middlewares/Third_Party/Huawei/iot_link/oc/oc_mqtt/oc_mqtt_tiny_v5\oc_mqtt_tiny.c ****                         {
1145:D:/fchai/work/i-cube/I-CUBE-HUAWEI/Middlewares/Third_Party/Huawei/iot_link/oc/oc_mqtt/oc_mqtt_tiny_v5\oc_mqtt_tiny.c ****                             cb->flag.bits.bit_daemon_status = en_daemon_status_dmp_connecting;  ///
1146:D:/fchai/work/i-cube/I-CUBE-HUAWEI/Middlewares/Third_Party/Huawei/iot_link/oc/oc_mqtt/oc_mqtt_tiny_v5\oc_mqtt_tiny.c ****                             ret = hub_step(cb);
1147:D:/fchai/work/i-cube/I-CUBE-HUAWEI/Middlewares/Third_Party/Huawei/iot_link/oc/oc_mqtt/oc_mqtt_tiny_v5\oc_mqtt_tiny.c ****                         }
1148:D:/fchai/work/i-cube/I-CUBE-HUAWEI/Middlewares/Third_Party/Huawei/iot_link/oc/oc_mqtt/oc_mqtt_tiny_v5\oc_mqtt_tiny.c **** 
1149:D:/fchai/work/i-cube/I-CUBE-HUAWEI/Middlewares/Third_Party/Huawei/iot_link/oc/oc_mqtt/oc_mqtt_tiny_v5\oc_mqtt_tiny.c ****                         if(ret == (int)en_oc_mqtt_err_ok)
1150:D:/fchai/work/i-cube/I-CUBE-HUAWEI/Middlewares/Third_Party/Huawei/iot_link/oc/oc_mqtt/oc_mqtt_tiny_v5\oc_mqtt_tiny.c ****                         {
1151:D:/fchai/work/i-cube/I-CUBE-HUAWEI/Middlewares/Third_Party/Huawei/iot_link/oc/oc_mqtt/oc_mqtt_tiny_v5\oc_mqtt_tiny.c ****                             cb->flag.bits.bit_daemon_status = en_daemon_status_hub_keep;    ///< no
1152:D:/fchai/work/i-cube/I-CUBE-HUAWEI/Middlewares/Third_Party/Huawei/iot_link/oc/oc_mqtt/oc_mqtt_tiny_v5\oc_mqtt_tiny.c ****                         }
1153:D:/fchai/work/i-cube/I-CUBE-HUAWEI/Middlewares/Third_Party/Huawei/iot_link/oc/oc_mqtt/oc_mqtt_tiny_v5\oc_mqtt_tiny.c ****                         else
1154:D:/fchai/work/i-cube/I-CUBE-HUAWEI/Middlewares/Third_Party/Huawei/iot_link/oc/oc_mqtt/oc_mqtt_tiny_v5\oc_mqtt_tiny.c ****                         {
1155:D:/fchai/work/i-cube/I-CUBE-HUAWEI/Middlewares/Third_Party/Huawei/iot_link/oc/oc_mqtt/oc_mqtt_tiny_v5\oc_mqtt_tiny.c ****                             cb->flag.bits.bit_daemon_status = en_daemon_status_idle;
1156:D:/fchai/work/i-cube/I-CUBE-HUAWEI/Middlewares/Third_Party/Huawei/iot_link/oc/oc_mqtt/oc_mqtt_tiny_v5\oc_mqtt_tiny.c ****                             (void) oc_mqtt_para_release(cb);
1157:D:/fchai/work/i-cube/I-CUBE-HUAWEI/Middlewares/Third_Party/Huawei/iot_link/oc/oc_mqtt/oc_mqtt_tiny_v5\oc_mqtt_tiny.c ****                             (void) config_parameter_release(cb);
1158:D:/fchai/work/i-cube/I-CUBE-HUAWEI/Middlewares/Third_Party/Huawei/iot_link/oc/oc_mqtt/oc_mqtt_tiny_v5\oc_mqtt_tiny.c ****                         }
1159:D:/fchai/work/i-cube/I-CUBE-HUAWEI/Middlewares/Third_Party/Huawei/iot_link/oc/oc_mqtt/oc_mqtt_tiny_v5\oc_mqtt_tiny.c ****                     }
1160:D:/fchai/work/i-cube/I-CUBE-HUAWEI/Middlewares/Third_Party/Huawei/iot_link/oc/oc_mqtt/oc_mqtt_tiny_v5\oc_mqtt_tiny.c ****                     daemon_cmd->retcode = ret;
1161:D:/fchai/work/i-cube/I-CUBE-HUAWEI/Middlewares/Third_Party/Huawei/iot_link/oc/oc_mqtt/oc_mqtt_tiny_v5\oc_mqtt_tiny.c ****                     break;
1162:D:/fchai/work/i-cube/I-CUBE-HUAWEI/Middlewares/Third_Party/Huawei/iot_link/oc/oc_mqtt/oc_mqtt_tiny_v5\oc_mqtt_tiny.c ****                 case en_oc_mqtt_daemon_cmd_disconnect:
1163:D:/fchai/work/i-cube/I-CUBE-HUAWEI/Middlewares/Third_Party/Huawei/iot_link/oc/oc_mqtt/oc_mqtt_tiny_v5\oc_mqtt_tiny.c ****                     if(cb->flag.bits.bit_daemon_status == (int)en_daemon_status_idle)
1164:D:/fchai/work/i-cube/I-CUBE-HUAWEI/Middlewares/Third_Party/Huawei/iot_link/oc/oc_mqtt/oc_mqtt_tiny_v5\oc_mqtt_tiny.c ****                     {
1165:D:/fchai/work/i-cube/I-CUBE-HUAWEI/Middlewares/Third_Party/Huawei/iot_link/oc/oc_mqtt/oc_mqtt_tiny_v5\oc_mqtt_tiny.c ****                         daemon_cmd->retcode = (int)en_oc_mqtt_err_noconfigured;
1166:D:/fchai/work/i-cube/I-CUBE-HUAWEI/Middlewares/Third_Party/Huawei/iot_link/oc/oc_mqtt/oc_mqtt_tiny_v5\oc_mqtt_tiny.c ****                     }
1167:D:/fchai/work/i-cube/I-CUBE-HUAWEI/Middlewares/Third_Party/Huawei/iot_link/oc/oc_mqtt/oc_mqtt_tiny_v5\oc_mqtt_tiny.c ****                     else
1168:D:/fchai/work/i-cube/I-CUBE-HUAWEI/Middlewares/Third_Party/Huawei/iot_link/oc/oc_mqtt/oc_mqtt_tiny_v5\oc_mqtt_tiny.c ****                     {
1169:D:/fchai/work/i-cube/I-CUBE-HUAWEI/Middlewares/Third_Party/Huawei/iot_link/oc/oc_mqtt/oc_mqtt_tiny_v5\oc_mqtt_tiny.c ****                         (void) oc_mqtt_para_release(cb);
1170:D:/fchai/work/i-cube/I-CUBE-HUAWEI/Middlewares/Third_Party/Huawei/iot_link/oc/oc_mqtt/oc_mqtt_tiny_v5\oc_mqtt_tiny.c **** 
1171:D:/fchai/work/i-cube/I-CUBE-HUAWEI/Middlewares/Third_Party/Huawei/iot_link/oc/oc_mqtt/oc_mqtt_tiny_v5\oc_mqtt_tiny.c ****                         daemon_cmd->retcode = config_parameter_release(cb);
1172:D:/fchai/work/i-cube/I-CUBE-HUAWEI/Middlewares/Third_Party/Huawei/iot_link/oc/oc_mqtt/oc_mqtt_tiny_v5\oc_mqtt_tiny.c ****                     }
1173:D:/fchai/work/i-cube/I-CUBE-HUAWEI/Middlewares/Third_Party/Huawei/iot_link/oc/oc_mqtt/oc_mqtt_tiny_v5\oc_mqtt_tiny.c ****                     break;
1174:D:/fchai/work/i-cube/I-CUBE-HUAWEI/Middlewares/Third_Party/Huawei/iot_link/oc/oc_mqtt/oc_mqtt_tiny_v5\oc_mqtt_tiny.c ****                 case en_oc_mqtt_daemon_cmd_publish:
1175:D:/fchai/work/i-cube/I-CUBE-HUAWEI/Middlewares/Third_Party/Huawei/iot_link/oc/oc_mqtt/oc_mqtt_tiny_v5\oc_mqtt_tiny.c ****                     if((int)en_daemon_status_idle == cb->flag.bits.bit_daemon_status)
1176:D:/fchai/work/i-cube/I-CUBE-HUAWEI/Middlewares/Third_Party/Huawei/iot_link/oc/oc_mqtt/oc_mqtt_tiny_v5\oc_mqtt_tiny.c ****                     {
1177:D:/fchai/work/i-cube/I-CUBE-HUAWEI/Middlewares/Third_Party/Huawei/iot_link/oc/oc_mqtt/oc_mqtt_tiny_v5\oc_mqtt_tiny.c ****                         daemon_cmd->retcode = (int)en_oc_mqtt_err_noconfigured;
1178:D:/fchai/work/i-cube/I-CUBE-HUAWEI/Middlewares/Third_Party/Huawei/iot_link/oc/oc_mqtt/oc_mqtt_tiny_v5\oc_mqtt_tiny.c ****                     }
1179:D:/fchai/work/i-cube/I-CUBE-HUAWEI/Middlewares/Third_Party/Huawei/iot_link/oc/oc_mqtt/oc_mqtt_tiny_v5\oc_mqtt_tiny.c ****                     else if(((int)en_daemon_status_hub_keep == cb->flag.bits.bit_daemon_status) &&\
1180:D:/fchai/work/i-cube/I-CUBE-HUAWEI/Middlewares/Third_Party/Huawei/iot_link/oc/oc_mqtt/oc_mqtt_tiny_v5\oc_mqtt_tiny.c ****                             (en_mqtt_al_connect_ok == mqtt_al_check_status(cb->mqtt_para.mqtt_handl
1181:D:/fchai/work/i-cube/I-CUBE-HUAWEI/Middlewares/Third_Party/Huawei/iot_link/oc/oc_mqtt/oc_mqtt_tiny_v5\oc_mqtt_tiny.c ****                     {
1182:D:/fchai/work/i-cube/I-CUBE-HUAWEI/Middlewares/Third_Party/Huawei/iot_link/oc/oc_mqtt/oc_mqtt_tiny_v5\oc_mqtt_tiny.c ****                         mqtt_al_pubpara_t *pubpara;
1183:D:/fchai/work/i-cube/I-CUBE-HUAWEI/Middlewares/Third_Party/Huawei/iot_link/oc/oc_mqtt/oc_mqtt_tiny_v5\oc_mqtt_tiny.c ****                         pubpara = daemon_cmd->arg;
1184:D:/fchai/work/i-cube/I-CUBE-HUAWEI/Middlewares/Third_Party/Huawei/iot_link/oc/oc_mqtt/oc_mqtt_tiny_v5\oc_mqtt_tiny.c ****                         daemon_cmd->retcode = dmp_publish(cb, pubpara->topic.data,\
1185:D:/fchai/work/i-cube/I-CUBE-HUAWEI/Middlewares/Third_Party/Huawei/iot_link/oc/oc_mqtt/oc_mqtt_tiny_v5\oc_mqtt_tiny.c ****                                    (uint8_t *)pubpara->msg.data,pubpara->msg.len,(int)pubpara->qos)
1186:D:/fchai/work/i-cube/I-CUBE-HUAWEI/Middlewares/Third_Party/Huawei/iot_link/oc/oc_mqtt/oc_mqtt_tiny_v5\oc_mqtt_tiny.c ****                     }
1187:D:/fchai/work/i-cube/I-CUBE-HUAWEI/Middlewares/Third_Party/Huawei/iot_link/oc/oc_mqtt/oc_mqtt_tiny_v5\oc_mqtt_tiny.c ****                     else
1188:D:/fchai/work/i-cube/I-CUBE-HUAWEI/Middlewares/Third_Party/Huawei/iot_link/oc/oc_mqtt/oc_mqtt_tiny_v5\oc_mqtt_tiny.c ****                     {
1189:D:/fchai/work/i-cube/I-CUBE-HUAWEI/Middlewares/Third_Party/Huawei/iot_link/oc/oc_mqtt/oc_mqtt_tiny_v5\oc_mqtt_tiny.c ****                         daemon_cmd->retcode = (int)en_oc_mqtt_err_noconected;
1190:D:/fchai/work/i-cube/I-CUBE-HUAWEI/Middlewares/Third_Party/Huawei/iot_link/oc/oc_mqtt/oc_mqtt_tiny_v5\oc_mqtt_tiny.c ****                     }
1191:D:/fchai/work/i-cube/I-CUBE-HUAWEI/Middlewares/Third_Party/Huawei/iot_link/oc/oc_mqtt/oc_mqtt_tiny_v5\oc_mqtt_tiny.c ****                     break;
1192:D:/fchai/work/i-cube/I-CUBE-HUAWEI/Middlewares/Third_Party/Huawei/iot_link/oc/oc_mqtt/oc_mqtt_tiny_v5\oc_mqtt_tiny.c ****                 case en_oc_mqtt_daemon_cmd_subscribe:
1193:D:/fchai/work/i-cube/I-CUBE-HUAWEI/Middlewares/Third_Party/Huawei/iot_link/oc/oc_mqtt/oc_mqtt_tiny_v5\oc_mqtt_tiny.c ****                     LINK_LOG_DEBUG("daemon:subscribe enter");
ARM GAS  T:\msys\tmp\ccOGKCS9.s 			page 28


1194:D:/fchai/work/i-cube/I-CUBE-HUAWEI/Middlewares/Third_Party/Huawei/iot_link/oc/oc_mqtt/oc_mqtt_tiny_v5\oc_mqtt_tiny.c ****                     (void) deal_api_subscribe( cb, daemon_cmd );
1195:D:/fchai/work/i-cube/I-CUBE-HUAWEI/Middlewares/Third_Party/Huawei/iot_link/oc/oc_mqtt/oc_mqtt_tiny_v5\oc_mqtt_tiny.c ****                     LINK_LOG_DEBUG("daemon:subscribe exit");
1196:D:/fchai/work/i-cube/I-CUBE-HUAWEI/Middlewares/Third_Party/Huawei/iot_link/oc/oc_mqtt/oc_mqtt_tiny_v5\oc_mqtt_tiny.c ****                     break;
1197:D:/fchai/work/i-cube/I-CUBE-HUAWEI/Middlewares/Third_Party/Huawei/iot_link/oc/oc_mqtt/oc_mqtt_tiny_v5\oc_mqtt_tiny.c ****                 case en_oc_mqtt_daemon_cmd_unsubscribe:
1198:D:/fchai/work/i-cube/I-CUBE-HUAWEI/Middlewares/Third_Party/Huawei/iot_link/oc/oc_mqtt/oc_mqtt_tiny_v5\oc_mqtt_tiny.c ****                     LINK_LOG_DEBUG("daemon:unsubscribe enter");
1199:D:/fchai/work/i-cube/I-CUBE-HUAWEI/Middlewares/Third_Party/Huawei/iot_link/oc/oc_mqtt/oc_mqtt_tiny_v5\oc_mqtt_tiny.c ****                     (void) deal_api_unsubscribe( cb, daemon_cmd );
1200:D:/fchai/work/i-cube/I-CUBE-HUAWEI/Middlewares/Third_Party/Huawei/iot_link/oc/oc_mqtt/oc_mqtt_tiny_v5\oc_mqtt_tiny.c ****                     LINK_LOG_DEBUG("daemon:unsubscribe exit");
1201:D:/fchai/work/i-cube/I-CUBE-HUAWEI/Middlewares/Third_Party/Huawei/iot_link/oc/oc_mqtt/oc_mqtt_tiny_v5\oc_mqtt_tiny.c ****                     break;
1202:D:/fchai/work/i-cube/I-CUBE-HUAWEI/Middlewares/Third_Party/Huawei/iot_link/oc/oc_mqtt/oc_mqtt_tiny_v5\oc_mqtt_tiny.c **** 
1203:D:/fchai/work/i-cube/I-CUBE-HUAWEI/Middlewares/Third_Party/Huawei/iot_link/oc/oc_mqtt/oc_mqtt_tiny_v5\oc_mqtt_tiny.c ****                 default:
1204:D:/fchai/work/i-cube/I-CUBE-HUAWEI/Middlewares/Third_Party/Huawei/iot_link/oc/oc_mqtt/oc_mqtt_tiny_v5\oc_mqtt_tiny.c ****                     break;
1205:D:/fchai/work/i-cube/I-CUBE-HUAWEI/Middlewares/Third_Party/Huawei/iot_link/oc/oc_mqtt/oc_mqtt_tiny_v5\oc_mqtt_tiny.c **** 
1206:D:/fchai/work/i-cube/I-CUBE-HUAWEI/Middlewares/Third_Party/Huawei/iot_link/oc/oc_mqtt/oc_mqtt_tiny_v5\oc_mqtt_tiny.c ****             }
1207:D:/fchai/work/i-cube/I-CUBE-HUAWEI/Middlewares/Third_Party/Huawei/iot_link/oc/oc_mqtt/oc_mqtt_tiny_v5\oc_mqtt_tiny.c ****             (void) osal_semp_post(daemon_cmd->signal); ///< activate the commander
1208:D:/fchai/work/i-cube/I-CUBE-HUAWEI/Middlewares/Third_Party/Huawei/iot_link/oc/oc_mqtt/oc_mqtt_tiny_v5\oc_mqtt_tiny.c ****         }
1209:D:/fchai/work/i-cube/I-CUBE-HUAWEI/Middlewares/Third_Party/Huawei/iot_link/oc/oc_mqtt/oc_mqtt_tiny_v5\oc_mqtt_tiny.c **** 
1210:D:/fchai/work/i-cube/I-CUBE-HUAWEI/Middlewares/Third_Party/Huawei/iot_link/oc/oc_mqtt/oc_mqtt_tiny_v5\oc_mqtt_tiny.c ****         ///< timeout we should check if we should do the reconnect
1211:D:/fchai/work/i-cube/I-CUBE-HUAWEI/Middlewares/Third_Party/Huawei/iot_link/oc/oc_mqtt/oc_mqtt_tiny_v5\oc_mqtt_tiny.c ****         if(cb->flag.bits.bit_do_bootstrap)
1212:D:/fchai/work/i-cube/I-CUBE-HUAWEI/Middlewares/Third_Party/Huawei/iot_link/oc/oc_mqtt/oc_mqtt_tiny_v5\oc_mqtt_tiny.c ****         {
1213:D:/fchai/work/i-cube/I-CUBE-HUAWEI/Middlewares/Third_Party/Huawei/iot_link/oc/oc_mqtt/oc_mqtt_tiny_v5\oc_mqtt_tiny.c ****             cb->flag.bits.bit_do_bootstrap = 0;
1214:D:/fchai/work/i-cube/I-CUBE-HUAWEI/Middlewares/Third_Party/Huawei/iot_link/oc/oc_mqtt/oc_mqtt_tiny_v5\oc_mqtt_tiny.c **** 
1215:D:/fchai/work/i-cube/I-CUBE-HUAWEI/Middlewares/Third_Party/Huawei/iot_link/oc/oc_mqtt/oc_mqtt_tiny_v5\oc_mqtt_tiny.c ****             cb->flag.bits.bit_daemon_status = en_daemon_status_bs_getaddr;
1216:D:/fchai/work/i-cube/I-CUBE-HUAWEI/Middlewares/Third_Party/Huawei/iot_link/oc/oc_mqtt/oc_mqtt_tiny_v5\oc_mqtt_tiny.c ****             (void) bs_step(cb);
1217:D:/fchai/work/i-cube/I-CUBE-HUAWEI/Middlewares/Third_Party/Huawei/iot_link/oc/oc_mqtt/oc_mqtt_tiny_v5\oc_mqtt_tiny.c **** 
1218:D:/fchai/work/i-cube/I-CUBE-HUAWEI/Middlewares/Third_Party/Huawei/iot_link/oc/oc_mqtt/oc_mqtt_tiny_v5\oc_mqtt_tiny.c ****             cb->flag.bits.bit_daemon_status = en_daemon_status_hub_keep;
1219:D:/fchai/work/i-cube/I-CUBE-HUAWEI/Middlewares/Third_Party/Huawei/iot_link/oc/oc_mqtt/oc_mqtt_tiny_v5\oc_mqtt_tiny.c ****             (void) hub_step(cb);
1220:D:/fchai/work/i-cube/I-CUBE-HUAWEI/Middlewares/Third_Party/Huawei/iot_link/oc/oc_mqtt/oc_mqtt_tiny_v5\oc_mqtt_tiny.c ****         }
1221:D:/fchai/work/i-cube/I-CUBE-HUAWEI/Middlewares/Third_Party/Huawei/iot_link/oc/oc_mqtt/oc_mqtt_tiny_v5\oc_mqtt_tiny.c ****         else if((cb->flag.bits.bit_daemon_status == (int)en_daemon_status_hub_keep) &&\
1222:D:/fchai/work/i-cube/I-CUBE-HUAWEI/Middlewares/Third_Party/Huawei/iot_link/oc/oc_mqtt/oc_mqtt_tiny_v5\oc_mqtt_tiny.c ****                 (en_mqtt_al_connect_ok != mqtt_al_check_status(cb->mqtt_para.mqtt_handle)))
1223:D:/fchai/work/i-cube/I-CUBE-HUAWEI/Middlewares/Third_Party/Huawei/iot_link/oc/oc_mqtt/oc_mqtt_tiny_v5\oc_mqtt_tiny.c ****         {
1224:D:/fchai/work/i-cube/I-CUBE-HUAWEI/Middlewares/Third_Party/Huawei/iot_link/oc/oc_mqtt/oc_mqtt_tiny_v5\oc_mqtt_tiny.c ****             if((cb->flag.bits.bit_do_reportdisconnect == 0) && (NULL != cb->config.log_dealer))
1225:D:/fchai/work/i-cube/I-CUBE-HUAWEI/Middlewares/Third_Party/Huawei/iot_link/oc/oc_mqtt/oc_mqtt_tiny_v5\oc_mqtt_tiny.c ****             {
1226:D:/fchai/work/i-cube/I-CUBE-HUAWEI/Middlewares/Third_Party/Huawei/iot_link/oc/oc_mqtt/oc_mqtt_tiny_v5\oc_mqtt_tiny.c ****                 cb->config.log_dealer(en_oc_mqtt_log_disconnected);
1227:D:/fchai/work/i-cube/I-CUBE-HUAWEI/Middlewares/Third_Party/Huawei/iot_link/oc/oc_mqtt/oc_mqtt_tiny_v5\oc_mqtt_tiny.c ****                 cb->flag.bits.bit_do_reportdisconnect =1;
1228:D:/fchai/work/i-cube/I-CUBE-HUAWEI/Middlewares/Third_Party/Huawei/iot_link/oc/oc_mqtt/oc_mqtt_tiny_v5\oc_mqtt_tiny.c ****             }
1229:D:/fchai/work/i-cube/I-CUBE-HUAWEI/Middlewares/Third_Party/Huawei/iot_link/oc/oc_mqtt/oc_mqtt_tiny_v5\oc_mqtt_tiny.c **** 
1230:D:/fchai/work/i-cube/I-CUBE-HUAWEI/Middlewares/Third_Party/Huawei/iot_link/oc/oc_mqtt/oc_mqtt_tiny_v5\oc_mqtt_tiny.c ****             (void) hub_step(cb);
1231:D:/fchai/work/i-cube/I-CUBE-HUAWEI/Middlewares/Third_Party/Huawei/iot_link/oc/oc_mqtt/oc_mqtt_tiny_v5\oc_mqtt_tiny.c ****         }
1232:D:/fchai/work/i-cube/I-CUBE-HUAWEI/Middlewares/Third_Party/Huawei/iot_link/oc/oc_mqtt/oc_mqtt_tiny_v5\oc_mqtt_tiny.c ****         else
1233:D:/fchai/work/i-cube/I-CUBE-HUAWEI/Middlewares/Third_Party/Huawei/iot_link/oc/oc_mqtt/oc_mqtt_tiny_v5\oc_mqtt_tiny.c ****         {
1234:D:/fchai/work/i-cube/I-CUBE-HUAWEI/Middlewares/Third_Party/Huawei/iot_link/oc/oc_mqtt/oc_mqtt_tiny_v5\oc_mqtt_tiny.c ****             ///< do nothing here
1235:D:/fchai/work/i-cube/I-CUBE-HUAWEI/Middlewares/Third_Party/Huawei/iot_link/oc/oc_mqtt/oc_mqtt_tiny_v5\oc_mqtt_tiny.c ****         }
1236:D:/fchai/work/i-cube/I-CUBE-HUAWEI/Middlewares/Third_Party/Huawei/iot_link/oc/oc_mqtt/oc_mqtt_tiny_v5\oc_mqtt_tiny.c ****     }
1237:D:/fchai/work/i-cube/I-CUBE-HUAWEI/Middlewares/Third_Party/Huawei/iot_link/oc/oc_mqtt/oc_mqtt_tiny_v5\oc_mqtt_tiny.c **** 
1238:D:/fchai/work/i-cube/I-CUBE-HUAWEI/Middlewares/Third_Party/Huawei/iot_link/oc/oc_mqtt/oc_mqtt_tiny_v5\oc_mqtt_tiny.c ****     LINK_LOG_DEBUG("%s:quit",__FUNCTION__);
1239:D:/fchai/work/i-cube/I-CUBE-HUAWEI/Middlewares/Third_Party/Huawei/iot_link/oc/oc_mqtt/oc_mqtt_tiny_v5\oc_mqtt_tiny.c ****     return 0;
1240:D:/fchai/work/i-cube/I-CUBE-HUAWEI/Middlewares/Third_Party/Huawei/iot_link/oc/oc_mqtt/oc_mqtt_tiny_v5\oc_mqtt_tiny.c **** }
1241:D:/fchai/work/i-cube/I-CUBE-HUAWEI/Middlewares/Third_Party/Huawei/iot_link/oc/oc_mqtt/oc_mqtt_tiny_v5\oc_mqtt_tiny.c **** 
1242:D:/fchai/work/i-cube/I-CUBE-HUAWEI/Middlewares/Third_Party/Huawei/iot_link/oc/oc_mqtt/oc_mqtt_tiny_v5\oc_mqtt_tiny.c **** 
1243:D:/fchai/work/i-cube/I-CUBE-HUAWEI/Middlewares/Third_Party/Huawei/iot_link/oc/oc_mqtt/oc_mqtt_tiny_v5\oc_mqtt_tiny.c **** ///< use this function to configure
1244:D:/fchai/work/i-cube/I-CUBE-HUAWEI/Middlewares/Third_Party/Huawei/iot_link/oc/oc_mqtt/oc_mqtt_tiny_v5\oc_mqtt_tiny.c **** static int tiny_config(oc_mqtt_config_t *config)
1245:D:/fchai/work/i-cube/I-CUBE-HUAWEI/Middlewares/Third_Party/Huawei/iot_link/oc/oc_mqtt/oc_mqtt_tiny_v5\oc_mqtt_tiny.c **** {
1246:D:/fchai/work/i-cube/I-CUBE-HUAWEI/Middlewares/Third_Party/Huawei/iot_link/oc/oc_mqtt/oc_mqtt_tiny_v5\oc_mqtt_tiny.c ****     int cert_mode = 0;
1247:D:/fchai/work/i-cube/I-CUBE-HUAWEI/Middlewares/Third_Party/Huawei/iot_link/oc/oc_mqtt/oc_mqtt_tiny_v5\oc_mqtt_tiny.c ****     int ret = (int)en_oc_mqtt_err_parafmt;
1248:D:/fchai/work/i-cube/I-CUBE-HUAWEI/Middlewares/Third_Party/Huawei/iot_link/oc/oc_mqtt/oc_mqtt_tiny_v5\oc_mqtt_tiny.c ****     if(NULL != config)
1249:D:/fchai/work/i-cube/I-CUBE-HUAWEI/Middlewares/Third_Party/Huawei/iot_link/oc/oc_mqtt/oc_mqtt_tiny_v5\oc_mqtt_tiny.c ****     {
1250:D:/fchai/work/i-cube/I-CUBE-HUAWEI/Middlewares/Third_Party/Huawei/iot_link/oc/oc_mqtt/oc_mqtt_tiny_v5\oc_mqtt_tiny.c ****         if((NULL == config->server_addr) || (NULL == config->server_port))  ///< no server informat
ARM GAS  T:\msys\tmp\ccOGKCS9.s 			page 29


1251:D:/fchai/work/i-cube/I-CUBE-HUAWEI/Middlewares/Third_Party/Huawei/iot_link/oc/oc_mqtt/oc_mqtt_tiny_v5\oc_mqtt_tiny.c ****         {
1252:D:/fchai/work/i-cube/I-CUBE-HUAWEI/Middlewares/Third_Party/Huawei/iot_link/oc/oc_mqtt/oc_mqtt_tiny_v5\oc_mqtt_tiny.c ****             return ret;
1253:D:/fchai/work/i-cube/I-CUBE-HUAWEI/Middlewares/Third_Party/Huawei/iot_link/oc/oc_mqtt/oc_mqtt_tiny_v5\oc_mqtt_tiny.c ****         }
1254:D:/fchai/work/i-cube/I-CUBE-HUAWEI/Middlewares/Third_Party/Huawei/iot_link/oc/oc_mqtt/oc_mqtt_tiny_v5\oc_mqtt_tiny.c **** 
1255:D:/fchai/work/i-cube/I-CUBE-HUAWEI/Middlewares/Third_Party/Huawei/iot_link/oc/oc_mqtt/oc_mqtt_tiny_v5\oc_mqtt_tiny.c ****         if(config->lifetime == 0)
1256:D:/fchai/work/i-cube/I-CUBE-HUAWEI/Middlewares/Third_Party/Huawei/iot_link/oc/oc_mqtt/oc_mqtt_tiny_v5\oc_mqtt_tiny.c ****         {
1257:D:/fchai/work/i-cube/I-CUBE-HUAWEI/Middlewares/Third_Party/Huawei/iot_link/oc/oc_mqtt/oc_mqtt_tiny_v5\oc_mqtt_tiny.c ****             config->lifetime = CN_OC_MQTT_LIFETIMEDEFAULT;
1258:D:/fchai/work/i-cube/I-CUBE-HUAWEI/Middlewares/Third_Party/Huawei/iot_link/oc/oc_mqtt/oc_mqtt_tiny_v5\oc_mqtt_tiny.c ****         }
1259:D:/fchai/work/i-cube/I-CUBE-HUAWEI/Middlewares/Third_Party/Huawei/iot_link/oc/oc_mqtt/oc_mqtt_tiny_v5\oc_mqtt_tiny.c ****         else if(config->lifetime < CN_OC_MQTT_LIFELEAST)
1260:D:/fchai/work/i-cube/I-CUBE-HUAWEI/Middlewares/Third_Party/Huawei/iot_link/oc/oc_mqtt/oc_mqtt_tiny_v5\oc_mqtt_tiny.c ****         {
1261:D:/fchai/work/i-cube/I-CUBE-HUAWEI/Middlewares/Third_Party/Huawei/iot_link/oc/oc_mqtt/oc_mqtt_tiny_v5\oc_mqtt_tiny.c ****             config->lifetime = CN_OC_MQTT_LIFELEAST;
1262:D:/fchai/work/i-cube/I-CUBE-HUAWEI/Middlewares/Third_Party/Huawei/iot_link/oc/oc_mqtt/oc_mqtt_tiny_v5\oc_mqtt_tiny.c ****         }
1263:D:/fchai/work/i-cube/I-CUBE-HUAWEI/Middlewares/Third_Party/Huawei/iot_link/oc/oc_mqtt/oc_mqtt_tiny_v5\oc_mqtt_tiny.c ****         else if(config->lifetime > CN_OC_MQTT_LIFEMAX)
1264:D:/fchai/work/i-cube/I-CUBE-HUAWEI/Middlewares/Third_Party/Huawei/iot_link/oc/oc_mqtt/oc_mqtt_tiny_v5\oc_mqtt_tiny.c ****         {
1265:D:/fchai/work/i-cube/I-CUBE-HUAWEI/Middlewares/Third_Party/Huawei/iot_link/oc/oc_mqtt/oc_mqtt_tiny_v5\oc_mqtt_tiny.c ****             config->lifetime = CN_OC_MQTT_LIFEMAX;
1266:D:/fchai/work/i-cube/I-CUBE-HUAWEI/Middlewares/Third_Party/Huawei/iot_link/oc/oc_mqtt/oc_mqtt_tiny_v5\oc_mqtt_tiny.c ****         }
1267:D:/fchai/work/i-cube/I-CUBE-HUAWEI/Middlewares/Third_Party/Huawei/iot_link/oc/oc_mqtt/oc_mqtt_tiny_v5\oc_mqtt_tiny.c **** 
1268:D:/fchai/work/i-cube/I-CUBE-HUAWEI/Middlewares/Third_Party/Huawei/iot_link/oc/oc_mqtt/oc_mqtt_tiny_v5\oc_mqtt_tiny.c ****         if(NULL == config->id)   ///< we should know your id
1269:D:/fchai/work/i-cube/I-CUBE-HUAWEI/Middlewares/Third_Party/Huawei/iot_link/oc/oc_mqtt/oc_mqtt_tiny_v5\oc_mqtt_tiny.c ****         {
1270:D:/fchai/work/i-cube/I-CUBE-HUAWEI/Middlewares/Third_Party/Huawei/iot_link/oc/oc_mqtt/oc_mqtt_tiny_v5\oc_mqtt_tiny.c ****             return ret;
1271:D:/fchai/work/i-cube/I-CUBE-HUAWEI/Middlewares/Third_Party/Huawei/iot_link/oc/oc_mqtt/oc_mqtt_tiny_v5\oc_mqtt_tiny.c ****         }
1272:D:/fchai/work/i-cube/I-CUBE-HUAWEI/Middlewares/Third_Party/Huawei/iot_link/oc/oc_mqtt/oc_mqtt_tiny_v5\oc_mqtt_tiny.c **** 
1273:D:/fchai/work/i-cube/I-CUBE-HUAWEI/Middlewares/Third_Party/Huawei/iot_link/oc/oc_mqtt/oc_mqtt_tiny_v5\oc_mqtt_tiny.c ****         if((config->security.type != EN_DTLS_AL_SECURITY_TYPE_CERT) &&(config->security.type != EN_
1274:D:/fchai/work/i-cube/I-CUBE-HUAWEI/Middlewares/Third_Party/Huawei/iot_link/oc/oc_mqtt/oc_mqtt_tiny_v5\oc_mqtt_tiny.c ****         {
1275:D:/fchai/work/i-cube/I-CUBE-HUAWEI/Middlewares/Third_Party/Huawei/iot_link/oc/oc_mqtt/oc_mqtt_tiny_v5\oc_mqtt_tiny.c ****             return ret;
1276:D:/fchai/work/i-cube/I-CUBE-HUAWEI/Middlewares/Third_Party/Huawei/iot_link/oc/oc_mqtt/oc_mqtt_tiny_v5\oc_mqtt_tiny.c ****         }
1277:D:/fchai/work/i-cube/I-CUBE-HUAWEI/Middlewares/Third_Party/Huawei/iot_link/oc/oc_mqtt/oc_mqtt_tiny_v5\oc_mqtt_tiny.c **** 
1278:D:/fchai/work/i-cube/I-CUBE-HUAWEI/Middlewares/Third_Party/Huawei/iot_link/oc/oc_mqtt/oc_mqtt_tiny_v5\oc_mqtt_tiny.c ****         if(config->security.type == EN_DTLS_AL_SECURITY_TYPE_CERT)
1279:D:/fchai/work/i-cube/I-CUBE-HUAWEI/Middlewares/Third_Party/Huawei/iot_link/oc/oc_mqtt/oc_mqtt_tiny_v5\oc_mqtt_tiny.c ****         {
1280:D:/fchai/work/i-cube/I-CUBE-HUAWEI/Middlewares/Third_Party/Huawei/iot_link/oc/oc_mqtt/oc_mqtt_tiny_v5\oc_mqtt_tiny.c ****             if((NULL != config->security.u.cert.client_ca) && (NULL != config->security.u.cert.clie
1281:D:/fchai/work/i-cube/I-CUBE-HUAWEI/Middlewares/Third_Party/Huawei/iot_link/oc/oc_mqtt/oc_mqtt_tiny_v5\oc_mqtt_tiny.c ****             {
1282:D:/fchai/work/i-cube/I-CUBE-HUAWEI/Middlewares/Third_Party/Huawei/iot_link/oc/oc_mqtt/oc_mqtt_tiny_v5\oc_mqtt_tiny.c ****                 cert_mode = 1;
1283:D:/fchai/work/i-cube/I-CUBE-HUAWEI/Middlewares/Third_Party/Huawei/iot_link/oc/oc_mqtt/oc_mqtt_tiny_v5\oc_mqtt_tiny.c ****             }
1284:D:/fchai/work/i-cube/I-CUBE-HUAWEI/Middlewares/Third_Party/Huawei/iot_link/oc/oc_mqtt/oc_mqtt_tiny_v5\oc_mqtt_tiny.c ****         }
1285:D:/fchai/work/i-cube/I-CUBE-HUAWEI/Middlewares/Third_Party/Huawei/iot_link/oc/oc_mqtt/oc_mqtt_tiny_v5\oc_mqtt_tiny.c **** 
1286:D:/fchai/work/i-cube/I-CUBE-HUAWEI/Middlewares/Third_Party/Huawei/iot_link/oc/oc_mqtt/oc_mqtt_tiny_v5\oc_mqtt_tiny.c ****         if((NULL == config->pwd) && (cert_mode == 0))   ///< we permit the no pwd but you should co
1287:D:/fchai/work/i-cube/I-CUBE-HUAWEI/Middlewares/Third_Party/Huawei/iot_link/oc/oc_mqtt/oc_mqtt_tiny_v5\oc_mqtt_tiny.c ****         {
1288:D:/fchai/work/i-cube/I-CUBE-HUAWEI/Middlewares/Third_Party/Huawei/iot_link/oc/oc_mqtt/oc_mqtt_tiny_v5\oc_mqtt_tiny.c ****             return ret;
1289:D:/fchai/work/i-cube/I-CUBE-HUAWEI/Middlewares/Third_Party/Huawei/iot_link/oc/oc_mqtt/oc_mqtt_tiny_v5\oc_mqtt_tiny.c ****         }
1290:D:/fchai/work/i-cube/I-CUBE-HUAWEI/Middlewares/Third_Party/Huawei/iot_link/oc/oc_mqtt/oc_mqtt_tiny_v5\oc_mqtt_tiny.c **** 
1291:D:/fchai/work/i-cube/I-CUBE-HUAWEI/Middlewares/Third_Party/Huawei/iot_link/oc/oc_mqtt/oc_mqtt_tiny_v5\oc_mqtt_tiny.c ****         ret = daemon_cmd_post(en_oc_mqtt_daemon_cmd_connect,config);
1292:D:/fchai/work/i-cube/I-CUBE-HUAWEI/Middlewares/Third_Party/Huawei/iot_link/oc/oc_mqtt/oc_mqtt_tiny_v5\oc_mqtt_tiny.c ****     }
1293:D:/fchai/work/i-cube/I-CUBE-HUAWEI/Middlewares/Third_Party/Huawei/iot_link/oc/oc_mqtt/oc_mqtt_tiny_v5\oc_mqtt_tiny.c ****     return ret;
1294:D:/fchai/work/i-cube/I-CUBE-HUAWEI/Middlewares/Third_Party/Huawei/iot_link/oc/oc_mqtt/oc_mqtt_tiny_v5\oc_mqtt_tiny.c **** }
1295:D:/fchai/work/i-cube/I-CUBE-HUAWEI/Middlewares/Third_Party/Huawei/iot_link/oc/oc_mqtt/oc_mqtt_tiny_v5\oc_mqtt_tiny.c **** 
1296:D:/fchai/work/i-cube/I-CUBE-HUAWEI/Middlewares/Third_Party/Huawei/iot_link/oc/oc_mqtt/oc_mqtt_tiny_v5\oc_mqtt_tiny.c **** 
1297:D:/fchai/work/i-cube/I-CUBE-HUAWEI/Middlewares/Third_Party/Huawei/iot_link/oc/oc_mqtt/oc_mqtt_tiny_v5\oc_mqtt_tiny.c **** 
1298:D:/fchai/work/i-cube/I-CUBE-HUAWEI/Middlewares/Third_Party/Huawei/iot_link/oc/oc_mqtt/oc_mqtt_tiny_v5\oc_mqtt_tiny.c **** ///< use this function to publish message
1299:D:/fchai/work/i-cube/I-CUBE-HUAWEI/Middlewares/Third_Party/Huawei/iot_link/oc/oc_mqtt/oc_mqtt_tiny_v5\oc_mqtt_tiny.c **** static int tiny_publish(char *topic,uint8_t *payload, int len,int qos )
1300:D:/fchai/work/i-cube/I-CUBE-HUAWEI/Middlewares/Third_Party/Huawei/iot_link/oc/oc_mqtt/oc_mqtt_tiny_v5\oc_mqtt_tiny.c **** {
1301:D:/fchai/work/i-cube/I-CUBE-HUAWEI/Middlewares/Third_Party/Huawei/iot_link/oc/oc_mqtt/oc_mqtt_tiny_v5\oc_mqtt_tiny.c ****     mqtt_al_pubpara_t pubpara;
1302:D:/fchai/work/i-cube/I-CUBE-HUAWEI/Middlewares/Third_Party/Huawei/iot_link/oc/oc_mqtt/oc_mqtt_tiny_v5\oc_mqtt_tiny.c ****     int  ret = (int)en_oc_mqtt_err_parafmt;
1303:D:/fchai/work/i-cube/I-CUBE-HUAWEI/Middlewares/Third_Party/Huawei/iot_link/oc/oc_mqtt/oc_mqtt_tiny_v5\oc_mqtt_tiny.c **** 
1304:D:/fchai/work/i-cube/I-CUBE-HUAWEI/Middlewares/Third_Party/Huawei/iot_link/oc/oc_mqtt/oc_mqtt_tiny_v5\oc_mqtt_tiny.c ****     if(qos >= (int)en_mqtt_al_qos_err)
1305:D:/fchai/work/i-cube/I-CUBE-HUAWEI/Middlewares/Third_Party/Huawei/iot_link/oc/oc_mqtt/oc_mqtt_tiny_v5\oc_mqtt_tiny.c ****     {
1306:D:/fchai/work/i-cube/I-CUBE-HUAWEI/Middlewares/Third_Party/Huawei/iot_link/oc/oc_mqtt/oc_mqtt_tiny_v5\oc_mqtt_tiny.c ****         return ret;
1307:D:/fchai/work/i-cube/I-CUBE-HUAWEI/Middlewares/Third_Party/Huawei/iot_link/oc/oc_mqtt/oc_mqtt_tiny_v5\oc_mqtt_tiny.c ****     }
ARM GAS  T:\msys\tmp\ccOGKCS9.s 			page 30


1308:D:/fchai/work/i-cube/I-CUBE-HUAWEI/Middlewares/Third_Party/Huawei/iot_link/oc/oc_mqtt/oc_mqtt_tiny_v5\oc_mqtt_tiny.c ****     if(NULL == s_oc_mqtt_tiny_cb)
1309:D:/fchai/work/i-cube/I-CUBE-HUAWEI/Middlewares/Third_Party/Huawei/iot_link/oc/oc_mqtt/oc_mqtt_tiny_v5\oc_mqtt_tiny.c ****     {
1310:D:/fchai/work/i-cube/I-CUBE-HUAWEI/Middlewares/Third_Party/Huawei/iot_link/oc/oc_mqtt/oc_mqtt_tiny_v5\oc_mqtt_tiny.c ****         ret = (int)en_oc_mqtt_err_system;
1311:D:/fchai/work/i-cube/I-CUBE-HUAWEI/Middlewares/Third_Party/Huawei/iot_link/oc/oc_mqtt/oc_mqtt_tiny_v5\oc_mqtt_tiny.c ****         return ret;
1312:D:/fchai/work/i-cube/I-CUBE-HUAWEI/Middlewares/Third_Party/Huawei/iot_link/oc/oc_mqtt/oc_mqtt_tiny_v5\oc_mqtt_tiny.c ****     }
1313:D:/fchai/work/i-cube/I-CUBE-HUAWEI/Middlewares/Third_Party/Huawei/iot_link/oc/oc_mqtt/oc_mqtt_tiny_v5\oc_mqtt_tiny.c **** 
1314:D:/fchai/work/i-cube/I-CUBE-HUAWEI/Middlewares/Third_Party/Huawei/iot_link/oc/oc_mqtt/oc_mqtt_tiny_v5\oc_mqtt_tiny.c ****     ///< pub the mqtt request
1315:D:/fchai/work/i-cube/I-CUBE-HUAWEI/Middlewares/Third_Party/Huawei/iot_link/oc/oc_mqtt/oc_mqtt_tiny_v5\oc_mqtt_tiny.c ****     (void) memset(&pubpara, 0, sizeof(pubpara));
1316:D:/fchai/work/i-cube/I-CUBE-HUAWEI/Middlewares/Third_Party/Huawei/iot_link/oc/oc_mqtt/oc_mqtt_tiny_v5\oc_mqtt_tiny.c ****     pubpara.qos = (en_mqtt_al_qos_t)qos;
1317:D:/fchai/work/i-cube/I-CUBE-HUAWEI/Middlewares/Third_Party/Huawei/iot_link/oc/oc_mqtt/oc_mqtt_tiny_v5\oc_mqtt_tiny.c ****     pubpara.retain = 0;
1318:D:/fchai/work/i-cube/I-CUBE-HUAWEI/Middlewares/Third_Party/Huawei/iot_link/oc/oc_mqtt/oc_mqtt_tiny_v5\oc_mqtt_tiny.c ****     pubpara.timeout = 1000;
1319:D:/fchai/work/i-cube/I-CUBE-HUAWEI/Middlewares/Third_Party/Huawei/iot_link/oc/oc_mqtt/oc_mqtt_tiny_v5\oc_mqtt_tiny.c ****     pubpara.topic.data = topic;
1320:D:/fchai/work/i-cube/I-CUBE-HUAWEI/Middlewares/Third_Party/Huawei/iot_link/oc/oc_mqtt/oc_mqtt_tiny_v5\oc_mqtt_tiny.c ****     pubpara.msg.data = (char *)payload;
1321:D:/fchai/work/i-cube/I-CUBE-HUAWEI/Middlewares/Third_Party/Huawei/iot_link/oc/oc_mqtt/oc_mqtt_tiny_v5\oc_mqtt_tiny.c ****     pubpara.msg.len = len;
1322:D:/fchai/work/i-cube/I-CUBE-HUAWEI/Middlewares/Third_Party/Huawei/iot_link/oc/oc_mqtt/oc_mqtt_tiny_v5\oc_mqtt_tiny.c **** 
1323:D:/fchai/work/i-cube/I-CUBE-HUAWEI/Middlewares/Third_Party/Huawei/iot_link/oc/oc_mqtt/oc_mqtt_tiny_v5\oc_mqtt_tiny.c ****     ret = daemon_cmd_post(en_oc_mqtt_daemon_cmd_publish,&pubpara);
1324:D:/fchai/work/i-cube/I-CUBE-HUAWEI/Middlewares/Third_Party/Huawei/iot_link/oc/oc_mqtt/oc_mqtt_tiny_v5\oc_mqtt_tiny.c **** 
1325:D:/fchai/work/i-cube/I-CUBE-HUAWEI/Middlewares/Third_Party/Huawei/iot_link/oc/oc_mqtt/oc_mqtt_tiny_v5\oc_mqtt_tiny.c ****     return ret;
1326:D:/fchai/work/i-cube/I-CUBE-HUAWEI/Middlewares/Third_Party/Huawei/iot_link/oc/oc_mqtt/oc_mqtt_tiny_v5\oc_mqtt_tiny.c **** }
1327:D:/fchai/work/i-cube/I-CUBE-HUAWEI/Middlewares/Third_Party/Huawei/iot_link/oc/oc_mqtt/oc_mqtt_tiny_v5\oc_mqtt_tiny.c **** 
1328:D:/fchai/work/i-cube/I-CUBE-HUAWEI/Middlewares/Third_Party/Huawei/iot_link/oc/oc_mqtt/oc_mqtt_tiny_v5\oc_mqtt_tiny.c **** ///< use this function to subscribe a topic
1329:D:/fchai/work/i-cube/I-CUBE-HUAWEI/Middlewares/Third_Party/Huawei/iot_link/oc/oc_mqtt/oc_mqtt_tiny_v5\oc_mqtt_tiny.c **** static int tiny_subscribe(char *topic, int qos)
1330:D:/fchai/work/i-cube/I-CUBE-HUAWEI/Middlewares/Third_Party/Huawei/iot_link/oc/oc_mqtt/oc_mqtt_tiny_v5\oc_mqtt_tiny.c **** {
1331:D:/fchai/work/i-cube/I-CUBE-HUAWEI/Middlewares/Third_Party/Huawei/iot_link/oc/oc_mqtt/oc_mqtt_tiny_v5\oc_mqtt_tiny.c ****     ///< use this function to subscribe a topic
1332:D:/fchai/work/i-cube/I-CUBE-HUAWEI/Middlewares/Third_Party/Huawei/iot_link/oc/oc_mqtt/oc_mqtt_tiny_v5\oc_mqtt_tiny.c ****     mqtt_al_subpara_t  subpara;
1333:D:/fchai/work/i-cube/I-CUBE-HUAWEI/Middlewares/Third_Party/Huawei/iot_link/oc/oc_mqtt/oc_mqtt_tiny_v5\oc_mqtt_tiny.c **** 
1334:D:/fchai/work/i-cube/I-CUBE-HUAWEI/Middlewares/Third_Party/Huawei/iot_link/oc/oc_mqtt/oc_mqtt_tiny_v5\oc_mqtt_tiny.c ****     int  ret = (int)en_oc_mqtt_err_parafmt;
1335:D:/fchai/work/i-cube/I-CUBE-HUAWEI/Middlewares/Third_Party/Huawei/iot_link/oc/oc_mqtt/oc_mqtt_tiny_v5\oc_mqtt_tiny.c **** 
1336:D:/fchai/work/i-cube/I-CUBE-HUAWEI/Middlewares/Third_Party/Huawei/iot_link/oc/oc_mqtt/oc_mqtt_tiny_v5\oc_mqtt_tiny.c ****     if(qos >= (int)en_mqtt_al_qos_err)
1337:D:/fchai/work/i-cube/I-CUBE-HUAWEI/Middlewares/Third_Party/Huawei/iot_link/oc/oc_mqtt/oc_mqtt_tiny_v5\oc_mqtt_tiny.c ****     {
1338:D:/fchai/work/i-cube/I-CUBE-HUAWEI/Middlewares/Third_Party/Huawei/iot_link/oc/oc_mqtt/oc_mqtt_tiny_v5\oc_mqtt_tiny.c ****         return ret;
1339:D:/fchai/work/i-cube/I-CUBE-HUAWEI/Middlewares/Third_Party/Huawei/iot_link/oc/oc_mqtt/oc_mqtt_tiny_v5\oc_mqtt_tiny.c ****     }
1340:D:/fchai/work/i-cube/I-CUBE-HUAWEI/Middlewares/Third_Party/Huawei/iot_link/oc/oc_mqtt/oc_mqtt_tiny_v5\oc_mqtt_tiny.c ****     if(NULL == s_oc_mqtt_tiny_cb)
1341:D:/fchai/work/i-cube/I-CUBE-HUAWEI/Middlewares/Third_Party/Huawei/iot_link/oc/oc_mqtt/oc_mqtt_tiny_v5\oc_mqtt_tiny.c ****     {
1342:D:/fchai/work/i-cube/I-CUBE-HUAWEI/Middlewares/Third_Party/Huawei/iot_link/oc/oc_mqtt/oc_mqtt_tiny_v5\oc_mqtt_tiny.c ****         ret = (int)en_oc_mqtt_err_system;
1343:D:/fchai/work/i-cube/I-CUBE-HUAWEI/Middlewares/Third_Party/Huawei/iot_link/oc/oc_mqtt/oc_mqtt_tiny_v5\oc_mqtt_tiny.c ****         return ret;
1344:D:/fchai/work/i-cube/I-CUBE-HUAWEI/Middlewares/Third_Party/Huawei/iot_link/oc/oc_mqtt/oc_mqtt_tiny_v5\oc_mqtt_tiny.c ****     }
1345:D:/fchai/work/i-cube/I-CUBE-HUAWEI/Middlewares/Third_Party/Huawei/iot_link/oc/oc_mqtt/oc_mqtt_tiny_v5\oc_mqtt_tiny.c **** 
1346:D:/fchai/work/i-cube/I-CUBE-HUAWEI/Middlewares/Third_Party/Huawei/iot_link/oc/oc_mqtt/oc_mqtt_tiny_v5\oc_mqtt_tiny.c ****     ///< pub the mqtt request
1347:D:/fchai/work/i-cube/I-CUBE-HUAWEI/Middlewares/Third_Party/Huawei/iot_link/oc/oc_mqtt/oc_mqtt_tiny_v5\oc_mqtt_tiny.c ****     (void) memset(&subpara, 0, sizeof(subpara));
1348:D:/fchai/work/i-cube/I-CUBE-HUAWEI/Middlewares/Third_Party/Huawei/iot_link/oc/oc_mqtt/oc_mqtt_tiny_v5\oc_mqtt_tiny.c ****     subpara.qos = (en_mqtt_al_qos_t)qos;
1349:D:/fchai/work/i-cube/I-CUBE-HUAWEI/Middlewares/Third_Party/Huawei/iot_link/oc/oc_mqtt/oc_mqtt_tiny_v5\oc_mqtt_tiny.c ****     subpara.topic.data = topic;
1350:D:/fchai/work/i-cube/I-CUBE-HUAWEI/Middlewares/Third_Party/Huawei/iot_link/oc/oc_mqtt/oc_mqtt_tiny_v5\oc_mqtt_tiny.c ****     subpara.topic.len = strlen(topic);
1351:D:/fchai/work/i-cube/I-CUBE-HUAWEI/Middlewares/Third_Party/Huawei/iot_link/oc/oc_mqtt/oc_mqtt_tiny_v5\oc_mqtt_tiny.c **** 
1352:D:/fchai/work/i-cube/I-CUBE-HUAWEI/Middlewares/Third_Party/Huawei/iot_link/oc/oc_mqtt/oc_mqtt_tiny_v5\oc_mqtt_tiny.c ****     ret = daemon_cmd_post(en_oc_mqtt_daemon_cmd_subscribe,&subpara);
1353:D:/fchai/work/i-cube/I-CUBE-HUAWEI/Middlewares/Third_Party/Huawei/iot_link/oc/oc_mqtt/oc_mqtt_tiny_v5\oc_mqtt_tiny.c **** 
1354:D:/fchai/work/i-cube/I-CUBE-HUAWEI/Middlewares/Third_Party/Huawei/iot_link/oc/oc_mqtt/oc_mqtt_tiny_v5\oc_mqtt_tiny.c ****     return ret;
1355:D:/fchai/work/i-cube/I-CUBE-HUAWEI/Middlewares/Third_Party/Huawei/iot_link/oc/oc_mqtt/oc_mqtt_tiny_v5\oc_mqtt_tiny.c **** }
1356:D:/fchai/work/i-cube/I-CUBE-HUAWEI/Middlewares/Third_Party/Huawei/iot_link/oc/oc_mqtt/oc_mqtt_tiny_v5\oc_mqtt_tiny.c **** ///< use this function to unsubscribe a topic
1357:D:/fchai/work/i-cube/I-CUBE-HUAWEI/Middlewares/Third_Party/Huawei/iot_link/oc/oc_mqtt/oc_mqtt_tiny_v5\oc_mqtt_tiny.c **** static int tiny_unsubscribe(char *topic)
1358:D:/fchai/work/i-cube/I-CUBE-HUAWEI/Middlewares/Third_Party/Huawei/iot_link/oc/oc_mqtt/oc_mqtt_tiny_v5\oc_mqtt_tiny.c **** {
 299              		.loc 1 1358 1 is_stmt 1 view -0
 300              		.cfi_startproc
 301              		@ args = 0, pretend = 0, frame = 16
 302              		@ frame_needed = 0, uses_anonymous_args = 0
1359:D:/fchai/work/i-cube/I-CUBE-HUAWEI/Middlewares/Third_Party/Huawei/iot_link/oc/oc_mqtt/oc_mqtt_tiny_v5\oc_mqtt_tiny.c ****     ///< use this function to subscribe a topic
1360:D:/fchai/work/i-cube/I-CUBE-HUAWEI/Middlewares/Third_Party/Huawei/iot_link/oc/oc_mqtt/oc_mqtt_tiny_v5\oc_mqtt_tiny.c ****     mqtt_al_unsubpara_t  unsubpara;
ARM GAS  T:\msys\tmp\ccOGKCS9.s 			page 31


 303              		.loc 1 1360 5 view .LVU94
1361:D:/fchai/work/i-cube/I-CUBE-HUAWEI/Middlewares/Third_Party/Huawei/iot_link/oc/oc_mqtt/oc_mqtt_tiny_v5\oc_mqtt_tiny.c **** 
1362:D:/fchai/work/i-cube/I-CUBE-HUAWEI/Middlewares/Third_Party/Huawei/iot_link/oc/oc_mqtt/oc_mqtt_tiny_v5\oc_mqtt_tiny.c ****     int  ret = (int)en_oc_mqtt_err_parafmt;
 304              		.loc 1 1362 5 view .LVU95
1363:D:/fchai/work/i-cube/I-CUBE-HUAWEI/Middlewares/Third_Party/Huawei/iot_link/oc/oc_mqtt/oc_mqtt_tiny_v5\oc_mqtt_tiny.c ****     if(NULL == s_oc_mqtt_tiny_cb)
 305              		.loc 1 1363 5 view .LVU96
 306              		.loc 1 1363 13 is_stmt 0 view .LVU97
 307 0000 0C4B     		ldr	r3, .L47
 308              		.loc 1 1363 7 view .LVU98
 309 0002 1A68     		ldr	r2, [r3]
 310 0004 9AB1     		cbz	r2, .L42
1364:D:/fchai/work/i-cube/I-CUBE-HUAWEI/Middlewares/Third_Party/Huawei/iot_link/oc/oc_mqtt/oc_mqtt_tiny_v5\oc_mqtt_tiny.c ****     {
1365:D:/fchai/work/i-cube/I-CUBE-HUAWEI/Middlewares/Third_Party/Huawei/iot_link/oc/oc_mqtt/oc_mqtt_tiny_v5\oc_mqtt_tiny.c ****         ret = (int)en_oc_mqtt_err_system;
1366:D:/fchai/work/i-cube/I-CUBE-HUAWEI/Middlewares/Third_Party/Huawei/iot_link/oc/oc_mqtt/oc_mqtt_tiny_v5\oc_mqtt_tiny.c ****         return ret;
1367:D:/fchai/work/i-cube/I-CUBE-HUAWEI/Middlewares/Third_Party/Huawei/iot_link/oc/oc_mqtt/oc_mqtt_tiny_v5\oc_mqtt_tiny.c ****     }
1368:D:/fchai/work/i-cube/I-CUBE-HUAWEI/Middlewares/Third_Party/Huawei/iot_link/oc/oc_mqtt/oc_mqtt_tiny_v5\oc_mqtt_tiny.c ****     ///< pub the mqtt request
1369:D:/fchai/work/i-cube/I-CUBE-HUAWEI/Middlewares/Third_Party/Huawei/iot_link/oc/oc_mqtt/oc_mqtt_tiny_v5\oc_mqtt_tiny.c ****     (void) memset(&unsubpara, 0, sizeof(unsubpara));
 311              		.loc 1 1369 5 is_stmt 1 view .LVU99
1358:D:/fchai/work/i-cube/I-CUBE-HUAWEI/Middlewares/Third_Party/Huawei/iot_link/oc/oc_mqtt/oc_mqtt_tiny_v5\oc_mqtt_tiny.c ****     ///< use this function to subscribe a topic
 312              		.loc 1 1358 1 is_stmt 0 view .LVU100
 313 0006 00B5     		push	{lr}
 314              	.LCFI2:
 315              		.cfi_def_cfa_offset 4
 316              		.cfi_offset 14, -4
 317 0008 85B0     		sub	sp, sp, #20
 318              	.LCFI3:
 319              		.cfi_def_cfa_offset 24
 320              		.loc 1 1369 12 view .LVU101
 321 000a 0022     		movs	r2, #0
 322 000c CDE90222 		strd	r2, r2, [sp, #8]
1370:D:/fchai/work/i-cube/I-CUBE-HUAWEI/Middlewares/Third_Party/Huawei/iot_link/oc/oc_mqtt/oc_mqtt_tiny_v5\oc_mqtt_tiny.c ****     unsubpara.topic.data = topic;
 323              		.loc 1 1370 26 view .LVU102
 324 0010 0190     		str	r0, [sp, #4]
1371:D:/fchai/work/i-cube/I-CUBE-HUAWEI/Middlewares/Third_Party/Huawei/iot_link/oc/oc_mqtt/oc_mqtt_tiny_v5\oc_mqtt_tiny.c ****     unsubpara.topic.len = strlen(topic);
 325              		.loc 1 1371 27 view .LVU103
 326 0012 FFF7FEFF 		bl	strlen
 327              	.LVL28:
1372:D:/fchai/work/i-cube/I-CUBE-HUAWEI/Middlewares/Third_Party/Huawei/iot_link/oc/oc_mqtt/oc_mqtt_tiny_v5\oc_mqtt_tiny.c ****     unsubpara.timeout = CN_OC_MQTT_TIMEOUT;
 328              		.loc 1 1372 23 view .LVU104
 329 0016 42F21073 		movw	r3, #10000
1371:D:/fchai/work/i-cube/I-CUBE-HUAWEI/Middlewares/Third_Party/Huawei/iot_link/oc/oc_mqtt/oc_mqtt_tiny_v5\oc_mqtt_tiny.c ****     unsubpara.topic.len = strlen(topic);
 330              		.loc 1 1371 27 view .LVU105
 331 001a 0246     		mov	r2, r0
1373:D:/fchai/work/i-cube/I-CUBE-HUAWEI/Middlewares/Third_Party/Huawei/iot_link/oc/oc_mqtt/oc_mqtt_tiny_v5\oc_mqtt_tiny.c ****     ret = daemon_cmd_post(en_oc_mqtt_daemon_cmd_unsubscribe,&unsubpara);
 332              		.loc 1 1373 11 view .LVU106
 333 001c 01A9     		add	r1, sp, #4
 334 001e 0420     		movs	r0, #4
1372:D:/fchai/work/i-cube/I-CUBE-HUAWEI/Middlewares/Third_Party/Huawei/iot_link/oc/oc_mqtt/oc_mqtt_tiny_v5\oc_mqtt_tiny.c ****     unsubpara.timeout = CN_OC_MQTT_TIMEOUT;
 335              		.loc 1 1372 23 view .LVU107
 336 0020 CDE90223 		strd	r2, r3, [sp, #8]
 337              		.loc 1 1373 5 is_stmt 1 view .LVU108
 338              		.loc 1 1373 11 is_stmt 0 view .LVU109
 339 0024 FFF7FEFF 		bl	daemon_cmd_post
 340              	.LVL29:
1374:D:/fchai/work/i-cube/I-CUBE-HUAWEI/Middlewares/Third_Party/Huawei/iot_link/oc/oc_mqtt/oc_mqtt_tiny_v5\oc_mqtt_tiny.c **** 
1375:D:/fchai/work/i-cube/I-CUBE-HUAWEI/Middlewares/Third_Party/Huawei/iot_link/oc/oc_mqtt/oc_mqtt_tiny_v5\oc_mqtt_tiny.c ****     return ret;
 341              		.loc 1 1375 5 is_stmt 1 view .LVU110
ARM GAS  T:\msys\tmp\ccOGKCS9.s 			page 32


1376:D:/fchai/work/i-cube/I-CUBE-HUAWEI/Middlewares/Third_Party/Huawei/iot_link/oc/oc_mqtt/oc_mqtt_tiny_v5\oc_mqtt_tiny.c **** }
 342              		.loc 1 1376 1 is_stmt 0 view .LVU111
 343 0028 05B0     		add	sp, sp, #20
 344              	.LCFI4:
 345              		.cfi_def_cfa_offset 4
 346              		@ sp needed
 347 002a 5DF804FB 		ldr	pc, [sp], #4
 348              	.LVL30:
 349              	.L42:
 350              	.LCFI5:
 351              		.cfi_def_cfa_offset 0
 352              		.cfi_restore 14
1366:D:/fchai/work/i-cube/I-CUBE-HUAWEI/Middlewares/Third_Party/Huawei/iot_link/oc/oc_mqtt/oc_mqtt_tiny_v5\oc_mqtt_tiny.c ****     }
 353              		.loc 1 1366 16 view .LVU112
 354 002e 1020     		movs	r0, #16
 355              	.LVL31:
 356              		.loc 1 1376 1 view .LVU113
 357 0030 7047     		bx	lr
 358              	.L48:
 359 0032 00BF     		.align	2
 360              	.L47:
 361 0034 00000000 		.word	.LANCHOR0
 362              		.cfi_endproc
 363              	.LFE24:
 365              		.section	.text.tiny_deconfig,"ax",%progbits
 366              		.align	1
 367              		.p2align 2,,3
 368              		.syntax unified
 369              		.thumb
 370              		.thumb_func
 371              		.fpu fpv4-sp-d16
 373              	tiny_deconfig:
 374              	.LFB25:
1377:D:/fchai/work/i-cube/I-CUBE-HUAWEI/Middlewares/Third_Party/Huawei/iot_link/oc/oc_mqtt/oc_mqtt_tiny_v5\oc_mqtt_tiny.c **** 
1378:D:/fchai/work/i-cube/I-CUBE-HUAWEI/Middlewares/Third_Party/Huawei/iot_link/oc/oc_mqtt/oc_mqtt_tiny_v5\oc_mqtt_tiny.c **** ///< use this function to deconfig it
1379:D:/fchai/work/i-cube/I-CUBE-HUAWEI/Middlewares/Third_Party/Huawei/iot_link/oc/oc_mqtt/oc_mqtt_tiny_v5\oc_mqtt_tiny.c **** static int tiny_deconfig()
1380:D:/fchai/work/i-cube/I-CUBE-HUAWEI/Middlewares/Third_Party/Huawei/iot_link/oc/oc_mqtt/oc_mqtt_tiny_v5\oc_mqtt_tiny.c **** {
 375              		.loc 1 1380 1 is_stmt 1 view -0
 376              		.cfi_startproc
 377              		@ args = 0, pretend = 0, frame = 0
 378              		@ frame_needed = 0, uses_anonymous_args = 0
 379              		@ link register save eliminated.
1381:D:/fchai/work/i-cube/I-CUBE-HUAWEI/Middlewares/Third_Party/Huawei/iot_link/oc/oc_mqtt/oc_mqtt_tiny_v5\oc_mqtt_tiny.c ****     int ret = (int)en_oc_mqtt_err_system;
 380              		.loc 1 1381 5 view .LVU115
 381              	.LVL32:
1382:D:/fchai/work/i-cube/I-CUBE-HUAWEI/Middlewares/Third_Party/Huawei/iot_link/oc/oc_mqtt/oc_mqtt_tiny_v5\oc_mqtt_tiny.c **** 
1383:D:/fchai/work/i-cube/I-CUBE-HUAWEI/Middlewares/Third_Party/Huawei/iot_link/oc/oc_mqtt/oc_mqtt_tiny_v5\oc_mqtt_tiny.c ****     ret = daemon_cmd_post(en_oc_mqtt_daemon_cmd_disconnect,NULL);
 382              		.loc 1 1383 5 view .LVU116
 383              		.loc 1 1383 11 is_stmt 0 view .LVU117
 384 0000 0021     		movs	r1, #0
 385 0002 0520     		movs	r0, #5
 386 0004 FFF7FEBF 		b	daemon_cmd_post
 387              	.LVL33:
 388              		.cfi_endproc
 389              	.LFE25:
 391              		.section	.text.topic_fmt,"ax",%progbits
 392              		.align	1
ARM GAS  T:\msys\tmp\ccOGKCS9.s 			page 33


 393              		.p2align 2,,3
 394              		.syntax unified
 395              		.thumb
 396              		.thumb_func
 397              		.fpu fpv4-sp-d16
 399              	topic_fmt:
 400              	.LVL34:
 401              	.LFB5:
 279:D:/fchai/work/i-cube/I-CUBE-HUAWEI/Middlewares/Third_Party/Huawei/iot_link/oc/oc_mqtt/oc_mqtt_tiny_v5\oc_mqtt_tiny.c ****     char *ret = NULL;
 402              		.loc 1 279 1 is_stmt 1 view -0
 403              		.cfi_startproc
 404              		@ args = 0, pretend = 0, frame = 0
 405              		@ frame_needed = 0, uses_anonymous_args = 0
 280:D:/fchai/work/i-cube/I-CUBE-HUAWEI/Middlewares/Third_Party/Huawei/iot_link/oc/oc_mqtt/oc_mqtt_tiny_v5\oc_mqtt_tiny.c ****     int len =  0;
 406              		.loc 1 280 5 view .LVU119
 281:D:/fchai/work/i-cube/I-CUBE-HUAWEI/Middlewares/Third_Party/Huawei/iot_link/oc/oc_mqtt/oc_mqtt_tiny_v5\oc_mqtt_tiny.c **** 
 407              		.loc 1 281 5 view .LVU120
 283:D:/fchai/work/i-cube/I-CUBE-HUAWEI/Middlewares/Third_Party/Huawei/iot_link/oc/oc_mqtt/oc_mqtt_tiny_v5\oc_mqtt_tiny.c **** 
 408              		.loc 1 283 5 view .LVU121
 279:D:/fchai/work/i-cube/I-CUBE-HUAWEI/Middlewares/Third_Party/Huawei/iot_link/oc/oc_mqtt/oc_mqtt_tiny_v5\oc_mqtt_tiny.c ****     char *ret = NULL;
 409              		.loc 1 279 1 is_stmt 0 view .LVU122
 410 0000 F8B5     		push	{r3, r4, r5, r6, r7, lr}
 411              	.LCFI6:
 412              		.cfi_def_cfa_offset 24
 413              		.cfi_offset 3, -24
 414              		.cfi_offset 4, -20
 415              		.cfi_offset 5, -16
 416              		.cfi_offset 6, -12
 417              		.cfi_offset 7, -8
 418              		.cfi_offset 14, -4
 279:D:/fchai/work/i-cube/I-CUBE-HUAWEI/Middlewares/Third_Party/Huawei/iot_link/oc/oc_mqtt/oc_mqtt_tiny_v5\oc_mqtt_tiny.c ****     char *ret = NULL;
 419              		.loc 1 279 1 view .LVU123
 420 0002 0E46     		mov	r6, r1
 421 0004 0746     		mov	r7, r0
 283:D:/fchai/work/i-cube/I-CUBE-HUAWEI/Middlewares/Third_Party/Huawei/iot_link/oc/oc_mqtt/oc_mqtt_tiny_v5\oc_mqtt_tiny.c **** 
 422              		.loc 1 283 11 view .LVU124
 423 0006 FFF7FEFF 		bl	strlen
 424              	.LVL35:
 283:D:/fchai/work/i-cube/I-CUBE-HUAWEI/Middlewares/Third_Party/Huawei/iot_link/oc/oc_mqtt/oc_mqtt_tiny_v5\oc_mqtt_tiny.c **** 
 425              		.loc 1 283 11 view .LVU125
 426 000a 0446     		mov	r4, r0
 283:D:/fchai/work/i-cube/I-CUBE-HUAWEI/Middlewares/Third_Party/Huawei/iot_link/oc/oc_mqtt/oc_mqtt_tiny_v5\oc_mqtt_tiny.c **** 
 427              		.loc 1 283 25 view .LVU126
 428 000c 3046     		mov	r0, r6
 429 000e FFF7FEFF 		bl	strlen
