ARM GAS  T:\msys\tmp\cc56R3EJ.s 			page 1


   1              		.cpu cortex-m4
   2              		.eabi_attribute 27, 1
   3              		.eabi_attribute 28, 1
   4              		.eabi_attribute 20, 1
   5              		.eabi_attribute 21, 1
   6              		.eabi_attribute 23, 3
   7              		.eabi_attribute 24, 1
   8              		.eabi_attribute 25, 1
   9              		.eabi_attribute 26, 1
  10              		.eabi_attribute 30, 2
  11              		.eabi_attribute 34, 1
  12              		.eabi_attribute 18, 4
  13              		.file	"driver.c"
  14              		.text
  15              	.Ltext0:
  16              		.cfi_sections	.debug_frame
  17              		.section	.text.__driv_match,"ax",%progbits
  18              		.align	1
  19              		.p2align 2,,3
  20              		.arch armv7e-m
  21              		.syntax unified
  22              		.thumb
  23              		.thumb_func
  24              		.fpu fpv4-sp-d16
  26              	__driv_match:
  27              	.LVL0:
  28              	.LFB3:
  29              		.file 1 "D:/fchai/work/i-cube/I-CUBE-HUAWEI/Middlewares/Third_Party/Huawei/iot_link/driver/driver.
   1:D:/fchai/work/i-cube/I-CUBE-HUAWEI/Middlewares/Third_Party/Huawei/iot_link/driver\driver.c **** /*----------------------------------------------------------------------------
   2:D:/fchai/work/i-cube/I-CUBE-HUAWEI/Middlewares/Third_Party/Huawei/iot_link/driver\driver.c ****  * Copyright (c) <2018>, <Huawei Technologies Co., Ltd>
   3:D:/fchai/work/i-cube/I-CUBE-HUAWEI/Middlewares/Third_Party/Huawei/iot_link/driver\driver.c ****  * All rights reserved.
   4:D:/fchai/work/i-cube/I-CUBE-HUAWEI/Middlewares/Third_Party/Huawei/iot_link/driver\driver.c ****  * Redistribution and use in source and binary forms, with or without modification,
   5:D:/fchai/work/i-cube/I-CUBE-HUAWEI/Middlewares/Third_Party/Huawei/iot_link/driver\driver.c ****  * are permitted provided that the following conditions are met:
   6:D:/fchai/work/i-cube/I-CUBE-HUAWEI/Middlewares/Third_Party/Huawei/iot_link/driver\driver.c ****  * 1. Redistributions of source code must retain the above copyright notice, this list of
   7:D:/fchai/work/i-cube/I-CUBE-HUAWEI/Middlewares/Third_Party/Huawei/iot_link/driver\driver.c ****  * conditions and the following disclaimer.
   8:D:/fchai/work/i-cube/I-CUBE-HUAWEI/Middlewares/Third_Party/Huawei/iot_link/driver\driver.c ****  * 2. Redistributions in binary form must reproduce the above copyright notice, this list
   9:D:/fchai/work/i-cube/I-CUBE-HUAWEI/Middlewares/Third_Party/Huawei/iot_link/driver\driver.c ****  * of conditions and the following disclaimer in the documentation and/or other materials
  10:D:/fchai/work/i-cube/I-CUBE-HUAWEI/Middlewares/Third_Party/Huawei/iot_link/driver\driver.c ****  * provided with the distribution.
  11:D:/fchai/work/i-cube/I-CUBE-HUAWEI/Middlewares/Third_Party/Huawei/iot_link/driver\driver.c ****  * 3. Neither the name of the copyright holder nor the names of its contributors may be used
  12:D:/fchai/work/i-cube/I-CUBE-HUAWEI/Middlewares/Third_Party/Huawei/iot_link/driver\driver.c ****  * to endorse or promote products derived from this software without specific prior written
  13:D:/fchai/work/i-cube/I-CUBE-HUAWEI/Middlewares/Third_Party/Huawei/iot_link/driver\driver.c ****  * permission.
  14:D:/fchai/work/i-cube/I-CUBE-HUAWEI/Middlewares/Third_Party/Huawei/iot_link/driver\driver.c ****  * THIS SOFTWARE IS PROVIDED BY THE COPYRIGHT HOLDERS AND CONTRIBUTORS
  15:D:/fchai/work/i-cube/I-CUBE-HUAWEI/Middlewares/Third_Party/Huawei/iot_link/driver\driver.c ****  * "AS IS" AND ANY EXPRESS OR IMPLIED WARRANTIES, INCLUDING, BUT NOT LIMITED TO,
  16:D:/fchai/work/i-cube/I-CUBE-HUAWEI/Middlewares/Third_Party/Huawei/iot_link/driver\driver.c ****  * THE IMPLIED WARRANTIES OF MERCHANTABILITY AND FITNESS FOR A PARTICULAR
  17:D:/fchai/work/i-cube/I-CUBE-HUAWEI/Middlewares/Third_Party/Huawei/iot_link/driver\driver.c ****  * PURPOSE ARE DISCLAIMED. IN NO EVENT SHALL THE COPYRIGHT HOLDER OR
  18:D:/fchai/work/i-cube/I-CUBE-HUAWEI/Middlewares/Third_Party/Huawei/iot_link/driver\driver.c ****  * CONTRIBUTORS BE LIABLE FOR ANY DIRECT, INDIRECT, INCIDENTAL, SPECIAL,
  19:D:/fchai/work/i-cube/I-CUBE-HUAWEI/Middlewares/Third_Party/Huawei/iot_link/driver\driver.c ****  * EXEMPLARY, OR CONSEQUENTIAL DAMAGES (INCLUDING, BUT NOT LIMITED TO,
  20:D:/fchai/work/i-cube/I-CUBE-HUAWEI/Middlewares/Third_Party/Huawei/iot_link/driver\driver.c ****  * PROCUREMENT OF SUBSTITUTE GOODS OR SERVICES; LOSS OF USE, DATA, OR PROFITS;
  21:D:/fchai/work/i-cube/I-CUBE-HUAWEI/Middlewares/Third_Party/Huawei/iot_link/driver\driver.c ****  * OR BUSINESS INTERRUPTION) HOWEVER CAUSED AND ON ANY THEORY OF LIABILITY,
  22:D:/fchai/work/i-cube/I-CUBE-HUAWEI/Middlewares/Third_Party/Huawei/iot_link/driver\driver.c ****  * WHETHER IN CONTRACT, STRICT LIABILITY, OR TORT (INCLUDING NEGLIGENCE OR
  23:D:/fchai/work/i-cube/I-CUBE-HUAWEI/Middlewares/Third_Party/Huawei/iot_link/driver\driver.c ****  * OTHERWISE) ARISING IN ANY WAY OUT OF THE USE OF THIS SOFTWARE, EVEN IF
  24:D:/fchai/work/i-cube/I-CUBE-HUAWEI/Middlewares/Third_Party/Huawei/iot_link/driver\driver.c ****  * ADVISED OF THE POSSIBILITY OF SUCH DAMAGE.
  25:D:/fchai/work/i-cube/I-CUBE-HUAWEI/Middlewares/Third_Party/Huawei/iot_link/driver\driver.c ****  *---------------------------------------------------------------------------*/
  26:D:/fchai/work/i-cube/I-CUBE-HUAWEI/Middlewares/Third_Party/Huawei/iot_link/driver\driver.c **** /*----------------------------------------------------------------------------
  27:D:/fchai/work/i-cube/I-CUBE-HUAWEI/Middlewares/Third_Party/Huawei/iot_link/driver\driver.c ****  * Notice of Export Control Law
  28:D:/fchai/work/i-cube/I-CUBE-HUAWEI/Middlewares/Third_Party/Huawei/iot_link/driver\driver.c ****  * ===============================================
  29:D:/fchai/work/i-cube/I-CUBE-HUAWEI/Middlewares/Third_Party/Huawei/iot_link/driver\driver.c ****  * Huawei LiteOS may be subject to applicable export control laws and regulations, which might
ARM GAS  T:\msys\tmp\cc56R3EJ.s 			page 2


  30:D:/fchai/work/i-cube/I-CUBE-HUAWEI/Middlewares/Third_Party/Huawei/iot_link/driver\driver.c ****  * include those applicable to Huawei LiteOS of U.S. and the country in which you are located.
  31:D:/fchai/work/i-cube/I-CUBE-HUAWEI/Middlewares/Third_Party/Huawei/iot_link/driver\driver.c ****  * Import, export and usage of Huawei LiteOS in any manner by you shall be in compliance with such
  32:D:/fchai/work/i-cube/I-CUBE-HUAWEI/Middlewares/Third_Party/Huawei/iot_link/driver\driver.c ****  * applicable export control laws and regulations.
  33:D:/fchai/work/i-cube/I-CUBE-HUAWEI/Middlewares/Third_Party/Huawei/iot_link/driver\driver.c ****  *---------------------------------------------------------------------------*/
  34:D:/fchai/work/i-cube/I-CUBE-HUAWEI/Middlewares/Third_Party/Huawei/iot_link/driver\driver.c **** /**
  35:D:/fchai/work/i-cube/I-CUBE-HUAWEI/Middlewares/Third_Party/Huawei/iot_link/driver\driver.c ****  *  DATE                AUTHOR      INSTRUCTION
  36:D:/fchai/work/i-cube/I-CUBE-HUAWEI/Middlewares/Third_Party/Huawei/iot_link/driver\driver.c ****  *  2019-05-14 09:36  zhangqianfu  The first version  
  37:D:/fchai/work/i-cube/I-CUBE-HUAWEI/Middlewares/Third_Party/Huawei/iot_link/driver\driver.c ****  *
  38:D:/fchai/work/i-cube/I-CUBE-HUAWEI/Middlewares/Third_Party/Huawei/iot_link/driver\driver.c ****  */
  39:D:/fchai/work/i-cube/I-CUBE-HUAWEI/Middlewares/Third_Party/Huawei/iot_link/driver\driver.c **** #include <string.h>
  40:D:/fchai/work/i-cube/I-CUBE-HUAWEI/Middlewares/Third_Party/Huawei/iot_link/driver\driver.c **** #include <stdio.h>
  41:D:/fchai/work/i-cube/I-CUBE-HUAWEI/Middlewares/Third_Party/Huawei/iot_link/driver\driver.c **** #include <stdlib.h>
  42:D:/fchai/work/i-cube/I-CUBE-HUAWEI/Middlewares/Third_Party/Huawei/iot_link/driver\driver.c **** #include <driver.h>
  43:D:/fchai/work/i-cube/I-CUBE-HUAWEI/Middlewares/Third_Party/Huawei/iot_link/driver\driver.c **** #include <sys/fcntl.h>
  44:D:/fchai/work/i-cube/I-CUBE-HUAWEI/Middlewares/Third_Party/Huawei/iot_link/driver\driver.c **** 
  45:D:/fchai/work/i-cube/I-CUBE-HUAWEI/Middlewares/Third_Party/Huawei/iot_link/driver\driver.c **** 
  46:D:/fchai/work/i-cube/I-CUBE-HUAWEI/Middlewares/Third_Party/Huawei/iot_link/driver\driver.c **** #define cn_driv_status_initialized     (1<<0)
  47:D:/fchai/work/i-cube/I-CUBE-HUAWEI/Middlewares/Third_Party/Huawei/iot_link/driver\driver.c **** #define cn_driv_status_opend           (1<<1)
  48:D:/fchai/work/i-cube/I-CUBE-HUAWEI/Middlewares/Third_Party/Huawei/iot_link/driver\driver.c **** 
  49:D:/fchai/work/i-cube/I-CUBE-HUAWEI/Middlewares/Third_Party/Huawei/iot_link/driver\driver.c **** 
  50:D:/fchai/work/i-cube/I-CUBE-HUAWEI/Middlewares/Third_Party/Huawei/iot_link/driver\driver.c **** //define the error type has happened in the driver
  51:D:/fchai/work/i-cube/I-CUBE-HUAWEI/Middlewares/Third_Party/Huawei/iot_link/driver\driver.c **** typedef enum
  52:D:/fchai/work/i-cube/I-CUBE-HUAWEI/Middlewares/Third_Party/Huawei/iot_link/driver\driver.c **** {
  53:D:/fchai/work/i-cube/I-CUBE-HUAWEI/Middlewares/Third_Party/Huawei/iot_link/driver\driver.c ****     en_dev_err_none = 0,   //no err happened
  54:D:/fchai/work/i-cube/I-CUBE-HUAWEI/Middlewares/Third_Party/Huawei/iot_link/driver\driver.c ****     en_dev_err_init,       //call bsp open function failed
  55:D:/fchai/work/i-cube/I-CUBE-HUAWEI/Middlewares/Third_Party/Huawei/iot_link/driver\driver.c ****     en_dev_err_open,       //call bsp init function failed
  56:D:/fchai/work/i-cube/I-CUBE-HUAWEI/Middlewares/Third_Party/Huawei/iot_link/driver\driver.c **** 
  57:D:/fchai/work/i-cube/I-CUBE-HUAWEI/Middlewares/Third_Party/Huawei/iot_link/driver\driver.c **** }en_dev_error_type;
  58:D:/fchai/work/i-cube/I-CUBE-HUAWEI/Middlewares/Third_Party/Huawei/iot_link/driver\driver.c **** 
  59:D:/fchai/work/i-cube/I-CUBE-HUAWEI/Middlewares/Third_Party/Huawei/iot_link/driver\driver.c **** 
  60:D:/fchai/work/i-cube/I-CUBE-HUAWEI/Middlewares/Third_Party/Huawei/iot_link/driver\driver.c **** struct driv_cb
  61:D:/fchai/work/i-cube/I-CUBE-HUAWEI/Middlewares/Third_Party/Huawei/iot_link/driver\driver.c **** {
  62:D:/fchai/work/i-cube/I-CUBE-HUAWEI/Middlewares/Third_Party/Huawei/iot_link/driver\driver.c ****     void                  *nxt;              //add the deice to device list
  63:D:/fchai/work/i-cube/I-CUBE-HUAWEI/Middlewares/Third_Party/Huawei/iot_link/driver\driver.c ****     void                  *pri;              //bsp developed para
  64:D:/fchai/work/i-cube/I-CUBE-HUAWEI/Middlewares/Third_Party/Huawei/iot_link/driver\driver.c ****     const char            *name;             //the device name
  65:D:/fchai/work/i-cube/I-CUBE-HUAWEI/Middlewares/Third_Party/Huawei/iot_link/driver\driver.c ****     int                    flagmask;         //copy from the register
  66:D:/fchai/work/i-cube/I-CUBE-HUAWEI/Middlewares/Third_Party/Huawei/iot_link/driver\driver.c ****     const los_driv_op_t   *op;               //operation method
  67:D:/fchai/work/i-cube/I-CUBE-HUAWEI/Middlewares/Third_Party/Huawei/iot_link/driver\driver.c ****     unsigned int           drivstatus;       //show the state here like init or something like this
  68:D:/fchai/work/i-cube/I-CUBE-HUAWEI/Middlewares/Third_Party/Huawei/iot_link/driver\driver.c ****     los_dev_t              devlst;           //the open list,support the multi open
  69:D:/fchai/work/i-cube/I-CUBE-HUAWEI/Middlewares/Third_Party/Huawei/iot_link/driver\driver.c ****     //following member used for the debug
  70:D:/fchai/work/i-cube/I-CUBE-HUAWEI/Middlewares/Third_Party/Huawei/iot_link/driver\driver.c ****     size_t            total_write;            //how many data has been sent
  71:D:/fchai/work/i-cube/I-CUBE-HUAWEI/Middlewares/Third_Party/Huawei/iot_link/driver\driver.c ****     size_t            total_read;             //how many data has received
  72:D:/fchai/work/i-cube/I-CUBE-HUAWEI/Middlewares/Third_Party/Huawei/iot_link/driver\driver.c ****     size_t            opencounter;            //reference counter
  73:D:/fchai/work/i-cube/I-CUBE-HUAWEI/Middlewares/Third_Party/Huawei/iot_link/driver\driver.c ****     unsigned int      errno;                  //the last errno has happend
  74:D:/fchai/work/i-cube/I-CUBE-HUAWEI/Middlewares/Third_Party/Huawei/iot_link/driver\driver.c **** };
  75:D:/fchai/work/i-cube/I-CUBE-HUAWEI/Middlewares/Third_Party/Huawei/iot_link/driver\driver.c **** typedef struct
  76:D:/fchai/work/i-cube/I-CUBE-HUAWEI/Middlewares/Third_Party/Huawei/iot_link/driver\driver.c **** {
  77:D:/fchai/work/i-cube/I-CUBE-HUAWEI/Middlewares/Third_Party/Huawei/iot_link/driver\driver.c ****     osal_mutex_t                    lock;      //used to lock the devlst
  78:D:/fchai/work/i-cube/I-CUBE-HUAWEI/Middlewares/Third_Party/Huawei/iot_link/driver\driver.c ****     struct driv_cb                 *drivlst;   //all the dev will be added to the list
  79:D:/fchai/work/i-cube/I-CUBE-HUAWEI/Middlewares/Third_Party/Huawei/iot_link/driver\driver.c ****     unsigned int                    drivnum;
  80:D:/fchai/work/i-cube/I-CUBE-HUAWEI/Middlewares/Third_Party/Huawei/iot_link/driver\driver.c **** }los_driv_module;
  81:D:/fchai/work/i-cube/I-CUBE-HUAWEI/Middlewares/Third_Party/Huawei/iot_link/driver\driver.c **** static  los_driv_module   s_los_driv_module ;  //manage all the driver here
  82:D:/fchai/work/i-cube/I-CUBE-HUAWEI/Middlewares/Third_Party/Huawei/iot_link/driver\driver.c **** 
  83:D:/fchai/work/i-cube/I-CUBE-HUAWEI/Middlewares/Third_Party/Huawei/iot_link/driver\driver.c **** //used this function to find a dev
  84:D:/fchai/work/i-cube/I-CUBE-HUAWEI/Middlewares/Third_Party/Huawei/iot_link/driver\driver.c **** static struct driv_cb *__driv_match(const char *name)
  85:D:/fchai/work/i-cube/I-CUBE-HUAWEI/Middlewares/Third_Party/Huawei/iot_link/driver\driver.c **** {
  30              		.loc 1 85 1 view -0
ARM GAS  T:\msys\tmp\cc56R3EJ.s 			page 3


  31              		.cfi_startproc
  32              		@ args = 0, pretend = 0, frame = 0
  33              		@ frame_needed = 0, uses_anonymous_args = 0
  86:D:/fchai/work/i-cube/I-CUBE-HUAWEI/Middlewares/Third_Party/Huawei/iot_link/driver\driver.c ****     struct driv_cb *ret = NULL;
  34              		.loc 1 86 5 view .LVU1
  87:D:/fchai/work/i-cube/I-CUBE-HUAWEI/Middlewares/Third_Party/Huawei/iot_link/driver\driver.c **** 
  88:D:/fchai/work/i-cube/I-CUBE-HUAWEI/Middlewares/Third_Party/Huawei/iot_link/driver\driver.c ****     ret = s_los_driv_module.drivlst;
  35              		.loc 1 88 5 view .LVU2
  85:D:/fchai/work/i-cube/I-CUBE-HUAWEI/Middlewares/Third_Party/Huawei/iot_link/driver\driver.c ****     struct driv_cb *ret = NULL;
  36              		.loc 1 85 1 is_stmt 0 view .LVU3
  37 0000 38B5     		push	{r3, r4, r5, lr}
  38              	.LCFI0:
  39              		.cfi_def_cfa_offset 16
  40              		.cfi_offset 3, -16
  41              		.cfi_offset 4, -12
  42              		.cfi_offset 5, -8
  43              		.cfi_offset 14, -4
  44              		.loc 1 88 9 view .LVU4
  45 0002 074B     		ldr	r3, .L14
  46 0004 5C68     		ldr	r4, [r3, #4]
  47              	.LVL1:
  89:D:/fchai/work/i-cube/I-CUBE-HUAWEI/Middlewares/Third_Party/Huawei/iot_link/driver\driver.c ****     while(NULL != ret)
  48              		.loc 1 89 5 is_stmt 1 view .LVU5
  49              		.loc 1 89 10 view .LVU6
  50 0006 4CB1     		cbz	r4, .L1
  51 0008 0546     		mov	r5, r0
  52 000a 01E0     		b	.L3
  53              	.LVL2:
  54              	.L13:
  90:D:/fchai/work/i-cube/I-CUBE-HUAWEI/Middlewares/Third_Party/Huawei/iot_link/driver\driver.c ****     {
  91:D:/fchai/work/i-cube/I-CUBE-HUAWEI/Middlewares/Third_Party/Huawei/iot_link/driver\driver.c ****         if(0 == strcmp(name,ret->name))
  92:D:/fchai/work/i-cube/I-CUBE-HUAWEI/Middlewares/Third_Party/Huawei/iot_link/driver\driver.c ****         {
  93:D:/fchai/work/i-cube/I-CUBE-HUAWEI/Middlewares/Third_Party/Huawei/iot_link/driver\driver.c ****             break;
  94:D:/fchai/work/i-cube/I-CUBE-HUAWEI/Middlewares/Third_Party/Huawei/iot_link/driver\driver.c ****         }
  95:D:/fchai/work/i-cube/I-CUBE-HUAWEI/Middlewares/Third_Party/Huawei/iot_link/driver\driver.c ****         ret = ret->nxt;
  55              		.loc 1 95 13 is_stmt 0 view .LVU7
  56 000c 2468     		ldr	r4, [r4]
  57              	.LVL3:
  89:D:/fchai/work/i-cube/I-CUBE-HUAWEI/Middlewares/Third_Party/Huawei/iot_link/driver\driver.c ****     while(NULL != ret)
  58              		.loc 1 89 10 is_stmt 1 view .LVU8
  59 000e 2CB1     		cbz	r4, .L1
  60              	.L3:
  91:D:/fchai/work/i-cube/I-CUBE-HUAWEI/Middlewares/Third_Party/Huawei/iot_link/driver\driver.c ****         {
  61              		.loc 1 91 9 view .LVU9
  91:D:/fchai/work/i-cube/I-CUBE-HUAWEI/Middlewares/Third_Party/Huawei/iot_link/driver\driver.c ****         {
  62              		.loc 1 91 17 is_stmt 0 view .LVU10
  63 0010 A168     		ldr	r1, [r4, #8]
  64 0012 2846     		mov	r0, r5
  65 0014 FFF7FEFF 		bl	strcmp
  66              	.LVL4:
  67              		.loc 1 95 9 is_stmt 1 view .LVU11
  91:D:/fchai/work/i-cube/I-CUBE-HUAWEI/Middlewares/Third_Party/Huawei/iot_link/driver\driver.c ****         {
  68              		.loc 1 91 11 is_stmt 0 view .LVU12
  69 0018 0028     		cmp	r0, #0
  70 001a F7D1     		bne	.L13
  71              	.LVL5:
  72              	.L1:
ARM GAS  T:\msys\tmp\cc56R3EJ.s 			page 4


  96:D:/fchai/work/i-cube/I-CUBE-HUAWEI/Middlewares/Third_Party/Huawei/iot_link/driver\driver.c ****     }
  97:D:/fchai/work/i-cube/I-CUBE-HUAWEI/Middlewares/Third_Party/Huawei/iot_link/driver\driver.c **** 
  98:D:/fchai/work/i-cube/I-CUBE-HUAWEI/Middlewares/Third_Party/Huawei/iot_link/driver\driver.c ****     return ret;
  99:D:/fchai/work/i-cube/I-CUBE-HUAWEI/Middlewares/Third_Party/Huawei/iot_link/driver\driver.c **** }
  73              		.loc 1 99 1 view .LVU13
  74 001c 2046     		mov	r0, r4
  75 001e 38BD     		pop	{r3, r4, r5, pc}
  76              	.LVL6:
  77              	.L15:
  78              		.loc 1 99 1 view .LVU14
  79              		.align	2
  80              	.L14:
  81 0020 00000000 		.word	.LANCHOR0
  82              		.cfi_endproc
  83              	.LFE3:
  85              		.section	.rodata.__driv_show_shell.str1.4,"aMS",%progbits,1
  86              		.align	2
  87              	.LC0:
  88 0000 5B25735D 		.ascii	"[%s][%u][%s] %s:total %d drivers\012\015\015\012\000"
  88      5B25755D 
  88      5B25735D 
  88      2025733A 
  88      746F7461 
  89 0025 000000   		.align	2
  90              	.LC1:
  91 0028 5B25735D 		.ascii	"[%s][%u][%s] %-16s %-8s %-8s %-8s %-8s %-8s %-8s\015"
  91      5B25755D 
  91      5B25735D 
  91      20252D31 
  91      36732025 
  92 0059 0A0D0A00 		.ascii	"\012\015\012\000"
  93 005d 000000   		.align	2
  94              	.LC2:
  95 0060 6572726E 		.ascii	"errno\000"
  95      6F00
  96 0066 0000     		.align	2
  97              	.LC3:
  98 0068 6F70656E 		.ascii	"open\000"
  98      00
  99 006d 000000   		.align	2
 100              	.LC4:
 101 0070 72656164 		.ascii	"readbyte\000"
 101      62797465 
 101      00
 102 0079 000000   		.align	2
 103              	.LC5:
 104 007c 77726974 		.ascii	"writbyte\000"
 104      62797465 
 104      00
 105 0085 000000   		.align	2
 106              	.LC6:
 107 0088 73746174 		.ascii	"status\000"
 107      757300
 108 008f 00       		.align	2
 109              	.LC7:
 110 0090 666C6167 		.ascii	"flagmask\000"
 110      6D61736B 
ARM GAS  T:\msys\tmp\cc56R3EJ.s 			page 5


 110      00
 111 0099 000000   		.align	2
 112              	.LC8:
 113 009c 64726976 		.ascii	"drivername\000"
 113      65726E61 
 113      6D6500
 114 00a7 00       		.align	2
 115              	.LC9:
 116 00a8 5B25735D 		.ascii	"[%s][%u][%s] %-16s %08x %08x %08x %08x %08x %08x\015"
 116      5B25755D 
 116      5B25735D 
 116      20252D31 
 116      36732025 
 117 00d9 0A0D0A00 		.ascii	"\012\015\012\000"
 118              		.section	.text.__driv_show_shell,"ax",%progbits
 119              		.align	1
 120              		.p2align 2,,3
 121              		.syntax unified
 122              		.thumb
 123              		.thumb_func
 124              		.fpu fpv4-sp-d16
 126              	__driv_show_shell:
 127              	.LVL7:
 128              	.LFB15:
 100:D:/fchai/work/i-cube/I-CUBE-HUAWEI/Middlewares/Third_Party/Huawei/iot_link/driver\driver.c **** 
 101:D:/fchai/work/i-cube/I-CUBE-HUAWEI/Middlewares/Third_Party/Huawei/iot_link/driver\driver.c **** /*******************************************************************************
 102:D:/fchai/work/i-cube/I-CUBE-HUAWEI/Middlewares/Third_Party/Huawei/iot_link/driver\driver.c **** function     :bsp developer use this function to add a device to the system
 103:D:/fchai/work/i-cube/I-CUBE-HUAWEI/Middlewares/Third_Party/Huawei/iot_link/driver\driver.c **** parameters   :
 104:D:/fchai/work/i-cube/I-CUBE-HUAWEI/Middlewares/Third_Party/Huawei/iot_link/driver\driver.c **** instruction  :NULL if failed else return the device handle
 105:D:/fchai/work/i-cube/I-CUBE-HUAWEI/Middlewares/Third_Party/Huawei/iot_link/driver\driver.c **** *******************************************************************************/
 106:D:/fchai/work/i-cube/I-CUBE-HUAWEI/Middlewares/Third_Party/Huawei/iot_link/driver\driver.c **** 
 107:D:/fchai/work/i-cube/I-CUBE-HUAWEI/Middlewares/Third_Party/Huawei/iot_link/driver\driver.c **** los_driv_t los_driv_register(os_driv_para_t *para)
 108:D:/fchai/work/i-cube/I-CUBE-HUAWEI/Middlewares/Third_Party/Huawei/iot_link/driver\driver.c **** {
 109:D:/fchai/work/i-cube/I-CUBE-HUAWEI/Middlewares/Third_Party/Huawei/iot_link/driver\driver.c ****     struct driv_cb  *driv = NULL;
 110:D:/fchai/work/i-cube/I-CUBE-HUAWEI/Middlewares/Third_Party/Huawei/iot_link/driver\driver.c **** 
 111:D:/fchai/work/i-cube/I-CUBE-HUAWEI/Middlewares/Third_Party/Huawei/iot_link/driver\driver.c ****     if((NULL == para->name)||(NULL == para->op))
 112:D:/fchai/work/i-cube/I-CUBE-HUAWEI/Middlewares/Third_Party/Huawei/iot_link/driver\driver.c ****     {
 113:D:/fchai/work/i-cube/I-CUBE-HUAWEI/Middlewares/Third_Party/Huawei/iot_link/driver\driver.c ****         goto EXIT_PARAS;
 114:D:/fchai/work/i-cube/I-CUBE-HUAWEI/Middlewares/Third_Party/Huawei/iot_link/driver\driver.c ****     }
 115:D:/fchai/work/i-cube/I-CUBE-HUAWEI/Middlewares/Third_Party/Huawei/iot_link/driver\driver.c **** 
 116:D:/fchai/work/i-cube/I-CUBE-HUAWEI/Middlewares/Third_Party/Huawei/iot_link/driver\driver.c ****     driv = osal_malloc(sizeof(struct driv_cb));
 117:D:/fchai/work/i-cube/I-CUBE-HUAWEI/Middlewares/Third_Party/Huawei/iot_link/driver\driver.c ****     if(NULL == driv)
 118:D:/fchai/work/i-cube/I-CUBE-HUAWEI/Middlewares/Third_Party/Huawei/iot_link/driver\driver.c ****     {
 119:D:/fchai/work/i-cube/I-CUBE-HUAWEI/Middlewares/Third_Party/Huawei/iot_link/driver\driver.c ****         goto EXIT_MALLOC;
 120:D:/fchai/work/i-cube/I-CUBE-HUAWEI/Middlewares/Third_Party/Huawei/iot_link/driver\driver.c ****     }
 121:D:/fchai/work/i-cube/I-CUBE-HUAWEI/Middlewares/Third_Party/Huawei/iot_link/driver\driver.c ****     (void) memset(driv,0,sizeof(struct driv_cb));
 122:D:/fchai/work/i-cube/I-CUBE-HUAWEI/Middlewares/Third_Party/Huawei/iot_link/driver\driver.c **** 
 123:D:/fchai/work/i-cube/I-CUBE-HUAWEI/Middlewares/Third_Party/Huawei/iot_link/driver\driver.c ****     //do the member initialize
 124:D:/fchai/work/i-cube/I-CUBE-HUAWEI/Middlewares/Third_Party/Huawei/iot_link/driver\driver.c ****     driv->name = para->name;
 125:D:/fchai/work/i-cube/I-CUBE-HUAWEI/Middlewares/Third_Party/Huawei/iot_link/driver\driver.c ****     driv->op = para->op;
 126:D:/fchai/work/i-cube/I-CUBE-HUAWEI/Middlewares/Third_Party/Huawei/iot_link/driver\driver.c ****     driv->pri = para->pri;
 127:D:/fchai/work/i-cube/I-CUBE-HUAWEI/Middlewares/Third_Party/Huawei/iot_link/driver\driver.c ****     driv->flagmask = para->flag;
 128:D:/fchai/work/i-cube/I-CUBE-HUAWEI/Middlewares/Third_Party/Huawei/iot_link/driver\driver.c **** 
 129:D:/fchai/work/i-cube/I-CUBE-HUAWEI/Middlewares/Third_Party/Huawei/iot_link/driver\driver.c ****     //add it to the device list if no device with the same name exsit
 130:D:/fchai/work/i-cube/I-CUBE-HUAWEI/Middlewares/Third_Party/Huawei/iot_link/driver\driver.c ****     if(false == osal_mutex_lock(s_los_driv_module.lock))
 131:D:/fchai/work/i-cube/I-CUBE-HUAWEI/Middlewares/Third_Party/Huawei/iot_link/driver\driver.c ****     {
 132:D:/fchai/work/i-cube/I-CUBE-HUAWEI/Middlewares/Third_Party/Huawei/iot_link/driver\driver.c ****         goto EXIT_MUTEX;
ARM GAS  T:\msys\tmp\cc56R3EJ.s 			page 6


 133:D:/fchai/work/i-cube/I-CUBE-HUAWEI/Middlewares/Third_Party/Huawei/iot_link/driver\driver.c ****     }
 134:D:/fchai/work/i-cube/I-CUBE-HUAWEI/Middlewares/Third_Party/Huawei/iot_link/driver\driver.c **** 
 135:D:/fchai/work/i-cube/I-CUBE-HUAWEI/Middlewares/Third_Party/Huawei/iot_link/driver\driver.c ****     if(NULL != __driv_match(para->name))
 136:D:/fchai/work/i-cube/I-CUBE-HUAWEI/Middlewares/Third_Party/Huawei/iot_link/driver\driver.c ****     {
 137:D:/fchai/work/i-cube/I-CUBE-HUAWEI/Middlewares/Third_Party/Huawei/iot_link/driver\driver.c ****         goto EXIT_EXISTED;
 138:D:/fchai/work/i-cube/I-CUBE-HUAWEI/Middlewares/Third_Party/Huawei/iot_link/driver\driver.c ****     }
 139:D:/fchai/work/i-cube/I-CUBE-HUAWEI/Middlewares/Third_Party/Huawei/iot_link/driver\driver.c **** 
 140:D:/fchai/work/i-cube/I-CUBE-HUAWEI/Middlewares/Third_Party/Huawei/iot_link/driver\driver.c ****     driv->nxt = s_los_driv_module.drivlst;
 141:D:/fchai/work/i-cube/I-CUBE-HUAWEI/Middlewares/Third_Party/Huawei/iot_link/driver\driver.c ****     s_los_driv_module.drivlst = driv;
 142:D:/fchai/work/i-cube/I-CUBE-HUAWEI/Middlewares/Third_Party/Huawei/iot_link/driver\driver.c ****     (void) osal_mutex_unlock(s_los_driv_module.lock);
 143:D:/fchai/work/i-cube/I-CUBE-HUAWEI/Middlewares/Third_Party/Huawei/iot_link/driver\driver.c **** 
 144:D:/fchai/work/i-cube/I-CUBE-HUAWEI/Middlewares/Third_Party/Huawei/iot_link/driver\driver.c ****     s_los_driv_module.drivnum++;
 145:D:/fchai/work/i-cube/I-CUBE-HUAWEI/Middlewares/Third_Party/Huawei/iot_link/driver\driver.c **** 
 146:D:/fchai/work/i-cube/I-CUBE-HUAWEI/Middlewares/Third_Party/Huawei/iot_link/driver\driver.c ****     return driv;
 147:D:/fchai/work/i-cube/I-CUBE-HUAWEI/Middlewares/Third_Party/Huawei/iot_link/driver\driver.c **** 
 148:D:/fchai/work/i-cube/I-CUBE-HUAWEI/Middlewares/Third_Party/Huawei/iot_link/driver\driver.c **** 
 149:D:/fchai/work/i-cube/I-CUBE-HUAWEI/Middlewares/Third_Party/Huawei/iot_link/driver\driver.c **** EXIT_EXISTED:
 150:D:/fchai/work/i-cube/I-CUBE-HUAWEI/Middlewares/Third_Party/Huawei/iot_link/driver\driver.c ****     (void) osal_mutex_unlock(s_los_driv_module.lock);
 151:D:/fchai/work/i-cube/I-CUBE-HUAWEI/Middlewares/Third_Party/Huawei/iot_link/driver\driver.c **** EXIT_MUTEX:
 152:D:/fchai/work/i-cube/I-CUBE-HUAWEI/Middlewares/Third_Party/Huawei/iot_link/driver\driver.c ****     osal_free(driv);
 153:D:/fchai/work/i-cube/I-CUBE-HUAWEI/Middlewares/Third_Party/Huawei/iot_link/driver\driver.c ****     driv = NULL;
 154:D:/fchai/work/i-cube/I-CUBE-HUAWEI/Middlewares/Third_Party/Huawei/iot_link/driver\driver.c **** EXIT_MALLOC:
 155:D:/fchai/work/i-cube/I-CUBE-HUAWEI/Middlewares/Third_Party/Huawei/iot_link/driver\driver.c **** EXIT_PARAS:
 156:D:/fchai/work/i-cube/I-CUBE-HUAWEI/Middlewares/Third_Party/Huawei/iot_link/driver\driver.c ****     return driv;
 157:D:/fchai/work/i-cube/I-CUBE-HUAWEI/Middlewares/Third_Party/Huawei/iot_link/driver\driver.c **** }
 158:D:/fchai/work/i-cube/I-CUBE-HUAWEI/Middlewares/Third_Party/Huawei/iot_link/driver\driver.c **** 
 159:D:/fchai/work/i-cube/I-CUBE-HUAWEI/Middlewares/Third_Party/Huawei/iot_link/driver\driver.c **** /*******************************************************************************
 160:D:/fchai/work/i-cube/I-CUBE-HUAWEI/Middlewares/Third_Party/Huawei/iot_link/driver\driver.c **** function     :bsp developer use this function to remove a device from the system
 161:D:/fchai/work/i-cube/I-CUBE-HUAWEI/Middlewares/Third_Party/Huawei/iot_link/driver\driver.c **** parameters   :
 162:D:/fchai/work/i-cube/I-CUBE-HUAWEI/Middlewares/Third_Party/Huawei/iot_link/driver\driver.c **** instruction  :if the device has been refered,then will fail here
 163:D:/fchai/work/i-cube/I-CUBE-HUAWEI/Middlewares/Third_Party/Huawei/iot_link/driver\driver.c **** *******************************************************************************/
 164:D:/fchai/work/i-cube/I-CUBE-HUAWEI/Middlewares/Third_Party/Huawei/iot_link/driver\driver.c **** bool_t los_driv_unregister(const char *name)
 165:D:/fchai/work/i-cube/I-CUBE-HUAWEI/Middlewares/Third_Party/Huawei/iot_link/driver\driver.c **** {
 166:D:/fchai/work/i-cube/I-CUBE-HUAWEI/Middlewares/Third_Party/Huawei/iot_link/driver\driver.c ****     struct driv_cb *tmp = NULL;
 167:D:/fchai/work/i-cube/I-CUBE-HUAWEI/Middlewares/Third_Party/Huawei/iot_link/driver\driver.c ****     struct driv_cb *pre = NULL;
 168:D:/fchai/work/i-cube/I-CUBE-HUAWEI/Middlewares/Third_Party/Huawei/iot_link/driver\driver.c ****     bool_t         ret = false;
 169:D:/fchai/work/i-cube/I-CUBE-HUAWEI/Middlewares/Third_Party/Huawei/iot_link/driver\driver.c ****     if(NULL == name)
 170:D:/fchai/work/i-cube/I-CUBE-HUAWEI/Middlewares/Third_Party/Huawei/iot_link/driver\driver.c ****     {
 171:D:/fchai/work/i-cube/I-CUBE-HUAWEI/Middlewares/Third_Party/Huawei/iot_link/driver\driver.c ****         return ret;
 172:D:/fchai/work/i-cube/I-CUBE-HUAWEI/Middlewares/Third_Party/Huawei/iot_link/driver\driver.c ****     }
 173:D:/fchai/work/i-cube/I-CUBE-HUAWEI/Middlewares/Third_Party/Huawei/iot_link/driver\driver.c **** 
 174:D:/fchai/work/i-cube/I-CUBE-HUAWEI/Middlewares/Third_Party/Huawei/iot_link/driver\driver.c ****     if(osal_mutex_lock(s_los_driv_module.lock))
 175:D:/fchai/work/i-cube/I-CUBE-HUAWEI/Middlewares/Third_Party/Huawei/iot_link/driver\driver.c ****     {
 176:D:/fchai/work/i-cube/I-CUBE-HUAWEI/Middlewares/Third_Party/Huawei/iot_link/driver\driver.c ****         tmp = s_los_driv_module.drivlst;
 177:D:/fchai/work/i-cube/I-CUBE-HUAWEI/Middlewares/Third_Party/Huawei/iot_link/driver\driver.c ****         pre = NULL;
 178:D:/fchai/work/i-cube/I-CUBE-HUAWEI/Middlewares/Third_Party/Huawei/iot_link/driver\driver.c ****         while(NULL != tmp)
 179:D:/fchai/work/i-cube/I-CUBE-HUAWEI/Middlewares/Third_Party/Huawei/iot_link/driver\driver.c ****         {
 180:D:/fchai/work/i-cube/I-CUBE-HUAWEI/Middlewares/Third_Party/Huawei/iot_link/driver\driver.c ****             if( 0 == strcmp(name,tmp->name))
 181:D:/fchai/work/i-cube/I-CUBE-HUAWEI/Middlewares/Third_Party/Huawei/iot_link/driver\driver.c ****             {
 182:D:/fchai/work/i-cube/I-CUBE-HUAWEI/Middlewares/Third_Party/Huawei/iot_link/driver\driver.c ****                 break;
 183:D:/fchai/work/i-cube/I-CUBE-HUAWEI/Middlewares/Third_Party/Huawei/iot_link/driver\driver.c ****             }
 184:D:/fchai/work/i-cube/I-CUBE-HUAWEI/Middlewares/Third_Party/Huawei/iot_link/driver\driver.c ****             pre = tmp;
 185:D:/fchai/work/i-cube/I-CUBE-HUAWEI/Middlewares/Third_Party/Huawei/iot_link/driver\driver.c ****             tmp = tmp->nxt;
 186:D:/fchai/work/i-cube/I-CUBE-HUAWEI/Middlewares/Third_Party/Huawei/iot_link/driver\driver.c ****         }
 187:D:/fchai/work/i-cube/I-CUBE-HUAWEI/Middlewares/Third_Party/Huawei/iot_link/driver\driver.c ****         if(NULL != tmp)  //find the device here
 188:D:/fchai/work/i-cube/I-CUBE-HUAWEI/Middlewares/Third_Party/Huawei/iot_link/driver\driver.c ****         {
 189:D:/fchai/work/i-cube/I-CUBE-HUAWEI/Middlewares/Third_Party/Huawei/iot_link/driver\driver.c ****             if(pre == NULL)
ARM GAS  T:\msys\tmp\cc56R3EJ.s 			page 7


 190:D:/fchai/work/i-cube/I-CUBE-HUAWEI/Middlewares/Third_Party/Huawei/iot_link/driver\driver.c ****             {
 191:D:/fchai/work/i-cube/I-CUBE-HUAWEI/Middlewares/Third_Party/Huawei/iot_link/driver\driver.c ****                 s_los_driv_module.drivlst = tmp->nxt;
 192:D:/fchai/work/i-cube/I-CUBE-HUAWEI/Middlewares/Third_Party/Huawei/iot_link/driver\driver.c ****             }
 193:D:/fchai/work/i-cube/I-CUBE-HUAWEI/Middlewares/Third_Party/Huawei/iot_link/driver\driver.c ****             else
 194:D:/fchai/work/i-cube/I-CUBE-HUAWEI/Middlewares/Third_Party/Huawei/iot_link/driver\driver.c ****             {
 195:D:/fchai/work/i-cube/I-CUBE-HUAWEI/Middlewares/Third_Party/Huawei/iot_link/driver\driver.c ****                 pre->nxt = tmp->nxt;
 196:D:/fchai/work/i-cube/I-CUBE-HUAWEI/Middlewares/Third_Party/Huawei/iot_link/driver\driver.c ****             }
 197:D:/fchai/work/i-cube/I-CUBE-HUAWEI/Middlewares/Third_Party/Huawei/iot_link/driver\driver.c **** 
 198:D:/fchai/work/i-cube/I-CUBE-HUAWEI/Middlewares/Third_Party/Huawei/iot_link/driver\driver.c ****             osal_free(tmp);
 199:D:/fchai/work/i-cube/I-CUBE-HUAWEI/Middlewares/Third_Party/Huawei/iot_link/driver\driver.c ****             ret = true;
 200:D:/fchai/work/i-cube/I-CUBE-HUAWEI/Middlewares/Third_Party/Huawei/iot_link/driver\driver.c **** 
 201:D:/fchai/work/i-cube/I-CUBE-HUAWEI/Middlewares/Third_Party/Huawei/iot_link/driver\driver.c ****             s_los_driv_module.drivnum--;
 202:D:/fchai/work/i-cube/I-CUBE-HUAWEI/Middlewares/Third_Party/Huawei/iot_link/driver\driver.c ****         }
 203:D:/fchai/work/i-cube/I-CUBE-HUAWEI/Middlewares/Third_Party/Huawei/iot_link/driver\driver.c **** 
 204:D:/fchai/work/i-cube/I-CUBE-HUAWEI/Middlewares/Third_Party/Huawei/iot_link/driver\driver.c ****         (void) osal_mutex_unlock(s_los_driv_module.lock);
 205:D:/fchai/work/i-cube/I-CUBE-HUAWEI/Middlewares/Third_Party/Huawei/iot_link/driver\driver.c ****     }
 206:D:/fchai/work/i-cube/I-CUBE-HUAWEI/Middlewares/Third_Party/Huawei/iot_link/driver\driver.c **** 
 207:D:/fchai/work/i-cube/I-CUBE-HUAWEI/Middlewares/Third_Party/Huawei/iot_link/driver\driver.c ****     return ret;
 208:D:/fchai/work/i-cube/I-CUBE-HUAWEI/Middlewares/Third_Party/Huawei/iot_link/driver\driver.c **** }
 209:D:/fchai/work/i-cube/I-CUBE-HUAWEI/Middlewares/Third_Party/Huawei/iot_link/driver\driver.c **** 
 210:D:/fchai/work/i-cube/I-CUBE-HUAWEI/Middlewares/Third_Party/Huawei/iot_link/driver\driver.c **** /*******************************************************************************
 211:D:/fchai/work/i-cube/I-CUBE-HUAWEI/Middlewares/Third_Party/Huawei/iot_link/driver\driver.c **** function     :bsp developer use this function to notify the application any event has happened
 212:D:/fchai/work/i-cube/I-CUBE-HUAWEI/Middlewares/Third_Party/Huawei/iot_link/driver\driver.c **** parameters   :
 213:D:/fchai/work/i-cube/I-CUBE-HUAWEI/Middlewares/Third_Party/Huawei/iot_link/driver\driver.c **** instruction  :not implement yet,we will do it as the asynchronize call
 214:D:/fchai/work/i-cube/I-CUBE-HUAWEI/Middlewares/Third_Party/Huawei/iot_link/driver\driver.c **** *******************************************************************************/
 215:D:/fchai/work/i-cube/I-CUBE-HUAWEI/Middlewares/Third_Party/Huawei/iot_link/driver\driver.c **** bool_t los_driv_event(los_driv_t driv,unsigned int event,void *para)
 216:D:/fchai/work/i-cube/I-CUBE-HUAWEI/Middlewares/Third_Party/Huawei/iot_link/driver\driver.c **** {
 217:D:/fchai/work/i-cube/I-CUBE-HUAWEI/Middlewares/Third_Party/Huawei/iot_link/driver\driver.c ****     return false;
 218:D:/fchai/work/i-cube/I-CUBE-HUAWEI/Middlewares/Third_Party/Huawei/iot_link/driver\driver.c **** }
 219:D:/fchai/work/i-cube/I-CUBE-HUAWEI/Middlewares/Third_Party/Huawei/iot_link/driver\driver.c **** 
 220:D:/fchai/work/i-cube/I-CUBE-HUAWEI/Middlewares/Third_Party/Huawei/iot_link/driver\driver.c **** 
 221:D:/fchai/work/i-cube/I-CUBE-HUAWEI/Middlewares/Third_Party/Huawei/iot_link/driver\driver.c **** #ifdef __CC_ARM /* ARM C Compiler ,like keil,options for linker:--keep *.o(osdriv)*/
 222:D:/fchai/work/i-cube/I-CUBE-HUAWEI/Middlewares/Third_Party/Huawei/iot_link/driver\driver.c ****     extern unsigned int osdriv$$Base;
 223:D:/fchai/work/i-cube/I-CUBE-HUAWEI/Middlewares/Third_Party/Huawei/iot_link/driver\driver.c ****     extern unsigned int osdriv$$Limit;
 224:D:/fchai/work/i-cube/I-CUBE-HUAWEI/Middlewares/Third_Party/Huawei/iot_link/driver\driver.c **** 
 225:D:/fchai/work/i-cube/I-CUBE-HUAWEI/Middlewares/Third_Party/Huawei/iot_link/driver\driver.c **** #elif defined(__GNUC__)
 226:D:/fchai/work/i-cube/I-CUBE-HUAWEI/Middlewares/Third_Party/Huawei/iot_link/driver\driver.c ****     extern unsigned int __osdriv_start;
 227:D:/fchai/work/i-cube/I-CUBE-HUAWEI/Middlewares/Third_Party/Huawei/iot_link/driver\driver.c ****     extern unsigned int __osdriv_end;
 228:D:/fchai/work/i-cube/I-CUBE-HUAWEI/Middlewares/Third_Party/Huawei/iot_link/driver\driver.c **** #else
 229:D:/fchai/work/i-cube/I-CUBE-HUAWEI/Middlewares/Third_Party/Huawei/iot_link/driver\driver.c ****     #error("unknown compiler here");
 230:D:/fchai/work/i-cube/I-CUBE-HUAWEI/Middlewares/Third_Party/Huawei/iot_link/driver\driver.c **** #endif
 231:D:/fchai/work/i-cube/I-CUBE-HUAWEI/Middlewares/Third_Party/Huawei/iot_link/driver\driver.c **** 
 232:D:/fchai/work/i-cube/I-CUBE-HUAWEI/Middlewares/Third_Party/Huawei/iot_link/driver\driver.c **** 
 233:D:/fchai/work/i-cube/I-CUBE-HUAWEI/Middlewares/Third_Party/Huawei/iot_link/driver\driver.c **** static void osdriv_load_static(void){
 234:D:/fchai/work/i-cube/I-CUBE-HUAWEI/Middlewares/Third_Party/Huawei/iot_link/driver\driver.c **** 
 235:D:/fchai/work/i-cube/I-CUBE-HUAWEI/Middlewares/Third_Party/Huawei/iot_link/driver\driver.c ****     os_driv_para_t *para;
 236:D:/fchai/work/i-cube/I-CUBE-HUAWEI/Middlewares/Third_Party/Huawei/iot_link/driver\driver.c ****     unsigned int num = 0;
 237:D:/fchai/work/i-cube/I-CUBE-HUAWEI/Middlewares/Third_Party/Huawei/iot_link/driver\driver.c ****     unsigned int i = 0;
 238:D:/fchai/work/i-cube/I-CUBE-HUAWEI/Middlewares/Third_Party/Huawei/iot_link/driver\driver.c **** #if defined (__CC_ARM)    //you could add other compiler like this
 239:D:/fchai/work/i-cube/I-CUBE-HUAWEI/Middlewares/Third_Party/Huawei/iot_link/driver\driver.c ****     num = ((unsigned int)&osdriv$$Limit-(unsigned int)&osdriv$$Base)/sizeof(os_driv_para_t);
 240:D:/fchai/work/i-cube/I-CUBE-HUAWEI/Middlewares/Third_Party/Huawei/iot_link/driver\driver.c ****     para = (os_driv_para_t *) &osdriv$$Base;
 241:D:/fchai/work/i-cube/I-CUBE-HUAWEI/Middlewares/Third_Party/Huawei/iot_link/driver\driver.c **** #elif defined(__GNUC__)
 242:D:/fchai/work/i-cube/I-CUBE-HUAWEI/Middlewares/Third_Party/Huawei/iot_link/driver\driver.c **** 
 243:D:/fchai/work/i-cube/I-CUBE-HUAWEI/Middlewares/Third_Party/Huawei/iot_link/driver\driver.c ****     para = (os_driv_para_t *)&__osdriv_start;
 244:D:/fchai/work/i-cube/I-CUBE-HUAWEI/Middlewares/Third_Party/Huawei/iot_link/driver\driver.c ****     num = ((unsigned int )(uintptr_t)&__osdriv_end - (unsigned int)(uintptr_t)&__osdriv_start)/size
 245:D:/fchai/work/i-cube/I-CUBE-HUAWEI/Middlewares/Third_Party/Huawei/iot_link/driver\driver.c **** #endif
 246:D:/fchai/work/i-cube/I-CUBE-HUAWEI/Middlewares/Third_Party/Huawei/iot_link/driver\driver.c ****     for(i =0;i<num;i++)
ARM GAS  T:\msys\tmp\cc56R3EJ.s 			page 8


 247:D:/fchai/work/i-cube/I-CUBE-HUAWEI/Middlewares/Third_Party/Huawei/iot_link/driver\driver.c ****     {
 248:D:/fchai/work/i-cube/I-CUBE-HUAWEI/Middlewares/Third_Party/Huawei/iot_link/driver\driver.c ****         (void) los_driv_register(para);
 249:D:/fchai/work/i-cube/I-CUBE-HUAWEI/Middlewares/Third_Party/Huawei/iot_link/driver\driver.c ****         para++;
 250:D:/fchai/work/i-cube/I-CUBE-HUAWEI/Middlewares/Third_Party/Huawei/iot_link/driver\driver.c ****     }
 251:D:/fchai/work/i-cube/I-CUBE-HUAWEI/Middlewares/Third_Party/Huawei/iot_link/driver\driver.c **** 
 252:D:/fchai/work/i-cube/I-CUBE-HUAWEI/Middlewares/Third_Party/Huawei/iot_link/driver\driver.c ****     return;
 253:D:/fchai/work/i-cube/I-CUBE-HUAWEI/Middlewares/Third_Party/Huawei/iot_link/driver\driver.c **** }
 254:D:/fchai/work/i-cube/I-CUBE-HUAWEI/Middlewares/Third_Party/Huawei/iot_link/driver\driver.c **** 
 255:D:/fchai/work/i-cube/I-CUBE-HUAWEI/Middlewares/Third_Party/Huawei/iot_link/driver\driver.c **** /*******************************************************************************
 256:D:/fchai/work/i-cube/I-CUBE-HUAWEI/Middlewares/Third_Party/Huawei/iot_link/driver\driver.c **** function     :the device module entry
 257:D:/fchai/work/i-cube/I-CUBE-HUAWEI/Middlewares/Third_Party/Huawei/iot_link/driver\driver.c **** parameters   :
 258:D:/fchai/work/i-cube/I-CUBE-HUAWEI/Middlewares/Third_Party/Huawei/iot_link/driver\driver.c **** instruction  :call this function to initialize the device module here
 259:D:/fchai/work/i-cube/I-CUBE-HUAWEI/Middlewares/Third_Party/Huawei/iot_link/driver\driver.c ****               load the static init from section os_device
 260:D:/fchai/work/i-cube/I-CUBE-HUAWEI/Middlewares/Third_Party/Huawei/iot_link/driver\driver.c **** *******************************************************************************/
 261:D:/fchai/work/i-cube/I-CUBE-HUAWEI/Middlewares/Third_Party/Huawei/iot_link/driver\driver.c **** bool_t  los_driv_init()
 262:D:/fchai/work/i-cube/I-CUBE-HUAWEI/Middlewares/Third_Party/Huawei/iot_link/driver\driver.c **** {
 263:D:/fchai/work/i-cube/I-CUBE-HUAWEI/Middlewares/Third_Party/Huawei/iot_link/driver\driver.c ****     bool_t ret = false;
 264:D:/fchai/work/i-cube/I-CUBE-HUAWEI/Middlewares/Third_Party/Huawei/iot_link/driver\driver.c **** 
 265:D:/fchai/work/i-cube/I-CUBE-HUAWEI/Middlewares/Third_Party/Huawei/iot_link/driver\driver.c ****     ret = osal_mutex_create(&s_los_driv_module.lock);
 266:D:/fchai/work/i-cube/I-CUBE-HUAWEI/Middlewares/Third_Party/Huawei/iot_link/driver\driver.c ****     if(false == ret)
 267:D:/fchai/work/i-cube/I-CUBE-HUAWEI/Middlewares/Third_Party/Huawei/iot_link/driver\driver.c ****     {
 268:D:/fchai/work/i-cube/I-CUBE-HUAWEI/Middlewares/Third_Party/Huawei/iot_link/driver\driver.c ****         goto EXIT_MUTEX;
 269:D:/fchai/work/i-cube/I-CUBE-HUAWEI/Middlewares/Third_Party/Huawei/iot_link/driver\driver.c ****     }
 270:D:/fchai/work/i-cube/I-CUBE-HUAWEI/Middlewares/Third_Party/Huawei/iot_link/driver\driver.c **** 
 271:D:/fchai/work/i-cube/I-CUBE-HUAWEI/Middlewares/Third_Party/Huawei/iot_link/driver\driver.c ****     //load all the static device init
 272:D:/fchai/work/i-cube/I-CUBE-HUAWEI/Middlewares/Third_Party/Huawei/iot_link/driver\driver.c ****     osdriv_load_static();
 273:D:/fchai/work/i-cube/I-CUBE-HUAWEI/Middlewares/Third_Party/Huawei/iot_link/driver\driver.c **** 
 274:D:/fchai/work/i-cube/I-CUBE-HUAWEI/Middlewares/Third_Party/Huawei/iot_link/driver\driver.c **** EXIT_MUTEX:
 275:D:/fchai/work/i-cube/I-CUBE-HUAWEI/Middlewares/Third_Party/Huawei/iot_link/driver\driver.c ****     return ret;
 276:D:/fchai/work/i-cube/I-CUBE-HUAWEI/Middlewares/Third_Party/Huawei/iot_link/driver\driver.c **** }
 277:D:/fchai/work/i-cube/I-CUBE-HUAWEI/Middlewares/Third_Party/Huawei/iot_link/driver\driver.c **** 
 278:D:/fchai/work/i-cube/I-CUBE-HUAWEI/Middlewares/Third_Party/Huawei/iot_link/driver\driver.c **** //here we define the data structure which used by the driv application apis
 279:D:/fchai/work/i-cube/I-CUBE-HUAWEI/Middlewares/Third_Party/Huawei/iot_link/driver\driver.c **** struct dev_cb
 280:D:/fchai/work/i-cube/I-CUBE-HUAWEI/Middlewares/Third_Party/Huawei/iot_link/driver\driver.c **** {
 281:D:/fchai/work/i-cube/I-CUBE-HUAWEI/Middlewares/Third_Party/Huawei/iot_link/driver\driver.c ****     void *nxt;            //used by the open lst
 282:D:/fchai/work/i-cube/I-CUBE-HUAWEI/Middlewares/Third_Party/Huawei/iot_link/driver\driver.c ****     void *driv;           //which attached dri here
 283:D:/fchai/work/i-cube/I-CUBE-HUAWEI/Middlewares/Third_Party/Huawei/iot_link/driver\driver.c ****     int openflag;       //here means the open state here
 284:D:/fchai/work/i-cube/I-CUBE-HUAWEI/Middlewares/Third_Party/Huawei/iot_link/driver\driver.c ****     unsigned int offset;
 285:D:/fchai/work/i-cube/I-CUBE-HUAWEI/Middlewares/Third_Party/Huawei/iot_link/driver\driver.c ****     //the following for the debug
 286:D:/fchai/work/i-cube/I-CUBE-HUAWEI/Middlewares/Third_Party/Huawei/iot_link/driver\driver.c ****     unsigned int readbytes;
 287:D:/fchai/work/i-cube/I-CUBE-HUAWEI/Middlewares/Third_Party/Huawei/iot_link/driver\driver.c ****     unsigned int writebytes;
 288:D:/fchai/work/i-cube/I-CUBE-HUAWEI/Middlewares/Third_Party/Huawei/iot_link/driver\driver.c **** };
 289:D:/fchai/work/i-cube/I-CUBE-HUAWEI/Middlewares/Third_Party/Huawei/iot_link/driver\driver.c **** 
 290:D:/fchai/work/i-cube/I-CUBE-HUAWEI/Middlewares/Third_Party/Huawei/iot_link/driver\driver.c **** /*******************************************************************************
 291:D:/fchai/work/i-cube/I-CUBE-HUAWEI/Middlewares/Third_Party/Huawei/iot_link/driver\driver.c **** function     :open the device with the specified name
 292:D:/fchai/work/i-cube/I-CUBE-HUAWEI/Middlewares/Third_Party/Huawei/iot_link/driver\driver.c **** parameters   :
 293:D:/fchai/work/i-cube/I-CUBE-HUAWEI/Middlewares/Third_Party/Huawei/iot_link/driver\driver.c **** instruction  :if first open the device,then will call the init function if exsited
 294:D:/fchai/work/i-cube/I-CUBE-HUAWEI/Middlewares/Third_Party/Huawei/iot_link/driver\driver.c **** *******************************************************************************/
 295:D:/fchai/work/i-cube/I-CUBE-HUAWEI/Middlewares/Third_Party/Huawei/iot_link/driver\driver.c **** los_dev_t  los_dev_open  (const char *name,unsigned int flag)
 296:D:/fchai/work/i-cube/I-CUBE-HUAWEI/Middlewares/Third_Party/Huawei/iot_link/driver\driver.c **** {
 297:D:/fchai/work/i-cube/I-CUBE-HUAWEI/Middlewares/Third_Party/Huawei/iot_link/driver\driver.c ****     bool_t opret = true;           //operate result
 298:D:/fchai/work/i-cube/I-CUBE-HUAWEI/Middlewares/Third_Party/Huawei/iot_link/driver\driver.c ****     struct driv_cb *driv = NULL;   //the driver attached
 299:D:/fchai/work/i-cube/I-CUBE-HUAWEI/Middlewares/Third_Party/Huawei/iot_link/driver\driver.c ****     struct dev_cb  *dev = NULL;    //the device opened
 300:D:/fchai/work/i-cube/I-CUBE-HUAWEI/Middlewares/Third_Party/Huawei/iot_link/driver\driver.c ****     if ( NULL == name )
 301:D:/fchai/work/i-cube/I-CUBE-HUAWEI/Middlewares/Third_Party/Huawei/iot_link/driver\driver.c ****     {
 302:D:/fchai/work/i-cube/I-CUBE-HUAWEI/Middlewares/Third_Party/Huawei/iot_link/driver\driver.c ****         goto EXIT_PARAERR;
 303:D:/fchai/work/i-cube/I-CUBE-HUAWEI/Middlewares/Third_Party/Huawei/iot_link/driver\driver.c ****     }
ARM GAS  T:\msys\tmp\cc56R3EJ.s 			page 9


 304:D:/fchai/work/i-cube/I-CUBE-HUAWEI/Middlewares/Third_Party/Huawei/iot_link/driver\driver.c **** 
 305:D:/fchai/work/i-cube/I-CUBE-HUAWEI/Middlewares/Third_Party/Huawei/iot_link/driver\driver.c ****     dev = osal_malloc(sizeof(struct dev_cb));
 306:D:/fchai/work/i-cube/I-CUBE-HUAWEI/Middlewares/Third_Party/Huawei/iot_link/driver\driver.c ****     if (NULL == dev)
 307:D:/fchai/work/i-cube/I-CUBE-HUAWEI/Middlewares/Third_Party/Huawei/iot_link/driver\driver.c ****     {
 308:D:/fchai/work/i-cube/I-CUBE-HUAWEI/Middlewares/Third_Party/Huawei/iot_link/driver\driver.c ****         goto EXIT_MEMERR;
 309:D:/fchai/work/i-cube/I-CUBE-HUAWEI/Middlewares/Third_Party/Huawei/iot_link/driver\driver.c ****     }
 310:D:/fchai/work/i-cube/I-CUBE-HUAWEI/Middlewares/Third_Party/Huawei/iot_link/driver\driver.c ****     (void) memset(dev,0,sizeof(struct dev_cb));
 311:D:/fchai/work/i-cube/I-CUBE-HUAWEI/Middlewares/Third_Party/Huawei/iot_link/driver\driver.c **** 
 312:D:/fchai/work/i-cube/I-CUBE-HUAWEI/Middlewares/Third_Party/Huawei/iot_link/driver\driver.c ****     opret = osal_mutex_lock(s_los_driv_module.lock);
 313:D:/fchai/work/i-cube/I-CUBE-HUAWEI/Middlewares/Third_Party/Huawei/iot_link/driver\driver.c ****     if(false == opret)
 314:D:/fchai/work/i-cube/I-CUBE-HUAWEI/Middlewares/Third_Party/Huawei/iot_link/driver\driver.c ****     {
 315:D:/fchai/work/i-cube/I-CUBE-HUAWEI/Middlewares/Third_Party/Huawei/iot_link/driver\driver.c ****         goto EXIT_MUTEXERR;
 316:D:/fchai/work/i-cube/I-CUBE-HUAWEI/Middlewares/Third_Party/Huawei/iot_link/driver\driver.c ****     }
 317:D:/fchai/work/i-cube/I-CUBE-HUAWEI/Middlewares/Third_Party/Huawei/iot_link/driver\driver.c **** 
 318:D:/fchai/work/i-cube/I-CUBE-HUAWEI/Middlewares/Third_Party/Huawei/iot_link/driver\driver.c ****     driv = __driv_match(name);
 319:D:/fchai/work/i-cube/I-CUBE-HUAWEI/Middlewares/Third_Party/Huawei/iot_link/driver\driver.c ****     if(NULL == driv)
 320:D:/fchai/work/i-cube/I-CUBE-HUAWEI/Middlewares/Third_Party/Huawei/iot_link/driver\driver.c ****     {
 321:D:/fchai/work/i-cube/I-CUBE-HUAWEI/Middlewares/Third_Party/Huawei/iot_link/driver\driver.c ****         goto EXIT_DRIVERR;
 322:D:/fchai/work/i-cube/I-CUBE-HUAWEI/Middlewares/Third_Party/Huawei/iot_link/driver\driver.c ****     }
 323:D:/fchai/work/i-cube/I-CUBE-HUAWEI/Middlewares/Third_Party/Huawei/iot_link/driver\driver.c ****     //WE DON'T CARE TOO MUCH ABOUT THE RD AND WR FLAG,MAY BE TODO IT IN THE NEXT VERSION HERE
 324:D:/fchai/work/i-cube/I-CUBE-HUAWEI/Middlewares/Third_Party/Huawei/iot_link/driver\driver.c ****     if((O_EXCL & (unsigned int )driv->flagmask) && (NULL != driv->devlst))
 325:D:/fchai/work/i-cube/I-CUBE-HUAWEI/Middlewares/Third_Party/Huawei/iot_link/driver\driver.c ****     {
 326:D:/fchai/work/i-cube/I-CUBE-HUAWEI/Middlewares/Third_Party/Huawei/iot_link/driver\driver.c ****         goto EXIT_EXCLERR;
 327:D:/fchai/work/i-cube/I-CUBE-HUAWEI/Middlewares/Third_Party/Huawei/iot_link/driver\driver.c ****     }
 328:D:/fchai/work/i-cube/I-CUBE-HUAWEI/Middlewares/Third_Party/Huawei/iot_link/driver\driver.c **** 
 329:D:/fchai/work/i-cube/I-CUBE-HUAWEI/Middlewares/Third_Party/Huawei/iot_link/driver\driver.c ****     if((0 == (driv->drivstatus & cn_driv_status_initialized)) && \
 330:D:/fchai/work/i-cube/I-CUBE-HUAWEI/Middlewares/Third_Party/Huawei/iot_link/driver\driver.c ****         (NULL != driv->op->init))
 331:D:/fchai/work/i-cube/I-CUBE-HUAWEI/Middlewares/Third_Party/Huawei/iot_link/driver\driver.c ****     {
 332:D:/fchai/work/i-cube/I-CUBE-HUAWEI/Middlewares/Third_Party/Huawei/iot_link/driver\driver.c ****         opret = driv->op->init(driv->pri);
 333:D:/fchai/work/i-cube/I-CUBE-HUAWEI/Middlewares/Third_Party/Huawei/iot_link/driver\driver.c ****         if(false == opret)
 334:D:/fchai/work/i-cube/I-CUBE-HUAWEI/Middlewares/Third_Party/Huawei/iot_link/driver\driver.c ****         {
 335:D:/fchai/work/i-cube/I-CUBE-HUAWEI/Middlewares/Third_Party/Huawei/iot_link/driver\driver.c ****             driv->errno = en_dev_err_init;
 336:D:/fchai/work/i-cube/I-CUBE-HUAWEI/Middlewares/Third_Party/Huawei/iot_link/driver\driver.c ****             goto EXIT_INITERR;
 337:D:/fchai/work/i-cube/I-CUBE-HUAWEI/Middlewares/Third_Party/Huawei/iot_link/driver\driver.c ****         }
 338:D:/fchai/work/i-cube/I-CUBE-HUAWEI/Middlewares/Third_Party/Huawei/iot_link/driver\driver.c ****         driv->drivstatus |= cn_driv_status_initialized;
 339:D:/fchai/work/i-cube/I-CUBE-HUAWEI/Middlewares/Third_Party/Huawei/iot_link/driver\driver.c ****     }
 340:D:/fchai/work/i-cube/I-CUBE-HUAWEI/Middlewares/Third_Party/Huawei/iot_link/driver\driver.c **** 
 341:D:/fchai/work/i-cube/I-CUBE-HUAWEI/Middlewares/Third_Party/Huawei/iot_link/driver\driver.c ****     if(NULL != driv->op->open)
 342:D:/fchai/work/i-cube/I-CUBE-HUAWEI/Middlewares/Third_Party/Huawei/iot_link/driver\driver.c ****     {
 343:D:/fchai/work/i-cube/I-CUBE-HUAWEI/Middlewares/Third_Party/Huawei/iot_link/driver\driver.c ****         opret = driv->op->open(driv->pri,flag);
 344:D:/fchai/work/i-cube/I-CUBE-HUAWEI/Middlewares/Third_Party/Huawei/iot_link/driver\driver.c ****         if(false == opret)
 345:D:/fchai/work/i-cube/I-CUBE-HUAWEI/Middlewares/Third_Party/Huawei/iot_link/driver\driver.c ****         {
 346:D:/fchai/work/i-cube/I-CUBE-HUAWEI/Middlewares/Third_Party/Huawei/iot_link/driver\driver.c ****             driv->errno = en_dev_err_open;
 347:D:/fchai/work/i-cube/I-CUBE-HUAWEI/Middlewares/Third_Party/Huawei/iot_link/driver\driver.c ****             goto EXIT_OPENERR;
 348:D:/fchai/work/i-cube/I-CUBE-HUAWEI/Middlewares/Third_Party/Huawei/iot_link/driver\driver.c ****         }
 349:D:/fchai/work/i-cube/I-CUBE-HUAWEI/Middlewares/Third_Party/Huawei/iot_link/driver\driver.c ****     }
 350:D:/fchai/work/i-cube/I-CUBE-HUAWEI/Middlewares/Third_Party/Huawei/iot_link/driver\driver.c **** 
 351:D:/fchai/work/i-cube/I-CUBE-HUAWEI/Middlewares/Third_Party/Huawei/iot_link/driver\driver.c ****     //reach here means all the initialize is ok
 352:D:/fchai/work/i-cube/I-CUBE-HUAWEI/Middlewares/Third_Party/Huawei/iot_link/driver\driver.c ****     //add the dev to the list of the drive and  attach the driv to the device
 353:D:/fchai/work/i-cube/I-CUBE-HUAWEI/Middlewares/Third_Party/Huawei/iot_link/driver\driver.c ****     driv->opencounter++;
 354:D:/fchai/work/i-cube/I-CUBE-HUAWEI/Middlewares/Third_Party/Huawei/iot_link/driver\driver.c ****     dev->nxt = driv->devlst;
 355:D:/fchai/work/i-cube/I-CUBE-HUAWEI/Middlewares/Third_Party/Huawei/iot_link/driver\driver.c ****     driv->devlst = dev;
 356:D:/fchai/work/i-cube/I-CUBE-HUAWEI/Middlewares/Third_Party/Huawei/iot_link/driver\driver.c **** 
 357:D:/fchai/work/i-cube/I-CUBE-HUAWEI/Middlewares/Third_Party/Huawei/iot_link/driver\driver.c ****     dev->driv = driv;
 358:D:/fchai/work/i-cube/I-CUBE-HUAWEI/Middlewares/Third_Party/Huawei/iot_link/driver\driver.c ****     dev->openflag =  flag;
 359:D:/fchai/work/i-cube/I-CUBE-HUAWEI/Middlewares/Third_Party/Huawei/iot_link/driver\driver.c **** 
 360:D:/fchai/work/i-cube/I-CUBE-HUAWEI/Middlewares/Third_Party/Huawei/iot_link/driver\driver.c ****     (void) osal_mutex_unlock(s_los_driv_module.lock);
ARM GAS  T:\msys\tmp\cc56R3EJ.s 			page 10


 361:D:/fchai/work/i-cube/I-CUBE-HUAWEI/Middlewares/Third_Party/Huawei/iot_link/driver\driver.c ****     return dev;
 362:D:/fchai/work/i-cube/I-CUBE-HUAWEI/Middlewares/Third_Party/Huawei/iot_link/driver\driver.c **** 
 363:D:/fchai/work/i-cube/I-CUBE-HUAWEI/Middlewares/Third_Party/Huawei/iot_link/driver\driver.c **** EXIT_OPENERR:
 364:D:/fchai/work/i-cube/I-CUBE-HUAWEI/Middlewares/Third_Party/Huawei/iot_link/driver\driver.c **** EXIT_INITERR:
 365:D:/fchai/work/i-cube/I-CUBE-HUAWEI/Middlewares/Third_Party/Huawei/iot_link/driver\driver.c **** EXIT_EXCLERR:
 366:D:/fchai/work/i-cube/I-CUBE-HUAWEI/Middlewares/Third_Party/Huawei/iot_link/driver\driver.c **** EXIT_DRIVERR:
 367:D:/fchai/work/i-cube/I-CUBE-HUAWEI/Middlewares/Third_Party/Huawei/iot_link/driver\driver.c ****     (void) osal_mutex_unlock(s_los_driv_module.lock);
 368:D:/fchai/work/i-cube/I-CUBE-HUAWEI/Middlewares/Third_Party/Huawei/iot_link/driver\driver.c **** EXIT_MUTEXERR:
 369:D:/fchai/work/i-cube/I-CUBE-HUAWEI/Middlewares/Third_Party/Huawei/iot_link/driver\driver.c ****     osal_free(dev);
 370:D:/fchai/work/i-cube/I-CUBE-HUAWEI/Middlewares/Third_Party/Huawei/iot_link/driver\driver.c ****     dev = NULL;
 371:D:/fchai/work/i-cube/I-CUBE-HUAWEI/Middlewares/Third_Party/Huawei/iot_link/driver\driver.c **** EXIT_MEMERR:
 372:D:/fchai/work/i-cube/I-CUBE-HUAWEI/Middlewares/Third_Party/Huawei/iot_link/driver\driver.c **** EXIT_PARAERR:
 373:D:/fchai/work/i-cube/I-CUBE-HUAWEI/Middlewares/Third_Party/Huawei/iot_link/driver\driver.c ****     return dev;
 374:D:/fchai/work/i-cube/I-CUBE-HUAWEI/Middlewares/Third_Party/Huawei/iot_link/driver\driver.c **** }
 375:D:/fchai/work/i-cube/I-CUBE-HUAWEI/Middlewares/Third_Party/Huawei/iot_link/driver\driver.c **** 
 376:D:/fchai/work/i-cube/I-CUBE-HUAWEI/Middlewares/Third_Party/Huawei/iot_link/driver\driver.c **** /*******************************************************************************
 377:D:/fchai/work/i-cube/I-CUBE-HUAWEI/Middlewares/Third_Party/Huawei/iot_link/driver\driver.c **** function     :close the device of opened
 378:D:/fchai/work/i-cube/I-CUBE-HUAWEI/Middlewares/Third_Party/Huawei/iot_link/driver\driver.c **** parameters   :handle returned by open
 379:D:/fchai/work/i-cube/I-CUBE-HUAWEI/Middlewares/Third_Party/Huawei/iot_link/driver\driver.c **** instruction  :
 380:D:/fchai/work/i-cube/I-CUBE-HUAWEI/Middlewares/Third_Party/Huawei/iot_link/driver\driver.c **** *******************************************************************************/
 381:D:/fchai/work/i-cube/I-CUBE-HUAWEI/Middlewares/Third_Party/Huawei/iot_link/driver\driver.c **** bool_t  los_dev_close  (los_dev_t dev)
 382:D:/fchai/work/i-cube/I-CUBE-HUAWEI/Middlewares/Third_Party/Huawei/iot_link/driver\driver.c **** {
 383:D:/fchai/work/i-cube/I-CUBE-HUAWEI/Middlewares/Third_Party/Huawei/iot_link/driver\driver.c ****     bool_t ret = false;
 384:D:/fchai/work/i-cube/I-CUBE-HUAWEI/Middlewares/Third_Party/Huawei/iot_link/driver\driver.c ****     struct dev_cb *devcb = NULL;
 385:D:/fchai/work/i-cube/I-CUBE-HUAWEI/Middlewares/Third_Party/Huawei/iot_link/driver\driver.c ****     struct dev_cb *tmp = NULL;
 386:D:/fchai/work/i-cube/I-CUBE-HUAWEI/Middlewares/Third_Party/Huawei/iot_link/driver\driver.c ****     struct driv_cb *driv = NULL;
 387:D:/fchai/work/i-cube/I-CUBE-HUAWEI/Middlewares/Third_Party/Huawei/iot_link/driver\driver.c **** 
 388:D:/fchai/work/i-cube/I-CUBE-HUAWEI/Middlewares/Third_Party/Huawei/iot_link/driver\driver.c ****     if ( NULL == dev )
 389:D:/fchai/work/i-cube/I-CUBE-HUAWEI/Middlewares/Third_Party/Huawei/iot_link/driver\driver.c ****     {
 390:D:/fchai/work/i-cube/I-CUBE-HUAWEI/Middlewares/Third_Party/Huawei/iot_link/driver\driver.c ****         goto EXIT_PARAERR;
 391:D:/fchai/work/i-cube/I-CUBE-HUAWEI/Middlewares/Third_Party/Huawei/iot_link/driver\driver.c ****     }
 392:D:/fchai/work/i-cube/I-CUBE-HUAWEI/Middlewares/Third_Party/Huawei/iot_link/driver\driver.c ****     devcb = dev;
 393:D:/fchai/work/i-cube/I-CUBE-HUAWEI/Middlewares/Third_Party/Huawei/iot_link/driver\driver.c **** 
 394:D:/fchai/work/i-cube/I-CUBE-HUAWEI/Middlewares/Third_Party/Huawei/iot_link/driver\driver.c ****     if(false == osal_mutex_lock(s_los_driv_module.lock))
 395:D:/fchai/work/i-cube/I-CUBE-HUAWEI/Middlewares/Third_Party/Huawei/iot_link/driver\driver.c ****     {
 396:D:/fchai/work/i-cube/I-CUBE-HUAWEI/Middlewares/Third_Party/Huawei/iot_link/driver\driver.c ****         goto EXIT_MUTEXERR;
 397:D:/fchai/work/i-cube/I-CUBE-HUAWEI/Middlewares/Third_Party/Huawei/iot_link/driver\driver.c ****     }
 398:D:/fchai/work/i-cube/I-CUBE-HUAWEI/Middlewares/Third_Party/Huawei/iot_link/driver\driver.c **** 
 399:D:/fchai/work/i-cube/I-CUBE-HUAWEI/Middlewares/Third_Party/Huawei/iot_link/driver\driver.c ****     //deattach the dev from the driv
 400:D:/fchai/work/i-cube/I-CUBE-HUAWEI/Middlewares/Third_Party/Huawei/iot_link/driver\driver.c ****     driv = devcb->driv;
 401:D:/fchai/work/i-cube/I-CUBE-HUAWEI/Middlewares/Third_Party/Huawei/iot_link/driver\driver.c ****     if(NULL == driv)
 402:D:/fchai/work/i-cube/I-CUBE-HUAWEI/Middlewares/Third_Party/Huawei/iot_link/driver\driver.c ****     {
 403:D:/fchai/work/i-cube/I-CUBE-HUAWEI/Middlewares/Third_Party/Huawei/iot_link/driver\driver.c ****         goto EXIT_DRIVERR;
 404:D:/fchai/work/i-cube/I-CUBE-HUAWEI/Middlewares/Third_Party/Huawei/iot_link/driver\driver.c ****     }
 405:D:/fchai/work/i-cube/I-CUBE-HUAWEI/Middlewares/Third_Party/Huawei/iot_link/driver\driver.c **** 
 406:D:/fchai/work/i-cube/I-CUBE-HUAWEI/Middlewares/Third_Party/Huawei/iot_link/driver\driver.c ****     if(devcb == driv->devlst)
 407:D:/fchai/work/i-cube/I-CUBE-HUAWEI/Middlewares/Third_Party/Huawei/iot_link/driver\driver.c ****     {
 408:D:/fchai/work/i-cube/I-CUBE-HUAWEI/Middlewares/Third_Party/Huawei/iot_link/driver\driver.c ****         driv->devlst = devcb->nxt;
 409:D:/fchai/work/i-cube/I-CUBE-HUAWEI/Middlewares/Third_Party/Huawei/iot_link/driver\driver.c ****     }
 410:D:/fchai/work/i-cube/I-CUBE-HUAWEI/Middlewares/Third_Party/Huawei/iot_link/driver\driver.c ****     else
 411:D:/fchai/work/i-cube/I-CUBE-HUAWEI/Middlewares/Third_Party/Huawei/iot_link/driver\driver.c ****     {
 412:D:/fchai/work/i-cube/I-CUBE-HUAWEI/Middlewares/Third_Party/Huawei/iot_link/driver\driver.c ****         tmp = driv->devlst;
 413:D:/fchai/work/i-cube/I-CUBE-HUAWEI/Middlewares/Third_Party/Huawei/iot_link/driver\driver.c ****         while(NULL != tmp)
 414:D:/fchai/work/i-cube/I-CUBE-HUAWEI/Middlewares/Third_Party/Huawei/iot_link/driver\driver.c ****         {
 415:D:/fchai/work/i-cube/I-CUBE-HUAWEI/Middlewares/Third_Party/Huawei/iot_link/driver\driver.c ****             if(tmp->nxt == devcb)
 416:D:/fchai/work/i-cube/I-CUBE-HUAWEI/Middlewares/Third_Party/Huawei/iot_link/driver\driver.c ****             {
 417:D:/fchai/work/i-cube/I-CUBE-HUAWEI/Middlewares/Third_Party/Huawei/iot_link/driver\driver.c ****                 tmp->nxt = devcb->nxt;
ARM GAS  T:\msys\tmp\cc56R3EJ.s 			page 11


 418:D:/fchai/work/i-cube/I-CUBE-HUAWEI/Middlewares/Third_Party/Huawei/iot_link/driver\driver.c ****                 break;
 419:D:/fchai/work/i-cube/I-CUBE-HUAWEI/Middlewares/Third_Party/Huawei/iot_link/driver\driver.c ****             }
 420:D:/fchai/work/i-cube/I-CUBE-HUAWEI/Middlewares/Third_Party/Huawei/iot_link/driver\driver.c ****             tmp = tmp->nxt;
 421:D:/fchai/work/i-cube/I-CUBE-HUAWEI/Middlewares/Third_Party/Huawei/iot_link/driver\driver.c ****         }
 422:D:/fchai/work/i-cube/I-CUBE-HUAWEI/Middlewares/Third_Party/Huawei/iot_link/driver\driver.c ****         if(NULL == tmp)
 423:D:/fchai/work/i-cube/I-CUBE-HUAWEI/Middlewares/Third_Party/Huawei/iot_link/driver\driver.c ****         {
 424:D:/fchai/work/i-cube/I-CUBE-HUAWEI/Middlewares/Third_Party/Huawei/iot_link/driver\driver.c ****             goto EXIT_DETACHERR;
 425:D:/fchai/work/i-cube/I-CUBE-HUAWEI/Middlewares/Third_Party/Huawei/iot_link/driver\driver.c ****         }
 426:D:/fchai/work/i-cube/I-CUBE-HUAWEI/Middlewares/Third_Party/Huawei/iot_link/driver\driver.c ****     }
 427:D:/fchai/work/i-cube/I-CUBE-HUAWEI/Middlewares/Third_Party/Huawei/iot_link/driver\driver.c ****     if(NULL != driv->op->close)
 428:D:/fchai/work/i-cube/I-CUBE-HUAWEI/Middlewares/Third_Party/Huawei/iot_link/driver\driver.c ****     {
 429:D:/fchai/work/i-cube/I-CUBE-HUAWEI/Middlewares/Third_Party/Huawei/iot_link/driver\driver.c ****         driv->op->close(driv->pri);
 430:D:/fchai/work/i-cube/I-CUBE-HUAWEI/Middlewares/Third_Party/Huawei/iot_link/driver\driver.c ****     }
 431:D:/fchai/work/i-cube/I-CUBE-HUAWEI/Middlewares/Third_Party/Huawei/iot_link/driver\driver.c **** 
 432:D:/fchai/work/i-cube/I-CUBE-HUAWEI/Middlewares/Third_Party/Huawei/iot_link/driver\driver.c ****     if((NULL == driv->devlst) && (NULL != driv->op->deinit))
 433:D:/fchai/work/i-cube/I-CUBE-HUAWEI/Middlewares/Third_Party/Huawei/iot_link/driver\driver.c ****     {
 434:D:/fchai/work/i-cube/I-CUBE-HUAWEI/Middlewares/Third_Party/Huawei/iot_link/driver\driver.c ****         driv->op->deinit(driv->pri);
 435:D:/fchai/work/i-cube/I-CUBE-HUAWEI/Middlewares/Third_Party/Huawei/iot_link/driver\driver.c ****         driv->drivstatus &= (~cn_driv_status_initialized);
 436:D:/fchai/work/i-cube/I-CUBE-HUAWEI/Middlewares/Third_Party/Huawei/iot_link/driver\driver.c ****     }
 437:D:/fchai/work/i-cube/I-CUBE-HUAWEI/Middlewares/Third_Party/Huawei/iot_link/driver\driver.c **** 
 438:D:/fchai/work/i-cube/I-CUBE-HUAWEI/Middlewares/Third_Party/Huawei/iot_link/driver\driver.c ****     osal_free(dev);
 439:D:/fchai/work/i-cube/I-CUBE-HUAWEI/Middlewares/Third_Party/Huawei/iot_link/driver\driver.c ****     driv->opencounter--;
 440:D:/fchai/work/i-cube/I-CUBE-HUAWEI/Middlewares/Third_Party/Huawei/iot_link/driver\driver.c **** 
 441:D:/fchai/work/i-cube/I-CUBE-HUAWEI/Middlewares/Third_Party/Huawei/iot_link/driver\driver.c ****     (void) osal_mutex_unlock(s_los_driv_module.lock);
 442:D:/fchai/work/i-cube/I-CUBE-HUAWEI/Middlewares/Third_Party/Huawei/iot_link/driver\driver.c **** 
 443:D:/fchai/work/i-cube/I-CUBE-HUAWEI/Middlewares/Third_Party/Huawei/iot_link/driver\driver.c ****     ret = true;
 444:D:/fchai/work/i-cube/I-CUBE-HUAWEI/Middlewares/Third_Party/Huawei/iot_link/driver\driver.c **** 
 445:D:/fchai/work/i-cube/I-CUBE-HUAWEI/Middlewares/Third_Party/Huawei/iot_link/driver\driver.c **** EXIT_DETACHERR:
 446:D:/fchai/work/i-cube/I-CUBE-HUAWEI/Middlewares/Third_Party/Huawei/iot_link/driver\driver.c **** EXIT_DRIVERR:
 447:D:/fchai/work/i-cube/I-CUBE-HUAWEI/Middlewares/Third_Party/Huawei/iot_link/driver\driver.c ****     (void) osal_mutex_unlock(s_los_driv_module.lock);
 448:D:/fchai/work/i-cube/I-CUBE-HUAWEI/Middlewares/Third_Party/Huawei/iot_link/driver\driver.c **** EXIT_MUTEXERR:
 449:D:/fchai/work/i-cube/I-CUBE-HUAWEI/Middlewares/Third_Party/Huawei/iot_link/driver\driver.c **** EXIT_PARAERR:
 450:D:/fchai/work/i-cube/I-CUBE-HUAWEI/Middlewares/Third_Party/Huawei/iot_link/driver\driver.c ****     return ret;
 451:D:/fchai/work/i-cube/I-CUBE-HUAWEI/Middlewares/Third_Party/Huawei/iot_link/driver\driver.c **** }
 452:D:/fchai/work/i-cube/I-CUBE-HUAWEI/Middlewares/Third_Party/Huawei/iot_link/driver\driver.c **** 
 453:D:/fchai/work/i-cube/I-CUBE-HUAWEI/Middlewares/Third_Party/Huawei/iot_link/driver\driver.c **** /*******************************************************************************
 454:D:/fchai/work/i-cube/I-CUBE-HUAWEI/Middlewares/Third_Party/Huawei/iot_link/driver\driver.c **** function     :use this function to read data from the device
 455:D:/fchai/work/i-cube/I-CUBE-HUAWEI/Middlewares/Third_Party/Huawei/iot_link/driver\driver.c **** parameters   :dev,returned by the los_dev_open function
 456:D:/fchai/work/i-cube/I-CUBE-HUAWEI/Middlewares/Third_Party/Huawei/iot_link/driver\driver.c ****               offet:from where to read,only used for storage device
 457:D:/fchai/work/i-cube/I-CUBE-HUAWEI/Middlewares/Third_Party/Huawei/iot_link/driver\driver.c ****               buf:used to storage the data
 458:D:/fchai/work/i-cube/I-CUBE-HUAWEI/Middlewares/Third_Party/Huawei/iot_link/driver\driver.c ****               len:the length of the buf
 459:D:/fchai/work/i-cube/I-CUBE-HUAWEI/Middlewares/Third_Party/Huawei/iot_link/driver\driver.c ****               timeout:the waittime if no data current
 460:D:/fchai/work/i-cube/I-CUBE-HUAWEI/Middlewares/Third_Party/Huawei/iot_link/driver\driver.c **** instruction  :how many data has been read to the buf
 461:D:/fchai/work/i-cube/I-CUBE-HUAWEI/Middlewares/Third_Party/Huawei/iot_link/driver\driver.c **** *******************************************************************************/
 462:D:/fchai/work/i-cube/I-CUBE-HUAWEI/Middlewares/Third_Party/Huawei/iot_link/driver\driver.c **** ssize_t   los_dev_read  (los_dev_t dev,size_t offset, void *buf,size_t len,uint32_t timeout)
 463:D:/fchai/work/i-cube/I-CUBE-HUAWEI/Middlewares/Third_Party/Huawei/iot_link/driver\driver.c **** {
 464:D:/fchai/work/i-cube/I-CUBE-HUAWEI/Middlewares/Third_Party/Huawei/iot_link/driver\driver.c ****     ssize_t ret = 0;
 465:D:/fchai/work/i-cube/I-CUBE-HUAWEI/Middlewares/Third_Party/Huawei/iot_link/driver\driver.c ****     struct dev_cb  *devcb;
 466:D:/fchai/work/i-cube/I-CUBE-HUAWEI/Middlewares/Third_Party/Huawei/iot_link/driver\driver.c ****     struct driv_cb *drivcb;
 467:D:/fchai/work/i-cube/I-CUBE-HUAWEI/Middlewares/Third_Party/Huawei/iot_link/driver\driver.c **** 
 468:D:/fchai/work/i-cube/I-CUBE-HUAWEI/Middlewares/Third_Party/Huawei/iot_link/driver\driver.c ****     if((NULL != dev)&&(NULL != buf)&&(0 != len))
 469:D:/fchai/work/i-cube/I-CUBE-HUAWEI/Middlewares/Third_Party/Huawei/iot_link/driver\driver.c ****     {
 470:D:/fchai/work/i-cube/I-CUBE-HUAWEI/Middlewares/Third_Party/Huawei/iot_link/driver\driver.c ****         devcb = dev;
 471:D:/fchai/work/i-cube/I-CUBE-HUAWEI/Middlewares/Third_Party/Huawei/iot_link/driver\driver.c ****         if((0 == ((uint32_t)devcb->openflag & O_WRONLY)))
 472:D:/fchai/work/i-cube/I-CUBE-HUAWEI/Middlewares/Third_Party/Huawei/iot_link/driver\driver.c ****         {
 473:D:/fchai/work/i-cube/I-CUBE-HUAWEI/Middlewares/Third_Party/Huawei/iot_link/driver\driver.c ****             drivcb = devcb->driv;
 474:D:/fchai/work/i-cube/I-CUBE-HUAWEI/Middlewares/Third_Party/Huawei/iot_link/driver\driver.c ****             if((NULL != drivcb->op)&&(NULL != drivcb->op->read))
ARM GAS  T:\msys\tmp\cc56R3EJ.s 			page 12


 475:D:/fchai/work/i-cube/I-CUBE-HUAWEI/Middlewares/Third_Party/Huawei/iot_link/driver\driver.c ****             {
 476:D:/fchai/work/i-cube/I-CUBE-HUAWEI/Middlewares/Third_Party/Huawei/iot_link/driver\driver.c ****                 ret = drivcb->op->read( drivcb->pri,offset,buf,len,timeout);
 477:D:/fchai/work/i-cube/I-CUBE-HUAWEI/Middlewares/Third_Party/Huawei/iot_link/driver\driver.c ****                 if(ret > 0)
 478:D:/fchai/work/i-cube/I-CUBE-HUAWEI/Middlewares/Third_Party/Huawei/iot_link/driver\driver.c ****                 {
 479:D:/fchai/work/i-cube/I-CUBE-HUAWEI/Middlewares/Third_Party/Huawei/iot_link/driver\driver.c ****                     drivcb->total_read += ret;
 480:D:/fchai/work/i-cube/I-CUBE-HUAWEI/Middlewares/Third_Party/Huawei/iot_link/driver\driver.c ****                 }
 481:D:/fchai/work/i-cube/I-CUBE-HUAWEI/Middlewares/Third_Party/Huawei/iot_link/driver\driver.c ****             }
 482:D:/fchai/work/i-cube/I-CUBE-HUAWEI/Middlewares/Third_Party/Huawei/iot_link/driver\driver.c ****         }
 483:D:/fchai/work/i-cube/I-CUBE-HUAWEI/Middlewares/Third_Party/Huawei/iot_link/driver\driver.c ****     }
 484:D:/fchai/work/i-cube/I-CUBE-HUAWEI/Middlewares/Third_Party/Huawei/iot_link/driver\driver.c **** 
 485:D:/fchai/work/i-cube/I-CUBE-HUAWEI/Middlewares/Third_Party/Huawei/iot_link/driver\driver.c ****     return ret;
 486:D:/fchai/work/i-cube/I-CUBE-HUAWEI/Middlewares/Third_Party/Huawei/iot_link/driver\driver.c **** }
 487:D:/fchai/work/i-cube/I-CUBE-HUAWEI/Middlewares/Third_Party/Huawei/iot_link/driver\driver.c **** 
 488:D:/fchai/work/i-cube/I-CUBE-HUAWEI/Middlewares/Third_Party/Huawei/iot_link/driver\driver.c **** /*******************************************************************************
 489:D:/fchai/work/i-cube/I-CUBE-HUAWEI/Middlewares/Third_Party/Huawei/iot_link/driver\driver.c **** function     :use this function to write data to the device
 490:D:/fchai/work/i-cube/I-CUBE-HUAWEI/Middlewares/Third_Party/Huawei/iot_link/driver\driver.c **** parameters   :dev,returned by the los_dev_open function
 491:D:/fchai/work/i-cube/I-CUBE-HUAWEI/Middlewares/Third_Party/Huawei/iot_link/driver\driver.c ****               offset: from where to write,only used for storage device
 492:D:/fchai/work/i-cube/I-CUBE-HUAWEI/Middlewares/Third_Party/Huawei/iot_link/driver\driver.c ****               buf:the data to be written
 493:D:/fchai/work/i-cube/I-CUBE-HUAWEI/Middlewares/Third_Party/Huawei/iot_link/driver\driver.c ****               len:the length of the buf
 494:D:/fchai/work/i-cube/I-CUBE-HUAWEI/Middlewares/Third_Party/Huawei/iot_link/driver\driver.c ****               timeout:the waittime if no data current
 495:D:/fchai/work/i-cube/I-CUBE-HUAWEI/Middlewares/Third_Party/Huawei/iot_link/driver\driver.c **** instruction  :how many data has been written to the device
 496:D:/fchai/work/i-cube/I-CUBE-HUAWEI/Middlewares/Third_Party/Huawei/iot_link/driver\driver.c **** *******************************************************************************/
 497:D:/fchai/work/i-cube/I-CUBE-HUAWEI/Middlewares/Third_Party/Huawei/iot_link/driver\driver.c **** ssize_t los_dev_write (los_dev_t dev,size_t offset,const void *buf,size_t len, uint32_t timeout)
 498:D:/fchai/work/i-cube/I-CUBE-HUAWEI/Middlewares/Third_Party/Huawei/iot_link/driver\driver.c **** {
 499:D:/fchai/work/i-cube/I-CUBE-HUAWEI/Middlewares/Third_Party/Huawei/iot_link/driver\driver.c ****     ssize_t ret = 0;
 500:D:/fchai/work/i-cube/I-CUBE-HUAWEI/Middlewares/Third_Party/Huawei/iot_link/driver\driver.c ****     struct dev_cb  *devcb;
 501:D:/fchai/work/i-cube/I-CUBE-HUAWEI/Middlewares/Third_Party/Huawei/iot_link/driver\driver.c ****     struct driv_cb *drivcb;
 502:D:/fchai/work/i-cube/I-CUBE-HUAWEI/Middlewares/Third_Party/Huawei/iot_link/driver\driver.c **** 
 503:D:/fchai/work/i-cube/I-CUBE-HUAWEI/Middlewares/Third_Party/Huawei/iot_link/driver\driver.c ****     if((NULL != dev) && (NULL != buf) && (len != 0))
 504:D:/fchai/work/i-cube/I-CUBE-HUAWEI/Middlewares/Third_Party/Huawei/iot_link/driver\driver.c ****     {
 505:D:/fchai/work/i-cube/I-CUBE-HUAWEI/Middlewares/Third_Party/Huawei/iot_link/driver\driver.c ****         devcb = dev;
 506:D:/fchai/work/i-cube/I-CUBE-HUAWEI/Middlewares/Third_Party/Huawei/iot_link/driver\driver.c ****         if((((uint32_t)devcb->openflag) & O_WRONLY) || (((uint32_t)devcb->openflag) & O_RDWR))
 507:D:/fchai/work/i-cube/I-CUBE-HUAWEI/Middlewares/Third_Party/Huawei/iot_link/driver\driver.c ****         {
 508:D:/fchai/work/i-cube/I-CUBE-HUAWEI/Middlewares/Third_Party/Huawei/iot_link/driver\driver.c ****             drivcb = devcb->driv;
 509:D:/fchai/work/i-cube/I-CUBE-HUAWEI/Middlewares/Third_Party/Huawei/iot_link/driver\driver.c ****             if((NULL != drivcb->op)&&(NULL != drivcb->op->write))
 510:D:/fchai/work/i-cube/I-CUBE-HUAWEI/Middlewares/Third_Party/Huawei/iot_link/driver\driver.c ****             {
 511:D:/fchai/work/i-cube/I-CUBE-HUAWEI/Middlewares/Third_Party/Huawei/iot_link/driver\driver.c ****                 ret = drivcb->op->write( drivcb->pri,offset,buf,len,timeout);
 512:D:/fchai/work/i-cube/I-CUBE-HUAWEI/Middlewares/Third_Party/Huawei/iot_link/driver\driver.c ****                 if(ret > 0)
 513:D:/fchai/work/i-cube/I-CUBE-HUAWEI/Middlewares/Third_Party/Huawei/iot_link/driver\driver.c ****                 {
 514:D:/fchai/work/i-cube/I-CUBE-HUAWEI/Middlewares/Third_Party/Huawei/iot_link/driver\driver.c ****                     drivcb->total_write += ret;
 515:D:/fchai/work/i-cube/I-CUBE-HUAWEI/Middlewares/Third_Party/Huawei/iot_link/driver\driver.c ****                 }
 516:D:/fchai/work/i-cube/I-CUBE-HUAWEI/Middlewares/Third_Party/Huawei/iot_link/driver\driver.c ****             }
 517:D:/fchai/work/i-cube/I-CUBE-HUAWEI/Middlewares/Third_Party/Huawei/iot_link/driver\driver.c ****         }
 518:D:/fchai/work/i-cube/I-CUBE-HUAWEI/Middlewares/Third_Party/Huawei/iot_link/driver\driver.c ****     }
 519:D:/fchai/work/i-cube/I-CUBE-HUAWEI/Middlewares/Third_Party/Huawei/iot_link/driver\driver.c **** 
 520:D:/fchai/work/i-cube/I-CUBE-HUAWEI/Middlewares/Third_Party/Huawei/iot_link/driver\driver.c ****     return ret;
 521:D:/fchai/work/i-cube/I-CUBE-HUAWEI/Middlewares/Third_Party/Huawei/iot_link/driver\driver.c **** }
 522:D:/fchai/work/i-cube/I-CUBE-HUAWEI/Middlewares/Third_Party/Huawei/iot_link/driver\driver.c **** 
 523:D:/fchai/work/i-cube/I-CUBE-HUAWEI/Middlewares/Third_Party/Huawei/iot_link/driver\driver.c **** /*******************************************************************************
 524:D:/fchai/work/i-cube/I-CUBE-HUAWEI/Middlewares/Third_Party/Huawei/iot_link/driver\driver.c **** function     :use this function to control the device
 525:D:/fchai/work/i-cube/I-CUBE-HUAWEI/Middlewares/Third_Party/Huawei/iot_link/driver\driver.c **** parameters   :dev,returned by the los_dev_open function
 526:D:/fchai/work/i-cube/I-CUBE-HUAWEI/Middlewares/Third_Party/Huawei/iot_link/driver\driver.c ****               cmd, must compatible with bsp develop
 527:D:/fchai/work/i-cube/I-CUBE-HUAWEI/Middlewares/Third_Party/Huawei/iot_link/driver\driver.c ****               para,used with cmd, its length and format depend on the bsp develop
 528:D:/fchai/work/i-cube/I-CUBE-HUAWEI/Middlewares/Third_Party/Huawei/iot_link/driver\driver.c **** instruction  :ctrol true or false
 529:D:/fchai/work/i-cube/I-CUBE-HUAWEI/Middlewares/Third_Party/Huawei/iot_link/driver\driver.c **** *******************************************************************************/
 530:D:/fchai/work/i-cube/I-CUBE-HUAWEI/Middlewares/Third_Party/Huawei/iot_link/driver\driver.c **** bool_t los_dev_ioctl (los_dev_t dev,unsigned int cmd,void *para,int paralen)
 531:D:/fchai/work/i-cube/I-CUBE-HUAWEI/Middlewares/Third_Party/Huawei/iot_link/driver\driver.c **** {
ARM GAS  T:\msys\tmp\cc56R3EJ.s 			page 13


 532:D:/fchai/work/i-cube/I-CUBE-HUAWEI/Middlewares/Third_Party/Huawei/iot_link/driver\driver.c ****     bool_t ret = false;
 533:D:/fchai/work/i-cube/I-CUBE-HUAWEI/Middlewares/Third_Party/Huawei/iot_link/driver\driver.c ****     struct dev_cb  *devcb;
 534:D:/fchai/work/i-cube/I-CUBE-HUAWEI/Middlewares/Third_Party/Huawei/iot_link/driver\driver.c ****     struct driv_cb *drivcb;
 535:D:/fchai/work/i-cube/I-CUBE-HUAWEI/Middlewares/Third_Party/Huawei/iot_link/driver\driver.c **** 
 536:D:/fchai/work/i-cube/I-CUBE-HUAWEI/Middlewares/Third_Party/Huawei/iot_link/driver\driver.c ****     if(NULL != dev)
 537:D:/fchai/work/i-cube/I-CUBE-HUAWEI/Middlewares/Third_Party/Huawei/iot_link/driver\driver.c ****     {
 538:D:/fchai/work/i-cube/I-CUBE-HUAWEI/Middlewares/Third_Party/Huawei/iot_link/driver\driver.c ****         devcb = dev;
 539:D:/fchai/work/i-cube/I-CUBE-HUAWEI/Middlewares/Third_Party/Huawei/iot_link/driver\driver.c ****         drivcb = devcb->driv;
 540:D:/fchai/work/i-cube/I-CUBE-HUAWEI/Middlewares/Third_Party/Huawei/iot_link/driver\driver.c ****         if((NULL != drivcb->op)&&(NULL != drivcb->op->ioctl))
 541:D:/fchai/work/i-cube/I-CUBE-HUAWEI/Middlewares/Third_Party/Huawei/iot_link/driver\driver.c ****         {
 542:D:/fchai/work/i-cube/I-CUBE-HUAWEI/Middlewares/Third_Party/Huawei/iot_link/driver\driver.c ****             ret = drivcb->op->ioctl( drivcb->pri,cmd,para,paralen);
 543:D:/fchai/work/i-cube/I-CUBE-HUAWEI/Middlewares/Third_Party/Huawei/iot_link/driver\driver.c ****         }
 544:D:/fchai/work/i-cube/I-CUBE-HUAWEI/Middlewares/Third_Party/Huawei/iot_link/driver\driver.c ****     }
 545:D:/fchai/work/i-cube/I-CUBE-HUAWEI/Middlewares/Third_Party/Huawei/iot_link/driver\driver.c **** 
 546:D:/fchai/work/i-cube/I-CUBE-HUAWEI/Middlewares/Third_Party/Huawei/iot_link/driver\driver.c ****     return ret;
 547:D:/fchai/work/i-cube/I-CUBE-HUAWEI/Middlewares/Third_Party/Huawei/iot_link/driver\driver.c **** }
 548:D:/fchai/work/i-cube/I-CUBE-HUAWEI/Middlewares/Third_Party/Huawei/iot_link/driver\driver.c **** 
 549:D:/fchai/work/i-cube/I-CUBE-HUAWEI/Middlewares/Third_Party/Huawei/iot_link/driver\driver.c **** /*******************************************************************************
 550:D:/fchai/work/i-cube/I-CUBE-HUAWEI/Middlewares/Third_Party/Huawei/iot_link/driver\driver.c **** function     :use this function to set the buffer current position,like lseek
 551:D:/fchai/work/i-cube/I-CUBE-HUAWEI/Middlewares/Third_Party/Huawei/iot_link/driver\driver.c **** parameters   :dev,returned by the los_dev_open function
 552:D:/fchai/work/i-cube/I-CUBE-HUAWEI/Middlewares/Third_Party/Huawei/iot_link/driver\driver.c ****               offset, refer to the lseek
 553:D:/fchai/work/i-cube/I-CUBE-HUAWEI/Middlewares/Third_Party/Huawei/iot_link/driver\driver.c ****               fromwhere, refer to the lseek
 554:D:/fchai/work/i-cube/I-CUBE-HUAWEI/Middlewares/Third_Party/Huawei/iot_link/driver\driver.c **** instruction  :return the current write/read position if success, else -1
 555:D:/fchai/work/i-cube/I-CUBE-HUAWEI/Middlewares/Third_Party/Huawei/iot_link/driver\driver.c **** *******************************************************************************/
 556:D:/fchai/work/i-cube/I-CUBE-HUAWEI/Middlewares/Third_Party/Huawei/iot_link/driver\driver.c **** off_t  los_dev_seek (los_dev_t dev,off_t offset,int fromwhere)
 557:D:/fchai/work/i-cube/I-CUBE-HUAWEI/Middlewares/Third_Party/Huawei/iot_link/driver\driver.c **** {
 558:D:/fchai/work/i-cube/I-CUBE-HUAWEI/Middlewares/Third_Party/Huawei/iot_link/driver\driver.c ****     off_t ret = -1;
 559:D:/fchai/work/i-cube/I-CUBE-HUAWEI/Middlewares/Third_Party/Huawei/iot_link/driver\driver.c ****     struct dev_cb  *devcb;
 560:D:/fchai/work/i-cube/I-CUBE-HUAWEI/Middlewares/Third_Party/Huawei/iot_link/driver\driver.c ****     struct driv_cb *drivcb;
 561:D:/fchai/work/i-cube/I-CUBE-HUAWEI/Middlewares/Third_Party/Huawei/iot_link/driver\driver.c **** 
 562:D:/fchai/work/i-cube/I-CUBE-HUAWEI/Middlewares/Third_Party/Huawei/iot_link/driver\driver.c ****     if(NULL != dev)
 563:D:/fchai/work/i-cube/I-CUBE-HUAWEI/Middlewares/Third_Party/Huawei/iot_link/driver\driver.c ****     {
 564:D:/fchai/work/i-cube/I-CUBE-HUAWEI/Middlewares/Third_Party/Huawei/iot_link/driver\driver.c ****         devcb = dev;
 565:D:/fchai/work/i-cube/I-CUBE-HUAWEI/Middlewares/Third_Party/Huawei/iot_link/driver\driver.c ****         drivcb = devcb->driv;
 566:D:/fchai/work/i-cube/I-CUBE-HUAWEI/Middlewares/Third_Party/Huawei/iot_link/driver\driver.c ****         if((NULL != drivcb->op)&&(NULL != drivcb->op->seek))
 567:D:/fchai/work/i-cube/I-CUBE-HUAWEI/Middlewares/Third_Party/Huawei/iot_link/driver\driver.c ****         {
 568:D:/fchai/work/i-cube/I-CUBE-HUAWEI/Middlewares/Third_Party/Huawei/iot_link/driver\driver.c ****             ret = drivcb->op->seek( drivcb->pri,offset,fromwhere);
 569:D:/fchai/work/i-cube/I-CUBE-HUAWEI/Middlewares/Third_Party/Huawei/iot_link/driver\driver.c ****         }
 570:D:/fchai/work/i-cube/I-CUBE-HUAWEI/Middlewares/Third_Party/Huawei/iot_link/driver\driver.c ****     }
 571:D:/fchai/work/i-cube/I-CUBE-HUAWEI/Middlewares/Third_Party/Huawei/iot_link/driver\driver.c **** 
 572:D:/fchai/work/i-cube/I-CUBE-HUAWEI/Middlewares/Third_Party/Huawei/iot_link/driver\driver.c ****     return ret;
 573:D:/fchai/work/i-cube/I-CUBE-HUAWEI/Middlewares/Third_Party/Huawei/iot_link/driver\driver.c **** }
 574:D:/fchai/work/i-cube/I-CUBE-HUAWEI/Middlewares/Third_Party/Huawei/iot_link/driver\driver.c **** 
 575:D:/fchai/work/i-cube/I-CUBE-HUAWEI/Middlewares/Third_Party/Huawei/iot_link/driver\driver.c **** 
 576:D:/fchai/work/i-cube/I-CUBE-HUAWEI/Middlewares/Third_Party/Huawei/iot_link/driver\driver.c **** //the following function should be implement by the vfs,
 577:D:/fchai/work/i-cube/I-CUBE-HUAWEI/Middlewares/Third_Party/Huawei/iot_link/driver\driver.c **** //this is very important for the multi io operation, like the select epoll and so on
 578:D:/fchai/work/i-cube/I-CUBE-HUAWEI/Middlewares/Third_Party/Huawei/iot_link/driver\driver.c **** //bool_t     los_dev_upara_set (los_dev_t dev,void *para);
 579:D:/fchai/work/i-cube/I-CUBE-HUAWEI/Middlewares/Third_Party/Huawei/iot_link/driver\driver.c **** //void*      los_dev_upara_get (los_dev_t dev);
 580:D:/fchai/work/i-cube/I-CUBE-HUAWEI/Middlewares/Third_Party/Huawei/iot_link/driver\driver.c **** 
 581:D:/fchai/work/i-cube/I-CUBE-HUAWEI/Middlewares/Third_Party/Huawei/iot_link/driver\driver.c **** //export some shell for the driver debug
 582:D:/fchai/work/i-cube/I-CUBE-HUAWEI/Middlewares/Third_Party/Huawei/iot_link/driver\driver.c **** #ifdef CONFIG_SHELL_ENABLE
 583:D:/fchai/work/i-cube/I-CUBE-HUAWEI/Middlewares/Third_Party/Huawei/iot_link/driver\driver.c **** 
 584:D:/fchai/work/i-cube/I-CUBE-HUAWEI/Middlewares/Third_Party/Huawei/iot_link/driver\driver.c **** #include <shell.h>
 585:D:/fchai/work/i-cube/I-CUBE-HUAWEI/Middlewares/Third_Party/Huawei/iot_link/driver\driver.c **** //use this function to show all the driver infomation
 586:D:/fchai/work/i-cube/I-CUBE-HUAWEI/Middlewares/Third_Party/Huawei/iot_link/driver\driver.c **** static int  __driv_show_shell(int argc,const char *argv[])
 587:D:/fchai/work/i-cube/I-CUBE-HUAWEI/Middlewares/Third_Party/Huawei/iot_link/driver\driver.c **** {
 129              		.loc 1 587 1 is_stmt 1 view -0
ARM GAS  T:\msys\tmp\cc56R3EJ.s 			page 14


 130              		.cfi_startproc
 131              		@ args = 0, pretend = 0, frame = 0
 132              		@ frame_needed = 0, uses_anonymous_args = 0
 588:D:/fchai/work/i-cube/I-CUBE-HUAWEI/Middlewares/Third_Party/Huawei/iot_link/driver\driver.c ****     struct driv_cb  *driv;
 133              		.loc 1 588 5 view .LVU16
 589:D:/fchai/work/i-cube/I-CUBE-HUAWEI/Middlewares/Third_Party/Huawei/iot_link/driver\driver.c **** 
 590:D:/fchai/work/i-cube/I-CUBE-HUAWEI/Middlewares/Third_Party/Huawei/iot_link/driver\driver.c ****     if(osal_mutex_lock(s_los_driv_module.lock))
 134              		.loc 1 590 5 view .LVU17
 587:D:/fchai/work/i-cube/I-CUBE-HUAWEI/Middlewares/Third_Party/Huawei/iot_link/driver\driver.c ****     struct driv_cb  *driv;
 135              		.loc 1 587 1 is_stmt 0 view .LVU18
 136 0000 2DE9F043 		push	{r4, r5, r6, r7, r8, r9, lr}
 137              	.LCFI1:
 138              		.cfi_def_cfa_offset 28
 139              		.cfi_offset 4, -28
 140              		.cfi_offset 5, -24
 141              		.cfi_offset 6, -20
 142              		.cfi_offset 7, -16
 143              		.cfi_offset 8, -12
 144              		.cfi_offset 9, -8
 145              		.cfi_offset 14, -4
 146              		.loc 1 590 8 view .LVU19
 147 0004 3F4D     		ldr	r5, .L38
 587:D:/fchai/work/i-cube/I-CUBE-HUAWEI/Middlewares/Third_Party/Huawei/iot_link/driver\driver.c ****     struct driv_cb  *driv;
 148              		.loc 1 587 1 view .LVU20
 149 0006 89B0     		sub	sp, sp, #36
 150              	.LCFI2:
 151              		.cfi_def_cfa_offset 64
 152              		.loc 1 590 8 view .LVU21
 153 0008 2868     		ldr	r0, [r5]
 154              	.LVL8:
 155              		.loc 1 590 8 view .LVU22
 156 000a FFF7FEFF 		bl	osal_mutex_lock
 157              	.LVL9:
 158              		.loc 1 590 7 view .LVU23
 159 000e 18B9     		cbnz	r0, .L34
 591:D:/fchai/work/i-cube/I-CUBE-HUAWEI/Middlewares/Third_Party/Huawei/iot_link/driver\driver.c ****     {
 592:D:/fchai/work/i-cube/I-CUBE-HUAWEI/Middlewares/Third_Party/Huawei/iot_link/driver\driver.c ****         LINK_LOG_DEBUG("%s:total %d drivers\n\r",__FUNCTION__,s_los_driv_module.drivnum);
 593:D:/fchai/work/i-cube/I-CUBE-HUAWEI/Middlewares/Third_Party/Huawei/iot_link/driver\driver.c ****         if(s_los_driv_module.drivnum != 0) //print all the driver
 594:D:/fchai/work/i-cube/I-CUBE-HUAWEI/Middlewares/Third_Party/Huawei/iot_link/driver\driver.c ****         {
 595:D:/fchai/work/i-cube/I-CUBE-HUAWEI/Middlewares/Third_Party/Huawei/iot_link/driver\driver.c **** 
 596:D:/fchai/work/i-cube/I-CUBE-HUAWEI/Middlewares/Third_Party/Huawei/iot_link/driver\driver.c ****             LINK_LOG_DEBUG("%-16s %-8s %-8s %-8s %-8s %-8s %-8s\r\n",\
 597:D:/fchai/work/i-cube/I-CUBE-HUAWEI/Middlewares/Third_Party/Huawei/iot_link/driver\driver.c ****                 "drivername","flagmask","status","writbyte","readbyte","open","errno");
 598:D:/fchai/work/i-cube/I-CUBE-HUAWEI/Middlewares/Third_Party/Huawei/iot_link/driver\driver.c **** 
 599:D:/fchai/work/i-cube/I-CUBE-HUAWEI/Middlewares/Third_Party/Huawei/iot_link/driver\driver.c ****             driv = s_los_driv_module.drivlst;
 600:D:/fchai/work/i-cube/I-CUBE-HUAWEI/Middlewares/Third_Party/Huawei/iot_link/driver\driver.c ****             while(NULL != driv)
 601:D:/fchai/work/i-cube/I-CUBE-HUAWEI/Middlewares/Third_Party/Huawei/iot_link/driver\driver.c ****             {
 602:D:/fchai/work/i-cube/I-CUBE-HUAWEI/Middlewares/Third_Party/Huawei/iot_link/driver\driver.c ****                 LINK_LOG_DEBUG("%-16s %08x %08x %08x %08x %08x %08x\r\n",driv->name,driv->flagmask,
 603:D:/fchai/work/i-cube/I-CUBE-HUAWEI/Middlewares/Third_Party/Huawei/iot_link/driver\driver.c ****                 driv->drivstatus,driv->total_write,driv->total_read,driv->opencounter,driv->errno);
 604:D:/fchai/work/i-cube/I-CUBE-HUAWEI/Middlewares/Third_Party/Huawei/iot_link/driver\driver.c ****                 driv=driv->nxt;
 605:D:/fchai/work/i-cube/I-CUBE-HUAWEI/Middlewares/Third_Party/Huawei/iot_link/driver\driver.c ****             }
 606:D:/fchai/work/i-cube/I-CUBE-HUAWEI/Middlewares/Third_Party/Huawei/iot_link/driver\driver.c ****         }
 607:D:/fchai/work/i-cube/I-CUBE-HUAWEI/Middlewares/Third_Party/Huawei/iot_link/driver\driver.c **** 
 608:D:/fchai/work/i-cube/I-CUBE-HUAWEI/Middlewares/Third_Party/Huawei/iot_link/driver\driver.c ****         (void) osal_mutex_unlock(s_los_driv_module.lock);
 609:D:/fchai/work/i-cube/I-CUBE-HUAWEI/Middlewares/Third_Party/Huawei/iot_link/driver\driver.c ****     }
 610:D:/fchai/work/i-cube/I-CUBE-HUAWEI/Middlewares/Third_Party/Huawei/iot_link/driver\driver.c **** 
 611:D:/fchai/work/i-cube/I-CUBE-HUAWEI/Middlewares/Third_Party/Huawei/iot_link/driver\driver.c ****     return 0;
 160              		.loc 1 611 5 is_stmt 1 view .LVU24
ARM GAS  T:\msys\tmp\cc56R3EJ.s 			page 15


 612:D:/fchai/work/i-cube/I-CUBE-HUAWEI/Middlewares/Third_Party/Huawei/iot_link/driver\driver.c **** }
 161              		.loc 1 612 1 is_stmt 0 view .LVU25
 162 0010 0020     		movs	r0, #0
 163 0012 09B0     		add	sp, sp, #36
 164              	.LCFI3:
 165              		.cfi_remember_state
 166              		.cfi_def_cfa_offset 28
 167              		@ sp needed
 168 0014 BDE8F083 		pop	{r4, r5, r6, r7, r8, r9, pc}
 169              	.L34:
 170              	.LCFI4:
 171              		.cfi_restore_state
 172              	.LBB6:
 173              	.LBI6:
 586:D:/fchai/work/i-cube/I-CUBE-HUAWEI/Middlewares/Third_Party/Huawei/iot_link/driver\driver.c **** {
 174              		.loc 1 586 13 is_stmt 1 view .LVU26
 175              	.LVL10:
 176              	.LBB7:
 592:D:/fchai/work/i-cube/I-CUBE-HUAWEI/Middlewares/Third_Party/Huawei/iot_link/driver\driver.c ****         if(s_los_driv_module.drivnum != 0) //print all the driver
 177              		.loc 1 592 9 view .LVU27
 592:D:/fchai/work/i-cube/I-CUBE-HUAWEI/Middlewares/Third_Party/Huawei/iot_link/driver\driver.c ****         if(s_los_driv_module.drivnum != 0) //print all the driver
 178              		.loc 1 592 9 view .LVU28
 179 0018 FFF7FEFF 		bl	link_log_level_get
 180              	.LVL11:
 181 001c 0128     		cmp	r0, #1
 182 001e 3BD9     		bls	.L35
 183              	.L18:
 592:D:/fchai/work/i-cube/I-CUBE-HUAWEI/Middlewares/Third_Party/Huawei/iot_link/driver\driver.c ****         if(s_los_driv_module.drivnum != 0) //print all the driver
 184              		.loc 1 592 9 view .LVU29
 592:D:/fchai/work/i-cube/I-CUBE-HUAWEI/Middlewares/Third_Party/Huawei/iot_link/driver\driver.c ****         if(s_los_driv_module.drivnum != 0) //print all the driver
 185              		.loc 1 592 9 view .LVU30
 592:D:/fchai/work/i-cube/I-CUBE-HUAWEI/Middlewares/Third_Party/Huawei/iot_link/driver\driver.c ****         if(s_los_driv_module.drivnum != 0) //print all the driver
 186              		.loc 1 592 9 view .LVU31
 593:D:/fchai/work/i-cube/I-CUBE-HUAWEI/Middlewares/Third_Party/Huawei/iot_link/driver\driver.c ****         {
 187              		.loc 1 593 9 view .LVU32
 593:D:/fchai/work/i-cube/I-CUBE-HUAWEI/Middlewares/Third_Party/Huawei/iot_link/driver\driver.c ****         {
 188              		.loc 1 593 11 is_stmt 0 view .LVU33
 189 0020 AB68     		ldr	r3, [r5, #8]
 190 0022 33B9     		cbnz	r3, .L36
 191              	.L19:
 608:D:/fchai/work/i-cube/I-CUBE-HUAWEI/Middlewares/Third_Party/Huawei/iot_link/driver\driver.c ****     }
 192              		.loc 1 608 9 is_stmt 1 view .LVU34
 608:D:/fchai/work/i-cube/I-CUBE-HUAWEI/Middlewares/Third_Party/Huawei/iot_link/driver\driver.c ****     }
 193              		.loc 1 608 16 is_stmt 0 view .LVU35
 194 0024 2868     		ldr	r0, [r5]
 195 0026 FFF7FEFF 		bl	osal_mutex_unlock
 196              	.LVL12:
 608:D:/fchai/work/i-cube/I-CUBE-HUAWEI/Middlewares/Third_Party/Huawei/iot_link/driver\driver.c ****     }
 197              		.loc 1 608 16 view .LVU36
 198              	.LBE7:
 199              	.LBE6:
 611:D:/fchai/work/i-cube/I-CUBE-HUAWEI/Middlewares/Third_Party/Huawei/iot_link/driver\driver.c **** }
 200              		.loc 1 611 5 is_stmt 1 view .LVU37
 201              		.loc 1 612 1 is_stmt 0 view .LVU38
 202 002a 0020     		movs	r0, #0
 203 002c 09B0     		add	sp, sp, #36
 204              	.LCFI5:
ARM GAS  T:\msys\tmp\cc56R3EJ.s 			page 16


 205              		.cfi_remember_state
 206              		.cfi_def_cfa_offset 28
 207              		@ sp needed
 208 002e BDE8F083 		pop	{r4, r5, r6, r7, r8, r9, pc}
 209              	.LVL13:
 210              	.L36:
 211              	.LCFI6:
 212              		.cfi_restore_state
 213              	.LBB9:
 214              	.LBB8:
 596:D:/fchai/work/i-cube/I-CUBE-HUAWEI/Middlewares/Third_Party/Huawei/iot_link/driver\driver.c ****                 "drivername","flagmask","status","writbyte","readbyte","open","errno");
 215              		.loc 1 596 13 is_stmt 1 view .LVU39
 596:D:/fchai/work/i-cube/I-CUBE-HUAWEI/Middlewares/Third_Party/Huawei/iot_link/driver\driver.c ****                 "drivername","flagmask","status","writbyte","readbyte","open","errno");
 216              		.loc 1 596 13 view .LVU40
 217 0032 FFF7FEFF 		bl	link_log_level_get
 218              	.LVL14:
 219 0036 0128     		cmp	r0, #1
 220 0038 43D9     		bls	.L37
 221              	.L20:
 596:D:/fchai/work/i-cube/I-CUBE-HUAWEI/Middlewares/Third_Party/Huawei/iot_link/driver\driver.c ****                 "drivername","flagmask","status","writbyte","readbyte","open","errno");
 222              		.loc 1 596 13 view .LVU41
 596:D:/fchai/work/i-cube/I-CUBE-HUAWEI/Middlewares/Third_Party/Huawei/iot_link/driver\driver.c ****                 "drivername","flagmask","status","writbyte","readbyte","open","errno");
 223              		.loc 1 596 13 view .LVU42
 596:D:/fchai/work/i-cube/I-CUBE-HUAWEI/Middlewares/Third_Party/Huawei/iot_link/driver\driver.c ****                 "drivername","flagmask","status","writbyte","readbyte","open","errno");
 224              		.loc 1 596 13 view .LVU43
 599:D:/fchai/work/i-cube/I-CUBE-HUAWEI/Middlewares/Third_Party/Huawei/iot_link/driver\driver.c ****             while(NULL != driv)
 225              		.loc 1 599 13 view .LVU44
 599:D:/fchai/work/i-cube/I-CUBE-HUAWEI/Middlewares/Third_Party/Huawei/iot_link/driver\driver.c ****             while(NULL != driv)
 226              		.loc 1 599 18 is_stmt 0 view .LVU45
 227 003a 6C68     		ldr	r4, [r5, #4]
 228              	.LVL15:
 600:D:/fchai/work/i-cube/I-CUBE-HUAWEI/Middlewares/Third_Party/Huawei/iot_link/driver\driver.c ****             {
 229              		.loc 1 600 13 is_stmt 1 view .LVU46
 600:D:/fchai/work/i-cube/I-CUBE-HUAWEI/Middlewares/Third_Party/Huawei/iot_link/driver\driver.c ****             {
 230              		.loc 1 600 18 view .LVU47
 231 003c 002C     		cmp	r4, #0
 232 003e F1D0     		beq	.L19
 602:D:/fchai/work/i-cube/I-CUBE-HUAWEI/Middlewares/Third_Party/Huawei/iot_link/driver\driver.c ****                 driv->drivstatus,driv->total_write,driv->total_read,driv->opencounter,driv->errno);
 233              		.loc 1 602 17 is_stmt 0 view .LVU48
 234 0040 DFF8C890 		ldr	r9, .L38+8
 235 0044 DFF8EC80 		ldr	r8, .L38+48
 236 0048 2F4F     		ldr	r7, .L38+4
 237 004a 02E0     		b	.L22
 238              	.L21:
 602:D:/fchai/work/i-cube/I-CUBE-HUAWEI/Middlewares/Third_Party/Huawei/iot_link/driver\driver.c ****                 driv->drivstatus,driv->total_write,driv->total_read,driv->opencounter,driv->errno);
 239              		.loc 1 602 17 is_stmt 1 view .LVU49
 602:D:/fchai/work/i-cube/I-CUBE-HUAWEI/Middlewares/Third_Party/Huawei/iot_link/driver\driver.c ****                 driv->drivstatus,driv->total_write,driv->total_read,driv->opencounter,driv->errno);
 240              		.loc 1 602 17 view .LVU50
 602:D:/fchai/work/i-cube/I-CUBE-HUAWEI/Middlewares/Third_Party/Huawei/iot_link/driver\driver.c ****                 driv->drivstatus,driv->total_write,driv->total_read,driv->opencounter,driv->errno);
 241              		.loc 1 602 17 view .LVU51
 604:D:/fchai/work/i-cube/I-CUBE-HUAWEI/Middlewares/Third_Party/Huawei/iot_link/driver\driver.c ****             }
 242              		.loc 1 604 17 view .LVU52
 604:D:/fchai/work/i-cube/I-CUBE-HUAWEI/Middlewares/Third_Party/Huawei/iot_link/driver\driver.c ****             }
 243              		.loc 1 604 21 is_stmt 0 view .LVU53
 244 004c 2468     		ldr	r4, [r4]
 245              	.LVL16:
 600:D:/fchai/work/i-cube/I-CUBE-HUAWEI/Middlewares/Third_Party/Huawei/iot_link/driver\driver.c ****             {
ARM GAS  T:\msys\tmp\cc56R3EJ.s 			page 17


 246              		.loc 1 600 18 is_stmt 1 view .LVU54
 247 004e 002C     		cmp	r4, #0
 248 0050 E8D0     		beq	.L19
 249              	.L22:
 602:D:/fchai/work/i-cube/I-CUBE-HUAWEI/Middlewares/Third_Party/Huawei/iot_link/driver\driver.c ****                 driv->drivstatus,driv->total_write,driv->total_read,driv->opencounter,driv->errno);
 250              		.loc 1 602 17 view .LVU55
 602:D:/fchai/work/i-cube/I-CUBE-HUAWEI/Middlewares/Third_Party/Huawei/iot_link/driver\driver.c ****                 driv->drivstatus,driv->total_write,driv->total_read,driv->opencounter,driv->errno);
 251              		.loc 1 602 17 view .LVU56
 252 0052 FFF7FEFF 		bl	link_log_level_get
 253              	.LVL17:
 254 0056 0128     		cmp	r0, #1
 255 0058 F8D8     		bhi	.L21
 602:D:/fchai/work/i-cube/I-CUBE-HUAWEI/Middlewares/Third_Party/Huawei/iot_link/driver\driver.c ****                 driv->drivstatus,driv->total_write,driv->total_read,driv->opencounter,driv->errno);
 256              		.loc 1 602 17 view .LVU57
 602:D:/fchai/work/i-cube/I-CUBE-HUAWEI/Middlewares/Third_Party/Huawei/iot_link/driver\driver.c ****                 driv->drivstatus,driv->total_write,driv->total_read,driv->opencounter,driv->errno);
 257              		.loc 1 602 17 view .LVU58
 602:D:/fchai/work/i-cube/I-CUBE-HUAWEI/Middlewares/Third_Party/Huawei/iot_link/driver\driver.c ****                 driv->drivstatus,driv->total_write,driv->total_read,driv->opencounter,driv->errno);
 258              		.loc 1 602 17 view .LVU59
 259 005a 0120     		movs	r0, #1
 260 005c FFF7FEFF 		bl	link_log_level_name
 261              	.LVL18:
 262 0060 0646     		mov	r6, r0
 263 0062 FFF7FEFF 		bl	osal_sys_time
 264              	.LVL19:
 265 0066 A36A     		ldr	r3, [r4, #40]
 266 0068 0693     		str	r3, [sp, #24]
 267 006a 636A     		ldr	r3, [r4, #36]
 268 006c 0593     		str	r3, [sp, #20]
 269 006e 236A     		ldr	r3, [r4, #32]
 270 0070 0493     		str	r3, [sp, #16]
 271 0072 E369     		ldr	r3, [r4, #28]
 272 0074 0393     		str	r3, [sp, #12]
 273 0076 6369     		ldr	r3, [r4, #20]
 274 0078 0293     		str	r3, [sp, #8]
 275 007a E368     		ldr	r3, [r4, #12]
 276 007c 0193     		str	r3, [sp, #4]
 277 007e A368     		ldr	r3, [r4, #8]
 278 0080 0093     		str	r3, [sp]
 279 0082 0246     		mov	r2, r0
 280 0084 4B46     		mov	r3, r9
 281 0086 3146     		mov	r1, r6
 282 0088 4046     		mov	r0, r8
 283 008a FFF7FEFF 		bl	printf
 284              	.LVL20:
 602:D:/fchai/work/i-cube/I-CUBE-HUAWEI/Middlewares/Third_Party/Huawei/iot_link/driver\driver.c ****                 driv->drivstatus,driv->total_write,driv->total_read,driv->opencounter,driv->errno);
 285              		.loc 1 602 17 view .LVU60
 286 008e 3B68     		ldr	r3, [r7]
 287 0090 9868     		ldr	r0, [r3, #8]
 288 0092 FFF7FEFF 		bl	fflush
 289              	.LVL21:
 290 0096 D9E7     		b	.L21
 291              	.LVL22:
 292              	.L35:
 592:D:/fchai/work/i-cube/I-CUBE-HUAWEI/Middlewares/Third_Party/Huawei/iot_link/driver\driver.c ****         if(s_los_driv_module.drivnum != 0) //print all the driver
 293              		.loc 1 592 9 view .LVU61
 592:D:/fchai/work/i-cube/I-CUBE-HUAWEI/Middlewares/Third_Party/Huawei/iot_link/driver\driver.c ****         if(s_los_driv_module.drivnum != 0) //print all the driver
 294              		.loc 1 592 9 view .LVU62
ARM GAS  T:\msys\tmp\cc56R3EJ.s 			page 18


 592:D:/fchai/work/i-cube/I-CUBE-HUAWEI/Middlewares/Third_Party/Huawei/iot_link/driver\driver.c ****         if(s_los_driv_module.drivnum != 0) //print all the driver
 295              		.loc 1 592 9 view .LVU63
 296 0098 0120     		movs	r0, #1
 297 009a FFF7FEFF 		bl	link_log_level_name
 298              	.LVL23:
 299 009e 0446     		mov	r4, r0
 300 00a0 FFF7FEFF 		bl	osal_sys_time
 301              	.LVL24:
 302 00a4 194B     		ldr	r3, .L38+8
 303 00a6 AE68     		ldr	r6, [r5, #8]
 304 00a8 0093     		str	r3, [sp]
 305 00aa 0246     		mov	r2, r0
 306 00ac 2146     		mov	r1, r4
 307 00ae 0196     		str	r6, [sp, #4]
 308 00b0 1748     		ldr	r0, .L38+12
 309 00b2 FFF7FEFF 		bl	printf
 310              	.LVL25:
 592:D:/fchai/work/i-cube/I-CUBE-HUAWEI/Middlewares/Third_Party/Huawei/iot_link/driver\driver.c ****         if(s_los_driv_module.drivnum != 0) //print all the driver
 311              		.loc 1 592 9 view .LVU64
 312 00b6 144B     		ldr	r3, .L38+4
 313 00b8 1B68     		ldr	r3, [r3]
 314 00ba 9868     		ldr	r0, [r3, #8]
 315 00bc FFF7FEFF 		bl	fflush
 316              	.LVL26:
 317 00c0 AEE7     		b	.L18
 318              	.L37:
 596:D:/fchai/work/i-cube/I-CUBE-HUAWEI/Middlewares/Third_Party/Huawei/iot_link/driver\driver.c ****                 "drivername","flagmask","status","writbyte","readbyte","open","errno");
 319              		.loc 1 596 13 view .LVU65
 596:D:/fchai/work/i-cube/I-CUBE-HUAWEI/Middlewares/Third_Party/Huawei/iot_link/driver\driver.c ****                 "drivername","flagmask","status","writbyte","readbyte","open","errno");
 320              		.loc 1 596 13 view .LVU66
 596:D:/fchai/work/i-cube/I-CUBE-HUAWEI/Middlewares/Third_Party/Huawei/iot_link/driver\driver.c ****                 "drivername","flagmask","status","writbyte","readbyte","open","errno");
 321              		.loc 1 596 13 view .LVU67
 322 00c2 0120     		movs	r0, #1
 323 00c4 FFF7FEFF 		bl	link_log_level_name
 324              	.LVL27:
 325 00c8 0446     		mov	r4, r0
 326 00ca FFF7FEFF 		bl	osal_sys_time
 327              	.LVL28:
 328 00ce 114B     		ldr	r3, .L38+16
 329 00d0 0693     		str	r3, [sp, #24]
 330 00d2 1149     		ldr	r1, .L38+20
 331 00d4 114B     		ldr	r3, .L38+24
 332 00d6 0591     		str	r1, [sp, #20]
 333 00d8 0493     		str	r3, [sp, #16]
 334 00da 1149     		ldr	r1, .L38+28
 335 00dc 114B     		ldr	r3, .L38+32
 336 00de 0391     		str	r1, [sp, #12]
 337 00e0 0293     		str	r3, [sp, #8]
 338 00e2 1149     		ldr	r1, .L38+36
 339 00e4 114B     		ldr	r3, .L38+40
 340 00e6 0191     		str	r1, [sp, #4]
 341 00e8 0246     		mov	r2, r0
 342 00ea 0093     		str	r3, [sp]
 343 00ec 2146     		mov	r1, r4
 344 00ee 074B     		ldr	r3, .L38+8
 345 00f0 0F48     		ldr	r0, .L38+44
 346 00f2 FFF7FEFF 		bl	printf
ARM GAS  T:\msys\tmp\cc56R3EJ.s 			page 19


 347              	.LVL29:
 596:D:/fchai/work/i-cube/I-CUBE-HUAWEI/Middlewares/Third_Party/Huawei/iot_link/driver\driver.c ****                 "drivername","flagmask","status","writbyte","readbyte","open","errno");
 348              		.loc 1 596 13 view .LVU68
 349 00f6 044B     		ldr	r3, .L38+4
 350 00f8 1B68     		ldr	r3, [r3]
 351 00fa 9868     		ldr	r0, [r3, #8]
 352 00fc FFF7FEFF 		bl	fflush
 353              	.LVL30:
 354 0100 9BE7     		b	.L20
 355              	.L39:
 356 0102 00BF     		.align	2
 357              	.L38:
 358 0104 00000000 		.word	.LANCHOR0
 359 0108 00000000 		.word	_impure_ptr
 360 010c 00000000 		.word	.LANCHOR1
 361 0110 00000000 		.word	.LC0
 362 0114 60000000 		.word	.LC2
 363 0118 68000000 		.word	.LC3
 364 011c 70000000 		.word	.LC4
 365 0120 7C000000 		.word	.LC5
 366 0124 88000000 		.word	.LC6
 367 0128 90000000 		.word	.LC7
 368 012c 9C000000 		.word	.LC8
 369 0130 28000000 		.word	.LC1
 370 0134 A8000000 		.word	.LC9
 371              	.LBE8:
 372              	.LBE9:
 373              		.cfi_endproc
 374              	.LFE15:
 376              		.section	.text.los_driv_register,"ax",%progbits
 377              		.align	1
 378              		.p2align 2,,3
 379              		.global	los_driv_register
 380              		.syntax unified
 381              		.thumb
 382              		.thumb_func
 383              		.fpu fpv4-sp-d16
 385              	los_driv_register:
 386              	.LVL31:
 387              	.LFB4:
 108:D:/fchai/work/i-cube/I-CUBE-HUAWEI/Middlewares/Third_Party/Huawei/iot_link/driver\driver.c ****     struct driv_cb  *driv = NULL;
 388              		.loc 1 108 1 view -0
 389              		.cfi_startproc
 390              		@ args = 0, pretend = 0, frame = 0
 391              		@ frame_needed = 0, uses_anonymous_args = 0
 109:D:/fchai/work/i-cube/I-CUBE-HUAWEI/Middlewares/Third_Party/Huawei/iot_link/driver\driver.c **** 
 392              		.loc 1 109 5 view .LVU70
 111:D:/fchai/work/i-cube/I-CUBE-HUAWEI/Middlewares/Third_Party/Huawei/iot_link/driver\driver.c ****     {
 393              		.loc 1 111 5 view .LVU71
 111:D:/fchai/work/i-cube/I-CUBE-HUAWEI/Middlewares/Third_Party/Huawei/iot_link/driver\driver.c ****     {
 394              		.loc 1 111 7 is_stmt 0 view .LVU72
 395 0000 0368     		ldr	r3, [r0]
 108:D:/fchai/work/i-cube/I-CUBE-HUAWEI/Middlewares/Third_Party/Huawei/iot_link/driver\driver.c ****     struct driv_cb  *driv = NULL;
 396              		.loc 1 108 1 view .LVU73
 397 0002 70B5     		push	{r4, r5, r6, lr}
 398              	.LCFI7:
 399              		.cfi_def_cfa_offset 16
ARM GAS  T:\msys\tmp\cc56R3EJ.s 			page 20


 400              		.cfi_offset 4, -16
 401              		.cfi_offset 5, -12
 402              		.cfi_offset 6, -8
 403              		.cfi_offset 14, -4
 111:D:/fchai/work/i-cube/I-CUBE-HUAWEI/Middlewares/Third_Party/Huawei/iot_link/driver\driver.c ****     {
 404              		.loc 1 111 7 view .LVU74
 405 0004 6BB3     		cbz	r3, .L56
 111:D:/fchai/work/i-cube/I-CUBE-HUAWEI/Middlewares/Third_Party/Huawei/iot_link/driver\driver.c ****     {
 406              		.loc 1 111 28 discriminator 1 view .LVU75
 407 0006 4368     		ldr	r3, [r0, #4]
 408 0008 0546     		mov	r5, r0
 409 000a 53B3     		cbz	r3, .L56
 116:D:/fchai/work/i-cube/I-CUBE-HUAWEI/Middlewares/Third_Party/Huawei/iot_link/driver\driver.c ****     if(NULL == driv)
 410              		.loc 1 116 5 is_stmt 1 view .LVU76
 116:D:/fchai/work/i-cube/I-CUBE-HUAWEI/Middlewares/Third_Party/Huawei/iot_link/driver\driver.c ****     if(NULL == driv)
 411              		.loc 1 116 12 is_stmt 0 view .LVU77
 412 000c 2C20     		movs	r0, #44
 413              	.LVL32:
 116:D:/fchai/work/i-cube/I-CUBE-HUAWEI/Middlewares/Third_Party/Huawei/iot_link/driver\driver.c ****     if(NULL == driv)
 414              		.loc 1 116 12 view .LVU78
 415 000e FFF7FEFF 		bl	osal_malloc
 416              	.LVL33:
 117:D:/fchai/work/i-cube/I-CUBE-HUAWEI/Middlewares/Third_Party/Huawei/iot_link/driver\driver.c ****     {
 417              		.loc 1 117 5 is_stmt 1 view .LVU79
 117:D:/fchai/work/i-cube/I-CUBE-HUAWEI/Middlewares/Third_Party/Huawei/iot_link/driver\driver.c ****     {
 418              		.loc 1 117 7 is_stmt 0 view .LVU80
 419 0012 0446     		mov	r4, r0
 420 0014 28B3     		cbz	r0, .L56
 121:D:/fchai/work/i-cube/I-CUBE-HUAWEI/Middlewares/Third_Party/Huawei/iot_link/driver\driver.c **** 
 421              		.loc 1 121 5 is_stmt 1 view .LVU81
 121:D:/fchai/work/i-cube/I-CUBE-HUAWEI/Middlewares/Third_Party/Huawei/iot_link/driver\driver.c **** 
 422              		.loc 1 121 12 is_stmt 0 view .LVU82
 423 0016 2C22     		movs	r2, #44
 424 0018 0021     		movs	r1, #0
 425 001a FFF7FEFF 		bl	memset
 426              	.LVL34:
 124:D:/fchai/work/i-cube/I-CUBE-HUAWEI/Middlewares/Third_Party/Huawei/iot_link/driver\driver.c ****     driv->op = para->op;
 427              		.loc 1 124 5 is_stmt 1 view .LVU83
 125:D:/fchai/work/i-cube/I-CUBE-HUAWEI/Middlewares/Third_Party/Huawei/iot_link/driver\driver.c ****     driv->pri = para->pri;
 428              		.loc 1 125 14 is_stmt 0 view .LVU84
 429 001e D5E90023 		ldrd	r2, r3, [r5]
 130:D:/fchai/work/i-cube/I-CUBE-HUAWEI/Middlewares/Third_Party/Huawei/iot_link/driver\driver.c ****     {
 430              		.loc 1 130 17 view .LVU85
 431 0022 114E     		ldr	r6, .L58
 124:D:/fchai/work/i-cube/I-CUBE-HUAWEI/Middlewares/Third_Party/Huawei/iot_link/driver\driver.c ****     driv->op = para->op;
 432              		.loc 1 124 16 view .LVU86
 433 0024 A260     		str	r2, [r4, #8]
 125:D:/fchai/work/i-cube/I-CUBE-HUAWEI/Middlewares/Third_Party/Huawei/iot_link/driver\driver.c ****     driv->pri = para->pri;
 434              		.loc 1 125 5 is_stmt 1 view .LVU87
 126:D:/fchai/work/i-cube/I-CUBE-HUAWEI/Middlewares/Third_Party/Huawei/iot_link/driver\driver.c ****     driv->flagmask = para->flag;
 435              		.loc 1 126 15 is_stmt 0 view .LVU88
 436 0026 AA68     		ldr	r2, [r5, #8]
 125:D:/fchai/work/i-cube/I-CUBE-HUAWEI/Middlewares/Third_Party/Huawei/iot_link/driver\driver.c ****     driv->pri = para->pri;
 437              		.loc 1 125 14 view .LVU89
 438 0028 2361     		str	r3, [r4, #16]
 126:D:/fchai/work/i-cube/I-CUBE-HUAWEI/Middlewares/Third_Party/Huawei/iot_link/driver\driver.c ****     driv->flagmask = para->flag;
 439              		.loc 1 126 5 is_stmt 1 view .LVU90
ARM GAS  T:\msys\tmp\cc56R3EJ.s 			page 21


 127:D:/fchai/work/i-cube/I-CUBE-HUAWEI/Middlewares/Third_Party/Huawei/iot_link/driver\driver.c **** 
 440              		.loc 1 127 20 is_stmt 0 view .LVU91
 441 002a EB68     		ldr	r3, [r5, #12]
 130:D:/fchai/work/i-cube/I-CUBE-HUAWEI/Middlewares/Third_Party/Huawei/iot_link/driver\driver.c ****     {
 442              		.loc 1 130 17 view .LVU92
 443 002c 3068     		ldr	r0, [r6]
 126:D:/fchai/work/i-cube/I-CUBE-HUAWEI/Middlewares/Third_Party/Huawei/iot_link/driver\driver.c ****     driv->flagmask = para->flag;
 444              		.loc 1 126 15 view .LVU93
 445 002e 6260     		str	r2, [r4, #4]
 127:D:/fchai/work/i-cube/I-CUBE-HUAWEI/Middlewares/Third_Party/Huawei/iot_link/driver\driver.c **** 
 446              		.loc 1 127 5 is_stmt 1 view .LVU94
 127:D:/fchai/work/i-cube/I-CUBE-HUAWEI/Middlewares/Third_Party/Huawei/iot_link/driver\driver.c **** 
 447              		.loc 1 127 20 is_stmt 0 view .LVU95
 448 0030 E360     		str	r3, [r4, #12]
 130:D:/fchai/work/i-cube/I-CUBE-HUAWEI/Middlewares/Third_Party/Huawei/iot_link/driver\driver.c ****     {
 449              		.loc 1 130 5 is_stmt 1 view .LVU96
 130:D:/fchai/work/i-cube/I-CUBE-HUAWEI/Middlewares/Third_Party/Huawei/iot_link/driver\driver.c ****     {
 450              		.loc 1 130 17 is_stmt 0 view .LVU97
 451 0032 FFF7FEFF 		bl	osal_mutex_lock
 452              	.LVL35:
 130:D:/fchai/work/i-cube/I-CUBE-HUAWEI/Middlewares/Third_Party/Huawei/iot_link/driver\driver.c ****     {
 453              		.loc 1 130 7 view .LVU98
 454 0036 88B1     		cbz	r0, .L44
 135:D:/fchai/work/i-cube/I-CUBE-HUAWEI/Middlewares/Third_Party/Huawei/iot_link/driver\driver.c ****     {
 455              		.loc 1 135 5 is_stmt 1 view .LVU99
 135:D:/fchai/work/i-cube/I-CUBE-HUAWEI/Middlewares/Third_Party/Huawei/iot_link/driver\driver.c ****     {
 456              		.loc 1 135 16 is_stmt 0 view .LVU100
 457 0038 2868     		ldr	r0, [r5]
 458 003a FFF7FEFF 		bl	__driv_match
 459              	.LVL36:
 135:D:/fchai/work/i-cube/I-CUBE-HUAWEI/Middlewares/Third_Party/Huawei/iot_link/driver\driver.c ****     {
 460              		.loc 1 135 7 view .LVU101
 461 003e 50B9     		cbnz	r0, .L57
 140:D:/fchai/work/i-cube/I-CUBE-HUAWEI/Middlewares/Third_Party/Huawei/iot_link/driver\driver.c ****     s_los_driv_module.drivlst = driv;
 462              		.loc 1 140 5 is_stmt 1 view .LVU102
 140:D:/fchai/work/i-cube/I-CUBE-HUAWEI/Middlewares/Third_Party/Huawei/iot_link/driver\driver.c ****     s_los_driv_module.drivlst = driv;
 463              		.loc 1 140 15 is_stmt 0 view .LVU103
 464 0040 7368     		ldr	r3, [r6, #4]
 465 0042 2360     		str	r3, [r4]
 141:D:/fchai/work/i-cube/I-CUBE-HUAWEI/Middlewares/Third_Party/Huawei/iot_link/driver\driver.c ****     (void) osal_mutex_unlock(s_los_driv_module.lock);
 466              		.loc 1 141 5 is_stmt 1 view .LVU104
 142:D:/fchai/work/i-cube/I-CUBE-HUAWEI/Middlewares/Third_Party/Huawei/iot_link/driver\driver.c **** 
 467              		.loc 1 142 12 is_stmt 0 view .LVU105
 468 0044 3068     		ldr	r0, [r6]
 141:D:/fchai/work/i-cube/I-CUBE-HUAWEI/Middlewares/Third_Party/Huawei/iot_link/driver\driver.c ****     (void) osal_mutex_unlock(s_los_driv_module.lock);
 469              		.loc 1 141 31 view .LVU106
 470 0046 7460     		str	r4, [r6, #4]
 142:D:/fchai/work/i-cube/I-CUBE-HUAWEI/Middlewares/Third_Party/Huawei/iot_link/driver\driver.c **** 
 471              		.loc 1 142 5 is_stmt 1 view .LVU107
 142:D:/fchai/work/i-cube/I-CUBE-HUAWEI/Middlewares/Third_Party/Huawei/iot_link/driver\driver.c **** 
 472              		.loc 1 142 12 is_stmt 0 view .LVU108
 473 0048 FFF7FEFF 		bl	osal_mutex_unlock
 474              	.LVL37:
 144:D:/fchai/work/i-cube/I-CUBE-HUAWEI/Middlewares/Third_Party/Huawei/iot_link/driver\driver.c **** 
 475              		.loc 1 144 5 is_stmt 1 view .LVU109
 144:D:/fchai/work/i-cube/I-CUBE-HUAWEI/Middlewares/Third_Party/Huawei/iot_link/driver\driver.c **** 
 476              		.loc 1 144 30 is_stmt 0 view .LVU110
ARM GAS  T:\msys\tmp\cc56R3EJ.s 			page 22


 477 004c B368     		ldr	r3, [r6, #8]
 478 004e 0133     		adds	r3, r3, #1
 479 0050 B360     		str	r3, [r6, #8]
 146:D:/fchai/work/i-cube/I-CUBE-HUAWEI/Middlewares/Third_Party/Huawei/iot_link/driver\driver.c **** 
 480              		.loc 1 146 5 is_stmt 1 view .LVU111
 157:D:/fchai/work/i-cube/I-CUBE-HUAWEI/Middlewares/Third_Party/Huawei/iot_link/driver\driver.c **** 
 481              		.loc 1 157 1 is_stmt 0 view .LVU112
 482 0052 2046     		mov	r0, r4
 483 0054 70BD     		pop	{r4, r5, r6, pc}
 484              	.LVL38:
 485              	.L57:
 137:D:/fchai/work/i-cube/I-CUBE-HUAWEI/Middlewares/Third_Party/Huawei/iot_link/driver\driver.c ****     }
 486              		.loc 1 137 9 is_stmt 1 view .LVU113
 487              	.LDL1:
 150:D:/fchai/work/i-cube/I-CUBE-HUAWEI/Middlewares/Third_Party/Huawei/iot_link/driver\driver.c **** EXIT_MUTEX:
 488              		.loc 1 150 5 view .LVU114
 150:D:/fchai/work/i-cube/I-CUBE-HUAWEI/Middlewares/Third_Party/Huawei/iot_link/driver\driver.c **** EXIT_MUTEX:
 489              		.loc 1 150 12 is_stmt 0 view .LVU115
 490 0056 3068     		ldr	r0, [r6]
 491 0058 FFF7FEFF 		bl	osal_mutex_unlock
 492              	.LVL39:
 493              	.L44:
 152:D:/fchai/work/i-cube/I-CUBE-HUAWEI/Middlewares/Third_Party/Huawei/iot_link/driver\driver.c ****     driv = NULL;
 494              		.loc 1 152 5 is_stmt 1 view .LVU116
 495 005c 2046     		mov	r0, r4
 496 005e FFF7FEFF 		bl	osal_free
 497              	.LVL40:
 498              	.L56:
 153:D:/fchai/work/i-cube/I-CUBE-HUAWEI/Middlewares/Third_Party/Huawei/iot_link/driver\driver.c **** EXIT_MALLOC:
 499              		.loc 1 153 5 view .LVU117
 156:D:/fchai/work/i-cube/I-CUBE-HUAWEI/Middlewares/Third_Party/Huawei/iot_link/driver\driver.c **** }
 500              		.loc 1 156 12 is_stmt 0 view .LVU118
 501 0062 0024     		movs	r4, #0
 502              	.LVL41:
 157:D:/fchai/work/i-cube/I-CUBE-HUAWEI/Middlewares/Third_Party/Huawei/iot_link/driver\driver.c **** 
 503              		.loc 1 157 1 view .LVU119
 504 0064 2046     		mov	r0, r4
 505 0066 70BD     		pop	{r4, r5, r6, pc}
 506              	.L59:
 507              		.align	2
 508              	.L58:
 509 0068 00000000 		.word	.LANCHOR0
 510              		.cfi_endproc
 511              	.LFE4:
 513              		.section	.text.los_driv_unregister,"ax",%progbits
 514              		.align	1
 515              		.p2align 2,,3
 516              		.global	los_driv_unregister
 517              		.syntax unified
 518              		.thumb
 519              		.thumb_func
 520              		.fpu fpv4-sp-d16
 522              	los_driv_unregister:
 523              	.LVL42:
 524              	.LFB5:
 165:D:/fchai/work/i-cube/I-CUBE-HUAWEI/Middlewares/Third_Party/Huawei/iot_link/driver\driver.c ****     struct driv_cb *tmp = NULL;
 525              		.loc 1 165 1 is_stmt 1 view -0
ARM GAS  T:\msys\tmp\cc56R3EJ.s 			page 23


 526              		.cfi_startproc
 527              		@ args = 0, pretend = 0, frame = 0
 528              		@ frame_needed = 0, uses_anonymous_args = 0
 166:D:/fchai/work/i-cube/I-CUBE-HUAWEI/Middlewares/Third_Party/Huawei/iot_link/driver\driver.c ****     struct driv_cb *pre = NULL;
 529              		.loc 1 166 5 view .LVU121
 167:D:/fchai/work/i-cube/I-CUBE-HUAWEI/Middlewares/Third_Party/Huawei/iot_link/driver\driver.c ****     bool_t         ret = false;
 530              		.loc 1 167 5 view .LVU122
 168:D:/fchai/work/i-cube/I-CUBE-HUAWEI/Middlewares/Third_Party/Huawei/iot_link/driver\driver.c ****     if(NULL == name)
 531              		.loc 1 168 5 view .LVU123
 169:D:/fchai/work/i-cube/I-CUBE-HUAWEI/Middlewares/Third_Party/Huawei/iot_link/driver\driver.c ****     {
 532              		.loc 1 169 5 view .LVU124
 165:D:/fchai/work/i-cube/I-CUBE-HUAWEI/Middlewares/Third_Party/Huawei/iot_link/driver\driver.c ****     struct driv_cb *tmp = NULL;
 533              		.loc 1 165 1 is_stmt 0 view .LVU125
 534 0000 F8B5     		push	{r3, r4, r5, r6, r7, lr}
 535              	.LCFI8:
 536              		.cfi_def_cfa_offset 24
 537              		.cfi_offset 3, -24
 538              		.cfi_offset 4, -20
 539              		.cfi_offset 5, -16
 540              		.cfi_offset 6, -12
 541              		.cfi_offset 7, -8
 542              		.cfi_offset 14, -4
 169:D:/fchai/work/i-cube/I-CUBE-HUAWEI/Middlewares/Third_Party/Huawei/iot_link/driver\driver.c ****     {
 543              		.loc 1 169 7 view .LVU126
 544 0002 10B3     		cbz	r0, .L63
 174:D:/fchai/work/i-cube/I-CUBE-HUAWEI/Middlewares/Third_Party/Huawei/iot_link/driver\driver.c ****     {
 545              		.loc 1 174 5 is_stmt 1 view .LVU127
 174:D:/fchai/work/i-cube/I-CUBE-HUAWEI/Middlewares/Third_Party/Huawei/iot_link/driver\driver.c ****     {
 546              		.loc 1 174 8 is_stmt 0 view .LVU128
 547 0004 144F     		ldr	r7, .L79
 548 0006 0546     		mov	r5, r0
 549 0008 3868     		ldr	r0, [r7]
 550              	.LVL43:
 174:D:/fchai/work/i-cube/I-CUBE-HUAWEI/Middlewares/Third_Party/Huawei/iot_link/driver\driver.c ****     {
 551              		.loc 1 174 8 view .LVU129
 552 000a FFF7FEFF 		bl	osal_mutex_lock
 553              	.LVL44:
 174:D:/fchai/work/i-cube/I-CUBE-HUAWEI/Middlewares/Third_Party/Huawei/iot_link/driver\driver.c ****     {
 554              		.loc 1 174 7 view .LVU130
 555 000e E0B1     		cbz	r0, .L63
 176:D:/fchai/work/i-cube/I-CUBE-HUAWEI/Middlewares/Third_Party/Huawei/iot_link/driver\driver.c ****         pre = NULL;
 556              		.loc 1 176 9 is_stmt 1 view .LVU131
 176:D:/fchai/work/i-cube/I-CUBE-HUAWEI/Middlewares/Third_Party/Huawei/iot_link/driver\driver.c ****         pre = NULL;
 557              		.loc 1 176 13 is_stmt 0 view .LVU132
 558 0010 7C68     		ldr	r4, [r7, #4]
 559              	.LVL45:
 177:D:/fchai/work/i-cube/I-CUBE-HUAWEI/Middlewares/Third_Party/Huawei/iot_link/driver\driver.c ****         while(NULL != tmp)
 560              		.loc 1 177 9 is_stmt 1 view .LVU133
 178:D:/fchai/work/i-cube/I-CUBE-HUAWEI/Middlewares/Third_Party/Huawei/iot_link/driver\driver.c ****         {
 561              		.loc 1 178 9 view .LVU134
 178:D:/fchai/work/i-cube/I-CUBE-HUAWEI/Middlewares/Third_Party/Huawei/iot_link/driver\driver.c ****         {
 562              		.loc 1 178 14 view .LVU135
 563 0012 ACB1     		cbz	r4, .L64
 177:D:/fchai/work/i-cube/I-CUBE-HUAWEI/Middlewares/Third_Party/Huawei/iot_link/driver\driver.c ****         while(NULL != tmp)
 564              		.loc 1 177 13 is_stmt 0 view .LVU136
 565 0014 0026     		movs	r6, #0
 566 0016 03E0     		b	.L66
ARM GAS  T:\msys\tmp\cc56R3EJ.s 			page 24


 567              	.LVL46:
 568              	.L77:
 185:D:/fchai/work/i-cube/I-CUBE-HUAWEI/Middlewares/Third_Party/Huawei/iot_link/driver\driver.c ****         }
 569              		.loc 1 185 17 view .LVU137
 570 0018 2368     		ldr	r3, [r4]
 571              	.LVL47:
 178:D:/fchai/work/i-cube/I-CUBE-HUAWEI/Middlewares/Third_Party/Huawei/iot_link/driver\driver.c ****         {
 572              		.loc 1 178 14 is_stmt 1 view .LVU138
 573 001a 2646     		mov	r6, r4
 574 001c 1C46     		mov	r4, r3
 575              	.LVL48:
 178:D:/fchai/work/i-cube/I-CUBE-HUAWEI/Middlewares/Third_Party/Huawei/iot_link/driver\driver.c ****         {
 576              		.loc 1 178 14 is_stmt 0 view .LVU139
 577 001e 7BB1     		cbz	r3, .L64
 578              	.LVL49:
 579              	.L66:
 180:D:/fchai/work/i-cube/I-CUBE-HUAWEI/Middlewares/Third_Party/Huawei/iot_link/driver\driver.c ****             {
 580              		.loc 1 180 13 is_stmt 1 view .LVU140
 180:D:/fchai/work/i-cube/I-CUBE-HUAWEI/Middlewares/Third_Party/Huawei/iot_link/driver\driver.c ****             {
 581              		.loc 1 180 22 is_stmt 0 view .LVU141
 582 0020 A168     		ldr	r1, [r4, #8]
 583 0022 2846     		mov	r0, r5
 584 0024 FFF7FEFF 		bl	strcmp
 585              	.LVL50:
 184:D:/fchai/work/i-cube/I-CUBE-HUAWEI/Middlewares/Third_Party/Huawei/iot_link/driver\driver.c ****             tmp = tmp->nxt;
 586              		.loc 1 184 13 is_stmt 1 view .LVU142
 185:D:/fchai/work/i-cube/I-CUBE-HUAWEI/Middlewares/Third_Party/Huawei/iot_link/driver\driver.c ****         }
 587              		.loc 1 185 13 view .LVU143
 180:D:/fchai/work/i-cube/I-CUBE-HUAWEI/Middlewares/Third_Party/Huawei/iot_link/driver\driver.c ****             {
 588              		.loc 1 180 15 is_stmt 0 view .LVU144
 589 0028 0028     		cmp	r0, #0
 590 002a F5D1     		bne	.L77
 187:D:/fchai/work/i-cube/I-CUBE-HUAWEI/Middlewares/Third_Party/Huawei/iot_link/driver\driver.c ****         {
 591              		.loc 1 187 9 is_stmt 1 view .LVU145
 189:D:/fchai/work/i-cube/I-CUBE-HUAWEI/Middlewares/Third_Party/Huawei/iot_link/driver\driver.c ****             {
 592              		.loc 1 189 13 view .LVU146
 189:D:/fchai/work/i-cube/I-CUBE-HUAWEI/Middlewares/Third_Party/Huawei/iot_link/driver\driver.c ****             {
 593              		.loc 1 189 15 is_stmt 0 view .LVU147
 594 002c 86B1     		cbz	r6, .L78
 195:D:/fchai/work/i-cube/I-CUBE-HUAWEI/Middlewares/Third_Party/Huawei/iot_link/driver\driver.c ****             }
 595              		.loc 1 195 17 is_stmt 1 view .LVU148
 195:D:/fchai/work/i-cube/I-CUBE-HUAWEI/Middlewares/Third_Party/Huawei/iot_link/driver\driver.c ****             }
 596              		.loc 1 195 31 is_stmt 0 view .LVU149
 597 002e 2368     		ldr	r3, [r4]
 195:D:/fchai/work/i-cube/I-CUBE-HUAWEI/Middlewares/Third_Party/Huawei/iot_link/driver\driver.c ****             }
 598              		.loc 1 195 26 view .LVU150
 599 0030 3360     		str	r3, [r6]
 600              	.L67:
 198:D:/fchai/work/i-cube/I-CUBE-HUAWEI/Middlewares/Third_Party/Huawei/iot_link/driver\driver.c ****             ret = true;
 601              		.loc 1 198 13 is_stmt 1 view .LVU151
 602 0032 2046     		mov	r0, r4
 603 0034 FFF7FEFF 		bl	osal_free
 604              	.LVL51:
 199:D:/fchai/work/i-cube/I-CUBE-HUAWEI/Middlewares/Third_Party/Huawei/iot_link/driver\driver.c **** 
 605              		.loc 1 199 13 view .LVU152
 201:D:/fchai/work/i-cube/I-CUBE-HUAWEI/Middlewares/Third_Party/Huawei/iot_link/driver\driver.c ****         }
 606              		.loc 1 201 13 view .LVU153
ARM GAS  T:\msys\tmp\cc56R3EJ.s 			page 25


 201:D:/fchai/work/i-cube/I-CUBE-HUAWEI/Middlewares/Third_Party/Huawei/iot_link/driver\driver.c ****         }
 607              		.loc 1 201 38 is_stmt 0 view .LVU154
 608 0038 BB68     		ldr	r3, [r7, #8]
 609 003a 013B     		subs	r3, r3, #1
 610 003c BB60     		str	r3, [r7, #8]
 199:D:/fchai/work/i-cube/I-CUBE-HUAWEI/Middlewares/Third_Party/Huawei/iot_link/driver\driver.c **** 
 611              		.loc 1 199 17 view .LVU155
 612 003e 0124     		movs	r4, #1
 613              	.LVL52:
 614              	.L64:
 204:D:/fchai/work/i-cube/I-CUBE-HUAWEI/Middlewares/Third_Party/Huawei/iot_link/driver\driver.c ****     }
 615              		.loc 1 204 9 is_stmt 1 view .LVU156
 204:D:/fchai/work/i-cube/I-CUBE-HUAWEI/Middlewares/Third_Party/Huawei/iot_link/driver\driver.c ****     }
 616              		.loc 1 204 16 is_stmt 0 view .LVU157
 617 0040 3868     		ldr	r0, [r7]
 618 0042 FFF7FEFF 		bl	osal_mutex_unlock
 619              	.LVL53:
 208:D:/fchai/work/i-cube/I-CUBE-HUAWEI/Middlewares/Third_Party/Huawei/iot_link/driver\driver.c **** 
 620              		.loc 1 208 1 view .LVU158
 621 0046 2046     		mov	r0, r4
 622 0048 F8BD     		pop	{r3, r4, r5, r6, r7, pc}
 623              	.LVL54:
 624              	.L63:
 171:D:/fchai/work/i-cube/I-CUBE-HUAWEI/Middlewares/Third_Party/Huawei/iot_link/driver\driver.c ****     }
 625              		.loc 1 171 16 view .LVU159
 626 004a 0024     		movs	r4, #0
 208:D:/fchai/work/i-cube/I-CUBE-HUAWEI/Middlewares/Third_Party/Huawei/iot_link/driver\driver.c **** 
 627              		.loc 1 208 1 view .LVU160
 628 004c 2046     		mov	r0, r4
 629 004e F8BD     		pop	{r3, r4, r5, r6, r7, pc}
 630              	.LVL55:
 631              	.L78:
 191:D:/fchai/work/i-cube/I-CUBE-HUAWEI/Middlewares/Third_Party/Huawei/iot_link/driver\driver.c ****             }
 632              		.loc 1 191 17 is_stmt 1 view .LVU161
 191:D:/fchai/work/i-cube/I-CUBE-HUAWEI/Middlewares/Third_Party/Huawei/iot_link/driver\driver.c ****             }
 633              		.loc 1 191 43 is_stmt 0 view .LVU162
 634 0050 2368     		ldr	r3, [r4]
 635 0052 7B60     		str	r3, [r7, #4]
 636 0054 EDE7     		b	.L67
 637              	.L80:
 638 0056 00BF     		.align	2
 639              	.L79:
 640 0058 00000000 		.word	.LANCHOR0
 641              		.cfi_endproc
 642              	.LFE5:
 644              		.section	.text.los_driv_event,"ax",%progbits
 645              		.align	1
 646              		.p2align 2,,3
 647              		.global	los_driv_event
 648              		.syntax unified
 649              		.thumb
 650              		.thumb_func
 651              		.fpu fpv4-sp-d16
 653              	los_driv_event:
 654              	.LVL56:
 655              	.LFB6:
 216:D:/fchai/work/i-cube/I-CUBE-HUAWEI/Middlewares/Third_Party/Huawei/iot_link/driver\driver.c ****     return false;
ARM GAS  T:\msys\tmp\cc56R3EJ.s 			page 26


 656              		.loc 1 216 1 is_stmt 1 view -0
 657              		.cfi_startproc
 658              		@ args = 0, pretend = 0, frame = 0
 659              		@ frame_needed = 0, uses_anonymous_args = 0
 660              		@ link register save eliminated.
 217:D:/fchai/work/i-cube/I-CUBE-HUAWEI/Middlewares/Third_Party/Huawei/iot_link/driver\driver.c **** }
 661              		.loc 1 217 5 view .LVU164
 218:D:/fchai/work/i-cube/I-CUBE-HUAWEI/Middlewares/Third_Party/Huawei/iot_link/driver\driver.c **** 
 662              		.loc 1 218 1 is_stmt 0 view .LVU165
 663 0000 0020     		movs	r0, #0
 664              	.LVL57:
 218:D:/fchai/work/i-cube/I-CUBE-HUAWEI/Middlewares/Third_Party/Huawei/iot_link/driver\driver.c **** 
 665              		.loc 1 218 1 view .LVU166
 666 0002 7047     		bx	lr
 667              		.cfi_endproc
 668              	.LFE6:
 670              		.section	.text.los_driv_init,"ax",%progbits
 671              		.align	1
 672              		.p2align 2,,3
 673              		.global	los_driv_init
 674              		.syntax unified
 675              		.thumb
 676              		.thumb_func
 677              		.fpu fpv4-sp-d16
 679              	los_driv_init:
 680              	.LFB8:
 262:D:/fchai/work/i-cube/I-CUBE-HUAWEI/Middlewares/Third_Party/Huawei/iot_link/driver\driver.c ****     bool_t ret = false;
 681              		.loc 1 262 1 is_stmt 1 view -0
 682              		.cfi_startproc
 683              		@ args = 0, pretend = 0, frame = 0
 684              		@ frame_needed = 0, uses_anonymous_args = 0
 263:D:/fchai/work/i-cube/I-CUBE-HUAWEI/Middlewares/Third_Party/Huawei/iot_link/driver\driver.c **** 
 685              		.loc 1 263 5 view .LVU168
 686              	.LVL58:
 265:D:/fchai/work/i-cube/I-CUBE-HUAWEI/Middlewares/Third_Party/Huawei/iot_link/driver\driver.c ****     if(false == ret)
 687              		.loc 1 265 5 view .LVU169
 262:D:/fchai/work/i-cube/I-CUBE-HUAWEI/Middlewares/Third_Party/Huawei/iot_link/driver\driver.c ****     bool_t ret = false;
 688              		.loc 1 262 1 is_stmt 0 view .LVU170
 689 0000 70B5     		push	{r4, r5, r6, lr}
 690              	.LCFI9:
 691              		.cfi_def_cfa_offset 16
 692              		.cfi_offset 4, -16
 693              		.cfi_offset 5, -12
 694              		.cfi_offset 6, -8
 695              		.cfi_offset 14, -4
 265:D:/fchai/work/i-cube/I-CUBE-HUAWEI/Middlewares/Third_Party/Huawei/iot_link/driver\driver.c ****     if(false == ret)
 696              		.loc 1 265 11 view .LVU171
 697 0002 0A48     		ldr	r0, .L93
 698 0004 FFF7FEFF 		bl	osal_mutex_create
 699              	.LVL59:
 266:D:/fchai/work/i-cube/I-CUBE-HUAWEI/Middlewares/Third_Party/Huawei/iot_link/driver\driver.c ****     {
 700              		.loc 1 266 5 is_stmt 1 view .LVU172
 266:D:/fchai/work/i-cube/I-CUBE-HUAWEI/Middlewares/Third_Party/Huawei/iot_link/driver\driver.c ****     {
 701              		.loc 1 266 7 is_stmt 0 view .LVU173
 702 0008 0646     		mov	r6, r0
 703 000a 60B1     		cbz	r0, .L82
 272:D:/fchai/work/i-cube/I-CUBE-HUAWEI/Middlewares/Third_Party/Huawei/iot_link/driver\driver.c **** 
ARM GAS  T:\msys\tmp\cc56R3EJ.s 			page 27


 704              		.loc 1 272 5 is_stmt 1 view .LVU174
 705              	.LBB10:
 706              	.LBI10:
 233:D:/fchai/work/i-cube/I-CUBE-HUAWEI/Middlewares/Third_Party/Huawei/iot_link/driver\driver.c **** 
 707              		.loc 1 233 13 view .LVU175
 708              	.LBB11:
 235:D:/fchai/work/i-cube/I-CUBE-HUAWEI/Middlewares/Third_Party/Huawei/iot_link/driver\driver.c ****     unsigned int num = 0;
 709              		.loc 1 235 5 view .LVU176
 236:D:/fchai/work/i-cube/I-CUBE-HUAWEI/Middlewares/Third_Party/Huawei/iot_link/driver\driver.c ****     unsigned int i = 0;
 710              		.loc 1 236 5 view .LVU177
 711              	.LVL60:
 237:D:/fchai/work/i-cube/I-CUBE-HUAWEI/Middlewares/Third_Party/Huawei/iot_link/driver\driver.c **** #if defined (__CC_ARM)    //you could add other compiler like this
 712              		.loc 1 237 5 view .LVU178
 243:D:/fchai/work/i-cube/I-CUBE-HUAWEI/Middlewares/Third_Party/Huawei/iot_link/driver\driver.c ****     num = ((unsigned int )(uintptr_t)&__osdriv_end - (unsigned int)(uintptr_t)&__osdriv_start)/size
 713              		.loc 1 243 5 view .LVU179
 244:D:/fchai/work/i-cube/I-CUBE-HUAWEI/Middlewares/Third_Party/Huawei/iot_link/driver\driver.c **** #endif
 714              		.loc 1 244 5 view .LVU180
 244:D:/fchai/work/i-cube/I-CUBE-HUAWEI/Middlewares/Third_Party/Huawei/iot_link/driver\driver.c **** #endif
 715              		.loc 1 244 52 is_stmt 0 view .LVU181
 716 000c 084D     		ldr	r5, .L93+4
 717 000e 094C     		ldr	r4, .L93+8
 718 0010 2D1B     		subs	r5, r5, r4
 719              	.LVL61:
 246:D:/fchai/work/i-cube/I-CUBE-HUAWEI/Middlewares/Third_Party/Huawei/iot_link/driver\driver.c ****     {
 720              		.loc 1 246 5 is_stmt 1 view .LVU182
 246:D:/fchai/work/i-cube/I-CUBE-HUAWEI/Middlewares/Third_Party/Huawei/iot_link/driver\driver.c ****     {
 721              		.loc 1 246 14 view .LVU183
 246:D:/fchai/work/i-cube/I-CUBE-HUAWEI/Middlewares/Third_Party/Huawei/iot_link/driver\driver.c ****     {
 722              		.loc 1 246 5 is_stmt 0 view .LVU184
 723 0012 2D09     		lsrs	r5, r5, #4
 724              	.LVL62:
 246:D:/fchai/work/i-cube/I-CUBE-HUAWEI/Middlewares/Third_Party/Huawei/iot_link/driver\driver.c ****     {
 725              		.loc 1 246 5 view .LVU185
 726 0014 07D0     		beq	.L82
 727 0016 04EB0515 		add	r5, r4, r5, lsl #4
 728              	.LVL63:
 729              	.L84:
 248:D:/fchai/work/i-cube/I-CUBE-HUAWEI/Middlewares/Third_Party/Huawei/iot_link/driver\driver.c ****         para++;
 730              		.loc 1 248 9 is_stmt 1 view .LVU186
 248:D:/fchai/work/i-cube/I-CUBE-HUAWEI/Middlewares/Third_Party/Huawei/iot_link/driver\driver.c ****         para++;
 731              		.loc 1 248 16 is_stmt 0 view .LVU187
 732 001a 2046     		mov	r0, r4
 249:D:/fchai/work/i-cube/I-CUBE-HUAWEI/Middlewares/Third_Party/Huawei/iot_link/driver\driver.c ****     }
 733              		.loc 1 249 13 view .LVU188
 734 001c 1034     		adds	r4, r4, #16
 735              	.LVL64:
 248:D:/fchai/work/i-cube/I-CUBE-HUAWEI/Middlewares/Third_Party/Huawei/iot_link/driver\driver.c ****         para++;
 736              		.loc 1 248 16 view .LVU189
 737 001e FFF7FEFF 		bl	los_driv_register
 738              	.LVL65:
 249:D:/fchai/work/i-cube/I-CUBE-HUAWEI/Middlewares/Third_Party/Huawei/iot_link/driver\driver.c ****     }
 739              		.loc 1 249 9 is_stmt 1 view .LVU190
 246:D:/fchai/work/i-cube/I-CUBE-HUAWEI/Middlewares/Third_Party/Huawei/iot_link/driver\driver.c ****     {
 740              		.loc 1 246 20 view .LVU191
 246:D:/fchai/work/i-cube/I-CUBE-HUAWEI/Middlewares/Third_Party/Huawei/iot_link/driver\driver.c ****     {
 741              		.loc 1 246 14 view .LVU192
 246:D:/fchai/work/i-cube/I-CUBE-HUAWEI/Middlewares/Third_Party/Huawei/iot_link/driver\driver.c ****     {
ARM GAS  T:\msys\tmp\cc56R3EJ.s 			page 28


 742              		.loc 1 246 5 is_stmt 0 view .LVU193
 743 0022 AC42     		cmp	r4, r5
 744 0024 F9D1     		bne	.L84
 745              	.LVL66:
 746              	.L82:
 246:D:/fchai/work/i-cube/I-CUBE-HUAWEI/Middlewares/Third_Party/Huawei/iot_link/driver\driver.c ****     {
 747              		.loc 1 246 5 view .LVU194
 748              	.LBE11:
 749              	.LBE10:
 276:D:/fchai/work/i-cube/I-CUBE-HUAWEI/Middlewares/Third_Party/Huawei/iot_link/driver\driver.c **** 
 750              		.loc 1 276 1 view .LVU195
 751 0026 3046     		mov	r0, r6
 752 0028 70BD     		pop	{r4, r5, r6, pc}
 753              	.LVL67:
 754              	.L94:
 276:D:/fchai/work/i-cube/I-CUBE-HUAWEI/Middlewares/Third_Party/Huawei/iot_link/driver\driver.c **** 
 755              		.loc 1 276 1 view .LVU196
 756 002a 00BF     		.align	2
 757              	.L93:
 758 002c 00000000 		.word	.LANCHOR0
 759 0030 00000000 		.word	__osdriv_end
 760 0034 00000000 		.word	__osdriv_start
 761              		.cfi_endproc
 762              	.LFE8:
 764              		.section	.text.los_dev_open,"ax",%progbits
 765              		.align	1
 766              		.p2align 2,,3
 767              		.global	los_dev_open
 768              		.syntax unified
 769              		.thumb
 770              		.thumb_func
 771              		.fpu fpv4-sp-d16
 773              	los_dev_open:
 774              	.LVL68:
 775              	.LFB9:
 296:D:/fchai/work/i-cube/I-CUBE-HUAWEI/Middlewares/Third_Party/Huawei/iot_link/driver\driver.c ****     bool_t opret = true;           //operate result
 776              		.loc 1 296 1 is_stmt 1 view -0
 777              		.cfi_startproc
 778              		@ args = 0, pretend = 0, frame = 0
 779              		@ frame_needed = 0, uses_anonymous_args = 0
 297:D:/fchai/work/i-cube/I-CUBE-HUAWEI/Middlewares/Third_Party/Huawei/iot_link/driver\driver.c ****     struct driv_cb *driv = NULL;   //the driver attached
 780              		.loc 1 297 5 view .LVU198
 298:D:/fchai/work/i-cube/I-CUBE-HUAWEI/Middlewares/Third_Party/Huawei/iot_link/driver\driver.c ****     struct dev_cb  *dev = NULL;    //the device opened
 781              		.loc 1 298 5 view .LVU199
 299:D:/fchai/work/i-cube/I-CUBE-HUAWEI/Middlewares/Third_Party/Huawei/iot_link/driver\driver.c ****     if ( NULL == name )
 782              		.loc 1 299 5 view .LVU200
 300:D:/fchai/work/i-cube/I-CUBE-HUAWEI/Middlewares/Third_Party/Huawei/iot_link/driver\driver.c ****     {
 783              		.loc 1 300 5 view .LVU201
 296:D:/fchai/work/i-cube/I-CUBE-HUAWEI/Middlewares/Third_Party/Huawei/iot_link/driver\driver.c ****     bool_t opret = true;           //operate result
 784              		.loc 1 296 1 is_stmt 0 view .LVU202
 785 0000 F8B5     		push	{r3, r4, r5, r6, r7, lr}
 786              	.LCFI10:
 787              		.cfi_def_cfa_offset 24
 788              		.cfi_offset 3, -24
 789              		.cfi_offset 4, -20
 790              		.cfi_offset 5, -16
 791              		.cfi_offset 6, -12
ARM GAS  T:\msys\tmp\cc56R3EJ.s 			page 29


 792              		.cfi_offset 7, -8
 793              		.cfi_offset 14, -4
 300:D:/fchai/work/i-cube/I-CUBE-HUAWEI/Middlewares/Third_Party/Huawei/iot_link/driver\driver.c ****     {
 794              		.loc 1 300 8 view .LVU203
 795 0002 0028     		cmp	r0, #0
 796 0004 48D0     		beq	.L128
 305:D:/fchai/work/i-cube/I-CUBE-HUAWEI/Middlewares/Third_Party/Huawei/iot_link/driver\driver.c ****     if (NULL == dev)
 797              		.loc 1 305 5 is_stmt 1 view .LVU204
 798 0006 0546     		mov	r5, r0
 305:D:/fchai/work/i-cube/I-CUBE-HUAWEI/Middlewares/Third_Party/Huawei/iot_link/driver\driver.c ****     if (NULL == dev)
 799              		.loc 1 305 11 is_stmt 0 view .LVU205
 800 0008 1820     		movs	r0, #24
 801              	.LVL69:
 305:D:/fchai/work/i-cube/I-CUBE-HUAWEI/Middlewares/Third_Party/Huawei/iot_link/driver\driver.c ****     if (NULL == dev)
 802              		.loc 1 305 11 view .LVU206
 803 000a 0E46     		mov	r6, r1
 804 000c FFF7FEFF 		bl	osal_malloc
 805              	.LVL70:
 306:D:/fchai/work/i-cube/I-CUBE-HUAWEI/Middlewares/Third_Party/Huawei/iot_link/driver\driver.c ****     {
 806              		.loc 1 306 5 is_stmt 1 view .LVU207
 306:D:/fchai/work/i-cube/I-CUBE-HUAWEI/Middlewares/Third_Party/Huawei/iot_link/driver\driver.c ****     {
 807              		.loc 1 306 8 is_stmt 0 view .LVU208
 808 0010 0446     		mov	r4, r0
 809 0012 0028     		cmp	r0, #0
 810 0014 40D0     		beq	.L128
 310:D:/fchai/work/i-cube/I-CUBE-HUAWEI/Middlewares/Third_Party/Huawei/iot_link/driver\driver.c **** 
 811              		.loc 1 310 5 is_stmt 1 view .LVU209
 310:D:/fchai/work/i-cube/I-CUBE-HUAWEI/Middlewares/Third_Party/Huawei/iot_link/driver\driver.c **** 
 812              		.loc 1 310 12 is_stmt 0 view .LVU210
 813 0016 0023     		movs	r3, #0
 312:D:/fchai/work/i-cube/I-CUBE-HUAWEI/Middlewares/Third_Party/Huawei/iot_link/driver\driver.c ****     if(false == opret)
 814              		.loc 1 312 13 view .LVU211
 815 0018 224F     		ldr	r7, .L131
 310:D:/fchai/work/i-cube/I-CUBE-HUAWEI/Middlewares/Third_Party/Huawei/iot_link/driver\driver.c **** 
 816              		.loc 1 310 12 view .LVU212
 817 001a 0360     		str	r3, [r0]	@ unaligned
 818 001c 4360     		str	r3, [r0, #4]	@ unaligned
 819 001e 8360     		str	r3, [r0, #8]	@ unaligned
 820 0020 C360     		str	r3, [r0, #12]	@ unaligned
 821 0022 0361     		str	r3, [r0, #16]	@ unaligned
 822 0024 4361     		str	r3, [r0, #20]	@ unaligned
 312:D:/fchai/work/i-cube/I-CUBE-HUAWEI/Middlewares/Third_Party/Huawei/iot_link/driver\driver.c ****     if(false == opret)
 823              		.loc 1 312 5 is_stmt 1 view .LVU213
 312:D:/fchai/work/i-cube/I-CUBE-HUAWEI/Middlewares/Third_Party/Huawei/iot_link/driver\driver.c ****     if(false == opret)
 824              		.loc 1 312 13 is_stmt 0 view .LVU214
 825 0026 3868     		ldr	r0, [r7]
 826              	.LVL71:
 312:D:/fchai/work/i-cube/I-CUBE-HUAWEI/Middlewares/Third_Party/Huawei/iot_link/driver\driver.c ****     if(false == opret)
 827              		.loc 1 312 13 view .LVU215
 828 0028 FFF7FEFF 		bl	osal_mutex_lock
 829              	.LVL72:
 313:D:/fchai/work/i-cube/I-CUBE-HUAWEI/Middlewares/Third_Party/Huawei/iot_link/driver\driver.c ****     {
 830              		.loc 1 313 5 is_stmt 1 view .LVU216
 313:D:/fchai/work/i-cube/I-CUBE-HUAWEI/Middlewares/Third_Party/Huawei/iot_link/driver\driver.c ****     {
 831              		.loc 1 313 7 is_stmt 0 view .LVU217
 832 002c 0028     		cmp	r0, #0
 833 002e 30D0     		beq	.L99
ARM GAS  T:\msys\tmp\cc56R3EJ.s 			page 30


 318:D:/fchai/work/i-cube/I-CUBE-HUAWEI/Middlewares/Third_Party/Huawei/iot_link/driver\driver.c ****     if(NULL == driv)
 834              		.loc 1 318 5 is_stmt 1 view .LVU218
 318:D:/fchai/work/i-cube/I-CUBE-HUAWEI/Middlewares/Third_Party/Huawei/iot_link/driver\driver.c ****     if(NULL == driv)
 835              		.loc 1 318 12 is_stmt 0 view .LVU219
 836 0030 2846     		mov	r0, r5
 837              	.LVL73:
 318:D:/fchai/work/i-cube/I-CUBE-HUAWEI/Middlewares/Third_Party/Huawei/iot_link/driver\driver.c ****     if(NULL == driv)
 838              		.loc 1 318 12 view .LVU220
 839 0032 FFF7FEFF 		bl	__driv_match
 840              	.LVL74:
 319:D:/fchai/work/i-cube/I-CUBE-HUAWEI/Middlewares/Third_Party/Huawei/iot_link/driver\driver.c ****     {
 841              		.loc 1 319 5 is_stmt 1 view .LVU221
 319:D:/fchai/work/i-cube/I-CUBE-HUAWEI/Middlewares/Third_Party/Huawei/iot_link/driver\driver.c ****     {
 842              		.loc 1 319 7 is_stmt 0 view .LVU222
 843 0036 0546     		mov	r5, r0
 844              	.LVL75:
 319:D:/fchai/work/i-cube/I-CUBE-HUAWEI/Middlewares/Third_Party/Huawei/iot_link/driver\driver.c ****     {
 845              		.loc 1 319 7 view .LVU223
 846 0038 40B3     		cbz	r0, .L108
 324:D:/fchai/work/i-cube/I-CUBE-HUAWEI/Middlewares/Third_Party/Huawei/iot_link/driver\driver.c ****     {
 847              		.loc 1 324 5 is_stmt 1 view .LVU224
 324:D:/fchai/work/i-cube/I-CUBE-HUAWEI/Middlewares/Third_Party/Huawei/iot_link/driver\driver.c ****     {
 848              		.loc 1 324 16 is_stmt 0 view .LVU225
 849 003a C368     		ldr	r3, [r0, #12]
 324:D:/fchai/work/i-cube/I-CUBE-HUAWEI/Middlewares/Third_Party/Huawei/iot_link/driver\driver.c ****     {
 850              		.loc 1 324 7 view .LVU226
 851 003c 1B05     		lsls	r3, r3, #20
 852 003e 01D5     		bpl	.L101
 324:D:/fchai/work/i-cube/I-CUBE-HUAWEI/Middlewares/Third_Party/Huawei/iot_link/driver\driver.c ****     {
 853              		.loc 1 324 49 discriminator 1 view .LVU227
 854 0040 8369     		ldr	r3, [r0, #24]
 855 0042 1BBB     		cbnz	r3, .L108
 856              	.L101:
 329:D:/fchai/work/i-cube/I-CUBE-HUAWEI/Middlewares/Third_Party/Huawei/iot_link/driver\driver.c ****         (NULL != driv->op->init))
 857              		.loc 1 329 5 is_stmt 1 view .LVU228
 329:D:/fchai/work/i-cube/I-CUBE-HUAWEI/Middlewares/Third_Party/Huawei/iot_link/driver\driver.c ****         (NULL != driv->op->init))
 858              		.loc 1 329 32 is_stmt 0 view .LVU229
 859 0044 6B69     		ldr	r3, [r5, #20]
 329:D:/fchai/work/i-cube/I-CUBE-HUAWEI/Middlewares/Third_Party/Huawei/iot_link/driver\driver.c ****         (NULL != driv->op->init))
 860              		.loc 1 329 7 view .LVU230
 861 0046 13F0010F 		tst	r3, #1
 330:D:/fchai/work/i-cube/I-CUBE-HUAWEI/Middlewares/Third_Party/Huawei/iot_link/driver\driver.c ****     {
 862              		.loc 1 330 22 view .LVU231
 863 004a 2B69     		ldr	r3, [r5, #16]
 329:D:/fchai/work/i-cube/I-CUBE-HUAWEI/Middlewares/Third_Party/Huawei/iot_link/driver\driver.c ****         (NULL != driv->op->init))
 864              		.loc 1 329 7 view .LVU232
 865 004c 09D1     		bne	.L103
 330:D:/fchai/work/i-cube/I-CUBE-HUAWEI/Middlewares/Third_Party/Huawei/iot_link/driver\driver.c ****     {
 866              		.loc 1 330 26 discriminator 1 view .LVU233
 867 004e 9A69     		ldr	r2, [r3, #24]
 329:D:/fchai/work/i-cube/I-CUBE-HUAWEI/Middlewares/Third_Party/Huawei/iot_link/driver\driver.c ****         (NULL != driv->op->init))
 868              		.loc 1 329 63 discriminator 1 view .LVU234
 869 0050 3AB1     		cbz	r2, .L103
 332:D:/fchai/work/i-cube/I-CUBE-HUAWEI/Middlewares/Third_Party/Huawei/iot_link/driver\driver.c ****         if(false == opret)
 870              		.loc 1 332 9 is_stmt 1 view .LVU235
 332:D:/fchai/work/i-cube/I-CUBE-HUAWEI/Middlewares/Third_Party/Huawei/iot_link/driver\driver.c ****         if(false == opret)
 871              		.loc 1 332 17 is_stmt 0 view .LVU236
ARM GAS  T:\msys\tmp\cc56R3EJ.s 			page 31


 872 0052 6868     		ldr	r0, [r5, #4]
 873              	.LVL76:
 332:D:/fchai/work/i-cube/I-CUBE-HUAWEI/Middlewares/Third_Party/Huawei/iot_link/driver\driver.c ****         if(false == opret)
 874              		.loc 1 332 17 view .LVU237
 875 0054 9047     		blx	r2
 876              	.LVL77:
 333:D:/fchai/work/i-cube/I-CUBE-HUAWEI/Middlewares/Third_Party/Huawei/iot_link/driver\driver.c ****         {
 877              		.loc 1 333 9 is_stmt 1 view .LVU238
 333:D:/fchai/work/i-cube/I-CUBE-HUAWEI/Middlewares/Third_Party/Huawei/iot_link/driver\driver.c ****         {
 878              		.loc 1 333 11 is_stmt 0 view .LVU239
 879 0056 B8B1     		cbz	r0, .L129
 338:D:/fchai/work/i-cube/I-CUBE-HUAWEI/Middlewares/Third_Party/Huawei/iot_link/driver\driver.c ****     }
 880              		.loc 1 338 9 is_stmt 1 view .LVU240
 881 0058 D5E90432 		ldrd	r3, r2, [r5, #16]
 338:D:/fchai/work/i-cube/I-CUBE-HUAWEI/Middlewares/Third_Party/Huawei/iot_link/driver\driver.c ****     }
 882              		.loc 1 338 26 is_stmt 0 view .LVU241
 883 005c 42F00102 		orr	r2, r2, #1
 884 0060 6A61     		str	r2, [r5, #20]
 885              	.LVL78:
 886              	.L103:
 341:D:/fchai/work/i-cube/I-CUBE-HUAWEI/Middlewares/Third_Party/Huawei/iot_link/driver\driver.c ****     {
 887              		.loc 1 341 5 is_stmt 1 view .LVU242
 341:D:/fchai/work/i-cube/I-CUBE-HUAWEI/Middlewares/Third_Party/Huawei/iot_link/driver\driver.c ****     {
 888              		.loc 1 341 24 is_stmt 0 view .LVU243
 889 0062 1B68     		ldr	r3, [r3]
 341:D:/fchai/work/i-cube/I-CUBE-HUAWEI/Middlewares/Third_Party/Huawei/iot_link/driver\driver.c ****     {
 890              		.loc 1 341 7 view .LVU244
 891 0064 1BB1     		cbz	r3, .L105
 343:D:/fchai/work/i-cube/I-CUBE-HUAWEI/Middlewares/Third_Party/Huawei/iot_link/driver\driver.c ****         if(false == opret)
 892              		.loc 1 343 9 is_stmt 1 view .LVU245
 343:D:/fchai/work/i-cube/I-CUBE-HUAWEI/Middlewares/Third_Party/Huawei/iot_link/driver\driver.c ****         if(false == opret)
 893              		.loc 1 343 17 is_stmt 0 view .LVU246
 894 0066 6868     		ldr	r0, [r5, #4]
 895 0068 3146     		mov	r1, r6
 896 006a 9847     		blx	r3
 897              	.LVL79:
 344:D:/fchai/work/i-cube/I-CUBE-HUAWEI/Middlewares/Third_Party/Huawei/iot_link/driver\driver.c ****         {
 898              		.loc 1 344 9 is_stmt 1 view .LVU247
 344:D:/fchai/work/i-cube/I-CUBE-HUAWEI/Middlewares/Third_Party/Huawei/iot_link/driver\driver.c ****         {
 899              		.loc 1 344 11 is_stmt 0 view .LVU248
 900 006c B8B1     		cbz	r0, .L130
 901              	.LVL80:
 902              	.L105:
 353:D:/fchai/work/i-cube/I-CUBE-HUAWEI/Middlewares/Third_Party/Huawei/iot_link/driver\driver.c ****     dev->nxt = driv->devlst;
 903              		.loc 1 353 5 is_stmt 1 view .LVU249
 353:D:/fchai/work/i-cube/I-CUBE-HUAWEI/Middlewares/Third_Party/Huawei/iot_link/driver\driver.c ****     dev->nxt = driv->devlst;
 904              		.loc 1 353 22 is_stmt 0 view .LVU250
 905 006e 6B6A     		ldr	r3, [r5, #36]
 354:D:/fchai/work/i-cube/I-CUBE-HUAWEI/Middlewares/Third_Party/Huawei/iot_link/driver\driver.c ****     driv->devlst = dev;
 906              		.loc 1 354 14 view .LVU251
 907 0070 AA69     		ldr	r2, [r5, #24]
 360:D:/fchai/work/i-cube/I-CUBE-HUAWEI/Middlewares/Third_Party/Huawei/iot_link/driver\driver.c ****     return dev;
 908              		.loc 1 360 12 view .LVU252
 909 0072 3868     		ldr	r0, [r7]
 353:D:/fchai/work/i-cube/I-CUBE-HUAWEI/Middlewares/Third_Party/Huawei/iot_link/driver\driver.c ****     dev->nxt = driv->devlst;
 910              		.loc 1 353 22 view .LVU253
 911 0074 0133     		adds	r3, r3, #1
ARM GAS  T:\msys\tmp\cc56R3EJ.s 			page 32


 912 0076 6B62     		str	r3, [r5, #36]
 354:D:/fchai/work/i-cube/I-CUBE-HUAWEI/Middlewares/Third_Party/Huawei/iot_link/driver\driver.c ****     driv->devlst = dev;
 913              		.loc 1 354 5 is_stmt 1 view .LVU254
 354:D:/fchai/work/i-cube/I-CUBE-HUAWEI/Middlewares/Third_Party/Huawei/iot_link/driver\driver.c ****     driv->devlst = dev;
 914              		.loc 1 354 14 is_stmt 0 view .LVU255
 915 0078 2260     		str	r2, [r4]
 355:D:/fchai/work/i-cube/I-CUBE-HUAWEI/Middlewares/Third_Party/Huawei/iot_link/driver\driver.c **** 
 916              		.loc 1 355 5 is_stmt 1 view .LVU256
 355:D:/fchai/work/i-cube/I-CUBE-HUAWEI/Middlewares/Third_Party/Huawei/iot_link/driver\driver.c **** 
 917              		.loc 1 355 18 is_stmt 0 view .LVU257
 918 007a AC61     		str	r4, [r5, #24]
 357:D:/fchai/work/i-cube/I-CUBE-HUAWEI/Middlewares/Third_Party/Huawei/iot_link/driver\driver.c ****     dev->openflag =  flag;
 919              		.loc 1 357 5 is_stmt 1 view .LVU258
 358:D:/fchai/work/i-cube/I-CUBE-HUAWEI/Middlewares/Third_Party/Huawei/iot_link/driver\driver.c **** 
 920              		.loc 1 358 19 is_stmt 0 view .LVU259
 921 007c C4E90156 		strd	r5, r6, [r4, #4]
 360:D:/fchai/work/i-cube/I-CUBE-HUAWEI/Middlewares/Third_Party/Huawei/iot_link/driver\driver.c ****     return dev;
 922              		.loc 1 360 5 is_stmt 1 view .LVU260
 360:D:/fchai/work/i-cube/I-CUBE-HUAWEI/Middlewares/Third_Party/Huawei/iot_link/driver\driver.c ****     return dev;
 923              		.loc 1 360 12 is_stmt 0 view .LVU261
 924 0080 FFF7FEFF 		bl	osal_mutex_unlock
 925              	.LVL81:
 361:D:/fchai/work/i-cube/I-CUBE-HUAWEI/Middlewares/Third_Party/Huawei/iot_link/driver\driver.c **** 
 926              		.loc 1 361 5 is_stmt 1 view .LVU262
 374:D:/fchai/work/i-cube/I-CUBE-HUAWEI/Middlewares/Third_Party/Huawei/iot_link/driver\driver.c **** 
 927              		.loc 1 374 1 is_stmt 0 view .LVU263
 928 0084 2046     		mov	r0, r4
 929 0086 F8BD     		pop	{r3, r4, r5, r6, r7, pc}
 930              	.LVL82:
 931              	.L129:
 335:D:/fchai/work/i-cube/I-CUBE-HUAWEI/Middlewares/Third_Party/Huawei/iot_link/driver\driver.c ****             goto EXIT_INITERR;
 932              		.loc 1 335 13 is_stmt 1 view .LVU264
 335:D:/fchai/work/i-cube/I-CUBE-HUAWEI/Middlewares/Third_Party/Huawei/iot_link/driver\driver.c ****             goto EXIT_INITERR;
 933              		.loc 1 335 25 is_stmt 0 view .LVU265
 934 0088 0123     		movs	r3, #1
 935 008a AB62     		str	r3, [r5, #40]
 336:D:/fchai/work/i-cube/I-CUBE-HUAWEI/Middlewares/Third_Party/Huawei/iot_link/driver\driver.c ****         }
 936              		.loc 1 336 13 is_stmt 1 view .LVU266
 937              	.L100:
 938              	.L106:
 939              	.L107:
 940              	.LVL83:
 941              	.L108:
 367:D:/fchai/work/i-cube/I-CUBE-HUAWEI/Middlewares/Third_Party/Huawei/iot_link/driver\driver.c **** EXIT_MUTEXERR:
 942              		.loc 1 367 5 view .LVU267
 367:D:/fchai/work/i-cube/I-CUBE-HUAWEI/Middlewares/Third_Party/Huawei/iot_link/driver\driver.c **** EXIT_MUTEXERR:
 943              		.loc 1 367 12 is_stmt 0 view .LVU268
 944 008c 3868     		ldr	r0, [r7]
 945 008e FFF7FEFF 		bl	osal_mutex_unlock
 946              	.LVL84:
 947              	.L99:
 369:D:/fchai/work/i-cube/I-CUBE-HUAWEI/Middlewares/Third_Party/Huawei/iot_link/driver\driver.c ****     dev = NULL;
 948              		.loc 1 369 5 is_stmt 1 view .LVU269
 949 0092 2046     		mov	r0, r4
 950 0094 FFF7FEFF 		bl	osal_free
 951              	.LVL85:
 952              	.L128:
ARM GAS  T:\msys\tmp\cc56R3EJ.s 			page 33


 370:D:/fchai/work/i-cube/I-CUBE-HUAWEI/Middlewares/Third_Party/Huawei/iot_link/driver\driver.c **** EXIT_MEMERR:
 953              		.loc 1 370 5 view .LVU270
 373:D:/fchai/work/i-cube/I-CUBE-HUAWEI/Middlewares/Third_Party/Huawei/iot_link/driver\driver.c **** }
 954              		.loc 1 373 12 is_stmt 0 view .LVU271
 955 0098 0024     		movs	r4, #0
 956              	.LVL86:
 374:D:/fchai/work/i-cube/I-CUBE-HUAWEI/Middlewares/Third_Party/Huawei/iot_link/driver\driver.c **** 
 957              		.loc 1 374 1 view .LVU272
 958 009a 2046     		mov	r0, r4
 959 009c F8BD     		pop	{r3, r4, r5, r6, r7, pc}
 960              	.LVL87:
 961              	.L130:
 346:D:/fchai/work/i-cube/I-CUBE-HUAWEI/Middlewares/Third_Party/Huawei/iot_link/driver\driver.c ****             goto EXIT_OPENERR;
 962              		.loc 1 346 13 is_stmt 1 view .LVU273
 346:D:/fchai/work/i-cube/I-CUBE-HUAWEI/Middlewares/Third_Party/Huawei/iot_link/driver\driver.c ****             goto EXIT_OPENERR;
 963              		.loc 1 346 25 is_stmt 0 view .LVU274
 964 009e 0223     		movs	r3, #2
 965 00a0 AB62     		str	r3, [r5, #40]
 347:D:/fchai/work/i-cube/I-CUBE-HUAWEI/Middlewares/Third_Party/Huawei/iot_link/driver\driver.c ****         }
 966              		.loc 1 347 13 is_stmt 1 view .LVU275
 967 00a2 F3E7     		b	.L108
 968              	.L132:
 969              		.align	2
 970              	.L131:
 971 00a4 00000000 		.word	.LANCHOR0
 972              		.cfi_endproc
 973              	.LFE9:
 975              		.section	.text.los_dev_close,"ax",%progbits
 976              		.align	1
 977              		.p2align 2,,3
 978              		.global	los_dev_close
 979              		.syntax unified
 980              		.thumb
 981              		.thumb_func
 982              		.fpu fpv4-sp-d16
 984              	los_dev_close:
 985              	.LVL88:
 986              	.LFB10:
 382:D:/fchai/work/i-cube/I-CUBE-HUAWEI/Middlewares/Third_Party/Huawei/iot_link/driver\driver.c ****     bool_t ret = false;
 987              		.loc 1 382 1 view -0
 988              		.cfi_startproc
 989              		@ args = 0, pretend = 0, frame = 0
 990              		@ frame_needed = 0, uses_anonymous_args = 0
 383:D:/fchai/work/i-cube/I-CUBE-HUAWEI/Middlewares/Third_Party/Huawei/iot_link/driver\driver.c ****     struct dev_cb *devcb = NULL;
 991              		.loc 1 383 5 view .LVU277
 384:D:/fchai/work/i-cube/I-CUBE-HUAWEI/Middlewares/Third_Party/Huawei/iot_link/driver\driver.c ****     struct dev_cb *tmp = NULL;
 992              		.loc 1 384 5 view .LVU278
 385:D:/fchai/work/i-cube/I-CUBE-HUAWEI/Middlewares/Third_Party/Huawei/iot_link/driver\driver.c ****     struct driv_cb *driv = NULL;
 993              		.loc 1 385 5 view .LVU279
 386:D:/fchai/work/i-cube/I-CUBE-HUAWEI/Middlewares/Third_Party/Huawei/iot_link/driver\driver.c **** 
 994              		.loc 1 386 5 view .LVU280
 388:D:/fchai/work/i-cube/I-CUBE-HUAWEI/Middlewares/Third_Party/Huawei/iot_link/driver\driver.c ****     {
 995              		.loc 1 388 5 view .LVU281
 382:D:/fchai/work/i-cube/I-CUBE-HUAWEI/Middlewares/Third_Party/Huawei/iot_link/driver\driver.c ****     bool_t ret = false;
 996              		.loc 1 382 1 is_stmt 0 view .LVU282
 997 0000 70B5     		push	{r4, r5, r6, lr}
 998              	.LCFI11:
ARM GAS  T:\msys\tmp\cc56R3EJ.s 			page 34


 999              		.cfi_def_cfa_offset 16
 1000              		.cfi_offset 4, -16
 1001              		.cfi_offset 5, -12
 1002              		.cfi_offset 6, -8
 1003              		.cfi_offset 14, -4
 388:D:/fchai/work/i-cube/I-CUBE-HUAWEI/Middlewares/Third_Party/Huawei/iot_link/driver\driver.c ****     {
 1004              		.loc 1 388 8 view .LVU283
 1005 0002 B8B1     		cbz	r0, .L136
 392:D:/fchai/work/i-cube/I-CUBE-HUAWEI/Middlewares/Third_Party/Huawei/iot_link/driver\driver.c **** 
 1006              		.loc 1 392 5 is_stmt 1 view .LVU284
 394:D:/fchai/work/i-cube/I-CUBE-HUAWEI/Middlewares/Third_Party/Huawei/iot_link/driver\driver.c ****     {
 1007              		.loc 1 394 17 is_stmt 0 view .LVU285
 1008 0004 1F4E     		ldr	r6, .L163
 1009 0006 0546     		mov	r5, r0
 1010              	.LVL89:
 394:D:/fchai/work/i-cube/I-CUBE-HUAWEI/Middlewares/Third_Party/Huawei/iot_link/driver\driver.c ****     {
 1011              		.loc 1 394 5 is_stmt 1 view .LVU286
 394:D:/fchai/work/i-cube/I-CUBE-HUAWEI/Middlewares/Third_Party/Huawei/iot_link/driver\driver.c ****     {
 1012              		.loc 1 394 17 is_stmt 0 view .LVU287
 1013 0008 3068     		ldr	r0, [r6]
 1014              	.LVL90:
 394:D:/fchai/work/i-cube/I-CUBE-HUAWEI/Middlewares/Third_Party/Huawei/iot_link/driver\driver.c ****     {
 1015              		.loc 1 394 17 view .LVU288
 1016 000a FFF7FEFF 		bl	osal_mutex_lock
 1017              	.LVL91:
 394:D:/fchai/work/i-cube/I-CUBE-HUAWEI/Middlewares/Third_Party/Huawei/iot_link/driver\driver.c ****     {
 1018              		.loc 1 394 7 view .LVU289
 1019 000e 88B1     		cbz	r0, .L136
 400:D:/fchai/work/i-cube/I-CUBE-HUAWEI/Middlewares/Third_Party/Huawei/iot_link/driver\driver.c ****     if(NULL == driv)
 1020              		.loc 1 400 5 is_stmt 1 view .LVU290
 400:D:/fchai/work/i-cube/I-CUBE-HUAWEI/Middlewares/Third_Party/Huawei/iot_link/driver\driver.c ****     if(NULL == driv)
 1021              		.loc 1 400 10 is_stmt 0 view .LVU291
 1022 0010 6C68     		ldr	r4, [r5, #4]
 1023              	.LVL92:
 401:D:/fchai/work/i-cube/I-CUBE-HUAWEI/Middlewares/Third_Party/Huawei/iot_link/driver\driver.c ****     {
 1024              		.loc 1 401 5 is_stmt 1 view .LVU292
 401:D:/fchai/work/i-cube/I-CUBE-HUAWEI/Middlewares/Third_Party/Huawei/iot_link/driver\driver.c ****     {
 1025              		.loc 1 401 7 is_stmt 0 view .LVU293
 1026 0012 54B1     		cbz	r4, .L143
 406:D:/fchai/work/i-cube/I-CUBE-HUAWEI/Middlewares/Third_Party/Huawei/iot_link/driver\driver.c ****     {
 1027              		.loc 1 406 5 is_stmt 1 view .LVU294
 406:D:/fchai/work/i-cube/I-CUBE-HUAWEI/Middlewares/Third_Party/Huawei/iot_link/driver\driver.c ****     {
 1028              		.loc 1 406 21 is_stmt 0 view .LVU295
 1029 0014 A369     		ldr	r3, [r4, #24]
 406:D:/fchai/work/i-cube/I-CUBE-HUAWEI/Middlewares/Third_Party/Huawei/iot_link/driver\driver.c ****     {
 1030              		.loc 1 406 7 view .LVU296
 1031 0016 AB42     		cmp	r3, r5
 1032 0018 0FD0     		beq	.L158
 415:D:/fchai/work/i-cube/I-CUBE-HUAWEI/Middlewares/Third_Party/Huawei/iot_link/driver\driver.c ****             {
 1033              		.loc 1 415 13 is_stmt 1 view .LVU297
 1034              	.LVL93:
 413:D:/fchai/work/i-cube/I-CUBE-HUAWEI/Middlewares/Third_Party/Huawei/iot_link/driver\driver.c ****         {
 1035              		.loc 1 413 14 view .LVU298
 1036 001a 2BB1     		cbz	r3, .L159
 1037              	.L140:
 415:D:/fchai/work/i-cube/I-CUBE-HUAWEI/Middlewares/Third_Party/Huawei/iot_link/driver\driver.c ****             {
 1038              		.loc 1 415 19 is_stmt 0 view .LVU299
ARM GAS  T:\msys\tmp\cc56R3EJ.s 			page 35


 1039 001c 1A68     		ldr	r2, [r3]
 415:D:/fchai/work/i-cube/I-CUBE-HUAWEI/Middlewares/Third_Party/Huawei/iot_link/driver\driver.c ****             {
 1040              		.loc 1 415 15 view .LVU300
 1041 001e AA42     		cmp	r2, r5
 1042 0020 22D0     		beq	.L160
 415:D:/fchai/work/i-cube/I-CUBE-HUAWEI/Middlewares/Third_Party/Huawei/iot_link/driver\driver.c ****             {
 1043              		.loc 1 415 15 view .LVU301
 1044 0022 1346     		mov	r3, r2
 1045              	.LVL94:
 415:D:/fchai/work/i-cube/I-CUBE-HUAWEI/Middlewares/Third_Party/Huawei/iot_link/driver\driver.c ****             {
 1046              		.loc 1 415 13 is_stmt 1 view .LVU302
 413:D:/fchai/work/i-cube/I-CUBE-HUAWEI/Middlewares/Third_Party/Huawei/iot_link/driver\driver.c ****         {
 1047              		.loc 1 413 14 view .LVU303
 1048 0024 002B     		cmp	r3, #0
 1049 0026 F9D1     		bne	.L140
 1050              	.LVL95:
 1051              	.L159:
 383:D:/fchai/work/i-cube/I-CUBE-HUAWEI/Middlewares/Third_Party/Huawei/iot_link/driver\driver.c ****     struct dev_cb *devcb = NULL;
 1052              		.loc 1 383 12 is_stmt 0 view .LVU304
 1053 0028 1C46     		mov	r4, r3
 1054              	.LVL96:
 1055              	.L137:
 1056              	.L143:
 447:D:/fchai/work/i-cube/I-CUBE-HUAWEI/Middlewares/Third_Party/Huawei/iot_link/driver\driver.c **** EXIT_MUTEXERR:
 1057              		.loc 1 447 5 is_stmt 1 view .LVU305
 447:D:/fchai/work/i-cube/I-CUBE-HUAWEI/Middlewares/Third_Party/Huawei/iot_link/driver\driver.c **** EXIT_MUTEXERR:
 1058              		.loc 1 447 12 is_stmt 0 view .LVU306
 1059 002a 3068     		ldr	r0, [r6]
 1060 002c FFF7FEFF 		bl	osal_mutex_unlock
 1061              	.LVL97:
 450:D:/fchai/work/i-cube/I-CUBE-HUAWEI/Middlewares/Third_Party/Huawei/iot_link/driver\driver.c **** }
 1062              		.loc 1 450 5 is_stmt 1 view .LVU307
 1063              	.L135:
 1064              	.L144:
 1065              	.L162:
 451:D:/fchai/work/i-cube/I-CUBE-HUAWEI/Middlewares/Third_Party/Huawei/iot_link/driver\driver.c **** 
 1066              		.loc 1 451 1 is_stmt 0 view .LVU308
 1067 0030 2046     		mov	r0, r4
 1068 0032 70BD     		pop	{r4, r5, r6, pc}
 1069              	.LVL98:
 1070              	.L136:
 383:D:/fchai/work/i-cube/I-CUBE-HUAWEI/Middlewares/Third_Party/Huawei/iot_link/driver\driver.c ****     struct dev_cb *devcb = NULL;
 1071              		.loc 1 383 12 view .LVU309
 1072 0034 0024     		movs	r4, #0
 451:D:/fchai/work/i-cube/I-CUBE-HUAWEI/Middlewares/Third_Party/Huawei/iot_link/driver\driver.c **** 
 1073              		.loc 1 451 1 view .LVU310
 1074 0036 2046     		mov	r0, r4
 1075 0038 70BD     		pop	{r4, r5, r6, pc}
 1076              	.LVL99:
 1077              	.L158:
 408:D:/fchai/work/i-cube/I-CUBE-HUAWEI/Middlewares/Third_Party/Huawei/iot_link/driver\driver.c ****     }
 1078              		.loc 1 408 9 is_stmt 1 view .LVU311
 408:D:/fchai/work/i-cube/I-CUBE-HUAWEI/Middlewares/Third_Party/Huawei/iot_link/driver\driver.c ****     }
 1079              		.loc 1 408 22 is_stmt 0 view .LVU312
 1080 003a 2B68     		ldr	r3, [r5]
 1081 003c A361     		str	r3, [r4, #24]
 1082              	.LVL100:
ARM GAS  T:\msys\tmp\cc56R3EJ.s 			page 36


 1083              	.L139:
 427:D:/fchai/work/i-cube/I-CUBE-HUAWEI/Middlewares/Third_Party/Huawei/iot_link/driver\driver.c ****     {
 1084              		.loc 1 427 5 is_stmt 1 view .LVU313
 427:D:/fchai/work/i-cube/I-CUBE-HUAWEI/Middlewares/Third_Party/Huawei/iot_link/driver\driver.c ****     {
 1085              		.loc 1 427 24 is_stmt 0 view .LVU314
 1086 003e 2369     		ldr	r3, [r4, #16]
 1087 0040 DB68     		ldr	r3, [r3, #12]
 427:D:/fchai/work/i-cube/I-CUBE-HUAWEI/Middlewares/Third_Party/Huawei/iot_link/driver\driver.c ****     {
 1088              		.loc 1 427 7 view .LVU315
 1089 0042 0BB1     		cbz	r3, .L141
 429:D:/fchai/work/i-cube/I-CUBE-HUAWEI/Middlewares/Third_Party/Huawei/iot_link/driver\driver.c ****     }
 1090              		.loc 1 429 9 is_stmt 1 view .LVU316
 1091 0044 6068     		ldr	r0, [r4, #4]
 1092 0046 9847     		blx	r3
 1093              	.LVL101:
 1094              	.L141:
 432:D:/fchai/work/i-cube/I-CUBE-HUAWEI/Middlewares/Third_Party/Huawei/iot_link/driver\driver.c ****     {
 1095              		.loc 1 432 5 view .LVU317
 432:D:/fchai/work/i-cube/I-CUBE-HUAWEI/Middlewares/Third_Party/Huawei/iot_link/driver\driver.c ****     {
 1096              		.loc 1 432 7 is_stmt 0 view .LVU318
 1097 0048 A369     		ldr	r3, [r4, #24]
 1098 004a 83B1     		cbz	r3, .L161
 1099              	.L142:
 438:D:/fchai/work/i-cube/I-CUBE-HUAWEI/Middlewares/Third_Party/Huawei/iot_link/driver\driver.c ****     driv->opencounter--;
 1100              		.loc 1 438 5 is_stmt 1 view .LVU319
 1101 004c 2846     		mov	r0, r5
 1102 004e FFF7FEFF 		bl	osal_free
 1103              	.LVL102:
 439:D:/fchai/work/i-cube/I-CUBE-HUAWEI/Middlewares/Third_Party/Huawei/iot_link/driver\driver.c **** 
 1104              		.loc 1 439 5 view .LVU320
 439:D:/fchai/work/i-cube/I-CUBE-HUAWEI/Middlewares/Third_Party/Huawei/iot_link/driver\driver.c **** 
 1105              		.loc 1 439 22 is_stmt 0 view .LVU321
 1106 0052 636A     		ldr	r3, [r4, #36]
 441:D:/fchai/work/i-cube/I-CUBE-HUAWEI/Middlewares/Third_Party/Huawei/iot_link/driver\driver.c **** 
 1107              		.loc 1 441 12 view .LVU322
 1108 0054 3068     		ldr	r0, [r6]
 439:D:/fchai/work/i-cube/I-CUBE-HUAWEI/Middlewares/Third_Party/Huawei/iot_link/driver\driver.c **** 
 1109              		.loc 1 439 22 view .LVU323
 1110 0056 013B     		subs	r3, r3, #1
 1111 0058 6362     		str	r3, [r4, #36]
 441:D:/fchai/work/i-cube/I-CUBE-HUAWEI/Middlewares/Third_Party/Huawei/iot_link/driver\driver.c **** 
 1112              		.loc 1 441 5 is_stmt 1 view .LVU324
 441:D:/fchai/work/i-cube/I-CUBE-HUAWEI/Middlewares/Third_Party/Huawei/iot_link/driver\driver.c **** 
 1113              		.loc 1 441 12 is_stmt 0 view .LVU325
 1114 005a FFF7FEFF 		bl	osal_mutex_unlock
 1115              	.LVL103:
 443:D:/fchai/work/i-cube/I-CUBE-HUAWEI/Middlewares/Third_Party/Huawei/iot_link/driver\driver.c **** 
 1116              		.loc 1 443 5 is_stmt 1 view .LVU326
 447:D:/fchai/work/i-cube/I-CUBE-HUAWEI/Middlewares/Third_Party/Huawei/iot_link/driver\driver.c **** EXIT_MUTEXERR:
 1117              		.loc 1 447 12 is_stmt 0 view .LVU327
 1118 005e 3068     		ldr	r0, [r6]
 443:D:/fchai/work/i-cube/I-CUBE-HUAWEI/Middlewares/Third_Party/Huawei/iot_link/driver\driver.c **** 
 1119              		.loc 1 443 9 view .LVU328
 1120 0060 0124     		movs	r4, #1
 1121              	.LVL104:
 447:D:/fchai/work/i-cube/I-CUBE-HUAWEI/Middlewares/Third_Party/Huawei/iot_link/driver\driver.c **** EXIT_MUTEXERR:
 1122              		.loc 1 447 5 is_stmt 1 view .LVU329
ARM GAS  T:\msys\tmp\cc56R3EJ.s 			page 37


 447:D:/fchai/work/i-cube/I-CUBE-HUAWEI/Middlewares/Third_Party/Huawei/iot_link/driver\driver.c **** EXIT_MUTEXERR:
 1123              		.loc 1 447 12 is_stmt 0 view .LVU330
 1124 0062 FFF7FEFF 		bl	osal_mutex_unlock
 1125              	.LVL105:
 450:D:/fchai/work/i-cube/I-CUBE-HUAWEI/Middlewares/Third_Party/Huawei/iot_link/driver\driver.c **** }
 1126              		.loc 1 450 5 is_stmt 1 view .LVU331
 1127 0066 E3E7     		b	.L162
 1128              	.LVL106:
 1129              	.L160:
 417:D:/fchai/work/i-cube/I-CUBE-HUAWEI/Middlewares/Third_Party/Huawei/iot_link/driver\driver.c ****                 break;
 1130              		.loc 1 417 17 view .LVU332
 417:D:/fchai/work/i-cube/I-CUBE-HUAWEI/Middlewares/Third_Party/Huawei/iot_link/driver\driver.c ****                 break;
 1131              		.loc 1 417 33 is_stmt 0 view .LVU333
 1132 0068 2A68     		ldr	r2, [r5]
 417:D:/fchai/work/i-cube/I-CUBE-HUAWEI/Middlewares/Third_Party/Huawei/iot_link/driver\driver.c ****                 break;
 1133              		.loc 1 417 26 view .LVU334
 1134 006a 1A60     		str	r2, [r3]
 418:D:/fchai/work/i-cube/I-CUBE-HUAWEI/Middlewares/Third_Party/Huawei/iot_link/driver\driver.c ****             }
 1135              		.loc 1 418 17 is_stmt 1 view .LVU335
 422:D:/fchai/work/i-cube/I-CUBE-HUAWEI/Middlewares/Third_Party/Huawei/iot_link/driver\driver.c ****         {
 1136              		.loc 1 422 9 view .LVU336
 1137 006c E7E7     		b	.L139
 1138              	.LVL107:
 1139              	.L161:
 432:D:/fchai/work/i-cube/I-CUBE-HUAWEI/Middlewares/Third_Party/Huawei/iot_link/driver\driver.c ****     {
 1140              		.loc 1 432 51 is_stmt 0 discriminator 1 view .LVU337
 1141 006e 2369     		ldr	r3, [r4, #16]
 1142 0070 DB69     		ldr	r3, [r3, #28]
 432:D:/fchai/work/i-cube/I-CUBE-HUAWEI/Middlewares/Third_Party/Huawei/iot_link/driver\driver.c ****     {
 1143              		.loc 1 432 31 discriminator 1 view .LVU338
 1144 0072 002B     		cmp	r3, #0
 1145 0074 EAD0     		beq	.L142
 434:D:/fchai/work/i-cube/I-CUBE-HUAWEI/Middlewares/Third_Party/Huawei/iot_link/driver\driver.c ****         driv->drivstatus &= (~cn_driv_status_initialized);
 1146              		.loc 1 434 9 is_stmt 1 view .LVU339
 1147 0076 6068     		ldr	r0, [r4, #4]
 1148 0078 9847     		blx	r3
 1149              	.LVL108:
 435:D:/fchai/work/i-cube/I-CUBE-HUAWEI/Middlewares/Third_Party/Huawei/iot_link/driver\driver.c ****     }
 1150              		.loc 1 435 9 view .LVU340
 435:D:/fchai/work/i-cube/I-CUBE-HUAWEI/Middlewares/Third_Party/Huawei/iot_link/driver\driver.c ****     }
 1151              		.loc 1 435 26 is_stmt 0 view .LVU341
 1152 007a 6369     		ldr	r3, [r4, #20]
 1153 007c 23F00103 		bic	r3, r3, #1
 1154 0080 6361     		str	r3, [r4, #20]
 1155 0082 E3E7     		b	.L142
 1156              	.L164:
 1157              		.align	2
 1158              	.L163:
 1159 0084 00000000 		.word	.LANCHOR0
 1160              		.cfi_endproc
 1161              	.LFE10:
 1163              		.section	.text.los_dev_read,"ax",%progbits
 1164              		.align	1
 1165              		.p2align 2,,3
 1166              		.global	los_dev_read
 1167              		.syntax unified
 1168              		.thumb
ARM GAS  T:\msys\tmp\cc56R3EJ.s 			page 38


 1169              		.thumb_func
 1170              		.fpu fpv4-sp-d16
 1172              	los_dev_read:
 1173              	.LVL109:
 1174              	.LFB11:
 463:D:/fchai/work/i-cube/I-CUBE-HUAWEI/Middlewares/Third_Party/Huawei/iot_link/driver\driver.c ****     ssize_t ret = 0;
 1175              		.loc 1 463 1 is_stmt 1 view -0
 1176              		.cfi_startproc
 1177              		@ args = 4, pretend = 0, frame = 0
 1178              		@ frame_needed = 0, uses_anonymous_args = 0
 464:D:/fchai/work/i-cube/I-CUBE-HUAWEI/Middlewares/Third_Party/Huawei/iot_link/driver\driver.c ****     struct dev_cb  *devcb;
 1179              		.loc 1 464 5 view .LVU343
 465:D:/fchai/work/i-cube/I-CUBE-HUAWEI/Middlewares/Third_Party/Huawei/iot_link/driver\driver.c ****     struct driv_cb *drivcb;
 1180              		.loc 1 465 5 view .LVU344
 466:D:/fchai/work/i-cube/I-CUBE-HUAWEI/Middlewares/Third_Party/Huawei/iot_link/driver\driver.c **** 
 1181              		.loc 1 466 5 view .LVU345
 468:D:/fchai/work/i-cube/I-CUBE-HUAWEI/Middlewares/Third_Party/Huawei/iot_link/driver\driver.c ****     {
 1182              		.loc 1 468 5 view .LVU346
 468:D:/fchai/work/i-cube/I-CUBE-HUAWEI/Middlewares/Third_Party/Huawei/iot_link/driver\driver.c ****     {
 1183              		.loc 1 468 7 is_stmt 0 view .LVU347
 1184 0000 E0B1     		cbz	r0, .L174
 463:D:/fchai/work/i-cube/I-CUBE-HUAWEI/Middlewares/Third_Party/Huawei/iot_link/driver\driver.c ****     ssize_t ret = 0;
 1185              		.loc 1 463 1 discriminator 1 view .LVU348
 1186 0002 70B5     		push	{r4, r5, r6, lr}
 1187              	.LCFI12:
 1188              		.cfi_def_cfa_offset 16
 1189              		.cfi_offset 4, -16
 1190              		.cfi_offset 5, -12
 1191              		.cfi_offset 6, -8
 1192              		.cfi_offset 14, -4
 1193 0004 1446     		mov	r4, r2
 1194 0006 82B0     		sub	sp, sp, #8
 1195              	.LCFI13:
 1196              		.cfi_def_cfa_offset 24
 468:D:/fchai/work/i-cube/I-CUBE-HUAWEI/Middlewares/Third_Party/Huawei/iot_link/driver\driver.c ****     {
 1197              		.loc 1 468 21 discriminator 1 view .LVU349
 1198 0008 92B1     		cbz	r2, .L172
 468:D:/fchai/work/i-cube/I-CUBE-HUAWEI/Middlewares/Third_Party/Huawei/iot_link/driver\driver.c ****     {
 1199              		.loc 1 468 36 discriminator 2 view .LVU350
 1200 000a A3B1     		cbz	r3, .L170
 470:D:/fchai/work/i-cube/I-CUBE-HUAWEI/Middlewares/Third_Party/Huawei/iot_link/driver\driver.c ****         if((0 == ((uint32_t)devcb->openflag & O_WRONLY)))
 1201              		.loc 1 470 9 is_stmt 1 view .LVU351
 1202              	.LVL110:
 471:D:/fchai/work/i-cube/I-CUBE-HUAWEI/Middlewares/Third_Party/Huawei/iot_link/driver\driver.c ****         {
 1203              		.loc 1 471 9 view .LVU352
 471:D:/fchai/work/i-cube/I-CUBE-HUAWEI/Middlewares/Third_Party/Huawei/iot_link/driver\driver.c ****         {
 1204              		.loc 1 471 45 is_stmt 0 view .LVU353
 1205 000c 8468     		ldr	r4, [r0, #8]
 471:D:/fchai/work/i-cube/I-CUBE-HUAWEI/Middlewares/Third_Party/Huawei/iot_link/driver\driver.c ****         {
 1206              		.loc 1 471 11 view .LVU354
 1207 000e E407     		lsls	r4, r4, #31
 1208 0010 11D4     		bmi	.L170
 473:D:/fchai/work/i-cube/I-CUBE-HUAWEI/Middlewares/Third_Party/Huawei/iot_link/driver\driver.c ****             if((NULL != drivcb->op)&&(NULL != drivcb->op->read))
 1209              		.loc 1 473 13 is_stmt 1 view .LVU355
 473:D:/fchai/work/i-cube/I-CUBE-HUAWEI/Middlewares/Third_Party/Huawei/iot_link/driver\driver.c ****             if((NULL != drivcb->op)&&(NULL != drivcb->op->read))
 1210              		.loc 1 473 20 is_stmt 0 view .LVU356
 1211 0012 4568     		ldr	r5, [r0, #4]
ARM GAS  T:\msys\tmp\cc56R3EJ.s 			page 39


 1212              	.LVL111:
 474:D:/fchai/work/i-cube/I-CUBE-HUAWEI/Middlewares/Third_Party/Huawei/iot_link/driver\driver.c ****             {
 1213              		.loc 1 474 13 is_stmt 1 view .LVU357
 474:D:/fchai/work/i-cube/I-CUBE-HUAWEI/Middlewares/Third_Party/Huawei/iot_link/driver\driver.c ****             {
 1214              		.loc 1 474 31 is_stmt 0 view .LVU358
 1215 0014 2869     		ldr	r0, [r5, #16]
 1216              	.LVL112:
 474:D:/fchai/work/i-cube/I-CUBE-HUAWEI/Middlewares/Third_Party/Huawei/iot_link/driver\driver.c ****             {
 1217              		.loc 1 474 15 view .LVU359
 1218 0016 60B1     		cbz	r0, .L165
 474:D:/fchai/work/i-cube/I-CUBE-HUAWEI/Middlewares/Third_Party/Huawei/iot_link/driver\driver.c ****             {
 1219              		.loc 1 474 57 discriminator 1 view .LVU360
 1220 0018 4468     		ldr	r4, [r0, #4]
 474:D:/fchai/work/i-cube/I-CUBE-HUAWEI/Middlewares/Third_Party/Huawei/iot_link/driver\driver.c ****             {
 1221              		.loc 1 474 36 discriminator 1 view .LVU361
 1222 001a 4CB1     		cbz	r4, .L172
 476:D:/fchai/work/i-cube/I-CUBE-HUAWEI/Middlewares/Third_Party/Huawei/iot_link/driver\driver.c ****                 if(ret > 0)
 1223              		.loc 1 476 17 is_stmt 1 view .LVU362
 476:D:/fchai/work/i-cube/I-CUBE-HUAWEI/Middlewares/Third_Party/Huawei/iot_link/driver\driver.c ****                 if(ret > 0)
 1224              		.loc 1 476 23 is_stmt 0 view .LVU363
 1225 001c 069E     		ldr	r6, [sp, #24]
 1226 001e 6868     		ldr	r0, [r5, #4]
 1227 0020 0096     		str	r6, [sp]
 1228 0022 A047     		blx	r4
 1229              	.LVL113:
 477:D:/fchai/work/i-cube/I-CUBE-HUAWEI/Middlewares/Third_Party/Huawei/iot_link/driver\driver.c ****                 {
 1230              		.loc 1 477 17 is_stmt 1 view .LVU364
 477:D:/fchai/work/i-cube/I-CUBE-HUAWEI/Middlewares/Third_Party/Huawei/iot_link/driver\driver.c ****                 {
 1231              		.loc 1 477 19 is_stmt 0 view .LVU365
 1232 0024 0028     		cmp	r0, #0
 477:D:/fchai/work/i-cube/I-CUBE-HUAWEI/Middlewares/Third_Party/Huawei/iot_link/driver\driver.c ****                 {
 1233              		.loc 1 477 19 view .LVU366
 1234 0026 04DD     		ble	.L165
 479:D:/fchai/work/i-cube/I-CUBE-HUAWEI/Middlewares/Third_Party/Huawei/iot_link/driver\driver.c ****                 }
 1235              		.loc 1 479 21 is_stmt 1 view .LVU367
 479:D:/fchai/work/i-cube/I-CUBE-HUAWEI/Middlewares/Third_Party/Huawei/iot_link/driver\driver.c ****                 }
 1236              		.loc 1 479 40 is_stmt 0 view .LVU368
 1237 0028 2B6A     		ldr	r3, [r5, #32]
 1238 002a 0344     		add	r3, r3, r0
 1239 002c 2B62     		str	r3, [r5, #32]
 1240 002e 00E0     		b	.L165
 1241              	.LVL114:
 1242              	.L172:
 464:D:/fchai/work/i-cube/I-CUBE-HUAWEI/Middlewares/Third_Party/Huawei/iot_link/driver\driver.c ****     struct dev_cb  *devcb;
 1243              		.loc 1 464 13 view .LVU369
 1244 0030 2046     		mov	r0, r4
 1245              	.LVL115:
 485:D:/fchai/work/i-cube/I-CUBE-HUAWEI/Middlewares/Third_Party/Huawei/iot_link/driver\driver.c **** }
 1246              		.loc 1 485 5 is_stmt 1 view .LVU370
 1247              	.L165:
 486:D:/fchai/work/i-cube/I-CUBE-HUAWEI/Middlewares/Third_Party/Huawei/iot_link/driver\driver.c **** 
 1248              		.loc 1 486 1 is_stmt 0 view .LVU371
 1249 0032 02B0     		add	sp, sp, #8
 1250              	.LCFI14:
 1251              		.cfi_remember_state
 1252              		.cfi_def_cfa_offset 16
 1253              		@ sp needed
ARM GAS  T:\msys\tmp\cc56R3EJ.s 			page 40


 1254 0034 70BD     		pop	{r4, r5, r6, pc}
 1255              	.LVL116:
 1256              	.L170:
 1257              	.LCFI15:
 1258              		.cfi_restore_state
 464:D:/fchai/work/i-cube/I-CUBE-HUAWEI/Middlewares/Third_Party/Huawei/iot_link/driver\driver.c ****     struct dev_cb  *devcb;
 1259              		.loc 1 464 13 view .LVU372
 1260 0036 0020     		movs	r0, #0
 1261              	.LVL117:
 486:D:/fchai/work/i-cube/I-CUBE-HUAWEI/Middlewares/Third_Party/Huawei/iot_link/driver\driver.c **** 
 1262              		.loc 1 486 1 view .LVU373
 1263 0038 02B0     		add	sp, sp, #8
 1264              	.LCFI16:
 1265              		.cfi_def_cfa_offset 16
 1266              		@ sp needed
 1267 003a 70BD     		pop	{r4, r5, r6, pc}
 1268              	.LVL118:
 1269              	.L174:
 1270              	.LCFI17:
 1271              		.cfi_def_cfa_offset 0
 1272              		.cfi_restore 4
 1273              		.cfi_restore 5
 1274              		.cfi_restore 6
 1275              		.cfi_restore 14
 486:D:/fchai/work/i-cube/I-CUBE-HUAWEI/Middlewares/Third_Party/Huawei/iot_link/driver\driver.c **** 
 1276              		.loc 1 486 1 view .LVU374
 1277 003c 7047     		bx	lr
 1278              		.cfi_endproc
 1279              	.LFE11:
 1281 003e 00BF     		.section	.text.los_dev_write,"ax",%progbits
 1282              		.align	1
 1283              		.p2align 2,,3
 1284              		.global	los_dev_write
 1285              		.syntax unified
 1286              		.thumb
 1287              		.thumb_func
 1288              		.fpu fpv4-sp-d16
 1290              	los_dev_write:
 1291              	.LVL119:
 1292              	.LFB12:
 498:D:/fchai/work/i-cube/I-CUBE-HUAWEI/Middlewares/Third_Party/Huawei/iot_link/driver\driver.c ****     ssize_t ret = 0;
 1293              		.loc 1 498 1 is_stmt 1 view -0
 1294              		.cfi_startproc
 1295              		@ args = 4, pretend = 0, frame = 0
 1296              		@ frame_needed = 0, uses_anonymous_args = 0
 499:D:/fchai/work/i-cube/I-CUBE-HUAWEI/Middlewares/Third_Party/Huawei/iot_link/driver\driver.c ****     struct dev_cb  *devcb;
 1297              		.loc 1 499 5 view .LVU376
 500:D:/fchai/work/i-cube/I-CUBE-HUAWEI/Middlewares/Third_Party/Huawei/iot_link/driver\driver.c ****     struct driv_cb *drivcb;
 1298              		.loc 1 500 5 view .LVU377
 501:D:/fchai/work/i-cube/I-CUBE-HUAWEI/Middlewares/Third_Party/Huawei/iot_link/driver\driver.c **** 
 1299              		.loc 1 501 5 view .LVU378
 503:D:/fchai/work/i-cube/I-CUBE-HUAWEI/Middlewares/Third_Party/Huawei/iot_link/driver\driver.c ****     {
 1300              		.loc 1 503 5 view .LVU379
 503:D:/fchai/work/i-cube/I-CUBE-HUAWEI/Middlewares/Third_Party/Huawei/iot_link/driver\driver.c ****     {
 1301              		.loc 1 503 7 is_stmt 0 view .LVU380
 1302 0000 D0B1     		cbz	r0, .L186
 498:D:/fchai/work/i-cube/I-CUBE-HUAWEI/Middlewares/Third_Party/Huawei/iot_link/driver\driver.c ****     ssize_t ret = 0;
ARM GAS  T:\msys\tmp\cc56R3EJ.s 			page 41


 1303              		.loc 1 498 1 discriminator 1 view .LVU381
 1304 0002 70B5     		push	{r4, r5, r6, lr}
 1305              	.LCFI18:
 1306              		.cfi_def_cfa_offset 16
 1307              		.cfi_offset 4, -16
 1308              		.cfi_offset 5, -12
 1309              		.cfi_offset 6, -8
 1310              		.cfi_offset 14, -4
 1311 0004 1446     		mov	r4, r2
 1312 0006 82B0     		sub	sp, sp, #8
 1313              	.LCFI19:
 1314              		.cfi_def_cfa_offset 24
 503:D:/fchai/work/i-cube/I-CUBE-HUAWEI/Middlewares/Third_Party/Huawei/iot_link/driver\driver.c ****     {
 1315              		.loc 1 503 22 discriminator 1 view .LVU382
 1316 0008 9AB1     		cbz	r2, .L184
 503:D:/fchai/work/i-cube/I-CUBE-HUAWEI/Middlewares/Third_Party/Huawei/iot_link/driver\driver.c ****     {
 1317              		.loc 1 503 39 discriminator 2 view .LVU383
 1318 000a B3B1     		cbz	r3, .L181
 505:D:/fchai/work/i-cube/I-CUBE-HUAWEI/Middlewares/Third_Party/Huawei/iot_link/driver\driver.c ****         if((((uint32_t)devcb->openflag) & O_WRONLY) || (((uint32_t)devcb->openflag) & O_RDWR))
 1319              		.loc 1 505 9 is_stmt 1 view .LVU384
 1320              	.LVL120:
 506:D:/fchai/work/i-cube/I-CUBE-HUAWEI/Middlewares/Third_Party/Huawei/iot_link/driver\driver.c ****         {
 1321              		.loc 1 506 9 view .LVU385
 506:D:/fchai/work/i-cube/I-CUBE-HUAWEI/Middlewares/Third_Party/Huawei/iot_link/driver\driver.c ****         {
 1322              		.loc 1 506 53 is_stmt 0 view .LVU386
 1323 000c 8468     		ldr	r4, [r0, #8]
 506:D:/fchai/work/i-cube/I-CUBE-HUAWEI/Middlewares/Third_Party/Huawei/iot_link/driver\driver.c ****         {
 1324              		.loc 1 506 11 view .LVU387
 1325 000e 14F00304 		ands	r4, r4, #3
 1326 0012 0ED0     		beq	.L184
 508:D:/fchai/work/i-cube/I-CUBE-HUAWEI/Middlewares/Third_Party/Huawei/iot_link/driver\driver.c ****             if((NULL != drivcb->op)&&(NULL != drivcb->op->write))
 1327              		.loc 1 508 13 is_stmt 1 view .LVU388
 508:D:/fchai/work/i-cube/I-CUBE-HUAWEI/Middlewares/Third_Party/Huawei/iot_link/driver\driver.c ****             if((NULL != drivcb->op)&&(NULL != drivcb->op->write))
 1328              		.loc 1 508 20 is_stmt 0 view .LVU389
 1329 0014 4568     		ldr	r5, [r0, #4]
 1330              	.LVL121:
 509:D:/fchai/work/i-cube/I-CUBE-HUAWEI/Middlewares/Third_Party/Huawei/iot_link/driver\driver.c ****             {
 1331              		.loc 1 509 13 is_stmt 1 view .LVU390
 509:D:/fchai/work/i-cube/I-CUBE-HUAWEI/Middlewares/Third_Party/Huawei/iot_link/driver\driver.c ****             {
 1332              		.loc 1 509 31 is_stmt 0 view .LVU391
 1333 0016 2869     		ldr	r0, [r5, #16]
 1334              	.LVL122:
 509:D:/fchai/work/i-cube/I-CUBE-HUAWEI/Middlewares/Third_Party/Huawei/iot_link/driver\driver.c ****             {
 1335              		.loc 1 509 15 view .LVU392
 1336 0018 60B1     		cbz	r0, .L177
 509:D:/fchai/work/i-cube/I-CUBE-HUAWEI/Middlewares/Third_Party/Huawei/iot_link/driver\driver.c ****             {
 1337              		.loc 1 509 57 discriminator 1 view .LVU393
 1338 001a 8468     		ldr	r4, [r0, #8]
 509:D:/fchai/work/i-cube/I-CUBE-HUAWEI/Middlewares/Third_Party/Huawei/iot_link/driver\driver.c ****             {
 1339              		.loc 1 509 36 discriminator 1 view .LVU394
 1340 001c 4CB1     		cbz	r4, .L184
 511:D:/fchai/work/i-cube/I-CUBE-HUAWEI/Middlewares/Third_Party/Huawei/iot_link/driver\driver.c ****                 if(ret > 0)
 1341              		.loc 1 511 17 is_stmt 1 view .LVU395
 511:D:/fchai/work/i-cube/I-CUBE-HUAWEI/Middlewares/Third_Party/Huawei/iot_link/driver\driver.c ****                 if(ret > 0)
 1342              		.loc 1 511 23 is_stmt 0 view .LVU396
 1343 001e 069E     		ldr	r6, [sp, #24]
 1344 0020 6868     		ldr	r0, [r5, #4]
ARM GAS  T:\msys\tmp\cc56R3EJ.s 			page 42


 1345 0022 0096     		str	r6, [sp]
 1346 0024 A047     		blx	r4
 1347              	.LVL123:
 512:D:/fchai/work/i-cube/I-CUBE-HUAWEI/Middlewares/Third_Party/Huawei/iot_link/driver\driver.c ****                 {
 1348              		.loc 1 512 17 is_stmt 1 view .LVU397
 512:D:/fchai/work/i-cube/I-CUBE-HUAWEI/Middlewares/Third_Party/Huawei/iot_link/driver\driver.c ****                 {
 1349              		.loc 1 512 19 is_stmt 0 view .LVU398
 1350 0026 0028     		cmp	r0, #0
 512:D:/fchai/work/i-cube/I-CUBE-HUAWEI/Middlewares/Third_Party/Huawei/iot_link/driver\driver.c ****                 {
 1351              		.loc 1 512 19 view .LVU399
 1352 0028 04DD     		ble	.L177
 514:D:/fchai/work/i-cube/I-CUBE-HUAWEI/Middlewares/Third_Party/Huawei/iot_link/driver\driver.c ****                 }
 1353              		.loc 1 514 21 is_stmt 1 view .LVU400
 514:D:/fchai/work/i-cube/I-CUBE-HUAWEI/Middlewares/Third_Party/Huawei/iot_link/driver\driver.c ****                 }
 1354              		.loc 1 514 41 is_stmt 0 view .LVU401
 1355 002a EB69     		ldr	r3, [r5, #28]
 1356 002c 0344     		add	r3, r3, r0
 1357 002e EB61     		str	r3, [r5, #28]
 1358 0030 00E0     		b	.L177
 1359              	.LVL124:
 1360              	.L184:
 499:D:/fchai/work/i-cube/I-CUBE-HUAWEI/Middlewares/Third_Party/Huawei/iot_link/driver\driver.c ****     struct dev_cb  *devcb;
 1361              		.loc 1 499 13 view .LVU402
 1362 0032 2046     		mov	r0, r4
 1363              	.LVL125:
 520:D:/fchai/work/i-cube/I-CUBE-HUAWEI/Middlewares/Third_Party/Huawei/iot_link/driver\driver.c **** }
 1364              		.loc 1 520 5 is_stmt 1 view .LVU403
 1365              	.L177:
 521:D:/fchai/work/i-cube/I-CUBE-HUAWEI/Middlewares/Third_Party/Huawei/iot_link/driver\driver.c **** 
 1366              		.loc 1 521 1 is_stmt 0 view .LVU404
 1367 0034 02B0     		add	sp, sp, #8
 1368              	.LCFI20:
 1369              		.cfi_def_cfa_offset 16
 1370              		@ sp needed
 1371 0036 70BD     		pop	{r4, r5, r6, pc}
 1372              	.LVL126:
 1373              	.L186:
 1374              	.LCFI21:
 1375              		.cfi_def_cfa_offset 0
 1376              		.cfi_restore 4
 1377              		.cfi_restore 5
 1378              		.cfi_restore 6
 1379              		.cfi_restore 14
 521:D:/fchai/work/i-cube/I-CUBE-HUAWEI/Middlewares/Third_Party/Huawei/iot_link/driver\driver.c **** 
 1380              		.loc 1 521 1 view .LVU405
 1381 0038 7047     		bx	lr
 1382              	.L181:
 1383              	.LCFI22:
 1384              		.cfi_def_cfa_offset 24
 1385              		.cfi_offset 4, -16
 1386              		.cfi_offset 5, -12
 1387              		.cfi_offset 6, -8
 1388              		.cfi_offset 14, -4
 499:D:/fchai/work/i-cube/I-CUBE-HUAWEI/Middlewares/Third_Party/Huawei/iot_link/driver\driver.c ****     struct dev_cb  *devcb;
 1389              		.loc 1 499 13 view .LVU406
 1390 003a 1846     		mov	r0, r3
 1391              	.LVL127:
ARM GAS  T:\msys\tmp\cc56R3EJ.s 			page 43


 521:D:/fchai/work/i-cube/I-CUBE-HUAWEI/Middlewares/Third_Party/Huawei/iot_link/driver\driver.c **** 
 1392              		.loc 1 521 1 view .LVU407
 1393 003c 02B0     		add	sp, sp, #8
 1394              	.LCFI23:
 1395              		.cfi_def_cfa_offset 16
 1396              		@ sp needed
 1397 003e 70BD     		pop	{r4, r5, r6, pc}
 521:D:/fchai/work/i-cube/I-CUBE-HUAWEI/Middlewares/Third_Party/Huawei/iot_link/driver\driver.c **** 
 1398              		.loc 1 521 1 view .LVU408
 1399              		.cfi_endproc
 1400              	.LFE12:
 1402              		.section	.text.los_dev_ioctl,"ax",%progbits
 1403              		.align	1
 1404              		.p2align 2,,3
 1405              		.global	los_dev_ioctl
 1406              		.syntax unified
 1407              		.thumb
 1408              		.thumb_func
 1409              		.fpu fpv4-sp-d16
 1411              	los_dev_ioctl:
 1412              	.LVL128:
 1413              	.LFB13:
 531:D:/fchai/work/i-cube/I-CUBE-HUAWEI/Middlewares/Third_Party/Huawei/iot_link/driver\driver.c ****     bool_t ret = false;
 1414              		.loc 1 531 1 is_stmt 1 view -0
 1415              		.cfi_startproc
 1416              		@ args = 0, pretend = 0, frame = 0
 1417              		@ frame_needed = 0, uses_anonymous_args = 0
 1418              		@ link register save eliminated.
 532:D:/fchai/work/i-cube/I-CUBE-HUAWEI/Middlewares/Third_Party/Huawei/iot_link/driver\driver.c ****     struct dev_cb  *devcb;
 1419              		.loc 1 532 5 view .LVU410
 533:D:/fchai/work/i-cube/I-CUBE-HUAWEI/Middlewares/Third_Party/Huawei/iot_link/driver\driver.c ****     struct driv_cb *drivcb;
 1420              		.loc 1 533 5 view .LVU411
 534:D:/fchai/work/i-cube/I-CUBE-HUAWEI/Middlewares/Third_Party/Huawei/iot_link/driver\driver.c **** 
 1421              		.loc 1 534 5 view .LVU412
 536:D:/fchai/work/i-cube/I-CUBE-HUAWEI/Middlewares/Third_Party/Huawei/iot_link/driver\driver.c ****     {
 1422              		.loc 1 536 5 view .LVU413
 536:D:/fchai/work/i-cube/I-CUBE-HUAWEI/Middlewares/Third_Party/Huawei/iot_link/driver\driver.c ****     {
 1423              		.loc 1 536 7 is_stmt 0 view .LVU414
 1424 0000 60B1     		cbz	r0, .L198
 538:D:/fchai/work/i-cube/I-CUBE-HUAWEI/Middlewares/Third_Party/Huawei/iot_link/driver\driver.c ****         drivcb = devcb->driv;
 1425              		.loc 1 538 9 is_stmt 1 view .LVU415
 1426              	.LVL129:
 539:D:/fchai/work/i-cube/I-CUBE-HUAWEI/Middlewares/Third_Party/Huawei/iot_link/driver\driver.c ****         if((NULL != drivcb->op)&&(NULL != drivcb->op->ioctl))
 1427              		.loc 1 539 9 view .LVU416
 531:D:/fchai/work/i-cube/I-CUBE-HUAWEI/Middlewares/Third_Party/Huawei/iot_link/driver\driver.c ****     bool_t ret = false;
 1428              		.loc 1 531 1 is_stmt 0 view .LVU417
 1429 0002 30B4     		push	{r4, r5}
 1430              	.LCFI24:
 1431              		.cfi_def_cfa_offset 8
 1432              		.cfi_offset 4, -8
 1433              		.cfi_offset 5, -4
 539:D:/fchai/work/i-cube/I-CUBE-HUAWEI/Middlewares/Third_Party/Huawei/iot_link/driver\driver.c ****         if((NULL != drivcb->op)&&(NULL != drivcb->op->ioctl))
 1434              		.loc 1 539 16 view .LVU418
 1435 0004 4468     		ldr	r4, [r0, #4]
 1436              	.LVL130:
 540:D:/fchai/work/i-cube/I-CUBE-HUAWEI/Middlewares/Third_Party/Huawei/iot_link/driver\driver.c ****         {
 1437              		.loc 1 540 9 is_stmt 1 view .LVU419
ARM GAS  T:\msys\tmp\cc56R3EJ.s 			page 44


 540:D:/fchai/work/i-cube/I-CUBE-HUAWEI/Middlewares/Third_Party/Huawei/iot_link/driver\driver.c ****         {
 1438              		.loc 1 540 27 is_stmt 0 view .LVU420
 1439 0006 2069     		ldr	r0, [r4, #16]
 1440              	.LVL131:
 540:D:/fchai/work/i-cube/I-CUBE-HUAWEI/Middlewares/Third_Party/Huawei/iot_link/driver\driver.c ****         {
 1441              		.loc 1 540 11 view .LVU421
 1442 0008 28B1     		cbz	r0, .L189
 540:D:/fchai/work/i-cube/I-CUBE-HUAWEI/Middlewares/Third_Party/Huawei/iot_link/driver\driver.c ****         {
 1443              		.loc 1 540 53 discriminator 1 view .LVU422
 1444 000a 0569     		ldr	r5, [r0, #16]
 540:D:/fchai/work/i-cube/I-CUBE-HUAWEI/Middlewares/Third_Party/Huawei/iot_link/driver\driver.c ****         {
 1445              		.loc 1 540 32 discriminator 1 view .LVU423
 1446 000c 1DB1     		cbz	r5, .L189
 542:D:/fchai/work/i-cube/I-CUBE-HUAWEI/Middlewares/Third_Party/Huawei/iot_link/driver\driver.c ****         }
 1447              		.loc 1 542 13 is_stmt 1 view .LVU424
 542:D:/fchai/work/i-cube/I-CUBE-HUAWEI/Middlewares/Third_Party/Huawei/iot_link/driver\driver.c ****         }
 1448              		.loc 1 542 19 is_stmt 0 view .LVU425
 1449 000e 6068     		ldr	r0, [r4, #4]
 1450 0010 AC46     		mov	ip, r5
 547:D:/fchai/work/i-cube/I-CUBE-HUAWEI/Middlewares/Third_Party/Huawei/iot_link/driver\driver.c **** 
 1451              		.loc 1 547 1 view .LVU426
 1452 0012 30BC     		pop	{r4, r5}
 1453              	.LCFI25:
 1454              		.cfi_remember_state
 1455              		.cfi_restore 5
 1456              		.cfi_restore 4
 1457              		.cfi_def_cfa_offset 0
 1458              	.LVL132:
 542:D:/fchai/work/i-cube/I-CUBE-HUAWEI/Middlewares/Third_Party/Huawei/iot_link/driver\driver.c ****         }
 1459              		.loc 1 542 19 view .LVU427
 1460 0014 6047     		bx	ip
 1461              	.LVL133:
 1462              	.L189:
 1463              	.LCFI26:
 1464              		.cfi_restore_state
 547:D:/fchai/work/i-cube/I-CUBE-HUAWEI/Middlewares/Third_Party/Huawei/iot_link/driver\driver.c **** 
 1465              		.loc 1 547 1 view .LVU428
 1466 0016 0020     		movs	r0, #0
 1467 0018 30BC     		pop	{r4, r5}
 1468              	.LCFI27:
 1469              		.cfi_restore 5
 1470              		.cfi_restore 4
 1471              		.cfi_def_cfa_offset 0
 1472              	.LVL134:
 547:D:/fchai/work/i-cube/I-CUBE-HUAWEI/Middlewares/Third_Party/Huawei/iot_link/driver\driver.c **** 
 1473              		.loc 1 547 1 view .LVU429
 1474 001a 7047     		bx	lr
 1475              	.LVL135:
 1476              	.L198:
 547:D:/fchai/work/i-cube/I-CUBE-HUAWEI/Middlewares/Third_Party/Huawei/iot_link/driver\driver.c **** 
 1477              		.loc 1 547 1 view .LVU430
 1478 001c 0020     		movs	r0, #0
 1479              	.LVL136:
 547:D:/fchai/work/i-cube/I-CUBE-HUAWEI/Middlewares/Third_Party/Huawei/iot_link/driver\driver.c **** 
 1480              		.loc 1 547 1 view .LVU431
 1481 001e 7047     		bx	lr
 1482              		.cfi_endproc
ARM GAS  T:\msys\tmp\cc56R3EJ.s 			page 45


 1483              	.LFE13:
 1485              		.section	.text.los_dev_seek,"ax",%progbits
 1486              		.align	1
 1487              		.p2align 2,,3
 1488              		.global	los_dev_seek
 1489              		.syntax unified
 1490              		.thumb
 1491              		.thumb_func
 1492              		.fpu fpv4-sp-d16
 1494              	los_dev_seek:
 1495              	.LVL137:
 1496              	.LFB14:
 557:D:/fchai/work/i-cube/I-CUBE-HUAWEI/Middlewares/Third_Party/Huawei/iot_link/driver\driver.c ****     off_t ret = -1;
 1497              		.loc 1 557 1 is_stmt 1 view -0
 1498              		.cfi_startproc
 1499              		@ args = 0, pretend = 0, frame = 0
 1500              		@ frame_needed = 0, uses_anonymous_args = 0
 1501              		@ link register save eliminated.
 558:D:/fchai/work/i-cube/I-CUBE-HUAWEI/Middlewares/Third_Party/Huawei/iot_link/driver\driver.c ****     struct dev_cb  *devcb;
 1502              		.loc 1 558 5 view .LVU433
 559:D:/fchai/work/i-cube/I-CUBE-HUAWEI/Middlewares/Third_Party/Huawei/iot_link/driver\driver.c ****     struct driv_cb *drivcb;
 1503              		.loc 1 559 5 view .LVU434
 560:D:/fchai/work/i-cube/I-CUBE-HUAWEI/Middlewares/Third_Party/Huawei/iot_link/driver\driver.c **** 
 1504              		.loc 1 560 5 view .LVU435
 562:D:/fchai/work/i-cube/I-CUBE-HUAWEI/Middlewares/Third_Party/Huawei/iot_link/driver\driver.c ****     {
 1505              		.loc 1 562 5 view .LVU436
 562:D:/fchai/work/i-cube/I-CUBE-HUAWEI/Middlewares/Third_Party/Huawei/iot_link/driver\driver.c ****     {
 1506              		.loc 1 562 7 is_stmt 0 view .LVU437
 1507 0000 30B1     		cbz	r0, .L201
 564:D:/fchai/work/i-cube/I-CUBE-HUAWEI/Middlewares/Third_Party/Huawei/iot_link/driver\driver.c ****         drivcb = devcb->driv;
 1508              		.loc 1 564 9 is_stmt 1 view .LVU438
 1509              	.LVL138:
 565:D:/fchai/work/i-cube/I-CUBE-HUAWEI/Middlewares/Third_Party/Huawei/iot_link/driver\driver.c ****         if((NULL != drivcb->op)&&(NULL != drivcb->op->seek))
 1510              		.loc 1 565 9 view .LVU439
 565:D:/fchai/work/i-cube/I-CUBE-HUAWEI/Middlewares/Third_Party/Huawei/iot_link/driver\driver.c ****         if((NULL != drivcb->op)&&(NULL != drivcb->op->seek))
 1511              		.loc 1 565 16 is_stmt 0 view .LVU440
 1512 0002 4068     		ldr	r0, [r0, #4]
 1513              	.LVL139:
 566:D:/fchai/work/i-cube/I-CUBE-HUAWEI/Middlewares/Third_Party/Huawei/iot_link/driver\driver.c ****         {
 1514              		.loc 1 566 9 is_stmt 1 view .LVU441
 566:D:/fchai/work/i-cube/I-CUBE-HUAWEI/Middlewares/Third_Party/Huawei/iot_link/driver\driver.c ****         {
 1515              		.loc 1 566 27 is_stmt 0 view .LVU442
 1516 0004 0369     		ldr	r3, [r0, #16]
 566:D:/fchai/work/i-cube/I-CUBE-HUAWEI/Middlewares/Third_Party/Huawei/iot_link/driver\driver.c ****         {
 1517              		.loc 1 566 11 view .LVU443
 1518 0006 1BB1     		cbz	r3, .L201
 566:D:/fchai/work/i-cube/I-CUBE-HUAWEI/Middlewares/Third_Party/Huawei/iot_link/driver\driver.c ****         {
 1519              		.loc 1 566 53 discriminator 1 view .LVU444
 1520 0008 5B69     		ldr	r3, [r3, #20]
 566:D:/fchai/work/i-cube/I-CUBE-HUAWEI/Middlewares/Third_Party/Huawei/iot_link/driver\driver.c ****         {
 1521              		.loc 1 566 32 discriminator 1 view .LVU445
 1522 000a 0BB1     		cbz	r3, .L201
 568:D:/fchai/work/i-cube/I-CUBE-HUAWEI/Middlewares/Third_Party/Huawei/iot_link/driver\driver.c ****         }
 1523              		.loc 1 568 13 is_stmt 1 view .LVU446
 568:D:/fchai/work/i-cube/I-CUBE-HUAWEI/Middlewares/Third_Party/Huawei/iot_link/driver\driver.c ****         }
 1524              		.loc 1 568 19 is_stmt 0 view .LVU447
 1525 000c 4068     		ldr	r0, [r0, #4]
ARM GAS  T:\msys\tmp\cc56R3EJ.s 			page 46


 1526              	.LVL140:
 568:D:/fchai/work/i-cube/I-CUBE-HUAWEI/Middlewares/Third_Party/Huawei/iot_link/driver\driver.c ****         }
 1527              		.loc 1 568 19 view .LVU448
 1528 000e 1847     		bx	r3
 1529              	.LVL141:
 1530              	.L201:
 573:D:/fchai/work/i-cube/I-CUBE-HUAWEI/Middlewares/Third_Party/Huawei/iot_link/driver\driver.c **** 
 1531              		.loc 1 573 1 view .LVU449
 1532 0010 4FF0FF30 		mov	r0, #-1
 1533 0014 7047     		bx	lr
 1534              		.cfi_endproc
 1535              	.LFE14:
 1537 0016 00BF     		.section	.rodata.str1.4,"aMS",%progbits,1
 1538              		.align	2
 1539              	.LC10:
 1540 0000 6465766C 		.ascii	"devlst\000"
 1540      737400
 1541              		.section	.bss.s_los_driv_module,"aw",%nobits
 1542              		.align	2
 1543              		.set	.LANCHOR0,. + 0
 1546              	s_los_driv_module:
 1547 0000 00000000 		.space	12
 1547      00000000 
 1547      00000000 
 1548              		.section	.rodata.__FUNCTION__.7755,"a"
 1549              		.align	2
 1550              		.set	.LANCHOR1,. + 0
 1553              	__FUNCTION__.7755:
 1554 0000 5F5F6472 		.ascii	"__driv_show_shell\000"
 1554      69765F73 
 1554      686F775F 
 1554      7368656C 
 1554      6C00
 1555              		.section	oshell,"a"
 1556              		.align	2
 1559              	__oshell___driv_show_shell:
 1560 0000 00000000 		.word	.LC10
 1561 0004 00000000 		.word	.LC10
 1562 0008 00000000 		.word	__driv_show_shell
 1563 000c 0000     		.short	0
 1564 000e 0400     		.short	4
 1565              		.text
 1566              	.Letext0:
 1567              		.file 2 "t:\\msys\\3rd\\gcc-arm-none-eabi-9-2020-q2-update-win32\\lib\\gcc\\arm-none-eabi\\9.3.1\\
 1568              		.file 3 "t:\\msys\\3rd\\gcc-arm-none-eabi-9-2020-q2-update-win32\\arm-none-eabi\\include\\machine\
 1569              		.file 4 "t:\\msys\\3rd\\gcc-arm-none-eabi-9-2020-q2-update-win32\\arm-none-eabi\\include\\sys\\_ty
 1570              		.file 5 "t:\\msys\\3rd\\gcc-arm-none-eabi-9-2020-q2-update-win32\\arm-none-eabi\\include\\sys\\ree
 1571              		.file 6 "t:\\msys\\3rd\\gcc-arm-none-eabi-9-2020-q2-update-win32\\arm-none-eabi\\include\\sys\\loc
 1572              		.file 7 "t:\\msys\\3rd\\gcc-arm-none-eabi-9-2020-q2-update-win32\\arm-none-eabi\\include\\sys\\_st
 1573              		.file 8 "t:\\msys\\3rd\\gcc-arm-none-eabi-9-2020-q2-update-win32\\arm-none-eabi\\include\\sys\\typ
 1574              		.file 9 "t:\\msys\\3rd\\gcc-arm-none-eabi-9-2020-q2-update-win32\\arm-none-eabi\\include\\stdlib.h
 1575              		.file 10 "D:/fchai/work/i-cube/I-CUBE-HUAWEI/Middlewares/Third_Party/Huawei/iot_link/os/osal/osal_
 1576              		.file 11 "D:/fchai/work/i-cube/I-CUBE-HUAWEI/Middlewares/Third_Party/Huawei/iot_link/driver/driver
 1577              		.file 12 "t:\\msys\\3rd\\gcc-arm-none-eabi-9-2020-q2-update-win32\\arm-none-eabi\\include\\time.h"
 1578              		.file 13 "D:/fchai/work/i-cube/I-CUBE-HUAWEI/Middlewares/Third_Party/Huawei/iot_link/inc/link_log.
 1579              		.file 14 "D:/fchai/work/i-cube/I-CUBE-HUAWEI/Middlewares/Third_Party/Huawei/iot_link/inc/shell.h"
 1580              		.file 15 "D:/fchai/work/i-cube/I-CUBE-HUAWEI/Middlewares/Third_Party/Huawei/iot_link/os/osal/osal.
ARM GAS  T:\msys\tmp\cc56R3EJ.s 			page 47


 1581              		.file 16 "t:\\msys\\3rd\\gcc-arm-none-eabi-9-2020-q2-update-win32\\arm-none-eabi\\include\\string.
 1582              		.file 17 "t:\\msys\\3rd\\gcc-arm-none-eabi-9-2020-q2-update-win32\\arm-none-eabi\\include\\stdio.h
 1583              		.file 18 "<built-in>"
ARM GAS  T:\msys\tmp\cc56R3EJ.s 			page 48

