ARM GAS  T:\msys\tmp\cckvbb2E.s 			page 1


   1              		.cpu cortex-m4
   2              		.eabi_attribute 27, 1
   3              		.eabi_attribute 28, 1
   4              		.eabi_attribute 20, 1
   5              		.eabi_attribute 21, 1
   6              		.eabi_attribute 23, 3
   7              		.eabi_attribute 24, 1
   8              		.eabi_attribute 25, 1
   9              		.eabi_attribute 26, 1
  10              		.eabi_attribute 30, 2
  11              		.eabi_attribute 34, 1
  12              		.eabi_attribute 18, 4
  13              		.file	"oc_mqtt_profile_package.c"
  14              		.text
  15              	.Ltext0:
  16              		.cfi_sections	.debug_frame
  17              		.global	__aeabi_i2d
  18              		.global	__aeabi_f2d
  19              		.section	.text.JsonCreateKvLst,"ax",%progbits
  20              		.align	1
  21              		.p2align 2,,3
  22              		.arch armv7e-m
  23              		.syntax unified
  24              		.thumb
  25              		.thumb_func
  26              		.fpu fpv4-sp-d16
  28              	JsonCreateKvLst:
  29              	.LVL0:
  30              	.LFB2:
  31              		.file 1 "D:/fchai/work/i-cube/I-CUBE-HUAWEI/Middlewares/Third_Party/Huawei/iot_link/oc/oc_mqtt/oc_
   1:D:/fchai/work/i-cube/I-CUBE-HUAWEI/Middlewares/Third_Party/Huawei/iot_link/oc/oc_mqtt/oc_mqtt_profile_v5\oc_mqtt_profile_package.c **** /*----------------------------------------------------------------------------
   2:D:/fchai/work/i-cube/I-CUBE-HUAWEI/Middlewares/Third_Party/Huawei/iot_link/oc/oc_mqtt/oc_mqtt_profile_v5\oc_mqtt_profile_package.c ****  * Copyright (c) <2018>, <Huawei Technologies Co., Ltd>
   3:D:/fchai/work/i-cube/I-CUBE-HUAWEI/Middlewares/Third_Party/Huawei/iot_link/oc/oc_mqtt/oc_mqtt_profile_v5\oc_mqtt_profile_package.c ****  * All rights reserved.
   4:D:/fchai/work/i-cube/I-CUBE-HUAWEI/Middlewares/Third_Party/Huawei/iot_link/oc/oc_mqtt/oc_mqtt_profile_v5\oc_mqtt_profile_package.c ****  * Redistribution and use in source and binary forms, with or without modification,
   5:D:/fchai/work/i-cube/I-CUBE-HUAWEI/Middlewares/Third_Party/Huawei/iot_link/oc/oc_mqtt/oc_mqtt_profile_v5\oc_mqtt_profile_package.c ****  * are permitted provided that the following conditions are met:
   6:D:/fchai/work/i-cube/I-CUBE-HUAWEI/Middlewares/Third_Party/Huawei/iot_link/oc/oc_mqtt/oc_mqtt_profile_v5\oc_mqtt_profile_package.c ****  * 1. Redistributions of source code must retain the above copyright notice, this list of
   7:D:/fchai/work/i-cube/I-CUBE-HUAWEI/Middlewares/Third_Party/Huawei/iot_link/oc/oc_mqtt/oc_mqtt_profile_v5\oc_mqtt_profile_package.c ****  * conditions and the following disclaimer.
   8:D:/fchai/work/i-cube/I-CUBE-HUAWEI/Middlewares/Third_Party/Huawei/iot_link/oc/oc_mqtt/oc_mqtt_profile_v5\oc_mqtt_profile_package.c ****  * 2. Redistributions in binary form must reproduce the above copyright notice, this list
   9:D:/fchai/work/i-cube/I-CUBE-HUAWEI/Middlewares/Third_Party/Huawei/iot_link/oc/oc_mqtt/oc_mqtt_profile_v5\oc_mqtt_profile_package.c ****  * of conditions and the following disclaimer in the documentation and/or other materials
  10:D:/fchai/work/i-cube/I-CUBE-HUAWEI/Middlewares/Third_Party/Huawei/iot_link/oc/oc_mqtt/oc_mqtt_profile_v5\oc_mqtt_profile_package.c ****  * provided with the distribution.
  11:D:/fchai/work/i-cube/I-CUBE-HUAWEI/Middlewares/Third_Party/Huawei/iot_link/oc/oc_mqtt/oc_mqtt_profile_v5\oc_mqtt_profile_package.c ****  * 3. Neither the name of the copyright holder nor the names of its contributors may be used
  12:D:/fchai/work/i-cube/I-CUBE-HUAWEI/Middlewares/Third_Party/Huawei/iot_link/oc/oc_mqtt/oc_mqtt_profile_v5\oc_mqtt_profile_package.c ****  * to endorse or promote products derived from this software without specific prior written
  13:D:/fchai/work/i-cube/I-CUBE-HUAWEI/Middlewares/Third_Party/Huawei/iot_link/oc/oc_mqtt/oc_mqtt_profile_v5\oc_mqtt_profile_package.c ****  * permission.
  14:D:/fchai/work/i-cube/I-CUBE-HUAWEI/Middlewares/Third_Party/Huawei/iot_link/oc/oc_mqtt/oc_mqtt_profile_v5\oc_mqtt_profile_package.c ****  * THIS SOFTWARE IS PROVIDED BY THE COPYRIGHT HOLDERS AND CONTRIBUTORS
  15:D:/fchai/work/i-cube/I-CUBE-HUAWEI/Middlewares/Third_Party/Huawei/iot_link/oc/oc_mqtt/oc_mqtt_profile_v5\oc_mqtt_profile_package.c ****  * "AS IS" AND ANY EXPRESS OR IMPLIED WARRANTIES, INCLUDING, BUT NOT LIMITED TO,
  16:D:/fchai/work/i-cube/I-CUBE-HUAWEI/Middlewares/Third_Party/Huawei/iot_link/oc/oc_mqtt/oc_mqtt_profile_v5\oc_mqtt_profile_package.c ****  * THE IMPLIED WARRANTIES OF MERCHANTABILITY AND FITNESS FOR A PARTICULAR
  17:D:/fchai/work/i-cube/I-CUBE-HUAWEI/Middlewares/Third_Party/Huawei/iot_link/oc/oc_mqtt/oc_mqtt_profile_v5\oc_mqtt_profile_package.c ****  * PURPOSE ARE DISCLAIMED. IN NO EVENT SHALL THE COPYRIGHT HOLDER OR
  18:D:/fchai/work/i-cube/I-CUBE-HUAWEI/Middlewares/Third_Party/Huawei/iot_link/oc/oc_mqtt/oc_mqtt_profile_v5\oc_mqtt_profile_package.c ****  * CONTRIBUTORS BE LIABLE FOR ANY DIRECT, INDIRECT, INCIDENTAL, SPECIAL,
  19:D:/fchai/work/i-cube/I-CUBE-HUAWEI/Middlewares/Third_Party/Huawei/iot_link/oc/oc_mqtt/oc_mqtt_profile_v5\oc_mqtt_profile_package.c ****  * EXEMPLARY, OR CONSEQUENTIAL DAMAGES (INCLUDING, BUT NOT LIMITED TO,
  20:D:/fchai/work/i-cube/I-CUBE-HUAWEI/Middlewares/Third_Party/Huawei/iot_link/oc/oc_mqtt/oc_mqtt_profile_v5\oc_mqtt_profile_package.c ****  * PROCUREMENT OF SUBSTITUTE GOODS OR SERVICES; LOSS OF USE, DATA, OR PROFITS;
  21:D:/fchai/work/i-cube/I-CUBE-HUAWEI/Middlewares/Third_Party/Huawei/iot_link/oc/oc_mqtt/oc_mqtt_profile_v5\oc_mqtt_profile_package.c ****  * OR BUSINESS INTERRUPTION) HOWEVER CAUSED AND ON ANY THEORY OF LIABILITY,
  22:D:/fchai/work/i-cube/I-CUBE-HUAWEI/Middlewares/Third_Party/Huawei/iot_link/oc/oc_mqtt/oc_mqtt_profile_v5\oc_mqtt_profile_package.c ****  * WHETHER IN CONTRACT, STRICT LIABILITY, OR TORT (INCLUDING NEGLIGENCE OR
  23:D:/fchai/work/i-cube/I-CUBE-HUAWEI/Middlewares/Third_Party/Huawei/iot_link/oc/oc_mqtt/oc_mqtt_profile_v5\oc_mqtt_profile_package.c ****  * OTHERWISE) ARISING IN ANY WAY OUT OF THE USE OF THIS SOFTWARE, EVEN IF
  24:D:/fchai/work/i-cube/I-CUBE-HUAWEI/Middlewares/Third_Party/Huawei/iot_link/oc/oc_mqtt/oc_mqtt_profile_v5\oc_mqtt_profile_package.c ****  * ADVISED OF THE POSSIBILITY OF SUCH DAMAGE.
  25:D:/fchai/work/i-cube/I-CUBE-HUAWEI/Middlewares/Third_Party/Huawei/iot_link/oc/oc_mqtt/oc_mqtt_profile_v5\oc_mqtt_profile_package.c ****  *---------------------------------------------------------------------------*/
  26:D:/fchai/work/i-cube/I-CUBE-HUAWEI/Middlewares/Third_Party/Huawei/iot_link/oc/oc_mqtt/oc_mqtt_profile_v5\oc_mqtt_profile_package.c **** /*----------------------------------------------------------------------------
  27:D:/fchai/work/i-cube/I-CUBE-HUAWEI/Middlewares/Third_Party/Huawei/iot_link/oc/oc_mqtt/oc_mqtt_profile_v5\oc_mqtt_profile_package.c ****  * Notice of Export Control Law
ARM GAS  T:\msys\tmp\cckvbb2E.s 			page 2


  28:D:/fchai/work/i-cube/I-CUBE-HUAWEI/Middlewares/Third_Party/Huawei/iot_link/oc/oc_mqtt/oc_mqtt_profile_v5\oc_mqtt_profile_package.c ****  * ===============================================
  29:D:/fchai/work/i-cube/I-CUBE-HUAWEI/Middlewares/Third_Party/Huawei/iot_link/oc/oc_mqtt/oc_mqtt_profile_v5\oc_mqtt_profile_package.c ****  * Huawei LiteOS may be subject to applicable export control laws and regulations, which might
  30:D:/fchai/work/i-cube/I-CUBE-HUAWEI/Middlewares/Third_Party/Huawei/iot_link/oc/oc_mqtt/oc_mqtt_profile_v5\oc_mqtt_profile_package.c ****  * include those applicable to Huawei LiteOS of U.S. and the country in which you are located.
  31:D:/fchai/work/i-cube/I-CUBE-HUAWEI/Middlewares/Third_Party/Huawei/iot_link/oc/oc_mqtt/oc_mqtt_profile_v5\oc_mqtt_profile_package.c ****  * Import, export and usage of Huawei LiteOS in any manner by you shall be in compliance with such
  32:D:/fchai/work/i-cube/I-CUBE-HUAWEI/Middlewares/Third_Party/Huawei/iot_link/oc/oc_mqtt/oc_mqtt_profile_v5\oc_mqtt_profile_package.c ****  * applicable export control laws and regulations.
  33:D:/fchai/work/i-cube/I-CUBE-HUAWEI/Middlewares/Third_Party/Huawei/iot_link/oc/oc_mqtt/oc_mqtt_profile_v5\oc_mqtt_profile_package.c ****  *---------------------------------------------------------------------------*/
  34:D:/fchai/work/i-cube/I-CUBE-HUAWEI/Middlewares/Third_Party/Huawei/iot_link/oc/oc_mqtt/oc_mqtt_profile_v5\oc_mqtt_profile_package.c **** /**
  35:D:/fchai/work/i-cube/I-CUBE-HUAWEI/Middlewares/Third_Party/Huawei/iot_link/oc/oc_mqtt/oc_mqtt_profile_v5\oc_mqtt_profile_package.c ****  *  DATE                AUTHOR      INSTRUCTION
  36:D:/fchai/work/i-cube/I-CUBE-HUAWEI/Middlewares/Third_Party/Huawei/iot_link/oc/oc_mqtt/oc_mqtt_profile_v5\oc_mqtt_profile_package.c ****  *  2020-02-06 14:36  zhangqianfu  The first version
  37:D:/fchai/work/i-cube/I-CUBE-HUAWEI/Middlewares/Third_Party/Huawei/iot_link/oc/oc_mqtt/oc_mqtt_profile_v5\oc_mqtt_profile_package.c ****  *
  38:D:/fchai/work/i-cube/I-CUBE-HUAWEI/Middlewares/Third_Party/Huawei/iot_link/oc/oc_mqtt/oc_mqtt_profile_v5\oc_mqtt_profile_package.c ****  */
  39:D:/fchai/work/i-cube/I-CUBE-HUAWEI/Middlewares/Third_Party/Huawei/iot_link/oc/oc_mqtt/oc_mqtt_profile_v5\oc_mqtt_profile_package.c **** ////< this file used to package the data for the profile and you must make sure the data format is 
  40:D:/fchai/work/i-cube/I-CUBE-HUAWEI/Middlewares/Third_Party/Huawei/iot_link/oc/oc_mqtt/oc_mqtt_profile_v5\oc_mqtt_profile_package.c **** #include <oc_mqtt_profile.h>
  41:D:/fchai/work/i-cube/I-CUBE-HUAWEI/Middlewares/Third_Party/Huawei/iot_link/oc/oc_mqtt/oc_mqtt_profile_v5\oc_mqtt_profile_package.c **** #include <oc_mqtt_profile_package.h>
  42:D:/fchai/work/i-cube/I-CUBE-HUAWEI/Middlewares/Third_Party/Huawei/iot_link/oc/oc_mqtt/oc_mqtt_profile_v5\oc_mqtt_profile_package.c **** #include <cJSON.h>
  43:D:/fchai/work/i-cube/I-CUBE-HUAWEI/Middlewares/Third_Party/Huawei/iot_link/oc/oc_mqtt/oc_mqtt_profile_v5\oc_mqtt_profile_package.c **** 
  44:D:/fchai/work/i-cube/I-CUBE-HUAWEI/Middlewares/Third_Party/Huawei/iot_link/oc/oc_mqtt/oc_mqtt_profile_v5\oc_mqtt_profile_package.c **** 
  45:D:/fchai/work/i-cube/I-CUBE-HUAWEI/Middlewares/Third_Party/Huawei/iot_link/oc/oc_mqtt/oc_mqtt_profile_v5\oc_mqtt_profile_package.c **** 
  46:D:/fchai/work/i-cube/I-CUBE-HUAWEI/Middlewares/Third_Party/Huawei/iot_link/oc/oc_mqtt/oc_mqtt_profile_v5\oc_mqtt_profile_package.c **** 
  47:D:/fchai/work/i-cube/I-CUBE-HUAWEI/Middlewares/Third_Party/Huawei/iot_link/oc/oc_mqtt/oc_mqtt_profile_v5\oc_mqtt_profile_package.c **** ///< format the report data to json string mode
  48:D:/fchai/work/i-cube/I-CUBE-HUAWEI/Middlewares/Third_Party/Huawei/iot_link/oc/oc_mqtt/oc_mqtt_profile_v5\oc_mqtt_profile_package.c **** static cJSON  *JsonCreateKv(oc_mqtt_profile_kv_t  *kv)
  49:D:/fchai/work/i-cube/I-CUBE-HUAWEI/Middlewares/Third_Party/Huawei/iot_link/oc/oc_mqtt/oc_mqtt_profile_v5\oc_mqtt_profile_package.c **** {
  50:D:/fchai/work/i-cube/I-CUBE-HUAWEI/Middlewares/Third_Party/Huawei/iot_link/oc/oc_mqtt/oc_mqtt_profile_v5\oc_mqtt_profile_package.c ****     cJSON  *ret = NULL;
  51:D:/fchai/work/i-cube/I-CUBE-HUAWEI/Middlewares/Third_Party/Huawei/iot_link/oc/oc_mqtt/oc_mqtt_profile_v5\oc_mqtt_profile_package.c ****     switch (kv->type)
  52:D:/fchai/work/i-cube/I-CUBE-HUAWEI/Middlewares/Third_Party/Huawei/iot_link/oc/oc_mqtt/oc_mqtt_profile_v5\oc_mqtt_profile_package.c ****     {
  53:D:/fchai/work/i-cube/I-CUBE-HUAWEI/Middlewares/Third_Party/Huawei/iot_link/oc/oc_mqtt/oc_mqtt_profile_v5\oc_mqtt_profile_package.c ****         case EN_OC_MQTT_PROFILE_VALUE_INT:
  54:D:/fchai/work/i-cube/I-CUBE-HUAWEI/Middlewares/Third_Party/Huawei/iot_link/oc/oc_mqtt/oc_mqtt_profile_v5\oc_mqtt_profile_package.c ****             ret = cJSON_CreateNumber((double)(*(int *)kv->value));
  55:D:/fchai/work/i-cube/I-CUBE-HUAWEI/Middlewares/Third_Party/Huawei/iot_link/oc/oc_mqtt/oc_mqtt_profile_v5\oc_mqtt_profile_package.c ****             break;
  56:D:/fchai/work/i-cube/I-CUBE-HUAWEI/Middlewares/Third_Party/Huawei/iot_link/oc/oc_mqtt/oc_mqtt_profile_v5\oc_mqtt_profile_package.c ****         case EN_OC_MQTT_PROFILE_VALUE_LONG:
  57:D:/fchai/work/i-cube/I-CUBE-HUAWEI/Middlewares/Third_Party/Huawei/iot_link/oc/oc_mqtt/oc_mqtt_profile_v5\oc_mqtt_profile_package.c ****             ret = cJSON_CreateNumber((double)(*(long *)kv->value));
  58:D:/fchai/work/i-cube/I-CUBE-HUAWEI/Middlewares/Third_Party/Huawei/iot_link/oc/oc_mqtt/oc_mqtt_profile_v5\oc_mqtt_profile_package.c ****             break;
  59:D:/fchai/work/i-cube/I-CUBE-HUAWEI/Middlewares/Third_Party/Huawei/iot_link/oc/oc_mqtt/oc_mqtt_profile_v5\oc_mqtt_profile_package.c ****         case EN_OC_MQTT_PROFILE_VALUE_FLOAT:
  60:D:/fchai/work/i-cube/I-CUBE-HUAWEI/Middlewares/Third_Party/Huawei/iot_link/oc/oc_mqtt/oc_mqtt_profile_v5\oc_mqtt_profile_package.c ****             ret = cJSON_CreateNumber((double)(*(float *)kv->value));
  61:D:/fchai/work/i-cube/I-CUBE-HUAWEI/Middlewares/Third_Party/Huawei/iot_link/oc/oc_mqtt/oc_mqtt_profile_v5\oc_mqtt_profile_package.c ****             break;
  62:D:/fchai/work/i-cube/I-CUBE-HUAWEI/Middlewares/Third_Party/Huawei/iot_link/oc/oc_mqtt/oc_mqtt_profile_v5\oc_mqtt_profile_package.c ****         case EN_OC_MQTT_PROFILE_VALUE_DOUBLE:
  63:D:/fchai/work/i-cube/I-CUBE-HUAWEI/Middlewares/Third_Party/Huawei/iot_link/oc/oc_mqtt/oc_mqtt_profile_v5\oc_mqtt_profile_package.c ****             ret = cJSON_CreateNumber((*(double *)kv->value));
  64:D:/fchai/work/i-cube/I-CUBE-HUAWEI/Middlewares/Third_Party/Huawei/iot_link/oc/oc_mqtt/oc_mqtt_profile_v5\oc_mqtt_profile_package.c ****             break;
  65:D:/fchai/work/i-cube/I-CUBE-HUAWEI/Middlewares/Third_Party/Huawei/iot_link/oc/oc_mqtt/oc_mqtt_profile_v5\oc_mqtt_profile_package.c ****         case EN_OC_MQTT_PROFILE_VALUE_STRING:
  66:D:/fchai/work/i-cube/I-CUBE-HUAWEI/Middlewares/Third_Party/Huawei/iot_link/oc/oc_mqtt/oc_mqtt_profile_v5\oc_mqtt_profile_package.c ****             ret = cJSON_CreateString((const char *)kv->value);
  67:D:/fchai/work/i-cube/I-CUBE-HUAWEI/Middlewares/Third_Party/Huawei/iot_link/oc/oc_mqtt/oc_mqtt_profile_v5\oc_mqtt_profile_package.c ****             break;
  68:D:/fchai/work/i-cube/I-CUBE-HUAWEI/Middlewares/Third_Party/Huawei/iot_link/oc/oc_mqtt/oc_mqtt_profile_v5\oc_mqtt_profile_package.c ****         default:
  69:D:/fchai/work/i-cube/I-CUBE-HUAWEI/Middlewares/Third_Party/Huawei/iot_link/oc/oc_mqtt/oc_mqtt_profile_v5\oc_mqtt_profile_package.c ****             break;
  70:D:/fchai/work/i-cube/I-CUBE-HUAWEI/Middlewares/Third_Party/Huawei/iot_link/oc/oc_mqtt/oc_mqtt_profile_v5\oc_mqtt_profile_package.c ****     }
  71:D:/fchai/work/i-cube/I-CUBE-HUAWEI/Middlewares/Third_Party/Huawei/iot_link/oc/oc_mqtt/oc_mqtt_profile_v5\oc_mqtt_profile_package.c **** 
  72:D:/fchai/work/i-cube/I-CUBE-HUAWEI/Middlewares/Third_Party/Huawei/iot_link/oc/oc_mqtt/oc_mqtt_profile_v5\oc_mqtt_profile_package.c ****     return ret;
  73:D:/fchai/work/i-cube/I-CUBE-HUAWEI/Middlewares/Third_Party/Huawei/iot_link/oc/oc_mqtt/oc_mqtt_profile_v5\oc_mqtt_profile_package.c **** }
  74:D:/fchai/work/i-cube/I-CUBE-HUAWEI/Middlewares/Third_Party/Huawei/iot_link/oc/oc_mqtt/oc_mqtt_profile_v5\oc_mqtt_profile_package.c **** 
  75:D:/fchai/work/i-cube/I-CUBE-HUAWEI/Middlewares/Third_Party/Huawei/iot_link/oc/oc_mqtt/oc_mqtt_profile_v5\oc_mqtt_profile_package.c **** char *oc_mqtt_profile_package_msgup(oc_mqtt_profile_msgup_t *payload)
  76:D:/fchai/work/i-cube/I-CUBE-HUAWEI/Middlewares/Third_Party/Huawei/iot_link/oc/oc_mqtt/oc_mqtt_profile_v5\oc_mqtt_profile_package.c **** {
  77:D:/fchai/work/i-cube/I-CUBE-HUAWEI/Middlewares/Third_Party/Huawei/iot_link/oc/oc_mqtt/oc_mqtt_profile_v5\oc_mqtt_profile_package.c **** 
  78:D:/fchai/work/i-cube/I-CUBE-HUAWEI/Middlewares/Third_Party/Huawei/iot_link/oc/oc_mqtt/oc_mqtt_profile_v5\oc_mqtt_profile_package.c ****     char *ret = NULL;
  79:D:/fchai/work/i-cube/I-CUBE-HUAWEI/Middlewares/Third_Party/Huawei/iot_link/oc/oc_mqtt/oc_mqtt_profile_v5\oc_mqtt_profile_package.c ****     cJSON *root = NULL;
  80:D:/fchai/work/i-cube/I-CUBE-HUAWEI/Middlewares/Third_Party/Huawei/iot_link/oc/oc_mqtt/oc_mqtt_profile_v5\oc_mqtt_profile_package.c ****     cJSON *device_id = NULL;
  81:D:/fchai/work/i-cube/I-CUBE-HUAWEI/Middlewares/Third_Party/Huawei/iot_link/oc/oc_mqtt/oc_mqtt_profile_v5\oc_mqtt_profile_package.c ****     cJSON *msg_name;
  82:D:/fchai/work/i-cube/I-CUBE-HUAWEI/Middlewares/Third_Party/Huawei/iot_link/oc/oc_mqtt/oc_mqtt_profile_v5\oc_mqtt_profile_package.c ****     cJSON *msg_id;
  83:D:/fchai/work/i-cube/I-CUBE-HUAWEI/Middlewares/Third_Party/Huawei/iot_link/oc/oc_mqtt/oc_mqtt_profile_v5\oc_mqtt_profile_package.c ****     cJSON *msg_conntent;
  84:D:/fchai/work/i-cube/I-CUBE-HUAWEI/Middlewares/Third_Party/Huawei/iot_link/oc/oc_mqtt/oc_mqtt_profile_v5\oc_mqtt_profile_package.c **** 
ARM GAS  T:\msys\tmp\cckvbb2E.s 			page 3


  85:D:/fchai/work/i-cube/I-CUBE-HUAWEI/Middlewares/Third_Party/Huawei/iot_link/oc/oc_mqtt/oc_mqtt_profile_v5\oc_mqtt_profile_package.c ****     root = cJSON_CreateObject();
  86:D:/fchai/work/i-cube/I-CUBE-HUAWEI/Middlewares/Third_Party/Huawei/iot_link/oc/oc_mqtt/oc_mqtt_profile_v5\oc_mqtt_profile_package.c ****     if(NULL == root)
  87:D:/fchai/work/i-cube/I-CUBE-HUAWEI/Middlewares/Third_Party/Huawei/iot_link/oc/oc_mqtt/oc_mqtt_profile_v5\oc_mqtt_profile_package.c ****     {
  88:D:/fchai/work/i-cube/I-CUBE-HUAWEI/Middlewares/Third_Party/Huawei/iot_link/oc/oc_mqtt/oc_mqtt_profile_v5\oc_mqtt_profile_package.c ****         goto EXIT_MEM;
  89:D:/fchai/work/i-cube/I-CUBE-HUAWEI/Middlewares/Third_Party/Huawei/iot_link/oc/oc_mqtt/oc_mqtt_profile_v5\oc_mqtt_profile_package.c ****     }
  90:D:/fchai/work/i-cube/I-CUBE-HUAWEI/Middlewares/Third_Party/Huawei/iot_link/oc/oc_mqtt/oc_mqtt_profile_v5\oc_mqtt_profile_package.c **** 
  91:D:/fchai/work/i-cube/I-CUBE-HUAWEI/Middlewares/Third_Party/Huawei/iot_link/oc/oc_mqtt/oc_mqtt_profile_v5\oc_mqtt_profile_package.c ****     if(NULL != payload->device_id)
  92:D:/fchai/work/i-cube/I-CUBE-HUAWEI/Middlewares/Third_Party/Huawei/iot_link/oc/oc_mqtt/oc_mqtt_profile_v5\oc_mqtt_profile_package.c ****     {
  93:D:/fchai/work/i-cube/I-CUBE-HUAWEI/Middlewares/Third_Party/Huawei/iot_link/oc/oc_mqtt/oc_mqtt_profile_v5\oc_mqtt_profile_package.c ****         device_id = cJSON_CreateString(payload->device_id);
  94:D:/fchai/work/i-cube/I-CUBE-HUAWEI/Middlewares/Third_Party/Huawei/iot_link/oc/oc_mqtt/oc_mqtt_profile_v5\oc_mqtt_profile_package.c ****         if(NULL == device_id)
  95:D:/fchai/work/i-cube/I-CUBE-HUAWEI/Middlewares/Third_Party/Huawei/iot_link/oc/oc_mqtt/oc_mqtt_profile_v5\oc_mqtt_profile_package.c ****         {
  96:D:/fchai/work/i-cube/I-CUBE-HUAWEI/Middlewares/Third_Party/Huawei/iot_link/oc/oc_mqtt/oc_mqtt_profile_v5\oc_mqtt_profile_package.c ****             goto EXIT_MEM;
  97:D:/fchai/work/i-cube/I-CUBE-HUAWEI/Middlewares/Third_Party/Huawei/iot_link/oc/oc_mqtt/oc_mqtt_profile_v5\oc_mqtt_profile_package.c ****         }
  98:D:/fchai/work/i-cube/I-CUBE-HUAWEI/Middlewares/Third_Party/Huawei/iot_link/oc/oc_mqtt/oc_mqtt_profile_v5\oc_mqtt_profile_package.c ****         cJSON_AddItemToObjectCS(root,CN_OC_JSON_KEY_OBJECTDEVICEID,device_id);
  99:D:/fchai/work/i-cube/I-CUBE-HUAWEI/Middlewares/Third_Party/Huawei/iot_link/oc/oc_mqtt/oc_mqtt_profile_v5\oc_mqtt_profile_package.c ****     }
 100:D:/fchai/work/i-cube/I-CUBE-HUAWEI/Middlewares/Third_Party/Huawei/iot_link/oc/oc_mqtt/oc_mqtt_profile_v5\oc_mqtt_profile_package.c **** 
 101:D:/fchai/work/i-cube/I-CUBE-HUAWEI/Middlewares/Third_Party/Huawei/iot_link/oc/oc_mqtt/oc_mqtt_profile_v5\oc_mqtt_profile_package.c ****     if(NULL != payload->name)
 102:D:/fchai/work/i-cube/I-CUBE-HUAWEI/Middlewares/Third_Party/Huawei/iot_link/oc/oc_mqtt/oc_mqtt_profile_v5\oc_mqtt_profile_package.c ****     {
 103:D:/fchai/work/i-cube/I-CUBE-HUAWEI/Middlewares/Third_Party/Huawei/iot_link/oc/oc_mqtt/oc_mqtt_profile_v5\oc_mqtt_profile_package.c ****         msg_name = cJSON_CreateString(payload->name);
 104:D:/fchai/work/i-cube/I-CUBE-HUAWEI/Middlewares/Third_Party/Huawei/iot_link/oc/oc_mqtt/oc_mqtt_profile_v5\oc_mqtt_profile_package.c ****         if(NULL == msg_name)
 105:D:/fchai/work/i-cube/I-CUBE-HUAWEI/Middlewares/Third_Party/Huawei/iot_link/oc/oc_mqtt/oc_mqtt_profile_v5\oc_mqtt_profile_package.c ****         {
 106:D:/fchai/work/i-cube/I-CUBE-HUAWEI/Middlewares/Third_Party/Huawei/iot_link/oc/oc_mqtt/oc_mqtt_profile_v5\oc_mqtt_profile_package.c ****             goto EXIT_MEM;
 107:D:/fchai/work/i-cube/I-CUBE-HUAWEI/Middlewares/Third_Party/Huawei/iot_link/oc/oc_mqtt/oc_mqtt_profile_v5\oc_mqtt_profile_package.c ****         }
 108:D:/fchai/work/i-cube/I-CUBE-HUAWEI/Middlewares/Third_Party/Huawei/iot_link/oc/oc_mqtt/oc_mqtt_profile_v5\oc_mqtt_profile_package.c ****         cJSON_AddItemToObjectCS(root,CN_OC_JSON_KEY_NAME,msg_name);
 109:D:/fchai/work/i-cube/I-CUBE-HUAWEI/Middlewares/Third_Party/Huawei/iot_link/oc/oc_mqtt/oc_mqtt_profile_v5\oc_mqtt_profile_package.c ****     }
 110:D:/fchai/work/i-cube/I-CUBE-HUAWEI/Middlewares/Third_Party/Huawei/iot_link/oc/oc_mqtt/oc_mqtt_profile_v5\oc_mqtt_profile_package.c **** 
 111:D:/fchai/work/i-cube/I-CUBE-HUAWEI/Middlewares/Third_Party/Huawei/iot_link/oc/oc_mqtt/oc_mqtt_profile_v5\oc_mqtt_profile_package.c ****     if(NULL != payload->id)
 112:D:/fchai/work/i-cube/I-CUBE-HUAWEI/Middlewares/Third_Party/Huawei/iot_link/oc/oc_mqtt/oc_mqtt_profile_v5\oc_mqtt_profile_package.c ****     {
 113:D:/fchai/work/i-cube/I-CUBE-HUAWEI/Middlewares/Third_Party/Huawei/iot_link/oc/oc_mqtt/oc_mqtt_profile_v5\oc_mqtt_profile_package.c ****         msg_id = cJSON_CreateString(payload->id);
 114:D:/fchai/work/i-cube/I-CUBE-HUAWEI/Middlewares/Third_Party/Huawei/iot_link/oc/oc_mqtt/oc_mqtt_profile_v5\oc_mqtt_profile_package.c ****         if(NULL == msg_id)
 115:D:/fchai/work/i-cube/I-CUBE-HUAWEI/Middlewares/Third_Party/Huawei/iot_link/oc/oc_mqtt/oc_mqtt_profile_v5\oc_mqtt_profile_package.c ****         {
 116:D:/fchai/work/i-cube/I-CUBE-HUAWEI/Middlewares/Third_Party/Huawei/iot_link/oc/oc_mqtt/oc_mqtt_profile_v5\oc_mqtt_profile_package.c ****             goto EXIT_MEM;
 117:D:/fchai/work/i-cube/I-CUBE-HUAWEI/Middlewares/Third_Party/Huawei/iot_link/oc/oc_mqtt/oc_mqtt_profile_v5\oc_mqtt_profile_package.c ****         }
 118:D:/fchai/work/i-cube/I-CUBE-HUAWEI/Middlewares/Third_Party/Huawei/iot_link/oc/oc_mqtt/oc_mqtt_profile_v5\oc_mqtt_profile_package.c ****         cJSON_AddItemToObjectCS(root,CN_OC_JSON_KEY_ID,msg_id);
 119:D:/fchai/work/i-cube/I-CUBE-HUAWEI/Middlewares/Third_Party/Huawei/iot_link/oc/oc_mqtt/oc_mqtt_profile_v5\oc_mqtt_profile_package.c ****     }
 120:D:/fchai/work/i-cube/I-CUBE-HUAWEI/Middlewares/Third_Party/Huawei/iot_link/oc/oc_mqtt/oc_mqtt_profile_v5\oc_mqtt_profile_package.c **** 
 121:D:/fchai/work/i-cube/I-CUBE-HUAWEI/Middlewares/Third_Party/Huawei/iot_link/oc/oc_mqtt/oc_mqtt_profile_v5\oc_mqtt_profile_package.c ****     msg_conntent = cJSON_CreateString(payload->msg);
 122:D:/fchai/work/i-cube/I-CUBE-HUAWEI/Middlewares/Third_Party/Huawei/iot_link/oc/oc_mqtt/oc_mqtt_profile_v5\oc_mqtt_profile_package.c ****     if(NULL == msg_conntent)
 123:D:/fchai/work/i-cube/I-CUBE-HUAWEI/Middlewares/Third_Party/Huawei/iot_link/oc/oc_mqtt/oc_mqtt_profile_v5\oc_mqtt_profile_package.c ****     {
 124:D:/fchai/work/i-cube/I-CUBE-HUAWEI/Middlewares/Third_Party/Huawei/iot_link/oc/oc_mqtt/oc_mqtt_profile_v5\oc_mqtt_profile_package.c ****         goto EXIT_MEM;
 125:D:/fchai/work/i-cube/I-CUBE-HUAWEI/Middlewares/Third_Party/Huawei/iot_link/oc/oc_mqtt/oc_mqtt_profile_v5\oc_mqtt_profile_package.c ****     }
 126:D:/fchai/work/i-cube/I-CUBE-HUAWEI/Middlewares/Third_Party/Huawei/iot_link/oc/oc_mqtt/oc_mqtt_profile_v5\oc_mqtt_profile_package.c ****     cJSON_AddItemToObjectCS(root,CN_OC_JSON_KEY_CONTENT,msg_conntent);
 127:D:/fchai/work/i-cube/I-CUBE-HUAWEI/Middlewares/Third_Party/Huawei/iot_link/oc/oc_mqtt/oc_mqtt_profile_v5\oc_mqtt_profile_package.c **** 
 128:D:/fchai/work/i-cube/I-CUBE-HUAWEI/Middlewares/Third_Party/Huawei/iot_link/oc/oc_mqtt/oc_mqtt_profile_v5\oc_mqtt_profile_package.c ****     ///< OK, now we make it to a buffer
 129:D:/fchai/work/i-cube/I-CUBE-HUAWEI/Middlewares/Third_Party/Huawei/iot_link/oc/oc_mqtt/oc_mqtt_profile_v5\oc_mqtt_profile_package.c ****     ret = cJSON_PrintUnformatted(root);
 130:D:/fchai/work/i-cube/I-CUBE-HUAWEI/Middlewares/Third_Party/Huawei/iot_link/oc/oc_mqtt/oc_mqtt_profile_v5\oc_mqtt_profile_package.c ****     cJSON_Delete(root);
 131:D:/fchai/work/i-cube/I-CUBE-HUAWEI/Middlewares/Third_Party/Huawei/iot_link/oc/oc_mqtt/oc_mqtt_profile_v5\oc_mqtt_profile_package.c ****     return ret;
 132:D:/fchai/work/i-cube/I-CUBE-HUAWEI/Middlewares/Third_Party/Huawei/iot_link/oc/oc_mqtt/oc_mqtt_profile_v5\oc_mqtt_profile_package.c **** 
 133:D:/fchai/work/i-cube/I-CUBE-HUAWEI/Middlewares/Third_Party/Huawei/iot_link/oc/oc_mqtt/oc_mqtt_profile_v5\oc_mqtt_profile_package.c **** EXIT_MEM:
 134:D:/fchai/work/i-cube/I-CUBE-HUAWEI/Middlewares/Third_Party/Huawei/iot_link/oc/oc_mqtt/oc_mqtt_profile_v5\oc_mqtt_profile_package.c ****     if(NULL != root)
 135:D:/fchai/work/i-cube/I-CUBE-HUAWEI/Middlewares/Third_Party/Huawei/iot_link/oc/oc_mqtt/oc_mqtt_profile_v5\oc_mqtt_profile_package.c ****     {
 136:D:/fchai/work/i-cube/I-CUBE-HUAWEI/Middlewares/Third_Party/Huawei/iot_link/oc/oc_mqtt/oc_mqtt_profile_v5\oc_mqtt_profile_package.c ****        cJSON_Delete(root);
 137:D:/fchai/work/i-cube/I-CUBE-HUAWEI/Middlewares/Third_Party/Huawei/iot_link/oc/oc_mqtt/oc_mqtt_profile_v5\oc_mqtt_profile_package.c ****     }
 138:D:/fchai/work/i-cube/I-CUBE-HUAWEI/Middlewares/Third_Party/Huawei/iot_link/oc/oc_mqtt/oc_mqtt_profile_v5\oc_mqtt_profile_package.c ****     return ret;
 139:D:/fchai/work/i-cube/I-CUBE-HUAWEI/Middlewares/Third_Party/Huawei/iot_link/oc/oc_mqtt/oc_mqtt_profile_v5\oc_mqtt_profile_package.c **** }
 140:D:/fchai/work/i-cube/I-CUBE-HUAWEI/Middlewares/Third_Party/Huawei/iot_link/oc/oc_mqtt/oc_mqtt_profile_v5\oc_mqtt_profile_package.c **** 
 141:D:/fchai/work/i-cube/I-CUBE-HUAWEI/Middlewares/Third_Party/Huawei/iot_link/oc/oc_mqtt/oc_mqtt_profile_v5\oc_mqtt_profile_package.c **** 
ARM GAS  T:\msys\tmp\cckvbb2E.s 			page 4


 142:D:/fchai/work/i-cube/I-CUBE-HUAWEI/Middlewares/Third_Party/Huawei/iot_link/oc/oc_mqtt/oc_mqtt_profile_v5\oc_mqtt_profile_package.c **** static cJSON *JsonCreateKvLst(oc_mqtt_profile_kv_t *kvlst)
 143:D:/fchai/work/i-cube/I-CUBE-HUAWEI/Middlewares/Third_Party/Huawei/iot_link/oc/oc_mqtt/oc_mqtt_profile_v5\oc_mqtt_profile_package.c **** {
  32              		.loc 1 143 1 view -0
  33              		.cfi_startproc
  34              		@ args = 0, pretend = 0, frame = 0
  35              		@ frame_needed = 0, uses_anonymous_args = 0
 144:D:/fchai/work/i-cube/I-CUBE-HUAWEI/Middlewares/Third_Party/Huawei/iot_link/oc/oc_mqtt/oc_mqtt_profile_v5\oc_mqtt_profile_package.c **** 
 145:D:/fchai/work/i-cube/I-CUBE-HUAWEI/Middlewares/Third_Party/Huawei/iot_link/oc/oc_mqtt/oc_mqtt_profile_v5\oc_mqtt_profile_package.c ****     cJSON *root;
  36              		.loc 1 145 5 view .LVU1
 146:D:/fchai/work/i-cube/I-CUBE-HUAWEI/Middlewares/Third_Party/Huawei/iot_link/oc/oc_mqtt/oc_mqtt_profile_v5\oc_mqtt_profile_package.c ****     cJSON *kv;
  37              		.loc 1 146 5 view .LVU2
 147:D:/fchai/work/i-cube/I-CUBE-HUAWEI/Middlewares/Third_Party/Huawei/iot_link/oc/oc_mqtt/oc_mqtt_profile_v5\oc_mqtt_profile_package.c ****     oc_mqtt_profile_kv_t  *kv_info;
  38              		.loc 1 147 5 view .LVU3
 148:D:/fchai/work/i-cube/I-CUBE-HUAWEI/Middlewares/Third_Party/Huawei/iot_link/oc/oc_mqtt/oc_mqtt_profile_v5\oc_mqtt_profile_package.c **** 
 149:D:/fchai/work/i-cube/I-CUBE-HUAWEI/Middlewares/Third_Party/Huawei/iot_link/oc/oc_mqtt/oc_mqtt_profile_v5\oc_mqtt_profile_package.c ****     ///< build a root node
 150:D:/fchai/work/i-cube/I-CUBE-HUAWEI/Middlewares/Third_Party/Huawei/iot_link/oc/oc_mqtt/oc_mqtt_profile_v5\oc_mqtt_profile_package.c ****     root = cJSON_CreateObject();
  39              		.loc 1 150 5 view .LVU4
 143:D:/fchai/work/i-cube/I-CUBE-HUAWEI/Middlewares/Third_Party/Huawei/iot_link/oc/oc_mqtt/oc_mqtt_profile_v5\oc_mqtt_profile_package.c **** 
  40              		.loc 1 143 1 is_stmt 0 view .LVU5
  41 0000 38B5     		push	{r3, r4, r5, lr}
  42              	.LCFI0:
  43              		.cfi_def_cfa_offset 16
  44              		.cfi_offset 3, -16
  45              		.cfi_offset 4, -12
  46              		.cfi_offset 5, -8
  47              		.cfi_offset 14, -4
 143:D:/fchai/work/i-cube/I-CUBE-HUAWEI/Middlewares/Third_Party/Huawei/iot_link/oc/oc_mqtt/oc_mqtt_profile_v5\oc_mqtt_profile_package.c **** 
  48              		.loc 1 143 1 view .LVU6
  49 0002 0446     		mov	r4, r0
  50              		.loc 1 150 12 view .LVU7
  51 0004 FFF7FEFF 		bl	cJSON_CreateObject
  52              	.LVL1:
 151:D:/fchai/work/i-cube/I-CUBE-HUAWEI/Middlewares/Third_Party/Huawei/iot_link/oc/oc_mqtt/oc_mqtt_profile_v5\oc_mqtt_profile_package.c ****     if(NULL == root)
  53              		.loc 1 151 5 is_stmt 1 view .LVU8
  54              		.loc 1 151 7 is_stmt 0 view .LVU9
  55 0008 0546     		mov	r5, r0
  56 000a C8B1     		cbz	r0, .L1
  57              	.LVL2:
 152:D:/fchai/work/i-cube/I-CUBE-HUAWEI/Middlewares/Third_Party/Huawei/iot_link/oc/oc_mqtt/oc_mqtt_profile_v5\oc_mqtt_profile_package.c ****     {
 153:D:/fchai/work/i-cube/I-CUBE-HUAWEI/Middlewares/Third_Party/Huawei/iot_link/oc/oc_mqtt/oc_mqtt_profile_v5\oc_mqtt_profile_package.c ****        goto EXIT_MEM;
 154:D:/fchai/work/i-cube/I-CUBE-HUAWEI/Middlewares/Third_Party/Huawei/iot_link/oc/oc_mqtt/oc_mqtt_profile_v5\oc_mqtt_profile_package.c ****     }
 155:D:/fchai/work/i-cube/I-CUBE-HUAWEI/Middlewares/Third_Party/Huawei/iot_link/oc/oc_mqtt/oc_mqtt_profile_v5\oc_mqtt_profile_package.c **** 
 156:D:/fchai/work/i-cube/I-CUBE-HUAWEI/Middlewares/Third_Party/Huawei/iot_link/oc/oc_mqtt/oc_mqtt_profile_v5\oc_mqtt_profile_package.c ****     ///< add all the property to the properties
 157:D:/fchai/work/i-cube/I-CUBE-HUAWEI/Middlewares/Third_Party/Huawei/iot_link/oc/oc_mqtt/oc_mqtt_profile_v5\oc_mqtt_profile_package.c ****     kv_info = kvlst;
 158:D:/fchai/work/i-cube/I-CUBE-HUAWEI/Middlewares/Third_Party/Huawei/iot_link/oc/oc_mqtt/oc_mqtt_profile_v5\oc_mqtt_profile_package.c ****     while(NULL != kv_info)
  58              		.loc 1 158 10 is_stmt 1 view .LVU10
  59 000c C4B1     		cbz	r4, .L1
  60              	.LVL3:
  61              	.L11:
 159:D:/fchai/work/i-cube/I-CUBE-HUAWEI/Middlewares/Third_Party/Huawei/iot_link/oc/oc_mqtt/oc_mqtt_profile_v5\oc_mqtt_profile_package.c ****     {
 160:D:/fchai/work/i-cube/I-CUBE-HUAWEI/Middlewares/Third_Party/Huawei/iot_link/oc/oc_mqtt/oc_mqtt_profile_v5\oc_mqtt_profile_package.c ****         kv = JsonCreateKv( kv_info);
  62              		.loc 1 160 9 view .LVU11
  63              	.LBB4:
  64              	.LBI4:
  48:D:/fchai/work/i-cube/I-CUBE-HUAWEI/Middlewares/Third_Party/Huawei/iot_link/oc/oc_mqtt/oc_mqtt_profile_v5\oc_mqtt_profile_package.c **** {
  65              		.loc 1 48 16 view .LVU12
  66              	.LBB5:
ARM GAS  T:\msys\tmp\cckvbb2E.s 			page 5


  50:D:/fchai/work/i-cube/I-CUBE-HUAWEI/Middlewares/Third_Party/Huawei/iot_link/oc/oc_mqtt/oc_mqtt_profile_v5\oc_mqtt_profile_package.c ****     switch (kv->type)
  67              		.loc 1 50 5 view .LVU13
  51:D:/fchai/work/i-cube/I-CUBE-HUAWEI/Middlewares/Third_Party/Huawei/iot_link/oc/oc_mqtt/oc_mqtt_profile_v5\oc_mqtt_profile_package.c ****     {
  68              		.loc 1 51 5 view .LVU14
  69 000e 237A     		ldrb	r3, [r4, #8]	@ zero_extendqisi2
  70 0010 042B     		cmp	r3, #4
  71 0012 2DD8     		bhi	.L3
  72 0014 DFE803F0 		tbb	[pc, r3]
  73              	.L5:
  74 0018 03       		.byte	(.L8-.L5)/2
  75 0019 03       		.byte	(.L8-.L5)/2
  76 001a 22       		.byte	(.L7-.L5)/2
  77 001b 1B       		.byte	(.L6-.L5)/2
  78 001c 16       		.byte	(.L4-.L5)/2
  79 001d 00       		.p2align 1
  80              	.L8:
  57:D:/fchai/work/i-cube/I-CUBE-HUAWEI/Middlewares/Third_Party/Huawei/iot_link/oc/oc_mqtt/oc_mqtt_profile_v5\oc_mqtt_profile_package.c ****             break;
  81              		.loc 1 57 13 view .LVU15
  57:D:/fchai/work/i-cube/I-CUBE-HUAWEI/Middlewares/Third_Party/Huawei/iot_link/oc/oc_mqtt/oc_mqtt_profile_v5\oc_mqtt_profile_package.c ****             break;
  82              		.loc 1 57 47 is_stmt 0 view .LVU16
  83 001e E368     		ldr	r3, [r4, #12]
  57:D:/fchai/work/i-cube/I-CUBE-HUAWEI/Middlewares/Third_Party/Huawei/iot_link/oc/oc_mqtt/oc_mqtt_profile_v5\oc_mqtt_profile_package.c ****             break;
  84              		.loc 1 57 19 view .LVU17
  85 0020 1868     		ldr	r0, [r3]
  86 0022 FFF7FEFF 		bl	__aeabi_i2d
  87              	.LVL4:
  88 0026 41EC100B 		vmov	d0, r0, r1
  89 002a FFF7FEFF 		bl	cJSON_CreateNumber
  90              	.LVL5:
  91 002e 0246     		mov	r2, r0
  92              	.LVL6:
  58:D:/fchai/work/i-cube/I-CUBE-HUAWEI/Middlewares/Third_Party/Huawei/iot_link/oc/oc_mqtt/oc_mqtt_profile_v5\oc_mqtt_profile_package.c ****         case EN_OC_MQTT_PROFILE_VALUE_FLOAT:
  93              		.loc 1 58 13 is_stmt 1 view .LVU18
  94              	.L10:
  72:D:/fchai/work/i-cube/I-CUBE-HUAWEI/Middlewares/Third_Party/Huawei/iot_link/oc/oc_mqtt/oc_mqtt_profile_v5\oc_mqtt_profile_package.c **** }
  95              		.loc 1 72 5 view .LVU19
  72:D:/fchai/work/i-cube/I-CUBE-HUAWEI/Middlewares/Third_Party/Huawei/iot_link/oc/oc_mqtt/oc_mqtt_profile_v5\oc_mqtt_profile_package.c **** }
  96              		.loc 1 72 5 is_stmt 0 view .LVU20
  97              	.LBE5:
  98              	.LBE4:
 161:D:/fchai/work/i-cube/I-CUBE-HUAWEI/Middlewares/Third_Party/Huawei/iot_link/oc/oc_mqtt/oc_mqtt_profile_v5\oc_mqtt_profile_package.c ****         if(NULL == kv)
  99              		.loc 1 161 9 is_stmt 1 view .LVU21
 162:D:/fchai/work/i-cube/I-CUBE-HUAWEI/Middlewares/Third_Party/Huawei/iot_link/oc/oc_mqtt/oc_mqtt_profile_v5\oc_mqtt_profile_package.c ****         {
 163:D:/fchai/work/i-cube/I-CUBE-HUAWEI/Middlewares/Third_Party/Huawei/iot_link/oc/oc_mqtt/oc_mqtt_profile_v5\oc_mqtt_profile_package.c ****             goto EXIT_MEM;
 164:D:/fchai/work/i-cube/I-CUBE-HUAWEI/Middlewares/Third_Party/Huawei/iot_link/oc/oc_mqtt/oc_mqtt_profile_v5\oc_mqtt_profile_package.c ****         }
 165:D:/fchai/work/i-cube/I-CUBE-HUAWEI/Middlewares/Third_Party/Huawei/iot_link/oc/oc_mqtt/oc_mqtt_profile_v5\oc_mqtt_profile_package.c **** 
 166:D:/fchai/work/i-cube/I-CUBE-HUAWEI/Middlewares/Third_Party/Huawei/iot_link/oc/oc_mqtt/oc_mqtt_profile_v5\oc_mqtt_profile_package.c ****         cJSON_AddItemToObject(root,kv_info->key,kv);
 100              		.loc 1 166 9 view .LVU22
 101 0030 2846     		mov	r0, r5
 102              	.LVL7:
 161:D:/fchai/work/i-cube/I-CUBE-HUAWEI/Middlewares/Third_Party/Huawei/iot_link/oc/oc_mqtt/oc_mqtt_profile_v5\oc_mqtt_profile_package.c ****         if(NULL == kv)
 103              		.loc 1 161 11 is_stmt 0 view .LVU23
 104 0032 EAB1     		cbz	r2, .L3
 105              	.LVL8:
 106              		.loc 1 166 9 view .LVU24
 107 0034 6168     		ldr	r1, [r4, #4]
 108 0036 FFF7FEFF 		bl	cJSON_AddItemToObject
ARM GAS  T:\msys\tmp\cckvbb2E.s 			page 6


 109              	.LVL9:
 167:D:/fchai/work/i-cube/I-CUBE-HUAWEI/Middlewares/Third_Party/Huawei/iot_link/oc/oc_mqtt/oc_mqtt_profile_v5\oc_mqtt_profile_package.c ****         kv_info = kv_info->nxt;
 110              		.loc 1 167 9 is_stmt 1 view .LVU25
 111              		.loc 1 167 17 is_stmt 0 view .LVU26
 112 003a 2468     		ldr	r4, [r4]
 113              	.LVL10:
 158:D:/fchai/work/i-cube/I-CUBE-HUAWEI/Middlewares/Third_Party/Huawei/iot_link/oc/oc_mqtt/oc_mqtt_profile_v5\oc_mqtt_profile_package.c ****     {
 114              		.loc 1 158 10 is_stmt 1 view .LVU27
 115 003c 002C     		cmp	r4, #0
 116 003e E6D1     		bne	.L11
 117              	.LVL11:
 118              	.L1:
 168:D:/fchai/work/i-cube/I-CUBE-HUAWEI/Middlewares/Third_Party/Huawei/iot_link/oc/oc_mqtt/oc_mqtt_profile_v5\oc_mqtt_profile_package.c ****     }
 169:D:/fchai/work/i-cube/I-CUBE-HUAWEI/Middlewares/Third_Party/Huawei/iot_link/oc/oc_mqtt/oc_mqtt_profile_v5\oc_mqtt_profile_package.c **** 
 170:D:/fchai/work/i-cube/I-CUBE-HUAWEI/Middlewares/Third_Party/Huawei/iot_link/oc/oc_mqtt/oc_mqtt_profile_v5\oc_mqtt_profile_package.c ****     ///< OK, now we return it
 171:D:/fchai/work/i-cube/I-CUBE-HUAWEI/Middlewares/Third_Party/Huawei/iot_link/oc/oc_mqtt/oc_mqtt_profile_v5\oc_mqtt_profile_package.c ****     return root;
 172:D:/fchai/work/i-cube/I-CUBE-HUAWEI/Middlewares/Third_Party/Huawei/iot_link/oc/oc_mqtt/oc_mqtt_profile_v5\oc_mqtt_profile_package.c **** 
 173:D:/fchai/work/i-cube/I-CUBE-HUAWEI/Middlewares/Third_Party/Huawei/iot_link/oc/oc_mqtt/oc_mqtt_profile_v5\oc_mqtt_profile_package.c **** EXIT_MEM:
 174:D:/fchai/work/i-cube/I-CUBE-HUAWEI/Middlewares/Third_Party/Huawei/iot_link/oc/oc_mqtt/oc_mqtt_profile_v5\oc_mqtt_profile_package.c ****     if(NULL != root)
 175:D:/fchai/work/i-cube/I-CUBE-HUAWEI/Middlewares/Third_Party/Huawei/iot_link/oc/oc_mqtt/oc_mqtt_profile_v5\oc_mqtt_profile_package.c ****     {
 176:D:/fchai/work/i-cube/I-CUBE-HUAWEI/Middlewares/Third_Party/Huawei/iot_link/oc/oc_mqtt/oc_mqtt_profile_v5\oc_mqtt_profile_package.c ****        cJSON_Delete(root);
 177:D:/fchai/work/i-cube/I-CUBE-HUAWEI/Middlewares/Third_Party/Huawei/iot_link/oc/oc_mqtt/oc_mqtt_profile_v5\oc_mqtt_profile_package.c ****        root = NULL;
 178:D:/fchai/work/i-cube/I-CUBE-HUAWEI/Middlewares/Third_Party/Huawei/iot_link/oc/oc_mqtt/oc_mqtt_profile_v5\oc_mqtt_profile_package.c ****     }
 179:D:/fchai/work/i-cube/I-CUBE-HUAWEI/Middlewares/Third_Party/Huawei/iot_link/oc/oc_mqtt/oc_mqtt_profile_v5\oc_mqtt_profile_package.c ****     return root;
 180:D:/fchai/work/i-cube/I-CUBE-HUAWEI/Middlewares/Third_Party/Huawei/iot_link/oc/oc_mqtt/oc_mqtt_profile_v5\oc_mqtt_profile_package.c **** 
 181:D:/fchai/work/i-cube/I-CUBE-HUAWEI/Middlewares/Third_Party/Huawei/iot_link/oc/oc_mqtt/oc_mqtt_profile_v5\oc_mqtt_profile_package.c **** 
 182:D:/fchai/work/i-cube/I-CUBE-HUAWEI/Middlewares/Third_Party/Huawei/iot_link/oc/oc_mqtt/oc_mqtt_profile_v5\oc_mqtt_profile_package.c **** }
 119              		.loc 1 182 1 is_stmt 0 view .LVU28
 120 0040 2846     		mov	r0, r5
 121 0042 38BD     		pop	{r3, r4, r5, pc}
 122              	.LVL12:
 123              	.L4:
 124              	.LBB7:
 125              	.LBB6:
  66:D:/fchai/work/i-cube/I-CUBE-HUAWEI/Middlewares/Third_Party/Huawei/iot_link/oc/oc_mqtt/oc_mqtt_profile_v5\oc_mqtt_profile_package.c ****             break;
 126              		.loc 1 66 13 is_stmt 1 view .LVU29
  66:D:/fchai/work/i-cube/I-CUBE-HUAWEI/Middlewares/Third_Party/Huawei/iot_link/oc/oc_mqtt/oc_mqtt_profile_v5\oc_mqtt_profile_package.c ****             break;
 127              		.loc 1 66 19 is_stmt 0 view .LVU30
 128 0044 E068     		ldr	r0, [r4, #12]
 129 0046 FFF7FEFF 		bl	cJSON_CreateString
 130              	.LVL13:
 131 004a 0246     		mov	r2, r0
 132              	.LVL14:
  67:D:/fchai/work/i-cube/I-CUBE-HUAWEI/Middlewares/Third_Party/Huawei/iot_link/oc/oc_mqtt/oc_mqtt_profile_v5\oc_mqtt_profile_package.c ****         default:
 133              		.loc 1 67 13 is_stmt 1 view .LVU31
 134 004c F0E7     		b	.L10
 135              	.LVL15:
 136              	.L6:
  63:D:/fchai/work/i-cube/I-CUBE-HUAWEI/Middlewares/Third_Party/Huawei/iot_link/oc/oc_mqtt/oc_mqtt_profile_v5\oc_mqtt_profile_package.c ****             break;
 137              		.loc 1 63 13 view .LVU32
  63:D:/fchai/work/i-cube/I-CUBE-HUAWEI/Middlewares/Third_Party/Huawei/iot_link/oc/oc_mqtt/oc_mqtt_profile_v5\oc_mqtt_profile_package.c ****             break;
 138              		.loc 1 63 19 is_stmt 0 view .LVU33
 139 004e E368     		ldr	r3, [r4, #12]
 140 0050 93ED000B 		vldr.64	d0, [r3]
 141 0054 FFF7FEFF 		bl	cJSON_CreateNumber
 142              	.LVL16:
 143 0058 0246     		mov	r2, r0
ARM GAS  T:\msys\tmp\cckvbb2E.s 			page 7


 144              	.LVL17:
  64:D:/fchai/work/i-cube/I-CUBE-HUAWEI/Middlewares/Third_Party/Huawei/iot_link/oc/oc_mqtt/oc_mqtt_profile_v5\oc_mqtt_profile_package.c ****         case EN_OC_MQTT_PROFILE_VALUE_STRING:
 145              		.loc 1 64 13 is_stmt 1 view .LVU34
 146 005a E9E7     		b	.L10
 147              	.LVL18:
 148              	.L7:
  60:D:/fchai/work/i-cube/I-CUBE-HUAWEI/Middlewares/Third_Party/Huawei/iot_link/oc/oc_mqtt/oc_mqtt_profile_v5\oc_mqtt_profile_package.c ****             break;
 149              		.loc 1 60 13 view .LVU35
  60:D:/fchai/work/i-cube/I-CUBE-HUAWEI/Middlewares/Third_Party/Huawei/iot_link/oc/oc_mqtt/oc_mqtt_profile_v5\oc_mqtt_profile_package.c ****             break;
 150              		.loc 1 60 47 is_stmt 0 view .LVU36
 151 005c E368     		ldr	r3, [r4, #12]
  60:D:/fchai/work/i-cube/I-CUBE-HUAWEI/Middlewares/Third_Party/Huawei/iot_link/oc/oc_mqtt/oc_mqtt_profile_v5\oc_mqtt_profile_package.c ****             break;
 152              		.loc 1 60 19 view .LVU37
 153 005e 1868     		ldr	r0, [r3]	@ float
 154 0060 FFF7FEFF 		bl	__aeabi_f2d
 155              	.LVL19:
 156 0064 41EC100B 		vmov	d0, r0, r1
 157 0068 FFF7FEFF 		bl	cJSON_CreateNumber
 158              	.LVL20:
 159 006c 0246     		mov	r2, r0
 160              	.LVL21:
  61:D:/fchai/work/i-cube/I-CUBE-HUAWEI/Middlewares/Third_Party/Huawei/iot_link/oc/oc_mqtt/oc_mqtt_profile_v5\oc_mqtt_profile_package.c ****         case EN_OC_MQTT_PROFILE_VALUE_DOUBLE:
 161              		.loc 1 61 13 is_stmt 1 view .LVU38
 162 006e DFE7     		b	.L10
 163              	.LVL22:
 164              	.L3:
  61:D:/fchai/work/i-cube/I-CUBE-HUAWEI/Middlewares/Third_Party/Huawei/iot_link/oc/oc_mqtt/oc_mqtt_profile_v5\oc_mqtt_profile_package.c ****         case EN_OC_MQTT_PROFILE_VALUE_DOUBLE:
 165              		.loc 1 61 13 is_stmt 0 view .LVU39
 166              	.LBE6:
 167              	.LBE7:
 174:D:/fchai/work/i-cube/I-CUBE-HUAWEI/Middlewares/Third_Party/Huawei/iot_link/oc/oc_mqtt/oc_mqtt_profile_v5\oc_mqtt_profile_package.c ****     {
 168              		.loc 1 174 5 is_stmt 1 view .LVU40
 176:D:/fchai/work/i-cube/I-CUBE-HUAWEI/Middlewares/Third_Party/Huawei/iot_link/oc/oc_mqtt/oc_mqtt_profile_v5\oc_mqtt_profile_package.c ****        root = NULL;
 169              		.loc 1 176 8 view .LVU41
 170 0070 2846     		mov	r0, r5
 177:D:/fchai/work/i-cube/I-CUBE-HUAWEI/Middlewares/Third_Party/Huawei/iot_link/oc/oc_mqtt/oc_mqtt_profile_v5\oc_mqtt_profile_package.c ****     }
 171              		.loc 1 177 13 is_stmt 0 view .LVU42
 172 0072 0025     		movs	r5, #0
 173              	.LVL23:
 176:D:/fchai/work/i-cube/I-CUBE-HUAWEI/Middlewares/Third_Party/Huawei/iot_link/oc/oc_mqtt/oc_mqtt_profile_v5\oc_mqtt_profile_package.c ****        root = NULL;
 174              		.loc 1 176 8 view .LVU43
 175 0074 FFF7FEFF 		bl	cJSON_Delete
 176              	.LVL24:
 177:D:/fchai/work/i-cube/I-CUBE-HUAWEI/Middlewares/Third_Party/Huawei/iot_link/oc/oc_mqtt/oc_mqtt_profile_v5\oc_mqtt_profile_package.c ****     }
 177              		.loc 1 177 8 is_stmt 1 view .LVU44
 178              		.loc 1 182 1 is_stmt 0 view .LVU45
 179 0078 2846     		mov	r0, r5
 180 007a 38BD     		pop	{r3, r4, r5, pc}
 181              		.loc 1 182 1 view .LVU46
 182              		.cfi_endproc
 183              	.LFE2:
 185              		.section	.rodata.JsonCreateServices.str1.4,"aMS",%progbits,1
 186              		.align	2
 187              	.LC0:
 188 0000 73657276 		.ascii	"service_id\000"
 188      6963655F 
 188      696400
ARM GAS  T:\msys\tmp\cckvbb2E.s 			page 8


 189 000b 00       		.align	2
 190              	.LC1:
 191 000c 70726F70 		.ascii	"properties\000"
 191      65727469 
 191      657300
 192 0017 00       		.align	2
 193              	.LC2:
 194 0018 6576656E 		.ascii	"event_time\000"
 194      745F7469 
 194      6D6500
 195              		.section	.text.JsonCreateServices,"ax",%progbits
 196              		.align	1
 197              		.p2align 2,,3
 198              		.syntax unified
 199              		.thumb
 200              		.thumb_func
 201              		.fpu fpv4-sp-d16
 203              	JsonCreateServices:
 204              	.LVL25:
 205              	.LFB4:
 183:D:/fchai/work/i-cube/I-CUBE-HUAWEI/Middlewares/Third_Party/Huawei/iot_link/oc/oc_mqtt/oc_mqtt_profile_v5\oc_mqtt_profile_package.c **** 
 184:D:/fchai/work/i-cube/I-CUBE-HUAWEI/Middlewares/Third_Party/Huawei/iot_link/oc/oc_mqtt/oc_mqtt_profile_v5\oc_mqtt_profile_package.c **** 
 185:D:/fchai/work/i-cube/I-CUBE-HUAWEI/Middlewares/Third_Party/Huawei/iot_link/oc/oc_mqtt/oc_mqtt_profile_v5\oc_mqtt_profile_package.c **** 
 186:D:/fchai/work/i-cube/I-CUBE-HUAWEI/Middlewares/Third_Party/Huawei/iot_link/oc/oc_mqtt/oc_mqtt_profile_v5\oc_mqtt_profile_package.c **** static cJSON *JsonCreateService(oc_mqtt_profile_service_t *service_info)
 187:D:/fchai/work/i-cube/I-CUBE-HUAWEI/Middlewares/Third_Party/Huawei/iot_link/oc/oc_mqtt/oc_mqtt_profile_v5\oc_mqtt_profile_package.c **** {
 188:D:/fchai/work/i-cube/I-CUBE-HUAWEI/Middlewares/Third_Party/Huawei/iot_link/oc/oc_mqtt/oc_mqtt_profile_v5\oc_mqtt_profile_package.c **** 
 189:D:/fchai/work/i-cube/I-CUBE-HUAWEI/Middlewares/Third_Party/Huawei/iot_link/oc/oc_mqtt/oc_mqtt_profile_v5\oc_mqtt_profile_package.c ****     cJSON *root;
 190:D:/fchai/work/i-cube/I-CUBE-HUAWEI/Middlewares/Third_Party/Huawei/iot_link/oc/oc_mqtt/oc_mqtt_profile_v5\oc_mqtt_profile_package.c ****     cJSON *service_id;
 191:D:/fchai/work/i-cube/I-CUBE-HUAWEI/Middlewares/Third_Party/Huawei/iot_link/oc/oc_mqtt/oc_mqtt_profile_v5\oc_mqtt_profile_package.c ****     cJSON *properties;
 192:D:/fchai/work/i-cube/I-CUBE-HUAWEI/Middlewares/Third_Party/Huawei/iot_link/oc/oc_mqtt/oc_mqtt_profile_v5\oc_mqtt_profile_package.c ****     cJSON *event_time;
 193:D:/fchai/work/i-cube/I-CUBE-HUAWEI/Middlewares/Third_Party/Huawei/iot_link/oc/oc_mqtt/oc_mqtt_profile_v5\oc_mqtt_profile_package.c **** 
 194:D:/fchai/work/i-cube/I-CUBE-HUAWEI/Middlewares/Third_Party/Huawei/iot_link/oc/oc_mqtt/oc_mqtt_profile_v5\oc_mqtt_profile_package.c ****     ///< build a root node
 195:D:/fchai/work/i-cube/I-CUBE-HUAWEI/Middlewares/Third_Party/Huawei/iot_link/oc/oc_mqtt/oc_mqtt_profile_v5\oc_mqtt_profile_package.c ****     root = cJSON_CreateObject();
 196:D:/fchai/work/i-cube/I-CUBE-HUAWEI/Middlewares/Third_Party/Huawei/iot_link/oc/oc_mqtt/oc_mqtt_profile_v5\oc_mqtt_profile_package.c ****     if(NULL == root)
 197:D:/fchai/work/i-cube/I-CUBE-HUAWEI/Middlewares/Third_Party/Huawei/iot_link/oc/oc_mqtt/oc_mqtt_profile_v5\oc_mqtt_profile_package.c ****     {
 198:D:/fchai/work/i-cube/I-CUBE-HUAWEI/Middlewares/Third_Party/Huawei/iot_link/oc/oc_mqtt/oc_mqtt_profile_v5\oc_mqtt_profile_package.c ****        goto EXIT_MEM;
 199:D:/fchai/work/i-cube/I-CUBE-HUAWEI/Middlewares/Third_Party/Huawei/iot_link/oc/oc_mqtt/oc_mqtt_profile_v5\oc_mqtt_profile_package.c ****     }
 200:D:/fchai/work/i-cube/I-CUBE-HUAWEI/Middlewares/Third_Party/Huawei/iot_link/oc/oc_mqtt/oc_mqtt_profile_v5\oc_mqtt_profile_package.c **** 
 201:D:/fchai/work/i-cube/I-CUBE-HUAWEI/Middlewares/Third_Party/Huawei/iot_link/oc/oc_mqtt/oc_mqtt_profile_v5\oc_mqtt_profile_package.c ****     ///< add the service_id node to the root node
 202:D:/fchai/work/i-cube/I-CUBE-HUAWEI/Middlewares/Third_Party/Huawei/iot_link/oc/oc_mqtt/oc_mqtt_profile_v5\oc_mqtt_profile_package.c ****     service_id = cJSON_CreateString(service_info->service_id);
 203:D:/fchai/work/i-cube/I-CUBE-HUAWEI/Middlewares/Third_Party/Huawei/iot_link/oc/oc_mqtt/oc_mqtt_profile_v5\oc_mqtt_profile_package.c ****     if(NULL == service_id)
 204:D:/fchai/work/i-cube/I-CUBE-HUAWEI/Middlewares/Third_Party/Huawei/iot_link/oc/oc_mqtt/oc_mqtt_profile_v5\oc_mqtt_profile_package.c ****     {
 205:D:/fchai/work/i-cube/I-CUBE-HUAWEI/Middlewares/Third_Party/Huawei/iot_link/oc/oc_mqtt/oc_mqtt_profile_v5\oc_mqtt_profile_package.c ****        goto EXIT_MEM;
 206:D:/fchai/work/i-cube/I-CUBE-HUAWEI/Middlewares/Third_Party/Huawei/iot_link/oc/oc_mqtt/oc_mqtt_profile_v5\oc_mqtt_profile_package.c ****     }
 207:D:/fchai/work/i-cube/I-CUBE-HUAWEI/Middlewares/Third_Party/Huawei/iot_link/oc/oc_mqtt/oc_mqtt_profile_v5\oc_mqtt_profile_package.c ****     cJSON_AddItemToObjectCS(root,CN_OC_JSON_KEY_SERVICEID,service_id);
 208:D:/fchai/work/i-cube/I-CUBE-HUAWEI/Middlewares/Third_Party/Huawei/iot_link/oc/oc_mqtt/oc_mqtt_profile_v5\oc_mqtt_profile_package.c **** 
 209:D:/fchai/work/i-cube/I-CUBE-HUAWEI/Middlewares/Third_Party/Huawei/iot_link/oc/oc_mqtt/oc_mqtt_profile_v5\oc_mqtt_profile_package.c ****     ///< add the properties node to the root
 210:D:/fchai/work/i-cube/I-CUBE-HUAWEI/Middlewares/Third_Party/Huawei/iot_link/oc/oc_mqtt/oc_mqtt_profile_v5\oc_mqtt_profile_package.c ****     properties = JsonCreateKvLst(service_info->service_property);
 211:D:/fchai/work/i-cube/I-CUBE-HUAWEI/Middlewares/Third_Party/Huawei/iot_link/oc/oc_mqtt/oc_mqtt_profile_v5\oc_mqtt_profile_package.c ****     if(NULL == properties)
 212:D:/fchai/work/i-cube/I-CUBE-HUAWEI/Middlewares/Third_Party/Huawei/iot_link/oc/oc_mqtt/oc_mqtt_profile_v5\oc_mqtt_profile_package.c ****     {
 213:D:/fchai/work/i-cube/I-CUBE-HUAWEI/Middlewares/Third_Party/Huawei/iot_link/oc/oc_mqtt/oc_mqtt_profile_v5\oc_mqtt_profile_package.c ****        goto EXIT_MEM;
 214:D:/fchai/work/i-cube/I-CUBE-HUAWEI/Middlewares/Third_Party/Huawei/iot_link/oc/oc_mqtt/oc_mqtt_profile_v5\oc_mqtt_profile_package.c ****     }
 215:D:/fchai/work/i-cube/I-CUBE-HUAWEI/Middlewares/Third_Party/Huawei/iot_link/oc/oc_mqtt/oc_mqtt_profile_v5\oc_mqtt_profile_package.c ****     cJSON_AddItemToObjectCS(root,CN_OC_JSON_KEY_PROPERTIES,properties);
 216:D:/fchai/work/i-cube/I-CUBE-HUAWEI/Middlewares/Third_Party/Huawei/iot_link/oc/oc_mqtt/oc_mqtt_profile_v5\oc_mqtt_profile_package.c **** 
 217:D:/fchai/work/i-cube/I-CUBE-HUAWEI/Middlewares/Third_Party/Huawei/iot_link/oc/oc_mqtt/oc_mqtt_profile_v5\oc_mqtt_profile_package.c ****     ///< add the event time (optional) to the root
 218:D:/fchai/work/i-cube/I-CUBE-HUAWEI/Middlewares/Third_Party/Huawei/iot_link/oc/oc_mqtt/oc_mqtt_profile_v5\oc_mqtt_profile_package.c ****     if(NULL != service_info->event_time)
 219:D:/fchai/work/i-cube/I-CUBE-HUAWEI/Middlewares/Third_Party/Huawei/iot_link/oc/oc_mqtt/oc_mqtt_profile_v5\oc_mqtt_profile_package.c ****     {
ARM GAS  T:\msys\tmp\cckvbb2E.s 			page 9


 220:D:/fchai/work/i-cube/I-CUBE-HUAWEI/Middlewares/Third_Party/Huawei/iot_link/oc/oc_mqtt/oc_mqtt_profile_v5\oc_mqtt_profile_package.c ****         event_time = cJSON_CreateString(service_info->event_time);
 221:D:/fchai/work/i-cube/I-CUBE-HUAWEI/Middlewares/Third_Party/Huawei/iot_link/oc/oc_mqtt/oc_mqtt_profile_v5\oc_mqtt_profile_package.c ****         if(NULL == event_time)
 222:D:/fchai/work/i-cube/I-CUBE-HUAWEI/Middlewares/Third_Party/Huawei/iot_link/oc/oc_mqtt/oc_mqtt_profile_v5\oc_mqtt_profile_package.c ****         {
 223:D:/fchai/work/i-cube/I-CUBE-HUAWEI/Middlewares/Third_Party/Huawei/iot_link/oc/oc_mqtt/oc_mqtt_profile_v5\oc_mqtt_profile_package.c ****            goto EXIT_MEM;
 224:D:/fchai/work/i-cube/I-CUBE-HUAWEI/Middlewares/Third_Party/Huawei/iot_link/oc/oc_mqtt/oc_mqtt_profile_v5\oc_mqtt_profile_package.c ****         }
 225:D:/fchai/work/i-cube/I-CUBE-HUAWEI/Middlewares/Third_Party/Huawei/iot_link/oc/oc_mqtt/oc_mqtt_profile_v5\oc_mqtt_profile_package.c ****         cJSON_AddItemToObjectCS(root,CN_OC_JSON_KEY_EVENTTIME,event_time);
 226:D:/fchai/work/i-cube/I-CUBE-HUAWEI/Middlewares/Third_Party/Huawei/iot_link/oc/oc_mqtt/oc_mqtt_profile_v5\oc_mqtt_profile_package.c ****     }
 227:D:/fchai/work/i-cube/I-CUBE-HUAWEI/Middlewares/Third_Party/Huawei/iot_link/oc/oc_mqtt/oc_mqtt_profile_v5\oc_mqtt_profile_package.c **** 
 228:D:/fchai/work/i-cube/I-CUBE-HUAWEI/Middlewares/Third_Party/Huawei/iot_link/oc/oc_mqtt/oc_mqtt_profile_v5\oc_mqtt_profile_package.c ****     ///< OK, now we return it
 229:D:/fchai/work/i-cube/I-CUBE-HUAWEI/Middlewares/Third_Party/Huawei/iot_link/oc/oc_mqtt/oc_mqtt_profile_v5\oc_mqtt_profile_package.c ****     return root;
 230:D:/fchai/work/i-cube/I-CUBE-HUAWEI/Middlewares/Third_Party/Huawei/iot_link/oc/oc_mqtt/oc_mqtt_profile_v5\oc_mqtt_profile_package.c **** 
 231:D:/fchai/work/i-cube/I-CUBE-HUAWEI/Middlewares/Third_Party/Huawei/iot_link/oc/oc_mqtt/oc_mqtt_profile_v5\oc_mqtt_profile_package.c **** EXIT_MEM:
 232:D:/fchai/work/i-cube/I-CUBE-HUAWEI/Middlewares/Third_Party/Huawei/iot_link/oc/oc_mqtt/oc_mqtt_profile_v5\oc_mqtt_profile_package.c ****     if(NULL != root)
 233:D:/fchai/work/i-cube/I-CUBE-HUAWEI/Middlewares/Third_Party/Huawei/iot_link/oc/oc_mqtt/oc_mqtt_profile_v5\oc_mqtt_profile_package.c ****     {
 234:D:/fchai/work/i-cube/I-CUBE-HUAWEI/Middlewares/Third_Party/Huawei/iot_link/oc/oc_mqtt/oc_mqtt_profile_v5\oc_mqtt_profile_package.c ****        cJSON_Delete(root);
 235:D:/fchai/work/i-cube/I-CUBE-HUAWEI/Middlewares/Third_Party/Huawei/iot_link/oc/oc_mqtt/oc_mqtt_profile_v5\oc_mqtt_profile_package.c ****        root = NULL;
 236:D:/fchai/work/i-cube/I-CUBE-HUAWEI/Middlewares/Third_Party/Huawei/iot_link/oc/oc_mqtt/oc_mqtt_profile_v5\oc_mqtt_profile_package.c ****     }
 237:D:/fchai/work/i-cube/I-CUBE-HUAWEI/Middlewares/Third_Party/Huawei/iot_link/oc/oc_mqtt/oc_mqtt_profile_v5\oc_mqtt_profile_package.c ****     return root;
 238:D:/fchai/work/i-cube/I-CUBE-HUAWEI/Middlewares/Third_Party/Huawei/iot_link/oc/oc_mqtt/oc_mqtt_profile_v5\oc_mqtt_profile_package.c **** }
 239:D:/fchai/work/i-cube/I-CUBE-HUAWEI/Middlewares/Third_Party/Huawei/iot_link/oc/oc_mqtt/oc_mqtt_profile_v5\oc_mqtt_profile_package.c **** 
 240:D:/fchai/work/i-cube/I-CUBE-HUAWEI/Middlewares/Third_Party/Huawei/iot_link/oc/oc_mqtt/oc_mqtt_profile_v5\oc_mqtt_profile_package.c **** static cJSON *JsonCreateServices(oc_mqtt_profile_service_t *service_info)
 241:D:/fchai/work/i-cube/I-CUBE-HUAWEI/Middlewares/Third_Party/Huawei/iot_link/oc/oc_mqtt/oc_mqtt_profile_v5\oc_mqtt_profile_package.c **** {
 206              		.loc 1 241 1 is_stmt 1 view -0
 207              		.cfi_startproc
 208              		@ args = 0, pretend = 0, frame = 0
 209              		@ frame_needed = 0, uses_anonymous_args = 0
 242:D:/fchai/work/i-cube/I-CUBE-HUAWEI/Middlewares/Third_Party/Huawei/iot_link/oc/oc_mqtt/oc_mqtt_profile_v5\oc_mqtt_profile_package.c ****     cJSON *services = NULL;
 210              		.loc 1 242 5 view .LVU48
 243:D:/fchai/work/i-cube/I-CUBE-HUAWEI/Middlewares/Third_Party/Huawei/iot_link/oc/oc_mqtt/oc_mqtt_profile_v5\oc_mqtt_profile_package.c ****     cJSON *service;
 211              		.loc 1 243 5 view .LVU49
 244:D:/fchai/work/i-cube/I-CUBE-HUAWEI/Middlewares/Third_Party/Huawei/iot_link/oc/oc_mqtt/oc_mqtt_profile_v5\oc_mqtt_profile_package.c ****     oc_mqtt_profile_service_t  *service_tmp;
 212              		.loc 1 244 5 view .LVU50
 245:D:/fchai/work/i-cube/I-CUBE-HUAWEI/Middlewares/Third_Party/Huawei/iot_link/oc/oc_mqtt/oc_mqtt_profile_v5\oc_mqtt_profile_package.c **** 
 246:D:/fchai/work/i-cube/I-CUBE-HUAWEI/Middlewares/Third_Party/Huawei/iot_link/oc/oc_mqtt/oc_mqtt_profile_v5\oc_mqtt_profile_package.c ****     ///< create the services array node
 247:D:/fchai/work/i-cube/I-CUBE-HUAWEI/Middlewares/Third_Party/Huawei/iot_link/oc/oc_mqtt/oc_mqtt_profile_v5\oc_mqtt_profile_package.c ****     services = cJSON_CreateArray();
 213              		.loc 1 247 5 view .LVU51
 241:D:/fchai/work/i-cube/I-CUBE-HUAWEI/Middlewares/Third_Party/Huawei/iot_link/oc/oc_mqtt/oc_mqtt_profile_v5\oc_mqtt_profile_package.c ****     cJSON *services = NULL;
 214              		.loc 1 241 1 is_stmt 0 view .LVU52
 215 0000 2DE9F843 		push	{r3, r4, r5, r6, r7, r8, r9, lr}
 216              	.LCFI1:
 217              		.cfi_def_cfa_offset 32
 218              		.cfi_offset 3, -32
 219              		.cfi_offset 4, -28
 220              		.cfi_offset 5, -24
 221              		.cfi_offset 6, -20
 222              		.cfi_offset 7, -16
 223              		.cfi_offset 8, -12
 224              		.cfi_offset 9, -8
 225              		.cfi_offset 14, -4
 241:D:/fchai/work/i-cube/I-CUBE-HUAWEI/Middlewares/Third_Party/Huawei/iot_link/oc/oc_mqtt/oc_mqtt_profile_v5\oc_mqtt_profile_package.c ****     cJSON *services = NULL;
 226              		.loc 1 241 1 view .LVU53
 227 0004 0546     		mov	r5, r0
 228              		.loc 1 247 16 view .LVU54
 229 0006 FFF7FEFF 		bl	cJSON_CreateArray
 230              	.LVL26:
 248:D:/fchai/work/i-cube/I-CUBE-HUAWEI/Middlewares/Third_Party/Huawei/iot_link/oc/oc_mqtt/oc_mqtt_profile_v5\oc_mqtt_profile_package.c ****     if(NULL == services)
 231              		.loc 1 248 5 is_stmt 1 view .LVU55
ARM GAS  T:\msys\tmp\cckvbb2E.s 			page 10


 232              		.loc 1 248 7 is_stmt 0 view .LVU56
 233 000a 0646     		mov	r6, r0
 234 000c A8B3     		cbz	r0, .L24
 235              	.LVL27:
 249:D:/fchai/work/i-cube/I-CUBE-HUAWEI/Middlewares/Third_Party/Huawei/iot_link/oc/oc_mqtt/oc_mqtt_profile_v5\oc_mqtt_profile_package.c ****     {
 250:D:/fchai/work/i-cube/I-CUBE-HUAWEI/Middlewares/Third_Party/Huawei/iot_link/oc/oc_mqtt/oc_mqtt_profile_v5\oc_mqtt_profile_package.c ****        goto EXIT_MEM;
 251:D:/fchai/work/i-cube/I-CUBE-HUAWEI/Middlewares/Third_Party/Huawei/iot_link/oc/oc_mqtt/oc_mqtt_profile_v5\oc_mqtt_profile_package.c ****     }
 252:D:/fchai/work/i-cube/I-CUBE-HUAWEI/Middlewares/Third_Party/Huawei/iot_link/oc/oc_mqtt/oc_mqtt_profile_v5\oc_mqtt_profile_package.c **** 
 253:D:/fchai/work/i-cube/I-CUBE-HUAWEI/Middlewares/Third_Party/Huawei/iot_link/oc/oc_mqtt/oc_mqtt_profile_v5\oc_mqtt_profile_package.c ****     service_tmp = service_info;
 254:D:/fchai/work/i-cube/I-CUBE-HUAWEI/Middlewares/Third_Party/Huawei/iot_link/oc/oc_mqtt/oc_mqtt_profile_v5\oc_mqtt_profile_package.c ****     while(NULL != service_tmp)
 236              		.loc 1 254 10 is_stmt 1 view .LVU57
 237 000e A5B3     		cbz	r5, .L24
 238              	.LBB10:
 239              	.LBB11:
 207:D:/fchai/work/i-cube/I-CUBE-HUAWEI/Middlewares/Third_Party/Huawei/iot_link/oc/oc_mqtt/oc_mqtt_profile_v5\oc_mqtt_profile_package.c **** 
 240              		.loc 1 207 5 is_stmt 0 view .LVU58
 241 0010 1B4F     		ldr	r7, .L54
 215:D:/fchai/work/i-cube/I-CUBE-HUAWEI/Middlewares/Third_Party/Huawei/iot_link/oc/oc_mqtt/oc_mqtt_profile_v5\oc_mqtt_profile_package.c **** 
 242              		.loc 1 215 5 view .LVU59
 243 0012 DFF87080 		ldr	r8, .L54+4
 225:D:/fchai/work/i-cube/I-CUBE-HUAWEI/Middlewares/Third_Party/Huawei/iot_link/oc/oc_mqtt/oc_mqtt_profile_v5\oc_mqtt_profile_package.c ****     }
 244              		.loc 1 225 9 view .LVU60
 245 0016 DFF87090 		ldr	r9, .L54+8
 246 001a 21E0     		b	.L30
 247              	.LVL28:
 248              	.L53:
 202:D:/fchai/work/i-cube/I-CUBE-HUAWEI/Middlewares/Third_Party/Huawei/iot_link/oc/oc_mqtt/oc_mqtt_profile_v5\oc_mqtt_profile_package.c ****     if(NULL == service_id)
 249              		.loc 1 202 18 view .LVU61
 250 001c 6868     		ldr	r0, [r5, #4]
 251              	.LVL29:
 202:D:/fchai/work/i-cube/I-CUBE-HUAWEI/Middlewares/Third_Party/Huawei/iot_link/oc/oc_mqtt/oc_mqtt_profile_v5\oc_mqtt_profile_package.c ****     if(NULL == service_id)
 252              		.loc 1 202 18 view .LVU62
 253 001e FFF7FEFF 		bl	cJSON_CreateString
 254              	.LVL30:
 207:D:/fchai/work/i-cube/I-CUBE-HUAWEI/Middlewares/Third_Party/Huawei/iot_link/oc/oc_mqtt/oc_mqtt_profile_v5\oc_mqtt_profile_package.c **** 
 255              		.loc 1 207 5 is_stmt 1 view .LVU63
 202:D:/fchai/work/i-cube/I-CUBE-HUAWEI/Middlewares/Third_Party/Huawei/iot_link/oc/oc_mqtt/oc_mqtt_profile_v5\oc_mqtt_profile_package.c ****     if(NULL == service_id)
 256              		.loc 1 202 18 is_stmt 0 view .LVU64
 257 0022 0246     		mov	r2, r0
 258              	.LVL31:
 203:D:/fchai/work/i-cube/I-CUBE-HUAWEI/Middlewares/Third_Party/Huawei/iot_link/oc/oc_mqtt/oc_mqtt_profile_v5\oc_mqtt_profile_package.c ****     {
 259              		.loc 1 203 5 is_stmt 1 view .LVU65
 207:D:/fchai/work/i-cube/I-CUBE-HUAWEI/Middlewares/Third_Party/Huawei/iot_link/oc/oc_mqtt/oc_mqtt_profile_v5\oc_mqtt_profile_package.c **** 
 260              		.loc 1 207 5 is_stmt 0 view .LVU66
 261 0024 3946     		mov	r1, r7
 262 0026 2046     		mov	r0, r4
 263              	.LVL32:
 203:D:/fchai/work/i-cube/I-CUBE-HUAWEI/Middlewares/Third_Party/Huawei/iot_link/oc/oc_mqtt/oc_mqtt_profile_v5\oc_mqtt_profile_package.c ****     {
 264              		.loc 1 203 7 view .LVU67
 265 0028 02B3     		cbz	r2, .L28
 266              	.LVL33:
 207:D:/fchai/work/i-cube/I-CUBE-HUAWEI/Middlewares/Third_Party/Huawei/iot_link/oc/oc_mqtt/oc_mqtt_profile_v5\oc_mqtt_profile_package.c **** 
 267              		.loc 1 207 5 view .LVU68
 268 002a FFF7FEFF 		bl	cJSON_AddItemToObjectCS
 269              	.LVL34:
 210:D:/fchai/work/i-cube/I-CUBE-HUAWEI/Middlewares/Third_Party/Huawei/iot_link/oc/oc_mqtt/oc_mqtt_profile_v5\oc_mqtt_profile_package.c ****     if(NULL == properties)
 270              		.loc 1 210 5 is_stmt 1 view .LVU69
ARM GAS  T:\msys\tmp\cckvbb2E.s 			page 11


 210:D:/fchai/work/i-cube/I-CUBE-HUAWEI/Middlewares/Third_Party/Huawei/iot_link/oc/oc_mqtt/oc_mqtt_profile_v5\oc_mqtt_profile_package.c ****     if(NULL == properties)
 271              		.loc 1 210 18 is_stmt 0 view .LVU70
 272 002e E868     		ldr	r0, [r5, #12]
 273 0030 FFF7FEFF 		bl	JsonCreateKvLst
 274              	.LVL35:
 215:D:/fchai/work/i-cube/I-CUBE-HUAWEI/Middlewares/Third_Party/Huawei/iot_link/oc/oc_mqtt/oc_mqtt_profile_v5\oc_mqtt_profile_package.c **** 
 275              		.loc 1 215 5 is_stmt 1 view .LVU71
 210:D:/fchai/work/i-cube/I-CUBE-HUAWEI/Middlewares/Third_Party/Huawei/iot_link/oc/oc_mqtt/oc_mqtt_profile_v5\oc_mqtt_profile_package.c ****     if(NULL == properties)
 276              		.loc 1 210 18 is_stmt 0 view .LVU72
 277 0034 0246     		mov	r2, r0
 278              	.LVL36:
 211:D:/fchai/work/i-cube/I-CUBE-HUAWEI/Middlewares/Third_Party/Huawei/iot_link/oc/oc_mqtt/oc_mqtt_profile_v5\oc_mqtt_profile_package.c ****     {
 279              		.loc 1 211 5 is_stmt 1 view .LVU73
 215:D:/fchai/work/i-cube/I-CUBE-HUAWEI/Middlewares/Third_Party/Huawei/iot_link/oc/oc_mqtt/oc_mqtt_profile_v5\oc_mqtt_profile_package.c **** 
 280              		.loc 1 215 5 is_stmt 0 view .LVU74
 281 0036 4146     		mov	r1, r8
 282 0038 2046     		mov	r0, r4
 283              	.LVL37:
 211:D:/fchai/work/i-cube/I-CUBE-HUAWEI/Middlewares/Third_Party/Huawei/iot_link/oc/oc_mqtt/oc_mqtt_profile_v5\oc_mqtt_profile_package.c ****     {
 284              		.loc 1 211 7 view .LVU75
 285 003a BAB1     		cbz	r2, .L28
 215:D:/fchai/work/i-cube/I-CUBE-HUAWEI/Middlewares/Third_Party/Huawei/iot_link/oc/oc_mqtt/oc_mqtt_profile_v5\oc_mqtt_profile_package.c **** 
 286              		.loc 1 215 5 view .LVU76
 287 003c FFF7FEFF 		bl	cJSON_AddItemToObjectCS
 288              	.LVL38:
 218:D:/fchai/work/i-cube/I-CUBE-HUAWEI/Middlewares/Third_Party/Huawei/iot_link/oc/oc_mqtt/oc_mqtt_profile_v5\oc_mqtt_profile_package.c ****     {
 289              		.loc 1 218 5 is_stmt 1 view .LVU77
 220:D:/fchai/work/i-cube/I-CUBE-HUAWEI/Middlewares/Third_Party/Huawei/iot_link/oc/oc_mqtt/oc_mqtt_profile_v5\oc_mqtt_profile_package.c ****         if(NULL == event_time)
 290              		.loc 1 220 9 view .LVU78
 218:D:/fchai/work/i-cube/I-CUBE-HUAWEI/Middlewares/Third_Party/Huawei/iot_link/oc/oc_mqtt/oc_mqtt_profile_v5\oc_mqtt_profile_package.c ****     {
 291              		.loc 1 218 28 is_stmt 0 view .LVU79
 292 0040 A868     		ldr	r0, [r5, #8]
 218:D:/fchai/work/i-cube/I-CUBE-HUAWEI/Middlewares/Third_Party/Huawei/iot_link/oc/oc_mqtt/oc_mqtt_profile_v5\oc_mqtt_profile_package.c ****     {
 293              		.loc 1 218 7 view .LVU80
 294 0042 38B1     		cbz	r0, .L29
 220:D:/fchai/work/i-cube/I-CUBE-HUAWEI/Middlewares/Third_Party/Huawei/iot_link/oc/oc_mqtt/oc_mqtt_profile_v5\oc_mqtt_profile_package.c ****         if(NULL == event_time)
 295              		.loc 1 220 22 view .LVU81
 296 0044 FFF7FEFF 		bl	cJSON_CreateString
 297              	.LVL39:
 225:D:/fchai/work/i-cube/I-CUBE-HUAWEI/Middlewares/Third_Party/Huawei/iot_link/oc/oc_mqtt/oc_mqtt_profile_v5\oc_mqtt_profile_package.c ****     }
 298              		.loc 1 225 9 is_stmt 1 view .LVU82
 220:D:/fchai/work/i-cube/I-CUBE-HUAWEI/Middlewares/Third_Party/Huawei/iot_link/oc/oc_mqtt/oc_mqtt_profile_v5\oc_mqtt_profile_package.c ****         if(NULL == event_time)
 299              		.loc 1 220 22 is_stmt 0 view .LVU83
 300 0048 0246     		mov	r2, r0
 301              	.LVL40:
 221:D:/fchai/work/i-cube/I-CUBE-HUAWEI/Middlewares/Third_Party/Huawei/iot_link/oc/oc_mqtt/oc_mqtt_profile_v5\oc_mqtt_profile_package.c ****         {
 302              		.loc 1 221 9 is_stmt 1 view .LVU84
 225:D:/fchai/work/i-cube/I-CUBE-HUAWEI/Middlewares/Third_Party/Huawei/iot_link/oc/oc_mqtt/oc_mqtt_profile_v5\oc_mqtt_profile_package.c ****     }
 303              		.loc 1 225 9 is_stmt 0 view .LVU85
 304 004a 4946     		mov	r1, r9
 305 004c 2046     		mov	r0, r4
 306              	.LVL41:
 221:D:/fchai/work/i-cube/I-CUBE-HUAWEI/Middlewares/Third_Party/Huawei/iot_link/oc/oc_mqtt/oc_mqtt_profile_v5\oc_mqtt_profile_package.c ****         {
 307              		.loc 1 221 11 view .LVU86
 308 004e 6AB1     		cbz	r2, .L28
 225:D:/fchai/work/i-cube/I-CUBE-HUAWEI/Middlewares/Third_Party/Huawei/iot_link/oc/oc_mqtt/oc_mqtt_profile_v5\oc_mqtt_profile_package.c ****     }
 309              		.loc 1 225 9 view .LVU87
ARM GAS  T:\msys\tmp\cckvbb2E.s 			page 12


 310 0050 FFF7FEFF 		bl	cJSON_AddItemToObjectCS
 311              	.LVL42:
 312              	.L29:
 225:D:/fchai/work/i-cube/I-CUBE-HUAWEI/Middlewares/Third_Party/Huawei/iot_link/oc/oc_mqtt/oc_mqtt_profile_v5\oc_mqtt_profile_package.c ****     }
 313              		.loc 1 225 9 view .LVU88
 314              	.LBE11:
 315              	.LBE10:
 255:D:/fchai/work/i-cube/I-CUBE-HUAWEI/Middlewares/Third_Party/Huawei/iot_link/oc/oc_mqtt/oc_mqtt_profile_v5\oc_mqtt_profile_package.c ****     {
 256:D:/fchai/work/i-cube/I-CUBE-HUAWEI/Middlewares/Third_Party/Huawei/iot_link/oc/oc_mqtt/oc_mqtt_profile_v5\oc_mqtt_profile_package.c ****         service = JsonCreateService(service_tmp);
 257:D:/fchai/work/i-cube/I-CUBE-HUAWEI/Middlewares/Third_Party/Huawei/iot_link/oc/oc_mqtt/oc_mqtt_profile_v5\oc_mqtt_profile_package.c ****         if(NULL == service)
 316              		.loc 1 257 9 is_stmt 1 view .LVU89
 258:D:/fchai/work/i-cube/I-CUBE-HUAWEI/Middlewares/Third_Party/Huawei/iot_link/oc/oc_mqtt/oc_mqtt_profile_v5\oc_mqtt_profile_package.c ****         {
 259:D:/fchai/work/i-cube/I-CUBE-HUAWEI/Middlewares/Third_Party/Huawei/iot_link/oc/oc_mqtt/oc_mqtt_profile_v5\oc_mqtt_profile_package.c ****             goto EXIT_MEM;
 260:D:/fchai/work/i-cube/I-CUBE-HUAWEI/Middlewares/Third_Party/Huawei/iot_link/oc/oc_mqtt/oc_mqtt_profile_v5\oc_mqtt_profile_package.c ****         }
 261:D:/fchai/work/i-cube/I-CUBE-HUAWEI/Middlewares/Third_Party/Huawei/iot_link/oc/oc_mqtt/oc_mqtt_profile_v5\oc_mqtt_profile_package.c **** 
 262:D:/fchai/work/i-cube/I-CUBE-HUAWEI/Middlewares/Third_Party/Huawei/iot_link/oc/oc_mqtt/oc_mqtt_profile_v5\oc_mqtt_profile_package.c ****         cJSON_AddItemToArray(services,service);
 317              		.loc 1 262 9 view .LVU90
 318 0054 2146     		mov	r1, r4
 319 0056 3046     		mov	r0, r6
 320 0058 FFF7FEFF 		bl	cJSON_AddItemToArray
 321              	.LVL43:
 263:D:/fchai/work/i-cube/I-CUBE-HUAWEI/Middlewares/Third_Party/Huawei/iot_link/oc/oc_mqtt/oc_mqtt_profile_v5\oc_mqtt_profile_package.c ****         service_tmp = service_tmp->nxt;
 322              		.loc 1 263 9 view .LVU91
 323              		.loc 1 263 21 is_stmt 0 view .LVU92
 324 005c 2D68     		ldr	r5, [r5]
 325              	.LVL44:
 254:D:/fchai/work/i-cube/I-CUBE-HUAWEI/Middlewares/Third_Party/Huawei/iot_link/oc/oc_mqtt/oc_mqtt_profile_v5\oc_mqtt_profile_package.c ****     {
 326              		.loc 1 254 10 is_stmt 1 view .LVU93
 327 005e 65B1     		cbz	r5, .L24
 328              	.LVL45:
 329              	.L30:
 256:D:/fchai/work/i-cube/I-CUBE-HUAWEI/Middlewares/Third_Party/Huawei/iot_link/oc/oc_mqtt/oc_mqtt_profile_v5\oc_mqtt_profile_package.c ****         if(NULL == service)
 330              		.loc 1 256 9 view .LVU94
 331              	.LBB13:
 332              	.LBI10:
 186:D:/fchai/work/i-cube/I-CUBE-HUAWEI/Middlewares/Third_Party/Huawei/iot_link/oc/oc_mqtt/oc_mqtt_profile_v5\oc_mqtt_profile_package.c **** {
 333              		.loc 1 186 15 view .LVU95
 334              	.LBB12:
 189:D:/fchai/work/i-cube/I-CUBE-HUAWEI/Middlewares/Third_Party/Huawei/iot_link/oc/oc_mqtt/oc_mqtt_profile_v5\oc_mqtt_profile_package.c ****     cJSON *service_id;
 335              		.loc 1 189 5 view .LVU96
 190:D:/fchai/work/i-cube/I-CUBE-HUAWEI/Middlewares/Third_Party/Huawei/iot_link/oc/oc_mqtt/oc_mqtt_profile_v5\oc_mqtt_profile_package.c ****     cJSON *properties;
 336              		.loc 1 190 5 view .LVU97
 191:D:/fchai/work/i-cube/I-CUBE-HUAWEI/Middlewares/Third_Party/Huawei/iot_link/oc/oc_mqtt/oc_mqtt_profile_v5\oc_mqtt_profile_package.c ****     cJSON *event_time;
 337              		.loc 1 191 5 view .LVU98
 192:D:/fchai/work/i-cube/I-CUBE-HUAWEI/Middlewares/Third_Party/Huawei/iot_link/oc/oc_mqtt/oc_mqtt_profile_v5\oc_mqtt_profile_package.c **** 
 338              		.loc 1 192 5 view .LVU99
 195:D:/fchai/work/i-cube/I-CUBE-HUAWEI/Middlewares/Third_Party/Huawei/iot_link/oc/oc_mqtt/oc_mqtt_profile_v5\oc_mqtt_profile_package.c ****     if(NULL == root)
 339              		.loc 1 195 5 view .LVU100
 195:D:/fchai/work/i-cube/I-CUBE-HUAWEI/Middlewares/Third_Party/Huawei/iot_link/oc/oc_mqtt/oc_mqtt_profile_v5\oc_mqtt_profile_package.c ****     if(NULL == root)
 340              		.loc 1 195 12 is_stmt 0 view .LVU101
 341 0060 FFF7FEFF 		bl	cJSON_CreateObject
 342              	.LVL46:
 202:D:/fchai/work/i-cube/I-CUBE-HUAWEI/Middlewares/Third_Party/Huawei/iot_link/oc/oc_mqtt/oc_mqtt_profile_v5\oc_mqtt_profile_package.c ****     if(NULL == service_id)
 343              		.loc 1 202 5 is_stmt 1 view .LVU102
 196:D:/fchai/work/i-cube/I-CUBE-HUAWEI/Middlewares/Third_Party/Huawei/iot_link/oc/oc_mqtt/oc_mqtt_profile_v5\oc_mqtt_profile_package.c ****     {
 344              		.loc 1 196 5 view .LVU103
 196:D:/fchai/work/i-cube/I-CUBE-HUAWEI/Middlewares/Third_Party/Huawei/iot_link/oc/oc_mqtt/oc_mqtt_profile_v5\oc_mqtt_profile_package.c ****     {
ARM GAS  T:\msys\tmp\cckvbb2E.s 			page 13


 345              		.loc 1 196 7 is_stmt 0 view .LVU104
 346 0064 0446     		mov	r4, r0
 347 0066 0028     		cmp	r0, #0
 348 0068 D8D1     		bne	.L53
 196:D:/fchai/work/i-cube/I-CUBE-HUAWEI/Middlewares/Third_Party/Huawei/iot_link/oc/oc_mqtt/oc_mqtt_profile_v5\oc_mqtt_profile_package.c ****     {
 349              		.loc 1 196 7 view .LVU105
 350 006a 02E0     		b	.L27
 351              	.L28:
 232:D:/fchai/work/i-cube/I-CUBE-HUAWEI/Middlewares/Third_Party/Huawei/iot_link/oc/oc_mqtt/oc_mqtt_profile_v5\oc_mqtt_profile_package.c ****     {
 352              		.loc 1 232 5 is_stmt 1 view .LVU106
 234:D:/fchai/work/i-cube/I-CUBE-HUAWEI/Middlewares/Third_Party/Huawei/iot_link/oc/oc_mqtt/oc_mqtt_profile_v5\oc_mqtt_profile_package.c ****        root = NULL;
 353              		.loc 1 234 8 view .LVU107
 354 006c 2046     		mov	r0, r4
 355              	.LVL47:
 234:D:/fchai/work/i-cube/I-CUBE-HUAWEI/Middlewares/Third_Party/Huawei/iot_link/oc/oc_mqtt/oc_mqtt_profile_v5\oc_mqtt_profile_package.c ****        root = NULL;
 356              		.loc 1 234 8 is_stmt 0 view .LVU108
 357 006e FFF7FEFF 		bl	cJSON_Delete
 358              	.LVL48:
 235:D:/fchai/work/i-cube/I-CUBE-HUAWEI/Middlewares/Third_Party/Huawei/iot_link/oc/oc_mqtt/oc_mqtt_profile_v5\oc_mqtt_profile_package.c ****     }
 359              		.loc 1 235 8 is_stmt 1 view .LVU109
 235:D:/fchai/work/i-cube/I-CUBE-HUAWEI/Middlewares/Third_Party/Huawei/iot_link/oc/oc_mqtt/oc_mqtt_profile_v5\oc_mqtt_profile_package.c ****     }
 360              		.loc 1 235 8 is_stmt 0 view .LVU110
 361              	.LBE12:
 362              	.LBE13:
 257:D:/fchai/work/i-cube/I-CUBE-HUAWEI/Middlewares/Third_Party/Huawei/iot_link/oc/oc_mqtt/oc_mqtt_profile_v5\oc_mqtt_profile_package.c ****         {
 363              		.loc 1 257 9 is_stmt 1 view .LVU111
 364              	.L27:
 264:D:/fchai/work/i-cube/I-CUBE-HUAWEI/Middlewares/Third_Party/Huawei/iot_link/oc/oc_mqtt/oc_mqtt_profile_v5\oc_mqtt_profile_package.c ****     }
 265:D:/fchai/work/i-cube/I-CUBE-HUAWEI/Middlewares/Third_Party/Huawei/iot_link/oc/oc_mqtt/oc_mqtt_profile_v5\oc_mqtt_profile_package.c **** 
 266:D:/fchai/work/i-cube/I-CUBE-HUAWEI/Middlewares/Third_Party/Huawei/iot_link/oc/oc_mqtt/oc_mqtt_profile_v5\oc_mqtt_profile_package.c ****     ///< now we return the services
 267:D:/fchai/work/i-cube/I-CUBE-HUAWEI/Middlewares/Third_Party/Huawei/iot_link/oc/oc_mqtt/oc_mqtt_profile_v5\oc_mqtt_profile_package.c ****     return services;
 268:D:/fchai/work/i-cube/I-CUBE-HUAWEI/Middlewares/Third_Party/Huawei/iot_link/oc/oc_mqtt/oc_mqtt_profile_v5\oc_mqtt_profile_package.c **** 
 269:D:/fchai/work/i-cube/I-CUBE-HUAWEI/Middlewares/Third_Party/Huawei/iot_link/oc/oc_mqtt/oc_mqtt_profile_v5\oc_mqtt_profile_package.c **** EXIT_MEM:
 270:D:/fchai/work/i-cube/I-CUBE-HUAWEI/Middlewares/Third_Party/Huawei/iot_link/oc/oc_mqtt/oc_mqtt_profile_v5\oc_mqtt_profile_package.c ****     if(NULL != services)
 365              		.loc 1 270 5 view .LVU112
 271:D:/fchai/work/i-cube/I-CUBE-HUAWEI/Middlewares/Third_Party/Huawei/iot_link/oc/oc_mqtt/oc_mqtt_profile_v5\oc_mqtt_profile_package.c ****     {
 272:D:/fchai/work/i-cube/I-CUBE-HUAWEI/Middlewares/Third_Party/Huawei/iot_link/oc/oc_mqtt/oc_mqtt_profile_v5\oc_mqtt_profile_package.c ****        cJSON_Delete(services);
 366              		.loc 1 272 8 view .LVU113
 367 0072 3046     		mov	r0, r6
 368 0074 FFF7FEFF 		bl	cJSON_Delete
 369              	.LVL49:
 273:D:/fchai/work/i-cube/I-CUBE-HUAWEI/Middlewares/Third_Party/Huawei/iot_link/oc/oc_mqtt/oc_mqtt_profile_v5\oc_mqtt_profile_package.c ****        services = NULL;
 370              		.loc 1 273 8 view .LVU114
 371              		.loc 1 273 17 is_stmt 0 view .LVU115
 372 0078 0026     		movs	r6, #0
 373              	.LVL50:
 374              	.L24:
 274:D:/fchai/work/i-cube/I-CUBE-HUAWEI/Middlewares/Third_Party/Huawei/iot_link/oc/oc_mqtt/oc_mqtt_profile_v5\oc_mqtt_profile_package.c ****     }
 275:D:/fchai/work/i-cube/I-CUBE-HUAWEI/Middlewares/Third_Party/Huawei/iot_link/oc/oc_mqtt/oc_mqtt_profile_v5\oc_mqtt_profile_package.c ****     return services;
 276:D:/fchai/work/i-cube/I-CUBE-HUAWEI/Middlewares/Third_Party/Huawei/iot_link/oc/oc_mqtt/oc_mqtt_profile_v5\oc_mqtt_profile_package.c **** }
 375              		.loc 1 276 1 view .LVU116
 376 007a 3046     		mov	r0, r6
 377 007c BDE8F883 		pop	{r3, r4, r5, r6, r7, r8, r9, pc}
 378              	.L55:
 379              		.align	2
 380              	.L54:
 381 0080 00000000 		.word	.LC0
ARM GAS  T:\msys\tmp\cckvbb2E.s 			page 14


 382 0084 0C000000 		.word	.LC1
 383 0088 18000000 		.word	.LC2
 384              		.cfi_endproc
 385              	.LFE4:
 387              		.section	.rodata.oc_mqtt_profile_package_msgup.str1.4,"aMS",%progbits,1
 388              		.align	2
 389              	.LC3:
 390 0000 6F626A65 		.ascii	"object_device_id\000"
 390      63745F64 
 390      65766963 
 390      655F6964 
 390      00
 391 0011 000000   		.align	2
 392              	.LC4:
 393 0014 6E616D65 		.ascii	"name\000"
 393      00
 394 0019 000000   		.align	2
 395              	.LC5:
 396 001c 696400   		.ascii	"id\000"
 397 001f 00       		.align	2
 398              	.LC6:
 399 0020 636F6E74 		.ascii	"content\000"
 399      656E7400 
 400              		.section	.text.oc_mqtt_profile_package_msgup,"ax",%progbits
 401              		.align	1
 402              		.p2align 2,,3
 403              		.global	oc_mqtt_profile_package_msgup
 404              		.syntax unified
 405              		.thumb
 406              		.thumb_func
 407              		.fpu fpv4-sp-d16
 409              	oc_mqtt_profile_package_msgup:
 410              	.LVL51:
 411              	.LFB1:
  76:D:/fchai/work/i-cube/I-CUBE-HUAWEI/Middlewares/Third_Party/Huawei/iot_link/oc/oc_mqtt/oc_mqtt_profile_v5\oc_mqtt_profile_package.c **** 
 412              		.loc 1 76 1 is_stmt 1 view -0
 413              		.cfi_startproc
 414              		@ args = 0, pretend = 0, frame = 0
 415              		@ frame_needed = 0, uses_anonymous_args = 0
  78:D:/fchai/work/i-cube/I-CUBE-HUAWEI/Middlewares/Third_Party/Huawei/iot_link/oc/oc_mqtt/oc_mqtt_profile_v5\oc_mqtt_profile_package.c ****     cJSON *root = NULL;
 416              		.loc 1 78 5 view .LVU118
  79:D:/fchai/work/i-cube/I-CUBE-HUAWEI/Middlewares/Third_Party/Huawei/iot_link/oc/oc_mqtt/oc_mqtt_profile_v5\oc_mqtt_profile_package.c ****     cJSON *device_id = NULL;
 417              		.loc 1 79 5 view .LVU119
  80:D:/fchai/work/i-cube/I-CUBE-HUAWEI/Middlewares/Third_Party/Huawei/iot_link/oc/oc_mqtt/oc_mqtt_profile_v5\oc_mqtt_profile_package.c ****     cJSON *msg_name;
 418              		.loc 1 80 5 view .LVU120
  81:D:/fchai/work/i-cube/I-CUBE-HUAWEI/Middlewares/Third_Party/Huawei/iot_link/oc/oc_mqtt/oc_mqtt_profile_v5\oc_mqtt_profile_package.c ****     cJSON *msg_id;
 419              		.loc 1 81 5 view .LVU121
  82:D:/fchai/work/i-cube/I-CUBE-HUAWEI/Middlewares/Third_Party/Huawei/iot_link/oc/oc_mqtt/oc_mqtt_profile_v5\oc_mqtt_profile_package.c ****     cJSON *msg_conntent;
 420              		.loc 1 82 5 view .LVU122
  83:D:/fchai/work/i-cube/I-CUBE-HUAWEI/Middlewares/Third_Party/Huawei/iot_link/oc/oc_mqtt/oc_mqtt_profile_v5\oc_mqtt_profile_package.c **** 
 421              		.loc 1 83 5 view .LVU123
  85:D:/fchai/work/i-cube/I-CUBE-HUAWEI/Middlewares/Third_Party/Huawei/iot_link/oc/oc_mqtt/oc_mqtt_profile_v5\oc_mqtt_profile_package.c ****     if(NULL == root)
 422              		.loc 1 85 5 view .LVU124
  76:D:/fchai/work/i-cube/I-CUBE-HUAWEI/Middlewares/Third_Party/Huawei/iot_link/oc/oc_mqtt/oc_mqtt_profile_v5\oc_mqtt_profile_package.c **** 
 423              		.loc 1 76 1 is_stmt 0 view .LVU125
 424 0000 38B5     		push	{r3, r4, r5, lr}
 425              	.LCFI2:
ARM GAS  T:\msys\tmp\cckvbb2E.s 			page 15


 426              		.cfi_def_cfa_offset 16
 427              		.cfi_offset 3, -16
 428              		.cfi_offset 4, -12
 429              		.cfi_offset 5, -8
 430              		.cfi_offset 14, -4
  76:D:/fchai/work/i-cube/I-CUBE-HUAWEI/Middlewares/Third_Party/Huawei/iot_link/oc/oc_mqtt/oc_mqtt_profile_v5\oc_mqtt_profile_package.c **** 
 431              		.loc 1 76 1 view .LVU126
 432 0002 0546     		mov	r5, r0
  85:D:/fchai/work/i-cube/I-CUBE-HUAWEI/Middlewares/Third_Party/Huawei/iot_link/oc/oc_mqtt/oc_mqtt_profile_v5\oc_mqtt_profile_package.c ****     if(NULL == root)
 433              		.loc 1 85 12 view .LVU127
 434 0004 FFF7FEFF 		bl	cJSON_CreateObject
 435              	.LVL52:
  86:D:/fchai/work/i-cube/I-CUBE-HUAWEI/Middlewares/Third_Party/Huawei/iot_link/oc/oc_mqtt/oc_mqtt_profile_v5\oc_mqtt_profile_package.c ****     {
 436              		.loc 1 86 5 is_stmt 1 view .LVU128
  86:D:/fchai/work/i-cube/I-CUBE-HUAWEI/Middlewares/Third_Party/Huawei/iot_link/oc/oc_mqtt/oc_mqtt_profile_v5\oc_mqtt_profile_package.c ****     {
 437              		.loc 1 86 7 is_stmt 0 view .LVU129
 438 0008 0446     		mov	r4, r0
 439 000a 70B3     		cbz	r0, .L56
  91:D:/fchai/work/i-cube/I-CUBE-HUAWEI/Middlewares/Third_Party/Huawei/iot_link/oc/oc_mqtt/oc_mqtt_profile_v5\oc_mqtt_profile_package.c ****     {
 440              		.loc 1 91 5 is_stmt 1 view .LVU130
  91:D:/fchai/work/i-cube/I-CUBE-HUAWEI/Middlewares/Third_Party/Huawei/iot_link/oc/oc_mqtt/oc_mqtt_profile_v5\oc_mqtt_profile_package.c ****     {
 441              		.loc 1 91 23 is_stmt 0 view .LVU131
 442 000c 2868     		ldr	r0, [r5]
 443              	.LVL53:
  91:D:/fchai/work/i-cube/I-CUBE-HUAWEI/Middlewares/Third_Party/Huawei/iot_link/oc/oc_mqtt/oc_mqtt_profile_v5\oc_mqtt_profile_package.c ****     {
 444              		.loc 1 91 7 view .LVU132
 445 000e 38B1     		cbz	r0, .L58
  93:D:/fchai/work/i-cube/I-CUBE-HUAWEI/Middlewares/Third_Party/Huawei/iot_link/oc/oc_mqtt/oc_mqtt_profile_v5\oc_mqtt_profile_package.c ****         if(NULL == device_id)
 446              		.loc 1 93 9 is_stmt 1 view .LVU133
  93:D:/fchai/work/i-cube/I-CUBE-HUAWEI/Middlewares/Third_Party/Huawei/iot_link/oc/oc_mqtt/oc_mqtt_profile_v5\oc_mqtt_profile_package.c ****         if(NULL == device_id)
 447              		.loc 1 93 21 is_stmt 0 view .LVU134
 448 0010 FFF7FEFF 		bl	cJSON_CreateString
 449              	.LVL54:
  94:D:/fchai/work/i-cube/I-CUBE-HUAWEI/Middlewares/Third_Party/Huawei/iot_link/oc/oc_mqtt/oc_mqtt_profile_v5\oc_mqtt_profile_package.c ****         {
 450              		.loc 1 94 9 is_stmt 1 view .LVU135
  94:D:/fchai/work/i-cube/I-CUBE-HUAWEI/Middlewares/Third_Party/Huawei/iot_link/oc/oc_mqtt/oc_mqtt_profile_v5\oc_mqtt_profile_package.c ****         {
 451              		.loc 1 94 11 is_stmt 0 view .LVU136
 452 0014 0246     		mov	r2, r0
 453 0016 50B3     		cbz	r0, .L59
  98:D:/fchai/work/i-cube/I-CUBE-HUAWEI/Middlewares/Third_Party/Huawei/iot_link/oc/oc_mqtt/oc_mqtt_profile_v5\oc_mqtt_profile_package.c ****     }
 454              		.loc 1 98 9 is_stmt 1 view .LVU137
 455 0018 1849     		ldr	r1, .L87
 456 001a 2046     		mov	r0, r4
 457              	.LVL55:
  98:D:/fchai/work/i-cube/I-CUBE-HUAWEI/Middlewares/Third_Party/Huawei/iot_link/oc/oc_mqtt/oc_mqtt_profile_v5\oc_mqtt_profile_package.c ****     }
 458              		.loc 1 98 9 is_stmt 0 view .LVU138
 459 001c FFF7FEFF 		bl	cJSON_AddItemToObjectCS
 460              	.LVL56:
 461              	.L58:
 101:D:/fchai/work/i-cube/I-CUBE-HUAWEI/Middlewares/Third_Party/Huawei/iot_link/oc/oc_mqtt/oc_mqtt_profile_v5\oc_mqtt_profile_package.c ****     {
 462              		.loc 1 101 5 is_stmt 1 view .LVU139
 101:D:/fchai/work/i-cube/I-CUBE-HUAWEI/Middlewares/Third_Party/Huawei/iot_link/oc/oc_mqtt/oc_mqtt_profile_v5\oc_mqtt_profile_package.c ****     {
 463              		.loc 1 101 23 is_stmt 0 view .LVU140
 464 0020 6868     		ldr	r0, [r5, #4]
 101:D:/fchai/work/i-cube/I-CUBE-HUAWEI/Middlewares/Third_Party/Huawei/iot_link/oc/oc_mqtt/oc_mqtt_profile_v5\oc_mqtt_profile_package.c ****     {
 465              		.loc 1 101 7 view .LVU141
 466 0022 38B1     		cbz	r0, .L60
ARM GAS  T:\msys\tmp\cckvbb2E.s 			page 16


 103:D:/fchai/work/i-cube/I-CUBE-HUAWEI/Middlewares/Third_Party/Huawei/iot_link/oc/oc_mqtt/oc_mqtt_profile_v5\oc_mqtt_profile_package.c ****         if(NULL == msg_name)
 467              		.loc 1 103 9 is_stmt 1 view .LVU142
 103:D:/fchai/work/i-cube/I-CUBE-HUAWEI/Middlewares/Third_Party/Huawei/iot_link/oc/oc_mqtt/oc_mqtt_profile_v5\oc_mqtt_profile_package.c ****         if(NULL == msg_name)
 468              		.loc 1 103 20 is_stmt 0 view .LVU143
 469 0024 FFF7FEFF 		bl	cJSON_CreateString
 470              	.LVL57:
 104:D:/fchai/work/i-cube/I-CUBE-HUAWEI/Middlewares/Third_Party/Huawei/iot_link/oc/oc_mqtt/oc_mqtt_profile_v5\oc_mqtt_profile_package.c ****         {
 471              		.loc 1 104 9 is_stmt 1 view .LVU144
 104:D:/fchai/work/i-cube/I-CUBE-HUAWEI/Middlewares/Third_Party/Huawei/iot_link/oc/oc_mqtt/oc_mqtt_profile_v5\oc_mqtt_profile_package.c ****         {
 472              		.loc 1 104 11 is_stmt 0 view .LVU145
 473 0028 0246     		mov	r2, r0
 474 002a 00B3     		cbz	r0, .L59
 108:D:/fchai/work/i-cube/I-CUBE-HUAWEI/Middlewares/Third_Party/Huawei/iot_link/oc/oc_mqtt/oc_mqtt_profile_v5\oc_mqtt_profile_package.c ****     }
 475              		.loc 1 108 9 is_stmt 1 view .LVU146
 476 002c 1449     		ldr	r1, .L87+4
 477 002e 2046     		mov	r0, r4
 478              	.LVL58:
 108:D:/fchai/work/i-cube/I-CUBE-HUAWEI/Middlewares/Third_Party/Huawei/iot_link/oc/oc_mqtt/oc_mqtt_profile_v5\oc_mqtt_profile_package.c ****     }
 479              		.loc 1 108 9 is_stmt 0 view .LVU147
 480 0030 FFF7FEFF 		bl	cJSON_AddItemToObjectCS
 481              	.LVL59:
 482              	.L60:
 111:D:/fchai/work/i-cube/I-CUBE-HUAWEI/Middlewares/Third_Party/Huawei/iot_link/oc/oc_mqtt/oc_mqtt_profile_v5\oc_mqtt_profile_package.c ****     {
 483              		.loc 1 111 5 is_stmt 1 view .LVU148
 111:D:/fchai/work/i-cube/I-CUBE-HUAWEI/Middlewares/Third_Party/Huawei/iot_link/oc/oc_mqtt/oc_mqtt_profile_v5\oc_mqtt_profile_package.c ****     {
 484              		.loc 1 111 23 is_stmt 0 view .LVU149
 485 0034 A868     		ldr	r0, [r5, #8]
 111:D:/fchai/work/i-cube/I-CUBE-HUAWEI/Middlewares/Third_Party/Huawei/iot_link/oc/oc_mqtt/oc_mqtt_profile_v5\oc_mqtt_profile_package.c ****     {
 486              		.loc 1 111 7 view .LVU150
 487 0036 38B1     		cbz	r0, .L61
 113:D:/fchai/work/i-cube/I-CUBE-HUAWEI/Middlewares/Third_Party/Huawei/iot_link/oc/oc_mqtt/oc_mqtt_profile_v5\oc_mqtt_profile_package.c ****         if(NULL == msg_id)
 488              		.loc 1 113 9 is_stmt 1 view .LVU151
 113:D:/fchai/work/i-cube/I-CUBE-HUAWEI/Middlewares/Third_Party/Huawei/iot_link/oc/oc_mqtt/oc_mqtt_profile_v5\oc_mqtt_profile_package.c ****         if(NULL == msg_id)
 489              		.loc 1 113 18 is_stmt 0 view .LVU152
 490 0038 FFF7FEFF 		bl	cJSON_CreateString
 491              	.LVL60:
 114:D:/fchai/work/i-cube/I-CUBE-HUAWEI/Middlewares/Third_Party/Huawei/iot_link/oc/oc_mqtt/oc_mqtt_profile_v5\oc_mqtt_profile_package.c ****         {
 492              		.loc 1 114 9 is_stmt 1 view .LVU153
 114:D:/fchai/work/i-cube/I-CUBE-HUAWEI/Middlewares/Third_Party/Huawei/iot_link/oc/oc_mqtt/oc_mqtt_profile_v5\oc_mqtt_profile_package.c ****         {
 493              		.loc 1 114 11 is_stmt 0 view .LVU154
 494 003c 0246     		mov	r2, r0
 495 003e B0B1     		cbz	r0, .L59
 118:D:/fchai/work/i-cube/I-CUBE-HUAWEI/Middlewares/Third_Party/Huawei/iot_link/oc/oc_mqtt/oc_mqtt_profile_v5\oc_mqtt_profile_package.c ****     }
 496              		.loc 1 118 9 is_stmt 1 view .LVU155
 497 0040 1049     		ldr	r1, .L87+8
 498 0042 2046     		mov	r0, r4
 499              	.LVL61:
 118:D:/fchai/work/i-cube/I-CUBE-HUAWEI/Middlewares/Third_Party/Huawei/iot_link/oc/oc_mqtt/oc_mqtt_profile_v5\oc_mqtt_profile_package.c ****     }
 500              		.loc 1 118 9 is_stmt 0 view .LVU156
 501 0044 FFF7FEFF 		bl	cJSON_AddItemToObjectCS
 502              	.LVL62:
 503              	.L61:
 121:D:/fchai/work/i-cube/I-CUBE-HUAWEI/Middlewares/Third_Party/Huawei/iot_link/oc/oc_mqtt/oc_mqtt_profile_v5\oc_mqtt_profile_package.c ****     if(NULL == msg_conntent)
 504              		.loc 1 121 5 is_stmt 1 view .LVU157
 121:D:/fchai/work/i-cube/I-CUBE-HUAWEI/Middlewares/Third_Party/Huawei/iot_link/oc/oc_mqtt/oc_mqtt_profile_v5\oc_mqtt_profile_package.c ****     if(NULL == msg_conntent)
 505              		.loc 1 121 20 is_stmt 0 view .LVU158
 506 0048 E868     		ldr	r0, [r5, #12]
ARM GAS  T:\msys\tmp\cckvbb2E.s 			page 17


 507 004a FFF7FEFF 		bl	cJSON_CreateString
 508              	.LVL63:
 122:D:/fchai/work/i-cube/I-CUBE-HUAWEI/Middlewares/Third_Party/Huawei/iot_link/oc/oc_mqtt/oc_mqtt_profile_v5\oc_mqtt_profile_package.c ****     {
 509              		.loc 1 122 5 is_stmt 1 view .LVU159
 122:D:/fchai/work/i-cube/I-CUBE-HUAWEI/Middlewares/Third_Party/Huawei/iot_link/oc/oc_mqtt/oc_mqtt_profile_v5\oc_mqtt_profile_package.c ****     {
 510              		.loc 1 122 7 is_stmt 0 view .LVU160
 511 004e 0246     		mov	r2, r0
 512 0050 68B1     		cbz	r0, .L59
 126:D:/fchai/work/i-cube/I-CUBE-HUAWEI/Middlewares/Third_Party/Huawei/iot_link/oc/oc_mqtt/oc_mqtt_profile_v5\oc_mqtt_profile_package.c **** 
 513              		.loc 1 126 5 is_stmt 1 view .LVU161
 514 0052 0D49     		ldr	r1, .L87+12
 515 0054 2046     		mov	r0, r4
 516              	.LVL64:
 126:D:/fchai/work/i-cube/I-CUBE-HUAWEI/Middlewares/Third_Party/Huawei/iot_link/oc/oc_mqtt/oc_mqtt_profile_v5\oc_mqtt_profile_package.c **** 
 517              		.loc 1 126 5 is_stmt 0 view .LVU162
 518 0056 FFF7FEFF 		bl	cJSON_AddItemToObjectCS
 519              	.LVL65:
 129:D:/fchai/work/i-cube/I-CUBE-HUAWEI/Middlewares/Third_Party/Huawei/iot_link/oc/oc_mqtt/oc_mqtt_profile_v5\oc_mqtt_profile_package.c ****     cJSON_Delete(root);
 520              		.loc 1 129 5 is_stmt 1 view .LVU163
 129:D:/fchai/work/i-cube/I-CUBE-HUAWEI/Middlewares/Third_Party/Huawei/iot_link/oc/oc_mqtt/oc_mqtt_profile_v5\oc_mqtt_profile_package.c ****     cJSON_Delete(root);
 521              		.loc 1 129 11 is_stmt 0 view .LVU164
 522 005a 2046     		mov	r0, r4
 523 005c FFF7FEFF 		bl	cJSON_PrintUnformatted
 524              	.LVL66:
 525 0060 0546     		mov	r5, r0
 526              	.LVL67:
 130:D:/fchai/work/i-cube/I-CUBE-HUAWEI/Middlewares/Third_Party/Huawei/iot_link/oc/oc_mqtt/oc_mqtt_profile_v5\oc_mqtt_profile_package.c ****     return ret;
 527              		.loc 1 130 5 is_stmt 1 view .LVU165
 528 0062 2046     		mov	r0, r4
 529              	.LVL68:
 130:D:/fchai/work/i-cube/I-CUBE-HUAWEI/Middlewares/Third_Party/Huawei/iot_link/oc/oc_mqtt/oc_mqtt_profile_v5\oc_mqtt_profile_package.c ****     return ret;
 530              		.loc 1 130 5 is_stmt 0 view .LVU166
 531 0064 FFF7FEFF 		bl	cJSON_Delete
 532              	.LVL69:
 131:D:/fchai/work/i-cube/I-CUBE-HUAWEI/Middlewares/Third_Party/Huawei/iot_link/oc/oc_mqtt/oc_mqtt_profile_v5\oc_mqtt_profile_package.c **** 
 533              		.loc 1 131 5 is_stmt 1 view .LVU167
 131:D:/fchai/work/i-cube/I-CUBE-HUAWEI/Middlewares/Third_Party/Huawei/iot_link/oc/oc_mqtt/oc_mqtt_profile_v5\oc_mqtt_profile_package.c **** 
 534              		.loc 1 131 12 is_stmt 0 view .LVU168
 535 0068 2C46     		mov	r4, r5
 536              	.LVL70:
 537              	.L56:
 139:D:/fchai/work/i-cube/I-CUBE-HUAWEI/Middlewares/Third_Party/Huawei/iot_link/oc/oc_mqtt/oc_mqtt_profile_v5\oc_mqtt_profile_package.c **** 
 538              		.loc 1 139 1 view .LVU169
 539 006a 2046     		mov	r0, r4
 540 006c 38BD     		pop	{r3, r4, r5, pc}
 541              	.LVL71:
 542              	.L59:
 134:D:/fchai/work/i-cube/I-CUBE-HUAWEI/Middlewares/Third_Party/Huawei/iot_link/oc/oc_mqtt/oc_mqtt_profile_v5\oc_mqtt_profile_package.c ****     {
 543              		.loc 1 134 5 is_stmt 1 view .LVU170
 136:D:/fchai/work/i-cube/I-CUBE-HUAWEI/Middlewares/Third_Party/Huawei/iot_link/oc/oc_mqtt/oc_mqtt_profile_v5\oc_mqtt_profile_package.c ****     }
 544              		.loc 1 136 8 view .LVU171
 545 006e 2046     		mov	r0, r4
 138:D:/fchai/work/i-cube/I-CUBE-HUAWEI/Middlewares/Third_Party/Huawei/iot_link/oc/oc_mqtt/oc_mqtt_profile_v5\oc_mqtt_profile_package.c **** }
 546              		.loc 1 138 12 is_stmt 0 view .LVU172
 547 0070 0024     		movs	r4, #0
 548              	.LVL72:
 136:D:/fchai/work/i-cube/I-CUBE-HUAWEI/Middlewares/Third_Party/Huawei/iot_link/oc/oc_mqtt/oc_mqtt_profile_v5\oc_mqtt_profile_package.c ****     }
ARM GAS  T:\msys\tmp\cckvbb2E.s 			page 18


 549              		.loc 1 136 8 view .LVU173
 550 0072 FFF7FEFF 		bl	cJSON_Delete
 551              	.LVL73:
 139:D:/fchai/work/i-cube/I-CUBE-HUAWEI/Middlewares/Third_Party/Huawei/iot_link/oc/oc_mqtt/oc_mqtt_profile_v5\oc_mqtt_profile_package.c **** 
 552              		.loc 1 139 1 view .LVU174
 553 0076 2046     		mov	r0, r4
 554 0078 38BD     		pop	{r3, r4, r5, pc}
 555              	.LVL74:
 556              	.L88:
 139:D:/fchai/work/i-cube/I-CUBE-HUAWEI/Middlewares/Third_Party/Huawei/iot_link/oc/oc_mqtt/oc_mqtt_profile_v5\oc_mqtt_profile_package.c **** 
 557              		.loc 1 139 1 view .LVU175
 558 007a 00BF     		.align	2
 559              	.L87:
 560 007c 00000000 		.word	.LC3
 561 0080 14000000 		.word	.LC4
 562 0084 1C000000 		.word	.LC5
 563 0088 20000000 		.word	.LC6
 564              		.cfi_endproc
 565              	.LFE1:
 567              		.section	.rodata.oc_mqtt_profile_package_propertyreport.str1.4,"aMS",%progbits,1
 568              		.align	2
 569              	.LC7:
 570 0000 73657276 		.ascii	"services\000"
 570      69636573 
 570      00
 571              		.section	.text.oc_mqtt_profile_package_propertyreport,"ax",%progbits
 572              		.align	1
 573              		.p2align 2,,3
 574              		.global	oc_mqtt_profile_package_propertyreport
 575              		.syntax unified
 576              		.thumb
 577              		.thumb_func
 578              		.fpu fpv4-sp-d16
 580              	oc_mqtt_profile_package_propertyreport:
 581              	.LVL75:
 582              	.LFB5:
 277:D:/fchai/work/i-cube/I-CUBE-HUAWEI/Middlewares/Third_Party/Huawei/iot_link/oc/oc_mqtt/oc_mqtt_profile_v5\oc_mqtt_profile_package.c **** 
 278:D:/fchai/work/i-cube/I-CUBE-HUAWEI/Middlewares/Third_Party/Huawei/iot_link/oc/oc_mqtt/oc_mqtt_profile_v5\oc_mqtt_profile_package.c **** char *oc_mqtt_profile_package_propertyreport(oc_mqtt_profile_service_t *payload)
 279:D:/fchai/work/i-cube/I-CUBE-HUAWEI/Middlewares/Third_Party/Huawei/iot_link/oc/oc_mqtt/oc_mqtt_profile_v5\oc_mqtt_profile_package.c **** {
 583              		.loc 1 279 1 is_stmt 1 view -0
 584              		.cfi_startproc
 585              		@ args = 0, pretend = 0, frame = 0
 586              		@ frame_needed = 0, uses_anonymous_args = 0
 280:D:/fchai/work/i-cube/I-CUBE-HUAWEI/Middlewares/Third_Party/Huawei/iot_link/oc/oc_mqtt/oc_mqtt_profile_v5\oc_mqtt_profile_package.c ****     char *ret = NULL;
 587              		.loc 1 280 5 view .LVU177
 281:D:/fchai/work/i-cube/I-CUBE-HUAWEI/Middlewares/Third_Party/Huawei/iot_link/oc/oc_mqtt/oc_mqtt_profile_v5\oc_mqtt_profile_package.c ****     cJSON *root;
 588              		.loc 1 281 5 view .LVU178
 282:D:/fchai/work/i-cube/I-CUBE-HUAWEI/Middlewares/Third_Party/Huawei/iot_link/oc/oc_mqtt/oc_mqtt_profile_v5\oc_mqtt_profile_package.c ****     cJSON *services;
 589              		.loc 1 282 5 view .LVU179
 283:D:/fchai/work/i-cube/I-CUBE-HUAWEI/Middlewares/Third_Party/Huawei/iot_link/oc/oc_mqtt/oc_mqtt_profile_v5\oc_mqtt_profile_package.c **** 
 284:D:/fchai/work/i-cube/I-CUBE-HUAWEI/Middlewares/Third_Party/Huawei/iot_link/oc/oc_mqtt/oc_mqtt_profile_v5\oc_mqtt_profile_package.c ****     ///< create the root node
 285:D:/fchai/work/i-cube/I-CUBE-HUAWEI/Middlewares/Third_Party/Huawei/iot_link/oc/oc_mqtt/oc_mqtt_profile_v5\oc_mqtt_profile_package.c ****     root = cJSON_CreateObject();
 590              		.loc 1 285 5 view .LVU180
 279:D:/fchai/work/i-cube/I-CUBE-HUAWEI/Middlewares/Third_Party/Huawei/iot_link/oc/oc_mqtt/oc_mqtt_profile_v5\oc_mqtt_profile_package.c ****     char *ret = NULL;
 591              		.loc 1 279 1 is_stmt 0 view .LVU181
 592 0000 38B5     		push	{r3, r4, r5, lr}
 593              	.LCFI3:
ARM GAS  T:\msys\tmp\cckvbb2E.s 			page 19


 594              		.cfi_def_cfa_offset 16
 595              		.cfi_offset 3, -16
 596              		.cfi_offset 4, -12
 597              		.cfi_offset 5, -8
 598              		.cfi_offset 14, -4
 279:D:/fchai/work/i-cube/I-CUBE-HUAWEI/Middlewares/Third_Party/Huawei/iot_link/oc/oc_mqtt/oc_mqtt_profile_v5\oc_mqtt_profile_package.c ****     char *ret = NULL;
 599              		.loc 1 279 1 view .LVU182
 600 0002 0546     		mov	r5, r0
 601              		.loc 1 285 12 view .LVU183
 602 0004 FFF7FEFF 		bl	cJSON_CreateObject
 603              	.LVL76:
 286:D:/fchai/work/i-cube/I-CUBE-HUAWEI/Middlewares/Third_Party/Huawei/iot_link/oc/oc_mqtt/oc_mqtt_profile_v5\oc_mqtt_profile_package.c ****     if(NULL == root)
 604              		.loc 1 286 5 is_stmt 1 view .LVU184
 605              		.loc 1 286 7 is_stmt 0 view .LVU185
 606 0008 0446     		mov	r4, r0
 607 000a 88B1     		cbz	r0, .L89
 287:D:/fchai/work/i-cube/I-CUBE-HUAWEI/Middlewares/Third_Party/Huawei/iot_link/oc/oc_mqtt/oc_mqtt_profile_v5\oc_mqtt_profile_package.c ****     {
 288:D:/fchai/work/i-cube/I-CUBE-HUAWEI/Middlewares/Third_Party/Huawei/iot_link/oc/oc_mqtt/oc_mqtt_profile_v5\oc_mqtt_profile_package.c ****        goto EXIT_MEM;
 289:D:/fchai/work/i-cube/I-CUBE-HUAWEI/Middlewares/Third_Party/Huawei/iot_link/oc/oc_mqtt/oc_mqtt_profile_v5\oc_mqtt_profile_package.c ****     }
 290:D:/fchai/work/i-cube/I-CUBE-HUAWEI/Middlewares/Third_Party/Huawei/iot_link/oc/oc_mqtt/oc_mqtt_profile_v5\oc_mqtt_profile_package.c **** 
 291:D:/fchai/work/i-cube/I-CUBE-HUAWEI/Middlewares/Third_Party/Huawei/iot_link/oc/oc_mqtt/oc_mqtt_profile_v5\oc_mqtt_profile_package.c ****     ///< create the services array node to the root
 292:D:/fchai/work/i-cube/I-CUBE-HUAWEI/Middlewares/Third_Party/Huawei/iot_link/oc/oc_mqtt/oc_mqtt_profile_v5\oc_mqtt_profile_package.c ****     services = JsonCreateServices(payload);
 608              		.loc 1 292 5 is_stmt 1 view .LVU186
 609              		.loc 1 292 16 is_stmt 0 view .LVU187
 610 000c 2846     		mov	r0, r5
 611              	.LVL77:
 612              		.loc 1 292 16 view .LVU188
 613 000e FFF7FEFF 		bl	JsonCreateServices
 614              	.LVL78:
 293:D:/fchai/work/i-cube/I-CUBE-HUAWEI/Middlewares/Third_Party/Huawei/iot_link/oc/oc_mqtt/oc_mqtt_profile_v5\oc_mqtt_profile_package.c ****     if(NULL == services)
 615              		.loc 1 293 5 is_stmt 1 view .LVU189
 616              		.loc 1 293 7 is_stmt 0 view .LVU190
 617 0012 0546     		mov	r5, r0
 618              	.LVL79:
 619              		.loc 1 293 7 view .LVU191
 620 0014 70B1     		cbz	r0, .L91
 294:D:/fchai/work/i-cube/I-CUBE-HUAWEI/Middlewares/Third_Party/Huawei/iot_link/oc/oc_mqtt/oc_mqtt_profile_v5\oc_mqtt_profile_package.c ****     {
 295:D:/fchai/work/i-cube/I-CUBE-HUAWEI/Middlewares/Third_Party/Huawei/iot_link/oc/oc_mqtt/oc_mqtt_profile_v5\oc_mqtt_profile_package.c ****         goto EXIT_MEM;
 296:D:/fchai/work/i-cube/I-CUBE-HUAWEI/Middlewares/Third_Party/Huawei/iot_link/oc/oc_mqtt/oc_mqtt_profile_v5\oc_mqtt_profile_package.c ****     }
 297:D:/fchai/work/i-cube/I-CUBE-HUAWEI/Middlewares/Third_Party/Huawei/iot_link/oc/oc_mqtt/oc_mqtt_profile_v5\oc_mqtt_profile_package.c ****     cJSON_AddItemToObjectCS(root,CN_OC_JSON_KEY_SERVICES,services);
 621              		.loc 1 297 5 is_stmt 1 view .LVU192
 622 0016 0246     		mov	r2, r0
 623 0018 0949     		ldr	r1, .L96
 624 001a 2046     		mov	r0, r4
 625              	.LVL80:
 626              		.loc 1 297 5 is_stmt 0 view .LVU193
 627 001c FFF7FEFF 		bl	cJSON_AddItemToObjectCS
 628              	.LVL81:
 298:D:/fchai/work/i-cube/I-CUBE-HUAWEI/Middlewares/Third_Party/Huawei/iot_link/oc/oc_mqtt/oc_mqtt_profile_v5\oc_mqtt_profile_package.c **** 
 299:D:/fchai/work/i-cube/I-CUBE-HUAWEI/Middlewares/Third_Party/Huawei/iot_link/oc/oc_mqtt/oc_mqtt_profile_v5\oc_mqtt_profile_package.c ****     ///< OK, now we make it to a buffer
 300:D:/fchai/work/i-cube/I-CUBE-HUAWEI/Middlewares/Third_Party/Huawei/iot_link/oc/oc_mqtt/oc_mqtt_profile_v5\oc_mqtt_profile_package.c ****     ret = cJSON_PrintUnformatted(root);
 629              		.loc 1 300 5 is_stmt 1 view .LVU194
 630              		.loc 1 300 11 is_stmt 0 view .LVU195
 631 0020 2046     		mov	r0, r4
 632 0022 FFF7FEFF 		bl	cJSON_PrintUnformatted
 633              	.LVL82:
 634 0026 0546     		mov	r5, r0
ARM GAS  T:\msys\tmp\cckvbb2E.s 			page 20


 635              	.LVL83:
 301:D:/fchai/work/i-cube/I-CUBE-HUAWEI/Middlewares/Third_Party/Huawei/iot_link/oc/oc_mqtt/oc_mqtt_profile_v5\oc_mqtt_profile_package.c ****     cJSON_Delete(root);
 636              		.loc 1 301 5 is_stmt 1 view .LVU196
 637 0028 2046     		mov	r0, r4
 638              	.LVL84:
 639              		.loc 1 301 5 is_stmt 0 view .LVU197
 640 002a FFF7FEFF 		bl	cJSON_Delete
 641              	.LVL85:
 302:D:/fchai/work/i-cube/I-CUBE-HUAWEI/Middlewares/Third_Party/Huawei/iot_link/oc/oc_mqtt/oc_mqtt_profile_v5\oc_mqtt_profile_package.c ****     return ret;
 642              		.loc 1 302 5 is_stmt 1 view .LVU198
 643              		.loc 1 302 12 is_stmt 0 view .LVU199
 644 002e 2C46     		mov	r4, r5
 645              	.LVL86:
 646              	.L89:
 303:D:/fchai/work/i-cube/I-CUBE-HUAWEI/Middlewares/Third_Party/Huawei/iot_link/oc/oc_mqtt/oc_mqtt_profile_v5\oc_mqtt_profile_package.c **** 
 304:D:/fchai/work/i-cube/I-CUBE-HUAWEI/Middlewares/Third_Party/Huawei/iot_link/oc/oc_mqtt/oc_mqtt_profile_v5\oc_mqtt_profile_package.c **** EXIT_MEM:
 305:D:/fchai/work/i-cube/I-CUBE-HUAWEI/Middlewares/Third_Party/Huawei/iot_link/oc/oc_mqtt/oc_mqtt_profile_v5\oc_mqtt_profile_package.c ****     if(NULL != root)
 306:D:/fchai/work/i-cube/I-CUBE-HUAWEI/Middlewares/Third_Party/Huawei/iot_link/oc/oc_mqtt/oc_mqtt_profile_v5\oc_mqtt_profile_package.c ****     {
 307:D:/fchai/work/i-cube/I-CUBE-HUAWEI/Middlewares/Third_Party/Huawei/iot_link/oc/oc_mqtt/oc_mqtt_profile_v5\oc_mqtt_profile_package.c ****        cJSON_Delete(root);
 308:D:/fchai/work/i-cube/I-CUBE-HUAWEI/Middlewares/Third_Party/Huawei/iot_link/oc/oc_mqtt/oc_mqtt_profile_v5\oc_mqtt_profile_package.c ****     }
 309:D:/fchai/work/i-cube/I-CUBE-HUAWEI/Middlewares/Third_Party/Huawei/iot_link/oc/oc_mqtt/oc_mqtt_profile_v5\oc_mqtt_profile_package.c ****     return ret;
 310:D:/fchai/work/i-cube/I-CUBE-HUAWEI/Middlewares/Third_Party/Huawei/iot_link/oc/oc_mqtt/oc_mqtt_profile_v5\oc_mqtt_profile_package.c **** }
 647              		.loc 1 310 1 view .LVU200
 648 0030 2046     		mov	r0, r4
 649 0032 38BD     		pop	{r3, r4, r5, pc}
 650              	.LVL87:
 651              	.L91:
 305:D:/fchai/work/i-cube/I-CUBE-HUAWEI/Middlewares/Third_Party/Huawei/iot_link/oc/oc_mqtt/oc_mqtt_profile_v5\oc_mqtt_profile_package.c ****     {
 652              		.loc 1 305 5 is_stmt 1 view .LVU201
 307:D:/fchai/work/i-cube/I-CUBE-HUAWEI/Middlewares/Third_Party/Huawei/iot_link/oc/oc_mqtt/oc_mqtt_profile_v5\oc_mqtt_profile_package.c ****     }
 653              		.loc 1 307 8 view .LVU202
 654 0034 2046     		mov	r0, r4
 655              	.LVL88:
 309:D:/fchai/work/i-cube/I-CUBE-HUAWEI/Middlewares/Third_Party/Huawei/iot_link/oc/oc_mqtt/oc_mqtt_profile_v5\oc_mqtt_profile_package.c **** }
 656              		.loc 1 309 12 is_stmt 0 view .LVU203
 657 0036 2C46     		mov	r4, r5
 658              	.LVL89:
 307:D:/fchai/work/i-cube/I-CUBE-HUAWEI/Middlewares/Third_Party/Huawei/iot_link/oc/oc_mqtt/oc_mqtt_profile_v5\oc_mqtt_profile_package.c ****     }
 659              		.loc 1 307 8 view .LVU204
 660 0038 FFF7FEFF 		bl	cJSON_Delete
 661              	.LVL90:
 662              		.loc 1 310 1 view .LVU205
 663 003c 2046     		mov	r0, r4
 664 003e 38BD     		pop	{r3, r4, r5, pc}
 665              	.LVL91:
 666              	.L97:
 667              		.loc 1 310 1 view .LVU206
 668              		.align	2
 669              	.L96:
 670 0040 00000000 		.word	.LC7
 671              		.cfi_endproc
 672              	.LFE5:
 674              		.section	.rodata.oc_mqtt_profile_package_gwpropertyreport.str1.4,"aMS",%progbits,1
 675              		.align	2
 676              	.LC8:
 677 0000 64657669 		.ascii	"devices\000"
 677      63657300 
ARM GAS  T:\msys\tmp\cckvbb2E.s 			page 21


 678              		.align	2
 679              	.LC9:
 680 0008 64657669 		.ascii	"device_id\000"
 680      63655F69 
 680      6400
 681              		.section	.text.oc_mqtt_profile_package_gwpropertyreport,"ax",%progbits
 682              		.align	1
 683              		.p2align 2,,3
 684              		.global	oc_mqtt_profile_package_gwpropertyreport
 685              		.syntax unified
 686              		.thumb
 687              		.thumb_func
 688              		.fpu fpv4-sp-d16
 690              	oc_mqtt_profile_package_gwpropertyreport:
 691              	.LVL92:
 692              	.LFB6:
 311:D:/fchai/work/i-cube/I-CUBE-HUAWEI/Middlewares/Third_Party/Huawei/iot_link/oc/oc_mqtt/oc_mqtt_profile_v5\oc_mqtt_profile_package.c **** 
 312:D:/fchai/work/i-cube/I-CUBE-HUAWEI/Middlewares/Third_Party/Huawei/iot_link/oc/oc_mqtt/oc_mqtt_profile_v5\oc_mqtt_profile_package.c **** 
 313:D:/fchai/work/i-cube/I-CUBE-HUAWEI/Middlewares/Third_Party/Huawei/iot_link/oc/oc_mqtt/oc_mqtt_profile_v5\oc_mqtt_profile_package.c **** char *oc_mqtt_profile_package_gwpropertyreport(oc_mqtt_profile_device_t *payload)
 314:D:/fchai/work/i-cube/I-CUBE-HUAWEI/Middlewares/Third_Party/Huawei/iot_link/oc/oc_mqtt/oc_mqtt_profile_v5\oc_mqtt_profile_package.c **** {
 693              		.loc 1 314 1 is_stmt 1 view -0
 694              		.cfi_startproc
 695              		@ args = 0, pretend = 0, frame = 0
 696              		@ frame_needed = 0, uses_anonymous_args = 0
 315:D:/fchai/work/i-cube/I-CUBE-HUAWEI/Middlewares/Third_Party/Huawei/iot_link/oc/oc_mqtt/oc_mqtt_profile_v5\oc_mqtt_profile_package.c ****     char *ret = NULL;
 697              		.loc 1 315 5 view .LVU208
 316:D:/fchai/work/i-cube/I-CUBE-HUAWEI/Middlewares/Third_Party/Huawei/iot_link/oc/oc_mqtt/oc_mqtt_profile_v5\oc_mqtt_profile_package.c ****     cJSON *root;
 698              		.loc 1 316 5 view .LVU209
 317:D:/fchai/work/i-cube/I-CUBE-HUAWEI/Middlewares/Third_Party/Huawei/iot_link/oc/oc_mqtt/oc_mqtt_profile_v5\oc_mqtt_profile_package.c ****     cJSON *services;
 699              		.loc 1 317 5 view .LVU210
 318:D:/fchai/work/i-cube/I-CUBE-HUAWEI/Middlewares/Third_Party/Huawei/iot_link/oc/oc_mqtt/oc_mqtt_profile_v5\oc_mqtt_profile_package.c ****     cJSON *devices;
 700              		.loc 1 318 5 view .LVU211
 319:D:/fchai/work/i-cube/I-CUBE-HUAWEI/Middlewares/Third_Party/Huawei/iot_link/oc/oc_mqtt/oc_mqtt_profile_v5\oc_mqtt_profile_package.c ****     cJSON *device;
 701              		.loc 1 319 5 view .LVU212
 320:D:/fchai/work/i-cube/I-CUBE-HUAWEI/Middlewares/Third_Party/Huawei/iot_link/oc/oc_mqtt/oc_mqtt_profile_v5\oc_mqtt_profile_package.c ****     cJSON *device_id;
 702              		.loc 1 320 5 view .LVU213
 321:D:/fchai/work/i-cube/I-CUBE-HUAWEI/Middlewares/Third_Party/Huawei/iot_link/oc/oc_mqtt/oc_mqtt_profile_v5\oc_mqtt_profile_package.c **** 
 322:D:/fchai/work/i-cube/I-CUBE-HUAWEI/Middlewares/Third_Party/Huawei/iot_link/oc/oc_mqtt/oc_mqtt_profile_v5\oc_mqtt_profile_package.c ****     oc_mqtt_profile_device_t *device_info;
 703              		.loc 1 322 5 view .LVU214
 323:D:/fchai/work/i-cube/I-CUBE-HUAWEI/Middlewares/Third_Party/Huawei/iot_link/oc/oc_mqtt/oc_mqtt_profile_v5\oc_mqtt_profile_package.c **** 
 324:D:/fchai/work/i-cube/I-CUBE-HUAWEI/Middlewares/Third_Party/Huawei/iot_link/oc/oc_mqtt/oc_mqtt_profile_v5\oc_mqtt_profile_package.c ****     ///< create the root node
 325:D:/fchai/work/i-cube/I-CUBE-HUAWEI/Middlewares/Third_Party/Huawei/iot_link/oc/oc_mqtt/oc_mqtt_profile_v5\oc_mqtt_profile_package.c ****     root = cJSON_CreateObject();
 704              		.loc 1 325 5 view .LVU215
 314:D:/fchai/work/i-cube/I-CUBE-HUAWEI/Middlewares/Third_Party/Huawei/iot_link/oc/oc_mqtt/oc_mqtt_profile_v5\oc_mqtt_profile_package.c ****     char *ret = NULL;
 705              		.loc 1 314 1 is_stmt 0 view .LVU216
 706 0000 2DE9F843 		push	{r3, r4, r5, r6, r7, r8, r9, lr}
 707              	.LCFI4:
 708              		.cfi_def_cfa_offset 32
 709              		.cfi_offset 3, -32
 710              		.cfi_offset 4, -28
 711              		.cfi_offset 5, -24
 712              		.cfi_offset 6, -20
 713              		.cfi_offset 7, -16
 714              		.cfi_offset 8, -12
 715              		.cfi_offset 9, -8
 716              		.cfi_offset 14, -4
 314:D:/fchai/work/i-cube/I-CUBE-HUAWEI/Middlewares/Third_Party/Huawei/iot_link/oc/oc_mqtt/oc_mqtt_profile_v5\oc_mqtt_profile_package.c ****     char *ret = NULL;
ARM GAS  T:\msys\tmp\cckvbb2E.s 			page 22


 717              		.loc 1 314 1 view .LVU217
 718 0004 0546     		mov	r5, r0
 719              		.loc 1 325 12 view .LVU218
 720 0006 FFF7FEFF 		bl	cJSON_CreateObject
 721              	.LVL93:
 326:D:/fchai/work/i-cube/I-CUBE-HUAWEI/Middlewares/Third_Party/Huawei/iot_link/oc/oc_mqtt/oc_mqtt_profile_v5\oc_mqtt_profile_package.c ****     if(NULL == root)
 722              		.loc 1 326 5 is_stmt 1 view .LVU219
 723              		.loc 1 326 7 is_stmt 0 view .LVU220
 724 000a 0746     		mov	r7, r0
 725 000c 78B3     		cbz	r0, .L98
 327:D:/fchai/work/i-cube/I-CUBE-HUAWEI/Middlewares/Third_Party/Huawei/iot_link/oc/oc_mqtt/oc_mqtt_profile_v5\oc_mqtt_profile_package.c ****     {
 328:D:/fchai/work/i-cube/I-CUBE-HUAWEI/Middlewares/Third_Party/Huawei/iot_link/oc/oc_mqtt/oc_mqtt_profile_v5\oc_mqtt_profile_package.c ****        goto EXIT_MEM;
 329:D:/fchai/work/i-cube/I-CUBE-HUAWEI/Middlewares/Third_Party/Huawei/iot_link/oc/oc_mqtt/oc_mqtt_profile_v5\oc_mqtt_profile_package.c ****     }
 330:D:/fchai/work/i-cube/I-CUBE-HUAWEI/Middlewares/Third_Party/Huawei/iot_link/oc/oc_mqtt/oc_mqtt_profile_v5\oc_mqtt_profile_package.c **** 
 331:D:/fchai/work/i-cube/I-CUBE-HUAWEI/Middlewares/Third_Party/Huawei/iot_link/oc/oc_mqtt/oc_mqtt_profile_v5\oc_mqtt_profile_package.c ****     ///< create the devices node and add it to root
 332:D:/fchai/work/i-cube/I-CUBE-HUAWEI/Middlewares/Third_Party/Huawei/iot_link/oc/oc_mqtt/oc_mqtt_profile_v5\oc_mqtt_profile_package.c ****     devices = cJSON_CreateArray();
 726              		.loc 1 332 5 is_stmt 1 view .LVU221
 727              		.loc 1 332 15 is_stmt 0 view .LVU222
 728 000e FFF7FEFF 		bl	cJSON_CreateArray
 729              	.LVL94:
 333:D:/fchai/work/i-cube/I-CUBE-HUAWEI/Middlewares/Third_Party/Huawei/iot_link/oc/oc_mqtt/oc_mqtt_profile_v5\oc_mqtt_profile_package.c ****     if(NULL == devices)
 730              		.loc 1 333 5 is_stmt 1 view .LVU223
 731              		.loc 1 333 7 is_stmt 0 view .LVU224
 732 0012 0646     		mov	r6, r0
 733 0014 38B3     		cbz	r0, .L100
 334:D:/fchai/work/i-cube/I-CUBE-HUAWEI/Middlewares/Third_Party/Huawei/iot_link/oc/oc_mqtt/oc_mqtt_profile_v5\oc_mqtt_profile_package.c ****     {
 335:D:/fchai/work/i-cube/I-CUBE-HUAWEI/Middlewares/Third_Party/Huawei/iot_link/oc/oc_mqtt/oc_mqtt_profile_v5\oc_mqtt_profile_package.c ****         goto EXIT_MEM;
 336:D:/fchai/work/i-cube/I-CUBE-HUAWEI/Middlewares/Third_Party/Huawei/iot_link/oc/oc_mqtt/oc_mqtt_profile_v5\oc_mqtt_profile_package.c ****     }
 337:D:/fchai/work/i-cube/I-CUBE-HUAWEI/Middlewares/Third_Party/Huawei/iot_link/oc/oc_mqtt/oc_mqtt_profile_v5\oc_mqtt_profile_package.c ****     cJSON_AddItemToObjectCS(root,CN_OC_JSON_KEY_DEVICES,devices);
 734              		.loc 1 337 5 is_stmt 1 view .LVU225
 735 0016 0246     		mov	r2, r0
 736 0018 1C49     		ldr	r1, .L124
 737 001a 3846     		mov	r0, r7
 738              	.LVL95:
 739              		.loc 1 337 5 is_stmt 0 view .LVU226
 740 001c FFF7FEFF 		bl	cJSON_AddItemToObjectCS
 741              	.LVL96:
 338:D:/fchai/work/i-cube/I-CUBE-HUAWEI/Middlewares/Third_Party/Huawei/iot_link/oc/oc_mqtt/oc_mqtt_profile_v5\oc_mqtt_profile_package.c **** 
 339:D:/fchai/work/i-cube/I-CUBE-HUAWEI/Middlewares/Third_Party/Huawei/iot_link/oc/oc_mqtt/oc_mqtt_profile_v5\oc_mqtt_profile_package.c ****     ///< loop all the devices and add it to devices
 340:D:/fchai/work/i-cube/I-CUBE-HUAWEI/Middlewares/Third_Party/Huawei/iot_link/oc/oc_mqtt/oc_mqtt_profile_v5\oc_mqtt_profile_package.c ****     device_info = payload;
 742              		.loc 1 340 5 is_stmt 1 view .LVU227
 341:D:/fchai/work/i-cube/I-CUBE-HUAWEI/Middlewares/Third_Party/Huawei/iot_link/oc/oc_mqtt/oc_mqtt_profile_v5\oc_mqtt_profile_package.c ****     while(NULL != device_info)
 743              		.loc 1 341 5 view .LVU228
 744              		.loc 1 341 10 view .LVU229
 745 0020 45B3     		cbz	r5, .L101
 342:D:/fchai/work/i-cube/I-CUBE-HUAWEI/Middlewares/Third_Party/Huawei/iot_link/oc/oc_mqtt/oc_mqtt_profile_v5\oc_mqtt_profile_package.c ****     {
 343:D:/fchai/work/i-cube/I-CUBE-HUAWEI/Middlewares/Third_Party/Huawei/iot_link/oc/oc_mqtt/oc_mqtt_profile_v5\oc_mqtt_profile_package.c ****         device = cJSON_CreateObject();
 344:D:/fchai/work/i-cube/I-CUBE-HUAWEI/Middlewares/Third_Party/Huawei/iot_link/oc/oc_mqtt/oc_mqtt_profile_v5\oc_mqtt_profile_package.c ****         if(NULL == device)
 345:D:/fchai/work/i-cube/I-CUBE-HUAWEI/Middlewares/Third_Party/Huawei/iot_link/oc/oc_mqtt/oc_mqtt_profile_v5\oc_mqtt_profile_package.c ****         {
 346:D:/fchai/work/i-cube/I-CUBE-HUAWEI/Middlewares/Third_Party/Huawei/iot_link/oc/oc_mqtt/oc_mqtt_profile_v5\oc_mqtt_profile_package.c ****             goto EXIT_MEM;
 347:D:/fchai/work/i-cube/I-CUBE-HUAWEI/Middlewares/Third_Party/Huawei/iot_link/oc/oc_mqtt/oc_mqtt_profile_v5\oc_mqtt_profile_package.c ****         }
 348:D:/fchai/work/i-cube/I-CUBE-HUAWEI/Middlewares/Third_Party/Huawei/iot_link/oc/oc_mqtt/oc_mqtt_profile_v5\oc_mqtt_profile_package.c ****         cJSON_AddItemToArray(devices,device);
 349:D:/fchai/work/i-cube/I-CUBE-HUAWEI/Middlewares/Third_Party/Huawei/iot_link/oc/oc_mqtt/oc_mqtt_profile_v5\oc_mqtt_profile_package.c **** 
 350:D:/fchai/work/i-cube/I-CUBE-HUAWEI/Middlewares/Third_Party/Huawei/iot_link/oc/oc_mqtt/oc_mqtt_profile_v5\oc_mqtt_profile_package.c ****         device_id = cJSON_CreateString(device_info->subdevice_id);
 351:D:/fchai/work/i-cube/I-CUBE-HUAWEI/Middlewares/Third_Party/Huawei/iot_link/oc/oc_mqtt/oc_mqtt_profile_v5\oc_mqtt_profile_package.c ****         if(NULL == device_id)
 352:D:/fchai/work/i-cube/I-CUBE-HUAWEI/Middlewares/Third_Party/Huawei/iot_link/oc/oc_mqtt/oc_mqtt_profile_v5\oc_mqtt_profile_package.c ****         {
 353:D:/fchai/work/i-cube/I-CUBE-HUAWEI/Middlewares/Third_Party/Huawei/iot_link/oc/oc_mqtt/oc_mqtt_profile_v5\oc_mqtt_profile_package.c ****             goto EXIT_MEM;
ARM GAS  T:\msys\tmp\cckvbb2E.s 			page 23


 354:D:/fchai/work/i-cube/I-CUBE-HUAWEI/Middlewares/Third_Party/Huawei/iot_link/oc/oc_mqtt/oc_mqtt_profile_v5\oc_mqtt_profile_package.c ****         }
 355:D:/fchai/work/i-cube/I-CUBE-HUAWEI/Middlewares/Third_Party/Huawei/iot_link/oc/oc_mqtt/oc_mqtt_profile_v5\oc_mqtt_profile_package.c ****         cJSON_AddItemToObjectCS(device,CN_OC_JSON_KEY_DEVICEID,device_id);
 746              		.loc 1 355 9 is_stmt 0 view .LVU230
 747 0022 DFF86C80 		ldr	r8, .L124+4
 356:D:/fchai/work/i-cube/I-CUBE-HUAWEI/Middlewares/Third_Party/Huawei/iot_link/oc/oc_mqtt/oc_mqtt_profile_v5\oc_mqtt_profile_package.c **** 
 357:D:/fchai/work/i-cube/I-CUBE-HUAWEI/Middlewares/Third_Party/Huawei/iot_link/oc/oc_mqtt/oc_mqtt_profile_v5\oc_mqtt_profile_package.c ****         services = JsonCreateServices(device_info->subdevice_property);
 358:D:/fchai/work/i-cube/I-CUBE-HUAWEI/Middlewares/Third_Party/Huawei/iot_link/oc/oc_mqtt/oc_mqtt_profile_v5\oc_mqtt_profile_package.c ****         if(NULL == services)
 359:D:/fchai/work/i-cube/I-CUBE-HUAWEI/Middlewares/Third_Party/Huawei/iot_link/oc/oc_mqtt/oc_mqtt_profile_v5\oc_mqtt_profile_package.c ****         {
 360:D:/fchai/work/i-cube/I-CUBE-HUAWEI/Middlewares/Third_Party/Huawei/iot_link/oc/oc_mqtt/oc_mqtt_profile_v5\oc_mqtt_profile_package.c ****             goto EXIT_MEM;
 361:D:/fchai/work/i-cube/I-CUBE-HUAWEI/Middlewares/Third_Party/Huawei/iot_link/oc/oc_mqtt/oc_mqtt_profile_v5\oc_mqtt_profile_package.c ****         }
 362:D:/fchai/work/i-cube/I-CUBE-HUAWEI/Middlewares/Third_Party/Huawei/iot_link/oc/oc_mqtt/oc_mqtt_profile_v5\oc_mqtt_profile_package.c ****         cJSON_AddItemToObjectCS(device,CN_OC_JSON_KEY_SERVICES,services);
 748              		.loc 1 362 9 view .LVU231
 749 0026 DFF86C90 		ldr	r9, .L124+8
 750 002a 15E0     		b	.L102
 751              	.LVL97:
 752              	.L123:
 348:D:/fchai/work/i-cube/I-CUBE-HUAWEI/Middlewares/Third_Party/Huawei/iot_link/oc/oc_mqtt/oc_mqtt_profile_v5\oc_mqtt_profile_package.c **** 
 753              		.loc 1 348 9 view .LVU232
 754 002c FFF7FEFF 		bl	cJSON_AddItemToArray
 755              	.LVL98:
 350:D:/fchai/work/i-cube/I-CUBE-HUAWEI/Middlewares/Third_Party/Huawei/iot_link/oc/oc_mqtt/oc_mqtt_profile_v5\oc_mqtt_profile_package.c ****         if(NULL == device_id)
 756              		.loc 1 350 9 is_stmt 1 view .LVU233
 350:D:/fchai/work/i-cube/I-CUBE-HUAWEI/Middlewares/Third_Party/Huawei/iot_link/oc/oc_mqtt/oc_mqtt_profile_v5\oc_mqtt_profile_package.c ****         if(NULL == device_id)
 757              		.loc 1 350 21 is_stmt 0 view .LVU234
 758 0030 6868     		ldr	r0, [r5, #4]
 759 0032 FFF7FEFF 		bl	cJSON_CreateString
 760              	.LVL99:
 355:D:/fchai/work/i-cube/I-CUBE-HUAWEI/Middlewares/Third_Party/Huawei/iot_link/oc/oc_mqtt/oc_mqtt_profile_v5\oc_mqtt_profile_package.c **** 
 761              		.loc 1 355 9 is_stmt 1 view .LVU235
 350:D:/fchai/work/i-cube/I-CUBE-HUAWEI/Middlewares/Third_Party/Huawei/iot_link/oc/oc_mqtt/oc_mqtt_profile_v5\oc_mqtt_profile_package.c ****         if(NULL == device_id)
 762              		.loc 1 350 21 is_stmt 0 view .LVU236
 763 0036 0246     		mov	r2, r0
 764              	.LVL100:
 351:D:/fchai/work/i-cube/I-CUBE-HUAWEI/Middlewares/Third_Party/Huawei/iot_link/oc/oc_mqtt/oc_mqtt_profile_v5\oc_mqtt_profile_package.c ****         {
 765              		.loc 1 351 9 is_stmt 1 view .LVU237
 355:D:/fchai/work/i-cube/I-CUBE-HUAWEI/Middlewares/Third_Party/Huawei/iot_link/oc/oc_mqtt/oc_mqtt_profile_v5\oc_mqtt_profile_package.c **** 
 766              		.loc 1 355 9 is_stmt 0 view .LVU238
 767 0038 4146     		mov	r1, r8
 768 003a 2046     		mov	r0, r4
 769              	.LVL101:
 351:D:/fchai/work/i-cube/I-CUBE-HUAWEI/Middlewares/Third_Party/Huawei/iot_link/oc/oc_mqtt/oc_mqtt_profile_v5\oc_mqtt_profile_package.c ****         {
 770              		.loc 1 351 11 view .LVU239
 771 003c 9AB1     		cbz	r2, .L100
 772              	.LVL102:
 355:D:/fchai/work/i-cube/I-CUBE-HUAWEI/Middlewares/Third_Party/Huawei/iot_link/oc/oc_mqtt/oc_mqtt_profile_v5\oc_mqtt_profile_package.c **** 
 773              		.loc 1 355 9 view .LVU240
 774 003e FFF7FEFF 		bl	cJSON_AddItemToObjectCS
 775              	.LVL103:
 357:D:/fchai/work/i-cube/I-CUBE-HUAWEI/Middlewares/Third_Party/Huawei/iot_link/oc/oc_mqtt/oc_mqtt_profile_v5\oc_mqtt_profile_package.c ****         if(NULL == services)
 776              		.loc 1 357 9 is_stmt 1 view .LVU241
 357:D:/fchai/work/i-cube/I-CUBE-HUAWEI/Middlewares/Third_Party/Huawei/iot_link/oc/oc_mqtt/oc_mqtt_profile_v5\oc_mqtt_profile_package.c ****         if(NULL == services)
 777              		.loc 1 357 20 is_stmt 0 view .LVU242
 778 0042 A868     		ldr	r0, [r5, #8]
 779 0044 FFF7FEFF 		bl	JsonCreateServices
 780              	.LVL104:
 781              		.loc 1 362 9 is_stmt 1 view .LVU243
 357:D:/fchai/work/i-cube/I-CUBE-HUAWEI/Middlewares/Third_Party/Huawei/iot_link/oc/oc_mqtt/oc_mqtt_profile_v5\oc_mqtt_profile_package.c ****         if(NULL == services)
ARM GAS  T:\msys\tmp\cckvbb2E.s 			page 24


 782              		.loc 1 357 20 is_stmt 0 view .LVU244
 783 0048 0246     		mov	r2, r0
 784              	.LVL105:
 358:D:/fchai/work/i-cube/I-CUBE-HUAWEI/Middlewares/Third_Party/Huawei/iot_link/oc/oc_mqtt/oc_mqtt_profile_v5\oc_mqtt_profile_package.c ****         {
 785              		.loc 1 358 9 is_stmt 1 view .LVU245
 786              		.loc 1 362 9 is_stmt 0 view .LVU246
 787 004a 4946     		mov	r1, r9
 788 004c 2046     		mov	r0, r4
 789              	.LVL106:
 358:D:/fchai/work/i-cube/I-CUBE-HUAWEI/Middlewares/Third_Party/Huawei/iot_link/oc/oc_mqtt/oc_mqtt_profile_v5\oc_mqtt_profile_package.c ****         {
 790              		.loc 1 358 11 view .LVU247
 791 004e 52B1     		cbz	r2, .L100
 792              		.loc 1 362 9 view .LVU248
 793 0050 FFF7FEFF 		bl	cJSON_AddItemToObjectCS
 794              	.LVL107:
 363:D:/fchai/work/i-cube/I-CUBE-HUAWEI/Middlewares/Third_Party/Huawei/iot_link/oc/oc_mqtt/oc_mqtt_profile_v5\oc_mqtt_profile_package.c **** 
 364:D:/fchai/work/i-cube/I-CUBE-HUAWEI/Middlewares/Third_Party/Huawei/iot_link/oc/oc_mqtt/oc_mqtt_profile_v5\oc_mqtt_profile_package.c ****         device_info = device_info->nxt;
 795              		.loc 1 364 9 is_stmt 1 view .LVU249
 796              		.loc 1 364 21 is_stmt 0 view .LVU250
 797 0054 2D68     		ldr	r5, [r5]
 798              	.LVL108:
 341:D:/fchai/work/i-cube/I-CUBE-HUAWEI/Middlewares/Third_Party/Huawei/iot_link/oc/oc_mqtt/oc_mqtt_profile_v5\oc_mqtt_profile_package.c ****     {
 799              		.loc 1 341 10 is_stmt 1 view .LVU251
 800 0056 6DB1     		cbz	r5, .L101
 801              	.LVL109:
 802              	.L102:
 343:D:/fchai/work/i-cube/I-CUBE-HUAWEI/Middlewares/Third_Party/Huawei/iot_link/oc/oc_mqtt/oc_mqtt_profile_v5\oc_mqtt_profile_package.c ****         if(NULL == device)
 803              		.loc 1 343 9 view .LVU252
 343:D:/fchai/work/i-cube/I-CUBE-HUAWEI/Middlewares/Third_Party/Huawei/iot_link/oc/oc_mqtt/oc_mqtt_profile_v5\oc_mqtt_profile_package.c ****         if(NULL == device)
 804              		.loc 1 343 18 is_stmt 0 view .LVU253
 805 0058 FFF7FEFF 		bl	cJSON_CreateObject
 806              	.LVL110:
 348:D:/fchai/work/i-cube/I-CUBE-HUAWEI/Middlewares/Third_Party/Huawei/iot_link/oc/oc_mqtt/oc_mqtt_profile_v5\oc_mqtt_profile_package.c **** 
 807              		.loc 1 348 9 is_stmt 1 view .LVU254
 343:D:/fchai/work/i-cube/I-CUBE-HUAWEI/Middlewares/Third_Party/Huawei/iot_link/oc/oc_mqtt/oc_mqtt_profile_v5\oc_mqtt_profile_package.c ****         if(NULL == device)
 808              		.loc 1 343 18 is_stmt 0 view .LVU255
 809 005c 0446     		mov	r4, r0
 810              	.LVL111:
 344:D:/fchai/work/i-cube/I-CUBE-HUAWEI/Middlewares/Third_Party/Huawei/iot_link/oc/oc_mqtt/oc_mqtt_profile_v5\oc_mqtt_profile_package.c ****         {
 811              		.loc 1 344 9 is_stmt 1 view .LVU256
 348:D:/fchai/work/i-cube/I-CUBE-HUAWEI/Middlewares/Third_Party/Huawei/iot_link/oc/oc_mqtt/oc_mqtt_profile_v5\oc_mqtt_profile_package.c **** 
 812              		.loc 1 348 9 is_stmt 0 view .LVU257
 813 005e 2146     		mov	r1, r4
 814 0060 3046     		mov	r0, r6
 815              	.LVL112:
 344:D:/fchai/work/i-cube/I-CUBE-HUAWEI/Middlewares/Third_Party/Huawei/iot_link/oc/oc_mqtt/oc_mqtt_profile_v5\oc_mqtt_profile_package.c ****         {
 816              		.loc 1 344 11 view .LVU258
 817 0062 002C     		cmp	r4, #0
 818 0064 E2D1     		bne	.L123
 819              	.LVL113:
 820              	.L100:
 365:D:/fchai/work/i-cube/I-CUBE-HUAWEI/Middlewares/Third_Party/Huawei/iot_link/oc/oc_mqtt/oc_mqtt_profile_v5\oc_mqtt_profile_package.c ****     }
 366:D:/fchai/work/i-cube/I-CUBE-HUAWEI/Middlewares/Third_Party/Huawei/iot_link/oc/oc_mqtt/oc_mqtt_profile_v5\oc_mqtt_profile_package.c **** 
 367:D:/fchai/work/i-cube/I-CUBE-HUAWEI/Middlewares/Third_Party/Huawei/iot_link/oc/oc_mqtt/oc_mqtt_profile_v5\oc_mqtt_profile_package.c ****     ///< OK, now we make it to a buffer
 368:D:/fchai/work/i-cube/I-CUBE-HUAWEI/Middlewares/Third_Party/Huawei/iot_link/oc/oc_mqtt/oc_mqtt_profile_v5\oc_mqtt_profile_package.c ****     ret = cJSON_PrintUnformatted(root);
 369:D:/fchai/work/i-cube/I-CUBE-HUAWEI/Middlewares/Third_Party/Huawei/iot_link/oc/oc_mqtt/oc_mqtt_profile_v5\oc_mqtt_profile_package.c ****     cJSON_Delete(root);
 370:D:/fchai/work/i-cube/I-CUBE-HUAWEI/Middlewares/Third_Party/Huawei/iot_link/oc/oc_mqtt/oc_mqtt_profile_v5\oc_mqtt_profile_package.c ****     return ret;
ARM GAS  T:\msys\tmp\cckvbb2E.s 			page 25


 371:D:/fchai/work/i-cube/I-CUBE-HUAWEI/Middlewares/Third_Party/Huawei/iot_link/oc/oc_mqtt/oc_mqtt_profile_v5\oc_mqtt_profile_package.c **** 
 372:D:/fchai/work/i-cube/I-CUBE-HUAWEI/Middlewares/Third_Party/Huawei/iot_link/oc/oc_mqtt/oc_mqtt_profile_v5\oc_mqtt_profile_package.c **** EXIT_MEM:
 373:D:/fchai/work/i-cube/I-CUBE-HUAWEI/Middlewares/Third_Party/Huawei/iot_link/oc/oc_mqtt/oc_mqtt_profile_v5\oc_mqtt_profile_package.c ****     if(NULL != root)
 821              		.loc 1 373 5 is_stmt 1 view .LVU259
 374:D:/fchai/work/i-cube/I-CUBE-HUAWEI/Middlewares/Third_Party/Huawei/iot_link/oc/oc_mqtt/oc_mqtt_profile_v5\oc_mqtt_profile_package.c ****     {
 375:D:/fchai/work/i-cube/I-CUBE-HUAWEI/Middlewares/Third_Party/Huawei/iot_link/oc/oc_mqtt/oc_mqtt_profile_v5\oc_mqtt_profile_package.c ****        cJSON_Delete(root);
 822              		.loc 1 375 8 view .LVU260
 823 0066 3846     		mov	r0, r7
 824 0068 FFF7FEFF 		bl	cJSON_Delete
 825              	.LVL114:
 376:D:/fchai/work/i-cube/I-CUBE-HUAWEI/Middlewares/Third_Party/Huawei/iot_link/oc/oc_mqtt/oc_mqtt_profile_v5\oc_mqtt_profile_package.c ****     }
 377:D:/fchai/work/i-cube/I-CUBE-HUAWEI/Middlewares/Third_Party/Huawei/iot_link/oc/oc_mqtt/oc_mqtt_profile_v5\oc_mqtt_profile_package.c ****     return ret;
 826              		.loc 1 377 12 is_stmt 0 view .LVU261
 827 006c 0027     		movs	r7, #0
 828              	.LVL115:
 829              	.L98:
 378:D:/fchai/work/i-cube/I-CUBE-HUAWEI/Middlewares/Third_Party/Huawei/iot_link/oc/oc_mqtt/oc_mqtt_profile_v5\oc_mqtt_profile_package.c **** }
 830              		.loc 1 378 1 view .LVU262
 831 006e 3846     		mov	r0, r7
 832 0070 BDE8F883 		pop	{r3, r4, r5, r6, r7, r8, r9, pc}
 833              	.LVL116:
 834              	.L101:
 368:D:/fchai/work/i-cube/I-CUBE-HUAWEI/Middlewares/Third_Party/Huawei/iot_link/oc/oc_mqtt/oc_mqtt_profile_v5\oc_mqtt_profile_package.c ****     cJSON_Delete(root);
 835              		.loc 1 368 5 is_stmt 1 view .LVU263
 368:D:/fchai/work/i-cube/I-CUBE-HUAWEI/Middlewares/Third_Party/Huawei/iot_link/oc/oc_mqtt/oc_mqtt_profile_v5\oc_mqtt_profile_package.c ****     cJSON_Delete(root);
 836              		.loc 1 368 11 is_stmt 0 view .LVU264
 837 0074 3846     		mov	r0, r7
 838 0076 FFF7FEFF 		bl	cJSON_PrintUnformatted
 839              	.LVL117:
 840 007a 0446     		mov	r4, r0
 841              	.LVL118:
 369:D:/fchai/work/i-cube/I-CUBE-HUAWEI/Middlewares/Third_Party/Huawei/iot_link/oc/oc_mqtt/oc_mqtt_profile_v5\oc_mqtt_profile_package.c ****     return ret;
 842              		.loc 1 369 5 is_stmt 1 view .LVU265
 843 007c 3846     		mov	r0, r7
 844              	.LVL119:
 370:D:/fchai/work/i-cube/I-CUBE-HUAWEI/Middlewares/Third_Party/Huawei/iot_link/oc/oc_mqtt/oc_mqtt_profile_v5\oc_mqtt_profile_package.c **** 
 845              		.loc 1 370 12 is_stmt 0 view .LVU266
 846 007e 2746     		mov	r7, r4
 847              	.LVL120:
 369:D:/fchai/work/i-cube/I-CUBE-HUAWEI/Middlewares/Third_Party/Huawei/iot_link/oc/oc_mqtt/oc_mqtt_profile_v5\oc_mqtt_profile_package.c ****     return ret;
 848              		.loc 1 369 5 view .LVU267
 849 0080 FFF7FEFF 		bl	cJSON_Delete
 850              	.LVL121:
 370:D:/fchai/work/i-cube/I-CUBE-HUAWEI/Middlewares/Third_Party/Huawei/iot_link/oc/oc_mqtt/oc_mqtt_profile_v5\oc_mqtt_profile_package.c **** 
 851              		.loc 1 370 5 is_stmt 1 view .LVU268
 852              		.loc 1 378 1 is_stmt 0 view .LVU269
 853 0084 3846     		mov	r0, r7
 854 0086 BDE8F883 		pop	{r3, r4, r5, r6, r7, r8, r9, pc}
 855              	.LVL122:
 856              	.L125:
 857              		.loc 1 378 1 view .LVU270
 858 008a 00BF     		.align	2
 859              	.L124:
 860 008c 00000000 		.word	.LC8
 861 0090 08000000 		.word	.LC9
 862 0094 00000000 		.word	.LC7
 863              		.cfi_endproc
ARM GAS  T:\msys\tmp\cckvbb2E.s 			page 26


 864              	.LFE6:
 866              		.section	.rodata.oc_mqtt_profile_package_propertysetresp.str1.4,"aMS",%progbits,1
 867              		.align	2
 868              	.LC10:
 869 0000 72657375 		.ascii	"result_code\000"
 869      6C745F63 
 869      6F646500 
 870              		.align	2
 871              	.LC11:
 872 000c 72657375 		.ascii	"result_desc\000"
 872      6C745F64 
 872      65736300 
 873              		.section	.text.oc_mqtt_profile_package_propertysetresp,"ax",%progbits
 874              		.align	1
 875              		.p2align 2,,3
 876              		.global	oc_mqtt_profile_package_propertysetresp
 877              		.syntax unified
 878              		.thumb
 879              		.thumb_func
 880              		.fpu fpv4-sp-d16
 882              	oc_mqtt_profile_package_propertysetresp:
 883              	.LVL123:
 884              	.LFB7:
 379:D:/fchai/work/i-cube/I-CUBE-HUAWEI/Middlewares/Third_Party/Huawei/iot_link/oc/oc_mqtt/oc_mqtt_profile_v5\oc_mqtt_profile_package.c **** 
 380:D:/fchai/work/i-cube/I-CUBE-HUAWEI/Middlewares/Third_Party/Huawei/iot_link/oc/oc_mqtt/oc_mqtt_profile_v5\oc_mqtt_profile_package.c **** 
 381:D:/fchai/work/i-cube/I-CUBE-HUAWEI/Middlewares/Third_Party/Huawei/iot_link/oc/oc_mqtt/oc_mqtt_profile_v5\oc_mqtt_profile_package.c **** 
 382:D:/fchai/work/i-cube/I-CUBE-HUAWEI/Middlewares/Third_Party/Huawei/iot_link/oc/oc_mqtt/oc_mqtt_profile_v5\oc_mqtt_profile_package.c **** 
 383:D:/fchai/work/i-cube/I-CUBE-HUAWEI/Middlewares/Third_Party/Huawei/iot_link/oc/oc_mqtt/oc_mqtt_profile_v5\oc_mqtt_profile_package.c **** char *oc_mqtt_profile_package_propertysetresp(oc_mqtt_profile_propertysetresp_t *payload)
 384:D:/fchai/work/i-cube/I-CUBE-HUAWEI/Middlewares/Third_Party/Huawei/iot_link/oc/oc_mqtt/oc_mqtt_profile_v5\oc_mqtt_profile_package.c **** {
 885              		.loc 1 384 1 is_stmt 1 view -0
 886              		.cfi_startproc
 887              		@ args = 0, pretend = 0, frame = 0
 888              		@ frame_needed = 0, uses_anonymous_args = 0
 385:D:/fchai/work/i-cube/I-CUBE-HUAWEI/Middlewares/Third_Party/Huawei/iot_link/oc/oc_mqtt/oc_mqtt_profile_v5\oc_mqtt_profile_package.c **** 
 386:D:/fchai/work/i-cube/I-CUBE-HUAWEI/Middlewares/Third_Party/Huawei/iot_link/oc/oc_mqtt/oc_mqtt_profile_v5\oc_mqtt_profile_package.c ****     char *ret = NULL;
 889              		.loc 1 386 5 view .LVU272
 387:D:/fchai/work/i-cube/I-CUBE-HUAWEI/Middlewares/Third_Party/Huawei/iot_link/oc/oc_mqtt/oc_mqtt_profile_v5\oc_mqtt_profile_package.c ****     cJSON *root;
 890              		.loc 1 387 5 view .LVU273
 388:D:/fchai/work/i-cube/I-CUBE-HUAWEI/Middlewares/Third_Party/Huawei/iot_link/oc/oc_mqtt/oc_mqtt_profile_v5\oc_mqtt_profile_package.c ****     cJSON *ret_code;
 891              		.loc 1 388 5 view .LVU274
 389:D:/fchai/work/i-cube/I-CUBE-HUAWEI/Middlewares/Third_Party/Huawei/iot_link/oc/oc_mqtt/oc_mqtt_profile_v5\oc_mqtt_profile_package.c ****     cJSON *ret_desc;
 892              		.loc 1 389 5 view .LVU275
 390:D:/fchai/work/i-cube/I-CUBE-HUAWEI/Middlewares/Third_Party/Huawei/iot_link/oc/oc_mqtt/oc_mqtt_profile_v5\oc_mqtt_profile_package.c **** 
 391:D:/fchai/work/i-cube/I-CUBE-HUAWEI/Middlewares/Third_Party/Huawei/iot_link/oc/oc_mqtt/oc_mqtt_profile_v5\oc_mqtt_profile_package.c ****     ///< create the root node
 392:D:/fchai/work/i-cube/I-CUBE-HUAWEI/Middlewares/Third_Party/Huawei/iot_link/oc/oc_mqtt/oc_mqtt_profile_v5\oc_mqtt_profile_package.c ****     root = cJSON_CreateObject();
 893              		.loc 1 392 5 view .LVU276
 384:D:/fchai/work/i-cube/I-CUBE-HUAWEI/Middlewares/Third_Party/Huawei/iot_link/oc/oc_mqtt/oc_mqtt_profile_v5\oc_mqtt_profile_package.c **** 
 894              		.loc 1 384 1 is_stmt 0 view .LVU277
 895 0000 38B5     		push	{r3, r4, r5, lr}
 896              	.LCFI5:
 897              		.cfi_def_cfa_offset 16
 898              		.cfi_offset 3, -16
 899              		.cfi_offset 4, -12
 900              		.cfi_offset 5, -8
 901              		.cfi_offset 14, -4
 384:D:/fchai/work/i-cube/I-CUBE-HUAWEI/Middlewares/Third_Party/Huawei/iot_link/oc/oc_mqtt/oc_mqtt_profile_v5\oc_mqtt_profile_package.c **** 
 902              		.loc 1 384 1 view .LVU278
ARM GAS  T:\msys\tmp\cckvbb2E.s 			page 27


 903 0002 0546     		mov	r5, r0
 904              		.loc 1 392 12 view .LVU279
 905 0004 FFF7FEFF 		bl	cJSON_CreateObject
 906              	.LVL124:
 393:D:/fchai/work/i-cube/I-CUBE-HUAWEI/Middlewares/Third_Party/Huawei/iot_link/oc/oc_mqtt/oc_mqtt_profile_v5\oc_mqtt_profile_package.c ****     if(NULL == root)
 907              		.loc 1 393 5 is_stmt 1 view .LVU280
 908              		.loc 1 393 7 is_stmt 0 view .LVU281
 909 0008 0446     		mov	r4, r0
 910 000a F8B1     		cbz	r0, .L126
 394:D:/fchai/work/i-cube/I-CUBE-HUAWEI/Middlewares/Third_Party/Huawei/iot_link/oc/oc_mqtt/oc_mqtt_profile_v5\oc_mqtt_profile_package.c ****     {
 395:D:/fchai/work/i-cube/I-CUBE-HUAWEI/Middlewares/Third_Party/Huawei/iot_link/oc/oc_mqtt/oc_mqtt_profile_v5\oc_mqtt_profile_package.c ****        goto EXIT_MEM;
 396:D:/fchai/work/i-cube/I-CUBE-HUAWEI/Middlewares/Third_Party/Huawei/iot_link/oc/oc_mqtt/oc_mqtt_profile_v5\oc_mqtt_profile_package.c ****     }
 397:D:/fchai/work/i-cube/I-CUBE-HUAWEI/Middlewares/Third_Party/Huawei/iot_link/oc/oc_mqtt/oc_mqtt_profile_v5\oc_mqtt_profile_package.c **** 
 398:D:/fchai/work/i-cube/I-CUBE-HUAWEI/Middlewares/Third_Party/Huawei/iot_link/oc/oc_mqtt/oc_mqtt_profile_v5\oc_mqtt_profile_package.c ****     ///< create retcode and retdesc and add it to the root
 399:D:/fchai/work/i-cube/I-CUBE-HUAWEI/Middlewares/Third_Party/Huawei/iot_link/oc/oc_mqtt/oc_mqtt_profile_v5\oc_mqtt_profile_package.c ****     if(NULL != payload)
 911              		.loc 1 399 5 is_stmt 1 view .LVU282
 912              		.loc 1 399 7 is_stmt 0 view .LVU283
 913 000c B5B1     		cbz	r5, .L129
 400:D:/fchai/work/i-cube/I-CUBE-HUAWEI/Middlewares/Third_Party/Huawei/iot_link/oc/oc_mqtt/oc_mqtt_profile_v5\oc_mqtt_profile_package.c ****     {
 401:D:/fchai/work/i-cube/I-CUBE-HUAWEI/Middlewares/Third_Party/Huawei/iot_link/oc/oc_mqtt/oc_mqtt_profile_v5\oc_mqtt_profile_package.c ****         ret_code = cJSON_CreateNumber(payload->ret_code);
 914              		.loc 1 401 9 is_stmt 1 view .LVU284
 915              		.loc 1 401 20 is_stmt 0 view .LVU285
 916 000e 2868     		ldr	r0, [r5]
 917              	.LVL125:
 918              		.loc 1 401 20 view .LVU286
 919 0010 FFF7FEFF 		bl	__aeabi_i2d
 920              	.LVL126:
 921 0014 41EC100B 		vmov	d0, r0, r1
 922 0018 FFF7FEFF 		bl	cJSON_CreateNumber
 923              	.LVL127:
 402:D:/fchai/work/i-cube/I-CUBE-HUAWEI/Middlewares/Third_Party/Huawei/iot_link/oc/oc_mqtt/oc_mqtt_profile_v5\oc_mqtt_profile_package.c ****         if(NULL == ret_code)
 924              		.loc 1 402 9 is_stmt 1 view .LVU287
 925              		.loc 1 402 11 is_stmt 0 view .LVU288
 926 001c 0246     		mov	r2, r0
 927 001e B8B1     		cbz	r0, .L130
 403:D:/fchai/work/i-cube/I-CUBE-HUAWEI/Middlewares/Third_Party/Huawei/iot_link/oc/oc_mqtt/oc_mqtt_profile_v5\oc_mqtt_profile_package.c ****         {
 404:D:/fchai/work/i-cube/I-CUBE-HUAWEI/Middlewares/Third_Party/Huawei/iot_link/oc/oc_mqtt/oc_mqtt_profile_v5\oc_mqtt_profile_package.c ****             goto EXIT_MEM;
 405:D:/fchai/work/i-cube/I-CUBE-HUAWEI/Middlewares/Third_Party/Huawei/iot_link/oc/oc_mqtt/oc_mqtt_profile_v5\oc_mqtt_profile_package.c ****         }
 406:D:/fchai/work/i-cube/I-CUBE-HUAWEI/Middlewares/Third_Party/Huawei/iot_link/oc/oc_mqtt/oc_mqtt_profile_v5\oc_mqtt_profile_package.c ****         cJSON_AddItemToObjectCS(root,CN_OC_JSON_KEY_RESULTCODE,ret_code);
 928              		.loc 1 406 9 is_stmt 1 view .LVU289
 929 0020 2046     		mov	r0, r4
 930              	.LVL128:
 931              		.loc 1 406 9 is_stmt 0 view .LVU290
 932 0022 0E49     		ldr	r1, .L143
 933 0024 FFF7FEFF 		bl	cJSON_AddItemToObjectCS
 934              	.LVL129:
 407:D:/fchai/work/i-cube/I-CUBE-HUAWEI/Middlewares/Third_Party/Huawei/iot_link/oc/oc_mqtt/oc_mqtt_profile_v5\oc_mqtt_profile_package.c **** 
 408:D:/fchai/work/i-cube/I-CUBE-HUAWEI/Middlewares/Third_Party/Huawei/iot_link/oc/oc_mqtt/oc_mqtt_profile_v5\oc_mqtt_profile_package.c ****         if(NULL != payload->ret_description)
 935              		.loc 1 408 9 is_stmt 1 view .LVU291
 936              		.loc 1 408 27 is_stmt 0 view .LVU292
 937 0028 6868     		ldr	r0, [r5, #4]
 938              		.loc 1 408 11 view .LVU293
 939 002a 38B1     		cbz	r0, .L129
 409:D:/fchai/work/i-cube/I-CUBE-HUAWEI/Middlewares/Third_Party/Huawei/iot_link/oc/oc_mqtt/oc_mqtt_profile_v5\oc_mqtt_profile_package.c ****         {
 410:D:/fchai/work/i-cube/I-CUBE-HUAWEI/Middlewares/Third_Party/Huawei/iot_link/oc/oc_mqtt/oc_mqtt_profile_v5\oc_mqtt_profile_package.c ****             ret_desc = cJSON_CreateString(payload->ret_description);
 940              		.loc 1 410 13 is_stmt 1 view .LVU294
 941              		.loc 1 410 24 is_stmt 0 view .LVU295
ARM GAS  T:\msys\tmp\cckvbb2E.s 			page 28


 942 002c FFF7FEFF 		bl	cJSON_CreateString
 943              	.LVL130:
 411:D:/fchai/work/i-cube/I-CUBE-HUAWEI/Middlewares/Third_Party/Huawei/iot_link/oc/oc_mqtt/oc_mqtt_profile_v5\oc_mqtt_profile_package.c ****             if(NULL == ret_desc)
 944              		.loc 1 411 13 is_stmt 1 view .LVU296
 945              		.loc 1 411 15 is_stmt 0 view .LVU297
 946 0030 0246     		mov	r2, r0
 947 0032 68B1     		cbz	r0, .L130
 412:D:/fchai/work/i-cube/I-CUBE-HUAWEI/Middlewares/Third_Party/Huawei/iot_link/oc/oc_mqtt/oc_mqtt_profile_v5\oc_mqtt_profile_package.c ****             {
 413:D:/fchai/work/i-cube/I-CUBE-HUAWEI/Middlewares/Third_Party/Huawei/iot_link/oc/oc_mqtt/oc_mqtt_profile_v5\oc_mqtt_profile_package.c ****                 goto EXIT_MEM;
 414:D:/fchai/work/i-cube/I-CUBE-HUAWEI/Middlewares/Third_Party/Huawei/iot_link/oc/oc_mqtt/oc_mqtt_profile_v5\oc_mqtt_profile_package.c ****             }
 415:D:/fchai/work/i-cube/I-CUBE-HUAWEI/Middlewares/Third_Party/Huawei/iot_link/oc/oc_mqtt/oc_mqtt_profile_v5\oc_mqtt_profile_package.c ****             cJSON_AddItemToObjectCS(root,CN_OC_JSON_KEY_RESULTDESC,ret_desc);
 948              		.loc 1 415 13 is_stmt 1 view .LVU298
 949 0034 0A49     		ldr	r1, .L143+4
 950 0036 2046     		mov	r0, r4
 951              	.LVL131:
 952              		.loc 1 415 13 is_stmt 0 view .LVU299
 953 0038 FFF7FEFF 		bl	cJSON_AddItemToObjectCS
 954              	.LVL132:
 955              	.L129:
 416:D:/fchai/work/i-cube/I-CUBE-HUAWEI/Middlewares/Third_Party/Huawei/iot_link/oc/oc_mqtt/oc_mqtt_profile_v5\oc_mqtt_profile_package.c ****         }
 417:D:/fchai/work/i-cube/I-CUBE-HUAWEI/Middlewares/Third_Party/Huawei/iot_link/oc/oc_mqtt/oc_mqtt_profile_v5\oc_mqtt_profile_package.c **** 
 418:D:/fchai/work/i-cube/I-CUBE-HUAWEI/Middlewares/Third_Party/Huawei/iot_link/oc/oc_mqtt/oc_mqtt_profile_v5\oc_mqtt_profile_package.c ****     }
 419:D:/fchai/work/i-cube/I-CUBE-HUAWEI/Middlewares/Third_Party/Huawei/iot_link/oc/oc_mqtt/oc_mqtt_profile_v5\oc_mqtt_profile_package.c ****     ///< OK, now we make it to a buffer
 420:D:/fchai/work/i-cube/I-CUBE-HUAWEI/Middlewares/Third_Party/Huawei/iot_link/oc/oc_mqtt/oc_mqtt_profile_v5\oc_mqtt_profile_package.c ****     ret = cJSON_PrintUnformatted(root);
 956              		.loc 1 420 5 is_stmt 1 view .LVU300
 957              		.loc 1 420 11 is_stmt 0 view .LVU301
 958 003c 2046     		mov	r0, r4
 959 003e FFF7FEFF 		bl	cJSON_PrintUnformatted
 960              	.LVL133:
 961 0042 0346     		mov	r3, r0
 421:D:/fchai/work/i-cube/I-CUBE-HUAWEI/Middlewares/Third_Party/Huawei/iot_link/oc/oc_mqtt/oc_mqtt_profile_v5\oc_mqtt_profile_package.c ****     cJSON_Delete(root);
 962              		.loc 1 421 5 view .LVU302
 963 0044 2046     		mov	r0, r4
 420:D:/fchai/work/i-cube/I-CUBE-HUAWEI/Middlewares/Third_Party/Huawei/iot_link/oc/oc_mqtt/oc_mqtt_profile_v5\oc_mqtt_profile_package.c ****     cJSON_Delete(root);
 964              		.loc 1 420 11 view .LVU303
 965 0046 1C46     		mov	r4, r3
 966              	.LVL134:
 967              		.loc 1 421 5 is_stmt 1 view .LVU304
 968 0048 FFF7FEFF 		bl	cJSON_Delete
 969              	.LVL135:
 422:D:/fchai/work/i-cube/I-CUBE-HUAWEI/Middlewares/Third_Party/Huawei/iot_link/oc/oc_mqtt/oc_mqtt_profile_v5\oc_mqtt_profile_package.c ****     return ret;
 970              		.loc 1 422 5 view .LVU305
 971              	.L126:
 423:D:/fchai/work/i-cube/I-CUBE-HUAWEI/Middlewares/Third_Party/Huawei/iot_link/oc/oc_mqtt/oc_mqtt_profile_v5\oc_mqtt_profile_package.c **** 
 424:D:/fchai/work/i-cube/I-CUBE-HUAWEI/Middlewares/Third_Party/Huawei/iot_link/oc/oc_mqtt/oc_mqtt_profile_v5\oc_mqtt_profile_package.c **** EXIT_MEM:
 425:D:/fchai/work/i-cube/I-CUBE-HUAWEI/Middlewares/Third_Party/Huawei/iot_link/oc/oc_mqtt/oc_mqtt_profile_v5\oc_mqtt_profile_package.c ****     if(NULL != root)
 426:D:/fchai/work/i-cube/I-CUBE-HUAWEI/Middlewares/Third_Party/Huawei/iot_link/oc/oc_mqtt/oc_mqtt_profile_v5\oc_mqtt_profile_package.c ****     {
 427:D:/fchai/work/i-cube/I-CUBE-HUAWEI/Middlewares/Third_Party/Huawei/iot_link/oc/oc_mqtt/oc_mqtt_profile_v5\oc_mqtt_profile_package.c ****        cJSON_Delete(root);
 428:D:/fchai/work/i-cube/I-CUBE-HUAWEI/Middlewares/Third_Party/Huawei/iot_link/oc/oc_mqtt/oc_mqtt_profile_v5\oc_mqtt_profile_package.c ****     }
 429:D:/fchai/work/i-cube/I-CUBE-HUAWEI/Middlewares/Third_Party/Huawei/iot_link/oc/oc_mqtt/oc_mqtt_profile_v5\oc_mqtt_profile_package.c ****     return ret;
 430:D:/fchai/work/i-cube/I-CUBE-HUAWEI/Middlewares/Third_Party/Huawei/iot_link/oc/oc_mqtt/oc_mqtt_profile_v5\oc_mqtt_profile_package.c **** 
 431:D:/fchai/work/i-cube/I-CUBE-HUAWEI/Middlewares/Third_Party/Huawei/iot_link/oc/oc_mqtt/oc_mqtt_profile_v5\oc_mqtt_profile_package.c **** }
 972              		.loc 1 431 1 is_stmt 0 view .LVU306
 973 004c 2046     		mov	r0, r4
 974 004e 38BD     		pop	{r3, r4, r5, pc}
 975              	.LVL136:
 976              	.L130:
ARM GAS  T:\msys\tmp\cckvbb2E.s 			page 29


 425:D:/fchai/work/i-cube/I-CUBE-HUAWEI/Middlewares/Third_Party/Huawei/iot_link/oc/oc_mqtt/oc_mqtt_profile_v5\oc_mqtt_profile_package.c ****     {
 977              		.loc 1 425 5 is_stmt 1 view .LVU307
 427:D:/fchai/work/i-cube/I-CUBE-HUAWEI/Middlewares/Third_Party/Huawei/iot_link/oc/oc_mqtt/oc_mqtt_profile_v5\oc_mqtt_profile_package.c ****     }
 978              		.loc 1 427 8 view .LVU308
 979 0050 2046     		mov	r0, r4
 429:D:/fchai/work/i-cube/I-CUBE-HUAWEI/Middlewares/Third_Party/Huawei/iot_link/oc/oc_mqtt/oc_mqtt_profile_v5\oc_mqtt_profile_package.c **** 
 980              		.loc 1 429 12 is_stmt 0 view .LVU309
 981 0052 0024     		movs	r4, #0
 982              	.LVL137:
 427:D:/fchai/work/i-cube/I-CUBE-HUAWEI/Middlewares/Third_Party/Huawei/iot_link/oc/oc_mqtt/oc_mqtt_profile_v5\oc_mqtt_profile_package.c ****     }
 983              		.loc 1 427 8 view .LVU310
 984 0054 FFF7FEFF 		bl	cJSON_Delete
 985              	.LVL138:
 986              		.loc 1 431 1 view .LVU311
 987 0058 2046     		mov	r0, r4
 988 005a 38BD     		pop	{r3, r4, r5, pc}
 989              	.LVL139:
 990              	.L144:
 991              		.loc 1 431 1 view .LVU312
 992              		.align	2
 993              	.L143:
 994 005c 00000000 		.word	.LC10
 995 0060 0C000000 		.word	.LC11
 996              		.cfi_endproc
 997              	.LFE7:
 999              		.section	.text.oc_mqtt_profile_package_propertygetresp,"ax",%progbits
 1000              		.align	1
 1001              		.p2align 2,,3
 1002              		.global	oc_mqtt_profile_package_propertygetresp
 1003              		.syntax unified
 1004              		.thumb
 1005              		.thumb_func
 1006              		.fpu fpv4-sp-d16
 1008              	oc_mqtt_profile_package_propertygetresp:
 1009              	.LVL140:
 1010              	.LFB8:
 432:D:/fchai/work/i-cube/I-CUBE-HUAWEI/Middlewares/Third_Party/Huawei/iot_link/oc/oc_mqtt/oc_mqtt_profile_v5\oc_mqtt_profile_package.c **** 
 433:D:/fchai/work/i-cube/I-CUBE-HUAWEI/Middlewares/Third_Party/Huawei/iot_link/oc/oc_mqtt/oc_mqtt_profile_v5\oc_mqtt_profile_package.c **** char *oc_mqtt_profile_package_propertygetresp(oc_mqtt_profile_propertygetresp_t *payload)
 434:D:/fchai/work/i-cube/I-CUBE-HUAWEI/Middlewares/Third_Party/Huawei/iot_link/oc/oc_mqtt/oc_mqtt_profile_v5\oc_mqtt_profile_package.c **** {
 1011              		.loc 1 434 1 is_stmt 1 view -0
 1012              		.cfi_startproc
 1013              		@ args = 0, pretend = 0, frame = 0
 1014              		@ frame_needed = 0, uses_anonymous_args = 0
 435:D:/fchai/work/i-cube/I-CUBE-HUAWEI/Middlewares/Third_Party/Huawei/iot_link/oc/oc_mqtt/oc_mqtt_profile_v5\oc_mqtt_profile_package.c **** 
 436:D:/fchai/work/i-cube/I-CUBE-HUAWEI/Middlewares/Third_Party/Huawei/iot_link/oc/oc_mqtt/oc_mqtt_profile_v5\oc_mqtt_profile_package.c ****     char *ret = NULL;
 1015              		.loc 1 436 5 view .LVU314
 437:D:/fchai/work/i-cube/I-CUBE-HUAWEI/Middlewares/Third_Party/Huawei/iot_link/oc/oc_mqtt/oc_mqtt_profile_v5\oc_mqtt_profile_package.c ****     cJSON *root;
 1016              		.loc 1 437 5 view .LVU315
 438:D:/fchai/work/i-cube/I-CUBE-HUAWEI/Middlewares/Third_Party/Huawei/iot_link/oc/oc_mqtt/oc_mqtt_profile_v5\oc_mqtt_profile_package.c ****     cJSON *services;
 1017              		.loc 1 438 5 view .LVU316
 439:D:/fchai/work/i-cube/I-CUBE-HUAWEI/Middlewares/Third_Party/Huawei/iot_link/oc/oc_mqtt/oc_mqtt_profile_v5\oc_mqtt_profile_package.c **** 
 440:D:/fchai/work/i-cube/I-CUBE-HUAWEI/Middlewares/Third_Party/Huawei/iot_link/oc/oc_mqtt/oc_mqtt_profile_v5\oc_mqtt_profile_package.c ****     ///< create the root node
 441:D:/fchai/work/i-cube/I-CUBE-HUAWEI/Middlewares/Third_Party/Huawei/iot_link/oc/oc_mqtt/oc_mqtt_profile_v5\oc_mqtt_profile_package.c ****     root = cJSON_CreateObject();
 1018              		.loc 1 441 5 view .LVU317
 434:D:/fchai/work/i-cube/I-CUBE-HUAWEI/Middlewares/Third_Party/Huawei/iot_link/oc/oc_mqtt/oc_mqtt_profile_v5\oc_mqtt_profile_package.c **** 
 1019              		.loc 1 434 1 is_stmt 0 view .LVU318
 1020 0000 38B5     		push	{r3, r4, r5, lr}
ARM GAS  T:\msys\tmp\cckvbb2E.s 			page 30


 1021              	.LCFI6:
 1022              		.cfi_def_cfa_offset 16
 1023              		.cfi_offset 3, -16
 1024              		.cfi_offset 4, -12
 1025              		.cfi_offset 5, -8
 1026              		.cfi_offset 14, -4
 434:D:/fchai/work/i-cube/I-CUBE-HUAWEI/Middlewares/Third_Party/Huawei/iot_link/oc/oc_mqtt/oc_mqtt_profile_v5\oc_mqtt_profile_package.c **** 
 1027              		.loc 1 434 1 view .LVU319
 1028 0002 0546     		mov	r5, r0
 1029              		.loc 1 441 12 view .LVU320
 1030 0004 FFF7FEFF 		bl	cJSON_CreateObject
 1031              	.LVL141:
 442:D:/fchai/work/i-cube/I-CUBE-HUAWEI/Middlewares/Third_Party/Huawei/iot_link/oc/oc_mqtt/oc_mqtt_profile_v5\oc_mqtt_profile_package.c ****     if(NULL == root)
 1032              		.loc 1 442 5 is_stmt 1 view .LVU321
 1033              		.loc 1 442 7 is_stmt 0 view .LVU322
 1034 0008 0446     		mov	r4, r0
 1035 000a 88B1     		cbz	r0, .L145
 443:D:/fchai/work/i-cube/I-CUBE-HUAWEI/Middlewares/Third_Party/Huawei/iot_link/oc/oc_mqtt/oc_mqtt_profile_v5\oc_mqtt_profile_package.c ****     {
 444:D:/fchai/work/i-cube/I-CUBE-HUAWEI/Middlewares/Third_Party/Huawei/iot_link/oc/oc_mqtt/oc_mqtt_profile_v5\oc_mqtt_profile_package.c ****        goto EXIT_MEM;
 445:D:/fchai/work/i-cube/I-CUBE-HUAWEI/Middlewares/Third_Party/Huawei/iot_link/oc/oc_mqtt/oc_mqtt_profile_v5\oc_mqtt_profile_package.c ****     }
 446:D:/fchai/work/i-cube/I-CUBE-HUAWEI/Middlewares/Third_Party/Huawei/iot_link/oc/oc_mqtt/oc_mqtt_profile_v5\oc_mqtt_profile_package.c **** 
 447:D:/fchai/work/i-cube/I-CUBE-HUAWEI/Middlewares/Third_Party/Huawei/iot_link/oc/oc_mqtt/oc_mqtt_profile_v5\oc_mqtt_profile_package.c ****     ///< create the services array node to the root
 448:D:/fchai/work/i-cube/I-CUBE-HUAWEI/Middlewares/Third_Party/Huawei/iot_link/oc/oc_mqtt/oc_mqtt_profile_v5\oc_mqtt_profile_package.c ****     services = JsonCreateServices(payload->services);
 1036              		.loc 1 448 5 is_stmt 1 view .LVU323
 1037              		.loc 1 448 16 is_stmt 0 view .LVU324
 1038 000c 6868     		ldr	r0, [r5, #4]
 1039              	.LVL142:
 1040              		.loc 1 448 16 view .LVU325
 1041 000e FFF7FEFF 		bl	JsonCreateServices
 1042              	.LVL143:
 449:D:/fchai/work/i-cube/I-CUBE-HUAWEI/Middlewares/Third_Party/Huawei/iot_link/oc/oc_mqtt/oc_mqtt_profile_v5\oc_mqtt_profile_package.c ****     if(NULL == services)
 1043              		.loc 1 449 5 is_stmt 1 view .LVU326
 1044              		.loc 1 449 7 is_stmt 0 view .LVU327
 1045 0012 0546     		mov	r5, r0
 1046              	.LVL144:
 1047              		.loc 1 449 7 view .LVU328
 1048 0014 70B1     		cbz	r0, .L147
 450:D:/fchai/work/i-cube/I-CUBE-HUAWEI/Middlewares/Third_Party/Huawei/iot_link/oc/oc_mqtt/oc_mqtt_profile_v5\oc_mqtt_profile_package.c ****     {
 451:D:/fchai/work/i-cube/I-CUBE-HUAWEI/Middlewares/Third_Party/Huawei/iot_link/oc/oc_mqtt/oc_mqtt_profile_v5\oc_mqtt_profile_package.c ****         goto EXIT_MEM;
 452:D:/fchai/work/i-cube/I-CUBE-HUAWEI/Middlewares/Third_Party/Huawei/iot_link/oc/oc_mqtt/oc_mqtt_profile_v5\oc_mqtt_profile_package.c ****     }
 453:D:/fchai/work/i-cube/I-CUBE-HUAWEI/Middlewares/Third_Party/Huawei/iot_link/oc/oc_mqtt/oc_mqtt_profile_v5\oc_mqtt_profile_package.c ****     cJSON_AddItemToObjectCS(root,CN_OC_JSON_KEY_SERVICES,services);
 1049              		.loc 1 453 5 is_stmt 1 view .LVU329
 1050 0016 0246     		mov	r2, r0
 1051 0018 0949     		ldr	r1, .L152
 1052 001a 2046     		mov	r0, r4
 1053              	.LVL145:
 1054              		.loc 1 453 5 is_stmt 0 view .LVU330
 1055 001c FFF7FEFF 		bl	cJSON_AddItemToObjectCS
 1056              	.LVL146:
 454:D:/fchai/work/i-cube/I-CUBE-HUAWEI/Middlewares/Third_Party/Huawei/iot_link/oc/oc_mqtt/oc_mqtt_profile_v5\oc_mqtt_profile_package.c **** 
 455:D:/fchai/work/i-cube/I-CUBE-HUAWEI/Middlewares/Third_Party/Huawei/iot_link/oc/oc_mqtt/oc_mqtt_profile_v5\oc_mqtt_profile_package.c ****     ///< OK, now we make it to a buffer
 456:D:/fchai/work/i-cube/I-CUBE-HUAWEI/Middlewares/Third_Party/Huawei/iot_link/oc/oc_mqtt/oc_mqtt_profile_v5\oc_mqtt_profile_package.c ****     ret = cJSON_PrintUnformatted(root);
 1057              		.loc 1 456 5 is_stmt 1 view .LVU331
 1058              		.loc 1 456 11 is_stmt 0 view .LVU332
 1059 0020 2046     		mov	r0, r4
 1060 0022 FFF7FEFF 		bl	cJSON_PrintUnformatted
 1061              	.LVL147:
ARM GAS  T:\msys\tmp\cckvbb2E.s 			page 31


 1062 0026 0546     		mov	r5, r0
 1063              	.LVL148:
 457:D:/fchai/work/i-cube/I-CUBE-HUAWEI/Middlewares/Third_Party/Huawei/iot_link/oc/oc_mqtt/oc_mqtt_profile_v5\oc_mqtt_profile_package.c ****     cJSON_Delete(root);
 1064              		.loc 1 457 5 is_stmt 1 view .LVU333
 1065 0028 2046     		mov	r0, r4
 1066              	.LVL149:
 1067              		.loc 1 457 5 is_stmt 0 view .LVU334
 1068 002a FFF7FEFF 		bl	cJSON_Delete
 1069              	.LVL150:
 458:D:/fchai/work/i-cube/I-CUBE-HUAWEI/Middlewares/Third_Party/Huawei/iot_link/oc/oc_mqtt/oc_mqtt_profile_v5\oc_mqtt_profile_package.c ****     return ret;
 1070              		.loc 1 458 5 is_stmt 1 view .LVU335
 1071              		.loc 1 458 12 is_stmt 0 view .LVU336
 1072 002e 2C46     		mov	r4, r5
 1073              	.LVL151:
 1074              	.L145:
 459:D:/fchai/work/i-cube/I-CUBE-HUAWEI/Middlewares/Third_Party/Huawei/iot_link/oc/oc_mqtt/oc_mqtt_profile_v5\oc_mqtt_profile_package.c **** 
 460:D:/fchai/work/i-cube/I-CUBE-HUAWEI/Middlewares/Third_Party/Huawei/iot_link/oc/oc_mqtt/oc_mqtt_profile_v5\oc_mqtt_profile_package.c **** EXIT_MEM:
 461:D:/fchai/work/i-cube/I-CUBE-HUAWEI/Middlewares/Third_Party/Huawei/iot_link/oc/oc_mqtt/oc_mqtt_profile_v5\oc_mqtt_profile_package.c ****     if(NULL != root)
 462:D:/fchai/work/i-cube/I-CUBE-HUAWEI/Middlewares/Third_Party/Huawei/iot_link/oc/oc_mqtt/oc_mqtt_profile_v5\oc_mqtt_profile_package.c ****     {
 463:D:/fchai/work/i-cube/I-CUBE-HUAWEI/Middlewares/Third_Party/Huawei/iot_link/oc/oc_mqtt/oc_mqtt_profile_v5\oc_mqtt_profile_package.c ****        cJSON_Delete(root);
 464:D:/fchai/work/i-cube/I-CUBE-HUAWEI/Middlewares/Third_Party/Huawei/iot_link/oc/oc_mqtt/oc_mqtt_profile_v5\oc_mqtt_profile_package.c ****     }
 465:D:/fchai/work/i-cube/I-CUBE-HUAWEI/Middlewares/Third_Party/Huawei/iot_link/oc/oc_mqtt/oc_mqtt_profile_v5\oc_mqtt_profile_package.c ****     return ret;
 466:D:/fchai/work/i-cube/I-CUBE-HUAWEI/Middlewares/Third_Party/Huawei/iot_link/oc/oc_mqtt/oc_mqtt_profile_v5\oc_mqtt_profile_package.c **** 
 467:D:/fchai/work/i-cube/I-CUBE-HUAWEI/Middlewares/Third_Party/Huawei/iot_link/oc/oc_mqtt/oc_mqtt_profile_v5\oc_mqtt_profile_package.c **** }
 1075              		.loc 1 467 1 view .LVU337
 1076 0030 2046     		mov	r0, r4
 1077 0032 38BD     		pop	{r3, r4, r5, pc}
 1078              	.LVL152:
 1079              	.L147:
 461:D:/fchai/work/i-cube/I-CUBE-HUAWEI/Middlewares/Third_Party/Huawei/iot_link/oc/oc_mqtt/oc_mqtt_profile_v5\oc_mqtt_profile_package.c ****     {
 1080              		.loc 1 461 5 is_stmt 1 view .LVU338
 463:D:/fchai/work/i-cube/I-CUBE-HUAWEI/Middlewares/Third_Party/Huawei/iot_link/oc/oc_mqtt/oc_mqtt_profile_v5\oc_mqtt_profile_package.c ****     }
 1081              		.loc 1 463 8 view .LVU339
 1082 0034 2046     		mov	r0, r4
 1083              	.LVL153:
 465:D:/fchai/work/i-cube/I-CUBE-HUAWEI/Middlewares/Third_Party/Huawei/iot_link/oc/oc_mqtt/oc_mqtt_profile_v5\oc_mqtt_profile_package.c **** 
 1084              		.loc 1 465 12 is_stmt 0 view .LVU340
 1085 0036 2C46     		mov	r4, r5
 1086              	.LVL154:
 463:D:/fchai/work/i-cube/I-CUBE-HUAWEI/Middlewares/Third_Party/Huawei/iot_link/oc/oc_mqtt/oc_mqtt_profile_v5\oc_mqtt_profile_package.c ****     }
 1087              		.loc 1 463 8 view .LVU341
 1088 0038 FFF7FEFF 		bl	cJSON_Delete
 1089              	.LVL155:
 1090              		.loc 1 467 1 view .LVU342
 1091 003c 2046     		mov	r0, r4
 1092 003e 38BD     		pop	{r3, r4, r5, pc}
 1093              	.LVL156:
 1094              	.L153:
 1095              		.loc 1 467 1 view .LVU343
 1096              		.align	2
 1097              	.L152:
 1098 0040 00000000 		.word	.LC7
 1099              		.cfi_endproc
 1100              	.LFE8:
 1102              		.section	.rodata.oc_mqtt_profile_package_cmdresp.str1.4,"aMS",%progbits,1
 1103              		.align	2
 1104              	.LC12:
ARM GAS  T:\msys\tmp\cckvbb2E.s 			page 32


 1105 0000 70617261 		.ascii	"paras\000"
 1105      7300
 1106              		.section	.text.oc_mqtt_profile_package_cmdresp,"ax",%progbits
 1107              		.align	1
 1108              		.p2align 2,,3
 1109              		.global	oc_mqtt_profile_package_cmdresp
 1110              		.syntax unified
 1111              		.thumb
 1112              		.thumb_func
 1113              		.fpu fpv4-sp-d16
 1115              	oc_mqtt_profile_package_cmdresp:
 1116              	.LVL157:
 1117              	.LFB9:
 468:D:/fchai/work/i-cube/I-CUBE-HUAWEI/Middlewares/Third_Party/Huawei/iot_link/oc/oc_mqtt/oc_mqtt_profile_v5\oc_mqtt_profile_package.c **** 
 469:D:/fchai/work/i-cube/I-CUBE-HUAWEI/Middlewares/Third_Party/Huawei/iot_link/oc/oc_mqtt/oc_mqtt_profile_v5\oc_mqtt_profile_package.c **** 
 470:D:/fchai/work/i-cube/I-CUBE-HUAWEI/Middlewares/Third_Party/Huawei/iot_link/oc/oc_mqtt/oc_mqtt_profile_v5\oc_mqtt_profile_package.c **** char *oc_mqtt_profile_package_cmdresp(oc_mqtt_profile_cmdresp_t *payload)
 471:D:/fchai/work/i-cube/I-CUBE-HUAWEI/Middlewares/Third_Party/Huawei/iot_link/oc/oc_mqtt/oc_mqtt_profile_v5\oc_mqtt_profile_package.c **** {
 1118              		.loc 1 471 1 is_stmt 1 view -0
 1119              		.cfi_startproc
 1120              		@ args = 0, pretend = 0, frame = 0
 1121              		@ frame_needed = 0, uses_anonymous_args = 0
 472:D:/fchai/work/i-cube/I-CUBE-HUAWEI/Middlewares/Third_Party/Huawei/iot_link/oc/oc_mqtt/oc_mqtt_profile_v5\oc_mqtt_profile_package.c ****     char *ret = NULL;
 1122              		.loc 1 472 5 view .LVU345
 473:D:/fchai/work/i-cube/I-CUBE-HUAWEI/Middlewares/Third_Party/Huawei/iot_link/oc/oc_mqtt/oc_mqtt_profile_v5\oc_mqtt_profile_package.c ****     cJSON *root;
 1123              		.loc 1 473 5 view .LVU346
 474:D:/fchai/work/i-cube/I-CUBE-HUAWEI/Middlewares/Third_Party/Huawei/iot_link/oc/oc_mqtt/oc_mqtt_profile_v5\oc_mqtt_profile_package.c ****     cJSON *ret_code;
 1124              		.loc 1 474 5 view .LVU347
 475:D:/fchai/work/i-cube/I-CUBE-HUAWEI/Middlewares/Third_Party/Huawei/iot_link/oc/oc_mqtt/oc_mqtt_profile_v5\oc_mqtt_profile_package.c ****     cJSON *ret_name;
 1125              		.loc 1 475 5 view .LVU348
 476:D:/fchai/work/i-cube/I-CUBE-HUAWEI/Middlewares/Third_Party/Huawei/iot_link/oc/oc_mqtt/oc_mqtt_profile_v5\oc_mqtt_profile_package.c ****     cJSON *paras;
 1126              		.loc 1 476 5 view .LVU349
 477:D:/fchai/work/i-cube/I-CUBE-HUAWEI/Middlewares/Third_Party/Huawei/iot_link/oc/oc_mqtt/oc_mqtt_profile_v5\oc_mqtt_profile_package.c **** 
 478:D:/fchai/work/i-cube/I-CUBE-HUAWEI/Middlewares/Third_Party/Huawei/iot_link/oc/oc_mqtt/oc_mqtt_profile_v5\oc_mqtt_profile_package.c **** 
 479:D:/fchai/work/i-cube/I-CUBE-HUAWEI/Middlewares/Third_Party/Huawei/iot_link/oc/oc_mqtt/oc_mqtt_profile_v5\oc_mqtt_profile_package.c ****     ///< create the root node
 480:D:/fchai/work/i-cube/I-CUBE-HUAWEI/Middlewares/Third_Party/Huawei/iot_link/oc/oc_mqtt/oc_mqtt_profile_v5\oc_mqtt_profile_package.c ****     root = cJSON_CreateObject();
 1127              		.loc 1 480 5 view .LVU350
 471:D:/fchai/work/i-cube/I-CUBE-HUAWEI/Middlewares/Third_Party/Huawei/iot_link/oc/oc_mqtt/oc_mqtt_profile_v5\oc_mqtt_profile_package.c ****     char *ret = NULL;
 1128              		.loc 1 471 1 is_stmt 0 view .LVU351
 1129 0000 38B5     		push	{r3, r4, r5, lr}
 1130              	.LCFI7:
 1131              		.cfi_def_cfa_offset 16
 1132              		.cfi_offset 3, -16
 1133              		.cfi_offset 4, -12
 1134              		.cfi_offset 5, -8
 1135              		.cfi_offset 14, -4
 471:D:/fchai/work/i-cube/I-CUBE-HUAWEI/Middlewares/Third_Party/Huawei/iot_link/oc/oc_mqtt/oc_mqtt_profile_v5\oc_mqtt_profile_package.c ****     char *ret = NULL;
 1136              		.loc 1 471 1 view .LVU352
 1137 0002 0546     		mov	r5, r0
 1138              		.loc 1 480 12 view .LVU353
 1139 0004 FFF7FEFF 		bl	cJSON_CreateObject
 1140              	.LVL158:
 481:D:/fchai/work/i-cube/I-CUBE-HUAWEI/Middlewares/Third_Party/Huawei/iot_link/oc/oc_mqtt/oc_mqtt_profile_v5\oc_mqtt_profile_package.c ****     if(NULL == root)
 1141              		.loc 1 481 5 is_stmt 1 view .LVU354
 1142              		.loc 1 481 7 is_stmt 0 view .LVU355
 1143 0008 0446     		mov	r4, r0
 1144 000a 40B3     		cbz	r0, .L154
 482:D:/fchai/work/i-cube/I-CUBE-HUAWEI/Middlewares/Third_Party/Huawei/iot_link/oc/oc_mqtt/oc_mqtt_profile_v5\oc_mqtt_profile_package.c ****     {
ARM GAS  T:\msys\tmp\cckvbb2E.s 			page 33


 483:D:/fchai/work/i-cube/I-CUBE-HUAWEI/Middlewares/Third_Party/Huawei/iot_link/oc/oc_mqtt/oc_mqtt_profile_v5\oc_mqtt_profile_package.c ****        goto EXIT_MEM;
 484:D:/fchai/work/i-cube/I-CUBE-HUAWEI/Middlewares/Third_Party/Huawei/iot_link/oc/oc_mqtt/oc_mqtt_profile_v5\oc_mqtt_profile_package.c ****     }
 485:D:/fchai/work/i-cube/I-CUBE-HUAWEI/Middlewares/Third_Party/Huawei/iot_link/oc/oc_mqtt/oc_mqtt_profile_v5\oc_mqtt_profile_package.c **** 
 486:D:/fchai/work/i-cube/I-CUBE-HUAWEI/Middlewares/Third_Party/Huawei/iot_link/oc/oc_mqtt/oc_mqtt_profile_v5\oc_mqtt_profile_package.c ****     ///< create retcode and retdesc and add it to the root
 487:D:/fchai/work/i-cube/I-CUBE-HUAWEI/Middlewares/Third_Party/Huawei/iot_link/oc/oc_mqtt/oc_mqtt_profile_v5\oc_mqtt_profile_package.c ****     ret_code = cJSON_CreateNumber(payload->ret_code);
 1145              		.loc 1 487 5 is_stmt 1 view .LVU356
 1146              		.loc 1 487 16 is_stmt 0 view .LVU357
 1147 000c 2868     		ldr	r0, [r5]
 1148              	.LVL159:
 1149              		.loc 1 487 16 view .LVU358
 1150 000e FFF7FEFF 		bl	__aeabi_i2d
 1151              	.LVL160:
 1152 0012 41EC100B 		vmov	d0, r0, r1
 1153 0016 FFF7FEFF 		bl	cJSON_CreateNumber
 1154              	.LVL161:
 488:D:/fchai/work/i-cube/I-CUBE-HUAWEI/Middlewares/Third_Party/Huawei/iot_link/oc/oc_mqtt/oc_mqtt_profile_v5\oc_mqtt_profile_package.c ****     if(NULL == ret_code)
 1155              		.loc 1 488 5 is_stmt 1 view .LVU359
 1156              		.loc 1 488 7 is_stmt 0 view .LVU360
 1157 001a 0246     		mov	r2, r0
 1158 001c 08B3     		cbz	r0, .L156
 489:D:/fchai/work/i-cube/I-CUBE-HUAWEI/Middlewares/Third_Party/Huawei/iot_link/oc/oc_mqtt/oc_mqtt_profile_v5\oc_mqtt_profile_package.c ****     {
 490:D:/fchai/work/i-cube/I-CUBE-HUAWEI/Middlewares/Third_Party/Huawei/iot_link/oc/oc_mqtt/oc_mqtt_profile_v5\oc_mqtt_profile_package.c ****         goto EXIT_MEM;
 491:D:/fchai/work/i-cube/I-CUBE-HUAWEI/Middlewares/Third_Party/Huawei/iot_link/oc/oc_mqtt/oc_mqtt_profile_v5\oc_mqtt_profile_package.c ****     }
 492:D:/fchai/work/i-cube/I-CUBE-HUAWEI/Middlewares/Third_Party/Huawei/iot_link/oc/oc_mqtt/oc_mqtt_profile_v5\oc_mqtt_profile_package.c ****     cJSON_AddItemToObjectCS(root,CN_OC_JSON_KEY_RESULTCODE,ret_code);
 1159              		.loc 1 492 5 is_stmt 1 view .LVU361
 1160 001e 2046     		mov	r0, r4
 1161              	.LVL162:
 1162              		.loc 1 492 5 is_stmt 0 view .LVU362
 1163 0020 1349     		ldr	r1, .L178
 1164 0022 FFF7FEFF 		bl	cJSON_AddItemToObjectCS
 1165              	.LVL163:
 493:D:/fchai/work/i-cube/I-CUBE-HUAWEI/Middlewares/Third_Party/Huawei/iot_link/oc/oc_mqtt/oc_mqtt_profile_v5\oc_mqtt_profile_package.c **** 
 494:D:/fchai/work/i-cube/I-CUBE-HUAWEI/Middlewares/Third_Party/Huawei/iot_link/oc/oc_mqtt/oc_mqtt_profile_v5\oc_mqtt_profile_package.c ****     if(NULL != payload->ret_name)
 1166              		.loc 1 494 5 is_stmt 1 view .LVU363
 1167              		.loc 1 494 23 is_stmt 0 view .LVU364
 1168 0026 6868     		ldr	r0, [r5, #4]
 1169              		.loc 1 494 7 view .LVU365
 1170 0028 38B1     		cbz	r0, .L157
 495:D:/fchai/work/i-cube/I-CUBE-HUAWEI/Middlewares/Third_Party/Huawei/iot_link/oc/oc_mqtt/oc_mqtt_profile_v5\oc_mqtt_profile_package.c ****     {
 496:D:/fchai/work/i-cube/I-CUBE-HUAWEI/Middlewares/Third_Party/Huawei/iot_link/oc/oc_mqtt/oc_mqtt_profile_v5\oc_mqtt_profile_package.c ****         ret_name = cJSON_CreateString(payload->ret_name);
 1171              		.loc 1 496 9 is_stmt 1 view .LVU366
 1172              		.loc 1 496 20 is_stmt 0 view .LVU367
 1173 002a FFF7FEFF 		bl	cJSON_CreateString
 1174              	.LVL164:
 497:D:/fchai/work/i-cube/I-CUBE-HUAWEI/Middlewares/Third_Party/Huawei/iot_link/oc/oc_mqtt/oc_mqtt_profile_v5\oc_mqtt_profile_package.c ****         if(NULL == ret_name)
 1175              		.loc 1 497 9 is_stmt 1 view .LVU368
 1176              		.loc 1 497 11 is_stmt 0 view .LVU369
 1177 002e 0246     		mov	r2, r0
 1178 0030 B8B1     		cbz	r0, .L156
 498:D:/fchai/work/i-cube/I-CUBE-HUAWEI/Middlewares/Third_Party/Huawei/iot_link/oc/oc_mqtt/oc_mqtt_profile_v5\oc_mqtt_profile_package.c ****         {
 499:D:/fchai/work/i-cube/I-CUBE-HUAWEI/Middlewares/Third_Party/Huawei/iot_link/oc/oc_mqtt/oc_mqtt_profile_v5\oc_mqtt_profile_package.c ****             goto EXIT_MEM;
 500:D:/fchai/work/i-cube/I-CUBE-HUAWEI/Middlewares/Third_Party/Huawei/iot_link/oc/oc_mqtt/oc_mqtt_profile_v5\oc_mqtt_profile_package.c ****         }
 501:D:/fchai/work/i-cube/I-CUBE-HUAWEI/Middlewares/Third_Party/Huawei/iot_link/oc/oc_mqtt/oc_mqtt_profile_v5\oc_mqtt_profile_package.c ****         cJSON_AddItemToObjectCS(root,CN_OC_JSON_KEY_RESULTDESC,ret_name);
 1179              		.loc 1 501 9 is_stmt 1 view .LVU370
 1180 0032 1049     		ldr	r1, .L178+4
 1181 0034 2046     		mov	r0, r4
 1182              	.LVL165:
ARM GAS  T:\msys\tmp\cckvbb2E.s 			page 34


 1183              		.loc 1 501 9 is_stmt 0 view .LVU371
 1184 0036 FFF7FEFF 		bl	cJSON_AddItemToObjectCS
 1185              	.LVL166:
 1186              	.L157:
 502:D:/fchai/work/i-cube/I-CUBE-HUAWEI/Middlewares/Third_Party/Huawei/iot_link/oc/oc_mqtt/oc_mqtt_profile_v5\oc_mqtt_profile_package.c ****     }
 503:D:/fchai/work/i-cube/I-CUBE-HUAWEI/Middlewares/Third_Party/Huawei/iot_link/oc/oc_mqtt/oc_mqtt_profile_v5\oc_mqtt_profile_package.c **** 
 504:D:/fchai/work/i-cube/I-CUBE-HUAWEI/Middlewares/Third_Party/Huawei/iot_link/oc/oc_mqtt/oc_mqtt_profile_v5\oc_mqtt_profile_package.c ****     if(NULL != payload->paras)
 1187              		.loc 1 504 5 is_stmt 1 view .LVU372
 1188              		.loc 1 504 23 is_stmt 0 view .LVU373
 1189 003a E868     		ldr	r0, [r5, #12]
 1190              		.loc 1 504 7 view .LVU374
 1191 003c 38B1     		cbz	r0, .L158
 505:D:/fchai/work/i-cube/I-CUBE-HUAWEI/Middlewares/Third_Party/Huawei/iot_link/oc/oc_mqtt/oc_mqtt_profile_v5\oc_mqtt_profile_package.c ****     {
 506:D:/fchai/work/i-cube/I-CUBE-HUAWEI/Middlewares/Third_Party/Huawei/iot_link/oc/oc_mqtt/oc_mqtt_profile_v5\oc_mqtt_profile_package.c ****         paras = JsonCreateKvLst(payload->paras);
 1192              		.loc 1 506 9 is_stmt 1 view .LVU375
 1193              		.loc 1 506 17 is_stmt 0 view .LVU376
 1194 003e FFF7FEFF 		bl	JsonCreateKvLst
 1195              	.LVL167:
 507:D:/fchai/work/i-cube/I-CUBE-HUAWEI/Middlewares/Third_Party/Huawei/iot_link/oc/oc_mqtt/oc_mqtt_profile_v5\oc_mqtt_profile_package.c ****         if(NULL == paras)
 1196              		.loc 1 507 9 is_stmt 1 view .LVU377
 1197              		.loc 1 507 11 is_stmt 0 view .LVU378
 1198 0042 0246     		mov	r2, r0
 1199 0044 68B1     		cbz	r0, .L156
 508:D:/fchai/work/i-cube/I-CUBE-HUAWEI/Middlewares/Third_Party/Huawei/iot_link/oc/oc_mqtt/oc_mqtt_profile_v5\oc_mqtt_profile_package.c ****         {
 509:D:/fchai/work/i-cube/I-CUBE-HUAWEI/Middlewares/Third_Party/Huawei/iot_link/oc/oc_mqtt/oc_mqtt_profile_v5\oc_mqtt_profile_package.c ****             goto EXIT_MEM;
 510:D:/fchai/work/i-cube/I-CUBE-HUAWEI/Middlewares/Third_Party/Huawei/iot_link/oc/oc_mqtt/oc_mqtt_profile_v5\oc_mqtt_profile_package.c ****         }
 511:D:/fchai/work/i-cube/I-CUBE-HUAWEI/Middlewares/Third_Party/Huawei/iot_link/oc/oc_mqtt/oc_mqtt_profile_v5\oc_mqtt_profile_package.c ****         cJSON_AddItemToObjectCS(root,CN_OC_JSON_KEY_PARAS,paras);
 1200              		.loc 1 511 9 is_stmt 1 view .LVU379
 1201 0046 0C49     		ldr	r1, .L178+8
 1202 0048 2046     		mov	r0, r4
 1203              	.LVL168:
 1204              		.loc 1 511 9 is_stmt 0 view .LVU380
 1205 004a FFF7FEFF 		bl	cJSON_AddItemToObjectCS
 1206              	.LVL169:
 1207              	.L158:
 512:D:/fchai/work/i-cube/I-CUBE-HUAWEI/Middlewares/Third_Party/Huawei/iot_link/oc/oc_mqtt/oc_mqtt_profile_v5\oc_mqtt_profile_package.c ****     }
 513:D:/fchai/work/i-cube/I-CUBE-HUAWEI/Middlewares/Third_Party/Huawei/iot_link/oc/oc_mqtt/oc_mqtt_profile_v5\oc_mqtt_profile_package.c **** 
 514:D:/fchai/work/i-cube/I-CUBE-HUAWEI/Middlewares/Third_Party/Huawei/iot_link/oc/oc_mqtt/oc_mqtt_profile_v5\oc_mqtt_profile_package.c ****     ///< OK, now we make it to a buffer
 515:D:/fchai/work/i-cube/I-CUBE-HUAWEI/Middlewares/Third_Party/Huawei/iot_link/oc/oc_mqtt/oc_mqtt_profile_v5\oc_mqtt_profile_package.c ****     ret = cJSON_PrintUnformatted(root);
 1208              		.loc 1 515 5 is_stmt 1 view .LVU381
 1209              		.loc 1 515 11 is_stmt 0 view .LVU382
 1210 004e 2046     		mov	r0, r4
 1211 0050 FFF7FEFF 		bl	cJSON_PrintUnformatted
 1212              	.LVL170:
 1213 0054 0546     		mov	r5, r0
 1214              	.LVL171:
 516:D:/fchai/work/i-cube/I-CUBE-HUAWEI/Middlewares/Third_Party/Huawei/iot_link/oc/oc_mqtt/oc_mqtt_profile_v5\oc_mqtt_profile_package.c ****     cJSON_Delete(root);
 1215              		.loc 1 516 5 is_stmt 1 view .LVU383
 1216 0056 2046     		mov	r0, r4
 1217              	.LVL172:
 1218              		.loc 1 516 5 is_stmt 0 view .LVU384
 1219 0058 FFF7FEFF 		bl	cJSON_Delete
 1220              	.LVL173:
 517:D:/fchai/work/i-cube/I-CUBE-HUAWEI/Middlewares/Third_Party/Huawei/iot_link/oc/oc_mqtt/oc_mqtt_profile_v5\oc_mqtt_profile_package.c ****     return ret;
 1221              		.loc 1 517 5 is_stmt 1 view .LVU385
 1222              		.loc 1 517 12 is_stmt 0 view .LVU386
 1223 005c 2C46     		mov	r4, r5
ARM GAS  T:\msys\tmp\cckvbb2E.s 			page 35


 1224              	.LVL174:
 1225              	.L154:
 518:D:/fchai/work/i-cube/I-CUBE-HUAWEI/Middlewares/Third_Party/Huawei/iot_link/oc/oc_mqtt/oc_mqtt_profile_v5\oc_mqtt_profile_package.c **** 
 519:D:/fchai/work/i-cube/I-CUBE-HUAWEI/Middlewares/Third_Party/Huawei/iot_link/oc/oc_mqtt/oc_mqtt_profile_v5\oc_mqtt_profile_package.c **** EXIT_MEM:
 520:D:/fchai/work/i-cube/I-CUBE-HUAWEI/Middlewares/Third_Party/Huawei/iot_link/oc/oc_mqtt/oc_mqtt_profile_v5\oc_mqtt_profile_package.c ****     if(NULL != root)
 521:D:/fchai/work/i-cube/I-CUBE-HUAWEI/Middlewares/Third_Party/Huawei/iot_link/oc/oc_mqtt/oc_mqtt_profile_v5\oc_mqtt_profile_package.c ****     {
 522:D:/fchai/work/i-cube/I-CUBE-HUAWEI/Middlewares/Third_Party/Huawei/iot_link/oc/oc_mqtt/oc_mqtt_profile_v5\oc_mqtt_profile_package.c ****        cJSON_Delete(root);
 523:D:/fchai/work/i-cube/I-CUBE-HUAWEI/Middlewares/Third_Party/Huawei/iot_link/oc/oc_mqtt/oc_mqtt_profile_v5\oc_mqtt_profile_package.c ****     }
 524:D:/fchai/work/i-cube/I-CUBE-HUAWEI/Middlewares/Third_Party/Huawei/iot_link/oc/oc_mqtt/oc_mqtt_profile_v5\oc_mqtt_profile_package.c **** 
 525:D:/fchai/work/i-cube/I-CUBE-HUAWEI/Middlewares/Third_Party/Huawei/iot_link/oc/oc_mqtt/oc_mqtt_profile_v5\oc_mqtt_profile_package.c ****     return ret;
 526:D:/fchai/work/i-cube/I-CUBE-HUAWEI/Middlewares/Third_Party/Huawei/iot_link/oc/oc_mqtt/oc_mqtt_profile_v5\oc_mqtt_profile_package.c **** 
 527:D:/fchai/work/i-cube/I-CUBE-HUAWEI/Middlewares/Third_Party/Huawei/iot_link/oc/oc_mqtt/oc_mqtt_profile_v5\oc_mqtt_profile_package.c **** }
 1226              		.loc 1 527 1 view .LVU387
 1227 005e 2046     		mov	r0, r4
 1228 0060 38BD     		pop	{r3, r4, r5, pc}
 1229              	.LVL175:
 1230              	.L156:
 520:D:/fchai/work/i-cube/I-CUBE-HUAWEI/Middlewares/Third_Party/Huawei/iot_link/oc/oc_mqtt/oc_mqtt_profile_v5\oc_mqtt_profile_package.c ****     {
 1231              		.loc 1 520 5 is_stmt 1 view .LVU388
 522:D:/fchai/work/i-cube/I-CUBE-HUAWEI/Middlewares/Third_Party/Huawei/iot_link/oc/oc_mqtt/oc_mqtt_profile_v5\oc_mqtt_profile_package.c ****     }
 1232              		.loc 1 522 8 view .LVU389
 1233 0062 2046     		mov	r0, r4
 525:D:/fchai/work/i-cube/I-CUBE-HUAWEI/Middlewares/Third_Party/Huawei/iot_link/oc/oc_mqtt/oc_mqtt_profile_v5\oc_mqtt_profile_package.c **** 
 1234              		.loc 1 525 12 is_stmt 0 view .LVU390
 1235 0064 0024     		movs	r4, #0
 1236              	.LVL176:
 522:D:/fchai/work/i-cube/I-CUBE-HUAWEI/Middlewares/Third_Party/Huawei/iot_link/oc/oc_mqtt/oc_mqtt_profile_v5\oc_mqtt_profile_package.c ****     }
 1237              		.loc 1 522 8 view .LVU391
 1238 0066 FFF7FEFF 		bl	cJSON_Delete
 1239              	.LVL177:
 1240              		.loc 1 527 1 view .LVU392
 1241 006a 2046     		mov	r0, r4
 1242 006c 38BD     		pop	{r3, r4, r5, pc}
 1243              	.LVL178:
 1244              	.L179:
 1245              		.loc 1 527 1 view .LVU393
 1246 006e 00BF     		.align	2
 1247              	.L178:
 1248 0070 00000000 		.word	.LC10
 1249 0074 0C000000 		.word	.LC11
 1250 0078 00000000 		.word	.LC12
 1251              		.cfi_endproc
 1252              	.LFE9:
 1254              		.section	.text.oc_mqtt_profile_package_shadowget,"ax",%progbits
 1255              		.align	1
 1256              		.p2align 2,,3
 1257              		.global	oc_mqtt_profile_package_shadowget
 1258              		.syntax unified
 1259              		.thumb
 1260              		.thumb_func
 1261              		.fpu fpv4-sp-d16
 1263              	oc_mqtt_profile_package_shadowget:
 1264              	.LVL179:
 1265              	.LFB10:
 528:D:/fchai/work/i-cube/I-CUBE-HUAWEI/Middlewares/Third_Party/Huawei/iot_link/oc/oc_mqtt/oc_mqtt_profile_v5\oc_mqtt_profile_package.c **** 
 529:D:/fchai/work/i-cube/I-CUBE-HUAWEI/Middlewares/Third_Party/Huawei/iot_link/oc/oc_mqtt/oc_mqtt_profile_v5\oc_mqtt_profile_package.c **** 
 530:D:/fchai/work/i-cube/I-CUBE-HUAWEI/Middlewares/Third_Party/Huawei/iot_link/oc/oc_mqtt/oc_mqtt_profile_v5\oc_mqtt_profile_package.c **** 
ARM GAS  T:\msys\tmp\cckvbb2E.s 			page 36


 531:D:/fchai/work/i-cube/I-CUBE-HUAWEI/Middlewares/Third_Party/Huawei/iot_link/oc/oc_mqtt/oc_mqtt_profile_v5\oc_mqtt_profile_package.c **** 
 532:D:/fchai/work/i-cube/I-CUBE-HUAWEI/Middlewares/Third_Party/Huawei/iot_link/oc/oc_mqtt/oc_mqtt_profile_v5\oc_mqtt_profile_package.c **** char *oc_mqtt_profile_package_shadowget(oc_mqtt_profile_shadowget_t *payload)
 533:D:/fchai/work/i-cube/I-CUBE-HUAWEI/Middlewares/Third_Party/Huawei/iot_link/oc/oc_mqtt/oc_mqtt_profile_v5\oc_mqtt_profile_package.c **** {
 1266              		.loc 1 533 1 is_stmt 1 view -0
 1267              		.cfi_startproc
 1268              		@ args = 0, pretend = 0, frame = 0
 1269              		@ frame_needed = 0, uses_anonymous_args = 0
 534:D:/fchai/work/i-cube/I-CUBE-HUAWEI/Middlewares/Third_Party/Huawei/iot_link/oc/oc_mqtt/oc_mqtt_profile_v5\oc_mqtt_profile_package.c ****     char *ret = NULL;
 1270              		.loc 1 534 5 view .LVU395
 535:D:/fchai/work/i-cube/I-CUBE-HUAWEI/Middlewares/Third_Party/Huawei/iot_link/oc/oc_mqtt/oc_mqtt_profile_v5\oc_mqtt_profile_package.c ****     cJSON *root = NULL;
 1271              		.loc 1 535 5 view .LVU396
 536:D:/fchai/work/i-cube/I-CUBE-HUAWEI/Middlewares/Third_Party/Huawei/iot_link/oc/oc_mqtt/oc_mqtt_profile_v5\oc_mqtt_profile_package.c ****     cJSON *object_device_id = NULL;
 1272              		.loc 1 536 5 view .LVU397
 537:D:/fchai/work/i-cube/I-CUBE-HUAWEI/Middlewares/Third_Party/Huawei/iot_link/oc/oc_mqtt/oc_mqtt_profile_v5\oc_mqtt_profile_package.c ****     cJSON *service_id = NULL;
 1273              		.loc 1 537 5 view .LVU398
 538:D:/fchai/work/i-cube/I-CUBE-HUAWEI/Middlewares/Third_Party/Huawei/iot_link/oc/oc_mqtt/oc_mqtt_profile_v5\oc_mqtt_profile_package.c **** 
 539:D:/fchai/work/i-cube/I-CUBE-HUAWEI/Middlewares/Third_Party/Huawei/iot_link/oc/oc_mqtt/oc_mqtt_profile_v5\oc_mqtt_profile_package.c ****     ///< create the root node
 540:D:/fchai/work/i-cube/I-CUBE-HUAWEI/Middlewares/Third_Party/Huawei/iot_link/oc/oc_mqtt/oc_mqtt_profile_v5\oc_mqtt_profile_package.c ****     root = cJSON_CreateObject();
 1274              		.loc 1 540 5 view .LVU399
 533:D:/fchai/work/i-cube/I-CUBE-HUAWEI/Middlewares/Third_Party/Huawei/iot_link/oc/oc_mqtt/oc_mqtt_profile_v5\oc_mqtt_profile_package.c ****     char *ret = NULL;
 1275              		.loc 1 533 1 is_stmt 0 view .LVU400
 1276 0000 38B5     		push	{r3, r4, r5, lr}
 1277              	.LCFI8:
 1278              		.cfi_def_cfa_offset 16
 1279              		.cfi_offset 3, -16
 1280              		.cfi_offset 4, -12
 1281              		.cfi_offset 5, -8
 1282              		.cfi_offset 14, -4
 533:D:/fchai/work/i-cube/I-CUBE-HUAWEI/Middlewares/Third_Party/Huawei/iot_link/oc/oc_mqtt/oc_mqtt_profile_v5\oc_mqtt_profile_package.c ****     char *ret = NULL;
 1283              		.loc 1 533 1 view .LVU401
 1284 0002 0546     		mov	r5, r0
 1285              		.loc 1 540 12 view .LVU402
 1286 0004 FFF7FEFF 		bl	cJSON_CreateObject
 1287              	.LVL180:
 541:D:/fchai/work/i-cube/I-CUBE-HUAWEI/Middlewares/Third_Party/Huawei/iot_link/oc/oc_mqtt/oc_mqtt_profile_v5\oc_mqtt_profile_package.c ****     if(NULL == root)
 1288              		.loc 1 541 5 is_stmt 1 view .LVU403
 1289              		.loc 1 541 7 is_stmt 0 view .LVU404
 1290 0008 0446     		mov	r4, r0
 1291 000a D8B1     		cbz	r0, .L180
 542:D:/fchai/work/i-cube/I-CUBE-HUAWEI/Middlewares/Third_Party/Huawei/iot_link/oc/oc_mqtt/oc_mqtt_profile_v5\oc_mqtt_profile_package.c ****     {
 543:D:/fchai/work/i-cube/I-CUBE-HUAWEI/Middlewares/Third_Party/Huawei/iot_link/oc/oc_mqtt/oc_mqtt_profile_v5\oc_mqtt_profile_package.c ****        goto EXIT_MEM;
 544:D:/fchai/work/i-cube/I-CUBE-HUAWEI/Middlewares/Third_Party/Huawei/iot_link/oc/oc_mqtt/oc_mqtt_profile_v5\oc_mqtt_profile_package.c ****     }
 545:D:/fchai/work/i-cube/I-CUBE-HUAWEI/Middlewares/Third_Party/Huawei/iot_link/oc/oc_mqtt/oc_mqtt_profile_v5\oc_mqtt_profile_package.c ****     ///< create retcode and retdesc and add it to the root
 546:D:/fchai/work/i-cube/I-CUBE-HUAWEI/Middlewares/Third_Party/Huawei/iot_link/oc/oc_mqtt/oc_mqtt_profile_v5\oc_mqtt_profile_package.c ****     if(NULL != payload->object_device_id)
 1292              		.loc 1 546 5 is_stmt 1 view .LVU405
 1293              		.loc 1 546 23 is_stmt 0 view .LVU406
 1294 000c 2868     		ldr	r0, [r5]
 1295              	.LVL181:
 1296              		.loc 1 546 7 view .LVU407
 1297 000e 38B1     		cbz	r0, .L182
 547:D:/fchai/work/i-cube/I-CUBE-HUAWEI/Middlewares/Third_Party/Huawei/iot_link/oc/oc_mqtt/oc_mqtt_profile_v5\oc_mqtt_profile_package.c ****     {
 548:D:/fchai/work/i-cube/I-CUBE-HUAWEI/Middlewares/Third_Party/Huawei/iot_link/oc/oc_mqtt/oc_mqtt_profile_v5\oc_mqtt_profile_package.c ****         object_device_id = cJSON_CreateString(payload->object_device_id);
 1298              		.loc 1 548 9 is_stmt 1 view .LVU408
 1299              		.loc 1 548 28 is_stmt 0 view .LVU409
 1300 0010 FFF7FEFF 		bl	cJSON_CreateString
 1301              	.LVL182:
 549:D:/fchai/work/i-cube/I-CUBE-HUAWEI/Middlewares/Third_Party/Huawei/iot_link/oc/oc_mqtt/oc_mqtt_profile_v5\oc_mqtt_profile_package.c ****         if(NULL == object_device_id)
ARM GAS  T:\msys\tmp\cckvbb2E.s 			page 37


 1302              		.loc 1 549 9 is_stmt 1 view .LVU410
 1303              		.loc 1 549 11 is_stmt 0 view .LVU411
 1304 0014 0246     		mov	r2, r0
 1305 0016 B8B1     		cbz	r0, .L183
 550:D:/fchai/work/i-cube/I-CUBE-HUAWEI/Middlewares/Third_Party/Huawei/iot_link/oc/oc_mqtt/oc_mqtt_profile_v5\oc_mqtt_profile_package.c ****         {
 551:D:/fchai/work/i-cube/I-CUBE-HUAWEI/Middlewares/Third_Party/Huawei/iot_link/oc/oc_mqtt/oc_mqtt_profile_v5\oc_mqtt_profile_package.c ****             goto EXIT_MEM;
 552:D:/fchai/work/i-cube/I-CUBE-HUAWEI/Middlewares/Third_Party/Huawei/iot_link/oc/oc_mqtt/oc_mqtt_profile_v5\oc_mqtt_profile_package.c ****         }
 553:D:/fchai/work/i-cube/I-CUBE-HUAWEI/Middlewares/Third_Party/Huawei/iot_link/oc/oc_mqtt/oc_mqtt_profile_v5\oc_mqtt_profile_package.c ****         cJSON_AddItemToObjectCS(root,CN_OC_JSON_KEY_OBJECTDEVICEID,object_device_id);
 1306              		.loc 1 553 9 is_stmt 1 view .LVU412
 1307 0018 0E49     		ldr	r1, .L199
 1308 001a 2046     		mov	r0, r4
 1309              	.LVL183:
 1310              		.loc 1 553 9 is_stmt 0 view .LVU413
 1311 001c FFF7FEFF 		bl	cJSON_AddItemToObjectCS
 1312              	.LVL184:
 1313              	.L182:
 554:D:/fchai/work/i-cube/I-CUBE-HUAWEI/Middlewares/Third_Party/Huawei/iot_link/oc/oc_mqtt/oc_mqtt_profile_v5\oc_mqtt_profile_package.c ****     }
 555:D:/fchai/work/i-cube/I-CUBE-HUAWEI/Middlewares/Third_Party/Huawei/iot_link/oc/oc_mqtt/oc_mqtt_profile_v5\oc_mqtt_profile_package.c **** 
 556:D:/fchai/work/i-cube/I-CUBE-HUAWEI/Middlewares/Third_Party/Huawei/iot_link/oc/oc_mqtt/oc_mqtt_profile_v5\oc_mqtt_profile_package.c ****     if(NULL != payload->service_id)
 1314              		.loc 1 556 5 is_stmt 1 view .LVU414
 1315              		.loc 1 556 23 is_stmt 0 view .LVU415
 1316 0020 6868     		ldr	r0, [r5, #4]
 1317              		.loc 1 556 7 view .LVU416
 1318 0022 38B1     		cbz	r0, .L184
 557:D:/fchai/work/i-cube/I-CUBE-HUAWEI/Middlewares/Third_Party/Huawei/iot_link/oc/oc_mqtt/oc_mqtt_profile_v5\oc_mqtt_profile_package.c ****     {
 558:D:/fchai/work/i-cube/I-CUBE-HUAWEI/Middlewares/Third_Party/Huawei/iot_link/oc/oc_mqtt/oc_mqtt_profile_v5\oc_mqtt_profile_package.c ****         service_id = cJSON_CreateString(payload->service_id);
 1319              		.loc 1 558 9 is_stmt 1 view .LVU417
 1320              		.loc 1 558 22 is_stmt 0 view .LVU418
 1321 0024 FFF7FEFF 		bl	cJSON_CreateString
 1322              	.LVL185:
 559:D:/fchai/work/i-cube/I-CUBE-HUAWEI/Middlewares/Third_Party/Huawei/iot_link/oc/oc_mqtt/oc_mqtt_profile_v5\oc_mqtt_profile_package.c ****         if(NULL == service_id)
 1323              		.loc 1 559 9 is_stmt 1 view .LVU419
 1324              		.loc 1 559 11 is_stmt 0 view .LVU420
 1325 0028 0246     		mov	r2, r0
 1326 002a 68B1     		cbz	r0, .L183
 560:D:/fchai/work/i-cube/I-CUBE-HUAWEI/Middlewares/Third_Party/Huawei/iot_link/oc/oc_mqtt/oc_mqtt_profile_v5\oc_mqtt_profile_package.c ****         {
 561:D:/fchai/work/i-cube/I-CUBE-HUAWEI/Middlewares/Third_Party/Huawei/iot_link/oc/oc_mqtt/oc_mqtt_profile_v5\oc_mqtt_profile_package.c ****             goto EXIT_MEM;
 562:D:/fchai/work/i-cube/I-CUBE-HUAWEI/Middlewares/Third_Party/Huawei/iot_link/oc/oc_mqtt/oc_mqtt_profile_v5\oc_mqtt_profile_package.c ****         }
 563:D:/fchai/work/i-cube/I-CUBE-HUAWEI/Middlewares/Third_Party/Huawei/iot_link/oc/oc_mqtt/oc_mqtt_profile_v5\oc_mqtt_profile_package.c ****         cJSON_AddItemToObjectCS(root,CN_OC_JSON_KEY_SERVICEID,service_id);
 1327              		.loc 1 563 9 is_stmt 1 view .LVU421
 1328 002c 0A49     		ldr	r1, .L199+4
 1329 002e 2046     		mov	r0, r4
 1330              	.LVL186:
 1331              		.loc 1 563 9 is_stmt 0 view .LVU422
 1332 0030 FFF7FEFF 		bl	cJSON_AddItemToObjectCS
 1333              	.LVL187:
 1334              	.L184:
 564:D:/fchai/work/i-cube/I-CUBE-HUAWEI/Middlewares/Third_Party/Huawei/iot_link/oc/oc_mqtt/oc_mqtt_profile_v5\oc_mqtt_profile_package.c ****     }
 565:D:/fchai/work/i-cube/I-CUBE-HUAWEI/Middlewares/Third_Party/Huawei/iot_link/oc/oc_mqtt/oc_mqtt_profile_v5\oc_mqtt_profile_package.c **** 
 566:D:/fchai/work/i-cube/I-CUBE-HUAWEI/Middlewares/Third_Party/Huawei/iot_link/oc/oc_mqtt/oc_mqtt_profile_v5\oc_mqtt_profile_package.c ****     ///< OK, now we make it to a buffer
 567:D:/fchai/work/i-cube/I-CUBE-HUAWEI/Middlewares/Third_Party/Huawei/iot_link/oc/oc_mqtt/oc_mqtt_profile_v5\oc_mqtt_profile_package.c ****     ret = cJSON_PrintUnformatted(root);
 1335              		.loc 1 567 5 is_stmt 1 view .LVU423
 1336              		.loc 1 567 11 is_stmt 0 view .LVU424
 1337 0034 2046     		mov	r0, r4
 1338 0036 FFF7FEFF 		bl	cJSON_PrintUnformatted
 1339              	.LVL188:
 1340 003a 0346     		mov	r3, r0
ARM GAS  T:\msys\tmp\cckvbb2E.s 			page 38


 568:D:/fchai/work/i-cube/I-CUBE-HUAWEI/Middlewares/Third_Party/Huawei/iot_link/oc/oc_mqtt/oc_mqtt_profile_v5\oc_mqtt_profile_package.c ****     cJSON_Delete(root);
 1341              		.loc 1 568 5 view .LVU425
 1342 003c 2046     		mov	r0, r4
 567:D:/fchai/work/i-cube/I-CUBE-HUAWEI/Middlewares/Third_Party/Huawei/iot_link/oc/oc_mqtt/oc_mqtt_profile_v5\oc_mqtt_profile_package.c ****     cJSON_Delete(root);
 1343              		.loc 1 567 11 view .LVU426
 1344 003e 1C46     		mov	r4, r3
 1345              	.LVL189:
 1346              		.loc 1 568 5 is_stmt 1 view .LVU427
 1347 0040 FFF7FEFF 		bl	cJSON_Delete
 1348              	.LVL190:
 569:D:/fchai/work/i-cube/I-CUBE-HUAWEI/Middlewares/Third_Party/Huawei/iot_link/oc/oc_mqtt/oc_mqtt_profile_v5\oc_mqtt_profile_package.c ****     return ret;
 1349              		.loc 1 569 5 view .LVU428
 1350              	.L180:
 570:D:/fchai/work/i-cube/I-CUBE-HUAWEI/Middlewares/Third_Party/Huawei/iot_link/oc/oc_mqtt/oc_mqtt_profile_v5\oc_mqtt_profile_package.c **** 
 571:D:/fchai/work/i-cube/I-CUBE-HUAWEI/Middlewares/Third_Party/Huawei/iot_link/oc/oc_mqtt/oc_mqtt_profile_v5\oc_mqtt_profile_package.c **** EXIT_MEM:
 572:D:/fchai/work/i-cube/I-CUBE-HUAWEI/Middlewares/Third_Party/Huawei/iot_link/oc/oc_mqtt/oc_mqtt_profile_v5\oc_mqtt_profile_package.c ****     if(NULL != root)
 573:D:/fchai/work/i-cube/I-CUBE-HUAWEI/Middlewares/Third_Party/Huawei/iot_link/oc/oc_mqtt/oc_mqtt_profile_v5\oc_mqtt_profile_package.c ****     {
 574:D:/fchai/work/i-cube/I-CUBE-HUAWEI/Middlewares/Third_Party/Huawei/iot_link/oc/oc_mqtt/oc_mqtt_profile_v5\oc_mqtt_profile_package.c ****        cJSON_Delete(root);
 575:D:/fchai/work/i-cube/I-CUBE-HUAWEI/Middlewares/Third_Party/Huawei/iot_link/oc/oc_mqtt/oc_mqtt_profile_v5\oc_mqtt_profile_package.c ****     }
 576:D:/fchai/work/i-cube/I-CUBE-HUAWEI/Middlewares/Third_Party/Huawei/iot_link/oc/oc_mqtt/oc_mqtt_profile_v5\oc_mqtt_profile_package.c **** 
 577:D:/fchai/work/i-cube/I-CUBE-HUAWEI/Middlewares/Third_Party/Huawei/iot_link/oc/oc_mqtt/oc_mqtt_profile_v5\oc_mqtt_profile_package.c ****     return ret;
 578:D:/fchai/work/i-cube/I-CUBE-HUAWEI/Middlewares/Third_Party/Huawei/iot_link/oc/oc_mqtt/oc_mqtt_profile_v5\oc_mqtt_profile_package.c **** 
 579:D:/fchai/work/i-cube/I-CUBE-HUAWEI/Middlewares/Third_Party/Huawei/iot_link/oc/oc_mqtt/oc_mqtt_profile_v5\oc_mqtt_profile_package.c **** }
 1351              		.loc 1 579 1 is_stmt 0 view .LVU429
 1352 0044 2046     		mov	r0, r4
 1353 0046 38BD     		pop	{r3, r4, r5, pc}
 1354              	.LVL191:
 1355              	.L183:
 572:D:/fchai/work/i-cube/I-CUBE-HUAWEI/Middlewares/Third_Party/Huawei/iot_link/oc/oc_mqtt/oc_mqtt_profile_v5\oc_mqtt_profile_package.c ****     {
 1356              		.loc 1 572 5 is_stmt 1 view .LVU430
 574:D:/fchai/work/i-cube/I-CUBE-HUAWEI/Middlewares/Third_Party/Huawei/iot_link/oc/oc_mqtt/oc_mqtt_profile_v5\oc_mqtt_profile_package.c ****     }
 1357              		.loc 1 574 8 view .LVU431
 1358 0048 2046     		mov	r0, r4
 577:D:/fchai/work/i-cube/I-CUBE-HUAWEI/Middlewares/Third_Party/Huawei/iot_link/oc/oc_mqtt/oc_mqtt_profile_v5\oc_mqtt_profile_package.c **** 
 1359              		.loc 1 577 12 is_stmt 0 view .LVU432
 1360 004a 0024     		movs	r4, #0
 1361              	.LVL192:
 574:D:/fchai/work/i-cube/I-CUBE-HUAWEI/Middlewares/Third_Party/Huawei/iot_link/oc/oc_mqtt/oc_mqtt_profile_v5\oc_mqtt_profile_package.c ****     }
 1362              		.loc 1 574 8 view .LVU433
 1363 004c FFF7FEFF 		bl	cJSON_Delete
 1364              	.LVL193:
 1365              		.loc 1 579 1 view .LVU434
 1366 0050 2046     		mov	r0, r4
 1367 0052 38BD     		pop	{r3, r4, r5, pc}
 1368              	.LVL194:
 1369              	.L200:
 1370              		.loc 1 579 1 view .LVU435
 1371              		.align	2
 1372              	.L199:
 1373 0054 00000000 		.word	.LC3
 1374 0058 00000000 		.word	.LC0
 1375              		.cfi_endproc
 1376              	.LFE10:
 1378              		.section	.rodata.oc_mqtt_profile_package_event.str1.4,"aMS",%progbits,1
 1379              		.align	2
 1380              	.LC13:
 1381 0000 6576656E 		.ascii	"event_type\000"
ARM GAS  T:\msys\tmp\cckvbb2E.s 			page 39


 1381      745F7479 
 1381      706500
 1382              		.section	.text.oc_mqtt_profile_package_event,"ax",%progbits
 1383              		.align	1
 1384              		.p2align 2,,3
 1385              		.global	oc_mqtt_profile_package_event
 1386              		.syntax unified
 1387              		.thumb
 1388              		.thumb_func
 1389              		.fpu fpv4-sp-d16
 1391              	oc_mqtt_profile_package_event:
 1392              	.LVL195:
 1393              	.LFB11:
 580:D:/fchai/work/i-cube/I-CUBE-HUAWEI/Middlewares/Third_Party/Huawei/iot_link/oc/oc_mqtt/oc_mqtt_profile_v5\oc_mqtt_profile_package.c **** 
 581:D:/fchai/work/i-cube/I-CUBE-HUAWEI/Middlewares/Third_Party/Huawei/iot_link/oc/oc_mqtt/oc_mqtt_profile_v5\oc_mqtt_profile_package.c **** /*** event json data format
 582:D:/fchai/work/i-cube/I-CUBE-HUAWEI/Middlewares/Third_Party/Huawei/iot_link/oc/oc_mqtt/oc_mqtt_profile_v5\oc_mqtt_profile_package.c **** Topic: $oc/devices/{device_id}/sys/events/down
 583:D:/fchai/work/i-cube/I-CUBE-HUAWEI/Middlewares/Third_Party/Huawei/iot_link/oc/oc_mqtt/oc_mqtt_profile_v5\oc_mqtt_profile_package.c **** {
 584:D:/fchai/work/i-cube/I-CUBE-HUAWEI/Middlewares/Third_Party/Huawei/iot_link/oc/oc_mqtt/oc_mqtt_profile_v5\oc_mqtt_profile_package.c ****     "object_device_id": "{object_device_id}",
 585:D:/fchai/work/i-cube/I-CUBE-HUAWEI/Middlewares/Third_Party/Huawei/iot_link/oc/oc_mqtt/oc_mqtt_profile_v5\oc_mqtt_profile_package.c ****     "services": [{
 586:D:/fchai/work/i-cube/I-CUBE-HUAWEI/Middlewares/Third_Party/Huawei/iot_link/oc/oc_mqtt/oc_mqtt_profile_v5\oc_mqtt_profile_package.c ****         "service_id": "$ota",
 587:D:/fchai/work/i-cube/I-CUBE-HUAWEI/Middlewares/Third_Party/Huawei/iot_link/oc/oc_mqtt/oc_mqtt_profile_v5\oc_mqtt_profile_package.c ****         "event_type": "version_query",
 588:D:/fchai/work/i-cube/I-CUBE-HUAWEI/Middlewares/Third_Party/Huawei/iot_link/oc/oc_mqtt/oc_mqtt_profile_v5\oc_mqtt_profile_package.c ****         "event_time": "20151212T121212Z",
 589:D:/fchai/work/i-cube/I-CUBE-HUAWEI/Middlewares/Third_Party/Huawei/iot_link/oc/oc_mqtt/oc_mqtt_profile_v5\oc_mqtt_profile_package.c ****          "paras": {
 590:D:/fchai/work/i-cube/I-CUBE-HUAWEI/Middlewares/Third_Party/Huawei/iot_link/oc/oc_mqtt/oc_mqtt_profile_v5\oc_mqtt_profile_package.c ****          }
 591:D:/fchai/work/i-cube/I-CUBE-HUAWEI/Middlewares/Third_Party/Huawei/iot_link/oc/oc_mqtt/oc_mqtt_profile_v5\oc_mqtt_profile_package.c ****     }]
 592:D:/fchai/work/i-cube/I-CUBE-HUAWEI/Middlewares/Third_Party/Huawei/iot_link/oc/oc_mqtt/oc_mqtt_profile_v5\oc_mqtt_profile_package.c **** }
 593:D:/fchai/work/i-cube/I-CUBE-HUAWEI/Middlewares/Third_Party/Huawei/iot_link/oc/oc_mqtt/oc_mqtt_profile_v5\oc_mqtt_profile_package.c **** */
 594:D:/fchai/work/i-cube/I-CUBE-HUAWEI/Middlewares/Third_Party/Huawei/iot_link/oc/oc_mqtt/oc_mqtt_profile_v5\oc_mqtt_profile_package.c **** 
 595:D:/fchai/work/i-cube/I-CUBE-HUAWEI/Middlewares/Third_Party/Huawei/iot_link/oc/oc_mqtt/oc_mqtt_profile_v5\oc_mqtt_profile_package.c **** char *oc_mqtt_profile_package_event(oc_mqtt_profile_event_t *payload)
 596:D:/fchai/work/i-cube/I-CUBE-HUAWEI/Middlewares/Third_Party/Huawei/iot_link/oc/oc_mqtt/oc_mqtt_profile_v5\oc_mqtt_profile_package.c **** {
 1394              		.loc 1 596 1 is_stmt 1 view -0
 1395              		.cfi_startproc
 1396              		@ args = 0, pretend = 0, frame = 0
 1397              		@ frame_needed = 0, uses_anonymous_args = 0
 597:D:/fchai/work/i-cube/I-CUBE-HUAWEI/Middlewares/Third_Party/Huawei/iot_link/oc/oc_mqtt/oc_mqtt_profile_v5\oc_mqtt_profile_package.c ****     char *ret = NULL;
 1398              		.loc 1 597 5 view .LVU437
 598:D:/fchai/work/i-cube/I-CUBE-HUAWEI/Middlewares/Third_Party/Huawei/iot_link/oc/oc_mqtt/oc_mqtt_profile_v5\oc_mqtt_profile_package.c ****     cJSON *root;
 1399              		.loc 1 598 5 view .LVU438
 599:D:/fchai/work/i-cube/I-CUBE-HUAWEI/Middlewares/Third_Party/Huawei/iot_link/oc/oc_mqtt/oc_mqtt_profile_v5\oc_mqtt_profile_package.c ****     cJSON *objectDeviceID;
 1400              		.loc 1 599 5 view .LVU439
 600:D:/fchai/work/i-cube/I-CUBE-HUAWEI/Middlewares/Third_Party/Huawei/iot_link/oc/oc_mqtt/oc_mqtt_profile_v5\oc_mqtt_profile_package.c ****     cJSON *services;
 1401              		.loc 1 600 5 view .LVU440
 601:D:/fchai/work/i-cube/I-CUBE-HUAWEI/Middlewares/Third_Party/Huawei/iot_link/oc/oc_mqtt/oc_mqtt_profile_v5\oc_mqtt_profile_package.c ****     cJSON *service;
 1402              		.loc 1 601 5 view .LVU441
 602:D:/fchai/work/i-cube/I-CUBE-HUAWEI/Middlewares/Third_Party/Huawei/iot_link/oc/oc_mqtt/oc_mqtt_profile_v5\oc_mqtt_profile_package.c ****     cJSON *serviceID;
 1403              		.loc 1 602 5 view .LVU442
 603:D:/fchai/work/i-cube/I-CUBE-HUAWEI/Middlewares/Third_Party/Huawei/iot_link/oc/oc_mqtt/oc_mqtt_profile_v5\oc_mqtt_profile_package.c ****     cJSON *eventTime;
 1404              		.loc 1 603 5 view .LVU443
 604:D:/fchai/work/i-cube/I-CUBE-HUAWEI/Middlewares/Third_Party/Huawei/iot_link/oc/oc_mqtt/oc_mqtt_profile_v5\oc_mqtt_profile_package.c ****     cJSON *eventType;
 1405              		.loc 1 604 5 view .LVU444
 605:D:/fchai/work/i-cube/I-CUBE-HUAWEI/Middlewares/Third_Party/Huawei/iot_link/oc/oc_mqtt/oc_mqtt_profile_v5\oc_mqtt_profile_package.c ****     cJSON *paras;
 1406              		.loc 1 605 5 view .LVU445
 606:D:/fchai/work/i-cube/I-CUBE-HUAWEI/Middlewares/Third_Party/Huawei/iot_link/oc/oc_mqtt/oc_mqtt_profile_v5\oc_mqtt_profile_package.c **** 
 607:D:/fchai/work/i-cube/I-CUBE-HUAWEI/Middlewares/Third_Party/Huawei/iot_link/oc/oc_mqtt/oc_mqtt_profile_v5\oc_mqtt_profile_package.c ****     ///< create the root node
 608:D:/fchai/work/i-cube/I-CUBE-HUAWEI/Middlewares/Third_Party/Huawei/iot_link/oc/oc_mqtt/oc_mqtt_profile_v5\oc_mqtt_profile_package.c ****     root = cJSON_CreateObject();
 1407              		.loc 1 608 5 view .LVU446
 596:D:/fchai/work/i-cube/I-CUBE-HUAWEI/Middlewares/Third_Party/Huawei/iot_link/oc/oc_mqtt/oc_mqtt_profile_v5\oc_mqtt_profile_package.c ****     char *ret = NULL;
ARM GAS  T:\msys\tmp\cckvbb2E.s 			page 40


 1408              		.loc 1 596 1 is_stmt 0 view .LVU447
 1409 0000 F8B5     		push	{r3, r4, r5, r6, r7, lr}
 1410              	.LCFI9:
 1411              		.cfi_def_cfa_offset 24
 1412              		.cfi_offset 3, -24
 1413              		.cfi_offset 4, -20
 1414              		.cfi_offset 5, -16
 1415              		.cfi_offset 6, -12
 1416              		.cfi_offset 7, -8
 1417              		.cfi_offset 14, -4
 596:D:/fchai/work/i-cube/I-CUBE-HUAWEI/Middlewares/Third_Party/Huawei/iot_link/oc/oc_mqtt/oc_mqtt_profile_v5\oc_mqtt_profile_package.c ****     char *ret = NULL;
 1418              		.loc 1 596 1 view .LVU448
 1419 0002 0546     		mov	r5, r0
 1420              		.loc 1 608 12 view .LVU449
 1421 0004 FFF7FEFF 		bl	cJSON_CreateObject
 1422              	.LVL196:
 609:D:/fchai/work/i-cube/I-CUBE-HUAWEI/Middlewares/Third_Party/Huawei/iot_link/oc/oc_mqtt/oc_mqtt_profile_v5\oc_mqtt_profile_package.c ****     if(NULL == root){
 1423              		.loc 1 609 5 is_stmt 1 view .LVU450
 1424              		.loc 1 609 7 is_stmt 0 view .LVU451
 1425 0008 0446     		mov	r4, r0
 1426 000a 0028     		cmp	r0, #0
 1427 000c 4ED0     		beq	.L201
 610:D:/fchai/work/i-cube/I-CUBE-HUAWEI/Middlewares/Third_Party/Huawei/iot_link/oc/oc_mqtt/oc_mqtt_profile_v5\oc_mqtt_profile_package.c ****        goto EXIT_MEM;
 611:D:/fchai/work/i-cube/I-CUBE-HUAWEI/Middlewares/Third_Party/Huawei/iot_link/oc/oc_mqtt/oc_mqtt_profile_v5\oc_mqtt_profile_package.c ****     }
 612:D:/fchai/work/i-cube/I-CUBE-HUAWEI/Middlewares/Third_Party/Huawei/iot_link/oc/oc_mqtt/oc_mqtt_profile_v5\oc_mqtt_profile_package.c **** 
 613:D:/fchai/work/i-cube/I-CUBE-HUAWEI/Middlewares/Third_Party/Huawei/iot_link/oc/oc_mqtt/oc_mqtt_profile_v5\oc_mqtt_profile_package.c ****     ///< if the device object_device_id is not NULL then add it
 614:D:/fchai/work/i-cube/I-CUBE-HUAWEI/Middlewares/Third_Party/Huawei/iot_link/oc/oc_mqtt/oc_mqtt_profile_v5\oc_mqtt_profile_package.c ****     if(payload->object_device_id != NULL){
 1428              		.loc 1 614 5 is_stmt 1 view .LVU452
 1429              		.loc 1 614 15 is_stmt 0 view .LVU453
 1430 000e 2868     		ldr	r0, [r5]
 1431              	.LVL197:
 1432              		.loc 1 614 7 view .LVU454
 1433 0010 40B1     		cbz	r0, .L203
 615:D:/fchai/work/i-cube/I-CUBE-HUAWEI/Middlewares/Third_Party/Huawei/iot_link/oc/oc_mqtt/oc_mqtt_profile_v5\oc_mqtt_profile_package.c ****         objectDeviceID = cJSON_CreateString(payload->object_device_id);
 1434              		.loc 1 615 9 is_stmt 1 view .LVU455
 1435              		.loc 1 615 26 is_stmt 0 view .LVU456
 1436 0012 FFF7FEFF 		bl	cJSON_CreateString
 1437              	.LVL198:
 616:D:/fchai/work/i-cube/I-CUBE-HUAWEI/Middlewares/Third_Party/Huawei/iot_link/oc/oc_mqtt/oc_mqtt_profile_v5\oc_mqtt_profile_package.c ****         if(objectDeviceID == NULL){
 1438              		.loc 1 616 9 is_stmt 1 view .LVU457
 1439              		.loc 1 616 11 is_stmt 0 view .LVU458
 1440 0016 0246     		mov	r2, r0
 1441 0018 0028     		cmp	r0, #0
 1442 001a 43D0     		beq	.L204
 617:D:/fchai/work/i-cube/I-CUBE-HUAWEI/Middlewares/Third_Party/Huawei/iot_link/oc/oc_mqtt/oc_mqtt_profile_v5\oc_mqtt_profile_package.c ****             goto EXIT_MEM;
 618:D:/fchai/work/i-cube/I-CUBE-HUAWEI/Middlewares/Third_Party/Huawei/iot_link/oc/oc_mqtt/oc_mqtt_profile_v5\oc_mqtt_profile_package.c ****         }
 619:D:/fchai/work/i-cube/I-CUBE-HUAWEI/Middlewares/Third_Party/Huawei/iot_link/oc/oc_mqtt/oc_mqtt_profile_v5\oc_mqtt_profile_package.c ****         cJSON_AddItemToObject(root, CN_OC_JSON_KEY_OBJECTDEVICEID, objectDeviceID);
 1443              		.loc 1 619 9 is_stmt 1 view .LVU459
 1444 001c 2449     		ldr	r1, .L237
 1445 001e 2046     		mov	r0, r4
 1446              	.LVL199:
 1447              		.loc 1 619 9 is_stmt 0 view .LVU460
 1448 0020 FFF7FEFF 		bl	cJSON_AddItemToObject
 1449              	.LVL200:
 1450              	.L203:
 620:D:/fchai/work/i-cube/I-CUBE-HUAWEI/Middlewares/Third_Party/Huawei/iot_link/oc/oc_mqtt/oc_mqtt_profile_v5\oc_mqtt_profile_package.c ****     }
 621:D:/fchai/work/i-cube/I-CUBE-HUAWEI/Middlewares/Third_Party/Huawei/iot_link/oc/oc_mqtt/oc_mqtt_profile_v5\oc_mqtt_profile_package.c **** 
ARM GAS  T:\msys\tmp\cckvbb2E.s 			page 41


 622:D:/fchai/work/i-cube/I-CUBE-HUAWEI/Middlewares/Third_Party/Huawei/iot_link/oc/oc_mqtt/oc_mqtt_profile_v5\oc_mqtt_profile_package.c ****     services = cJSON_CreateArray();
 1451              		.loc 1 622 5 is_stmt 1 view .LVU461
 1452              		.loc 1 622 16 is_stmt 0 view .LVU462
 1453 0024 FFF7FEFF 		bl	cJSON_CreateArray
 1454              	.LVL201:
 623:D:/fchai/work/i-cube/I-CUBE-HUAWEI/Middlewares/Third_Party/Huawei/iot_link/oc/oc_mqtt/oc_mqtt_profile_v5\oc_mqtt_profile_package.c ****     if(services == NULL){
 1455              		.loc 1 623 5 is_stmt 1 view .LVU463
 1456              		.loc 1 623 7 is_stmt 0 view .LVU464
 1457 0028 0646     		mov	r6, r0
 1458 002a 0028     		cmp	r0, #0
 1459 002c 3AD0     		beq	.L204
 624:D:/fchai/work/i-cube/I-CUBE-HUAWEI/Middlewares/Third_Party/Huawei/iot_link/oc/oc_mqtt/oc_mqtt_profile_v5\oc_mqtt_profile_package.c ****         goto EXIT_MEM;
 625:D:/fchai/work/i-cube/I-CUBE-HUAWEI/Middlewares/Third_Party/Huawei/iot_link/oc/oc_mqtt/oc_mqtt_profile_v5\oc_mqtt_profile_package.c ****     }
 626:D:/fchai/work/i-cube/I-CUBE-HUAWEI/Middlewares/Third_Party/Huawei/iot_link/oc/oc_mqtt/oc_mqtt_profile_v5\oc_mqtt_profile_package.c ****     cJSON_AddItemToObject(root,CN_OC_JSON_KEY_SERVICES,services);
 1460              		.loc 1 626 5 is_stmt 1 view .LVU465
 1461 002e 0246     		mov	r2, r0
 1462 0030 2049     		ldr	r1, .L237+4
 1463 0032 2046     		mov	r0, r4
 1464              	.LVL202:
 1465              		.loc 1 626 5 is_stmt 0 view .LVU466
 1466 0034 FFF7FEFF 		bl	cJSON_AddItemToObject
 1467              	.LVL203:
 627:D:/fchai/work/i-cube/I-CUBE-HUAWEI/Middlewares/Third_Party/Huawei/iot_link/oc/oc_mqtt/oc_mqtt_profile_v5\oc_mqtt_profile_package.c **** 
 628:D:/fchai/work/i-cube/I-CUBE-HUAWEI/Middlewares/Third_Party/Huawei/iot_link/oc/oc_mqtt/oc_mqtt_profile_v5\oc_mqtt_profile_package.c ****     service = cJSON_CreateObject();
 1468              		.loc 1 628 5 is_stmt 1 view .LVU467
 1469              		.loc 1 628 15 is_stmt 0 view .LVU468
 1470 0038 FFF7FEFF 		bl	cJSON_CreateObject
 1471              	.LVL204:
 629:D:/fchai/work/i-cube/I-CUBE-HUAWEI/Middlewares/Third_Party/Huawei/iot_link/oc/oc_mqtt/oc_mqtt_profile_v5\oc_mqtt_profile_package.c ****     if(service == NULL){
 1472              		.loc 1 629 5 is_stmt 1 view .LVU469
 1473              		.loc 1 629 7 is_stmt 0 view .LVU470
 1474 003c 0746     		mov	r7, r0
 1475 003e 88B3     		cbz	r0, .L204
 630:D:/fchai/work/i-cube/I-CUBE-HUAWEI/Middlewares/Third_Party/Huawei/iot_link/oc/oc_mqtt/oc_mqtt_profile_v5\oc_mqtt_profile_package.c ****         goto EXIT_MEM;
 631:D:/fchai/work/i-cube/I-CUBE-HUAWEI/Middlewares/Third_Party/Huawei/iot_link/oc/oc_mqtt/oc_mqtt_profile_v5\oc_mqtt_profile_package.c ****     }
 632:D:/fchai/work/i-cube/I-CUBE-HUAWEI/Middlewares/Third_Party/Huawei/iot_link/oc/oc_mqtt/oc_mqtt_profile_v5\oc_mqtt_profile_package.c ****     cJSON_AddItemToArray(services, service);
 1476              		.loc 1 632 5 is_stmt 1 view .LVU471
 1477 0040 3046     		mov	r0, r6
 1478              	.LVL205:
 1479              		.loc 1 632 5 is_stmt 0 view .LVU472
 1480 0042 3946     		mov	r1, r7
 1481 0044 FFF7FEFF 		bl	cJSON_AddItemToArray
 1482              	.LVL206:
 633:D:/fchai/work/i-cube/I-CUBE-HUAWEI/Middlewares/Third_Party/Huawei/iot_link/oc/oc_mqtt/oc_mqtt_profile_v5\oc_mqtt_profile_package.c **** 
 634:D:/fchai/work/i-cube/I-CUBE-HUAWEI/Middlewares/Third_Party/Huawei/iot_link/oc/oc_mqtt/oc_mqtt_profile_v5\oc_mqtt_profile_package.c ****     serviceID = cJSON_CreateString(payload->service_id);
 1483              		.loc 1 634 5 is_stmt 1 view .LVU473
 1484              		.loc 1 634 17 is_stmt 0 view .LVU474
 1485 0048 6868     		ldr	r0, [r5, #4]
 1486 004a FFF7FEFF 		bl	cJSON_CreateString
 1487              	.LVL207:
 635:D:/fchai/work/i-cube/I-CUBE-HUAWEI/Middlewares/Third_Party/Huawei/iot_link/oc/oc_mqtt/oc_mqtt_profile_v5\oc_mqtt_profile_package.c ****     if(serviceID == NULL){
 1488              		.loc 1 635 5 is_stmt 1 view .LVU475
 1489              		.loc 1 635 7 is_stmt 0 view .LVU476
 1490 004e 0246     		mov	r2, r0
 1491 0050 40B3     		cbz	r0, .L204
 636:D:/fchai/work/i-cube/I-CUBE-HUAWEI/Middlewares/Third_Party/Huawei/iot_link/oc/oc_mqtt/oc_mqtt_profile_v5\oc_mqtt_profile_package.c ****         goto EXIT_MEM;
 637:D:/fchai/work/i-cube/I-CUBE-HUAWEI/Middlewares/Third_Party/Huawei/iot_link/oc/oc_mqtt/oc_mqtt_profile_v5\oc_mqtt_profile_package.c ****     }
ARM GAS  T:\msys\tmp\cckvbb2E.s 			page 42


 638:D:/fchai/work/i-cube/I-CUBE-HUAWEI/Middlewares/Third_Party/Huawei/iot_link/oc/oc_mqtt/oc_mqtt_profile_v5\oc_mqtt_profile_package.c ****     cJSON_AddItemToObject(service, CN_OC_JSON_KEY_SERVICEID,serviceID);
 1492              		.loc 1 638 5 is_stmt 1 view .LVU477
 1493 0052 3846     		mov	r0, r7
 1494              	.LVL208:
 1495              		.loc 1 638 5 is_stmt 0 view .LVU478
 1496 0054 1849     		ldr	r1, .L237+8
 1497 0056 FFF7FEFF 		bl	cJSON_AddItemToObject
 1498              	.LVL209:
 639:D:/fchai/work/i-cube/I-CUBE-HUAWEI/Middlewares/Third_Party/Huawei/iot_link/oc/oc_mqtt/oc_mqtt_profile_v5\oc_mqtt_profile_package.c **** 
 640:D:/fchai/work/i-cube/I-CUBE-HUAWEI/Middlewares/Third_Party/Huawei/iot_link/oc/oc_mqtt/oc_mqtt_profile_v5\oc_mqtt_profile_package.c ****     if(payload->event_time != NULL){
 1499              		.loc 1 640 5 is_stmt 1 view .LVU479
 1500              		.loc 1 640 15 is_stmt 0 view .LVU480
 1501 005a E868     		ldr	r0, [r5, #12]
 1502              		.loc 1 640 7 view .LVU481
 1503 005c 38B1     		cbz	r0, .L205
 641:D:/fchai/work/i-cube/I-CUBE-HUAWEI/Middlewares/Third_Party/Huawei/iot_link/oc/oc_mqtt/oc_mqtt_profile_v5\oc_mqtt_profile_package.c ****         eventTime = cJSON_CreateString(payload->event_time);
 1504              		.loc 1 641 9 is_stmt 1 view .LVU482
 1505              		.loc 1 641 21 is_stmt 0 view .LVU483
 1506 005e FFF7FEFF 		bl	cJSON_CreateString
 1507              	.LVL210:
 642:D:/fchai/work/i-cube/I-CUBE-HUAWEI/Middlewares/Third_Party/Huawei/iot_link/oc/oc_mqtt/oc_mqtt_profile_v5\oc_mqtt_profile_package.c ****         if(eventTime == NULL){
 1508              		.loc 1 642 9 is_stmt 1 view .LVU484
 1509              		.loc 1 642 11 is_stmt 0 view .LVU485
 1510 0062 0246     		mov	r2, r0
 1511 0064 F0B1     		cbz	r0, .L204
 643:D:/fchai/work/i-cube/I-CUBE-HUAWEI/Middlewares/Third_Party/Huawei/iot_link/oc/oc_mqtt/oc_mqtt_profile_v5\oc_mqtt_profile_package.c ****             goto EXIT_MEM;
 644:D:/fchai/work/i-cube/I-CUBE-HUAWEI/Middlewares/Third_Party/Huawei/iot_link/oc/oc_mqtt/oc_mqtt_profile_v5\oc_mqtt_profile_package.c ****         }
 645:D:/fchai/work/i-cube/I-CUBE-HUAWEI/Middlewares/Third_Party/Huawei/iot_link/oc/oc_mqtt/oc_mqtt_profile_v5\oc_mqtt_profile_package.c ****         cJSON_AddItemToObject(service, CN_OC_JSON_KEY_EVENTTIME, eventTime);
 1512              		.loc 1 645 9 is_stmt 1 view .LVU486
 1513 0066 1549     		ldr	r1, .L237+12
 1514 0068 3846     		mov	r0, r7
 1515              	.LVL211:
 1516              		.loc 1 645 9 is_stmt 0 view .LVU487
 1517 006a FFF7FEFF 		bl	cJSON_AddItemToObject
 1518              	.LVL212:
 1519              	.L205:
 646:D:/fchai/work/i-cube/I-CUBE-HUAWEI/Middlewares/Third_Party/Huawei/iot_link/oc/oc_mqtt/oc_mqtt_profile_v5\oc_mqtt_profile_package.c ****     }
 647:D:/fchai/work/i-cube/I-CUBE-HUAWEI/Middlewares/Third_Party/Huawei/iot_link/oc/oc_mqtt/oc_mqtt_profile_v5\oc_mqtt_profile_package.c **** 
 648:D:/fchai/work/i-cube/I-CUBE-HUAWEI/Middlewares/Third_Party/Huawei/iot_link/oc/oc_mqtt/oc_mqtt_profile_v5\oc_mqtt_profile_package.c ****     eventType = cJSON_CreateString(payload->event_type);
 1520              		.loc 1 648 5 is_stmt 1 view .LVU488
 1521              		.loc 1 648 17 is_stmt 0 view .LVU489
 1522 006e A868     		ldr	r0, [r5, #8]
 1523 0070 FFF7FEFF 		bl	cJSON_CreateString
 1524              	.LVL213:
 649:D:/fchai/work/i-cube/I-CUBE-HUAWEI/Middlewares/Third_Party/Huawei/iot_link/oc/oc_mqtt/oc_mqtt_profile_v5\oc_mqtt_profile_package.c ****     if(eventType == NULL){
 1525              		.loc 1 649 5 is_stmt 1 view .LVU490
 1526              		.loc 1 649 7 is_stmt 0 view .LVU491
 1527 0074 0246     		mov	r2, r0
 1528 0076 A8B1     		cbz	r0, .L204
 650:D:/fchai/work/i-cube/I-CUBE-HUAWEI/Middlewares/Third_Party/Huawei/iot_link/oc/oc_mqtt/oc_mqtt_profile_v5\oc_mqtt_profile_package.c ****         goto EXIT_MEM;
 651:D:/fchai/work/i-cube/I-CUBE-HUAWEI/Middlewares/Third_Party/Huawei/iot_link/oc/oc_mqtt/oc_mqtt_profile_v5\oc_mqtt_profile_package.c ****     }
 652:D:/fchai/work/i-cube/I-CUBE-HUAWEI/Middlewares/Third_Party/Huawei/iot_link/oc/oc_mqtt/oc_mqtt_profile_v5\oc_mqtt_profile_package.c ****     cJSON_AddItemToObject(service, CN_OC_JSON_KEY_EVENTTYPE, eventType);
 1529              		.loc 1 652 5 is_stmt 1 view .LVU492
 1530 0078 1149     		ldr	r1, .L237+16
 1531 007a 3846     		mov	r0, r7
 1532              	.LVL214:
 1533              		.loc 1 652 5 is_stmt 0 view .LVU493
ARM GAS  T:\msys\tmp\cckvbb2E.s 			page 43


 1534 007c FFF7FEFF 		bl	cJSON_AddItemToObject
 1535              	.LVL215:
 653:D:/fchai/work/i-cube/I-CUBE-HUAWEI/Middlewares/Third_Party/Huawei/iot_link/oc/oc_mqtt/oc_mqtt_profile_v5\oc_mqtt_profile_package.c **** 
 654:D:/fchai/work/i-cube/I-CUBE-HUAWEI/Middlewares/Third_Party/Huawei/iot_link/oc/oc_mqtt/oc_mqtt_profile_v5\oc_mqtt_profile_package.c ****     paras = JsonCreateKvLst(payload->paras);
 1536              		.loc 1 654 5 is_stmt 1 view .LVU494
 1537              		.loc 1 654 13 is_stmt 0 view .LVU495
 1538 0080 2869     		ldr	r0, [r5, #16]
 1539 0082 FFF7FEFF 		bl	JsonCreateKvLst
 1540              	.LVL216:
 655:D:/fchai/work/i-cube/I-CUBE-HUAWEI/Middlewares/Third_Party/Huawei/iot_link/oc/oc_mqtt/oc_mqtt_profile_v5\oc_mqtt_profile_package.c ****     if(paras == NULL){
 1541              		.loc 1 655 5 is_stmt 1 view .LVU496
 1542              		.loc 1 655 7 is_stmt 0 view .LVU497
 1543 0086 0246     		mov	r2, r0
 1544 0088 60B1     		cbz	r0, .L204
 656:D:/fchai/work/i-cube/I-CUBE-HUAWEI/Middlewares/Third_Party/Huawei/iot_link/oc/oc_mqtt/oc_mqtt_profile_v5\oc_mqtt_profile_package.c ****         goto EXIT_MEM;
 657:D:/fchai/work/i-cube/I-CUBE-HUAWEI/Middlewares/Third_Party/Huawei/iot_link/oc/oc_mqtt/oc_mqtt_profile_v5\oc_mqtt_profile_package.c ****     }
 658:D:/fchai/work/i-cube/I-CUBE-HUAWEI/Middlewares/Third_Party/Huawei/iot_link/oc/oc_mqtt/oc_mqtt_profile_v5\oc_mqtt_profile_package.c ****     cJSON_AddItemToObject(service,CN_OC_JSON_KEY_PARAS,paras);
 1545              		.loc 1 658 5 is_stmt 1 view .LVU498
 1546 008a 0E49     		ldr	r1, .L237+20
 1547 008c 3846     		mov	r0, r7
 1548              	.LVL217:
 1549              		.loc 1 658 5 is_stmt 0 view .LVU499
 1550 008e FFF7FEFF 		bl	cJSON_AddItemToObject
 1551              	.LVL218:
 659:D:/fchai/work/i-cube/I-CUBE-HUAWEI/Middlewares/Third_Party/Huawei/iot_link/oc/oc_mqtt/oc_mqtt_profile_v5\oc_mqtt_profile_package.c **** 
 660:D:/fchai/work/i-cube/I-CUBE-HUAWEI/Middlewares/Third_Party/Huawei/iot_link/oc/oc_mqtt/oc_mqtt_profile_v5\oc_mqtt_profile_package.c ****     ///< OK, now we make it to a buffer
 661:D:/fchai/work/i-cube/I-CUBE-HUAWEI/Middlewares/Third_Party/Huawei/iot_link/oc/oc_mqtt/oc_mqtt_profile_v5\oc_mqtt_profile_package.c ****     ret = cJSON_PrintUnformatted(root);
 1552              		.loc 1 661 5 is_stmt 1 view .LVU500
 1553              		.loc 1 661 11 is_stmt 0 view .LVU501
 1554 0092 2046     		mov	r0, r4
 1555 0094 FFF7FEFF 		bl	cJSON_PrintUnformatted
 1556              	.LVL219:
 1557 0098 0546     		mov	r5, r0
 1558              	.LVL220:
 662:D:/fchai/work/i-cube/I-CUBE-HUAWEI/Middlewares/Third_Party/Huawei/iot_link/oc/oc_mqtt/oc_mqtt_profile_v5\oc_mqtt_profile_package.c ****     cJSON_Delete(root);
 1559              		.loc 1 662 5 is_stmt 1 view .LVU502
 1560 009a 2046     		mov	r0, r4
 1561              	.LVL221:
 1562              		.loc 1 662 5 is_stmt 0 view .LVU503
 1563 009c FFF7FEFF 		bl	cJSON_Delete
 1564              	.LVL222:
 663:D:/fchai/work/i-cube/I-CUBE-HUAWEI/Middlewares/Third_Party/Huawei/iot_link/oc/oc_mqtt/oc_mqtt_profile_v5\oc_mqtt_profile_package.c ****     return ret;
 1565              		.loc 1 663 5 is_stmt 1 view .LVU504
 1566              		.loc 1 663 12 is_stmt 0 view .LVU505
 1567 00a0 2C46     		mov	r4, r5
 1568              	.LVL223:
 1569              		.loc 1 663 12 view .LVU506
 1570 00a2 03E0     		b	.L201
 1571              	.LVL224:
 1572              	.L204:
 664:D:/fchai/work/i-cube/I-CUBE-HUAWEI/Middlewares/Third_Party/Huawei/iot_link/oc/oc_mqtt/oc_mqtt_profile_v5\oc_mqtt_profile_package.c **** 
 665:D:/fchai/work/i-cube/I-CUBE-HUAWEI/Middlewares/Third_Party/Huawei/iot_link/oc/oc_mqtt/oc_mqtt_profile_v5\oc_mqtt_profile_package.c **** EXIT_MEM:
 666:D:/fchai/work/i-cube/I-CUBE-HUAWEI/Middlewares/Third_Party/Huawei/iot_link/oc/oc_mqtt/oc_mqtt_profile_v5\oc_mqtt_profile_package.c ****     if(NULL != root)
 1573              		.loc 1 666 5 is_stmt 1 view .LVU507
 667:D:/fchai/work/i-cube/I-CUBE-HUAWEI/Middlewares/Third_Party/Huawei/iot_link/oc/oc_mqtt/oc_mqtt_profile_v5\oc_mqtt_profile_package.c ****     {
 668:D:/fchai/work/i-cube/I-CUBE-HUAWEI/Middlewares/Third_Party/Huawei/iot_link/oc/oc_mqtt/oc_mqtt_profile_v5\oc_mqtt_profile_package.c ****        cJSON_Delete(root);
 1574              		.loc 1 668 8 view .LVU508
ARM GAS  T:\msys\tmp\cckvbb2E.s 			page 44


 1575 00a4 2046     		mov	r0, r4
 1576 00a6 FFF7FEFF 		bl	cJSON_Delete
 1577              	.LVL225:
 669:D:/fchai/work/i-cube/I-CUBE-HUAWEI/Middlewares/Third_Party/Huawei/iot_link/oc/oc_mqtt/oc_mqtt_profile_v5\oc_mqtt_profile_package.c ****     }
 670:D:/fchai/work/i-cube/I-CUBE-HUAWEI/Middlewares/Third_Party/Huawei/iot_link/oc/oc_mqtt/oc_mqtt_profile_v5\oc_mqtt_profile_package.c ****     return ret;
 1578              		.loc 1 670 12 is_stmt 0 view .LVU509
 1579 00aa 0024     		movs	r4, #0
 1580              	.LVL226:
 1581              	.L201:
 671:D:/fchai/work/i-cube/I-CUBE-HUAWEI/Middlewares/Third_Party/Huawei/iot_link/oc/oc_mqtt/oc_mqtt_profile_v5\oc_mqtt_profile_package.c **** }
 1582              		.loc 1 671 1 view .LVU510
 1583 00ac 2046     		mov	r0, r4
 1584 00ae F8BD     		pop	{r3, r4, r5, r6, r7, pc}
 1585              	.L238:
 1586              		.align	2
 1587              	.L237:
 1588 00b0 00000000 		.word	.LC3
 1589 00b4 00000000 		.word	.LC7
 1590 00b8 00000000 		.word	.LC0
 1591 00bc 18000000 		.word	.LC2
 1592 00c0 00000000 		.word	.LC13
 1593 00c4 00000000 		.word	.LC12
 1594              		.cfi_endproc
 1595              	.LFE11:
 1597              		.text
 1598              	.Letext0:
 1599              		.file 2 "D:/fchai/work/i-cube/I-CUBE-HUAWEI/Middlewares/Third_Party/Huawei/iot_link/oc/oc_mqtt/oc_
 1600              		.file 3 "D:/fchai/work/i-cube/I-CUBE-HUAWEI/Middlewares/Third_Party/Huawei/iot_link/cJSON/cJSON.h"
ARM GAS  T:\msys\tmp\cckvbb2E.s 			page 45

