ARM GAS  T:\msys\tmp\ccMJI2cA.s 			page 1


   1              		.cpu cortex-m4
   2              		.eabi_attribute 27, 1
   3              		.eabi_attribute 28, 1
   4              		.eabi_attribute 20, 1
   5              		.eabi_attribute 21, 1
   6              		.eabi_attribute 23, 3
   7              		.eabi_attribute 24, 1
   8              		.eabi_attribute 25, 1
   9              		.eabi_attribute 26, 1
  10              		.eabi_attribute 30, 2
  11              		.eabi_attribute 34, 1
  12              		.eabi_attribute 18, 4
  13              		.file	"oc_mqtt_profile.c"
  14              		.text
  15              	.Ltext0:
  16              		.cfi_sections	.debug_frame
  17              		.section	.rodata.app_msg_deal.str1.4,"aMS",%progbits,1
  18              		.align	2
  19              	.LC0:
  20 0000 72657175 		.ascii	"request_id=\000"
  20      6573745F 
  20      69643D00 
  21              		.align	2
  22              	.LC1:
  23 000c 2F737973 		.ascii	"/sys/messages/down\000"
  23      2F6D6573 
  23      73616765 
  23      732F646F 
  23      776E00
  24 001f 00       		.align	2
  25              	.LC2:
  26 0020 2F737973 		.ascii	"/sys/properties/set/\000"
  26      2F70726F 
  26      70657274 
  26      6965732F 
  26      7365742F 
  27 0035 000000   		.align	2
  28              	.LC3:
  29 0038 2F737973 		.ascii	"/sys/properties/get/\000"
  29      2F70726F 
  29      70657274 
  29      6965732F 
  29      6765742F 
  30 004d 000000   		.align	2
  31              	.LC4:
  32 0050 2F737973 		.ascii	"/sys/commands/\000"
  32      2F636F6D 
  32      6D616E64 
  32      732F00
  33 005f 00       		.align	2
  34              	.LC5:
  35 0060 2F737973 		.ascii	"/sys/events/down\000"
  35      2F657665 
  35      6E74732F 
  35      646F776E 
  35      00
  36 0071 000000   		.align	2
ARM GAS  T:\msys\tmp\ccMJI2cA.s 			page 2


  37              	.LC6:
  38 0074 2F737973 		.ascii	"/sys/bootstrap/down\000"
  38      2F626F6F 
  38      74737472 
  38      61702F64 
  38      6F776E00 
  39              		.section	.text.app_msg_deal,"ax",%progbits
  40              		.align	1
  41              		.p2align 2,,3
  42              		.arch armv7e-m
  43              		.syntax unified
  44              		.thumb
  45              		.thumb_func
  46              		.fpu fpv4-sp-d16
  48              	app_msg_deal:
  49              	.LVL0:
  50              	.LFB3:
  51              		.file 1 "D:/fchai/work/i-cube/I-CUBE-HUAWEI/Middlewares/Third_Party/Huawei/iot_link/oc/oc_mqtt/oc_
   1:D:/fchai/work/i-cube/I-CUBE-HUAWEI/Middlewares/Third_Party/Huawei/iot_link/oc/oc_mqtt/oc_mqtt_profile_v5\oc_mqtt_profile.c **** /*----------------------------------------------------------------------------
   2:D:/fchai/work/i-cube/I-CUBE-HUAWEI/Middlewares/Third_Party/Huawei/iot_link/oc/oc_mqtt/oc_mqtt_profile_v5\oc_mqtt_profile.c ****  * Copyright (c) <2018>, <Huawei Technologies Co., Ltd>
   3:D:/fchai/work/i-cube/I-CUBE-HUAWEI/Middlewares/Third_Party/Huawei/iot_link/oc/oc_mqtt/oc_mqtt_profile_v5\oc_mqtt_profile.c ****  * All rights reserved.
   4:D:/fchai/work/i-cube/I-CUBE-HUAWEI/Middlewares/Third_Party/Huawei/iot_link/oc/oc_mqtt/oc_mqtt_profile_v5\oc_mqtt_profile.c ****  * Redistribution and use in source and binary forms, with or without modification,
   5:D:/fchai/work/i-cube/I-CUBE-HUAWEI/Middlewares/Third_Party/Huawei/iot_link/oc/oc_mqtt/oc_mqtt_profile_v5\oc_mqtt_profile.c ****  * are permitted provided that the following conditions are met:
   6:D:/fchai/work/i-cube/I-CUBE-HUAWEI/Middlewares/Third_Party/Huawei/iot_link/oc/oc_mqtt/oc_mqtt_profile_v5\oc_mqtt_profile.c ****  * 1. Redistributions of source code must retain the above copyright notice, this list of
   7:D:/fchai/work/i-cube/I-CUBE-HUAWEI/Middlewares/Third_Party/Huawei/iot_link/oc/oc_mqtt/oc_mqtt_profile_v5\oc_mqtt_profile.c ****  * conditions and the following disclaimer.
   8:D:/fchai/work/i-cube/I-CUBE-HUAWEI/Middlewares/Third_Party/Huawei/iot_link/oc/oc_mqtt/oc_mqtt_profile_v5\oc_mqtt_profile.c ****  * 2. Redistributions in binary form must reproduce the above copyright notice, this list
   9:D:/fchai/work/i-cube/I-CUBE-HUAWEI/Middlewares/Third_Party/Huawei/iot_link/oc/oc_mqtt/oc_mqtt_profile_v5\oc_mqtt_profile.c ****  * of conditions and the following disclaimer in the documentation and/or other materials
  10:D:/fchai/work/i-cube/I-CUBE-HUAWEI/Middlewares/Third_Party/Huawei/iot_link/oc/oc_mqtt/oc_mqtt_profile_v5\oc_mqtt_profile.c ****  * provided with the distribution.
  11:D:/fchai/work/i-cube/I-CUBE-HUAWEI/Middlewares/Third_Party/Huawei/iot_link/oc/oc_mqtt/oc_mqtt_profile_v5\oc_mqtt_profile.c ****  * 3. Neither the name of the copyright holder nor the names of its contributors may be used
  12:D:/fchai/work/i-cube/I-CUBE-HUAWEI/Middlewares/Third_Party/Huawei/iot_link/oc/oc_mqtt/oc_mqtt_profile_v5\oc_mqtt_profile.c ****  * to endorse or promote products derived from this software without specific prior written
  13:D:/fchai/work/i-cube/I-CUBE-HUAWEI/Middlewares/Third_Party/Huawei/iot_link/oc/oc_mqtt/oc_mqtt_profile_v5\oc_mqtt_profile.c ****  * permission.
  14:D:/fchai/work/i-cube/I-CUBE-HUAWEI/Middlewares/Third_Party/Huawei/iot_link/oc/oc_mqtt/oc_mqtt_profile_v5\oc_mqtt_profile.c ****  * THIS SOFTWARE IS PROVIDED BY THE COPYRIGHT HOLDERS AND CONTRIBUTORS
  15:D:/fchai/work/i-cube/I-CUBE-HUAWEI/Middlewares/Third_Party/Huawei/iot_link/oc/oc_mqtt/oc_mqtt_profile_v5\oc_mqtt_profile.c ****  * "AS IS" AND ANY EXPRESS OR IMPLIED WARRANTIES, INCLUDING, BUT NOT LIMITED TO,
  16:D:/fchai/work/i-cube/I-CUBE-HUAWEI/Middlewares/Third_Party/Huawei/iot_link/oc/oc_mqtt/oc_mqtt_profile_v5\oc_mqtt_profile.c ****  * THE IMPLIED WARRANTIES OF MERCHANTABILITY AND FITNESS FOR A PARTICULAR
  17:D:/fchai/work/i-cube/I-CUBE-HUAWEI/Middlewares/Third_Party/Huawei/iot_link/oc/oc_mqtt/oc_mqtt_profile_v5\oc_mqtt_profile.c ****  * PURPOSE ARE DISCLAIMED. IN NO EVENT SHALL THE COPYRIGHT HOLDER OR
  18:D:/fchai/work/i-cube/I-CUBE-HUAWEI/Middlewares/Third_Party/Huawei/iot_link/oc/oc_mqtt/oc_mqtt_profile_v5\oc_mqtt_profile.c ****  * CONTRIBUTORS BE LIABLE FOR ANY DIRECT, INDIRECT, INCIDENTAL, SPECIAL,
  19:D:/fchai/work/i-cube/I-CUBE-HUAWEI/Middlewares/Third_Party/Huawei/iot_link/oc/oc_mqtt/oc_mqtt_profile_v5\oc_mqtt_profile.c ****  * EXEMPLARY, OR CONSEQUENTIAL DAMAGES (INCLUDING, BUT NOT LIMITED TO,
  20:D:/fchai/work/i-cube/I-CUBE-HUAWEI/Middlewares/Third_Party/Huawei/iot_link/oc/oc_mqtt/oc_mqtt_profile_v5\oc_mqtt_profile.c ****  * PROCUREMENT OF SUBSTITUTE GOODS OR SERVICES; LOSS OF USE, DATA, OR PROFITS;
  21:D:/fchai/work/i-cube/I-CUBE-HUAWEI/Middlewares/Third_Party/Huawei/iot_link/oc/oc_mqtt/oc_mqtt_profile_v5\oc_mqtt_profile.c ****  * OR BUSINESS INTERRUPTION) HOWEVER CAUSED AND ON ANY THEORY OF LIABILITY,
  22:D:/fchai/work/i-cube/I-CUBE-HUAWEI/Middlewares/Third_Party/Huawei/iot_link/oc/oc_mqtt/oc_mqtt_profile_v5\oc_mqtt_profile.c ****  * WHETHER IN CONTRACT, STRICT LIABILITY, OR TORT (INCLUDING NEGLIGENCE OR
  23:D:/fchai/work/i-cube/I-CUBE-HUAWEI/Middlewares/Third_Party/Huawei/iot_link/oc/oc_mqtt/oc_mqtt_profile_v5\oc_mqtt_profile.c ****  * OTHERWISE) ARISING IN ANY WAY OUT OF THE USE OF THIS SOFTWARE, EVEN IF
  24:D:/fchai/work/i-cube/I-CUBE-HUAWEI/Middlewares/Third_Party/Huawei/iot_link/oc/oc_mqtt/oc_mqtt_profile_v5\oc_mqtt_profile.c ****  * ADVISED OF THE POSSIBILITY OF SUCH DAMAGE.
  25:D:/fchai/work/i-cube/I-CUBE-HUAWEI/Middlewares/Third_Party/Huawei/iot_link/oc/oc_mqtt/oc_mqtt_profile_v5\oc_mqtt_profile.c ****  *---------------------------------------------------------------------------*/
  26:D:/fchai/work/i-cube/I-CUBE-HUAWEI/Middlewares/Third_Party/Huawei/iot_link/oc/oc_mqtt/oc_mqtt_profile_v5\oc_mqtt_profile.c **** /*----------------------------------------------------------------------------
  27:D:/fchai/work/i-cube/I-CUBE-HUAWEI/Middlewares/Third_Party/Huawei/iot_link/oc/oc_mqtt/oc_mqtt_profile_v5\oc_mqtt_profile.c ****  * Notice of Export Control Law
  28:D:/fchai/work/i-cube/I-CUBE-HUAWEI/Middlewares/Third_Party/Huawei/iot_link/oc/oc_mqtt/oc_mqtt_profile_v5\oc_mqtt_profile.c ****  * ===============================================
  29:D:/fchai/work/i-cube/I-CUBE-HUAWEI/Middlewares/Third_Party/Huawei/iot_link/oc/oc_mqtt/oc_mqtt_profile_v5\oc_mqtt_profile.c ****  * Huawei LiteOS may be subject to applicable export control laws and regulations, which might
  30:D:/fchai/work/i-cube/I-CUBE-HUAWEI/Middlewares/Third_Party/Huawei/iot_link/oc/oc_mqtt/oc_mqtt_profile_v5\oc_mqtt_profile.c ****  * include those applicable to Huawei LiteOS of U.S. and the country in which you are located.
  31:D:/fchai/work/i-cube/I-CUBE-HUAWEI/Middlewares/Third_Party/Huawei/iot_link/oc/oc_mqtt/oc_mqtt_profile_v5\oc_mqtt_profile.c ****  * Import, export and usage of Huawei LiteOS in any manner by you shall be in compliance with such
  32:D:/fchai/work/i-cube/I-CUBE-HUAWEI/Middlewares/Third_Party/Huawei/iot_link/oc/oc_mqtt/oc_mqtt_profile_v5\oc_mqtt_profile.c ****  * applicable export control laws and regulations.
  33:D:/fchai/work/i-cube/I-CUBE-HUAWEI/Middlewares/Third_Party/Huawei/iot_link/oc/oc_mqtt/oc_mqtt_profile_v5\oc_mqtt_profile.c ****  *---------------------------------------------------------------------------*/
  34:D:/fchai/work/i-cube/I-CUBE-HUAWEI/Middlewares/Third_Party/Huawei/iot_link/oc/oc_mqtt/oc_mqtt_profile_v5\oc_mqtt_profile.c **** /**
  35:D:/fchai/work/i-cube/I-CUBE-HUAWEI/Middlewares/Third_Party/Huawei/iot_link/oc/oc_mqtt/oc_mqtt_profile_v5\oc_mqtt_profile.c ****  *  DATE                AUTHOR      INSTRUCTION
  36:D:/fchai/work/i-cube/I-CUBE-HUAWEI/Middlewares/Third_Party/Huawei/iot_link/oc/oc_mqtt/oc_mqtt_profile_v5\oc_mqtt_profile.c ****  *  2020-02-05 17:00  zhangqianfu  The first version
  37:D:/fchai/work/i-cube/I-CUBE-HUAWEI/Middlewares/Third_Party/Huawei/iot_link/oc/oc_mqtt/oc_mqtt_profile_v5\oc_mqtt_profile.c ****  *
  38:D:/fchai/work/i-cube/I-CUBE-HUAWEI/Middlewares/Third_Party/Huawei/iot_link/oc/oc_mqtt/oc_mqtt_profile_v5\oc_mqtt_profile.c ****  */
  39:D:/fchai/work/i-cube/I-CUBE-HUAWEI/Middlewares/Third_Party/Huawei/iot_link/oc/oc_mqtt/oc_mqtt_profile_v5\oc_mqtt_profile.c **** 
ARM GAS  T:\msys\tmp\ccMJI2cA.s 			page 3


  40:D:/fchai/work/i-cube/I-CUBE-HUAWEI/Middlewares/Third_Party/Huawei/iot_link/oc/oc_mqtt/oc_mqtt_profile_v5\oc_mqtt_profile.c **** #include <string.h>
  41:D:/fchai/work/i-cube/I-CUBE-HUAWEI/Middlewares/Third_Party/Huawei/iot_link/oc/oc_mqtt/oc_mqtt_profile_v5\oc_mqtt_profile.c **** #include <stdio.h>
  42:D:/fchai/work/i-cube/I-CUBE-HUAWEI/Middlewares/Third_Party/Huawei/iot_link/oc/oc_mqtt/oc_mqtt_profile_v5\oc_mqtt_profile.c **** 
  43:D:/fchai/work/i-cube/I-CUBE-HUAWEI/Middlewares/Third_Party/Huawei/iot_link/oc/oc_mqtt/oc_mqtt_profile_v5\oc_mqtt_profile.c **** #include <link_misc.h>
  44:D:/fchai/work/i-cube/I-CUBE-HUAWEI/Middlewares/Third_Party/Huawei/iot_link/oc/oc_mqtt/oc_mqtt_profile_v5\oc_mqtt_profile.c **** #include <osal.h>
  45:D:/fchai/work/i-cube/I-CUBE-HUAWEI/Middlewares/Third_Party/Huawei/iot_link/oc/oc_mqtt/oc_mqtt_profile_v5\oc_mqtt_profile.c **** #include <oc_mqtt_al.h>
  46:D:/fchai/work/i-cube/I-CUBE-HUAWEI/Middlewares/Third_Party/Huawei/iot_link/oc/oc_mqtt/oc_mqtt_profile_v5\oc_mqtt_profile.c **** #include <oc_mqtt_profile.h>
  47:D:/fchai/work/i-cube/I-CUBE-HUAWEI/Middlewares/Third_Party/Huawei/iot_link/oc/oc_mqtt/oc_mqtt_profile_v5\oc_mqtt_profile.c **** #include <oc_mqtt_profile_package.h>
  48:D:/fchai/work/i-cube/I-CUBE-HUAWEI/Middlewares/Third_Party/Huawei/iot_link/oc/oc_mqtt/oc_mqtt_profile_v5\oc_mqtt_profile.c **** 
  49:D:/fchai/work/i-cube/I-CUBE-HUAWEI/Middlewares/Third_Party/Huawei/iot_link/oc/oc_mqtt/oc_mqtt_profile_v5\oc_mqtt_profile.c **** typedef struct
  50:D:/fchai/work/i-cube/I-CUBE-HUAWEI/Middlewares/Third_Party/Huawei/iot_link/oc/oc_mqtt/oc_mqtt_profile_v5\oc_mqtt_profile.c **** {
  51:D:/fchai/work/i-cube/I-CUBE-HUAWEI/Middlewares/Third_Party/Huawei/iot_link/oc/oc_mqtt/oc_mqtt_profile_v5\oc_mqtt_profile.c ****     char                        *device_id;
  52:D:/fchai/work/i-cube/I-CUBE-HUAWEI/Middlewares/Third_Party/Huawei/iot_link/oc/oc_mqtt/oc_mqtt_profile_v5\oc_mqtt_profile.c ****     fn_oc_mqtt_profile_rcvdeal   rcvfunc;
  53:D:/fchai/work/i-cube/I-CUBE-HUAWEI/Middlewares/Third_Party/Huawei/iot_link/oc/oc_mqtt/oc_mqtt_profile_v5\oc_mqtt_profile.c **** }oc_mqtt_profile_cb_t;
  54:D:/fchai/work/i-cube/I-CUBE-HUAWEI/Middlewares/Third_Party/Huawei/iot_link/oc/oc_mqtt/oc_mqtt_profile_v5\oc_mqtt_profile.c **** 
  55:D:/fchai/work/i-cube/I-CUBE-HUAWEI/Middlewares/Third_Party/Huawei/iot_link/oc/oc_mqtt/oc_mqtt_profile_v5\oc_mqtt_profile.c **** static oc_mqtt_profile_cb_t s_oc_mqtt_profile_cb;
  56:D:/fchai/work/i-cube/I-CUBE-HUAWEI/Middlewares/Third_Party/Huawei/iot_link/oc/oc_mqtt/oc_mqtt_profile_v5\oc_mqtt_profile.c **** 
  57:D:/fchai/work/i-cube/I-CUBE-HUAWEI/Middlewares/Third_Party/Huawei/iot_link/oc/oc_mqtt/oc_mqtt_profile_v5\oc_mqtt_profile.c **** 
  58:D:/fchai/work/i-cube/I-CUBE-HUAWEI/Middlewares/Third_Party/Huawei/iot_link/oc/oc_mqtt/oc_mqtt_profile_v5\oc_mqtt_profile.c **** /**
  59:D:/fchai/work/i-cube/I-CUBE-HUAWEI/Middlewares/Third_Party/Huawei/iot_link/oc/oc_mqtt/oc_mqtt_profile_v5\oc_mqtt_profile.c ****  * @brief: we use this function to deal all the received message and passed to the user
  60:D:/fchai/work/i-cube/I-CUBE-HUAWEI/Middlewares/Third_Party/Huawei/iot_link/oc/oc_mqtt/oc_mqtt_profile_v5\oc_mqtt_profile.c ****  *
  61:D:/fchai/work/i-cube/I-CUBE-HUAWEI/Middlewares/Third_Party/Huawei/iot_link/oc/oc_mqtt/oc_mqtt_profile_v5\oc_mqtt_profile.c ****  *
  62:D:/fchai/work/i-cube/I-CUBE-HUAWEI/Middlewares/Third_Party/Huawei/iot_link/oc/oc_mqtt/oc_mqtt_profile_v5\oc_mqtt_profile.c ****  * @return: 0 success while -1 failed, not used yet
  63:D:/fchai/work/i-cube/I-CUBE-HUAWEI/Middlewares/Third_Party/Huawei/iot_link/oc/oc_mqtt/oc_mqtt_profile_v5\oc_mqtt_profile.c ****  * */
  64:D:/fchai/work/i-cube/I-CUBE-HUAWEI/Middlewares/Third_Party/Huawei/iot_link/oc/oc_mqtt/oc_mqtt_profile_v5\oc_mqtt_profile.c **** 
  65:D:/fchai/work/i-cube/I-CUBE-HUAWEI/Middlewares/Third_Party/Huawei/iot_link/oc/oc_mqtt/oc_mqtt_profile_v5\oc_mqtt_profile.c **** //use this function to push all the message to the buffer
  66:D:/fchai/work/i-cube/I-CUBE-HUAWEI/Middlewares/Third_Party/Huawei/iot_link/oc/oc_mqtt/oc_mqtt_profile_v5\oc_mqtt_profile.c **** 
  67:D:/fchai/work/i-cube/I-CUBE-HUAWEI/Middlewares/Third_Party/Huawei/iot_link/oc/oc_mqtt/oc_mqtt_profile_v5\oc_mqtt_profile.c **** #define CN_OC_MQTT_PROFILE_REQUESTID_INDEX             "request_id="
  68:D:/fchai/work/i-cube/I-CUBE-HUAWEI/Middlewares/Third_Party/Huawei/iot_link/oc/oc_mqtt/oc_mqtt_profile_v5\oc_mqtt_profile.c **** #define CN_OC_MQTT_PROFILE_MSGDOWN_INDEX               "/sys/messages/down"
  69:D:/fchai/work/i-cube/I-CUBE-HUAWEI/Middlewares/Third_Party/Huawei/iot_link/oc/oc_mqtt/oc_mqtt_profile_v5\oc_mqtt_profile.c **** #define CN_OC_MQTT_PROFILE_SETPROPERTY_INDEX           "/sys/properties/set/"
  70:D:/fchai/work/i-cube/I-CUBE-HUAWEI/Middlewares/Third_Party/Huawei/iot_link/oc/oc_mqtt/oc_mqtt_profile_v5\oc_mqtt_profile.c **** #define CN_OC_MQTT_PROFILE_GETPROPERTY_INDEX           "/sys/properties/get/"
  71:D:/fchai/work/i-cube/I-CUBE-HUAWEI/Middlewares/Third_Party/Huawei/iot_link/oc/oc_mqtt/oc_mqtt_profile_v5\oc_mqtt_profile.c **** #define CN_OC_MQTT_PROFILE_CMD_INDEX                   "/sys/commands/"
  72:D:/fchai/work/i-cube/I-CUBE-HUAWEI/Middlewares/Third_Party/Huawei/iot_link/oc/oc_mqtt/oc_mqtt_profile_v5\oc_mqtt_profile.c **** #define CN_OC_MQTT_PROFILE_EVENTDOWN_INDEX             "/sys/events/down"
  73:D:/fchai/work/i-cube/I-CUBE-HUAWEI/Middlewares/Third_Party/Huawei/iot_link/oc/oc_mqtt/oc_mqtt_profile_v5\oc_mqtt_profile.c **** #define CN_OC_MQTT_PROFILE_BS_INDEX                    "/sys/bootstrap/down"
  74:D:/fchai/work/i-cube/I-CUBE-HUAWEI/Middlewares/Third_Party/Huawei/iot_link/oc/oc_mqtt/oc_mqtt_profile_v5\oc_mqtt_profile.c **** 
  75:D:/fchai/work/i-cube/I-CUBE-HUAWEI/Middlewares/Third_Party/Huawei/iot_link/oc/oc_mqtt/oc_mqtt_profile_v5\oc_mqtt_profile.c **** static int app_msg_deal(void *arg,mqtt_al_msgrcv_t *msg)
  76:D:/fchai/work/i-cube/I-CUBE-HUAWEI/Middlewares/Third_Party/Huawei/iot_link/oc/oc_mqtt/oc_mqtt_profile_v5\oc_mqtt_profile.c **** {
  52              		.loc 1 76 1 view -0
  53              		.cfi_startproc
  54              		@ args = 0, pretend = 0, frame = 16
  55              		@ frame_needed = 0, uses_anonymous_args = 0
  77:D:/fchai/work/i-cube/I-CUBE-HUAWEI/Middlewares/Third_Party/Huawei/iot_link/oc/oc_mqtt/oc_mqtt_profile_v5\oc_mqtt_profile.c ****     int ret = -1;
  56              		.loc 1 77 5 view .LVU1
  78:D:/fchai/work/i-cube/I-CUBE-HUAWEI/Middlewares/Third_Party/Huawei/iot_link/oc/oc_mqtt/oc_mqtt_profile_v5\oc_mqtt_profile.c **** 
  79:D:/fchai/work/i-cube/I-CUBE-HUAWEI/Middlewares/Third_Party/Huawei/iot_link/oc/oc_mqtt/oc_mqtt_profile_v5\oc_mqtt_profile.c ****     char *request_id = NULL;
  57              		.loc 1 79 5 view .LVU2
  80:D:/fchai/work/i-cube/I-CUBE-HUAWEI/Middlewares/Third_Party/Huawei/iot_link/oc/oc_mqtt/oc_mqtt_profile_v5\oc_mqtt_profile.c ****     char *topicbuf;
  58              		.loc 1 80 5 view .LVU3
  81:D:/fchai/work/i-cube/I-CUBE-HUAWEI/Middlewares/Third_Party/Huawei/iot_link/oc/oc_mqtt/oc_mqtt_profile_v5\oc_mqtt_profile.c ****     oc_mqtt_profile_msgrcv_t  message;
  59              		.loc 1 81 5 view .LVU4
  82:D:/fchai/work/i-cube/I-CUBE-HUAWEI/Middlewares/Third_Party/Huawei/iot_link/oc/oc_mqtt/oc_mqtt_profile_v5\oc_mqtt_profile.c **** 
  83:D:/fchai/work/i-cube/I-CUBE-HUAWEI/Middlewares/Third_Party/Huawei/iot_link/oc/oc_mqtt/oc_mqtt_profile_v5\oc_mqtt_profile.c ****     topicbuf = osal_malloc(msg->topic.len + 1);
  60              		.loc 1 83 5 view .LVU5
  76:D:/fchai/work/i-cube/I-CUBE-HUAWEI/Middlewares/Third_Party/Huawei/iot_link/oc/oc_mqtt/oc_mqtt_profile_v5\oc_mqtt_profile.c ****     int ret = -1;
  61              		.loc 1 76 1 is_stmt 0 view .LVU6
  62 0000 70B5     		push	{r4, r5, r6, lr}
  63              	.LCFI0:
ARM GAS  T:\msys\tmp\ccMJI2cA.s 			page 4


  64              		.cfi_def_cfa_offset 16
  65              		.cfi_offset 4, -16
  66              		.cfi_offset 5, -12
  67              		.cfi_offset 6, -8
  68              		.cfi_offset 14, -4
  69              		.loc 1 83 43 view .LVU7
  70 0002 4868     		ldr	r0, [r1, #4]
  71              	.LVL1:
  76:D:/fchai/work/i-cube/I-CUBE-HUAWEI/Middlewares/Third_Party/Huawei/iot_link/oc/oc_mqtt/oc_mqtt_profile_v5\oc_mqtt_profile.c ****     int ret = -1;
  72              		.loc 1 76 1 view .LVU8
  73 0004 84B0     		sub	sp, sp, #16
  74              	.LCFI1:
  75              		.cfi_def_cfa_offset 32
  76              		.loc 1 83 16 view .LVU9
  77 0006 0130     		adds	r0, r0, #1
  76:D:/fchai/work/i-cube/I-CUBE-HUAWEI/Middlewares/Third_Party/Huawei/iot_link/oc/oc_mqtt/oc_mqtt_profile_v5\oc_mqtt_profile.c ****     int ret = -1;
  78              		.loc 1 76 1 view .LVU10
  79 0008 0C46     		mov	r4, r1
  80              		.loc 1 83 16 view .LVU11
  81 000a FFF7FEFF 		bl	osal_malloc
  82              	.LVL2:
  84:D:/fchai/work/i-cube/I-CUBE-HUAWEI/Middlewares/Third_Party/Huawei/iot_link/oc/oc_mqtt/oc_mqtt_profile_v5\oc_mqtt_profile.c ****     if(NULL == topicbuf)
  83              		.loc 1 84 5 is_stmt 1 view .LVU12
  84              		.loc 1 84 7 is_stmt 0 view .LVU13
  85 000e 10B3     		cbz	r0, .L2
  85:D:/fchai/work/i-cube/I-CUBE-HUAWEI/Middlewares/Third_Party/Huawei/iot_link/oc/oc_mqtt/oc_mqtt_profile_v5\oc_mqtt_profile.c ****     {
  86:D:/fchai/work/i-cube/I-CUBE-HUAWEI/Middlewares/Third_Party/Huawei/iot_link/oc/oc_mqtt/oc_mqtt_profile_v5\oc_mqtt_profile.c ****         return ret;
  87:D:/fchai/work/i-cube/I-CUBE-HUAWEI/Middlewares/Third_Party/Huawei/iot_link/oc/oc_mqtt/oc_mqtt_profile_v5\oc_mqtt_profile.c ****     }
  88:D:/fchai/work/i-cube/I-CUBE-HUAWEI/Middlewares/Third_Party/Huawei/iot_link/oc/oc_mqtt/oc_mqtt_profile_v5\oc_mqtt_profile.c ****     memcpy(topicbuf, msg->topic.data, msg->topic.len);
  86              		.loc 1 88 5 is_stmt 1 view .LVU14
  87 0010 D4E90012 		ldrd	r1, r2, [r4]
  88 0014 0546     		mov	r5, r0
  89 0016 FFF7FEFF 		bl	memcpy
  90              	.LVL3:
  89:D:/fchai/work/i-cube/I-CUBE-HUAWEI/Middlewares/Third_Party/Huawei/iot_link/oc/oc_mqtt/oc_mqtt_profile_v5\oc_mqtt_profile.c ****     topicbuf[msg->topic.len] = '\0';
  91              		.loc 1 89 5 view .LVU15
  90:D:/fchai/work/i-cube/I-CUBE-HUAWEI/Middlewares/Third_Party/Huawei/iot_link/oc/oc_mqtt/oc_mqtt_profile_v5\oc_mqtt_profile.c ****     if(NULL != s_oc_mqtt_profile_cb.rcvfunc)
  92              		.loc 1 90 36 is_stmt 0 view .LVU16
  93 001a 294A     		ldr	r2, .L23
  89:D:/fchai/work/i-cube/I-CUBE-HUAWEI/Middlewares/Third_Party/Huawei/iot_link/oc/oc_mqtt/oc_mqtt_profile_v5\oc_mqtt_profile.c ****     topicbuf[msg->topic.len] = '\0';
  94              		.loc 1 89 30 view .LVU17
  95 001c 6368     		ldr	r3, [r4, #4]
  96              		.loc 1 90 36 view .LVU18
  97 001e 5668     		ldr	r6, [r2, #4]
  89:D:/fchai/work/i-cube/I-CUBE-HUAWEI/Middlewares/Third_Party/Huawei/iot_link/oc/oc_mqtt/oc_mqtt_profile_v5\oc_mqtt_profile.c ****     topicbuf[msg->topic.len] = '\0';
  98              		.loc 1 89 30 view .LVU19
  99 0020 0022     		movs	r2, #0
 100 0022 EA54     		strb	r2, [r5, r3]
 101              		.loc 1 90 5 is_stmt 1 view .LVU20
 102              		.loc 1 90 7 is_stmt 0 view .LVU21
 103 0024 A6B1     		cbz	r6, .L3
  91:D:/fchai/work/i-cube/I-CUBE-HUAWEI/Middlewares/Third_Party/Huawei/iot_link/oc/oc_mqtt/oc_mqtt_profile_v5\oc_mqtt_profile.c ****     {
  92:D:/fchai/work/i-cube/I-CUBE-HUAWEI/Middlewares/Third_Party/Huawei/iot_link/oc/oc_mqtt/oc_mqtt_profile_v5\oc_mqtt_profile.c ****         message.msg = msg->msg.data;
 104              		.loc 1 92 9 is_stmt 1 view .LVU22
  93:D:/fchai/work/i-cube/I-CUBE-HUAWEI/Middlewares/Third_Party/Huawei/iot_link/oc/oc_mqtt/oc_mqtt_profile_v5\oc_mqtt_profile.c ****         message.msg_len = msg->msg.len;
 105              		.loc 1 93 25 is_stmt 0 view .LVU23
 106 0026 D4E90223 		ldrd	r2, r3, [r4, #8]
ARM GAS  T:\msys\tmp\ccMJI2cA.s 			page 5


  94:D:/fchai/work/i-cube/I-CUBE-HUAWEI/Middlewares/Third_Party/Huawei/iot_link/oc/oc_mqtt/oc_mqtt_profile_v5\oc_mqtt_profile.c **** 
  95:D:/fchai/work/i-cube/I-CUBE-HUAWEI/Middlewares/Third_Party/Huawei/iot_link/oc/oc_mqtt/oc_mqtt_profile_v5\oc_mqtt_profile.c ****         request_id = strstr(topicbuf,CN_OC_MQTT_PROFILE_REQUESTID_INDEX);
 107              		.loc 1 95 22 view .LVU24
 108 002a 2649     		ldr	r1, .L23+4
  92:D:/fchai/work/i-cube/I-CUBE-HUAWEI/Middlewares/Third_Party/Huawei/iot_link/oc/oc_mqtt/oc_mqtt_profile_v5\oc_mqtt_profile.c ****         message.msg_len = msg->msg.len;
 109              		.loc 1 92 21 view .LVU25
 110 002c 0292     		str	r2, [sp, #8]
  93:D:/fchai/work/i-cube/I-CUBE-HUAWEI/Middlewares/Third_Party/Huawei/iot_link/oc/oc_mqtt/oc_mqtt_profile_v5\oc_mqtt_profile.c ****         message.msg_len = msg->msg.len;
 111              		.loc 1 93 9 is_stmt 1 view .LVU26
 112              		.loc 1 95 22 is_stmt 0 view .LVU27
 113 002e 2846     		mov	r0, r5
  93:D:/fchai/work/i-cube/I-CUBE-HUAWEI/Middlewares/Third_Party/Huawei/iot_link/oc/oc_mqtt/oc_mqtt_profile_v5\oc_mqtt_profile.c ****         message.msg_len = msg->msg.len;
 114              		.loc 1 93 25 view .LVU28
 115 0030 0393     		str	r3, [sp, #12]
 116              		.loc 1 95 9 is_stmt 1 view .LVU29
 117              		.loc 1 95 22 is_stmt 0 view .LVU30
 118 0032 FFF7FEFF 		bl	strstr
 119              	.LVL4:
  96:D:/fchai/work/i-cube/I-CUBE-HUAWEI/Middlewares/Third_Party/Huawei/iot_link/oc/oc_mqtt/oc_mqtt_profile_v5\oc_mqtt_profile.c ****         if(NULL != request_id)
 120              		.loc 1 96 9 is_stmt 1 view .LVU31
 121              		.loc 1 96 11 is_stmt 0 view .LVU32
 122 0036 00B1     		cbz	r0, .L4
  97:D:/fchai/work/i-cube/I-CUBE-HUAWEI/Middlewares/Third_Party/Huawei/iot_link/oc/oc_mqtt/oc_mqtt_profile_v5\oc_mqtt_profile.c ****         {
  98:D:/fchai/work/i-cube/I-CUBE-HUAWEI/Middlewares/Third_Party/Huawei/iot_link/oc/oc_mqtt/oc_mqtt_profile_v5\oc_mqtt_profile.c ****             request_id  += strlen(CN_OC_MQTT_PROFILE_REQUESTID_INDEX);
 123              		.loc 1 98 13 is_stmt 1 view .LVU33
 124              		.loc 1 98 25 is_stmt 0 view .LVU34
 125 0038 0B30     		adds	r0, r0, #11
 126              	.LVL5:
  99:D:/fchai/work/i-cube/I-CUBE-HUAWEI/Middlewares/Third_Party/Huawei/iot_link/oc/oc_mqtt/oc_mqtt_profile_v5\oc_mqtt_profile.c ****             message.request_id = request_id;
 127              		.loc 1 99 13 is_stmt 1 view .LVU35
 128              	.L4:
 129              		.loc 1 99 13 is_stmt 0 view .LVU36
 130 003a 0190     		str	r0, [sp, #4]
 100:D:/fchai/work/i-cube/I-CUBE-HUAWEI/Middlewares/Third_Party/Huawei/iot_link/oc/oc_mqtt/oc_mqtt_profile_v5\oc_mqtt_profile.c ****         }
 101:D:/fchai/work/i-cube/I-CUBE-HUAWEI/Middlewares/Third_Party/Huawei/iot_link/oc/oc_mqtt/oc_mqtt_profile_v5\oc_mqtt_profile.c ****         else
 102:D:/fchai/work/i-cube/I-CUBE-HUAWEI/Middlewares/Third_Party/Huawei/iot_link/oc/oc_mqtt/oc_mqtt_profile_v5\oc_mqtt_profile.c ****         {
 103:D:/fchai/work/i-cube/I-CUBE-HUAWEI/Middlewares/Third_Party/Huawei/iot_link/oc/oc_mqtt/oc_mqtt_profile_v5\oc_mqtt_profile.c ****             message.request_id = NULL;
 104:D:/fchai/work/i-cube/I-CUBE-HUAWEI/Middlewares/Third_Party/Huawei/iot_link/oc/oc_mqtt/oc_mqtt_profile_v5\oc_mqtt_profile.c ****         }
 105:D:/fchai/work/i-cube/I-CUBE-HUAWEI/Middlewares/Third_Party/Huawei/iot_link/oc/oc_mqtt/oc_mqtt_profile_v5\oc_mqtt_profile.c **** 
 106:D:/fchai/work/i-cube/I-CUBE-HUAWEI/Middlewares/Third_Party/Huawei/iot_link/oc/oc_mqtt/oc_mqtt_profile_v5\oc_mqtt_profile.c ****         if(NULL != strstr(topicbuf,CN_OC_MQTT_PROFILE_MSGDOWN_INDEX))
 131              		.loc 1 106 9 is_stmt 1 view .LVU37
 132              		.loc 1 106 20 is_stmt 0 view .LVU38
 133 003c 2249     		ldr	r1, .L23+8
 134 003e 2846     		mov	r0, r5
 135              	.LVL6:
 136              		.loc 1 106 20 view .LVU39
 137 0040 FFF7FEFF 		bl	strstr
 138              	.LVL7:
 139              		.loc 1 106 11 view .LVU40
 140 0044 58B1     		cbz	r0, .L5
 107:D:/fchai/work/i-cube/I-CUBE-HUAWEI/Middlewares/Third_Party/Huawei/iot_link/oc/oc_mqtt/oc_mqtt_profile_v5\oc_mqtt_profile.c ****         {
 108:D:/fchai/work/i-cube/I-CUBE-HUAWEI/Middlewares/Third_Party/Huawei/iot_link/oc/oc_mqtt/oc_mqtt_profile_v5\oc_mqtt_profile.c ****             message.type = EN_OC_MQTT_PROFILE_MSG_TYPE_DOWN_MSGDOWN;
 141              		.loc 1 108 13 is_stmt 1 view .LVU41
 142              		.loc 1 108 26 is_stmt 0 view .LVU42
 143 0046 0023     		movs	r3, #0
 144 0048 8DF80030 		strb	r3, [sp]
 145              	.L6:
ARM GAS  T:\msys\tmp\ccMJI2cA.s 			page 6


 109:D:/fchai/work/i-cube/I-CUBE-HUAWEI/Middlewares/Third_Party/Huawei/iot_link/oc/oc_mqtt/oc_mqtt_profile_v5\oc_mqtt_profile.c ****         }
 110:D:/fchai/work/i-cube/I-CUBE-HUAWEI/Middlewares/Third_Party/Huawei/iot_link/oc/oc_mqtt/oc_mqtt_profile_v5\oc_mqtt_profile.c ****         else if(NULL != strstr(topicbuf,CN_OC_MQTT_PROFILE_SETPROPERTY_INDEX))
 111:D:/fchai/work/i-cube/I-CUBE-HUAWEI/Middlewares/Third_Party/Huawei/iot_link/oc/oc_mqtt/oc_mqtt_profile_v5\oc_mqtt_profile.c ****         {
 112:D:/fchai/work/i-cube/I-CUBE-HUAWEI/Middlewares/Third_Party/Huawei/iot_link/oc/oc_mqtt/oc_mqtt_profile_v5\oc_mqtt_profile.c ****             message.type = EN_OC_MQTT_PROFILE_MSG_TYPE_DOWN_PROPERTYSET;
 113:D:/fchai/work/i-cube/I-CUBE-HUAWEI/Middlewares/Third_Party/Huawei/iot_link/oc/oc_mqtt/oc_mqtt_profile_v5\oc_mqtt_profile.c ****         }
 114:D:/fchai/work/i-cube/I-CUBE-HUAWEI/Middlewares/Third_Party/Huawei/iot_link/oc/oc_mqtt/oc_mqtt_profile_v5\oc_mqtt_profile.c ****         else if(NULL != strstr(topicbuf,CN_OC_MQTT_PROFILE_GETPROPERTY_INDEX))
 115:D:/fchai/work/i-cube/I-CUBE-HUAWEI/Middlewares/Third_Party/Huawei/iot_link/oc/oc_mqtt/oc_mqtt_profile_v5\oc_mqtt_profile.c ****         {
 116:D:/fchai/work/i-cube/I-CUBE-HUAWEI/Middlewares/Third_Party/Huawei/iot_link/oc/oc_mqtt/oc_mqtt_profile_v5\oc_mqtt_profile.c ****             message.type = EN_OC_MQTT_PROFILE_MSG_TYPE_DOWN_PROPERTYGET;
 117:D:/fchai/work/i-cube/I-CUBE-HUAWEI/Middlewares/Third_Party/Huawei/iot_link/oc/oc_mqtt/oc_mqtt_profile_v5\oc_mqtt_profile.c ****         }
 118:D:/fchai/work/i-cube/I-CUBE-HUAWEI/Middlewares/Third_Party/Huawei/iot_link/oc/oc_mqtt/oc_mqtt_profile_v5\oc_mqtt_profile.c ****         else if(NULL != strstr(topicbuf,CN_OC_MQTT_PROFILE_CMD_INDEX))
 119:D:/fchai/work/i-cube/I-CUBE-HUAWEI/Middlewares/Third_Party/Huawei/iot_link/oc/oc_mqtt/oc_mqtt_profile_v5\oc_mqtt_profile.c ****         {
 120:D:/fchai/work/i-cube/I-CUBE-HUAWEI/Middlewares/Third_Party/Huawei/iot_link/oc/oc_mqtt/oc_mqtt_profile_v5\oc_mqtt_profile.c ****             message.type = EN_OC_MQTT_PROFILE_MSG_TYPE_DOWN_COMMANDS;
 121:D:/fchai/work/i-cube/I-CUBE-HUAWEI/Middlewares/Third_Party/Huawei/iot_link/oc/oc_mqtt/oc_mqtt_profile_v5\oc_mqtt_profile.c ****         }
 122:D:/fchai/work/i-cube/I-CUBE-HUAWEI/Middlewares/Third_Party/Huawei/iot_link/oc/oc_mqtt/oc_mqtt_profile_v5\oc_mqtt_profile.c ****         else if(NULL != strstr(topicbuf,CN_OC_MQTT_PROFILE_EVENTDOWN_INDEX))
 123:D:/fchai/work/i-cube/I-CUBE-HUAWEI/Middlewares/Third_Party/Huawei/iot_link/oc/oc_mqtt/oc_mqtt_profile_v5\oc_mqtt_profile.c ****         {
 124:D:/fchai/work/i-cube/I-CUBE-HUAWEI/Middlewares/Third_Party/Huawei/iot_link/oc/oc_mqtt/oc_mqtt_profile_v5\oc_mqtt_profile.c ****             message.type = EN_OC_MQTT_PROFILE_MSG_TYPE_DOWN_EVENT;
 125:D:/fchai/work/i-cube/I-CUBE-HUAWEI/Middlewares/Third_Party/Huawei/iot_link/oc/oc_mqtt/oc_mqtt_profile_v5\oc_mqtt_profile.c ****         }
 126:D:/fchai/work/i-cube/I-CUBE-HUAWEI/Middlewares/Third_Party/Huawei/iot_link/oc/oc_mqtt/oc_mqtt_profile_v5\oc_mqtt_profile.c ****         else if(NULL != strstr(topicbuf,CN_OC_MQTT_PROFILE_BS_INDEX))
 127:D:/fchai/work/i-cube/I-CUBE-HUAWEI/Middlewares/Third_Party/Huawei/iot_link/oc/oc_mqtt/oc_mqtt_profile_v5\oc_mqtt_profile.c ****         {
 128:D:/fchai/work/i-cube/I-CUBE-HUAWEI/Middlewares/Third_Party/Huawei/iot_link/oc/oc_mqtt/oc_mqtt_profile_v5\oc_mqtt_profile.c ****             message.type = EN_OC_MQTT_PROFILE_MSG_TYPE_DOWN_BS;
 129:D:/fchai/work/i-cube/I-CUBE-HUAWEI/Middlewares/Third_Party/Huawei/iot_link/oc/oc_mqtt/oc_mqtt_profile_v5\oc_mqtt_profile.c ****         }
 130:D:/fchai/work/i-cube/I-CUBE-HUAWEI/Middlewares/Third_Party/Huawei/iot_link/oc/oc_mqtt/oc_mqtt_profile_v5\oc_mqtt_profile.c ****         else
 131:D:/fchai/work/i-cube/I-CUBE-HUAWEI/Middlewares/Third_Party/Huawei/iot_link/oc/oc_mqtt/oc_mqtt_profile_v5\oc_mqtt_profile.c ****         {
 132:D:/fchai/work/i-cube/I-CUBE-HUAWEI/Middlewares/Third_Party/Huawei/iot_link/oc/oc_mqtt/oc_mqtt_profile_v5\oc_mqtt_profile.c ****             message.type = EN_OC_MQTT_PROFILE_MSG_TYPE_DOWN_LAST;
 133:D:/fchai/work/i-cube/I-CUBE-HUAWEI/Middlewares/Third_Party/Huawei/iot_link/oc/oc_mqtt/oc_mqtt_profile_v5\oc_mqtt_profile.c ****         }
 134:D:/fchai/work/i-cube/I-CUBE-HUAWEI/Middlewares/Third_Party/Huawei/iot_link/oc/oc_mqtt/oc_mqtt_profile_v5\oc_mqtt_profile.c ****         if(NULL !=  s_oc_mqtt_profile_cb.rcvfunc)
 146              		.loc 1 134 9 is_stmt 1 view .LVU43
 135:D:/fchai/work/i-cube/I-CUBE-HUAWEI/Middlewares/Third_Party/Huawei/iot_link/oc/oc_mqtt/oc_mqtt_profile_v5\oc_mqtt_profile.c ****         {
 136:D:/fchai/work/i-cube/I-CUBE-HUAWEI/Middlewares/Third_Party/Huawei/iot_link/oc/oc_mqtt/oc_mqtt_profile_v5\oc_mqtt_profile.c ****             s_oc_mqtt_profile_cb.rcvfunc(&message);
 147              		.loc 1 136 13 view .LVU44
 148 004c 6846     		mov	r0, sp
 149 004e B047     		blx	r6
 150              	.LVL8:
 151              	.L3:
 137:D:/fchai/work/i-cube/I-CUBE-HUAWEI/Middlewares/Third_Party/Huawei/iot_link/oc/oc_mqtt/oc_mqtt_profile_v5\oc_mqtt_profile.c ****         }
 138:D:/fchai/work/i-cube/I-CUBE-HUAWEI/Middlewares/Third_Party/Huawei/iot_link/oc/oc_mqtt/oc_mqtt_profile_v5\oc_mqtt_profile.c ****     }
 139:D:/fchai/work/i-cube/I-CUBE-HUAWEI/Middlewares/Third_Party/Huawei/iot_link/oc/oc_mqtt/oc_mqtt_profile_v5\oc_mqtt_profile.c **** 
 140:D:/fchai/work/i-cube/I-CUBE-HUAWEI/Middlewares/Third_Party/Huawei/iot_link/oc/oc_mqtt/oc_mqtt_profile_v5\oc_mqtt_profile.c ****     osal_free(topicbuf);
 152              		.loc 1 140 5 view .LVU45
 153 0050 2846     		mov	r0, r5
 154 0052 FFF7FEFF 		bl	osal_free
 155              	.LVL9:
 141:D:/fchai/work/i-cube/I-CUBE-HUAWEI/Middlewares/Third_Party/Huawei/iot_link/oc/oc_mqtt/oc_mqtt_profile_v5\oc_mqtt_profile.c ****     return ret;
 156              		.loc 1 141 5 view .LVU46
 157              	.L2:
 142:D:/fchai/work/i-cube/I-CUBE-HUAWEI/Middlewares/Third_Party/Huawei/iot_link/oc/oc_mqtt/oc_mqtt_profile_v5\oc_mqtt_profile.c **** }
 158              		.loc 1 142 1 is_stmt 0 view .LVU47
 159 0056 4FF0FF30 		mov	r0, #-1
 160 005a 04B0     		add	sp, sp, #16
 161              	.LCFI2:
 162              		.cfi_remember_state
 163              		.cfi_def_cfa_offset 16
 164              		@ sp needed
 165 005c 70BD     		pop	{r4, r5, r6, pc}
 166              	.LVL10:
 167              	.L5:
 168              	.LCFI3:
ARM GAS  T:\msys\tmp\ccMJI2cA.s 			page 7


 169              		.cfi_restore_state
 110:D:/fchai/work/i-cube/I-CUBE-HUAWEI/Middlewares/Third_Party/Huawei/iot_link/oc/oc_mqtt/oc_mqtt_profile_v5\oc_mqtt_profile.c ****         {
 170              		.loc 1 110 14 is_stmt 1 view .LVU48
 110:D:/fchai/work/i-cube/I-CUBE-HUAWEI/Middlewares/Third_Party/Huawei/iot_link/oc/oc_mqtt/oc_mqtt_profile_v5\oc_mqtt_profile.c ****         {
 171              		.loc 1 110 25 is_stmt 0 view .LVU49
 172 005e 1B49     		ldr	r1, .L23+12
 173 0060 2846     		mov	r0, r5
 174 0062 FFF7FEFF 		bl	strstr
 175              	.LVL11:
 110:D:/fchai/work/i-cube/I-CUBE-HUAWEI/Middlewares/Third_Party/Huawei/iot_link/oc/oc_mqtt/oc_mqtt_profile_v5\oc_mqtt_profile.c ****         {
 176              		.loc 1 110 16 view .LVU50
 177 0066 18B1     		cbz	r0, .L7
 112:D:/fchai/work/i-cube/I-CUBE-HUAWEI/Middlewares/Third_Party/Huawei/iot_link/oc/oc_mqtt/oc_mqtt_profile_v5\oc_mqtt_profile.c ****         }
 178              		.loc 1 112 13 is_stmt 1 view .LVU51
 112:D:/fchai/work/i-cube/I-CUBE-HUAWEI/Middlewares/Third_Party/Huawei/iot_link/oc/oc_mqtt/oc_mqtt_profile_v5\oc_mqtt_profile.c ****         }
 179              		.loc 1 112 26 is_stmt 0 view .LVU52
 180 0068 0223     		movs	r3, #2
 181 006a 8DF80030 		strb	r3, [sp]
 182 006e EDE7     		b	.L6
 183              	.L7:
 114:D:/fchai/work/i-cube/I-CUBE-HUAWEI/Middlewares/Third_Party/Huawei/iot_link/oc/oc_mqtt/oc_mqtt_profile_v5\oc_mqtt_profile.c ****         {
 184              		.loc 1 114 14 is_stmt 1 view .LVU53
 114:D:/fchai/work/i-cube/I-CUBE-HUAWEI/Middlewares/Third_Party/Huawei/iot_link/oc/oc_mqtt/oc_mqtt_profile_v5\oc_mqtt_profile.c ****         {
 185              		.loc 1 114 25 is_stmt 0 view .LVU54
 186 0070 1749     		ldr	r1, .L23+16
 187 0072 2846     		mov	r0, r5
 188 0074 FFF7FEFF 		bl	strstr
 189              	.LVL12:
 114:D:/fchai/work/i-cube/I-CUBE-HUAWEI/Middlewares/Third_Party/Huawei/iot_link/oc/oc_mqtt/oc_mqtt_profile_v5\oc_mqtt_profile.c ****         {
 190              		.loc 1 114 16 view .LVU55
 191 0078 18B1     		cbz	r0, .L8
 116:D:/fchai/work/i-cube/I-CUBE-HUAWEI/Middlewares/Third_Party/Huawei/iot_link/oc/oc_mqtt/oc_mqtt_profile_v5\oc_mqtt_profile.c ****         }
 192              		.loc 1 116 13 is_stmt 1 view .LVU56
 116:D:/fchai/work/i-cube/I-CUBE-HUAWEI/Middlewares/Third_Party/Huawei/iot_link/oc/oc_mqtt/oc_mqtt_profile_v5\oc_mqtt_profile.c ****         }
 193              		.loc 1 116 26 is_stmt 0 view .LVU57
 194 007a 0323     		movs	r3, #3
 195 007c 8DF80030 		strb	r3, [sp]
 196 0080 E4E7     		b	.L6
 197              	.L8:
 118:D:/fchai/work/i-cube/I-CUBE-HUAWEI/Middlewares/Third_Party/Huawei/iot_link/oc/oc_mqtt/oc_mqtt_profile_v5\oc_mqtt_profile.c ****         {
 198              		.loc 1 118 14 is_stmt 1 view .LVU58
 118:D:/fchai/work/i-cube/I-CUBE-HUAWEI/Middlewares/Third_Party/Huawei/iot_link/oc/oc_mqtt/oc_mqtt_profile_v5\oc_mqtt_profile.c ****         {
 199              		.loc 1 118 25 is_stmt 0 view .LVU59
 200 0082 1449     		ldr	r1, .L23+20
 201 0084 2846     		mov	r0, r5
 202 0086 FFF7FEFF 		bl	strstr
 203              	.LVL13:
 118:D:/fchai/work/i-cube/I-CUBE-HUAWEI/Middlewares/Third_Party/Huawei/iot_link/oc/oc_mqtt/oc_mqtt_profile_v5\oc_mqtt_profile.c ****         {
 204              		.loc 1 118 16 view .LVU60
 205 008a 18B1     		cbz	r0, .L9
 120:D:/fchai/work/i-cube/I-CUBE-HUAWEI/Middlewares/Third_Party/Huawei/iot_link/oc/oc_mqtt/oc_mqtt_profile_v5\oc_mqtt_profile.c ****         }
 206              		.loc 1 120 13 is_stmt 1 view .LVU61
 120:D:/fchai/work/i-cube/I-CUBE-HUAWEI/Middlewares/Third_Party/Huawei/iot_link/oc/oc_mqtt/oc_mqtt_profile_v5\oc_mqtt_profile.c ****         }
 207              		.loc 1 120 26 is_stmt 0 view .LVU62
 208 008c 0123     		movs	r3, #1
 209 008e 8DF80030 		strb	r3, [sp]
 210 0092 DBE7     		b	.L6
ARM GAS  T:\msys\tmp\ccMJI2cA.s 			page 8


 211              	.L9:
 122:D:/fchai/work/i-cube/I-CUBE-HUAWEI/Middlewares/Third_Party/Huawei/iot_link/oc/oc_mqtt/oc_mqtt_profile_v5\oc_mqtt_profile.c ****         {
 212              		.loc 1 122 14 is_stmt 1 view .LVU63
 122:D:/fchai/work/i-cube/I-CUBE-HUAWEI/Middlewares/Third_Party/Huawei/iot_link/oc/oc_mqtt/oc_mqtt_profile_v5\oc_mqtt_profile.c ****         {
 213              		.loc 1 122 25 is_stmt 0 view .LVU64
 214 0094 1049     		ldr	r1, .L23+24
 215 0096 2846     		mov	r0, r5
 216 0098 FFF7FEFF 		bl	strstr
 217              	.LVL14:
 122:D:/fchai/work/i-cube/I-CUBE-HUAWEI/Middlewares/Third_Party/Huawei/iot_link/oc/oc_mqtt/oc_mqtt_profile_v5\oc_mqtt_profile.c ****         {
 218              		.loc 1 122 16 view .LVU65
 219 009c 18B1     		cbz	r0, .L10
 124:D:/fchai/work/i-cube/I-CUBE-HUAWEI/Middlewares/Third_Party/Huawei/iot_link/oc/oc_mqtt/oc_mqtt_profile_v5\oc_mqtt_profile.c ****         }
 220              		.loc 1 124 13 is_stmt 1 view .LVU66
 124:D:/fchai/work/i-cube/I-CUBE-HUAWEI/Middlewares/Third_Party/Huawei/iot_link/oc/oc_mqtt/oc_mqtt_profile_v5\oc_mqtt_profile.c ****         }
 221              		.loc 1 124 26 is_stmt 0 view .LVU67
 222 009e 0423     		movs	r3, #4
 223 00a0 8DF80030 		strb	r3, [sp]
 224 00a4 D2E7     		b	.L6
 225              	.L10:
 126:D:/fchai/work/i-cube/I-CUBE-HUAWEI/Middlewares/Third_Party/Huawei/iot_link/oc/oc_mqtt/oc_mqtt_profile_v5\oc_mqtt_profile.c ****         {
 226              		.loc 1 126 14 is_stmt 1 view .LVU68
 126:D:/fchai/work/i-cube/I-CUBE-HUAWEI/Middlewares/Third_Party/Huawei/iot_link/oc/oc_mqtt/oc_mqtt_profile_v5\oc_mqtt_profile.c ****         {
 227              		.loc 1 126 25 is_stmt 0 view .LVU69
 228 00a6 0D49     		ldr	r1, .L23+28
 229 00a8 2846     		mov	r0, r5
 230 00aa FFF7FEFF 		bl	strstr
 231              	.LVL15:
 126:D:/fchai/work/i-cube/I-CUBE-HUAWEI/Middlewares/Third_Party/Huawei/iot_link/oc/oc_mqtt/oc_mqtt_profile_v5\oc_mqtt_profile.c ****         {
 232              		.loc 1 126 16 view .LVU70
 233 00ae 18B1     		cbz	r0, .L11
 128:D:/fchai/work/i-cube/I-CUBE-HUAWEI/Middlewares/Third_Party/Huawei/iot_link/oc/oc_mqtt/oc_mqtt_profile_v5\oc_mqtt_profile.c ****         }
 234              		.loc 1 128 13 is_stmt 1 view .LVU71
 128:D:/fchai/work/i-cube/I-CUBE-HUAWEI/Middlewares/Third_Party/Huawei/iot_link/oc/oc_mqtt/oc_mqtt_profile_v5\oc_mqtt_profile.c ****         }
 235              		.loc 1 128 26 is_stmt 0 view .LVU72
 236 00b0 0523     		movs	r3, #5
 237 00b2 8DF80030 		strb	r3, [sp]
 238 00b6 C9E7     		b	.L6
 239              	.L11:
 132:D:/fchai/work/i-cube/I-CUBE-HUAWEI/Middlewares/Third_Party/Huawei/iot_link/oc/oc_mqtt/oc_mqtt_profile_v5\oc_mqtt_profile.c ****         }
 240              		.loc 1 132 13 is_stmt 1 view .LVU73
 132:D:/fchai/work/i-cube/I-CUBE-HUAWEI/Middlewares/Third_Party/Huawei/iot_link/oc/oc_mqtt/oc_mqtt_profile_v5\oc_mqtt_profile.c ****         }
 241              		.loc 1 132 26 is_stmt 0 view .LVU74
 242 00b8 0623     		movs	r3, #6
 243 00ba 8DF80030 		strb	r3, [sp]
 244 00be C5E7     		b	.L6
 245              	.L24:
 246              		.align	2
 247              	.L23:
 248 00c0 00000000 		.word	.LANCHOR0
 249 00c4 00000000 		.word	.LC0
 250 00c8 0C000000 		.word	.LC1
 251 00cc 20000000 		.word	.LC2
 252 00d0 38000000 		.word	.LC3
 253 00d4 50000000 		.word	.LC4
 254 00d8 60000000 		.word	.LC5
 255 00dc 74000000 		.word	.LC6
ARM GAS  T:\msys\tmp\ccMJI2cA.s 			page 9


 256              		.cfi_endproc
 257              	.LFE3:
 259              		.section	.text.topic_make,"ax",%progbits
 260              		.align	1
 261              		.p2align 2,,3
 262              		.syntax unified
 263              		.thumb
 264              		.thumb_func
 265              		.fpu fpv4-sp-d16
 267              	topic_make:
 268              	.LVL16:
 269              	.LFB6:
 143:D:/fchai/work/i-cube/I-CUBE-HUAWEI/Middlewares/Third_Party/Huawei/iot_link/oc/oc_mqtt/oc_mqtt_profile_v5\oc_mqtt_profile.c **** 
 144:D:/fchai/work/i-cube/I-CUBE-HUAWEI/Middlewares/Third_Party/Huawei/iot_link/oc/oc_mqtt/oc_mqtt_profile_v5\oc_mqtt_profile.c **** 
 145:D:/fchai/work/i-cube/I-CUBE-HUAWEI/Middlewares/Third_Party/Huawei/iot_link/oc/oc_mqtt/oc_mqtt_profile_v5\oc_mqtt_profile.c **** ///< use this function to connect to the cloud platform
 146:D:/fchai/work/i-cube/I-CUBE-HUAWEI/Middlewares/Third_Party/Huawei/iot_link/oc/oc_mqtt/oc_mqtt_profile_v5\oc_mqtt_profile.c **** int oc_mqtt_profile_connect(oc_mqtt_profile_connect_t *payload)
 147:D:/fchai/work/i-cube/I-CUBE-HUAWEI/Middlewares/Third_Party/Huawei/iot_link/oc/oc_mqtt/oc_mqtt_profile_v5\oc_mqtt_profile.c **** {
 148:D:/fchai/work/i-cube/I-CUBE-HUAWEI/Middlewares/Third_Party/Huawei/iot_link/oc/oc_mqtt/oc_mqtt_profile_v5\oc_mqtt_profile.c ****     int ret = (int)en_oc_mqtt_err_parafmt;
 149:D:/fchai/work/i-cube/I-CUBE-HUAWEI/Middlewares/Third_Party/Huawei/iot_link/oc/oc_mqtt/oc_mqtt_profile_v5\oc_mqtt_profile.c ****     oc_mqtt_config_t config;
 150:D:/fchai/work/i-cube/I-CUBE-HUAWEI/Middlewares/Third_Party/Huawei/iot_link/oc/oc_mqtt/oc_mqtt_profile_v5\oc_mqtt_profile.c **** 
 151:D:/fchai/work/i-cube/I-CUBE-HUAWEI/Middlewares/Third_Party/Huawei/iot_link/oc/oc_mqtt/oc_mqtt_profile_v5\oc_mqtt_profile.c ****     if(NULL == payload)
 152:D:/fchai/work/i-cube/I-CUBE-HUAWEI/Middlewares/Third_Party/Huawei/iot_link/oc/oc_mqtt/oc_mqtt_profile_v5\oc_mqtt_profile.c ****     {
 153:D:/fchai/work/i-cube/I-CUBE-HUAWEI/Middlewares/Third_Party/Huawei/iot_link/oc/oc_mqtt/oc_mqtt_profile_v5\oc_mqtt_profile.c ****         return ret;
 154:D:/fchai/work/i-cube/I-CUBE-HUAWEI/Middlewares/Third_Party/Huawei/iot_link/oc/oc_mqtt/oc_mqtt_profile_v5\oc_mqtt_profile.c ****     }
 155:D:/fchai/work/i-cube/I-CUBE-HUAWEI/Middlewares/Third_Party/Huawei/iot_link/oc/oc_mqtt/oc_mqtt_profile_v5\oc_mqtt_profile.c **** 
 156:D:/fchai/work/i-cube/I-CUBE-HUAWEI/Middlewares/Third_Party/Huawei/iot_link/oc/oc_mqtt/oc_mqtt_profile_v5\oc_mqtt_profile.c ****     (void) memset(&config,0, sizeof(config));
 157:D:/fchai/work/i-cube/I-CUBE-HUAWEI/Middlewares/Third_Party/Huawei/iot_link/oc/oc_mqtt/oc_mqtt_profile_v5\oc_mqtt_profile.c ****     config.boot_mode =payload->boostrap;
 158:D:/fchai/work/i-cube/I-CUBE-HUAWEI/Middlewares/Third_Party/Huawei/iot_link/oc/oc_mqtt/oc_mqtt_profile_v5\oc_mqtt_profile.c ****     config.id = payload->device_id;
 159:D:/fchai/work/i-cube/I-CUBE-HUAWEI/Middlewares/Third_Party/Huawei/iot_link/oc/oc_mqtt/oc_mqtt_profile_v5\oc_mqtt_profile.c ****     config.pwd = payload->device_passwd;
 160:D:/fchai/work/i-cube/I-CUBE-HUAWEI/Middlewares/Third_Party/Huawei/iot_link/oc/oc_mqtt/oc_mqtt_profile_v5\oc_mqtt_profile.c ****     config.scope_id = payload->scope_id;
 161:D:/fchai/work/i-cube/I-CUBE-HUAWEI/Middlewares/Third_Party/Huawei/iot_link/oc/oc_mqtt/oc_mqtt_profile_v5\oc_mqtt_profile.c ****     config.server_addr = payload->server_addr;
 162:D:/fchai/work/i-cube/I-CUBE-HUAWEI/Middlewares/Third_Party/Huawei/iot_link/oc/oc_mqtt/oc_mqtt_profile_v5\oc_mqtt_profile.c ****     config.server_port = payload->server_port;
 163:D:/fchai/work/i-cube/I-CUBE-HUAWEI/Middlewares/Third_Party/Huawei/iot_link/oc/oc_mqtt/oc_mqtt_profile_v5\oc_mqtt_profile.c ****     config.lifetime = payload->life_time;
 164:D:/fchai/work/i-cube/I-CUBE-HUAWEI/Middlewares/Third_Party/Huawei/iot_link/oc/oc_mqtt/oc_mqtt_profile_v5\oc_mqtt_profile.c ****     config.msg_deal = app_msg_deal;
 165:D:/fchai/work/i-cube/I-CUBE-HUAWEI/Middlewares/Third_Party/Huawei/iot_link/oc/oc_mqtt/oc_mqtt_profile_v5\oc_mqtt_profile.c ****     config.msg_deal_arg = NULL;
 166:D:/fchai/work/i-cube/I-CUBE-HUAWEI/Middlewares/Third_Party/Huawei/iot_link/oc/oc_mqtt/oc_mqtt_profile_v5\oc_mqtt_profile.c ****     config.security = payload->security;
 167:D:/fchai/work/i-cube/I-CUBE-HUAWEI/Middlewares/Third_Party/Huawei/iot_link/oc/oc_mqtt/oc_mqtt_profile_v5\oc_mqtt_profile.c ****     config.log_dealer = payload->logfunc;
 168:D:/fchai/work/i-cube/I-CUBE-HUAWEI/Middlewares/Third_Party/Huawei/iot_link/oc/oc_mqtt/oc_mqtt_profile_v5\oc_mqtt_profile.c **** 
 169:D:/fchai/work/i-cube/I-CUBE-HUAWEI/Middlewares/Third_Party/Huawei/iot_link/oc/oc_mqtt/oc_mqtt_profile_v5\oc_mqtt_profile.c ****     if(payload->boostrap)
 170:D:/fchai/work/i-cube/I-CUBE-HUAWEI/Middlewares/Third_Party/Huawei/iot_link/oc/oc_mqtt/oc_mqtt_profile_v5\oc_mqtt_profile.c ****     {
 171:D:/fchai/work/i-cube/I-CUBE-HUAWEI/Middlewares/Third_Party/Huawei/iot_link/oc/oc_mqtt/oc_mqtt_profile_v5\oc_mqtt_profile.c ****         config.boot_mode  = en_oc_mqtt_mode_bs_static_nodeid_hmacsha256_notimecheck_json;
 172:D:/fchai/work/i-cube/I-CUBE-HUAWEI/Middlewares/Third_Party/Huawei/iot_link/oc/oc_mqtt/oc_mqtt_profile_v5\oc_mqtt_profile.c ****     }
 173:D:/fchai/work/i-cube/I-CUBE-HUAWEI/Middlewares/Third_Party/Huawei/iot_link/oc/oc_mqtt/oc_mqtt_profile_v5\oc_mqtt_profile.c ****     else
 174:D:/fchai/work/i-cube/I-CUBE-HUAWEI/Middlewares/Third_Party/Huawei/iot_link/oc/oc_mqtt/oc_mqtt_profile_v5\oc_mqtt_profile.c ****     {
 175:D:/fchai/work/i-cube/I-CUBE-HUAWEI/Middlewares/Third_Party/Huawei/iot_link/oc/oc_mqtt/oc_mqtt_profile_v5\oc_mqtt_profile.c ****         config.boot_mode = en_oc_mqtt_mode_nobs_static_nodeid_hmacsha256_notimecheck_json;
 176:D:/fchai/work/i-cube/I-CUBE-HUAWEI/Middlewares/Third_Party/Huawei/iot_link/oc/oc_mqtt/oc_mqtt_profile_v5\oc_mqtt_profile.c ****     }
 177:D:/fchai/work/i-cube/I-CUBE-HUAWEI/Middlewares/Third_Party/Huawei/iot_link/oc/oc_mqtt/oc_mqtt_profile_v5\oc_mqtt_profile.c **** 
 178:D:/fchai/work/i-cube/I-CUBE-HUAWEI/Middlewares/Third_Party/Huawei/iot_link/oc/oc_mqtt/oc_mqtt_profile_v5\oc_mqtt_profile.c ****     if(NULL != s_oc_mqtt_profile_cb.device_id)
 179:D:/fchai/work/i-cube/I-CUBE-HUAWEI/Middlewares/Third_Party/Huawei/iot_link/oc/oc_mqtt/oc_mqtt_profile_v5\oc_mqtt_profile.c ****     {
 180:D:/fchai/work/i-cube/I-CUBE-HUAWEI/Middlewares/Third_Party/Huawei/iot_link/oc/oc_mqtt/oc_mqtt_profile_v5\oc_mqtt_profile.c ****         osal_free(s_oc_mqtt_profile_cb.device_id);
 181:D:/fchai/work/i-cube/I-CUBE-HUAWEI/Middlewares/Third_Party/Huawei/iot_link/oc/oc_mqtt/oc_mqtt_profile_v5\oc_mqtt_profile.c ****     }
 182:D:/fchai/work/i-cube/I-CUBE-HUAWEI/Middlewares/Third_Party/Huawei/iot_link/oc/oc_mqtt/oc_mqtt_profile_v5\oc_mqtt_profile.c ****     s_oc_mqtt_profile_cb.device_id = osal_strdup(payload->device_id);
 183:D:/fchai/work/i-cube/I-CUBE-HUAWEI/Middlewares/Third_Party/Huawei/iot_link/oc/oc_mqtt/oc_mqtt_profile_v5\oc_mqtt_profile.c ****     s_oc_mqtt_profile_cb.rcvfunc = payload->rcvfunc;
 184:D:/fchai/work/i-cube/I-CUBE-HUAWEI/Middlewares/Third_Party/Huawei/iot_link/oc/oc_mqtt/oc_mqtt_profile_v5\oc_mqtt_profile.c ****     ret = oc_mqtt_config(&config);
 185:D:/fchai/work/i-cube/I-CUBE-HUAWEI/Middlewares/Third_Party/Huawei/iot_link/oc/oc_mqtt/oc_mqtt_profile_v5\oc_mqtt_profile.c **** 
 186:D:/fchai/work/i-cube/I-CUBE-HUAWEI/Middlewares/Third_Party/Huawei/iot_link/oc/oc_mqtt/oc_mqtt_profile_v5\oc_mqtt_profile.c ****     return ret;
 187:D:/fchai/work/i-cube/I-CUBE-HUAWEI/Middlewares/Third_Party/Huawei/iot_link/oc/oc_mqtt/oc_mqtt_profile_v5\oc_mqtt_profile.c **** }
ARM GAS  T:\msys\tmp\ccMJI2cA.s 			page 10


 188:D:/fchai/work/i-cube/I-CUBE-HUAWEI/Middlewares/Third_Party/Huawei/iot_link/oc/oc_mqtt/oc_mqtt_profile_v5\oc_mqtt_profile.c **** 
 189:D:/fchai/work/i-cube/I-CUBE-HUAWEI/Middlewares/Third_Party/Huawei/iot_link/oc/oc_mqtt/oc_mqtt_profile_v5\oc_mqtt_profile.c **** ///< use this function to disconnect from the cloudplatform
 190:D:/fchai/work/i-cube/I-CUBE-HUAWEI/Middlewares/Third_Party/Huawei/iot_link/oc/oc_mqtt/oc_mqtt_profile_v5\oc_mqtt_profile.c **** int oc_mqtt_profile_disconnect(void)
 191:D:/fchai/work/i-cube/I-CUBE-HUAWEI/Middlewares/Third_Party/Huawei/iot_link/oc/oc_mqtt/oc_mqtt_profile_v5\oc_mqtt_profile.c **** {
 192:D:/fchai/work/i-cube/I-CUBE-HUAWEI/Middlewares/Third_Party/Huawei/iot_link/oc/oc_mqtt/oc_mqtt_profile_v5\oc_mqtt_profile.c ****     int ret;
 193:D:/fchai/work/i-cube/I-CUBE-HUAWEI/Middlewares/Third_Party/Huawei/iot_link/oc/oc_mqtt/oc_mqtt_profile_v5\oc_mqtt_profile.c **** 
 194:D:/fchai/work/i-cube/I-CUBE-HUAWEI/Middlewares/Third_Party/Huawei/iot_link/oc/oc_mqtt/oc_mqtt_profile_v5\oc_mqtt_profile.c ****     ret = oc_mqtt_deconfig();
 195:D:/fchai/work/i-cube/I-CUBE-HUAWEI/Middlewares/Third_Party/Huawei/iot_link/oc/oc_mqtt/oc_mqtt_profile_v5\oc_mqtt_profile.c ****     if(ret == (int)en_oc_mqtt_err_ok)
 196:D:/fchai/work/i-cube/I-CUBE-HUAWEI/Middlewares/Third_Party/Huawei/iot_link/oc/oc_mqtt/oc_mqtt_profile_v5\oc_mqtt_profile.c ****     {
 197:D:/fchai/work/i-cube/I-CUBE-HUAWEI/Middlewares/Third_Party/Huawei/iot_link/oc/oc_mqtt/oc_mqtt_profile_v5\oc_mqtt_profile.c ****         osal_free(s_oc_mqtt_profile_cb.device_id);
 198:D:/fchai/work/i-cube/I-CUBE-HUAWEI/Middlewares/Third_Party/Huawei/iot_link/oc/oc_mqtt/oc_mqtt_profile_v5\oc_mqtt_profile.c ****         s_oc_mqtt_profile_cb.device_id = NULL;
 199:D:/fchai/work/i-cube/I-CUBE-HUAWEI/Middlewares/Third_Party/Huawei/iot_link/oc/oc_mqtt/oc_mqtt_profile_v5\oc_mqtt_profile.c ****         s_oc_mqtt_profile_cb.rcvfunc = NULL;
 200:D:/fchai/work/i-cube/I-CUBE-HUAWEI/Middlewares/Third_Party/Huawei/iot_link/oc/oc_mqtt/oc_mqtt_profile_v5\oc_mqtt_profile.c ****     }
 201:D:/fchai/work/i-cube/I-CUBE-HUAWEI/Middlewares/Third_Party/Huawei/iot_link/oc/oc_mqtt/oc_mqtt_profile_v5\oc_mqtt_profile.c **** 
 202:D:/fchai/work/i-cube/I-CUBE-HUAWEI/Middlewares/Third_Party/Huawei/iot_link/oc/oc_mqtt/oc_mqtt_profile_v5\oc_mqtt_profile.c ****     return ret;
 203:D:/fchai/work/i-cube/I-CUBE-HUAWEI/Middlewares/Third_Party/Huawei/iot_link/oc/oc_mqtt/oc_mqtt_profile_v5\oc_mqtt_profile.c **** }
 204:D:/fchai/work/i-cube/I-CUBE-HUAWEI/Middlewares/Third_Party/Huawei/iot_link/oc/oc_mqtt/oc_mqtt_profile_v5\oc_mqtt_profile.c **** 
 205:D:/fchai/work/i-cube/I-CUBE-HUAWEI/Middlewares/Third_Party/Huawei/iot_link/oc/oc_mqtt/oc_mqtt_profile_v5\oc_mqtt_profile.c **** 
 206:D:/fchai/work/i-cube/I-CUBE-HUAWEI/Middlewares/Third_Party/Huawei/iot_link/oc/oc_mqtt/oc_mqtt_profile_v5\oc_mqtt_profile.c **** ///< use this function to make a topic to publish
 207:D:/fchai/work/i-cube/I-CUBE-HUAWEI/Middlewares/Third_Party/Huawei/iot_link/oc/oc_mqtt/oc_mqtt_profile_v5\oc_mqtt_profile.c **** ///< if request_id  is needed depends on the fmt
 208:D:/fchai/work/i-cube/I-CUBE-HUAWEI/Middlewares/Third_Party/Huawei/iot_link/oc/oc_mqtt/oc_mqtt_profile_v5\oc_mqtt_profile.c **** static char *topic_make(char *fmt, char *device_id, char *request_id)
 209:D:/fchai/work/i-cube/I-CUBE-HUAWEI/Middlewares/Third_Party/Huawei/iot_link/oc/oc_mqtt/oc_mqtt_profile_v5\oc_mqtt_profile.c **** {
 270              		.loc 1 209 1 is_stmt 1 view -0
 271              		.cfi_startproc
 272              		@ args = 0, pretend = 0, frame = 0
 273              		@ frame_needed = 0, uses_anonymous_args = 0
 210:D:/fchai/work/i-cube/I-CUBE-HUAWEI/Middlewares/Third_Party/Huawei/iot_link/oc/oc_mqtt/oc_mqtt_profile_v5\oc_mqtt_profile.c ****     int len;
 274              		.loc 1 210 5 view .LVU76
 211:D:/fchai/work/i-cube/I-CUBE-HUAWEI/Middlewares/Third_Party/Huawei/iot_link/oc/oc_mqtt/oc_mqtt_profile_v5\oc_mqtt_profile.c ****     char *ret = NULL;
 275              		.loc 1 211 5 view .LVU77
 212:D:/fchai/work/i-cube/I-CUBE-HUAWEI/Middlewares/Third_Party/Huawei/iot_link/oc/oc_mqtt/oc_mqtt_profile_v5\oc_mqtt_profile.c **** 
 213:D:/fchai/work/i-cube/I-CUBE-HUAWEI/Middlewares/Third_Party/Huawei/iot_link/oc/oc_mqtt/oc_mqtt_profile_v5\oc_mqtt_profile.c ****     if(NULL == device_id)
 276              		.loc 1 213 5 view .LVU78
 209:D:/fchai/work/i-cube/I-CUBE-HUAWEI/Middlewares/Third_Party/Huawei/iot_link/oc/oc_mqtt/oc_mqtt_profile_v5\oc_mqtt_profile.c ****     int len;
 277              		.loc 1 209 1 is_stmt 0 view .LVU79
 278 0000 2DE9F041 		push	{r4, r5, r6, r7, r8, lr}
 279              	.LCFI4:
 280              		.cfi_def_cfa_offset 24
 281              		.cfi_offset 4, -24
 282              		.cfi_offset 5, -20
 283              		.cfi_offset 6, -16
 284              		.cfi_offset 7, -12
 285              		.cfi_offset 8, -8
 286              		.cfi_offset 14, -4
 287              		.loc 1 213 7 view .LVU80
 288 0004 0D46     		mov	r5, r1
 209:D:/fchai/work/i-cube/I-CUBE-HUAWEI/Middlewares/Third_Party/Huawei/iot_link/oc/oc_mqtt/oc_mqtt_profile_v5\oc_mqtt_profile.c ****     int len;
 289              		.loc 1 209 1 view .LVU81
 290 0006 82B0     		sub	sp, sp, #8
 291              	.LCFI5:
 292              		.cfi_def_cfa_offset 32
 293              		.loc 1 213 7 view .LVU82
 294 0008 E1B1     		cbz	r1, .L28
 214:D:/fchai/work/i-cube/I-CUBE-HUAWEI/Middlewares/Third_Party/Huawei/iot_link/oc/oc_mqtt/oc_mqtt_profile_v5\oc_mqtt_profile.c ****     {
 215:D:/fchai/work/i-cube/I-CUBE-HUAWEI/Middlewares/Third_Party/Huawei/iot_link/oc/oc_mqtt/oc_mqtt_profile_v5\oc_mqtt_profile.c ****         return ret;
 216:D:/fchai/work/i-cube/I-CUBE-HUAWEI/Middlewares/Third_Party/Huawei/iot_link/oc/oc_mqtt/oc_mqtt_profile_v5\oc_mqtt_profile.c ****     }
 217:D:/fchai/work/i-cube/I-CUBE-HUAWEI/Middlewares/Third_Party/Huawei/iot_link/oc/oc_mqtt/oc_mqtt_profile_v5\oc_mqtt_profile.c ****     len = strlen(fmt) + strlen(device_id);
ARM GAS  T:\msys\tmp\ccMJI2cA.s 			page 11


 295              		.loc 1 217 5 is_stmt 1 view .LVU83
 296 000a 1646     		mov	r6, r2
 297 000c 8046     		mov	r8, r0
 298              		.loc 1 217 11 is_stmt 0 view .LVU84
 299 000e FFF7FEFF 		bl	strlen
 300              	.LVL17:
 301              		.loc 1 217 11 view .LVU85
 302 0012 0446     		mov	r4, r0
 303              		.loc 1 217 25 view .LVU86
 304 0014 2846     		mov	r0, r5
 305 0016 FFF7FEFF 		bl	strlen
 306              	.LVL18:
 307              		.loc 1 217 23 view .LVU87
 308 001a 0444     		add	r4, r4, r0
 309              	.LVL19:
 218:D:/fchai/work/i-cube/I-CUBE-HUAWEI/Middlewares/Third_Party/Huawei/iot_link/oc/oc_mqtt/oc_mqtt_profile_v5\oc_mqtt_profile.c ****     if(NULL != request_id)
 310              		.loc 1 218 5 is_stmt 1 view .LVU88
 311              		.loc 1 218 7 is_stmt 0 view .LVU89
 312 001c 1EB1     		cbz	r6, .L27
 219:D:/fchai/work/i-cube/I-CUBE-HUAWEI/Middlewares/Third_Party/Huawei/iot_link/oc/oc_mqtt/oc_mqtt_profile_v5\oc_mqtt_profile.c ****     {
 220:D:/fchai/work/i-cube/I-CUBE-HUAWEI/Middlewares/Third_Party/Huawei/iot_link/oc/oc_mqtt/oc_mqtt_profile_v5\oc_mqtt_profile.c ****         len += strlen(request_id);
 313              		.loc 1 220 9 is_stmt 1 view .LVU90
 314              		.loc 1 220 16 is_stmt 0 view .LVU91
 315 001e 3046     		mov	r0, r6
 316 0020 FFF7FEFF 		bl	strlen
 317              	.LVL20:
 318              		.loc 1 220 13 view .LVU92
 319 0024 0444     		add	r4, r4, r0
 320              	.LVL21:
 321              	.L27:
 221:D:/fchai/work/i-cube/I-CUBE-HUAWEI/Middlewares/Third_Party/Huawei/iot_link/oc/oc_mqtt/oc_mqtt_profile_v5\oc_mqtt_profile.c ****     }
 222:D:/fchai/work/i-cube/I-CUBE-HUAWEI/Middlewares/Third_Party/Huawei/iot_link/oc/oc_mqtt/oc_mqtt_profile_v5\oc_mqtt_profile.c **** 
 223:D:/fchai/work/i-cube/I-CUBE-HUAWEI/Middlewares/Third_Party/Huawei/iot_link/oc/oc_mqtt/oc_mqtt_profile_v5\oc_mqtt_profile.c ****     ret = osal_malloc(len);
 322              		.loc 1 223 5 is_stmt 1 view .LVU93
 323              		.loc 1 223 11 is_stmt 0 view .LVU94
 324 0026 2046     		mov	r0, r4
 325 0028 FFF7FEFF 		bl	osal_malloc
 326              	.LVL22:
 224:D:/fchai/work/i-cube/I-CUBE-HUAWEI/Middlewares/Third_Party/Huawei/iot_link/oc/oc_mqtt/oc_mqtt_profile_v5\oc_mqtt_profile.c ****     if(NULL != ret)
 327              		.loc 1 224 5 is_stmt 1 view .LVU95
 328              		.loc 1 224 7 is_stmt 0 view .LVU96
 329 002c 0746     		mov	r7, r0
 330 002e 28B1     		cbz	r0, .L25
 225:D:/fchai/work/i-cube/I-CUBE-HUAWEI/Middlewares/Third_Party/Huawei/iot_link/oc/oc_mqtt/oc_mqtt_profile_v5\oc_mqtt_profile.c ****     {
 226:D:/fchai/work/i-cube/I-CUBE-HUAWEI/Middlewares/Third_Party/Huawei/iot_link/oc/oc_mqtt/oc_mqtt_profile_v5\oc_mqtt_profile.c ****         (void) snprintf(ret,len,fmt,device_id,request_id);
 331              		.loc 1 226 9 is_stmt 1 view .LVU97
 332              		.loc 1 226 16 is_stmt 0 view .LVU98
 333 0030 0096     		str	r6, [sp]
 334 0032 2B46     		mov	r3, r5
 335 0034 4246     		mov	r2, r8
 336 0036 2146     		mov	r1, r4
 337 0038 FFF7FEFF 		bl	snprintf
 338              	.LVL23:
 339              	.L25:
 227:D:/fchai/work/i-cube/I-CUBE-HUAWEI/Middlewares/Third_Party/Huawei/iot_link/oc/oc_mqtt/oc_mqtt_profile_v5\oc_mqtt_profile.c ****     }
 228:D:/fchai/work/i-cube/I-CUBE-HUAWEI/Middlewares/Third_Party/Huawei/iot_link/oc/oc_mqtt/oc_mqtt_profile_v5\oc_mqtt_profile.c ****     return ret;
 229:D:/fchai/work/i-cube/I-CUBE-HUAWEI/Middlewares/Third_Party/Huawei/iot_link/oc/oc_mqtt/oc_mqtt_profile_v5\oc_mqtt_profile.c **** }
ARM GAS  T:\msys\tmp\ccMJI2cA.s 			page 12


 340              		.loc 1 229 1 view .LVU99
 341 003c 3846     		mov	r0, r7
 342 003e 02B0     		add	sp, sp, #8
 343              	.LCFI6:
 344              		.cfi_remember_state
 345              		.cfi_def_cfa_offset 24
 346              		@ sp needed
 347 0040 BDE8F081 		pop	{r4, r5, r6, r7, r8, pc}
 348              	.LVL24:
 349              	.L28:
 350              	.LCFI7:
 351              		.cfi_restore_state
 215:D:/fchai/work/i-cube/I-CUBE-HUAWEI/Middlewares/Third_Party/Huawei/iot_link/oc/oc_mqtt/oc_mqtt_profile_v5\oc_mqtt_profile.c ****     }
 352              		.loc 1 215 16 view .LVU100
 353 0044 0F46     		mov	r7, r1
 354 0046 F9E7     		b	.L25
 355              		.cfi_endproc
 356              	.LFE6:
 358              		.section	.text.oc_mqtt_profile_connect,"ax",%progbits
 359              		.align	1
 360              		.p2align 2,,3
 361              		.global	oc_mqtt_profile_connect
 362              		.syntax unified
 363              		.thumb
 364              		.thumb_func
 365              		.fpu fpv4-sp-d16
 367              	oc_mqtt_profile_connect:
 368              	.LVL25:
 369              	.LFB4:
 147:D:/fchai/work/i-cube/I-CUBE-HUAWEI/Middlewares/Third_Party/Huawei/iot_link/oc/oc_mqtt/oc_mqtt_profile_v5\oc_mqtt_profile.c ****     int ret = (int)en_oc_mqtt_err_parafmt;
 370              		.loc 1 147 1 is_stmt 1 view -0
 371              		.cfi_startproc
 372              		@ args = 0, pretend = 0, frame = 80
 373              		@ frame_needed = 0, uses_anonymous_args = 0
 148:D:/fchai/work/i-cube/I-CUBE-HUAWEI/Middlewares/Third_Party/Huawei/iot_link/oc/oc_mqtt/oc_mqtt_profile_v5\oc_mqtt_profile.c ****     oc_mqtt_config_t config;
 374              		.loc 1 148 5 view .LVU102
 149:D:/fchai/work/i-cube/I-CUBE-HUAWEI/Middlewares/Third_Party/Huawei/iot_link/oc/oc_mqtt/oc_mqtt_profile_v5\oc_mqtt_profile.c **** 
 375              		.loc 1 149 5 view .LVU103
 151:D:/fchai/work/i-cube/I-CUBE-HUAWEI/Middlewares/Third_Party/Huawei/iot_link/oc/oc_mqtt/oc_mqtt_profile_v5\oc_mqtt_profile.c ****     {
 376              		.loc 1 151 5 view .LVU104
 151:D:/fchai/work/i-cube/I-CUBE-HUAWEI/Middlewares/Third_Party/Huawei/iot_link/oc/oc_mqtt/oc_mqtt_profile_v5\oc_mqtt_profile.c ****     {
 377              		.loc 1 151 7 is_stmt 0 view .LVU105
 378 0000 0028     		cmp	r0, #0
 379 0002 3DD0     		beq	.L39
 156:D:/fchai/work/i-cube/I-CUBE-HUAWEI/Middlewares/Third_Party/Huawei/iot_link/oc/oc_mqtt/oc_mqtt_profile_v5\oc_mqtt_profile.c ****     config.boot_mode =payload->boostrap;
 380              		.loc 1 156 5 is_stmt 1 view .LVU106
 147:D:/fchai/work/i-cube/I-CUBE-HUAWEI/Middlewares/Third_Party/Huawei/iot_link/oc/oc_mqtt/oc_mqtt_profile_v5\oc_mqtt_profile.c ****     int ret = (int)en_oc_mqtt_err_parafmt;
 381              		.loc 1 147 1 is_stmt 0 view .LVU107
 382 0004 F0B5     		push	{r4, r5, r6, r7, lr}
 383              	.LCFI8:
 384              		.cfi_def_cfa_offset 20
 385              		.cfi_offset 4, -20
 386              		.cfi_offset 5, -16
 387              		.cfi_offset 6, -12
 388              		.cfi_offset 7, -8
 389              		.cfi_offset 14, -4
 166:D:/fchai/work/i-cube/I-CUBE-HUAWEI/Middlewares/Third_Party/Huawei/iot_link/oc/oc_mqtt/oc_mqtt_profile_v5\oc_mqtt_profile.c ****     config.log_dealer = payload->logfunc;
ARM GAS  T:\msys\tmp\ccMJI2cA.s 			page 13


 390              		.loc 1 166 21 view .LVU108
 391 0006 00F11C06 		add	r6, r0, #28
 392 000a 0446     		mov	r4, r0
 393 000c 0FCE     		ldmia	r6!, {r0, r1, r2, r3}
 394              	.LVL26:
 147:D:/fchai/work/i-cube/I-CUBE-HUAWEI/Middlewares/Third_Party/Huawei/iot_link/oc/oc_mqtt/oc_mqtt_profile_v5\oc_mqtt_profile.c ****     int ret = (int)en_oc_mqtt_err_parafmt;
 395              		.loc 1 147 1 view .LVU109
 396 000e 95B0     		sub	sp, sp, #84
 397              	.LCFI9:
 398              		.cfi_def_cfa_offset 104
 166:D:/fchai/work/i-cube/I-CUBE-HUAWEI/Middlewares/Third_Party/Huawei/iot_link/oc/oc_mqtt/oc_mqtt_profile_v5\oc_mqtt_profile.c ****     config.log_dealer = payload->logfunc;
 399              		.loc 1 166 21 view .LVU110
 400 0010 04AD     		add	r5, sp, #16
 401 0012 0FC5     		stmia	r5!, {r0, r1, r2, r3}
 402 0014 0FCE     		ldmia	r6!, {r0, r1, r2, r3}
 403 0016 0FC5     		stmia	r5!, {r0, r1, r2, r3}
 159:D:/fchai/work/i-cube/I-CUBE-HUAWEI/Middlewares/Third_Party/Huawei/iot_link/oc/oc_mqtt/oc_mqtt_profile_v5\oc_mqtt_profile.c ****     config.scope_id = payload->scope_id;
 404              		.loc 1 159 16 view .LVU111
 405 0018 D4E90421 		ldrd	r2, r1, [r4, #16]
 406 001c 0020     		movs	r0, #0
 160:D:/fchai/work/i-cube/I-CUBE-HUAWEI/Middlewares/Third_Party/Huawei/iot_link/oc/oc_mqtt/oc_mqtt_profile_v5\oc_mqtt_profile.c ****     config.server_addr = payload->server_addr;
 407              		.loc 1 160 21 view .LVU112
 408 001e A769     		ldr	r7, [r4, #24]
 161:D:/fchai/work/i-cube/I-CUBE-HUAWEI/Middlewares/Third_Party/Huawei/iot_link/oc/oc_mqtt/oc_mqtt_profile_v5\oc_mqtt_profile.c ****     config.server_port = payload->server_port;
 409              		.loc 1 161 24 view .LVU113
 410 0020 A368     		ldr	r3, [r4, #8]
 411 0022 8DF80500 		strb	r0, [sp, #5]
 157:D:/fchai/work/i-cube/I-CUBE-HUAWEI/Middlewares/Third_Party/Huawei/iot_link/oc/oc_mqtt/oc_mqtt_profile_v5\oc_mqtt_profile.c ****     config.id = payload->device_id;
 412              		.loc 1 157 5 is_stmt 1 view .LVU114
 165:D:/fchai/work/i-cube/I-CUBE-HUAWEI/Middlewares/Third_Party/Huawei/iot_link/oc/oc_mqtt/oc_mqtt_profile_v5\oc_mqtt_profile.c ****     config.security = payload->security;
 413              		.loc 1 165 25 is_stmt 0 view .LVU115
 414 0026 1290     		str	r0, [sp, #72]
 162:D:/fchai/work/i-cube/I-CUBE-HUAWEI/Middlewares/Third_Party/Huawei/iot_link/oc/oc_mqtt/oc_mqtt_profile_v5\oc_mqtt_profile.c ****     config.lifetime = payload->life_time;
 415              		.loc 1 162 24 view .LVU116
 416 0028 E068     		ldr	r0, [r4, #12]
 160:D:/fchai/work/i-cube/I-CUBE-HUAWEI/Middlewares/Third_Party/Huawei/iot_link/oc/oc_mqtt/oc_mqtt_profile_v5\oc_mqtt_profile.c ****     config.server_addr = payload->server_addr;
 417              		.loc 1 160 21 view .LVU117
 418 002a 1097     		str	r7, [sp, #64]
 159:D:/fchai/work/i-cube/I-CUBE-HUAWEI/Middlewares/Third_Party/Huawei/iot_link/oc/oc_mqtt/oc_mqtt_profile_v5\oc_mqtt_profile.c ****     config.scope_id = payload->scope_id;
 419              		.loc 1 159 16 view .LVU118
 420 002c CDE90E21 		strd	r2, r1, [sp, #56]
 161:D:/fchai/work/i-cube/I-CUBE-HUAWEI/Middlewares/Third_Party/Huawei/iot_link/oc/oc_mqtt/oc_mqtt_profile_v5\oc_mqtt_profile.c ****     config.server_port = payload->server_port;
 421              		.loc 1 161 24 view .LVU119
 422 0030 0293     		str	r3, [sp, #8]
 164:D:/fchai/work/i-cube/I-CUBE-HUAWEI/Middlewares/Third_Party/Huawei/iot_link/oc/oc_mqtt/oc_mqtt_profile_v5\oc_mqtt_profile.c ****     config.msg_deal_arg = NULL;
 423              		.loc 1 164 21 view .LVU120
 424 0032 1449     		ldr	r1, .L47
 157:D:/fchai/work/i-cube/I-CUBE-HUAWEI/Middlewares/Third_Party/Huawei/iot_link/oc/oc_mqtt/oc_mqtt_profile_v5\oc_mqtt_profile.c ****     config.id = payload->device_id;
 425              		.loc 1 157 30 view .LVU121
 426 0034 2368     		ldr	r3, [r4]
 158:D:/fchai/work/i-cube/I-CUBE-HUAWEI/Middlewares/Third_Party/Huawei/iot_link/oc/oc_mqtt/oc_mqtt_profile_v5\oc_mqtt_profile.c ****     config.pwd = payload->device_passwd;
 427              		.loc 1 158 5 is_stmt 1 view .LVU122
 159:D:/fchai/work/i-cube/I-CUBE-HUAWEI/Middlewares/Third_Party/Huawei/iot_link/oc/oc_mqtt/oc_mqtt_profile_v5\oc_mqtt_profile.c ****     config.scope_id = payload->scope_id;
 428              		.loc 1 159 5 view .LVU123
 160:D:/fchai/work/i-cube/I-CUBE-HUAWEI/Middlewares/Third_Party/Huawei/iot_link/oc/oc_mqtt/oc_mqtt_profile_v5\oc_mqtt_profile.c ****     config.server_addr = payload->server_addr;
 429              		.loc 1 160 5 view .LVU124
 161:D:/fchai/work/i-cube/I-CUBE-HUAWEI/Middlewares/Third_Party/Huawei/iot_link/oc/oc_mqtt/oc_mqtt_profile_v5\oc_mqtt_profile.c ****     config.server_port = payload->server_port;
ARM GAS  T:\msys\tmp\ccMJI2cA.s 			page 14


 430              		.loc 1 161 5 view .LVU125
 162:D:/fchai/work/i-cube/I-CUBE-HUAWEI/Middlewares/Third_Party/Huawei/iot_link/oc/oc_mqtt/oc_mqtt_profile_v5\oc_mqtt_profile.c ****     config.lifetime = payload->life_time;
 431              		.loc 1 162 5 view .LVU126
 162:D:/fchai/work/i-cube/I-CUBE-HUAWEI/Middlewares/Third_Party/Huawei/iot_link/oc/oc_mqtt/oc_mqtt_profile_v5\oc_mqtt_profile.c ****     config.lifetime = payload->life_time;
 432              		.loc 1 162 24 is_stmt 0 view .LVU127
 433 0036 0390     		str	r0, [sp, #12]
 163:D:/fchai/work/i-cube/I-CUBE-HUAWEI/Middlewares/Third_Party/Huawei/iot_link/oc/oc_mqtt/oc_mqtt_profile_v5\oc_mqtt_profile.c ****     config.msg_deal = app_msg_deal;
 434              		.loc 1 163 5 is_stmt 1 view .LVU128
 178:D:/fchai/work/i-cube/I-CUBE-HUAWEI/Middlewares/Third_Party/Huawei/iot_link/oc/oc_mqtt/oc_mqtt_profile_v5\oc_mqtt_profile.c ****     {
 435              		.loc 1 178 36 is_stmt 0 view .LVU129
 436 0038 134F     		ldr	r7, .L47+4
 163:D:/fchai/work/i-cube/I-CUBE-HUAWEI/Middlewares/Third_Party/Huawei/iot_link/oc/oc_mqtt/oc_mqtt_profile_v5\oc_mqtt_profile.c ****     config.msg_deal = app_msg_deal;
 437              		.loc 1 163 21 view .LVU130
 438 003a 6068     		ldr	r0, [r4, #4]
 439 003c ADF80600 		strh	r0, [sp, #6]	@ movhi
 164:D:/fchai/work/i-cube/I-CUBE-HUAWEI/Middlewares/Third_Party/Huawei/iot_link/oc/oc_mqtt/oc_mqtt_profile_v5\oc_mqtt_profile.c ****     config.msg_deal_arg = NULL;
 440              		.loc 1 164 5 is_stmt 1 view .LVU131
 164:D:/fchai/work/i-cube/I-CUBE-HUAWEI/Middlewares/Third_Party/Huawei/iot_link/oc/oc_mqtt/oc_mqtt_profile_v5\oc_mqtt_profile.c ****     config.msg_deal_arg = NULL;
 441              		.loc 1 164 21 is_stmt 0 view .LVU132
 442 0040 1191     		str	r1, [sp, #68]
 165:D:/fchai/work/i-cube/I-CUBE-HUAWEI/Middlewares/Third_Party/Huawei/iot_link/oc/oc_mqtt/oc_mqtt_profile_v5\oc_mqtt_profile.c ****     config.security = payload->security;
 443              		.loc 1 165 5 is_stmt 1 view .LVU133
 166:D:/fchai/work/i-cube/I-CUBE-HUAWEI/Middlewares/Third_Party/Huawei/iot_link/oc/oc_mqtt/oc_mqtt_profile_v5\oc_mqtt_profile.c ****     config.log_dealer = payload->logfunc;
 444              		.loc 1 166 5 view .LVU134
 166:D:/fchai/work/i-cube/I-CUBE-HUAWEI/Middlewares/Third_Party/Huawei/iot_link/oc/oc_mqtt/oc_mqtt_profile_v5\oc_mqtt_profile.c ****     config.log_dealer = payload->logfunc;
 445              		.loc 1 166 21 is_stmt 0 view .LVU135
 446 0042 96E80300 		ldm	r6, {r0, r1}
 169:D:/fchai/work/i-cube/I-CUBE-HUAWEI/Middlewares/Third_Party/Huawei/iot_link/oc/oc_mqtt/oc_mqtt_profile_v5\oc_mqtt_profile.c ****     {
 447              		.loc 1 169 7 view .LVU136
 448 0046 B3FA83F3 		clz	r3, r3
 178:D:/fchai/work/i-cube/I-CUBE-HUAWEI/Middlewares/Third_Party/Huawei/iot_link/oc/oc_mqtt/oc_mqtt_profile_v5\oc_mqtt_profile.c ****     {
 449              		.loc 1 178 36 view .LVU137
 450 004a D7F800C0 		ldr	ip, [r7]
 167:D:/fchai/work/i-cube/I-CUBE-HUAWEI/Middlewares/Third_Party/Huawei/iot_link/oc/oc_mqtt/oc_mqtt_profile_v5\oc_mqtt_profile.c **** 
 451              		.loc 1 167 23 view .LVU138
 452 004e A66C     		ldr	r6, [r4, #72]
 453 0050 1396     		str	r6, [sp, #76]
 169:D:/fchai/work/i-cube/I-CUBE-HUAWEI/Middlewares/Third_Party/Huawei/iot_link/oc/oc_mqtt/oc_mqtt_profile_v5\oc_mqtt_profile.c ****     {
 454              		.loc 1 169 7 view .LVU139
 455 0052 5B09     		lsrs	r3, r3, #5
 166:D:/fchai/work/i-cube/I-CUBE-HUAWEI/Middlewares/Third_Party/Huawei/iot_link/oc/oc_mqtt/oc_mqtt_profile_v5\oc_mqtt_profile.c ****     config.log_dealer = payload->logfunc;
 456              		.loc 1 166 21 view .LVU140
 457 0054 85E80300 		stm	r5, {r0, r1}
 167:D:/fchai/work/i-cube/I-CUBE-HUAWEI/Middlewares/Third_Party/Huawei/iot_link/oc/oc_mqtt/oc_mqtt_profile_v5\oc_mqtt_profile.c **** 
 458              		.loc 1 167 5 is_stmt 1 view .LVU141
 169:D:/fchai/work/i-cube/I-CUBE-HUAWEI/Middlewares/Third_Party/Huawei/iot_link/oc/oc_mqtt/oc_mqtt_profile_v5\oc_mqtt_profile.c ****     {
 459              		.loc 1 169 5 view .LVU142
 169:D:/fchai/work/i-cube/I-CUBE-HUAWEI/Middlewares/Third_Party/Huawei/iot_link/oc/oc_mqtt/oc_mqtt_profile_v5\oc_mqtt_profile.c ****     {
 460              		.loc 1 169 7 is_stmt 0 view .LVU143
 461 0058 8DF80430 		strb	r3, [sp, #4]
 178:D:/fchai/work/i-cube/I-CUBE-HUAWEI/Middlewares/Third_Party/Huawei/iot_link/oc/oc_mqtt/oc_mqtt_profile_v5\oc_mqtt_profile.c ****     {
 462              		.loc 1 178 5 is_stmt 1 view .LVU144
 178:D:/fchai/work/i-cube/I-CUBE-HUAWEI/Middlewares/Third_Party/Huawei/iot_link/oc/oc_mqtt/oc_mqtt_profile_v5\oc_mqtt_profile.c ****     {
 463              		.loc 1 178 7 is_stmt 0 view .LVU145
 464 005c BCF1000F 		cmp	ip, #0
 465 0060 03D0     		beq	.L38
 180:D:/fchai/work/i-cube/I-CUBE-HUAWEI/Middlewares/Third_Party/Huawei/iot_link/oc/oc_mqtt/oc_mqtt_profile_v5\oc_mqtt_profile.c ****     }
ARM GAS  T:\msys\tmp\ccMJI2cA.s 			page 15


 466              		.loc 1 180 9 is_stmt 1 view .LVU146
 467 0062 6046     		mov	r0, ip
 468 0064 FFF7FEFF 		bl	osal_free
 469              	.LVL27:
 470 0068 2269     		ldr	r2, [r4, #16]
 471              	.L38:
 182:D:/fchai/work/i-cube/I-CUBE-HUAWEI/Middlewares/Third_Party/Huawei/iot_link/oc/oc_mqtt/oc_mqtt_profile_v5\oc_mqtt_profile.c ****     s_oc_mqtt_profile_cb.rcvfunc = payload->rcvfunc;
 472              		.loc 1 182 5 view .LVU147
 182:D:/fchai/work/i-cube/I-CUBE-HUAWEI/Middlewares/Third_Party/Huawei/iot_link/oc/oc_mqtt/oc_mqtt_profile_v5\oc_mqtt_profile.c ****     s_oc_mqtt_profile_cb.rcvfunc = payload->rcvfunc;
 473              		.loc 1 182 38 is_stmt 0 view .LVU148
 474 006a 1046     		mov	r0, r2
 475 006c FFF7FEFF 		bl	osal_strdup
 476              	.LVL28:
 183:D:/fchai/work/i-cube/I-CUBE-HUAWEI/Middlewares/Third_Party/Huawei/iot_link/oc/oc_mqtt/oc_mqtt_profile_v5\oc_mqtt_profile.c ****     ret = oc_mqtt_config(&config);
 477              		.loc 1 183 34 view .LVU149
 478 0070 636C     		ldr	r3, [r4, #68]
 182:D:/fchai/work/i-cube/I-CUBE-HUAWEI/Middlewares/Third_Party/Huawei/iot_link/oc/oc_mqtt/oc_mqtt_profile_v5\oc_mqtt_profile.c ****     s_oc_mqtt_profile_cb.rcvfunc = payload->rcvfunc;
 479              		.loc 1 182 36 view .LVU150
 480 0072 3860     		str	r0, [r7]
 183:D:/fchai/work/i-cube/I-CUBE-HUAWEI/Middlewares/Third_Party/Huawei/iot_link/oc/oc_mqtt/oc_mqtt_profile_v5\oc_mqtt_profile.c ****     ret = oc_mqtt_config(&config);
 481              		.loc 1 183 5 is_stmt 1 view .LVU151
 184:D:/fchai/work/i-cube/I-CUBE-HUAWEI/Middlewares/Third_Party/Huawei/iot_link/oc/oc_mqtt/oc_mqtt_profile_v5\oc_mqtt_profile.c **** 
 482              		.loc 1 184 11 is_stmt 0 view .LVU152
 483 0074 01A8     		add	r0, sp, #4
 183:D:/fchai/work/i-cube/I-CUBE-HUAWEI/Middlewares/Third_Party/Huawei/iot_link/oc/oc_mqtt/oc_mqtt_profile_v5\oc_mqtt_profile.c ****     ret = oc_mqtt_config(&config);
 484              		.loc 1 183 34 view .LVU153
 485 0076 7B60     		str	r3, [r7, #4]
 184:D:/fchai/work/i-cube/I-CUBE-HUAWEI/Middlewares/Third_Party/Huawei/iot_link/oc/oc_mqtt/oc_mqtt_profile_v5\oc_mqtt_profile.c **** 
 486              		.loc 1 184 5 is_stmt 1 view .LVU154
 184:D:/fchai/work/i-cube/I-CUBE-HUAWEI/Middlewares/Third_Party/Huawei/iot_link/oc/oc_mqtt/oc_mqtt_profile_v5\oc_mqtt_profile.c **** 
 487              		.loc 1 184 11 is_stmt 0 view .LVU155
 488 0078 FFF7FEFF 		bl	oc_mqtt_config
 489              	.LVL29:
 186:D:/fchai/work/i-cube/I-CUBE-HUAWEI/Middlewares/Third_Party/Huawei/iot_link/oc/oc_mqtt/oc_mqtt_profile_v5\oc_mqtt_profile.c **** }
 490              		.loc 1 186 5 is_stmt 1 view .LVU156
 187:D:/fchai/work/i-cube/I-CUBE-HUAWEI/Middlewares/Third_Party/Huawei/iot_link/oc/oc_mqtt/oc_mqtt_profile_v5\oc_mqtt_profile.c **** 
 491              		.loc 1 187 1 is_stmt 0 view .LVU157
 492 007c 15B0     		add	sp, sp, #84
 493              	.LCFI10:
 494              		.cfi_def_cfa_offset 20
 495              		@ sp needed
 496 007e F0BD     		pop	{r4, r5, r6, r7, pc}
 497              	.LVL30:
 498              	.L39:
 499              	.LCFI11:
 500              		.cfi_def_cfa_offset 0
 501              		.cfi_restore 4
 502              		.cfi_restore 5
 503              		.cfi_restore 6
 504              		.cfi_restore 7
 505              		.cfi_restore 14
 153:D:/fchai/work/i-cube/I-CUBE-HUAWEI/Middlewares/Third_Party/Huawei/iot_link/oc/oc_mqtt/oc_mqtt_profile_v5\oc_mqtt_profile.c ****     }
 506              		.loc 1 153 16 view .LVU158
 507 0080 0120     		movs	r0, #1
 508              	.LVL31:
 187:D:/fchai/work/i-cube/I-CUBE-HUAWEI/Middlewares/Third_Party/Huawei/iot_link/oc/oc_mqtt/oc_mqtt_profile_v5\oc_mqtt_profile.c **** 
 509              		.loc 1 187 1 view .LVU159
ARM GAS  T:\msys\tmp\ccMJI2cA.s 			page 16


 510 0082 7047     		bx	lr
 511              	.L48:
 512              		.align	2
 513              	.L47:
 514 0084 00000000 		.word	app_msg_deal
 515 0088 00000000 		.word	.LANCHOR0
 516              		.cfi_endproc
 517              	.LFE4:
 519              		.section	.text.oc_mqtt_profile_disconnect,"ax",%progbits
 520              		.align	1
 521              		.p2align 2,,3
 522              		.global	oc_mqtt_profile_disconnect
 523              		.syntax unified
 524              		.thumb
 525              		.thumb_func
 526              		.fpu fpv4-sp-d16
 528              	oc_mqtt_profile_disconnect:
 529              	.LFB5:
 191:D:/fchai/work/i-cube/I-CUBE-HUAWEI/Middlewares/Third_Party/Huawei/iot_link/oc/oc_mqtt/oc_mqtt_profile_v5\oc_mqtt_profile.c ****     int ret;
 530              		.loc 1 191 1 is_stmt 1 view -0
 531              		.cfi_startproc
 532              		@ args = 0, pretend = 0, frame = 0
 533              		@ frame_needed = 0, uses_anonymous_args = 0
 192:D:/fchai/work/i-cube/I-CUBE-HUAWEI/Middlewares/Third_Party/Huawei/iot_link/oc/oc_mqtt/oc_mqtt_profile_v5\oc_mqtt_profile.c **** 
 534              		.loc 1 192 5 view .LVU161
 194:D:/fchai/work/i-cube/I-CUBE-HUAWEI/Middlewares/Third_Party/Huawei/iot_link/oc/oc_mqtt/oc_mqtt_profile_v5\oc_mqtt_profile.c ****     if(ret == (int)en_oc_mqtt_err_ok)
 535              		.loc 1 194 5 view .LVU162
 191:D:/fchai/work/i-cube/I-CUBE-HUAWEI/Middlewares/Third_Party/Huawei/iot_link/oc/oc_mqtt/oc_mqtt_profile_v5\oc_mqtt_profile.c ****     int ret;
 536              		.loc 1 191 1 is_stmt 0 view .LVU163
 537 0000 38B5     		push	{r3, r4, r5, lr}
 538              	.LCFI12:
 539              		.cfi_def_cfa_offset 16
 540              		.cfi_offset 3, -16
 541              		.cfi_offset 4, -12
 542              		.cfi_offset 5, -8
 543              		.cfi_offset 14, -4
 194:D:/fchai/work/i-cube/I-CUBE-HUAWEI/Middlewares/Third_Party/Huawei/iot_link/oc/oc_mqtt/oc_mqtt_profile_v5\oc_mqtt_profile.c ****     if(ret == (int)en_oc_mqtt_err_ok)
 544              		.loc 1 194 11 view .LVU164
 545 0002 FFF7FEFF 		bl	oc_mqtt_deconfig
 546              	.LVL32:
 195:D:/fchai/work/i-cube/I-CUBE-HUAWEI/Middlewares/Third_Party/Huawei/iot_link/oc/oc_mqtt/oc_mqtt_profile_v5\oc_mqtt_profile.c ****     {
 547              		.loc 1 195 5 is_stmt 1 view .LVU165
 195:D:/fchai/work/i-cube/I-CUBE-HUAWEI/Middlewares/Third_Party/Huawei/iot_link/oc/oc_mqtt/oc_mqtt_profile_v5\oc_mqtt_profile.c ****     {
 548              		.loc 1 195 7 is_stmt 0 view .LVU166
 549 0006 0446     		mov	r4, r0
 550 0008 08B1     		cbz	r0, .L52
 203:D:/fchai/work/i-cube/I-CUBE-HUAWEI/Middlewares/Third_Party/Huawei/iot_link/oc/oc_mqtt/oc_mqtt_profile_v5\oc_mqtt_profile.c **** 
 551              		.loc 1 203 1 view .LVU167
 552 000a 2046     		mov	r0, r4
 203:D:/fchai/work/i-cube/I-CUBE-HUAWEI/Middlewares/Third_Party/Huawei/iot_link/oc/oc_mqtt/oc_mqtt_profile_v5\oc_mqtt_profile.c **** 
 553              		.loc 1 203 1 view .LVU168
 554 000c 38BD     		pop	{r3, r4, r5, pc}
 555              	.L52:
 197:D:/fchai/work/i-cube/I-CUBE-HUAWEI/Middlewares/Third_Party/Huawei/iot_link/oc/oc_mqtt/oc_mqtt_profile_v5\oc_mqtt_profile.c ****         s_oc_mqtt_profile_cb.device_id = NULL;
 556              		.loc 1 197 9 is_stmt 1 view .LVU169
 197:D:/fchai/work/i-cube/I-CUBE-HUAWEI/Middlewares/Third_Party/Huawei/iot_link/oc/oc_mqtt/oc_mqtt_profile_v5\oc_mqtt_profile.c ****         s_oc_mqtt_profile_cb.device_id = NULL;
 557              		.loc 1 197 39 is_stmt 0 view .LVU170
ARM GAS  T:\msys\tmp\ccMJI2cA.s 			page 17


 558 000e 044D     		ldr	r5, .L53
 197:D:/fchai/work/i-cube/I-CUBE-HUAWEI/Middlewares/Third_Party/Huawei/iot_link/oc/oc_mqtt/oc_mqtt_profile_v5\oc_mqtt_profile.c ****         s_oc_mqtt_profile_cb.device_id = NULL;
 559              		.loc 1 197 9 view .LVU171
 560 0010 2868     		ldr	r0, [r5]
 561              	.LVL33:
 197:D:/fchai/work/i-cube/I-CUBE-HUAWEI/Middlewares/Third_Party/Huawei/iot_link/oc/oc_mqtt/oc_mqtt_profile_v5\oc_mqtt_profile.c ****         s_oc_mqtt_profile_cb.device_id = NULL;
 562              		.loc 1 197 9 view .LVU172
 563 0012 FFF7FEFF 		bl	osal_free
 564              	.LVL34:
 198:D:/fchai/work/i-cube/I-CUBE-HUAWEI/Middlewares/Third_Party/Huawei/iot_link/oc/oc_mqtt/oc_mqtt_profile_v5\oc_mqtt_profile.c ****         s_oc_mqtt_profile_cb.rcvfunc = NULL;
 565              		.loc 1 198 9 is_stmt 1 view .LVU173
 199:D:/fchai/work/i-cube/I-CUBE-HUAWEI/Middlewares/Third_Party/Huawei/iot_link/oc/oc_mqtt/oc_mqtt_profile_v5\oc_mqtt_profile.c ****     }
 566              		.loc 1 199 38 is_stmt 0 view .LVU174
 567 0016 C5E90044 		strd	r4, r4, [r5]
 202:D:/fchai/work/i-cube/I-CUBE-HUAWEI/Middlewares/Third_Party/Huawei/iot_link/oc/oc_mqtt/oc_mqtt_profile_v5\oc_mqtt_profile.c **** }
 568              		.loc 1 202 5 is_stmt 1 view .LVU175
 203:D:/fchai/work/i-cube/I-CUBE-HUAWEI/Middlewares/Third_Party/Huawei/iot_link/oc/oc_mqtt/oc_mqtt_profile_v5\oc_mqtt_profile.c **** 
 569              		.loc 1 203 1 is_stmt 0 view .LVU176
 570 001a 2046     		mov	r0, r4
 571 001c 38BD     		pop	{r3, r4, r5, pc}
 572              	.LVL35:
 573              	.L54:
 203:D:/fchai/work/i-cube/I-CUBE-HUAWEI/Middlewares/Third_Party/Huawei/iot_link/oc/oc_mqtt/oc_mqtt_profile_v5\oc_mqtt_profile.c **** 
 574              		.loc 1 203 1 view .LVU177
 575 001e 00BF     		.align	2
 576              	.L53:
 577 0020 00000000 		.word	.LANCHOR0
 578              		.cfi_endproc
 579              	.LFE5:
 581              		.section	.rodata.oc_mqtt_profile_msgup.str1.4,"aMS",%progbits,1
 582              		.align	2
 583              	.LC7:
 584 0000 246F632F 		.ascii	"$oc/devices/%s/sys/messages/up\000"
 584      64657669 
 584      6365732F 
 584      25732F73 
 584      79732F6D 
 585              		.section	.text.oc_mqtt_profile_msgup,"ax",%progbits
 586              		.align	1
 587              		.p2align 2,,3
 588              		.global	oc_mqtt_profile_msgup
 589              		.syntax unified
 590              		.thumb
 591              		.thumb_func
 592              		.fpu fpv4-sp-d16
 594              	oc_mqtt_profile_msgup:
 595              	.LVL36:
 596              	.LFB7:
 230:D:/fchai/work/i-cube/I-CUBE-HUAWEI/Middlewares/Third_Party/Huawei/iot_link/oc/oc_mqtt/oc_mqtt_profile_v5\oc_mqtt_profile.c **** 
 231:D:/fchai/work/i-cube/I-CUBE-HUAWEI/Middlewares/Third_Party/Huawei/iot_link/oc/oc_mqtt/oc_mqtt_profile_v5\oc_mqtt_profile.c **** 
 232:D:/fchai/work/i-cube/I-CUBE-HUAWEI/Middlewares/Third_Party/Huawei/iot_link/oc/oc_mqtt/oc_mqtt_profile_v5\oc_mqtt_profile.c **** ///< use this function to report the messsage
 233:D:/fchai/work/i-cube/I-CUBE-HUAWEI/Middlewares/Third_Party/Huawei/iot_link/oc/oc_mqtt/oc_mqtt_profile_v5\oc_mqtt_profile.c **** #define CN_OC_MQTT_PROFILE_MSGUP_TOPICFMT   "$oc/devices/%s/sys/messages/up"
 234:D:/fchai/work/i-cube/I-CUBE-HUAWEI/Middlewares/Third_Party/Huawei/iot_link/oc/oc_mqtt/oc_mqtt_profile_v5\oc_mqtt_profile.c **** int oc_mqtt_profile_msgup(char *deviceid,oc_mqtt_profile_msgup_t *payload)
 235:D:/fchai/work/i-cube/I-CUBE-HUAWEI/Middlewares/Third_Party/Huawei/iot_link/oc/oc_mqtt/oc_mqtt_profile_v5\oc_mqtt_profile.c **** {
 597              		.loc 1 235 1 is_stmt 1 view -0
 598              		.cfi_startproc
 599              		@ args = 0, pretend = 0, frame = 0
ARM GAS  T:\msys\tmp\ccMJI2cA.s 			page 18


 600              		@ frame_needed = 0, uses_anonymous_args = 0
 236:D:/fchai/work/i-cube/I-CUBE-HUAWEI/Middlewares/Third_Party/Huawei/iot_link/oc/oc_mqtt/oc_mqtt_profile_v5\oc_mqtt_profile.c ****     int ret = (int)en_oc_mqtt_err_parafmt;
 601              		.loc 1 236 5 view .LVU179
 237:D:/fchai/work/i-cube/I-CUBE-HUAWEI/Middlewares/Third_Party/Huawei/iot_link/oc/oc_mqtt/oc_mqtt_profile_v5\oc_mqtt_profile.c ****     char *topic;
 602              		.loc 1 237 5 view .LVU180
 238:D:/fchai/work/i-cube/I-CUBE-HUAWEI/Middlewares/Third_Party/Huawei/iot_link/oc/oc_mqtt/oc_mqtt_profile_v5\oc_mqtt_profile.c ****     char *msg;
 603              		.loc 1 238 5 view .LVU181
 239:D:/fchai/work/i-cube/I-CUBE-HUAWEI/Middlewares/Third_Party/Huawei/iot_link/oc/oc_mqtt/oc_mqtt_profile_v5\oc_mqtt_profile.c **** 
 240:D:/fchai/work/i-cube/I-CUBE-HUAWEI/Middlewares/Third_Party/Huawei/iot_link/oc/oc_mqtt/oc_mqtt_profile_v5\oc_mqtt_profile.c ****     if(NULL == deviceid)
 604              		.loc 1 240 5 view .LVU182
 235:D:/fchai/work/i-cube/I-CUBE-HUAWEI/Middlewares/Third_Party/Huawei/iot_link/oc/oc_mqtt/oc_mqtt_profile_v5\oc_mqtt_profile.c ****     int ret = (int)en_oc_mqtt_err_parafmt;
 605              		.loc 1 235 1 is_stmt 0 view .LVU183
 606 0000 70B5     		push	{r4, r5, r6, lr}
 607              	.LCFI13:
 608              		.cfi_def_cfa_offset 16
 609              		.cfi_offset 4, -16
 610              		.cfi_offset 5, -12
 611              		.cfi_offset 6, -8
 612              		.cfi_offset 14, -4
 235:D:/fchai/work/i-cube/I-CUBE-HUAWEI/Middlewares/Third_Party/Huawei/iot_link/oc/oc_mqtt/oc_mqtt_profile_v5\oc_mqtt_profile.c ****     int ret = (int)en_oc_mqtt_err_parafmt;
 613              		.loc 1 235 1 view .LVU184
 614 0002 0C46     		mov	r4, r1
 615              		.loc 1 240 7 view .LVU185
 616 0004 10B3     		cbz	r0, .L66
 617 0006 0146     		mov	r1, r0
 618              	.LVL37:
 619              	.L56:
 241:D:/fchai/work/i-cube/I-CUBE-HUAWEI/Middlewares/Third_Party/Huawei/iot_link/oc/oc_mqtt/oc_mqtt_profile_v5\oc_mqtt_profile.c ****     {
 242:D:/fchai/work/i-cube/I-CUBE-HUAWEI/Middlewares/Third_Party/Huawei/iot_link/oc/oc_mqtt/oc_mqtt_profile_v5\oc_mqtt_profile.c ****         if(NULL == s_oc_mqtt_profile_cb.device_id)
 243:D:/fchai/work/i-cube/I-CUBE-HUAWEI/Middlewares/Third_Party/Huawei/iot_link/oc/oc_mqtt/oc_mqtt_profile_v5\oc_mqtt_profile.c ****         {
 244:D:/fchai/work/i-cube/I-CUBE-HUAWEI/Middlewares/Third_Party/Huawei/iot_link/oc/oc_mqtt/oc_mqtt_profile_v5\oc_mqtt_profile.c ****             return ret;
 245:D:/fchai/work/i-cube/I-CUBE-HUAWEI/Middlewares/Third_Party/Huawei/iot_link/oc/oc_mqtt/oc_mqtt_profile_v5\oc_mqtt_profile.c ****         }
 246:D:/fchai/work/i-cube/I-CUBE-HUAWEI/Middlewares/Third_Party/Huawei/iot_link/oc/oc_mqtt/oc_mqtt_profile_v5\oc_mqtt_profile.c ****         else
 247:D:/fchai/work/i-cube/I-CUBE-HUAWEI/Middlewares/Third_Party/Huawei/iot_link/oc/oc_mqtt/oc_mqtt_profile_v5\oc_mqtt_profile.c ****         {
 248:D:/fchai/work/i-cube/I-CUBE-HUAWEI/Middlewares/Third_Party/Huawei/iot_link/oc/oc_mqtt/oc_mqtt_profile_v5\oc_mqtt_profile.c ****             deviceid = s_oc_mqtt_profile_cb.device_id;
 249:D:/fchai/work/i-cube/I-CUBE-HUAWEI/Middlewares/Third_Party/Huawei/iot_link/oc/oc_mqtt/oc_mqtt_profile_v5\oc_mqtt_profile.c ****         }
 250:D:/fchai/work/i-cube/I-CUBE-HUAWEI/Middlewares/Third_Party/Huawei/iot_link/oc/oc_mqtt/oc_mqtt_profile_v5\oc_mqtt_profile.c ****     }
 251:D:/fchai/work/i-cube/I-CUBE-HUAWEI/Middlewares/Third_Party/Huawei/iot_link/oc/oc_mqtt/oc_mqtt_profile_v5\oc_mqtt_profile.c **** 
 252:D:/fchai/work/i-cube/I-CUBE-HUAWEI/Middlewares/Third_Party/Huawei/iot_link/oc/oc_mqtt/oc_mqtt_profile_v5\oc_mqtt_profile.c ****     if((NULL == payload) || (NULL == payload->msg))
 620              		.loc 1 252 5 is_stmt 1 view .LVU186
 621              		.loc 1 252 7 is_stmt 0 view .LVU187
 622 0008 24B3     		cbz	r4, .L61
 623              		.loc 1 252 26 discriminator 1 view .LVU188
 624 000a E368     		ldr	r3, [r4, #12]
 625 000c 13B3     		cbz	r3, .L61
 253:D:/fchai/work/i-cube/I-CUBE-HUAWEI/Middlewares/Third_Party/Huawei/iot_link/oc/oc_mqtt/oc_mqtt_profile_v5\oc_mqtt_profile.c ****     {
 254:D:/fchai/work/i-cube/I-CUBE-HUAWEI/Middlewares/Third_Party/Huawei/iot_link/oc/oc_mqtt/oc_mqtt_profile_v5\oc_mqtt_profile.c ****         return ret;
 255:D:/fchai/work/i-cube/I-CUBE-HUAWEI/Middlewares/Third_Party/Huawei/iot_link/oc/oc_mqtt/oc_mqtt_profile_v5\oc_mqtt_profile.c ****     }
 256:D:/fchai/work/i-cube/I-CUBE-HUAWEI/Middlewares/Third_Party/Huawei/iot_link/oc/oc_mqtt/oc_mqtt_profile_v5\oc_mqtt_profile.c **** 
 257:D:/fchai/work/i-cube/I-CUBE-HUAWEI/Middlewares/Third_Party/Huawei/iot_link/oc/oc_mqtt/oc_mqtt_profile_v5\oc_mqtt_profile.c ****     topic = topic_make(CN_OC_MQTT_PROFILE_MSGUP_TOPICFMT, deviceid,NULL);
 626              		.loc 1 257 5 is_stmt 1 view .LVU189
 627              		.loc 1 257 13 is_stmt 0 view .LVU190
 628 000e 0022     		movs	r2, #0
 629 0010 1248     		ldr	r0, .L67
 630 0012 FFF7FEFF 		bl	topic_make
 631              	.LVL38:
 632              		.loc 1 257 13 view .LVU191
ARM GAS  T:\msys\tmp\ccMJI2cA.s 			page 19


 633 0016 0346     		mov	r3, r0
 258:D:/fchai/work/i-cube/I-CUBE-HUAWEI/Middlewares/Third_Party/Huawei/iot_link/oc/oc_mqtt/oc_mqtt_profile_v5\oc_mqtt_profile.c ****     msg = oc_mqtt_profile_package_msgup(payload);
 634              		.loc 1 258 11 view .LVU192
 635 0018 2046     		mov	r0, r4
 257:D:/fchai/work/i-cube/I-CUBE-HUAWEI/Middlewares/Third_Party/Huawei/iot_link/oc/oc_mqtt/oc_mqtt_profile_v5\oc_mqtt_profile.c ****     msg = oc_mqtt_profile_package_msgup(payload);
 636              		.loc 1 257 13 view .LVU193
 637 001a 1C46     		mov	r4, r3
 638              	.LVL39:
 639              		.loc 1 258 5 is_stmt 1 view .LVU194
 640              		.loc 1 258 11 is_stmt 0 view .LVU195
 641 001c FFF7FEFF 		bl	oc_mqtt_profile_package_msgup
 642              	.LVL40:
 643              		.loc 1 258 11 view .LVU196
 644 0020 0546     		mov	r5, r0
 645              	.LVL41:
 259:D:/fchai/work/i-cube/I-CUBE-HUAWEI/Middlewares/Third_Party/Huawei/iot_link/oc/oc_mqtt/oc_mqtt_profile_v5\oc_mqtt_profile.c **** 
 260:D:/fchai/work/i-cube/I-CUBE-HUAWEI/Middlewares/Third_Party/Huawei/iot_link/oc/oc_mqtt/oc_mqtt_profile_v5\oc_mqtt_profile.c ****     if((NULL != topic) && (NULL != msg))
 646              		.loc 1 260 5 is_stmt 1 view .LVU197
 647              		.loc 1 260 7 is_stmt 0 view .LVU198
 648 0022 8CB1     		cbz	r4, .L63
 649              		.loc 1 260 24 discriminator 1 view .LVU199
 650 0024 80B1     		cbz	r0, .L63
 261:D:/fchai/work/i-cube/I-CUBE-HUAWEI/Middlewares/Third_Party/Huawei/iot_link/oc/oc_mqtt/oc_mqtt_profile_v5\oc_mqtt_profile.c ****     {
 262:D:/fchai/work/i-cube/I-CUBE-HUAWEI/Middlewares/Third_Party/Huawei/iot_link/oc/oc_mqtt/oc_mqtt_profile_v5\oc_mqtt_profile.c ****         ret = oc_mqtt_publish(topic,(uint8_t *)msg,strlen(msg),(int)en_mqtt_al_qos_1);
 651              		.loc 1 262 9 is_stmt 1 view .LVU200
 652              		.loc 1 262 52 is_stmt 0 view .LVU201
 653 0026 FFF7FEFF 		bl	strlen
 654              	.LVL42:
 655              		.loc 1 262 15 view .LVU202
 656 002a 0123     		movs	r3, #1
 657              		.loc 1 262 52 view .LVU203
 658 002c 0246     		mov	r2, r0
 659              		.loc 1 262 15 view .LVU204
 660 002e 2946     		mov	r1, r5
 661 0030 2046     		mov	r0, r4
 662 0032 FFF7FEFF 		bl	oc_mqtt_publish
 663              	.LVL43:
 664 0036 0646     		mov	r6, r0
 665              	.LVL44:
 666              	.L58:
 263:D:/fchai/work/i-cube/I-CUBE-HUAWEI/Middlewares/Third_Party/Huawei/iot_link/oc/oc_mqtt/oc_mqtt_profile_v5\oc_mqtt_profile.c ****     }
 264:D:/fchai/work/i-cube/I-CUBE-HUAWEI/Middlewares/Third_Party/Huawei/iot_link/oc/oc_mqtt/oc_mqtt_profile_v5\oc_mqtt_profile.c ****     else
 265:D:/fchai/work/i-cube/I-CUBE-HUAWEI/Middlewares/Third_Party/Huawei/iot_link/oc/oc_mqtt/oc_mqtt_profile_v5\oc_mqtt_profile.c ****     {
 266:D:/fchai/work/i-cube/I-CUBE-HUAWEI/Middlewares/Third_Party/Huawei/iot_link/oc/oc_mqtt/oc_mqtt_profile_v5\oc_mqtt_profile.c ****         ret = (int)en_oc_mqtt_err_sysmem;
 267:D:/fchai/work/i-cube/I-CUBE-HUAWEI/Middlewares/Third_Party/Huawei/iot_link/oc/oc_mqtt/oc_mqtt_profile_v5\oc_mqtt_profile.c ****     }
 268:D:/fchai/work/i-cube/I-CUBE-HUAWEI/Middlewares/Third_Party/Huawei/iot_link/oc/oc_mqtt/oc_mqtt_profile_v5\oc_mqtt_profile.c **** 
 269:D:/fchai/work/i-cube/I-CUBE-HUAWEI/Middlewares/Third_Party/Huawei/iot_link/oc/oc_mqtt/oc_mqtt_profile_v5\oc_mqtt_profile.c ****     osal_free(topic);
 667              		.loc 1 269 5 is_stmt 1 view .LVU205
 668 0038 2046     		mov	r0, r4
 669 003a FFF7FEFF 		bl	osal_free
 670              	.LVL45:
 270:D:/fchai/work/i-cube/I-CUBE-HUAWEI/Middlewares/Third_Party/Huawei/iot_link/oc/oc_mqtt/oc_mqtt_profile_v5\oc_mqtt_profile.c ****     osal_free(msg);
 671              		.loc 1 270 5 view .LVU206
 672 003e 2846     		mov	r0, r5
 673 0040 FFF7FEFF 		bl	osal_free
 674              	.LVL46:
 271:D:/fchai/work/i-cube/I-CUBE-HUAWEI/Middlewares/Third_Party/Huawei/iot_link/oc/oc_mqtt/oc_mqtt_profile_v5\oc_mqtt_profile.c **** 
ARM GAS  T:\msys\tmp\ccMJI2cA.s 			page 20


 272:D:/fchai/work/i-cube/I-CUBE-HUAWEI/Middlewares/Third_Party/Huawei/iot_link/oc/oc_mqtt/oc_mqtt_profile_v5\oc_mqtt_profile.c ****     return ret;
 675              		.loc 1 272 5 view .LVU207
 273:D:/fchai/work/i-cube/I-CUBE-HUAWEI/Middlewares/Third_Party/Huawei/iot_link/oc/oc_mqtt/oc_mqtt_profile_v5\oc_mqtt_profile.c **** }
 676              		.loc 1 273 1 is_stmt 0 view .LVU208
 677 0044 3046     		mov	r0, r6
 678 0046 70BD     		pop	{r4, r5, r6, pc}
 679              	.LVL47:
 680              	.L63:
 266:D:/fchai/work/i-cube/I-CUBE-HUAWEI/Middlewares/Third_Party/Huawei/iot_link/oc/oc_mqtt/oc_mqtt_profile_v5\oc_mqtt_profile.c ****     }
 681              		.loc 1 266 13 view .LVU209
 682 0048 0F26     		movs	r6, #15
 683 004a F5E7     		b	.L58
 684              	.LVL48:
 685              	.L66:
 242:D:/fchai/work/i-cube/I-CUBE-HUAWEI/Middlewares/Third_Party/Huawei/iot_link/oc/oc_mqtt/oc_mqtt_profile_v5\oc_mqtt_profile.c ****         {
 686              		.loc 1 242 9 is_stmt 1 view .LVU210
 242:D:/fchai/work/i-cube/I-CUBE-HUAWEI/Middlewares/Third_Party/Huawei/iot_link/oc/oc_mqtt/oc_mqtt_profile_v5\oc_mqtt_profile.c ****         {
 687              		.loc 1 242 40 is_stmt 0 view .LVU211
 688 004c 044B     		ldr	r3, .L67+4
 689 004e 1968     		ldr	r1, [r3]
 690              	.LVL49:
 242:D:/fchai/work/i-cube/I-CUBE-HUAWEI/Middlewares/Third_Party/Huawei/iot_link/oc/oc_mqtt/oc_mqtt_profile_v5\oc_mqtt_profile.c ****         {
 691              		.loc 1 242 11 view .LVU212
 692 0050 0029     		cmp	r1, #0
 693 0052 D9D1     		bne	.L56
 694              	.LVL50:
 695              	.L61:
 244:D:/fchai/work/i-cube/I-CUBE-HUAWEI/Middlewares/Third_Party/Huawei/iot_link/oc/oc_mqtt/oc_mqtt_profile_v5\oc_mqtt_profile.c ****         }
 696              		.loc 1 244 20 view .LVU213
 697 0054 0126     		movs	r6, #1
 698              		.loc 1 273 1 view .LVU214
 699 0056 3046     		mov	r0, r6
 700 0058 70BD     		pop	{r4, r5, r6, pc}
 701              	.LVL51:
 702              	.L68:
 703              		.loc 1 273 1 view .LVU215
 704 005a 00BF     		.align	2
 705              	.L67:
 706 005c 00000000 		.word	.LC7
 707 0060 00000000 		.word	.LANCHOR0
 708              		.cfi_endproc
 709              	.LFE7:
 711              		.section	.rodata.oc_mqtt_profile_propertyreport.str1.4,"aMS",%progbits,1
 712              		.align	2
 713              	.LC8:
 714 0000 246F632F 		.ascii	"$oc/devices/%s/sys/properties/report\000"
 714      64657669 
 714      6365732F 
 714      25732F73 
 714      79732F70 
 715              		.section	.text.oc_mqtt_profile_propertyreport,"ax",%progbits
 716              		.align	1
 717              		.p2align 2,,3
 718              		.global	oc_mqtt_profile_propertyreport
 719              		.syntax unified
 720              		.thumb
 721              		.thumb_func
ARM GAS  T:\msys\tmp\ccMJI2cA.s 			page 21


 722              		.fpu fpv4-sp-d16
 724              	oc_mqtt_profile_propertyreport:
 725              	.LVL52:
 726              	.LFB8:
 274:D:/fchai/work/i-cube/I-CUBE-HUAWEI/Middlewares/Third_Party/Huawei/iot_link/oc/oc_mqtt/oc_mqtt_profile_v5\oc_mqtt_profile.c **** 
 275:D:/fchai/work/i-cube/I-CUBE-HUAWEI/Middlewares/Third_Party/Huawei/iot_link/oc/oc_mqtt/oc_mqtt_profile_v5\oc_mqtt_profile.c **** #define CN_OC_MQTT_PROFILE_PROPERTYREPORT_TOPICFMT   "$oc/devices/%s/sys/properties/report"
 276:D:/fchai/work/i-cube/I-CUBE-HUAWEI/Middlewares/Third_Party/Huawei/iot_link/oc/oc_mqtt/oc_mqtt_profile_v5\oc_mqtt_profile.c **** int oc_mqtt_profile_propertyreport(char *deviceid,oc_mqtt_profile_service_t *payload)
 277:D:/fchai/work/i-cube/I-CUBE-HUAWEI/Middlewares/Third_Party/Huawei/iot_link/oc/oc_mqtt/oc_mqtt_profile_v5\oc_mqtt_profile.c **** {
 727              		.loc 1 277 1 is_stmt 1 view -0
 728              		.cfi_startproc
 729              		@ args = 0, pretend = 0, frame = 0
 730              		@ frame_needed = 0, uses_anonymous_args = 0
 278:D:/fchai/work/i-cube/I-CUBE-HUAWEI/Middlewares/Third_Party/Huawei/iot_link/oc/oc_mqtt/oc_mqtt_profile_v5\oc_mqtt_profile.c ****     int ret = (int)en_oc_mqtt_err_parafmt;
 731              		.loc 1 278 5 view .LVU217
 279:D:/fchai/work/i-cube/I-CUBE-HUAWEI/Middlewares/Third_Party/Huawei/iot_link/oc/oc_mqtt/oc_mqtt_profile_v5\oc_mqtt_profile.c ****     char *topic;
 732              		.loc 1 279 5 view .LVU218
 280:D:/fchai/work/i-cube/I-CUBE-HUAWEI/Middlewares/Third_Party/Huawei/iot_link/oc/oc_mqtt/oc_mqtt_profile_v5\oc_mqtt_profile.c ****     char *msg;
 733              		.loc 1 280 5 view .LVU219
 281:D:/fchai/work/i-cube/I-CUBE-HUAWEI/Middlewares/Third_Party/Huawei/iot_link/oc/oc_mqtt/oc_mqtt_profile_v5\oc_mqtt_profile.c **** 
 282:D:/fchai/work/i-cube/I-CUBE-HUAWEI/Middlewares/Third_Party/Huawei/iot_link/oc/oc_mqtt/oc_mqtt_profile_v5\oc_mqtt_profile.c ****     if(NULL == deviceid)
 734              		.loc 1 282 5 view .LVU220
 277:D:/fchai/work/i-cube/I-CUBE-HUAWEI/Middlewares/Third_Party/Huawei/iot_link/oc/oc_mqtt/oc_mqtt_profile_v5\oc_mqtt_profile.c ****     int ret = (int)en_oc_mqtt_err_parafmt;
 735              		.loc 1 277 1 is_stmt 0 view .LVU221
 736 0000 70B5     		push	{r4, r5, r6, lr}
 737              	.LCFI14:
 738              		.cfi_def_cfa_offset 16
 739              		.cfi_offset 4, -16
 740              		.cfi_offset 5, -12
 741              		.cfi_offset 6, -8
 742              		.cfi_offset 14, -4
 277:D:/fchai/work/i-cube/I-CUBE-HUAWEI/Middlewares/Third_Party/Huawei/iot_link/oc/oc_mqtt/oc_mqtt_profile_v5\oc_mqtt_profile.c ****     int ret = (int)en_oc_mqtt_err_parafmt;
 743              		.loc 1 277 1 view .LVU222
 744 0002 0C46     		mov	r4, r1
 745              		.loc 1 282 7 view .LVU223
 746 0004 D8B1     		cbz	r0, .L80
 747              	.LVL53:
 748              	.L70:
 283:D:/fchai/work/i-cube/I-CUBE-HUAWEI/Middlewares/Third_Party/Huawei/iot_link/oc/oc_mqtt/oc_mqtt_profile_v5\oc_mqtt_profile.c ****     {
 284:D:/fchai/work/i-cube/I-CUBE-HUAWEI/Middlewares/Third_Party/Huawei/iot_link/oc/oc_mqtt/oc_mqtt_profile_v5\oc_mqtt_profile.c ****         if(NULL == s_oc_mqtt_profile_cb.device_id)
 285:D:/fchai/work/i-cube/I-CUBE-HUAWEI/Middlewares/Third_Party/Huawei/iot_link/oc/oc_mqtt/oc_mqtt_profile_v5\oc_mqtt_profile.c ****         {
 286:D:/fchai/work/i-cube/I-CUBE-HUAWEI/Middlewares/Third_Party/Huawei/iot_link/oc/oc_mqtt/oc_mqtt_profile_v5\oc_mqtt_profile.c ****             return ret;
 287:D:/fchai/work/i-cube/I-CUBE-HUAWEI/Middlewares/Third_Party/Huawei/iot_link/oc/oc_mqtt/oc_mqtt_profile_v5\oc_mqtt_profile.c ****         }
 288:D:/fchai/work/i-cube/I-CUBE-HUAWEI/Middlewares/Third_Party/Huawei/iot_link/oc/oc_mqtt/oc_mqtt_profile_v5\oc_mqtt_profile.c ****         else
 289:D:/fchai/work/i-cube/I-CUBE-HUAWEI/Middlewares/Third_Party/Huawei/iot_link/oc/oc_mqtt/oc_mqtt_profile_v5\oc_mqtt_profile.c ****         {
 290:D:/fchai/work/i-cube/I-CUBE-HUAWEI/Middlewares/Third_Party/Huawei/iot_link/oc/oc_mqtt/oc_mqtt_profile_v5\oc_mqtt_profile.c ****             deviceid = s_oc_mqtt_profile_cb.device_id;
 291:D:/fchai/work/i-cube/I-CUBE-HUAWEI/Middlewares/Third_Party/Huawei/iot_link/oc/oc_mqtt/oc_mqtt_profile_v5\oc_mqtt_profile.c ****         }
 292:D:/fchai/work/i-cube/I-CUBE-HUAWEI/Middlewares/Third_Party/Huawei/iot_link/oc/oc_mqtt/oc_mqtt_profile_v5\oc_mqtt_profile.c ****     }
 293:D:/fchai/work/i-cube/I-CUBE-HUAWEI/Middlewares/Third_Party/Huawei/iot_link/oc/oc_mqtt/oc_mqtt_profile_v5\oc_mqtt_profile.c **** 
 294:D:/fchai/work/i-cube/I-CUBE-HUAWEI/Middlewares/Third_Party/Huawei/iot_link/oc/oc_mqtt/oc_mqtt_profile_v5\oc_mqtt_profile.c ****     if((NULL== payload) || (NULL== payload->service_id) || (NULL == payload->service_property))
 749              		.loc 1 294 5 is_stmt 1 view .LVU224
 750              		.loc 1 294 7 is_stmt 0 view .LVU225
 751 0006 F4B1     		cbz	r4, .L76
 752              		.loc 1 294 25 discriminator 1 view .LVU226
 753 0008 6368     		ldr	r3, [r4, #4]
 754 000a E3B1     		cbz	r3, .L76
 755              		.loc 1 294 57 discriminator 2 view .LVU227
 756 000c E368     		ldr	r3, [r4, #12]
ARM GAS  T:\msys\tmp\ccMJI2cA.s 			page 22


 757 000e D3B1     		cbz	r3, .L76
 295:D:/fchai/work/i-cube/I-CUBE-HUAWEI/Middlewares/Third_Party/Huawei/iot_link/oc/oc_mqtt/oc_mqtt_profile_v5\oc_mqtt_profile.c ****     {
 296:D:/fchai/work/i-cube/I-CUBE-HUAWEI/Middlewares/Third_Party/Huawei/iot_link/oc/oc_mqtt/oc_mqtt_profile_v5\oc_mqtt_profile.c ****         return ret;
 297:D:/fchai/work/i-cube/I-CUBE-HUAWEI/Middlewares/Third_Party/Huawei/iot_link/oc/oc_mqtt/oc_mqtt_profile_v5\oc_mqtt_profile.c ****     }
 298:D:/fchai/work/i-cube/I-CUBE-HUAWEI/Middlewares/Third_Party/Huawei/iot_link/oc/oc_mqtt/oc_mqtt_profile_v5\oc_mqtt_profile.c **** 
 299:D:/fchai/work/i-cube/I-CUBE-HUAWEI/Middlewares/Third_Party/Huawei/iot_link/oc/oc_mqtt/oc_mqtt_profile_v5\oc_mqtt_profile.c ****     topic = topic_make(CN_OC_MQTT_PROFILE_PROPERTYREPORT_TOPICFMT, deviceid,NULL);
 758              		.loc 1 299 5 is_stmt 1 view .LVU228
 759              		.loc 1 299 13 is_stmt 0 view .LVU229
 760 0010 0146     		mov	r1, r0
 761              	.LVL54:
 762              		.loc 1 299 13 view .LVU230
 763 0012 0022     		movs	r2, #0
 764 0014 1248     		ldr	r0, .L81
 765              	.LVL55:
 766              		.loc 1 299 13 view .LVU231
 767 0016 FFF7FEFF 		bl	topic_make
 768              	.LVL56:
 769              		.loc 1 299 13 view .LVU232
 770 001a 0346     		mov	r3, r0
 300:D:/fchai/work/i-cube/I-CUBE-HUAWEI/Middlewares/Third_Party/Huawei/iot_link/oc/oc_mqtt/oc_mqtt_profile_v5\oc_mqtt_profile.c ****     msg = oc_mqtt_profile_package_propertyreport(payload);
 771              		.loc 1 300 11 view .LVU233
 772 001c 2046     		mov	r0, r4
 299:D:/fchai/work/i-cube/I-CUBE-HUAWEI/Middlewares/Third_Party/Huawei/iot_link/oc/oc_mqtt/oc_mqtt_profile_v5\oc_mqtt_profile.c ****     msg = oc_mqtt_profile_package_propertyreport(payload);
 773              		.loc 1 299 13 view .LVU234
 774 001e 1C46     		mov	r4, r3
 775              	.LVL57:
 776              		.loc 1 300 5 is_stmt 1 view .LVU235
 777              		.loc 1 300 11 is_stmt 0 view .LVU236
 778 0020 FFF7FEFF 		bl	oc_mqtt_profile_package_propertyreport
 779              	.LVL58:
 780              		.loc 1 300 11 view .LVU237
 781 0024 0646     		mov	r6, r0
 782              	.LVL59:
 301:D:/fchai/work/i-cube/I-CUBE-HUAWEI/Middlewares/Third_Party/Huawei/iot_link/oc/oc_mqtt/oc_mqtt_profile_v5\oc_mqtt_profile.c **** 
 302:D:/fchai/work/i-cube/I-CUBE-HUAWEI/Middlewares/Third_Party/Huawei/iot_link/oc/oc_mqtt/oc_mqtt_profile_v5\oc_mqtt_profile.c ****     if((NULL != topic) && (NULL != msg))
 783              		.loc 1 302 5 is_stmt 1 view .LVU238
 784              		.loc 1 302 7 is_stmt 0 view .LVU239
 785 0026 8CB1     		cbz	r4, .L78
 786              		.loc 1 302 24 discriminator 1 view .LVU240
 787 0028 80B1     		cbz	r0, .L78
 303:D:/fchai/work/i-cube/I-CUBE-HUAWEI/Middlewares/Third_Party/Huawei/iot_link/oc/oc_mqtt/oc_mqtt_profile_v5\oc_mqtt_profile.c ****     {
 304:D:/fchai/work/i-cube/I-CUBE-HUAWEI/Middlewares/Third_Party/Huawei/iot_link/oc/oc_mqtt/oc_mqtt_profile_v5\oc_mqtt_profile.c ****         ret = oc_mqtt_publish(topic,(uint8_t *)msg,strlen(msg),(int)en_mqtt_al_qos_1);
 788              		.loc 1 304 9 is_stmt 1 view .LVU241
 789              		.loc 1 304 52 is_stmt 0 view .LVU242
 790 002a FFF7FEFF 		bl	strlen
 791              	.LVL60:
 792              		.loc 1 304 15 view .LVU243
 793 002e 0123     		movs	r3, #1
 794              		.loc 1 304 52 view .LVU244
 795 0030 0246     		mov	r2, r0
 796              		.loc 1 304 15 view .LVU245
 797 0032 3146     		mov	r1, r6
 798 0034 2046     		mov	r0, r4
 799 0036 FFF7FEFF 		bl	oc_mqtt_publish
 800              	.LVL61:
 801 003a 0546     		mov	r5, r0
 802              	.LVL62:
ARM GAS  T:\msys\tmp\ccMJI2cA.s 			page 23


 803              		.loc 1 304 13 view .LVU246
 804 003c 07E0     		b	.L72
 805              	.LVL63:
 806              	.L80:
 284:D:/fchai/work/i-cube/I-CUBE-HUAWEI/Middlewares/Third_Party/Huawei/iot_link/oc/oc_mqtt/oc_mqtt_profile_v5\oc_mqtt_profile.c ****         {
 807              		.loc 1 284 9 is_stmt 1 view .LVU247
 284:D:/fchai/work/i-cube/I-CUBE-HUAWEI/Middlewares/Third_Party/Huawei/iot_link/oc/oc_mqtt/oc_mqtt_profile_v5\oc_mqtt_profile.c ****         {
 808              		.loc 1 284 40 is_stmt 0 view .LVU248
 809 003e 094B     		ldr	r3, .L81+4
 810 0040 1868     		ldr	r0, [r3]
 811              	.LVL64:
 284:D:/fchai/work/i-cube/I-CUBE-HUAWEI/Middlewares/Third_Party/Huawei/iot_link/oc/oc_mqtt/oc_mqtt_profile_v5\oc_mqtt_profile.c ****         {
 812              		.loc 1 284 11 view .LVU249
 813 0042 0028     		cmp	r0, #0
 814 0044 DFD1     		bne	.L70
 815              	.LVL65:
 816              	.L76:
 286:D:/fchai/work/i-cube/I-CUBE-HUAWEI/Middlewares/Third_Party/Huawei/iot_link/oc/oc_mqtt/oc_mqtt_profile_v5\oc_mqtt_profile.c ****         }
 817              		.loc 1 286 20 view .LVU250
 818 0046 0125     		movs	r5, #1
 305:D:/fchai/work/i-cube/I-CUBE-HUAWEI/Middlewares/Third_Party/Huawei/iot_link/oc/oc_mqtt/oc_mqtt_profile_v5\oc_mqtt_profile.c ****     }
 306:D:/fchai/work/i-cube/I-CUBE-HUAWEI/Middlewares/Third_Party/Huawei/iot_link/oc/oc_mqtt/oc_mqtt_profile_v5\oc_mqtt_profile.c ****     else
 307:D:/fchai/work/i-cube/I-CUBE-HUAWEI/Middlewares/Third_Party/Huawei/iot_link/oc/oc_mqtt/oc_mqtt_profile_v5\oc_mqtt_profile.c ****     {
 308:D:/fchai/work/i-cube/I-CUBE-HUAWEI/Middlewares/Third_Party/Huawei/iot_link/oc/oc_mqtt/oc_mqtt_profile_v5\oc_mqtt_profile.c ****         ret = (int)en_oc_mqtt_err_sysmem;
 309:D:/fchai/work/i-cube/I-CUBE-HUAWEI/Middlewares/Third_Party/Huawei/iot_link/oc/oc_mqtt/oc_mqtt_profile_v5\oc_mqtt_profile.c ****     }
 310:D:/fchai/work/i-cube/I-CUBE-HUAWEI/Middlewares/Third_Party/Huawei/iot_link/oc/oc_mqtt/oc_mqtt_profile_v5\oc_mqtt_profile.c **** 
 311:D:/fchai/work/i-cube/I-CUBE-HUAWEI/Middlewares/Third_Party/Huawei/iot_link/oc/oc_mqtt/oc_mqtt_profile_v5\oc_mqtt_profile.c ****     osal_free(topic);
 312:D:/fchai/work/i-cube/I-CUBE-HUAWEI/Middlewares/Third_Party/Huawei/iot_link/oc/oc_mqtt/oc_mqtt_profile_v5\oc_mqtt_profile.c ****     osal_free(msg);
 313:D:/fchai/work/i-cube/I-CUBE-HUAWEI/Middlewares/Third_Party/Huawei/iot_link/oc/oc_mqtt/oc_mqtt_profile_v5\oc_mqtt_profile.c **** 
 314:D:/fchai/work/i-cube/I-CUBE-HUAWEI/Middlewares/Third_Party/Huawei/iot_link/oc/oc_mqtt/oc_mqtt_profile_v5\oc_mqtt_profile.c ****     return ret;
 315:D:/fchai/work/i-cube/I-CUBE-HUAWEI/Middlewares/Third_Party/Huawei/iot_link/oc/oc_mqtt/oc_mqtt_profile_v5\oc_mqtt_profile.c **** }
 819              		.loc 1 315 1 view .LVU251
 820 0048 2846     		mov	r0, r5
 821 004a 70BD     		pop	{r4, r5, r6, pc}
 822              	.LVL66:
 823              	.L78:
 308:D:/fchai/work/i-cube/I-CUBE-HUAWEI/Middlewares/Third_Party/Huawei/iot_link/oc/oc_mqtt/oc_mqtt_profile_v5\oc_mqtt_profile.c ****     }
 824              		.loc 1 308 13 view .LVU252
 825 004c 0F25     		movs	r5, #15
 826              	.LVL67:
 827              	.L72:
 311:D:/fchai/work/i-cube/I-CUBE-HUAWEI/Middlewares/Third_Party/Huawei/iot_link/oc/oc_mqtt/oc_mqtt_profile_v5\oc_mqtt_profile.c ****     osal_free(msg);
 828              		.loc 1 311 5 is_stmt 1 view .LVU253
 829 004e 2046     		mov	r0, r4
 830 0050 FFF7FEFF 		bl	osal_free
 831              	.LVL68:
 312:D:/fchai/work/i-cube/I-CUBE-HUAWEI/Middlewares/Third_Party/Huawei/iot_link/oc/oc_mqtt/oc_mqtt_profile_v5\oc_mqtt_profile.c **** 
 832              		.loc 1 312 5 view .LVU254
 833 0054 3046     		mov	r0, r6
 834 0056 FFF7FEFF 		bl	osal_free
 835              	.LVL69:
 314:D:/fchai/work/i-cube/I-CUBE-HUAWEI/Middlewares/Third_Party/Huawei/iot_link/oc/oc_mqtt/oc_mqtt_profile_v5\oc_mqtt_profile.c **** }
 836              		.loc 1 314 5 view .LVU255
 837              		.loc 1 315 1 is_stmt 0 view .LVU256
 838 005a 2846     		mov	r0, r5
 839 005c 70BD     		pop	{r4, r5, r6, pc}
 840              	.LVL70:
ARM GAS  T:\msys\tmp\ccMJI2cA.s 			page 24


 841              	.L82:
 842              		.loc 1 315 1 view .LVU257
 843 005e 00BF     		.align	2
 844              	.L81:
 845 0060 00000000 		.word	.LC8
 846 0064 00000000 		.word	.LANCHOR0
 847              		.cfi_endproc
 848              	.LFE8:
 850              		.section	.rodata.oc_mqtt_profile_gwpropertyreport.str1.4,"aMS",%progbits,1
 851              		.align	2
 852              	.LC9:
 853 0000 246F632F 		.ascii	"$oc/devices/%s/sys/gateway/sub_devices/properties/r"
 853      64657669 
 853      6365732F 
 853      25732F73 
 853      79732F67 
 854 0033 65706F72 		.ascii	"eport\000"
 854      7400
 855              		.section	.text.oc_mqtt_profile_gwpropertyreport,"ax",%progbits
 856              		.align	1
 857              		.p2align 2,,3
 858              		.global	oc_mqtt_profile_gwpropertyreport
 859              		.syntax unified
 860              		.thumb
 861              		.thumb_func
 862              		.fpu fpv4-sp-d16
 864              	oc_mqtt_profile_gwpropertyreport:
 865              	.LVL71:
 866              	.LFB9:
 316:D:/fchai/work/i-cube/I-CUBE-HUAWEI/Middlewares/Third_Party/Huawei/iot_link/oc/oc_mqtt/oc_mqtt_profile_v5\oc_mqtt_profile.c **** 
 317:D:/fchai/work/i-cube/I-CUBE-HUAWEI/Middlewares/Third_Party/Huawei/iot_link/oc/oc_mqtt/oc_mqtt_profile_v5\oc_mqtt_profile.c **** #define CN_OC_MQTT_PROFILE_GWPROPERTYREPORT_TOPICFMT   "$oc/devices/%s/sys/gateway/sub_devices/prop
 318:D:/fchai/work/i-cube/I-CUBE-HUAWEI/Middlewares/Third_Party/Huawei/iot_link/oc/oc_mqtt/oc_mqtt_profile_v5\oc_mqtt_profile.c **** int oc_mqtt_profile_gwpropertyreport(char *deviceid,oc_mqtt_profile_device_t *payload)
 319:D:/fchai/work/i-cube/I-CUBE-HUAWEI/Middlewares/Third_Party/Huawei/iot_link/oc/oc_mqtt/oc_mqtt_profile_v5\oc_mqtt_profile.c **** {
 867              		.loc 1 319 1 is_stmt 1 view -0
 868              		.cfi_startproc
 869              		@ args = 0, pretend = 0, frame = 0
 870              		@ frame_needed = 0, uses_anonymous_args = 0
 320:D:/fchai/work/i-cube/I-CUBE-HUAWEI/Middlewares/Third_Party/Huawei/iot_link/oc/oc_mqtt/oc_mqtt_profile_v5\oc_mqtt_profile.c ****     int ret = (int)en_oc_mqtt_err_parafmt;
 871              		.loc 1 320 5 view .LVU259
 321:D:/fchai/work/i-cube/I-CUBE-HUAWEI/Middlewares/Third_Party/Huawei/iot_link/oc/oc_mqtt/oc_mqtt_profile_v5\oc_mqtt_profile.c ****     char *topic;
 872              		.loc 1 321 5 view .LVU260
 322:D:/fchai/work/i-cube/I-CUBE-HUAWEI/Middlewares/Third_Party/Huawei/iot_link/oc/oc_mqtt/oc_mqtt_profile_v5\oc_mqtt_profile.c ****     char *msg;
 873              		.loc 1 322 5 view .LVU261
 323:D:/fchai/work/i-cube/I-CUBE-HUAWEI/Middlewares/Third_Party/Huawei/iot_link/oc/oc_mqtt/oc_mqtt_profile_v5\oc_mqtt_profile.c **** 
 324:D:/fchai/work/i-cube/I-CUBE-HUAWEI/Middlewares/Third_Party/Huawei/iot_link/oc/oc_mqtt/oc_mqtt_profile_v5\oc_mqtt_profile.c ****     if(NULL == deviceid)
 874              		.loc 1 324 5 view .LVU262
 319:D:/fchai/work/i-cube/I-CUBE-HUAWEI/Middlewares/Third_Party/Huawei/iot_link/oc/oc_mqtt/oc_mqtt_profile_v5\oc_mqtt_profile.c ****     int ret = (int)en_oc_mqtt_err_parafmt;
 875              		.loc 1 319 1 is_stmt 0 view .LVU263
 876 0000 70B5     		push	{r4, r5, r6, lr}
 877              	.LCFI15:
 878              		.cfi_def_cfa_offset 16
 879              		.cfi_offset 4, -16
 880              		.cfi_offset 5, -12
 881              		.cfi_offset 6, -8
 882              		.cfi_offset 14, -4
 319:D:/fchai/work/i-cube/I-CUBE-HUAWEI/Middlewares/Third_Party/Huawei/iot_link/oc/oc_mqtt/oc_mqtt_profile_v5\oc_mqtt_profile.c ****     int ret = (int)en_oc_mqtt_err_parafmt;
 883              		.loc 1 319 1 view .LVU264
ARM GAS  T:\msys\tmp\ccMJI2cA.s 			page 25


 884 0002 0C46     		mov	r4, r1
 885              		.loc 1 324 7 view .LVU265
 886 0004 28B3     		cbz	r0, .L96
 887              	.LVL72:
 888              	.L84:
 325:D:/fchai/work/i-cube/I-CUBE-HUAWEI/Middlewares/Third_Party/Huawei/iot_link/oc/oc_mqtt/oc_mqtt_profile_v5\oc_mqtt_profile.c ****     {
 326:D:/fchai/work/i-cube/I-CUBE-HUAWEI/Middlewares/Third_Party/Huawei/iot_link/oc/oc_mqtt/oc_mqtt_profile_v5\oc_mqtt_profile.c ****         if(NULL == s_oc_mqtt_profile_cb.device_id)
 327:D:/fchai/work/i-cube/I-CUBE-HUAWEI/Middlewares/Third_Party/Huawei/iot_link/oc/oc_mqtt/oc_mqtt_profile_v5\oc_mqtt_profile.c ****         {
 328:D:/fchai/work/i-cube/I-CUBE-HUAWEI/Middlewares/Third_Party/Huawei/iot_link/oc/oc_mqtt/oc_mqtt_profile_v5\oc_mqtt_profile.c ****             return ret;
 329:D:/fchai/work/i-cube/I-CUBE-HUAWEI/Middlewares/Third_Party/Huawei/iot_link/oc/oc_mqtt/oc_mqtt_profile_v5\oc_mqtt_profile.c ****         }
 330:D:/fchai/work/i-cube/I-CUBE-HUAWEI/Middlewares/Third_Party/Huawei/iot_link/oc/oc_mqtt/oc_mqtt_profile_v5\oc_mqtt_profile.c ****         else
 331:D:/fchai/work/i-cube/I-CUBE-HUAWEI/Middlewares/Third_Party/Huawei/iot_link/oc/oc_mqtt/oc_mqtt_profile_v5\oc_mqtt_profile.c ****         {
 332:D:/fchai/work/i-cube/I-CUBE-HUAWEI/Middlewares/Third_Party/Huawei/iot_link/oc/oc_mqtt/oc_mqtt_profile_v5\oc_mqtt_profile.c ****             deviceid = s_oc_mqtt_profile_cb.device_id;
 333:D:/fchai/work/i-cube/I-CUBE-HUAWEI/Middlewares/Third_Party/Huawei/iot_link/oc/oc_mqtt/oc_mqtt_profile_v5\oc_mqtt_profile.c ****         }
 334:D:/fchai/work/i-cube/I-CUBE-HUAWEI/Middlewares/Third_Party/Huawei/iot_link/oc/oc_mqtt/oc_mqtt_profile_v5\oc_mqtt_profile.c ****     }
 335:D:/fchai/work/i-cube/I-CUBE-HUAWEI/Middlewares/Third_Party/Huawei/iot_link/oc/oc_mqtt/oc_mqtt_profile_v5\oc_mqtt_profile.c **** 
 336:D:/fchai/work/i-cube/I-CUBE-HUAWEI/Middlewares/Third_Party/Huawei/iot_link/oc/oc_mqtt/oc_mqtt_profile_v5\oc_mqtt_profile.c ****     if((NULL== payload) || (NULL == payload->subdevice_id)||(NULL== payload->subdevice_property) ||
 889              		.loc 1 336 5 is_stmt 1 view .LVU266
 890              		.loc 1 336 7 is_stmt 0 view .LVU267
 891 0006 44B3     		cbz	r4, .L92
 892              		.loc 1 336 25 discriminator 1 view .LVU268
 893 0008 6368     		ldr	r3, [r4, #4]
 894 000a 33B3     		cbz	r3, .L92
 895              		.loc 1 336 76 discriminator 2 view .LVU269
 896 000c A368     		ldr	r3, [r4, #8]
 897              		.loc 1 336 59 discriminator 2 view .LVU270
 898 000e 23B3     		cbz	r3, .L92
 899              		.loc 1 336 98 discriminator 3 view .LVU271
 900 0010 5A68     		ldr	r2, [r3, #4]
 901 0012 12B3     		cbz	r2, .L92
 337:D:/fchai/work/i-cube/I-CUBE-HUAWEI/Middlewares/Third_Party/Huawei/iot_link/oc/oc_mqtt/oc_mqtt_profile_v5\oc_mqtt_profile.c ****        (NULL== payload->subdevice_property->service_id)||(NULL== payload->subdevice_property->servi
 902              		.loc 1 337 56 view .LVU272
 903 0014 DB68     		ldr	r3, [r3, #12]
 904 0016 03B3     		cbz	r3, .L92
 338:D:/fchai/work/i-cube/I-CUBE-HUAWEI/Middlewares/Third_Party/Huawei/iot_link/oc/oc_mqtt/oc_mqtt_profile_v5\oc_mqtt_profile.c ****     {
 339:D:/fchai/work/i-cube/I-CUBE-HUAWEI/Middlewares/Third_Party/Huawei/iot_link/oc/oc_mqtt/oc_mqtt_profile_v5\oc_mqtt_profile.c ****         return ret;
 340:D:/fchai/work/i-cube/I-CUBE-HUAWEI/Middlewares/Third_Party/Huawei/iot_link/oc/oc_mqtt/oc_mqtt_profile_v5\oc_mqtt_profile.c ****     }
 341:D:/fchai/work/i-cube/I-CUBE-HUAWEI/Middlewares/Third_Party/Huawei/iot_link/oc/oc_mqtt/oc_mqtt_profile_v5\oc_mqtt_profile.c **** 
 342:D:/fchai/work/i-cube/I-CUBE-HUAWEI/Middlewares/Third_Party/Huawei/iot_link/oc/oc_mqtt/oc_mqtt_profile_v5\oc_mqtt_profile.c ****     topic = topic_make(CN_OC_MQTT_PROFILE_GWPROPERTYREPORT_TOPICFMT, deviceid,NULL);
 905              		.loc 1 342 5 is_stmt 1 view .LVU273
 906              		.loc 1 342 13 is_stmt 0 view .LVU274
 907 0018 0146     		mov	r1, r0
 908              	.LVL73:
 909              		.loc 1 342 13 view .LVU275
 910 001a 0022     		movs	r2, #0
 911 001c 1148     		ldr	r0, .L97
 912              	.LVL74:
 913              		.loc 1 342 13 view .LVU276
 914 001e FFF7FEFF 		bl	topic_make
 915              	.LVL75:
 916              		.loc 1 342 13 view .LVU277
 917 0022 0546     		mov	r5, r0
 343:D:/fchai/work/i-cube/I-CUBE-HUAWEI/Middlewares/Third_Party/Huawei/iot_link/oc/oc_mqtt/oc_mqtt_profile_v5\oc_mqtt_profile.c ****     msg = oc_mqtt_profile_package_gwpropertyreport(payload);
 918              		.loc 1 343 11 view .LVU278
 919 0024 2046     		mov	r0, r4
 920              	.LVL76:
 921              		.loc 1 343 5 is_stmt 1 view .LVU279
ARM GAS  T:\msys\tmp\ccMJI2cA.s 			page 26


 922              		.loc 1 343 11 is_stmt 0 view .LVU280
 923 0026 FFF7FEFF 		bl	oc_mqtt_profile_package_gwpropertyreport
 924              	.LVL77:
 925 002a 0646     		mov	r6, r0
 926              	.LVL78:
 344:D:/fchai/work/i-cube/I-CUBE-HUAWEI/Middlewares/Third_Party/Huawei/iot_link/oc/oc_mqtt/oc_mqtt_profile_v5\oc_mqtt_profile.c **** 
 345:D:/fchai/work/i-cube/I-CUBE-HUAWEI/Middlewares/Third_Party/Huawei/iot_link/oc/oc_mqtt/oc_mqtt_profile_v5\oc_mqtt_profile.c ****     if((NULL != topic) && (NULL != msg))
 927              		.loc 1 345 5 is_stmt 1 view .LVU281
 928              		.loc 1 345 7 is_stmt 0 view .LVU282
 929 002c C5B1     		cbz	r5, .L94
 930              		.loc 1 345 24 discriminator 1 view .LVU283
 931 002e B8B1     		cbz	r0, .L94
 346:D:/fchai/work/i-cube/I-CUBE-HUAWEI/Middlewares/Third_Party/Huawei/iot_link/oc/oc_mqtt/oc_mqtt_profile_v5\oc_mqtt_profile.c ****     {
 347:D:/fchai/work/i-cube/I-CUBE-HUAWEI/Middlewares/Third_Party/Huawei/iot_link/oc/oc_mqtt/oc_mqtt_profile_v5\oc_mqtt_profile.c ****         ret = oc_mqtt_publish(topic,(uint8_t *)msg,strlen(msg),(int)en_mqtt_al_qos_1);
 932              		.loc 1 347 9 is_stmt 1 view .LVU284
 933              		.loc 1 347 52 is_stmt 0 view .LVU285
 934 0030 FFF7FEFF 		bl	strlen
 935              	.LVL79:
 936              		.loc 1 347 15 view .LVU286
 937 0034 0123     		movs	r3, #1
 938              		.loc 1 347 52 view .LVU287
 939 0036 0246     		mov	r2, r0
 940              		.loc 1 347 15 view .LVU288
 941 0038 3146     		mov	r1, r6
 942 003a 2846     		mov	r0, r5
 943 003c FFF7FEFF 		bl	oc_mqtt_publish
 944              	.LVL80:
 945 0040 0446     		mov	r4, r0
 946              	.LVL81:
 947              	.L86:
 348:D:/fchai/work/i-cube/I-CUBE-HUAWEI/Middlewares/Third_Party/Huawei/iot_link/oc/oc_mqtt/oc_mqtt_profile_v5\oc_mqtt_profile.c ****     }
 349:D:/fchai/work/i-cube/I-CUBE-HUAWEI/Middlewares/Third_Party/Huawei/iot_link/oc/oc_mqtt/oc_mqtt_profile_v5\oc_mqtt_profile.c ****     else
 350:D:/fchai/work/i-cube/I-CUBE-HUAWEI/Middlewares/Third_Party/Huawei/iot_link/oc/oc_mqtt/oc_mqtt_profile_v5\oc_mqtt_profile.c ****     {
 351:D:/fchai/work/i-cube/I-CUBE-HUAWEI/Middlewares/Third_Party/Huawei/iot_link/oc/oc_mqtt/oc_mqtt_profile_v5\oc_mqtt_profile.c ****         ret = (int)en_oc_mqtt_err_sysmem;
 352:D:/fchai/work/i-cube/I-CUBE-HUAWEI/Middlewares/Third_Party/Huawei/iot_link/oc/oc_mqtt/oc_mqtt_profile_v5\oc_mqtt_profile.c ****     }
 353:D:/fchai/work/i-cube/I-CUBE-HUAWEI/Middlewares/Third_Party/Huawei/iot_link/oc/oc_mqtt/oc_mqtt_profile_v5\oc_mqtt_profile.c **** 
 354:D:/fchai/work/i-cube/I-CUBE-HUAWEI/Middlewares/Third_Party/Huawei/iot_link/oc/oc_mqtt/oc_mqtt_profile_v5\oc_mqtt_profile.c ****     osal_free(topic);
 948              		.loc 1 354 5 is_stmt 1 view .LVU289
 949 0042 2846     		mov	r0, r5
 950 0044 FFF7FEFF 		bl	osal_free
 951              	.LVL82:
 355:D:/fchai/work/i-cube/I-CUBE-HUAWEI/Middlewares/Third_Party/Huawei/iot_link/oc/oc_mqtt/oc_mqtt_profile_v5\oc_mqtt_profile.c ****     osal_free(msg);
 952              		.loc 1 355 5 view .LVU290
 953 0048 3046     		mov	r0, r6
 954 004a FFF7FEFF 		bl	osal_free
 955              	.LVL83:
 356:D:/fchai/work/i-cube/I-CUBE-HUAWEI/Middlewares/Third_Party/Huawei/iot_link/oc/oc_mqtt/oc_mqtt_profile_v5\oc_mqtt_profile.c **** 
 357:D:/fchai/work/i-cube/I-CUBE-HUAWEI/Middlewares/Third_Party/Huawei/iot_link/oc/oc_mqtt/oc_mqtt_profile_v5\oc_mqtt_profile.c ****     return ret;
 956              		.loc 1 357 5 view .LVU291
 358:D:/fchai/work/i-cube/I-CUBE-HUAWEI/Middlewares/Third_Party/Huawei/iot_link/oc/oc_mqtt/oc_mqtt_profile_v5\oc_mqtt_profile.c **** }
 957              		.loc 1 358 1 is_stmt 0 view .LVU292
 958 004e 2046     		mov	r0, r4
 959 0050 70BD     		pop	{r4, r5, r6, pc}
 960              	.LVL84:
 961              	.L96:
 326:D:/fchai/work/i-cube/I-CUBE-HUAWEI/Middlewares/Third_Party/Huawei/iot_link/oc/oc_mqtt/oc_mqtt_profile_v5\oc_mqtt_profile.c ****         {
 962              		.loc 1 326 9 is_stmt 1 view .LVU293
ARM GAS  T:\msys\tmp\ccMJI2cA.s 			page 27


 326:D:/fchai/work/i-cube/I-CUBE-HUAWEI/Middlewares/Third_Party/Huawei/iot_link/oc/oc_mqtt/oc_mqtt_profile_v5\oc_mqtt_profile.c ****         {
 963              		.loc 1 326 40 is_stmt 0 view .LVU294
 964 0052 054B     		ldr	r3, .L97+4
 965 0054 1868     		ldr	r0, [r3]
 966              	.LVL85:
 326:D:/fchai/work/i-cube/I-CUBE-HUAWEI/Middlewares/Third_Party/Huawei/iot_link/oc/oc_mqtt/oc_mqtt_profile_v5\oc_mqtt_profile.c ****         {
 967              		.loc 1 326 11 view .LVU295
 968 0056 0028     		cmp	r0, #0
 969 0058 D5D1     		bne	.L84
 970              	.LVL86:
 971              	.L92:
 328:D:/fchai/work/i-cube/I-CUBE-HUAWEI/Middlewares/Third_Party/Huawei/iot_link/oc/oc_mqtt/oc_mqtt_profile_v5\oc_mqtt_profile.c ****         }
 972              		.loc 1 328 20 view .LVU296
 973 005a 0124     		movs	r4, #1
 974              		.loc 1 358 1 view .LVU297
 975 005c 2046     		mov	r0, r4
 976 005e 70BD     		pop	{r4, r5, r6, pc}
 977              	.LVL87:
 978              	.L94:
 351:D:/fchai/work/i-cube/I-CUBE-HUAWEI/Middlewares/Third_Party/Huawei/iot_link/oc/oc_mqtt/oc_mqtt_profile_v5\oc_mqtt_profile.c ****     }
 979              		.loc 1 351 13 view .LVU298
 980 0060 0F24     		movs	r4, #15
 981              	.LVL88:
 351:D:/fchai/work/i-cube/I-CUBE-HUAWEI/Middlewares/Third_Party/Huawei/iot_link/oc/oc_mqtt/oc_mqtt_profile_v5\oc_mqtt_profile.c ****     }
 982              		.loc 1 351 13 view .LVU299
 983 0062 EEE7     		b	.L86
 984              	.L98:
 985              		.align	2
 986              	.L97:
 987 0064 00000000 		.word	.LC9
 988 0068 00000000 		.word	.LANCHOR0
 989              		.cfi_endproc
 990              	.LFE9:
 992              		.section	.rodata.oc_mqtt_profile_propertysetresp.str1.4,"aMS",%progbits,1
 993              		.align	2
 994              	.LC10:
 995 0000 246F632F 		.ascii	"$oc/devices/%s/sys/properties/set/response/request_"
 995      64657669 
 995      6365732F 
 995      25732F73 
 995      79732F70 
 996 0033 69643D25 		.ascii	"id=%s\000"
 996      7300
 997              		.section	.text.oc_mqtt_profile_propertysetresp,"ax",%progbits
 998              		.align	1
 999              		.p2align 2,,3
 1000              		.global	oc_mqtt_profile_propertysetresp
 1001              		.syntax unified
 1002              		.thumb
 1003              		.thumb_func
 1004              		.fpu fpv4-sp-d16
 1006              	oc_mqtt_profile_propertysetresp:
 1007              	.LVL89:
 1008              	.LFB10:
 359:D:/fchai/work/i-cube/I-CUBE-HUAWEI/Middlewares/Third_Party/Huawei/iot_link/oc/oc_mqtt/oc_mqtt_profile_v5\oc_mqtt_profile.c **** 
 360:D:/fchai/work/i-cube/I-CUBE-HUAWEI/Middlewares/Third_Party/Huawei/iot_link/oc/oc_mqtt/oc_mqtt_profile_v5\oc_mqtt_profile.c **** 
 361:D:/fchai/work/i-cube/I-CUBE-HUAWEI/Middlewares/Third_Party/Huawei/iot_link/oc/oc_mqtt/oc_mqtt_profile_v5\oc_mqtt_profile.c **** #define CN_OC_MQTT_PROFILE_ROPERTYSETRESP_TOPICFMT   "$oc/devices/%s/sys/properties/set/response/re
ARM GAS  T:\msys\tmp\ccMJI2cA.s 			page 28


 362:D:/fchai/work/i-cube/I-CUBE-HUAWEI/Middlewares/Third_Party/Huawei/iot_link/oc/oc_mqtt/oc_mqtt_profile_v5\oc_mqtt_profile.c **** int oc_mqtt_profile_propertysetresp(char *deviceid,oc_mqtt_profile_propertysetresp_t *payload)
 363:D:/fchai/work/i-cube/I-CUBE-HUAWEI/Middlewares/Third_Party/Huawei/iot_link/oc/oc_mqtt/oc_mqtt_profile_v5\oc_mqtt_profile.c **** {
 1009              		.loc 1 363 1 is_stmt 1 view -0
 1010              		.cfi_startproc
 1011              		@ args = 0, pretend = 0, frame = 0
 1012              		@ frame_needed = 0, uses_anonymous_args = 0
 364:D:/fchai/work/i-cube/I-CUBE-HUAWEI/Middlewares/Third_Party/Huawei/iot_link/oc/oc_mqtt/oc_mqtt_profile_v5\oc_mqtt_profile.c ****     int ret = (int)en_oc_mqtt_err_parafmt;
 1013              		.loc 1 364 5 view .LVU301
 365:D:/fchai/work/i-cube/I-CUBE-HUAWEI/Middlewares/Third_Party/Huawei/iot_link/oc/oc_mqtt/oc_mqtt_profile_v5\oc_mqtt_profile.c ****     char *topic;
 1014              		.loc 1 365 5 view .LVU302
 366:D:/fchai/work/i-cube/I-CUBE-HUAWEI/Middlewares/Third_Party/Huawei/iot_link/oc/oc_mqtt/oc_mqtt_profile_v5\oc_mqtt_profile.c ****     char *msg;
 1015              		.loc 1 366 5 view .LVU303
 367:D:/fchai/work/i-cube/I-CUBE-HUAWEI/Middlewares/Third_Party/Huawei/iot_link/oc/oc_mqtt/oc_mqtt_profile_v5\oc_mqtt_profile.c **** 
 368:D:/fchai/work/i-cube/I-CUBE-HUAWEI/Middlewares/Third_Party/Huawei/iot_link/oc/oc_mqtt/oc_mqtt_profile_v5\oc_mqtt_profile.c ****     if(NULL == deviceid)
 1016              		.loc 1 368 5 view .LVU304
 363:D:/fchai/work/i-cube/I-CUBE-HUAWEI/Middlewares/Third_Party/Huawei/iot_link/oc/oc_mqtt/oc_mqtt_profile_v5\oc_mqtt_profile.c ****     int ret = (int)en_oc_mqtt_err_parafmt;
 1017              		.loc 1 363 1 is_stmt 0 view .LVU305
 1018 0000 70B5     		push	{r4, r5, r6, lr}
 1019              	.LCFI16:
 1020              		.cfi_def_cfa_offset 16
 1021              		.cfi_offset 4, -16
 1022              		.cfi_offset 5, -12
 1023              		.cfi_offset 6, -8
 1024              		.cfi_offset 14, -4
 363:D:/fchai/work/i-cube/I-CUBE-HUAWEI/Middlewares/Third_Party/Huawei/iot_link/oc/oc_mqtt/oc_mqtt_profile_v5\oc_mqtt_profile.c ****     int ret = (int)en_oc_mqtt_err_parafmt;
 1025              		.loc 1 363 1 view .LVU306
 1026 0002 0C46     		mov	r4, r1
 1027              		.loc 1 368 7 view .LVU307
 1028 0004 08B3     		cbz	r0, .L110
 1029 0006 0146     		mov	r1, r0
 1030              	.LVL90:
 1031              	.L100:
 369:D:/fchai/work/i-cube/I-CUBE-HUAWEI/Middlewares/Third_Party/Huawei/iot_link/oc/oc_mqtt/oc_mqtt_profile_v5\oc_mqtt_profile.c ****     {
 370:D:/fchai/work/i-cube/I-CUBE-HUAWEI/Middlewares/Third_Party/Huawei/iot_link/oc/oc_mqtt/oc_mqtt_profile_v5\oc_mqtt_profile.c ****         if(NULL == s_oc_mqtt_profile_cb.device_id)
 371:D:/fchai/work/i-cube/I-CUBE-HUAWEI/Middlewares/Third_Party/Huawei/iot_link/oc/oc_mqtt/oc_mqtt_profile_v5\oc_mqtt_profile.c ****         {
 372:D:/fchai/work/i-cube/I-CUBE-HUAWEI/Middlewares/Third_Party/Huawei/iot_link/oc/oc_mqtt/oc_mqtt_profile_v5\oc_mqtt_profile.c ****             return ret;
 373:D:/fchai/work/i-cube/I-CUBE-HUAWEI/Middlewares/Third_Party/Huawei/iot_link/oc/oc_mqtt/oc_mqtt_profile_v5\oc_mqtt_profile.c ****         }
 374:D:/fchai/work/i-cube/I-CUBE-HUAWEI/Middlewares/Third_Party/Huawei/iot_link/oc/oc_mqtt/oc_mqtt_profile_v5\oc_mqtt_profile.c ****         else
 375:D:/fchai/work/i-cube/I-CUBE-HUAWEI/Middlewares/Third_Party/Huawei/iot_link/oc/oc_mqtt/oc_mqtt_profile_v5\oc_mqtt_profile.c ****         {
 376:D:/fchai/work/i-cube/I-CUBE-HUAWEI/Middlewares/Third_Party/Huawei/iot_link/oc/oc_mqtt/oc_mqtt_profile_v5\oc_mqtt_profile.c ****             deviceid = s_oc_mqtt_profile_cb.device_id;
 377:D:/fchai/work/i-cube/I-CUBE-HUAWEI/Middlewares/Third_Party/Huawei/iot_link/oc/oc_mqtt/oc_mqtt_profile_v5\oc_mqtt_profile.c ****         }
 378:D:/fchai/work/i-cube/I-CUBE-HUAWEI/Middlewares/Third_Party/Huawei/iot_link/oc/oc_mqtt/oc_mqtt_profile_v5\oc_mqtt_profile.c ****     }
 379:D:/fchai/work/i-cube/I-CUBE-HUAWEI/Middlewares/Third_Party/Huawei/iot_link/oc/oc_mqtt/oc_mqtt_profile_v5\oc_mqtt_profile.c **** 
 380:D:/fchai/work/i-cube/I-CUBE-HUAWEI/Middlewares/Third_Party/Huawei/iot_link/oc/oc_mqtt/oc_mqtt_profile_v5\oc_mqtt_profile.c ****     if((NULL == payload) || (NULL == payload->request_id))
 1032              		.loc 1 380 5 is_stmt 1 view .LVU308
 1033              		.loc 1 380 7 is_stmt 0 view .LVU309
 1034 0008 1CB3     		cbz	r4, .L105
 1035              		.loc 1 380 45 discriminator 1 view .LVU310
 1036 000a A268     		ldr	r2, [r4, #8]
 1037              		.loc 1 380 26 discriminator 1 view .LVU311
 1038 000c 0AB3     		cbz	r2, .L105
 381:D:/fchai/work/i-cube/I-CUBE-HUAWEI/Middlewares/Third_Party/Huawei/iot_link/oc/oc_mqtt/oc_mqtt_profile_v5\oc_mqtt_profile.c ****     {
 382:D:/fchai/work/i-cube/I-CUBE-HUAWEI/Middlewares/Third_Party/Huawei/iot_link/oc/oc_mqtt/oc_mqtt_profile_v5\oc_mqtt_profile.c ****         return ret;
 383:D:/fchai/work/i-cube/I-CUBE-HUAWEI/Middlewares/Third_Party/Huawei/iot_link/oc/oc_mqtt/oc_mqtt_profile_v5\oc_mqtt_profile.c ****     }
 384:D:/fchai/work/i-cube/I-CUBE-HUAWEI/Middlewares/Third_Party/Huawei/iot_link/oc/oc_mqtt/oc_mqtt_profile_v5\oc_mqtt_profile.c ****     topic = topic_make(CN_OC_MQTT_PROFILE_ROPERTYSETRESP_TOPICFMT, deviceid,payload->request_id);
 1039              		.loc 1 384 5 is_stmt 1 view .LVU312
 1040              		.loc 1 384 13 is_stmt 0 view .LVU313
ARM GAS  T:\msys\tmp\ccMJI2cA.s 			page 29


 1041 000e 1248     		ldr	r0, .L111
 1042 0010 FFF7FEFF 		bl	topic_make
 1043              	.LVL91:
 1044              		.loc 1 384 13 view .LVU314
 1045 0014 0346     		mov	r3, r0
 385:D:/fchai/work/i-cube/I-CUBE-HUAWEI/Middlewares/Third_Party/Huawei/iot_link/oc/oc_mqtt/oc_mqtt_profile_v5\oc_mqtt_profile.c ****     msg = oc_mqtt_profile_package_propertysetresp(payload);
 1046              		.loc 1 385 11 view .LVU315
 1047 0016 2046     		mov	r0, r4
 384:D:/fchai/work/i-cube/I-CUBE-HUAWEI/Middlewares/Third_Party/Huawei/iot_link/oc/oc_mqtt/oc_mqtt_profile_v5\oc_mqtt_profile.c ****     msg = oc_mqtt_profile_package_propertysetresp(payload);
 1048              		.loc 1 384 13 view .LVU316
 1049 0018 1C46     		mov	r4, r3
 1050              	.LVL92:
 1051              		.loc 1 385 5 is_stmt 1 view .LVU317
 1052              		.loc 1 385 11 is_stmt 0 view .LVU318
 1053 001a FFF7FEFF 		bl	oc_mqtt_profile_package_propertysetresp
 1054              	.LVL93:
 1055              		.loc 1 385 11 view .LVU319
 1056 001e 0546     		mov	r5, r0
 1057              	.LVL94:
 386:D:/fchai/work/i-cube/I-CUBE-HUAWEI/Middlewares/Third_Party/Huawei/iot_link/oc/oc_mqtt/oc_mqtt_profile_v5\oc_mqtt_profile.c **** 
 387:D:/fchai/work/i-cube/I-CUBE-HUAWEI/Middlewares/Third_Party/Huawei/iot_link/oc/oc_mqtt/oc_mqtt_profile_v5\oc_mqtt_profile.c ****     if((NULL != topic) && (NULL != msg))
 1058              		.loc 1 387 5 is_stmt 1 view .LVU320
 1059              		.loc 1 387 7 is_stmt 0 view .LVU321
 1060 0020 8CB1     		cbz	r4, .L107
 1061              		.loc 1 387 24 discriminator 1 view .LVU322
 1062 0022 80B1     		cbz	r0, .L107
 388:D:/fchai/work/i-cube/I-CUBE-HUAWEI/Middlewares/Third_Party/Huawei/iot_link/oc/oc_mqtt/oc_mqtt_profile_v5\oc_mqtt_profile.c ****     {
 389:D:/fchai/work/i-cube/I-CUBE-HUAWEI/Middlewares/Third_Party/Huawei/iot_link/oc/oc_mqtt/oc_mqtt_profile_v5\oc_mqtt_profile.c ****         ret = oc_mqtt_publish(topic,(uint8_t *)msg,strlen(msg),(int)en_mqtt_al_qos_1);
 1063              		.loc 1 389 9 is_stmt 1 view .LVU323
 1064              		.loc 1 389 52 is_stmt 0 view .LVU324
 1065 0024 FFF7FEFF 		bl	strlen
 1066              	.LVL95:
 1067              		.loc 1 389 15 view .LVU325
 1068 0028 0123     		movs	r3, #1
 1069              		.loc 1 389 52 view .LVU326
 1070 002a 0246     		mov	r2, r0
 1071              		.loc 1 389 15 view .LVU327
 1072 002c 2946     		mov	r1, r5
 1073 002e 2046     		mov	r0, r4
 1074 0030 FFF7FEFF 		bl	oc_mqtt_publish
 1075              	.LVL96:
 1076 0034 0646     		mov	r6, r0
 1077              	.LVL97:
 1078              	.L102:
 390:D:/fchai/work/i-cube/I-CUBE-HUAWEI/Middlewares/Third_Party/Huawei/iot_link/oc/oc_mqtt/oc_mqtt_profile_v5\oc_mqtt_profile.c ****     }
 391:D:/fchai/work/i-cube/I-CUBE-HUAWEI/Middlewares/Third_Party/Huawei/iot_link/oc/oc_mqtt/oc_mqtt_profile_v5\oc_mqtt_profile.c ****     else
 392:D:/fchai/work/i-cube/I-CUBE-HUAWEI/Middlewares/Third_Party/Huawei/iot_link/oc/oc_mqtt/oc_mqtt_profile_v5\oc_mqtt_profile.c ****     {
 393:D:/fchai/work/i-cube/I-CUBE-HUAWEI/Middlewares/Third_Party/Huawei/iot_link/oc/oc_mqtt/oc_mqtt_profile_v5\oc_mqtt_profile.c ****         ret = (int)en_oc_mqtt_err_sysmem;
 394:D:/fchai/work/i-cube/I-CUBE-HUAWEI/Middlewares/Third_Party/Huawei/iot_link/oc/oc_mqtt/oc_mqtt_profile_v5\oc_mqtt_profile.c ****     }
 395:D:/fchai/work/i-cube/I-CUBE-HUAWEI/Middlewares/Third_Party/Huawei/iot_link/oc/oc_mqtt/oc_mqtt_profile_v5\oc_mqtt_profile.c **** 
 396:D:/fchai/work/i-cube/I-CUBE-HUAWEI/Middlewares/Third_Party/Huawei/iot_link/oc/oc_mqtt/oc_mqtt_profile_v5\oc_mqtt_profile.c ****     osal_free(topic);
 1079              		.loc 1 396 5 is_stmt 1 view .LVU328
 1080 0036 2046     		mov	r0, r4
 1081 0038 FFF7FEFF 		bl	osal_free
 1082              	.LVL98:
 397:D:/fchai/work/i-cube/I-CUBE-HUAWEI/Middlewares/Third_Party/Huawei/iot_link/oc/oc_mqtt/oc_mqtt_profile_v5\oc_mqtt_profile.c ****     osal_free(msg);
 1083              		.loc 1 397 5 view .LVU329
ARM GAS  T:\msys\tmp\ccMJI2cA.s 			page 30


 1084 003c 2846     		mov	r0, r5
 1085 003e FFF7FEFF 		bl	osal_free
 1086              	.LVL99:
 398:D:/fchai/work/i-cube/I-CUBE-HUAWEI/Middlewares/Third_Party/Huawei/iot_link/oc/oc_mqtt/oc_mqtt_profile_v5\oc_mqtt_profile.c **** 
 399:D:/fchai/work/i-cube/I-CUBE-HUAWEI/Middlewares/Third_Party/Huawei/iot_link/oc/oc_mqtt/oc_mqtt_profile_v5\oc_mqtt_profile.c ****     return ret;
 1087              		.loc 1 399 5 view .LVU330
 400:D:/fchai/work/i-cube/I-CUBE-HUAWEI/Middlewares/Third_Party/Huawei/iot_link/oc/oc_mqtt/oc_mqtt_profile_v5\oc_mqtt_profile.c **** }
 1088              		.loc 1 400 1 is_stmt 0 view .LVU331
 1089 0042 3046     		mov	r0, r6
 1090 0044 70BD     		pop	{r4, r5, r6, pc}
 1091              	.LVL100:
 1092              	.L107:
 393:D:/fchai/work/i-cube/I-CUBE-HUAWEI/Middlewares/Third_Party/Huawei/iot_link/oc/oc_mqtt/oc_mqtt_profile_v5\oc_mqtt_profile.c ****     }
 1093              		.loc 1 393 13 view .LVU332
 1094 0046 0F26     		movs	r6, #15
 1095 0048 F5E7     		b	.L102
 1096              	.LVL101:
 1097              	.L110:
 370:D:/fchai/work/i-cube/I-CUBE-HUAWEI/Middlewares/Third_Party/Huawei/iot_link/oc/oc_mqtt/oc_mqtt_profile_v5\oc_mqtt_profile.c ****         {
 1098              		.loc 1 370 9 is_stmt 1 view .LVU333
 370:D:/fchai/work/i-cube/I-CUBE-HUAWEI/Middlewares/Third_Party/Huawei/iot_link/oc/oc_mqtt/oc_mqtt_profile_v5\oc_mqtt_profile.c ****         {
 1099              		.loc 1 370 40 is_stmt 0 view .LVU334
 1100 004a 044B     		ldr	r3, .L111+4
 1101 004c 1968     		ldr	r1, [r3]
 1102              	.LVL102:
 370:D:/fchai/work/i-cube/I-CUBE-HUAWEI/Middlewares/Third_Party/Huawei/iot_link/oc/oc_mqtt/oc_mqtt_profile_v5\oc_mqtt_profile.c ****         {
 1103              		.loc 1 370 11 view .LVU335
 1104 004e 0029     		cmp	r1, #0
 1105 0050 DAD1     		bne	.L100
 1106              	.LVL103:
 1107              	.L105:
 372:D:/fchai/work/i-cube/I-CUBE-HUAWEI/Middlewares/Third_Party/Huawei/iot_link/oc/oc_mqtt/oc_mqtt_profile_v5\oc_mqtt_profile.c ****         }
 1108              		.loc 1 372 20 view .LVU336
 1109 0052 0126     		movs	r6, #1
 1110              		.loc 1 400 1 view .LVU337
 1111 0054 3046     		mov	r0, r6
 1112 0056 70BD     		pop	{r4, r5, r6, pc}
 1113              	.LVL104:
 1114              	.L112:
 1115              		.loc 1 400 1 view .LVU338
 1116              		.align	2
 1117              	.L111:
 1118 0058 00000000 		.word	.LC10
 1119 005c 00000000 		.word	.LANCHOR0
 1120              		.cfi_endproc
 1121              	.LFE10:
 1123              		.section	.rodata.oc_mqtt_profile_propertygetresp.str1.4,"aMS",%progbits,1
 1124              		.align	2
 1125              	.LC11:
 1126 0000 246F632F 		.ascii	"$oc/devices/%s/sys/properties/get/response/request_"
 1126      64657669 
 1126      6365732F 
 1126      25732F73 
 1126      79732F70 
 1127 0033 69643D25 		.ascii	"id=%s\000"
 1127      7300
 1128              		.section	.text.oc_mqtt_profile_propertygetresp,"ax",%progbits
ARM GAS  T:\msys\tmp\ccMJI2cA.s 			page 31


 1129              		.align	1
 1130              		.p2align 2,,3
 1131              		.global	oc_mqtt_profile_propertygetresp
 1132              		.syntax unified
 1133              		.thumb
 1134              		.thumb_func
 1135              		.fpu fpv4-sp-d16
 1137              	oc_mqtt_profile_propertygetresp:
 1138              	.LVL105:
 1139              	.LFB11:
 401:D:/fchai/work/i-cube/I-CUBE-HUAWEI/Middlewares/Third_Party/Huawei/iot_link/oc/oc_mqtt/oc_mqtt_profile_v5\oc_mqtt_profile.c **** 
 402:D:/fchai/work/i-cube/I-CUBE-HUAWEI/Middlewares/Third_Party/Huawei/iot_link/oc/oc_mqtt/oc_mqtt_profile_v5\oc_mqtt_profile.c **** 
 403:D:/fchai/work/i-cube/I-CUBE-HUAWEI/Middlewares/Third_Party/Huawei/iot_link/oc/oc_mqtt/oc_mqtt_profile_v5\oc_mqtt_profile.c **** #define CN_OC_MQTT_PROFILE_ROPERTYGETRESP_TOPICFMT   "$oc/devices/%s/sys/properties/get/response/re
 404:D:/fchai/work/i-cube/I-CUBE-HUAWEI/Middlewares/Third_Party/Huawei/iot_link/oc/oc_mqtt/oc_mqtt_profile_v5\oc_mqtt_profile.c **** int oc_mqtt_profile_propertygetresp(char *deviceid,oc_mqtt_profile_propertygetresp_t *payload)
 405:D:/fchai/work/i-cube/I-CUBE-HUAWEI/Middlewares/Third_Party/Huawei/iot_link/oc/oc_mqtt/oc_mqtt_profile_v5\oc_mqtt_profile.c **** {
 1140              		.loc 1 405 1 is_stmt 1 view -0
 1141              		.cfi_startproc
 1142              		@ args = 0, pretend = 0, frame = 0
 1143              		@ frame_needed = 0, uses_anonymous_args = 0
 406:D:/fchai/work/i-cube/I-CUBE-HUAWEI/Middlewares/Third_Party/Huawei/iot_link/oc/oc_mqtt/oc_mqtt_profile_v5\oc_mqtt_profile.c ****     int ret = (int)en_oc_mqtt_err_parafmt;
 1144              		.loc 1 406 5 view .LVU340
 407:D:/fchai/work/i-cube/I-CUBE-HUAWEI/Middlewares/Third_Party/Huawei/iot_link/oc/oc_mqtt/oc_mqtt_profile_v5\oc_mqtt_profile.c ****     char *topic;
 1145              		.loc 1 407 5 view .LVU341
 408:D:/fchai/work/i-cube/I-CUBE-HUAWEI/Middlewares/Third_Party/Huawei/iot_link/oc/oc_mqtt/oc_mqtt_profile_v5\oc_mqtt_profile.c ****     char *msg;
 1146              		.loc 1 408 5 view .LVU342
 409:D:/fchai/work/i-cube/I-CUBE-HUAWEI/Middlewares/Third_Party/Huawei/iot_link/oc/oc_mqtt/oc_mqtt_profile_v5\oc_mqtt_profile.c **** 
 410:D:/fchai/work/i-cube/I-CUBE-HUAWEI/Middlewares/Third_Party/Huawei/iot_link/oc/oc_mqtt/oc_mqtt_profile_v5\oc_mqtt_profile.c ****     if(NULL == deviceid)
 1147              		.loc 1 410 5 view .LVU343
 405:D:/fchai/work/i-cube/I-CUBE-HUAWEI/Middlewares/Third_Party/Huawei/iot_link/oc/oc_mqtt/oc_mqtt_profile_v5\oc_mqtt_profile.c ****     int ret = (int)en_oc_mqtt_err_parafmt;
 1148              		.loc 1 405 1 is_stmt 0 view .LVU344
 1149 0000 70B5     		push	{r4, r5, r6, lr}
 1150              	.LCFI17:
 1151              		.cfi_def_cfa_offset 16
 1152              		.cfi_offset 4, -16
 1153              		.cfi_offset 5, -12
 1154              		.cfi_offset 6, -8
 1155              		.cfi_offset 14, -4
 405:D:/fchai/work/i-cube/I-CUBE-HUAWEI/Middlewares/Third_Party/Huawei/iot_link/oc/oc_mqtt/oc_mqtt_profile_v5\oc_mqtt_profile.c ****     int ret = (int)en_oc_mqtt_err_parafmt;
 1156              		.loc 1 405 1 view .LVU345
 1157 0002 0C46     		mov	r4, r1
 1158              		.loc 1 410 7 view .LVU346
 1159 0004 E0B1     		cbz	r0, .L125
 1160              	.LVL106:
 1161              	.L114:
 411:D:/fchai/work/i-cube/I-CUBE-HUAWEI/Middlewares/Third_Party/Huawei/iot_link/oc/oc_mqtt/oc_mqtt_profile_v5\oc_mqtt_profile.c ****     {
 412:D:/fchai/work/i-cube/I-CUBE-HUAWEI/Middlewares/Third_Party/Huawei/iot_link/oc/oc_mqtt/oc_mqtt_profile_v5\oc_mqtt_profile.c ****         if(NULL == s_oc_mqtt_profile_cb.device_id)
 413:D:/fchai/work/i-cube/I-CUBE-HUAWEI/Middlewares/Third_Party/Huawei/iot_link/oc/oc_mqtt/oc_mqtt_profile_v5\oc_mqtt_profile.c ****         {
 414:D:/fchai/work/i-cube/I-CUBE-HUAWEI/Middlewares/Third_Party/Huawei/iot_link/oc/oc_mqtt/oc_mqtt_profile_v5\oc_mqtt_profile.c ****             return ret;
 415:D:/fchai/work/i-cube/I-CUBE-HUAWEI/Middlewares/Third_Party/Huawei/iot_link/oc/oc_mqtt/oc_mqtt_profile_v5\oc_mqtt_profile.c ****         }
 416:D:/fchai/work/i-cube/I-CUBE-HUAWEI/Middlewares/Third_Party/Huawei/iot_link/oc/oc_mqtt/oc_mqtt_profile_v5\oc_mqtt_profile.c ****         else
 417:D:/fchai/work/i-cube/I-CUBE-HUAWEI/Middlewares/Third_Party/Huawei/iot_link/oc/oc_mqtt/oc_mqtt_profile_v5\oc_mqtt_profile.c ****         {
 418:D:/fchai/work/i-cube/I-CUBE-HUAWEI/Middlewares/Third_Party/Huawei/iot_link/oc/oc_mqtt/oc_mqtt_profile_v5\oc_mqtt_profile.c ****             deviceid = s_oc_mqtt_profile_cb.device_id;
 419:D:/fchai/work/i-cube/I-CUBE-HUAWEI/Middlewares/Third_Party/Huawei/iot_link/oc/oc_mqtt/oc_mqtt_profile_v5\oc_mqtt_profile.c ****         }
 420:D:/fchai/work/i-cube/I-CUBE-HUAWEI/Middlewares/Third_Party/Huawei/iot_link/oc/oc_mqtt/oc_mqtt_profile_v5\oc_mqtt_profile.c ****     }
 421:D:/fchai/work/i-cube/I-CUBE-HUAWEI/Middlewares/Third_Party/Huawei/iot_link/oc/oc_mqtt/oc_mqtt_profile_v5\oc_mqtt_profile.c **** 
 422:D:/fchai/work/i-cube/I-CUBE-HUAWEI/Middlewares/Third_Party/Huawei/iot_link/oc/oc_mqtt/oc_mqtt_profile_v5\oc_mqtt_profile.c ****     if((NULL== payload) || (NULL == payload->request_id) || \
 1162              		.loc 1 422 5 is_stmt 1 view .LVU347
ARM GAS  T:\msys\tmp\ccMJI2cA.s 			page 32


 1163              		.loc 1 422 7 is_stmt 0 view .LVU348
 1164 0006 FCB1     		cbz	r4, .L121
 1165              		.loc 1 422 44 discriminator 1 view .LVU349
 1166 0008 2268     		ldr	r2, [r4]
 1167              		.loc 1 422 25 discriminator 1 view .LVU350
 1168 000a EAB1     		cbz	r2, .L121
 423:D:/fchai/work/i-cube/I-CUBE-HUAWEI/Middlewares/Third_Party/Huawei/iot_link/oc/oc_mqtt/oc_mqtt_profile_v5\oc_mqtt_profile.c ****        (NULL== payload->services->service_id) || (NULL == payload->services->service_property))
 1169              		.loc 1 423 23 discriminator 2 view .LVU351
 1170 000c 6368     		ldr	r3, [r4, #4]
 422:D:/fchai/work/i-cube/I-CUBE-HUAWEI/Middlewares/Third_Party/Huawei/iot_link/oc/oc_mqtt/oc_mqtt_profile_v5\oc_mqtt_profile.c ****        (NULL== payload->services->service_id) || (NULL == payload->services->service_property))
 1171              		.loc 1 422 58 discriminator 2 view .LVU352
 1172 000e 5968     		ldr	r1, [r3, #4]
 1173              	.LVL107:
 422:D:/fchai/work/i-cube/I-CUBE-HUAWEI/Middlewares/Third_Party/Huawei/iot_link/oc/oc_mqtt/oc_mqtt_profile_v5\oc_mqtt_profile.c ****        (NULL== payload->services->service_id) || (NULL == payload->services->service_property))
 1174              		.loc 1 422 58 discriminator 2 view .LVU353
 1175 0010 D1B1     		cbz	r1, .L121
 1176              		.loc 1 423 47 view .LVU354
 1177 0012 DB68     		ldr	r3, [r3, #12]
 1178 0014 C3B1     		cbz	r3, .L121
 424:D:/fchai/work/i-cube/I-CUBE-HUAWEI/Middlewares/Third_Party/Huawei/iot_link/oc/oc_mqtt/oc_mqtt_profile_v5\oc_mqtt_profile.c ****     {
 425:D:/fchai/work/i-cube/I-CUBE-HUAWEI/Middlewares/Third_Party/Huawei/iot_link/oc/oc_mqtt/oc_mqtt_profile_v5\oc_mqtt_profile.c ****         return ret;
 426:D:/fchai/work/i-cube/I-CUBE-HUAWEI/Middlewares/Third_Party/Huawei/iot_link/oc/oc_mqtt/oc_mqtt_profile_v5\oc_mqtt_profile.c ****     }
 427:D:/fchai/work/i-cube/I-CUBE-HUAWEI/Middlewares/Third_Party/Huawei/iot_link/oc/oc_mqtt/oc_mqtt_profile_v5\oc_mqtt_profile.c **** 
 428:D:/fchai/work/i-cube/I-CUBE-HUAWEI/Middlewares/Third_Party/Huawei/iot_link/oc/oc_mqtt/oc_mqtt_profile_v5\oc_mqtt_profile.c ****     topic = topic_make(CN_OC_MQTT_PROFILE_ROPERTYGETRESP_TOPICFMT, deviceid,payload->request_id);
 1179              		.loc 1 428 5 is_stmt 1 view .LVU355
 1180              		.loc 1 428 13 is_stmt 0 view .LVU356
 1181 0016 0146     		mov	r1, r0
 1182 0018 1148     		ldr	r0, .L126
 1183              	.LVL108:
 1184              		.loc 1 428 13 view .LVU357
 1185 001a FFF7FEFF 		bl	topic_make
 1186              	.LVL109:
 1187              		.loc 1 428 13 view .LVU358
 1188 001e 0546     		mov	r5, r0
 429:D:/fchai/work/i-cube/I-CUBE-HUAWEI/Middlewares/Third_Party/Huawei/iot_link/oc/oc_mqtt/oc_mqtt_profile_v5\oc_mqtt_profile.c ****     msg = oc_mqtt_profile_package_propertygetresp(payload);
 1189              		.loc 1 429 11 view .LVU359
 1190 0020 2046     		mov	r0, r4
 1191              	.LVL110:
 1192              		.loc 1 429 5 is_stmt 1 view .LVU360
 1193              		.loc 1 429 11 is_stmt 0 view .LVU361
 1194 0022 FFF7FEFF 		bl	oc_mqtt_profile_package_propertygetresp
 1195              	.LVL111:
 1196 0026 0646     		mov	r6, r0
 1197              	.LVL112:
 430:D:/fchai/work/i-cube/I-CUBE-HUAWEI/Middlewares/Third_Party/Huawei/iot_link/oc/oc_mqtt/oc_mqtt_profile_v5\oc_mqtt_profile.c **** 
 431:D:/fchai/work/i-cube/I-CUBE-HUAWEI/Middlewares/Third_Party/Huawei/iot_link/oc/oc_mqtt/oc_mqtt_profile_v5\oc_mqtt_profile.c ****     if((NULL != topic) && (NULL != msg))
 1198              		.loc 1 431 5 is_stmt 1 view .LVU362
 1199              		.loc 1 431 7 is_stmt 0 view .LVU363
 1200 0028 8DB1     		cbz	r5, .L123
 1201              		.loc 1 431 24 discriminator 1 view .LVU364
 1202 002a 80B1     		cbz	r0, .L123
 432:D:/fchai/work/i-cube/I-CUBE-HUAWEI/Middlewares/Third_Party/Huawei/iot_link/oc/oc_mqtt/oc_mqtt_profile_v5\oc_mqtt_profile.c ****     {
 433:D:/fchai/work/i-cube/I-CUBE-HUAWEI/Middlewares/Third_Party/Huawei/iot_link/oc/oc_mqtt/oc_mqtt_profile_v5\oc_mqtt_profile.c ****         ret = oc_mqtt_publish(topic,(uint8_t *)msg,strlen(msg),(int)en_mqtt_al_qos_1);
 1203              		.loc 1 433 9 is_stmt 1 view .LVU365
 1204              		.loc 1 433 52 is_stmt 0 view .LVU366
 1205 002c FFF7FEFF 		bl	strlen
 1206              	.LVL113:
ARM GAS  T:\msys\tmp\ccMJI2cA.s 			page 33


 1207              		.loc 1 433 15 view .LVU367
 1208 0030 0123     		movs	r3, #1
 1209              		.loc 1 433 52 view .LVU368
 1210 0032 0246     		mov	r2, r0
 1211              		.loc 1 433 15 view .LVU369
 1212 0034 3146     		mov	r1, r6
 1213 0036 2846     		mov	r0, r5
 1214 0038 FFF7FEFF 		bl	oc_mqtt_publish
 1215              	.LVL114:
 1216 003c 0446     		mov	r4, r0
 1217              	.LVL115:
 1218              		.loc 1 433 13 view .LVU370
 1219 003e 07E0     		b	.L116
 1220              	.LVL116:
 1221              	.L125:
 412:D:/fchai/work/i-cube/I-CUBE-HUAWEI/Middlewares/Third_Party/Huawei/iot_link/oc/oc_mqtt/oc_mqtt_profile_v5\oc_mqtt_profile.c ****         {
 1222              		.loc 1 412 9 is_stmt 1 view .LVU371
 412:D:/fchai/work/i-cube/I-CUBE-HUAWEI/Middlewares/Third_Party/Huawei/iot_link/oc/oc_mqtt/oc_mqtt_profile_v5\oc_mqtt_profile.c ****         {
 1223              		.loc 1 412 40 is_stmt 0 view .LVU372
 1224 0040 084B     		ldr	r3, .L126+4
 1225 0042 1868     		ldr	r0, [r3]
 1226              	.LVL117:
 412:D:/fchai/work/i-cube/I-CUBE-HUAWEI/Middlewares/Third_Party/Huawei/iot_link/oc/oc_mqtt/oc_mqtt_profile_v5\oc_mqtt_profile.c ****         {
 1227              		.loc 1 412 11 view .LVU373
 1228 0044 0028     		cmp	r0, #0
 1229 0046 DED1     		bne	.L114
 1230              	.LVL118:
 1231              	.L121:
 414:D:/fchai/work/i-cube/I-CUBE-HUAWEI/Middlewares/Third_Party/Huawei/iot_link/oc/oc_mqtt/oc_mqtt_profile_v5\oc_mqtt_profile.c ****         }
 1232              		.loc 1 414 20 view .LVU374
 1233 0048 0124     		movs	r4, #1
 1234              	.LVL119:
 434:D:/fchai/work/i-cube/I-CUBE-HUAWEI/Middlewares/Third_Party/Huawei/iot_link/oc/oc_mqtt/oc_mqtt_profile_v5\oc_mqtt_profile.c ****     }
 435:D:/fchai/work/i-cube/I-CUBE-HUAWEI/Middlewares/Third_Party/Huawei/iot_link/oc/oc_mqtt/oc_mqtt_profile_v5\oc_mqtt_profile.c ****     else
 436:D:/fchai/work/i-cube/I-CUBE-HUAWEI/Middlewares/Third_Party/Huawei/iot_link/oc/oc_mqtt/oc_mqtt_profile_v5\oc_mqtt_profile.c ****     {
 437:D:/fchai/work/i-cube/I-CUBE-HUAWEI/Middlewares/Third_Party/Huawei/iot_link/oc/oc_mqtt/oc_mqtt_profile_v5\oc_mqtt_profile.c ****         ret = (int)en_oc_mqtt_err_sysmem;
 438:D:/fchai/work/i-cube/I-CUBE-HUAWEI/Middlewares/Third_Party/Huawei/iot_link/oc/oc_mqtt/oc_mqtt_profile_v5\oc_mqtt_profile.c ****     }
 439:D:/fchai/work/i-cube/I-CUBE-HUAWEI/Middlewares/Third_Party/Huawei/iot_link/oc/oc_mqtt/oc_mqtt_profile_v5\oc_mqtt_profile.c **** 
 440:D:/fchai/work/i-cube/I-CUBE-HUAWEI/Middlewares/Third_Party/Huawei/iot_link/oc/oc_mqtt/oc_mqtt_profile_v5\oc_mqtt_profile.c ****     osal_free(topic);
 441:D:/fchai/work/i-cube/I-CUBE-HUAWEI/Middlewares/Third_Party/Huawei/iot_link/oc/oc_mqtt/oc_mqtt_profile_v5\oc_mqtt_profile.c ****     osal_free(msg);
 442:D:/fchai/work/i-cube/I-CUBE-HUAWEI/Middlewares/Third_Party/Huawei/iot_link/oc/oc_mqtt/oc_mqtt_profile_v5\oc_mqtt_profile.c **** 
 443:D:/fchai/work/i-cube/I-CUBE-HUAWEI/Middlewares/Third_Party/Huawei/iot_link/oc/oc_mqtt/oc_mqtt_profile_v5\oc_mqtt_profile.c ****     return ret;
 444:D:/fchai/work/i-cube/I-CUBE-HUAWEI/Middlewares/Third_Party/Huawei/iot_link/oc/oc_mqtt/oc_mqtt_profile_v5\oc_mqtt_profile.c **** }
 1235              		.loc 1 444 1 view .LVU375
 1236 004a 2046     		mov	r0, r4
 1237 004c 70BD     		pop	{r4, r5, r6, pc}
 1238              	.LVL120:
 1239              	.L123:
 437:D:/fchai/work/i-cube/I-CUBE-HUAWEI/Middlewares/Third_Party/Huawei/iot_link/oc/oc_mqtt/oc_mqtt_profile_v5\oc_mqtt_profile.c ****     }
 1240              		.loc 1 437 13 view .LVU376
 1241 004e 0F24     		movs	r4, #15
 1242              	.LVL121:
 1243              	.L116:
 440:D:/fchai/work/i-cube/I-CUBE-HUAWEI/Middlewares/Third_Party/Huawei/iot_link/oc/oc_mqtt/oc_mqtt_profile_v5\oc_mqtt_profile.c ****     osal_free(msg);
 1244              		.loc 1 440 5 is_stmt 1 view .LVU377
 1245 0050 2846     		mov	r0, r5
 1246 0052 FFF7FEFF 		bl	osal_free
ARM GAS  T:\msys\tmp\ccMJI2cA.s 			page 34


 1247              	.LVL122:
 441:D:/fchai/work/i-cube/I-CUBE-HUAWEI/Middlewares/Third_Party/Huawei/iot_link/oc/oc_mqtt/oc_mqtt_profile_v5\oc_mqtt_profile.c **** 
 1248              		.loc 1 441 5 view .LVU378
 1249 0056 3046     		mov	r0, r6
 1250 0058 FFF7FEFF 		bl	osal_free
 1251              	.LVL123:
 443:D:/fchai/work/i-cube/I-CUBE-HUAWEI/Middlewares/Third_Party/Huawei/iot_link/oc/oc_mqtt/oc_mqtt_profile_v5\oc_mqtt_profile.c **** }
 1252              		.loc 1 443 5 view .LVU379
 1253              		.loc 1 444 1 is_stmt 0 view .LVU380
 1254 005c 2046     		mov	r0, r4
 1255 005e 70BD     		pop	{r4, r5, r6, pc}
 1256              	.LVL124:
 1257              	.L127:
 1258              		.loc 1 444 1 view .LVU381
 1259              		.align	2
 1260              	.L126:
 1261 0060 00000000 		.word	.LC11
 1262 0064 00000000 		.word	.LANCHOR0
 1263              		.cfi_endproc
 1264              	.LFE11:
 1266              		.section	.rodata.oc_mqtt_profile_cmdresp.str1.4,"aMS",%progbits,1
 1267              		.align	2
 1268              	.LC12:
 1269 0000 246F632F 		.ascii	"$oc/devices/%s/sys/commands/response/request_id=%s\000"
 1269      64657669 
 1269      6365732F 
 1269      25732F73 
 1269      79732F63 
 1270              		.section	.text.oc_mqtt_profile_cmdresp,"ax",%progbits
 1271              		.align	1
 1272              		.p2align 2,,3
 1273              		.global	oc_mqtt_profile_cmdresp
 1274              		.syntax unified
 1275              		.thumb
 1276              		.thumb_func
 1277              		.fpu fpv4-sp-d16
 1279              	oc_mqtt_profile_cmdresp:
 1280              	.LVL125:
 1281              	.LFB12:
 445:D:/fchai/work/i-cube/I-CUBE-HUAWEI/Middlewares/Third_Party/Huawei/iot_link/oc/oc_mqtt/oc_mqtt_profile_v5\oc_mqtt_profile.c **** 
 446:D:/fchai/work/i-cube/I-CUBE-HUAWEI/Middlewares/Third_Party/Huawei/iot_link/oc/oc_mqtt/oc_mqtt_profile_v5\oc_mqtt_profile.c **** #define CN_OC_MQTT_PROFILE_CMDRESP_TOPICFMT   "$oc/devices/%s/sys/commands/response/request_id=%s"
 447:D:/fchai/work/i-cube/I-CUBE-HUAWEI/Middlewares/Third_Party/Huawei/iot_link/oc/oc_mqtt/oc_mqtt_profile_v5\oc_mqtt_profile.c **** int oc_mqtt_profile_cmdresp(char *deviceid,oc_mqtt_profile_cmdresp_t *payload)
 448:D:/fchai/work/i-cube/I-CUBE-HUAWEI/Middlewares/Third_Party/Huawei/iot_link/oc/oc_mqtt/oc_mqtt_profile_v5\oc_mqtt_profile.c **** {
 1282              		.loc 1 448 1 is_stmt 1 view -0
 1283              		.cfi_startproc
 1284              		@ args = 0, pretend = 0, frame = 0
 1285              		@ frame_needed = 0, uses_anonymous_args = 0
 449:D:/fchai/work/i-cube/I-CUBE-HUAWEI/Middlewares/Third_Party/Huawei/iot_link/oc/oc_mqtt/oc_mqtt_profile_v5\oc_mqtt_profile.c ****     int ret = (int)en_oc_mqtt_err_parafmt;
 1286              		.loc 1 449 5 view .LVU383
 450:D:/fchai/work/i-cube/I-CUBE-HUAWEI/Middlewares/Third_Party/Huawei/iot_link/oc/oc_mqtt/oc_mqtt_profile_v5\oc_mqtt_profile.c ****     char *topic;
 1287              		.loc 1 450 5 view .LVU384
 451:D:/fchai/work/i-cube/I-CUBE-HUAWEI/Middlewares/Third_Party/Huawei/iot_link/oc/oc_mqtt/oc_mqtt_profile_v5\oc_mqtt_profile.c ****     char *msg;
 1288              		.loc 1 451 5 view .LVU385
 452:D:/fchai/work/i-cube/I-CUBE-HUAWEI/Middlewares/Third_Party/Huawei/iot_link/oc/oc_mqtt/oc_mqtt_profile_v5\oc_mqtt_profile.c **** 
 453:D:/fchai/work/i-cube/I-CUBE-HUAWEI/Middlewares/Third_Party/Huawei/iot_link/oc/oc_mqtt/oc_mqtt_profile_v5\oc_mqtt_profile.c ****     if(NULL == deviceid)
 1289              		.loc 1 453 5 view .LVU386
 448:D:/fchai/work/i-cube/I-CUBE-HUAWEI/Middlewares/Third_Party/Huawei/iot_link/oc/oc_mqtt/oc_mqtt_profile_v5\oc_mqtt_profile.c ****     int ret = (int)en_oc_mqtt_err_parafmt;
ARM GAS  T:\msys\tmp\ccMJI2cA.s 			page 35


 1290              		.loc 1 448 1 is_stmt 0 view .LVU387
 1291 0000 70B5     		push	{r4, r5, r6, lr}
 1292              	.LCFI18:
 1293              		.cfi_def_cfa_offset 16
 1294              		.cfi_offset 4, -16
 1295              		.cfi_offset 5, -12
 1296              		.cfi_offset 6, -8
 1297              		.cfi_offset 14, -4
 448:D:/fchai/work/i-cube/I-CUBE-HUAWEI/Middlewares/Third_Party/Huawei/iot_link/oc/oc_mqtt/oc_mqtt_profile_v5\oc_mqtt_profile.c ****     int ret = (int)en_oc_mqtt_err_parafmt;
 1298              		.loc 1 448 1 view .LVU388
 1299 0002 0C46     		mov	r4, r1
 1300              		.loc 1 453 7 view .LVU389
 1301 0004 08B3     		cbz	r0, .L139
 1302 0006 0146     		mov	r1, r0
 1303              	.LVL126:
 1304              	.L129:
 454:D:/fchai/work/i-cube/I-CUBE-HUAWEI/Middlewares/Third_Party/Huawei/iot_link/oc/oc_mqtt/oc_mqtt_profile_v5\oc_mqtt_profile.c ****     {
 455:D:/fchai/work/i-cube/I-CUBE-HUAWEI/Middlewares/Third_Party/Huawei/iot_link/oc/oc_mqtt/oc_mqtt_profile_v5\oc_mqtt_profile.c ****         if(NULL == s_oc_mqtt_profile_cb.device_id)
 456:D:/fchai/work/i-cube/I-CUBE-HUAWEI/Middlewares/Third_Party/Huawei/iot_link/oc/oc_mqtt/oc_mqtt_profile_v5\oc_mqtt_profile.c ****         {
 457:D:/fchai/work/i-cube/I-CUBE-HUAWEI/Middlewares/Third_Party/Huawei/iot_link/oc/oc_mqtt/oc_mqtt_profile_v5\oc_mqtt_profile.c ****             return ret;
 458:D:/fchai/work/i-cube/I-CUBE-HUAWEI/Middlewares/Third_Party/Huawei/iot_link/oc/oc_mqtt/oc_mqtt_profile_v5\oc_mqtt_profile.c ****         }
 459:D:/fchai/work/i-cube/I-CUBE-HUAWEI/Middlewares/Third_Party/Huawei/iot_link/oc/oc_mqtt/oc_mqtt_profile_v5\oc_mqtt_profile.c ****         else
 460:D:/fchai/work/i-cube/I-CUBE-HUAWEI/Middlewares/Third_Party/Huawei/iot_link/oc/oc_mqtt/oc_mqtt_profile_v5\oc_mqtt_profile.c ****         {
 461:D:/fchai/work/i-cube/I-CUBE-HUAWEI/Middlewares/Third_Party/Huawei/iot_link/oc/oc_mqtt/oc_mqtt_profile_v5\oc_mqtt_profile.c ****             deviceid = s_oc_mqtt_profile_cb.device_id;
 462:D:/fchai/work/i-cube/I-CUBE-HUAWEI/Middlewares/Third_Party/Huawei/iot_link/oc/oc_mqtt/oc_mqtt_profile_v5\oc_mqtt_profile.c ****         }
 463:D:/fchai/work/i-cube/I-CUBE-HUAWEI/Middlewares/Third_Party/Huawei/iot_link/oc/oc_mqtt/oc_mqtt_profile_v5\oc_mqtt_profile.c ****     }
 464:D:/fchai/work/i-cube/I-CUBE-HUAWEI/Middlewares/Third_Party/Huawei/iot_link/oc/oc_mqtt/oc_mqtt_profile_v5\oc_mqtt_profile.c **** 
 465:D:/fchai/work/i-cube/I-CUBE-HUAWEI/Middlewares/Third_Party/Huawei/iot_link/oc/oc_mqtt/oc_mqtt_profile_v5\oc_mqtt_profile.c ****     if((NULL == payload) || (NULL == payload->request_id))
 1305              		.loc 1 465 5 is_stmt 1 view .LVU390
 1306              		.loc 1 465 7 is_stmt 0 view .LVU391
 1307 0008 1CB3     		cbz	r4, .L134
 1308              		.loc 1 465 45 discriminator 1 view .LVU392
 1309 000a A268     		ldr	r2, [r4, #8]
 1310              		.loc 1 465 26 discriminator 1 view .LVU393
 1311 000c 0AB3     		cbz	r2, .L134
 466:D:/fchai/work/i-cube/I-CUBE-HUAWEI/Middlewares/Third_Party/Huawei/iot_link/oc/oc_mqtt/oc_mqtt_profile_v5\oc_mqtt_profile.c ****     {
 467:D:/fchai/work/i-cube/I-CUBE-HUAWEI/Middlewares/Third_Party/Huawei/iot_link/oc/oc_mqtt/oc_mqtt_profile_v5\oc_mqtt_profile.c ****         return ret;
 468:D:/fchai/work/i-cube/I-CUBE-HUAWEI/Middlewares/Third_Party/Huawei/iot_link/oc/oc_mqtt/oc_mqtt_profile_v5\oc_mqtt_profile.c ****     }
 469:D:/fchai/work/i-cube/I-CUBE-HUAWEI/Middlewares/Third_Party/Huawei/iot_link/oc/oc_mqtt/oc_mqtt_profile_v5\oc_mqtt_profile.c **** 
 470:D:/fchai/work/i-cube/I-CUBE-HUAWEI/Middlewares/Third_Party/Huawei/iot_link/oc/oc_mqtt/oc_mqtt_profile_v5\oc_mqtt_profile.c ****     topic = topic_make(CN_OC_MQTT_PROFILE_CMDRESP_TOPICFMT, deviceid,payload->request_id);
 1312              		.loc 1 470 5 is_stmt 1 view .LVU394
 1313              		.loc 1 470 13 is_stmt 0 view .LVU395
 1314 000e 1248     		ldr	r0, .L140
 1315 0010 FFF7FEFF 		bl	topic_make
 1316              	.LVL127:
 1317              		.loc 1 470 13 view .LVU396
 1318 0014 0346     		mov	r3, r0
 471:D:/fchai/work/i-cube/I-CUBE-HUAWEI/Middlewares/Third_Party/Huawei/iot_link/oc/oc_mqtt/oc_mqtt_profile_v5\oc_mqtt_profile.c ****     msg = oc_mqtt_profile_package_cmdresp(payload);
 1319              		.loc 1 471 11 view .LVU397
 1320 0016 2046     		mov	r0, r4
 470:D:/fchai/work/i-cube/I-CUBE-HUAWEI/Middlewares/Third_Party/Huawei/iot_link/oc/oc_mqtt/oc_mqtt_profile_v5\oc_mqtt_profile.c ****     msg = oc_mqtt_profile_package_cmdresp(payload);
 1321              		.loc 1 470 13 view .LVU398
 1322 0018 1C46     		mov	r4, r3
 1323              	.LVL128:
 1324              		.loc 1 471 5 is_stmt 1 view .LVU399
 1325              		.loc 1 471 11 is_stmt 0 view .LVU400
 1326 001a FFF7FEFF 		bl	oc_mqtt_profile_package_cmdresp
ARM GAS  T:\msys\tmp\ccMJI2cA.s 			page 36


 1327              	.LVL129:
 1328              		.loc 1 471 11 view .LVU401
 1329 001e 0546     		mov	r5, r0
 1330              	.LVL130:
 472:D:/fchai/work/i-cube/I-CUBE-HUAWEI/Middlewares/Third_Party/Huawei/iot_link/oc/oc_mqtt/oc_mqtt_profile_v5\oc_mqtt_profile.c **** 
 473:D:/fchai/work/i-cube/I-CUBE-HUAWEI/Middlewares/Third_Party/Huawei/iot_link/oc/oc_mqtt/oc_mqtt_profile_v5\oc_mqtt_profile.c ****     if((NULL != topic) && (NULL != msg))
 1331              		.loc 1 473 5 is_stmt 1 view .LVU402
 1332              		.loc 1 473 7 is_stmt 0 view .LVU403
 1333 0020 8CB1     		cbz	r4, .L136
 1334              		.loc 1 473 24 discriminator 1 view .LVU404
 1335 0022 80B1     		cbz	r0, .L136
 474:D:/fchai/work/i-cube/I-CUBE-HUAWEI/Middlewares/Third_Party/Huawei/iot_link/oc/oc_mqtt/oc_mqtt_profile_v5\oc_mqtt_profile.c ****     {
 475:D:/fchai/work/i-cube/I-CUBE-HUAWEI/Middlewares/Third_Party/Huawei/iot_link/oc/oc_mqtt/oc_mqtt_profile_v5\oc_mqtt_profile.c ****         ret = oc_mqtt_publish(topic,(uint8_t *)msg,strlen(msg),(int)en_mqtt_al_qos_1);
 1336              		.loc 1 475 9 is_stmt 1 view .LVU405
 1337              		.loc 1 475 52 is_stmt 0 view .LVU406
 1338 0024 FFF7FEFF 		bl	strlen
 1339              	.LVL131:
 1340              		.loc 1 475 15 view .LVU407
 1341 0028 0123     		movs	r3, #1
 1342              		.loc 1 475 52 view .LVU408
 1343 002a 0246     		mov	r2, r0
 1344              		.loc 1 475 15 view .LVU409
 1345 002c 2946     		mov	r1, r5
 1346 002e 2046     		mov	r0, r4
 1347 0030 FFF7FEFF 		bl	oc_mqtt_publish
 1348              	.LVL132:
 1349 0034 0646     		mov	r6, r0
 1350              	.LVL133:
 1351              	.L131:
 476:D:/fchai/work/i-cube/I-CUBE-HUAWEI/Middlewares/Third_Party/Huawei/iot_link/oc/oc_mqtt/oc_mqtt_profile_v5\oc_mqtt_profile.c ****     }
 477:D:/fchai/work/i-cube/I-CUBE-HUAWEI/Middlewares/Third_Party/Huawei/iot_link/oc/oc_mqtt/oc_mqtt_profile_v5\oc_mqtt_profile.c ****     else
 478:D:/fchai/work/i-cube/I-CUBE-HUAWEI/Middlewares/Third_Party/Huawei/iot_link/oc/oc_mqtt/oc_mqtt_profile_v5\oc_mqtt_profile.c ****     {
 479:D:/fchai/work/i-cube/I-CUBE-HUAWEI/Middlewares/Third_Party/Huawei/iot_link/oc/oc_mqtt/oc_mqtt_profile_v5\oc_mqtt_profile.c ****         ret = (int)en_oc_mqtt_err_sysmem;
 480:D:/fchai/work/i-cube/I-CUBE-HUAWEI/Middlewares/Third_Party/Huawei/iot_link/oc/oc_mqtt/oc_mqtt_profile_v5\oc_mqtt_profile.c ****     }
 481:D:/fchai/work/i-cube/I-CUBE-HUAWEI/Middlewares/Third_Party/Huawei/iot_link/oc/oc_mqtt/oc_mqtt_profile_v5\oc_mqtt_profile.c **** 
 482:D:/fchai/work/i-cube/I-CUBE-HUAWEI/Middlewares/Third_Party/Huawei/iot_link/oc/oc_mqtt/oc_mqtt_profile_v5\oc_mqtt_profile.c ****     osal_free(topic);
 1352              		.loc 1 482 5 is_stmt 1 view .LVU410
 1353 0036 2046     		mov	r0, r4
 1354 0038 FFF7FEFF 		bl	osal_free
 1355              	.LVL134:
 483:D:/fchai/work/i-cube/I-CUBE-HUAWEI/Middlewares/Third_Party/Huawei/iot_link/oc/oc_mqtt/oc_mqtt_profile_v5\oc_mqtt_profile.c ****     osal_free(msg);
 1356              		.loc 1 483 5 view .LVU411
 1357 003c 2846     		mov	r0, r5
 1358 003e FFF7FEFF 		bl	osal_free
 1359              	.LVL135:
 484:D:/fchai/work/i-cube/I-CUBE-HUAWEI/Middlewares/Third_Party/Huawei/iot_link/oc/oc_mqtt/oc_mqtt_profile_v5\oc_mqtt_profile.c **** 
 485:D:/fchai/work/i-cube/I-CUBE-HUAWEI/Middlewares/Third_Party/Huawei/iot_link/oc/oc_mqtt/oc_mqtt_profile_v5\oc_mqtt_profile.c ****     return ret;
 1360              		.loc 1 485 5 view .LVU412
 486:D:/fchai/work/i-cube/I-CUBE-HUAWEI/Middlewares/Third_Party/Huawei/iot_link/oc/oc_mqtt/oc_mqtt_profile_v5\oc_mqtt_profile.c **** }
 1361              		.loc 1 486 1 is_stmt 0 view .LVU413
 1362 0042 3046     		mov	r0, r6
 1363 0044 70BD     		pop	{r4, r5, r6, pc}
 1364              	.LVL136:
 1365              	.L136:
 479:D:/fchai/work/i-cube/I-CUBE-HUAWEI/Middlewares/Third_Party/Huawei/iot_link/oc/oc_mqtt/oc_mqtt_profile_v5\oc_mqtt_profile.c ****     }
 1366              		.loc 1 479 13 view .LVU414
 1367 0046 0F26     		movs	r6, #15
ARM GAS  T:\msys\tmp\ccMJI2cA.s 			page 37


 1368 0048 F5E7     		b	.L131
 1369              	.LVL137:
 1370              	.L139:
 455:D:/fchai/work/i-cube/I-CUBE-HUAWEI/Middlewares/Third_Party/Huawei/iot_link/oc/oc_mqtt/oc_mqtt_profile_v5\oc_mqtt_profile.c ****         {
 1371              		.loc 1 455 9 is_stmt 1 view .LVU415
 455:D:/fchai/work/i-cube/I-CUBE-HUAWEI/Middlewares/Third_Party/Huawei/iot_link/oc/oc_mqtt/oc_mqtt_profile_v5\oc_mqtt_profile.c ****         {
 1372              		.loc 1 455 40 is_stmt 0 view .LVU416
 1373 004a 044B     		ldr	r3, .L140+4
 1374 004c 1968     		ldr	r1, [r3]
 1375              	.LVL138:
 455:D:/fchai/work/i-cube/I-CUBE-HUAWEI/Middlewares/Third_Party/Huawei/iot_link/oc/oc_mqtt/oc_mqtt_profile_v5\oc_mqtt_profile.c ****         {
 1376              		.loc 1 455 11 view .LVU417
 1377 004e 0029     		cmp	r1, #0
 1378 0050 DAD1     		bne	.L129
 1379              	.LVL139:
 1380              	.L134:
 457:D:/fchai/work/i-cube/I-CUBE-HUAWEI/Middlewares/Third_Party/Huawei/iot_link/oc/oc_mqtt/oc_mqtt_profile_v5\oc_mqtt_profile.c ****         }
 1381              		.loc 1 457 20 view .LVU418
 1382 0052 0126     		movs	r6, #1
 1383              		.loc 1 486 1 view .LVU419
 1384 0054 3046     		mov	r0, r6
 1385 0056 70BD     		pop	{r4, r5, r6, pc}
 1386              	.LVL140:
 1387              	.L141:
 1388              		.loc 1 486 1 view .LVU420
 1389              		.align	2
 1390              	.L140:
 1391 0058 00000000 		.word	.LC12
 1392 005c 00000000 		.word	.LANCHOR0
 1393              		.cfi_endproc
 1394              	.LFE12:
 1396              		.section	.rodata.oc_mqtt_profile_getshadow.str1.4,"aMS",%progbits,1
 1397              		.align	2
 1398              	.LC13:
 1399 0000 246F632F 		.ascii	"$oc/devices/%s/sys/shadow/get/request_id=%s\000"
 1399      64657669 
 1399      6365732F 
 1399      25732F73 
 1399      79732F73 
 1400              		.section	.text.oc_mqtt_profile_getshadow,"ax",%progbits
 1401              		.align	1
 1402              		.p2align 2,,3
 1403              		.global	oc_mqtt_profile_getshadow
 1404              		.syntax unified
 1405              		.thumb
 1406              		.thumb_func
 1407              		.fpu fpv4-sp-d16
 1409              	oc_mqtt_profile_getshadow:
 1410              	.LVL141:
 1411              	.LFB13:
 487:D:/fchai/work/i-cube/I-CUBE-HUAWEI/Middlewares/Third_Party/Huawei/iot_link/oc/oc_mqtt/oc_mqtt_profile_v5\oc_mqtt_profile.c **** 
 488:D:/fchai/work/i-cube/I-CUBE-HUAWEI/Middlewares/Third_Party/Huawei/iot_link/oc/oc_mqtt/oc_mqtt_profile_v5\oc_mqtt_profile.c **** #define CN_OC_MQTT_PROFILE_GETSHADOW_TOPICFMT   "$oc/devices/%s/sys/shadow/get/request_id=%s"
 489:D:/fchai/work/i-cube/I-CUBE-HUAWEI/Middlewares/Third_Party/Huawei/iot_link/oc/oc_mqtt/oc_mqtt_profile_v5\oc_mqtt_profile.c **** int oc_mqtt_profile_getshadow(char *deviceid,oc_mqtt_profile_shadowget_t *payload)
 490:D:/fchai/work/i-cube/I-CUBE-HUAWEI/Middlewares/Third_Party/Huawei/iot_link/oc/oc_mqtt/oc_mqtt_profile_v5\oc_mqtt_profile.c **** {
 1412              		.loc 1 490 1 is_stmt 1 view -0
 1413              		.cfi_startproc
 1414              		@ args = 0, pretend = 0, frame = 0
ARM GAS  T:\msys\tmp\ccMJI2cA.s 			page 38


 1415              		@ frame_needed = 0, uses_anonymous_args = 0
 491:D:/fchai/work/i-cube/I-CUBE-HUAWEI/Middlewares/Third_Party/Huawei/iot_link/oc/oc_mqtt/oc_mqtt_profile_v5\oc_mqtt_profile.c ****     int ret = (int)en_oc_mqtt_err_parafmt;
 1416              		.loc 1 491 5 view .LVU422
 492:D:/fchai/work/i-cube/I-CUBE-HUAWEI/Middlewares/Third_Party/Huawei/iot_link/oc/oc_mqtt/oc_mqtt_profile_v5\oc_mqtt_profile.c ****     char *topic;
 1417              		.loc 1 492 5 view .LVU423
 493:D:/fchai/work/i-cube/I-CUBE-HUAWEI/Middlewares/Third_Party/Huawei/iot_link/oc/oc_mqtt/oc_mqtt_profile_v5\oc_mqtt_profile.c ****     char *msg;
 1418              		.loc 1 493 5 view .LVU424
 494:D:/fchai/work/i-cube/I-CUBE-HUAWEI/Middlewares/Third_Party/Huawei/iot_link/oc/oc_mqtt/oc_mqtt_profile_v5\oc_mqtt_profile.c **** 
 495:D:/fchai/work/i-cube/I-CUBE-HUAWEI/Middlewares/Third_Party/Huawei/iot_link/oc/oc_mqtt/oc_mqtt_profile_v5\oc_mqtt_profile.c ****     if(NULL == deviceid)
 1419              		.loc 1 495 5 view .LVU425
 490:D:/fchai/work/i-cube/I-CUBE-HUAWEI/Middlewares/Third_Party/Huawei/iot_link/oc/oc_mqtt/oc_mqtt_profile_v5\oc_mqtt_profile.c ****     int ret = (int)en_oc_mqtt_err_parafmt;
 1420              		.loc 1 490 1 is_stmt 0 view .LVU426
 1421 0000 70B5     		push	{r4, r5, r6, lr}
 1422              	.LCFI19:
 1423              		.cfi_def_cfa_offset 16
 1424              		.cfi_offset 4, -16
 1425              		.cfi_offset 5, -12
 1426              		.cfi_offset 6, -8
 1427              		.cfi_offset 14, -4
 490:D:/fchai/work/i-cube/I-CUBE-HUAWEI/Middlewares/Third_Party/Huawei/iot_link/oc/oc_mqtt/oc_mqtt_profile_v5\oc_mqtt_profile.c ****     int ret = (int)en_oc_mqtt_err_parafmt;
 1428              		.loc 1 490 1 view .LVU427
 1429 0002 0C46     		mov	r4, r1
 1430              		.loc 1 495 7 view .LVU428
 1431 0004 08B3     		cbz	r0, .L153
 1432 0006 0146     		mov	r1, r0
 1433              	.LVL142:
 1434              	.L143:
 496:D:/fchai/work/i-cube/I-CUBE-HUAWEI/Middlewares/Third_Party/Huawei/iot_link/oc/oc_mqtt/oc_mqtt_profile_v5\oc_mqtt_profile.c ****     {
 497:D:/fchai/work/i-cube/I-CUBE-HUAWEI/Middlewares/Third_Party/Huawei/iot_link/oc/oc_mqtt/oc_mqtt_profile_v5\oc_mqtt_profile.c ****         if(NULL == s_oc_mqtt_profile_cb.device_id)
 498:D:/fchai/work/i-cube/I-CUBE-HUAWEI/Middlewares/Third_Party/Huawei/iot_link/oc/oc_mqtt/oc_mqtt_profile_v5\oc_mqtt_profile.c ****         {
 499:D:/fchai/work/i-cube/I-CUBE-HUAWEI/Middlewares/Third_Party/Huawei/iot_link/oc/oc_mqtt/oc_mqtt_profile_v5\oc_mqtt_profile.c ****             return ret;
 500:D:/fchai/work/i-cube/I-CUBE-HUAWEI/Middlewares/Third_Party/Huawei/iot_link/oc/oc_mqtt/oc_mqtt_profile_v5\oc_mqtt_profile.c ****         }
 501:D:/fchai/work/i-cube/I-CUBE-HUAWEI/Middlewares/Third_Party/Huawei/iot_link/oc/oc_mqtt/oc_mqtt_profile_v5\oc_mqtt_profile.c ****         else
 502:D:/fchai/work/i-cube/I-CUBE-HUAWEI/Middlewares/Third_Party/Huawei/iot_link/oc/oc_mqtt/oc_mqtt_profile_v5\oc_mqtt_profile.c ****         {
 503:D:/fchai/work/i-cube/I-CUBE-HUAWEI/Middlewares/Third_Party/Huawei/iot_link/oc/oc_mqtt/oc_mqtt_profile_v5\oc_mqtt_profile.c ****             deviceid = s_oc_mqtt_profile_cb.device_id;
 504:D:/fchai/work/i-cube/I-CUBE-HUAWEI/Middlewares/Third_Party/Huawei/iot_link/oc/oc_mqtt/oc_mqtt_profile_v5\oc_mqtt_profile.c ****         }
 505:D:/fchai/work/i-cube/I-CUBE-HUAWEI/Middlewares/Third_Party/Huawei/iot_link/oc/oc_mqtt/oc_mqtt_profile_v5\oc_mqtt_profile.c ****     }
 506:D:/fchai/work/i-cube/I-CUBE-HUAWEI/Middlewares/Third_Party/Huawei/iot_link/oc/oc_mqtt/oc_mqtt_profile_v5\oc_mqtt_profile.c **** 
 507:D:/fchai/work/i-cube/I-CUBE-HUAWEI/Middlewares/Third_Party/Huawei/iot_link/oc/oc_mqtt/oc_mqtt_profile_v5\oc_mqtt_profile.c ****     if((NULL == payload) || (NULL == payload->request_id))
 1435              		.loc 1 507 5 is_stmt 1 view .LVU429
 1436              		.loc 1 507 7 is_stmt 0 view .LVU430
 1437 0008 1CB3     		cbz	r4, .L148
 1438              		.loc 1 507 45 discriminator 1 view .LVU431
 1439 000a A268     		ldr	r2, [r4, #8]
 1440              		.loc 1 507 26 discriminator 1 view .LVU432
 1441 000c 0AB3     		cbz	r2, .L148
 508:D:/fchai/work/i-cube/I-CUBE-HUAWEI/Middlewares/Third_Party/Huawei/iot_link/oc/oc_mqtt/oc_mqtt_profile_v5\oc_mqtt_profile.c ****     {
 509:D:/fchai/work/i-cube/I-CUBE-HUAWEI/Middlewares/Third_Party/Huawei/iot_link/oc/oc_mqtt/oc_mqtt_profile_v5\oc_mqtt_profile.c ****         return ret;
 510:D:/fchai/work/i-cube/I-CUBE-HUAWEI/Middlewares/Third_Party/Huawei/iot_link/oc/oc_mqtt/oc_mqtt_profile_v5\oc_mqtt_profile.c ****     }
 511:D:/fchai/work/i-cube/I-CUBE-HUAWEI/Middlewares/Third_Party/Huawei/iot_link/oc/oc_mqtt/oc_mqtt_profile_v5\oc_mqtt_profile.c **** 
 512:D:/fchai/work/i-cube/I-CUBE-HUAWEI/Middlewares/Third_Party/Huawei/iot_link/oc/oc_mqtt/oc_mqtt_profile_v5\oc_mqtt_profile.c ****     topic = topic_make(CN_OC_MQTT_PROFILE_GETSHADOW_TOPICFMT, deviceid,payload->request_id);
 1442              		.loc 1 512 5 is_stmt 1 view .LVU433
 1443              		.loc 1 512 13 is_stmt 0 view .LVU434
 1444 000e 1248     		ldr	r0, .L154
 1445 0010 FFF7FEFF 		bl	topic_make
 1446              	.LVL143:
 1447              		.loc 1 512 13 view .LVU435
ARM GAS  T:\msys\tmp\ccMJI2cA.s 			page 39


 1448 0014 0346     		mov	r3, r0
 513:D:/fchai/work/i-cube/I-CUBE-HUAWEI/Middlewares/Third_Party/Huawei/iot_link/oc/oc_mqtt/oc_mqtt_profile_v5\oc_mqtt_profile.c ****     msg = oc_mqtt_profile_package_shadowget(payload);
 1449              		.loc 1 513 11 view .LVU436
 1450 0016 2046     		mov	r0, r4
 512:D:/fchai/work/i-cube/I-CUBE-HUAWEI/Middlewares/Third_Party/Huawei/iot_link/oc/oc_mqtt/oc_mqtt_profile_v5\oc_mqtt_profile.c ****     msg = oc_mqtt_profile_package_shadowget(payload);
 1451              		.loc 1 512 13 view .LVU437
 1452 0018 1C46     		mov	r4, r3
 1453              	.LVL144:
 1454              		.loc 1 513 5 is_stmt 1 view .LVU438
 1455              		.loc 1 513 11 is_stmt 0 view .LVU439
 1456 001a FFF7FEFF 		bl	oc_mqtt_profile_package_shadowget
 1457              	.LVL145:
 1458              		.loc 1 513 11 view .LVU440
 1459 001e 0546     		mov	r5, r0
 1460              	.LVL146:
 514:D:/fchai/work/i-cube/I-CUBE-HUAWEI/Middlewares/Third_Party/Huawei/iot_link/oc/oc_mqtt/oc_mqtt_profile_v5\oc_mqtt_profile.c **** 
 515:D:/fchai/work/i-cube/I-CUBE-HUAWEI/Middlewares/Third_Party/Huawei/iot_link/oc/oc_mqtt/oc_mqtt_profile_v5\oc_mqtt_profile.c ****     if((NULL != topic) && (NULL != msg))
 1461              		.loc 1 515 5 is_stmt 1 view .LVU441
 1462              		.loc 1 515 7 is_stmt 0 view .LVU442
 1463 0020 8CB1     		cbz	r4, .L150
 1464              		.loc 1 515 24 discriminator 1 view .LVU443
 1465 0022 80B1     		cbz	r0, .L150
 516:D:/fchai/work/i-cube/I-CUBE-HUAWEI/Middlewares/Third_Party/Huawei/iot_link/oc/oc_mqtt/oc_mqtt_profile_v5\oc_mqtt_profile.c ****     {
 517:D:/fchai/work/i-cube/I-CUBE-HUAWEI/Middlewares/Third_Party/Huawei/iot_link/oc/oc_mqtt/oc_mqtt_profile_v5\oc_mqtt_profile.c ****         ret = oc_mqtt_publish(topic,(uint8_t *)msg,strlen(msg),(int)en_mqtt_al_qos_1);
 1466              		.loc 1 517 9 is_stmt 1 view .LVU444
 1467              		.loc 1 517 52 is_stmt 0 view .LVU445
 1468 0024 FFF7FEFF 		bl	strlen
 1469              	.LVL147:
 1470              		.loc 1 517 15 view .LVU446
 1471 0028 0123     		movs	r3, #1
 1472              		.loc 1 517 52 view .LVU447
 1473 002a 0246     		mov	r2, r0
 1474              		.loc 1 517 15 view .LVU448
 1475 002c 2946     		mov	r1, r5
 1476 002e 2046     		mov	r0, r4
 1477 0030 FFF7FEFF 		bl	oc_mqtt_publish
 1478              	.LVL148:
 1479 0034 0646     		mov	r6, r0
 1480              	.LVL149:
 1481              	.L145:
 518:D:/fchai/work/i-cube/I-CUBE-HUAWEI/Middlewares/Third_Party/Huawei/iot_link/oc/oc_mqtt/oc_mqtt_profile_v5\oc_mqtt_profile.c ****     }
 519:D:/fchai/work/i-cube/I-CUBE-HUAWEI/Middlewares/Third_Party/Huawei/iot_link/oc/oc_mqtt/oc_mqtt_profile_v5\oc_mqtt_profile.c ****     else
 520:D:/fchai/work/i-cube/I-CUBE-HUAWEI/Middlewares/Third_Party/Huawei/iot_link/oc/oc_mqtt/oc_mqtt_profile_v5\oc_mqtt_profile.c ****     {
 521:D:/fchai/work/i-cube/I-CUBE-HUAWEI/Middlewares/Third_Party/Huawei/iot_link/oc/oc_mqtt/oc_mqtt_profile_v5\oc_mqtt_profile.c ****         ret = (int)en_oc_mqtt_err_sysmem;
 522:D:/fchai/work/i-cube/I-CUBE-HUAWEI/Middlewares/Third_Party/Huawei/iot_link/oc/oc_mqtt/oc_mqtt_profile_v5\oc_mqtt_profile.c ****     }
 523:D:/fchai/work/i-cube/I-CUBE-HUAWEI/Middlewares/Third_Party/Huawei/iot_link/oc/oc_mqtt/oc_mqtt_profile_v5\oc_mqtt_profile.c **** 
 524:D:/fchai/work/i-cube/I-CUBE-HUAWEI/Middlewares/Third_Party/Huawei/iot_link/oc/oc_mqtt/oc_mqtt_profile_v5\oc_mqtt_profile.c ****     osal_free(topic);
 1482              		.loc 1 524 5 is_stmt 1 view .LVU449
 1483 0036 2046     		mov	r0, r4
 1484 0038 FFF7FEFF 		bl	osal_free
 1485              	.LVL150:
 525:D:/fchai/work/i-cube/I-CUBE-HUAWEI/Middlewares/Third_Party/Huawei/iot_link/oc/oc_mqtt/oc_mqtt_profile_v5\oc_mqtt_profile.c ****     osal_free(msg);
 1486              		.loc 1 525 5 view .LVU450
 1487 003c 2846     		mov	r0, r5
 1488 003e FFF7FEFF 		bl	osal_free
 1489              	.LVL151:
 526:D:/fchai/work/i-cube/I-CUBE-HUAWEI/Middlewares/Third_Party/Huawei/iot_link/oc/oc_mqtt/oc_mqtt_profile_v5\oc_mqtt_profile.c **** 
ARM GAS  T:\msys\tmp\ccMJI2cA.s 			page 40


 527:D:/fchai/work/i-cube/I-CUBE-HUAWEI/Middlewares/Third_Party/Huawei/iot_link/oc/oc_mqtt/oc_mqtt_profile_v5\oc_mqtt_profile.c ****     return ret;
 1490              		.loc 1 527 5 view .LVU451
 528:D:/fchai/work/i-cube/I-CUBE-HUAWEI/Middlewares/Third_Party/Huawei/iot_link/oc/oc_mqtt/oc_mqtt_profile_v5\oc_mqtt_profile.c **** }
 1491              		.loc 1 528 1 is_stmt 0 view .LVU452
 1492 0042 3046     		mov	r0, r6
 1493 0044 70BD     		pop	{r4, r5, r6, pc}
 1494              	.LVL152:
 1495              	.L150:
 521:D:/fchai/work/i-cube/I-CUBE-HUAWEI/Middlewares/Third_Party/Huawei/iot_link/oc/oc_mqtt/oc_mqtt_profile_v5\oc_mqtt_profile.c ****     }
 1496              		.loc 1 521 13 view .LVU453
 1497 0046 0F26     		movs	r6, #15
 1498 0048 F5E7     		b	.L145
 1499              	.LVL153:
 1500              	.L153:
 497:D:/fchai/work/i-cube/I-CUBE-HUAWEI/Middlewares/Third_Party/Huawei/iot_link/oc/oc_mqtt/oc_mqtt_profile_v5\oc_mqtt_profile.c ****         {
 1501              		.loc 1 497 9 is_stmt 1 view .LVU454
 497:D:/fchai/work/i-cube/I-CUBE-HUAWEI/Middlewares/Third_Party/Huawei/iot_link/oc/oc_mqtt/oc_mqtt_profile_v5\oc_mqtt_profile.c ****         {
 1502              		.loc 1 497 40 is_stmt 0 view .LVU455
 1503 004a 044B     		ldr	r3, .L154+4
 1504 004c 1968     		ldr	r1, [r3]
 1505              	.LVL154:
 497:D:/fchai/work/i-cube/I-CUBE-HUAWEI/Middlewares/Third_Party/Huawei/iot_link/oc/oc_mqtt/oc_mqtt_profile_v5\oc_mqtt_profile.c ****         {
 1506              		.loc 1 497 11 view .LVU456
 1507 004e 0029     		cmp	r1, #0
 1508 0050 DAD1     		bne	.L143
 1509              	.LVL155:
 1510              	.L148:
 499:D:/fchai/work/i-cube/I-CUBE-HUAWEI/Middlewares/Third_Party/Huawei/iot_link/oc/oc_mqtt/oc_mqtt_profile_v5\oc_mqtt_profile.c ****         }
 1511              		.loc 1 499 20 view .LVU457
 1512 0052 0126     		movs	r6, #1
 1513              		.loc 1 528 1 view .LVU458
 1514 0054 3046     		mov	r0, r6
 1515 0056 70BD     		pop	{r4, r5, r6, pc}
 1516              	.LVL156:
 1517              	.L155:
 1518              		.loc 1 528 1 view .LVU459
 1519              		.align	2
 1520              	.L154:
 1521 0058 00000000 		.word	.LC13
 1522 005c 00000000 		.word	.LANCHOR0
 1523              		.cfi_endproc
 1524              	.LFE13:
 1526              		.section	.rodata.oc_mqtt_profile_reportevent.str1.4,"aMS",%progbits,1
 1527              		.align	2
 1528              	.LC14:
 1529 0000 246F632F 		.ascii	"$oc/devices/%s/sys/events/up\000"
 1529      64657669 
 1529      6365732F 
 1529      25732F73 
 1529      79732F65 
 1530              		.section	.text.oc_mqtt_profile_reportevent,"ax",%progbits
 1531              		.align	1
 1532              		.p2align 2,,3
 1533              		.global	oc_mqtt_profile_reportevent
 1534              		.syntax unified
 1535              		.thumb
 1536              		.thumb_func
ARM GAS  T:\msys\tmp\ccMJI2cA.s 			page 41


 1537              		.fpu fpv4-sp-d16
 1539              	oc_mqtt_profile_reportevent:
 1540              	.LVL157:
 1541              	.LFB14:
 529:D:/fchai/work/i-cube/I-CUBE-HUAWEI/Middlewares/Third_Party/Huawei/iot_link/oc/oc_mqtt/oc_mqtt_profile_v5\oc_mqtt_profile.c **** 
 530:D:/fchai/work/i-cube/I-CUBE-HUAWEI/Middlewares/Third_Party/Huawei/iot_link/oc/oc_mqtt/oc_mqtt_profile_v5\oc_mqtt_profile.c **** 
 531:D:/fchai/work/i-cube/I-CUBE-HUAWEI/Middlewares/Third_Party/Huawei/iot_link/oc/oc_mqtt/oc_mqtt_profile_v5\oc_mqtt_profile.c **** #define CN_OC_MQTT_PROFILE_EVENT_TOPICFMT   "$oc/devices/%s/sys/events/up"
 532:D:/fchai/work/i-cube/I-CUBE-HUAWEI/Middlewares/Third_Party/Huawei/iot_link/oc/oc_mqtt/oc_mqtt_profile_v5\oc_mqtt_profile.c **** int oc_mqtt_profile_reportevent(char *deviceid,oc_mqtt_profile_event_t *event)
 533:D:/fchai/work/i-cube/I-CUBE-HUAWEI/Middlewares/Third_Party/Huawei/iot_link/oc/oc_mqtt/oc_mqtt_profile_v5\oc_mqtt_profile.c **** {
 1542              		.loc 1 533 1 is_stmt 1 view -0
 1543              		.cfi_startproc
 1544              		@ args = 0, pretend = 0, frame = 0
 1545              		@ frame_needed = 0, uses_anonymous_args = 0
 534:D:/fchai/work/i-cube/I-CUBE-HUAWEI/Middlewares/Third_Party/Huawei/iot_link/oc/oc_mqtt/oc_mqtt_profile_v5\oc_mqtt_profile.c ****     int ret = (int)en_oc_mqtt_err_parafmt;
 1546              		.loc 1 534 5 view .LVU461
 535:D:/fchai/work/i-cube/I-CUBE-HUAWEI/Middlewares/Third_Party/Huawei/iot_link/oc/oc_mqtt/oc_mqtt_profile_v5\oc_mqtt_profile.c ****     char *topic;
 1547              		.loc 1 535 5 view .LVU462
 536:D:/fchai/work/i-cube/I-CUBE-HUAWEI/Middlewares/Third_Party/Huawei/iot_link/oc/oc_mqtt/oc_mqtt_profile_v5\oc_mqtt_profile.c ****     char *msg;
 1548              		.loc 1 536 5 view .LVU463
 537:D:/fchai/work/i-cube/I-CUBE-HUAWEI/Middlewares/Third_Party/Huawei/iot_link/oc/oc_mqtt/oc_mqtt_profile_v5\oc_mqtt_profile.c **** 
 538:D:/fchai/work/i-cube/I-CUBE-HUAWEI/Middlewares/Third_Party/Huawei/iot_link/oc/oc_mqtt/oc_mqtt_profile_v5\oc_mqtt_profile.c ****     if(NULL == deviceid){
 1549              		.loc 1 538 5 view .LVU464
 533:D:/fchai/work/i-cube/I-CUBE-HUAWEI/Middlewares/Third_Party/Huawei/iot_link/oc/oc_mqtt/oc_mqtt_profile_v5\oc_mqtt_profile.c ****     int ret = (int)en_oc_mqtt_err_parafmt;
 1550              		.loc 1 533 1 is_stmt 0 view .LVU465
 1551 0000 70B5     		push	{r4, r5, r6, lr}
 1552              	.LCFI20:
 1553              		.cfi_def_cfa_offset 16
 1554              		.cfi_offset 4, -16
 1555              		.cfi_offset 5, -12
 1556              		.cfi_offset 6, -8
 1557              		.cfi_offset 14, -4
 533:D:/fchai/work/i-cube/I-CUBE-HUAWEI/Middlewares/Third_Party/Huawei/iot_link/oc/oc_mqtt/oc_mqtt_profile_v5\oc_mqtt_profile.c ****     int ret = (int)en_oc_mqtt_err_parafmt;
 1558              		.loc 1 533 1 view .LVU466
 1559 0002 0C46     		mov	r4, r1
 1560              		.loc 1 538 7 view .LVU467
 1561 0004 10B3     		cbz	r0, .L167
 1562 0006 0146     		mov	r1, r0
 1563              	.LVL158:
 1564              	.L157:
 539:D:/fchai/work/i-cube/I-CUBE-HUAWEI/Middlewares/Third_Party/Huawei/iot_link/oc/oc_mqtt/oc_mqtt_profile_v5\oc_mqtt_profile.c ****         if(NULL == s_oc_mqtt_profile_cb.device_id){
 540:D:/fchai/work/i-cube/I-CUBE-HUAWEI/Middlewares/Third_Party/Huawei/iot_link/oc/oc_mqtt/oc_mqtt_profile_v5\oc_mqtt_profile.c ****             return ret;
 541:D:/fchai/work/i-cube/I-CUBE-HUAWEI/Middlewares/Third_Party/Huawei/iot_link/oc/oc_mqtt/oc_mqtt_profile_v5\oc_mqtt_profile.c ****         }
 542:D:/fchai/work/i-cube/I-CUBE-HUAWEI/Middlewares/Third_Party/Huawei/iot_link/oc/oc_mqtt/oc_mqtt_profile_v5\oc_mqtt_profile.c ****         else{
 543:D:/fchai/work/i-cube/I-CUBE-HUAWEI/Middlewares/Third_Party/Huawei/iot_link/oc/oc_mqtt/oc_mqtt_profile_v5\oc_mqtt_profile.c ****             deviceid = s_oc_mqtt_profile_cb.device_id;
 544:D:/fchai/work/i-cube/I-CUBE-HUAWEI/Middlewares/Third_Party/Huawei/iot_link/oc/oc_mqtt/oc_mqtt_profile_v5\oc_mqtt_profile.c ****         }
 545:D:/fchai/work/i-cube/I-CUBE-HUAWEI/Middlewares/Third_Party/Huawei/iot_link/oc/oc_mqtt/oc_mqtt_profile_v5\oc_mqtt_profile.c ****     }
 546:D:/fchai/work/i-cube/I-CUBE-HUAWEI/Middlewares/Third_Party/Huawei/iot_link/oc/oc_mqtt/oc_mqtt_profile_v5\oc_mqtt_profile.c **** 
 547:D:/fchai/work/i-cube/I-CUBE-HUAWEI/Middlewares/Third_Party/Huawei/iot_link/oc/oc_mqtt/oc_mqtt_profile_v5\oc_mqtt_profile.c ****     if((event == NULL) || (event->event_type == NULL)){
 1565              		.loc 1 547 5 is_stmt 1 view .LVU468
 1566              		.loc 1 547 7 is_stmt 0 view .LVU469
 1567 0008 24B3     		cbz	r4, .L162
 1568              		.loc 1 547 24 discriminator 1 view .LVU470
 1569 000a A368     		ldr	r3, [r4, #8]
 1570 000c 13B3     		cbz	r3, .L162
 548:D:/fchai/work/i-cube/I-CUBE-HUAWEI/Middlewares/Third_Party/Huawei/iot_link/oc/oc_mqtt/oc_mqtt_profile_v5\oc_mqtt_profile.c ****         return ret;
 549:D:/fchai/work/i-cube/I-CUBE-HUAWEI/Middlewares/Third_Party/Huawei/iot_link/oc/oc_mqtt/oc_mqtt_profile_v5\oc_mqtt_profile.c ****     }
 550:D:/fchai/work/i-cube/I-CUBE-HUAWEI/Middlewares/Third_Party/Huawei/iot_link/oc/oc_mqtt/oc_mqtt_profile_v5\oc_mqtt_profile.c **** 
ARM GAS  T:\msys\tmp\ccMJI2cA.s 			page 42


 551:D:/fchai/work/i-cube/I-CUBE-HUAWEI/Middlewares/Third_Party/Huawei/iot_link/oc/oc_mqtt/oc_mqtt_profile_v5\oc_mqtt_profile.c ****     topic = topic_make(CN_OC_MQTT_PROFILE_EVENT_TOPICFMT, deviceid,NULL);
 1571              		.loc 1 551 5 is_stmt 1 view .LVU471
 1572              		.loc 1 551 13 is_stmt 0 view .LVU472
 1573 000e 0022     		movs	r2, #0
 1574 0010 1248     		ldr	r0, .L168
 1575 0012 FFF7FEFF 		bl	topic_make
 1576              	.LVL159:
 1577              		.loc 1 551 13 view .LVU473
 1578 0016 0346     		mov	r3, r0
 552:D:/fchai/work/i-cube/I-CUBE-HUAWEI/Middlewares/Third_Party/Huawei/iot_link/oc/oc_mqtt/oc_mqtt_profile_v5\oc_mqtt_profile.c ****     msg = oc_mqtt_profile_package_event(event);
 1579              		.loc 1 552 11 view .LVU474
 1580 0018 2046     		mov	r0, r4
 551:D:/fchai/work/i-cube/I-CUBE-HUAWEI/Middlewares/Third_Party/Huawei/iot_link/oc/oc_mqtt/oc_mqtt_profile_v5\oc_mqtt_profile.c ****     msg = oc_mqtt_profile_package_event(event);
 1581              		.loc 1 551 13 view .LVU475
 1582 001a 1C46     		mov	r4, r3
 1583              	.LVL160:
 1584              		.loc 1 552 5 is_stmt 1 view .LVU476
 1585              		.loc 1 552 11 is_stmt 0 view .LVU477
 1586 001c FFF7FEFF 		bl	oc_mqtt_profile_package_event
 1587              	.LVL161:
 1588              		.loc 1 552 11 view .LVU478
 1589 0020 0546     		mov	r5, r0
 1590              	.LVL162:
 553:D:/fchai/work/i-cube/I-CUBE-HUAWEI/Middlewares/Third_Party/Huawei/iot_link/oc/oc_mqtt/oc_mqtt_profile_v5\oc_mqtt_profile.c **** 
 554:D:/fchai/work/i-cube/I-CUBE-HUAWEI/Middlewares/Third_Party/Huawei/iot_link/oc/oc_mqtt/oc_mqtt_profile_v5\oc_mqtt_profile.c ****     if((topic != NULL) && (msg != NULL)){
 1591              		.loc 1 554 5 is_stmt 1 view .LVU479
 1592              		.loc 1 554 7 is_stmt 0 view .LVU480
 1593 0022 8CB1     		cbz	r4, .L164
 1594              		.loc 1 554 24 discriminator 1 view .LVU481
 1595 0024 80B1     		cbz	r0, .L164
 555:D:/fchai/work/i-cube/I-CUBE-HUAWEI/Middlewares/Third_Party/Huawei/iot_link/oc/oc_mqtt/oc_mqtt_profile_v5\oc_mqtt_profile.c ****         ret = oc_mqtt_publish(topic,(uint8_t *)msg,strlen(msg),(int)en_mqtt_al_qos_1);
 1596              		.loc 1 555 9 is_stmt 1 view .LVU482
 1597              		.loc 1 555 52 is_stmt 0 view .LVU483
 1598 0026 FFF7FEFF 		bl	strlen
 1599              	.LVL163:
 1600              		.loc 1 555 15 view .LVU484
 1601 002a 0123     		movs	r3, #1
 1602              		.loc 1 555 52 view .LVU485
 1603 002c 0246     		mov	r2, r0
 1604              		.loc 1 555 15 view .LVU486
 1605 002e 2946     		mov	r1, r5
 1606 0030 2046     		mov	r0, r4
 1607 0032 FFF7FEFF 		bl	oc_mqtt_publish
 1608              	.LVL164:
 1609 0036 0646     		mov	r6, r0
 1610              	.LVL165:
 1611              	.L159:
 556:D:/fchai/work/i-cube/I-CUBE-HUAWEI/Middlewares/Third_Party/Huawei/iot_link/oc/oc_mqtt/oc_mqtt_profile_v5\oc_mqtt_profile.c ****     }
 557:D:/fchai/work/i-cube/I-CUBE-HUAWEI/Middlewares/Third_Party/Huawei/iot_link/oc/oc_mqtt/oc_mqtt_profile_v5\oc_mqtt_profile.c ****     else{
 558:D:/fchai/work/i-cube/I-CUBE-HUAWEI/Middlewares/Third_Party/Huawei/iot_link/oc/oc_mqtt/oc_mqtt_profile_v5\oc_mqtt_profile.c ****         ret = (int)en_oc_mqtt_err_sysmem;
 559:D:/fchai/work/i-cube/I-CUBE-HUAWEI/Middlewares/Third_Party/Huawei/iot_link/oc/oc_mqtt/oc_mqtt_profile_v5\oc_mqtt_profile.c ****     }
 560:D:/fchai/work/i-cube/I-CUBE-HUAWEI/Middlewares/Third_Party/Huawei/iot_link/oc/oc_mqtt/oc_mqtt_profile_v5\oc_mqtt_profile.c **** 
 561:D:/fchai/work/i-cube/I-CUBE-HUAWEI/Middlewares/Third_Party/Huawei/iot_link/oc/oc_mqtt/oc_mqtt_profile_v5\oc_mqtt_profile.c ****     osal_free(topic);
 1612              		.loc 1 561 5 is_stmt 1 view .LVU487
 1613 0038 2046     		mov	r0, r4
 1614 003a FFF7FEFF 		bl	osal_free
 1615              	.LVL166:
ARM GAS  T:\msys\tmp\ccMJI2cA.s 			page 43


 562:D:/fchai/work/i-cube/I-CUBE-HUAWEI/Middlewares/Third_Party/Huawei/iot_link/oc/oc_mqtt/oc_mqtt_profile_v5\oc_mqtt_profile.c ****     osal_free(msg);
 1616              		.loc 1 562 5 view .LVU488
 1617 003e 2846     		mov	r0, r5
 1618 0040 FFF7FEFF 		bl	osal_free
 1619              	.LVL167:
 563:D:/fchai/work/i-cube/I-CUBE-HUAWEI/Middlewares/Third_Party/Huawei/iot_link/oc/oc_mqtt/oc_mqtt_profile_v5\oc_mqtt_profile.c **** 
 564:D:/fchai/work/i-cube/I-CUBE-HUAWEI/Middlewares/Third_Party/Huawei/iot_link/oc/oc_mqtt/oc_mqtt_profile_v5\oc_mqtt_profile.c ****     return ret;
 1620              		.loc 1 564 5 view .LVU489
 565:D:/fchai/work/i-cube/I-CUBE-HUAWEI/Middlewares/Third_Party/Huawei/iot_link/oc/oc_mqtt/oc_mqtt_profile_v5\oc_mqtt_profile.c **** }
 1621              		.loc 1 565 1 is_stmt 0 view .LVU490
 1622 0044 3046     		mov	r0, r6
 1623 0046 70BD     		pop	{r4, r5, r6, pc}
 1624              	.LVL168:
 1625              	.L164:
 558:D:/fchai/work/i-cube/I-CUBE-HUAWEI/Middlewares/Third_Party/Huawei/iot_link/oc/oc_mqtt/oc_mqtt_profile_v5\oc_mqtt_profile.c ****     }
 1626              		.loc 1 558 13 view .LVU491
 1627 0048 0F26     		movs	r6, #15
 1628 004a F5E7     		b	.L159
 1629              	.LVL169:
 1630              	.L167:
 539:D:/fchai/work/i-cube/I-CUBE-HUAWEI/Middlewares/Third_Party/Huawei/iot_link/oc/oc_mqtt/oc_mqtt_profile_v5\oc_mqtt_profile.c ****             return ret;
 1631              		.loc 1 539 9 is_stmt 1 view .LVU492
 539:D:/fchai/work/i-cube/I-CUBE-HUAWEI/Middlewares/Third_Party/Huawei/iot_link/oc/oc_mqtt/oc_mqtt_profile_v5\oc_mqtt_profile.c ****             return ret;
 1632              		.loc 1 539 40 is_stmt 0 view .LVU493
 1633 004c 044B     		ldr	r3, .L168+4
 1634 004e 1968     		ldr	r1, [r3]
 1635              	.LVL170:
 539:D:/fchai/work/i-cube/I-CUBE-HUAWEI/Middlewares/Third_Party/Huawei/iot_link/oc/oc_mqtt/oc_mqtt_profile_v5\oc_mqtt_profile.c ****             return ret;
 1636              		.loc 1 539 11 view .LVU494
 1637 0050 0029     		cmp	r1, #0
 1638 0052 D9D1     		bne	.L157
 1639              	.LVL171:
 1640              	.L162:
 540:D:/fchai/work/i-cube/I-CUBE-HUAWEI/Middlewares/Third_Party/Huawei/iot_link/oc/oc_mqtt/oc_mqtt_profile_v5\oc_mqtt_profile.c ****         }
 1641              		.loc 1 540 20 view .LVU495
 1642 0054 0126     		movs	r6, #1
 1643              		.loc 1 565 1 view .LVU496
 1644 0056 3046     		mov	r0, r6
 1645 0058 70BD     		pop	{r4, r5, r6, pc}
 1646              	.LVL172:
 1647              	.L169:
 1648              		.loc 1 565 1 view .LVU497
 1649 005a 00BF     		.align	2
 1650              	.L168:
 1651 005c 00000000 		.word	.LC14
 1652 0060 00000000 		.word	.LANCHOR0
 1653              		.cfi_endproc
 1654              	.LFE14:
 1656              		.section	.bss.s_oc_mqtt_profile_cb,"aw",%nobits
 1657              		.align	2
 1658              		.set	.LANCHOR0,. + 0
 1661              	s_oc_mqtt_profile_cb:
 1662 0000 00000000 		.space	8
 1662      00000000 
 1663              		.text
 1664              	.Letext0:
 1665              		.file 2 "t:\\msys\\3rd\\gcc-arm-none-eabi-9-2020-q2-update-win32\\lib\\gcc\\arm-none-eabi\\9.3.1\\
ARM GAS  T:\msys\tmp\ccMJI2cA.s 			page 44


 1666              		.file 3 "t:\\msys\\3rd\\gcc-arm-none-eabi-9-2020-q2-update-win32\\arm-none-eabi\\include\\machine\
 1667              		.file 4 "t:\\msys\\3rd\\gcc-arm-none-eabi-9-2020-q2-update-win32\\arm-none-eabi\\include\\sys\\_ty
 1668              		.file 5 "t:\\msys\\3rd\\gcc-arm-none-eabi-9-2020-q2-update-win32\\arm-none-eabi\\include\\sys\\ree
 1669              		.file 6 "t:\\msys\\3rd\\gcc-arm-none-eabi-9-2020-q2-update-win32\\arm-none-eabi\\include\\sys\\loc
 1670              		.file 7 "t:\\msys\\3rd\\gcc-arm-none-eabi-9-2020-q2-update-win32\\arm-none-eabi\\include\\sys\\_st
 1671              		.file 8 "D:/fchai/work/i-cube/I-CUBE-HUAWEI/Middlewares/Third_Party/Huawei/iot_link/inc/dtls_al.h"
 1672              		.file 9 "D:/fchai/work/i-cube/I-CUBE-HUAWEI/Middlewares/Third_Party/Huawei/iot_link/inc/mqtt_al.h"
 1673              		.file 10 "D:/fchai/work/i-cube/I-CUBE-HUAWEI/Middlewares/Third_Party/Huawei/iot_link/oc/oc_mqtt/oc
 1674              		.file 11 "D:/fchai/work/i-cube/I-CUBE-HUAWEI/Middlewares/Third_Party/Huawei/iot_link/oc/oc_mqtt/oc
 1675              		.file 12 "D:/fchai/work/i-cube/I-CUBE-HUAWEI/Middlewares/Third_Party/Huawei/iot_link/oc/oc_mqtt/oc
 1676              		.file 13 "t:\\msys\\3rd\\gcc-arm-none-eabi-9-2020-q2-update-win32\\arm-none-eabi\\include\\string.
 1677              		.file 14 "D:/fchai/work/i-cube/I-CUBE-HUAWEI/Middlewares/Third_Party/Huawei/iot_link/os/osal/osal.
 1678              		.file 15 "t:\\msys\\3rd\\gcc-arm-none-eabi-9-2020-q2-update-win32\\arm-none-eabi\\include\\stdio.h
 1679              		.file 16 "D:/fchai/work/i-cube/I-CUBE-HUAWEI/Middlewares/Third_Party/Huawei/iot_link/link_misc/lin
 1680              		.file 17 "<built-in>"
ARM GAS  T:\msys\tmp\ccMJI2cA.s 			page 45

