ARM GAS  T:\msys\tmp\ccQ0df0t.s 			page 1


   1              		.cpu cortex-m4
   2              		.eabi_attribute 27, 1
   3              		.eabi_attribute 28, 1
   4              		.eabi_attribute 20, 1
   5              		.eabi_attribute 21, 1
   6              		.eabi_attribute 23, 3
   7              		.eabi_attribute 24, 1
   8              		.eabi_attribute 25, 1
   9              		.eabi_attribute 26, 1
  10              		.eabi_attribute 30, 2
  11              		.eabi_attribute 34, 1
  12              		.eabi_attribute 18, 4
  13              		.file	"mqtt_al.c"
  14              		.text
  15              	.Ltext0:
  16              		.cfi_sections	.debug_frame
  17              		.section	.text.mqtt_al_install,"ax",%progbits
  18              		.align	1
  19              		.p2align 2,,3
  20              		.global	mqtt_al_install
  21              		.arch armv7e-m
  22              		.syntax unified
  23              		.thumb
  24              		.thumb_func
  25              		.fpu fpv4-sp-d16
  27              	mqtt_al_install:
  28              	.LVL0:
  29              	.LFB3:
  30              		.file 1 "D:/fchai/work/i-cube/I-CUBE-HUAWEI/Middlewares/Third_Party/Huawei/iot_link/network/mqtt/m
   1:D:/fchai/work/i-cube/I-CUBE-HUAWEI/Middlewares/Third_Party/Huawei/iot_link/network/mqtt/mqtt_al\mqtt_al.c **** /*----------------------------------------------------------------------------
   2:D:/fchai/work/i-cube/I-CUBE-HUAWEI/Middlewares/Third_Party/Huawei/iot_link/network/mqtt/mqtt_al\mqtt_al.c ****  * Copyright (c) <2018>, <Huawei Technologies Co., Ltd>
   3:D:/fchai/work/i-cube/I-CUBE-HUAWEI/Middlewares/Third_Party/Huawei/iot_link/network/mqtt/mqtt_al\mqtt_al.c ****  * All rights reserved.
   4:D:/fchai/work/i-cube/I-CUBE-HUAWEI/Middlewares/Third_Party/Huawei/iot_link/network/mqtt/mqtt_al\mqtt_al.c ****  * Redistributopsn and use in source and binary forms, with or without modificatopsn,
   5:D:/fchai/work/i-cube/I-CUBE-HUAWEI/Middlewares/Third_Party/Huawei/iot_link/network/mqtt/mqtt_al\mqtt_al.c ****  * are permitted provided that the following conditopsns are met:
   6:D:/fchai/work/i-cube/I-CUBE-HUAWEI/Middlewares/Third_Party/Huawei/iot_link/network/mqtt/mqtt_al\mqtt_al.c ****  * 1. Redistributopsns of source code must retain the above copyright notice, this list of
   7:D:/fchai/work/i-cube/I-CUBE-HUAWEI/Middlewares/Third_Party/Huawei/iot_link/network/mqtt/mqtt_al\mqtt_al.c ****  * conditopsns and the following disclaimer.
   8:D:/fchai/work/i-cube/I-CUBE-HUAWEI/Middlewares/Third_Party/Huawei/iot_link/network/mqtt/mqtt_al\mqtt_al.c ****  * 2. Redistributopsns in binary form must reproduce the above copyright notice, this list
   9:D:/fchai/work/i-cube/I-CUBE-HUAWEI/Middlewares/Third_Party/Huawei/iot_link/network/mqtt/mqtt_al\mqtt_al.c ****  * of conditopsns and the following disclaimer in the documentatopsn and/or other materials
  10:D:/fchai/work/i-cube/I-CUBE-HUAWEI/Middlewares/Third_Party/Huawei/iot_link/network/mqtt/mqtt_al\mqtt_al.c ****  * provided with the distributopsn.
  11:D:/fchai/work/i-cube/I-CUBE-HUAWEI/Middlewares/Third_Party/Huawei/iot_link/network/mqtt/mqtt_al\mqtt_al.c ****  * 3. Neither the name of the copyright holder nor the names of its contributors may be used
  12:D:/fchai/work/i-cube/I-CUBE-HUAWEI/Middlewares/Third_Party/Huawei/iot_link/network/mqtt/mqtt_al\mqtt_al.c ****  * to endorse or promote products derived from this software without specific propsr written
  13:D:/fchai/work/i-cube/I-CUBE-HUAWEI/Middlewares/Third_Party/Huawei/iot_link/network/mqtt/mqtt_al\mqtt_al.c ****  * permissopsn.
  14:D:/fchai/work/i-cube/I-CUBE-HUAWEI/Middlewares/Third_Party/Huawei/iot_link/network/mqtt/mqtt_al\mqtt_al.c ****  * THIS SOFTWARE IS PROVIDED BY THE COPYRIGHT HOLDERS AND CONTRIBUTORS
  15:D:/fchai/work/i-cube/I-CUBE-HUAWEI/Middlewares/Third_Party/Huawei/iot_link/network/mqtt/mqtt_al\mqtt_al.c ****  * "AS IS" AND ANY EXPRESS OR IMPLIED WARRANTIES, INCLUDING, BUT NOT LIMITED TO,
  16:D:/fchai/work/i-cube/I-CUBE-HUAWEI/Middlewares/Third_Party/Huawei/iot_link/network/mqtt/mqtt_al\mqtt_al.c ****  * THE IMPLIED WARRANTIES OF MERCHANTABILITY AND FITNESS FOR A PARTICULAR
  17:D:/fchai/work/i-cube/I-CUBE-HUAWEI/Middlewares/Third_Party/Huawei/iot_link/network/mqtt/mqtt_al\mqtt_al.c ****  * PURPOSE ARE DISCLAIMED. IN NO EVENT SHALL THE COPYRIGHT HOLDER OR
  18:D:/fchai/work/i-cube/I-CUBE-HUAWEI/Middlewares/Third_Party/Huawei/iot_link/network/mqtt/mqtt_al\mqtt_al.c ****  * CONTRIBUTORS BE LIABLE FOR ANY DIRECT, INDIRECT, INCIDENTAL, SPECIAL,
  19:D:/fchai/work/i-cube/I-CUBE-HUAWEI/Middlewares/Third_Party/Huawei/iot_link/network/mqtt/mqtt_al\mqtt_al.c ****  * EXEMPLARY, OR CONSEQUENTIAL DAMAGES (INCLUDING, BUT NOT LIMITED TO,
  20:D:/fchai/work/i-cube/I-CUBE-HUAWEI/Middlewares/Third_Party/Huawei/iot_link/network/mqtt/mqtt_al\mqtt_al.c ****  * PROCUREMENT OF SUBSTITUTE GOODS OR SERVICES; LOSS OF USE, DATA, OR PROFITS;
  21:D:/fchai/work/i-cube/I-CUBE-HUAWEI/Middlewares/Third_Party/Huawei/iot_link/network/mqtt/mqtt_al\mqtt_al.c ****  * OR BUSINESS INTERRUPTopsN) HOWEVER CAUSED AND ON ANY THEORY OF LIABILITY,
  22:D:/fchai/work/i-cube/I-CUBE-HUAWEI/Middlewares/Third_Party/Huawei/iot_link/network/mqtt/mqtt_al\mqtt_al.c ****  * WHETHER IN CONTRACT, STRICT LIABILITY, OR TORT (INCLUDING NEGLIGENCE OR
  23:D:/fchai/work/i-cube/I-CUBE-HUAWEI/Middlewares/Third_Party/Huawei/iot_link/network/mqtt/mqtt_al\mqtt_al.c ****  * OTHERWISE) ARISING IN ANY WAY OUT OF THE USE OF THIS SOFTWARE, EVEN IF
  24:D:/fchai/work/i-cube/I-CUBE-HUAWEI/Middlewares/Third_Party/Huawei/iot_link/network/mqtt/mqtt_al\mqtt_al.c ****  * ADVISED OF THE POSSIBILITY OF SUCH DAMAGE.
  25:D:/fchai/work/i-cube/I-CUBE-HUAWEI/Middlewares/Third_Party/Huawei/iot_link/network/mqtt/mqtt_al\mqtt_al.c ****  *---------------------------------------------------------------------------*/
  26:D:/fchai/work/i-cube/I-CUBE-HUAWEI/Middlewares/Third_Party/Huawei/iot_link/network/mqtt/mqtt_al\mqtt_al.c **** /*----------------------------------------------------------------------------
  27:D:/fchai/work/i-cube/I-CUBE-HUAWEI/Middlewares/Third_Party/Huawei/iot_link/network/mqtt/mqtt_al\mqtt_al.c ****  * Notice of Export Control Law
  28:D:/fchai/work/i-cube/I-CUBE-HUAWEI/Middlewares/Third_Party/Huawei/iot_link/network/mqtt/mqtt_al\mqtt_al.c ****  * ===============================================
ARM GAS  T:\msys\tmp\ccQ0df0t.s 			page 2


  29:D:/fchai/work/i-cube/I-CUBE-HUAWEI/Middlewares/Third_Party/Huawei/iot_link/network/mqtt/mqtt_al\mqtt_al.c ****  * Huawei LiteOS may be subject to applicable export control laws and regulatopsns, which might
  30:D:/fchai/work/i-cube/I-CUBE-HUAWEI/Middlewares/Third_Party/Huawei/iot_link/network/mqtt/mqtt_al\mqtt_al.c ****  * include those applicable to Huawei LiteOS of U.S. and the country in which you are located.
  31:D:/fchai/work/i-cube/I-CUBE-HUAWEI/Middlewares/Third_Party/Huawei/iot_link/network/mqtt/mqtt_al\mqtt_al.c ****  * Import, export and usage of Huawei LiteOS in any manner by you shall be in compliance with such
  32:D:/fchai/work/i-cube/I-CUBE-HUAWEI/Middlewares/Third_Party/Huawei/iot_link/network/mqtt/mqtt_al\mqtt_al.c ****  * applicable export control laws and regulatopsns.
  33:D:/fchai/work/i-cube/I-CUBE-HUAWEI/Middlewares/Third_Party/Huawei/iot_link/network/mqtt/mqtt_al\mqtt_al.c ****  *---------------------------------------------------------------------------*/
  34:D:/fchai/work/i-cube/I-CUBE-HUAWEI/Middlewares/Third_Party/Huawei/iot_link/network/mqtt/mqtt_al\mqtt_al.c **** 
  35:D:/fchai/work/i-cube/I-CUBE-HUAWEI/Middlewares/Third_Party/Huawei/iot_link/network/mqtt/mqtt_al\mqtt_al.c **** #include <stdint.h>
  36:D:/fchai/work/i-cube/I-CUBE-HUAWEI/Middlewares/Third_Party/Huawei/iot_link/network/mqtt/mqtt_al\mqtt_al.c **** #include <stddef.h>
  37:D:/fchai/work/i-cube/I-CUBE-HUAWEI/Middlewares/Third_Party/Huawei/iot_link/network/mqtt/mqtt_al\mqtt_al.c **** #include <link_log.h>
  38:D:/fchai/work/i-cube/I-CUBE-HUAWEI/Middlewares/Third_Party/Huawei/iot_link/network/mqtt/mqtt_al\mqtt_al.c **** 
  39:D:/fchai/work/i-cube/I-CUBE-HUAWEI/Middlewares/Third_Party/Huawei/iot_link/network/mqtt/mqtt_al\mqtt_al.c **** #ifdef __cplusplus
  40:D:/fchai/work/i-cube/I-CUBE-HUAWEI/Middlewares/Third_Party/Huawei/iot_link/network/mqtt/mqtt_al\mqtt_al.c **** #if __cplusplus
  41:D:/fchai/work/i-cube/I-CUBE-HUAWEI/Middlewares/Third_Party/Huawei/iot_link/network/mqtt/mqtt_al\mqtt_al.c **** extern "C" {
  42:D:/fchai/work/i-cube/I-CUBE-HUAWEI/Middlewares/Third_Party/Huawei/iot_link/network/mqtt/mqtt_al\mqtt_al.c **** #endif /* __cplusplus */
  43:D:/fchai/work/i-cube/I-CUBE-HUAWEI/Middlewares/Third_Party/Huawei/iot_link/network/mqtt/mqtt_al\mqtt_al.c **** #endif /* __cplusplus */
  44:D:/fchai/work/i-cube/I-CUBE-HUAWEI/Middlewares/Third_Party/Huawei/iot_link/network/mqtt/mqtt_al\mqtt_al.c **** 
  45:D:/fchai/work/i-cube/I-CUBE-HUAWEI/Middlewares/Third_Party/Huawei/iot_link/network/mqtt/mqtt_al\mqtt_al.c **** 
  46:D:/fchai/work/i-cube/I-CUBE-HUAWEI/Middlewares/Third_Party/Huawei/iot_link/network/mqtt/mqtt_al\mqtt_al.c **** #include <mqtt_al.h>
  47:D:/fchai/work/i-cube/I-CUBE-HUAWEI/Middlewares/Third_Party/Huawei/iot_link/network/mqtt/mqtt_al\mqtt_al.c **** 
  48:D:/fchai/work/i-cube/I-CUBE-HUAWEI/Middlewares/Third_Party/Huawei/iot_link/network/mqtt/mqtt_al\mqtt_al.c **** 
  49:D:/fchai/work/i-cube/I-CUBE-HUAWEI/Middlewares/Third_Party/Huawei/iot_link/network/mqtt/mqtt_al\mqtt_al.c **** typedef struct
  50:D:/fchai/work/i-cube/I-CUBE-HUAWEI/Middlewares/Third_Party/Huawei/iot_link/network/mqtt/mqtt_al\mqtt_al.c **** {
  51:D:/fchai/work/i-cube/I-CUBE-HUAWEI/Middlewares/Third_Party/Huawei/iot_link/network/mqtt/mqtt_al\mqtt_al.c ****     mqtt_al_op_t  *ops;
  52:D:/fchai/work/i-cube/I-CUBE-HUAWEI/Middlewares/Third_Party/Huawei/iot_link/network/mqtt/mqtt_al\mqtt_al.c ****     mqtt_al_op_t   mem;
  53:D:/fchai/work/i-cube/I-CUBE-HUAWEI/Middlewares/Third_Party/Huawei/iot_link/network/mqtt/mqtt_al\mqtt_al.c **** }mqtt_al_op_cb_t;
  54:D:/fchai/work/i-cube/I-CUBE-HUAWEI/Middlewares/Third_Party/Huawei/iot_link/network/mqtt/mqtt_al\mqtt_al.c **** 
  55:D:/fchai/work/i-cube/I-CUBE-HUAWEI/Middlewares/Third_Party/Huawei/iot_link/network/mqtt/mqtt_al\mqtt_al.c **** static mqtt_al_op_cb_t   s_mqtt_al_op_cb;
  56:D:/fchai/work/i-cube/I-CUBE-HUAWEI/Middlewares/Third_Party/Huawei/iot_link/network/mqtt/mqtt_al\mqtt_al.c **** 
  57:D:/fchai/work/i-cube/I-CUBE-HUAWEI/Middlewares/Third_Party/Huawei/iot_link/network/mqtt/mqtt_al\mqtt_al.c **** 
  58:D:/fchai/work/i-cube/I-CUBE-HUAWEI/Middlewares/Third_Party/Huawei/iot_link/network/mqtt/mqtt_al\mqtt_al.c **** /////////////////CREATE THE API FOR THE MQTT LIB////////////////////////////////
  59:D:/fchai/work/i-cube/I-CUBE-HUAWEI/Middlewares/Third_Party/Huawei/iot_link/network/mqtt/mqtt_al\mqtt_al.c **** int mqtt_al_install(mqtt_al_op_t *op)
  60:D:/fchai/work/i-cube/I-CUBE-HUAWEI/Middlewares/Third_Party/Huawei/iot_link/network/mqtt/mqtt_al\mqtt_al.c **** {
  31              		.loc 1 60 1 view -0
  32              		.cfi_startproc
  33              		@ args = 0, pretend = 0, frame = 0
  34              		@ frame_needed = 0, uses_anonymous_args = 0
  35              		@ link register save eliminated.
  61:D:/fchai/work/i-cube/I-CUBE-HUAWEI/Middlewares/Third_Party/Huawei/iot_link/network/mqtt/mqtt_al\mqtt_al.c ****     int ret = -1;
  36              		.loc 1 61 5 view .LVU1
  62:D:/fchai/work/i-cube/I-CUBE-HUAWEI/Middlewares/Third_Party/Huawei/iot_link/network/mqtt/mqtt_al\mqtt_al.c ****     if((NULL != op)&&(NULL == s_mqtt_al_op_cb.ops))
  37              		.loc 1 62 5 view .LVU2
  60:D:/fchai/work/i-cube/I-CUBE-HUAWEI/Middlewares/Third_Party/Huawei/iot_link/network/mqtt/mqtt_al\mqtt_al.c ****     int ret = -1;
  38              		.loc 1 60 1 is_stmt 0 view .LVU3
  39 0000 F0B4     		push	{r4, r5, r6, r7}
  40              	.LCFI0:
  41              		.cfi_def_cfa_offset 16
  42              		.cfi_offset 4, -16
  43              		.cfi_offset 5, -12
  44              		.cfi_offset 6, -8
  45              		.cfi_offset 7, -4
  46              		.loc 1 62 7 view .LVU4
  47 0002 80B1     		cbz	r0, .L4
  48              		.loc 1 62 46 discriminator 1 view .LVU5
  49 0004 094F     		ldr	r7, .L7
  50              		.loc 1 62 20 discriminator 1 view .LVU6
  51 0006 3E68     		ldr	r6, [r7]
  52 0008 6EB9     		cbnz	r6, .L4
ARM GAS  T:\msys\tmp\ccQ0df0t.s 			page 3


  53 000a 0446     		mov	r4, r0
  63:D:/fchai/work/i-cube/I-CUBE-HUAWEI/Middlewares/Third_Party/Huawei/iot_link/network/mqtt/mqtt_al\mqtt_al.c ****     {
  64:D:/fchai/work/i-cube/I-CUBE-HUAWEI/Middlewares/Third_Party/Huawei/iot_link/network/mqtt/mqtt_al\mqtt_al.c ****         s_mqtt_al_op_cb.mem  = *op;
  54              		.loc 1 64 9 is_stmt 1 view .LVU7
  55              		.loc 1 64 30 is_stmt 0 view .LVU8
  56 000c 0FCC     		ldmia	r4!, {r0, r1, r2, r3}
  57              	.LVL1:
  58              		.loc 1 64 30 view .LVU9
  59 000e 3D1D     		adds	r5, r7, #4
  60 0010 0FC5     		stmia	r5!, {r0, r1, r2, r3}
  61 0012 94E80300 		ldm	r4, {r0, r1}
  62 0016 85E80300 		stm	r5, {r0, r1}
  65:D:/fchai/work/i-cube/I-CUBE-HUAWEI/Middlewares/Third_Party/Huawei/iot_link/network/mqtt/mqtt_al\mqtt_al.c ****         s_mqtt_al_op_cb.ops = &s_mqtt_al_op_cb.mem;
  63              		.loc 1 65 9 is_stmt 1 view .LVU10
  64              		.loc 1 65 29 is_stmt 0 view .LVU11
  65 001a A5F11003 		sub	r3, r5, #16
  66 001e 3B60     		str	r3, [r7]
  66:D:/fchai/work/i-cube/I-CUBE-HUAWEI/Middlewares/Third_Party/Huawei/iot_link/network/mqtt/mqtt_al\mqtt_al.c **** 
  67:D:/fchai/work/i-cube/I-CUBE-HUAWEI/Middlewares/Third_Party/Huawei/iot_link/network/mqtt/mqtt_al\mqtt_al.c ****         ret = 0;
  67              		.loc 1 67 9 is_stmt 1 view .LVU12
  68              	.LVL2:
  69              	.L1:
  68:D:/fchai/work/i-cube/I-CUBE-HUAWEI/Middlewares/Third_Party/Huawei/iot_link/network/mqtt/mqtt_al\mqtt_al.c ****     }
  69:D:/fchai/work/i-cube/I-CUBE-HUAWEI/Middlewares/Third_Party/Huawei/iot_link/network/mqtt/mqtt_al\mqtt_al.c **** 
  70:D:/fchai/work/i-cube/I-CUBE-HUAWEI/Middlewares/Third_Party/Huawei/iot_link/network/mqtt/mqtt_al\mqtt_al.c ****     return ret;
  71:D:/fchai/work/i-cube/I-CUBE-HUAWEI/Middlewares/Third_Party/Huawei/iot_link/network/mqtt/mqtt_al\mqtt_al.c **** }
  70              		.loc 1 71 1 is_stmt 0 view .LVU13
  71 0020 3046     		mov	r0, r6
  72 0022 F0BC     		pop	{r4, r5, r6, r7}
  73              	.LCFI1:
  74              		.cfi_remember_state
  75              		.cfi_restore 7
  76              		.cfi_restore 6
  77              		.cfi_restore 5
  78              		.cfi_restore 4
  79              		.cfi_def_cfa_offset 0
  80 0024 7047     		bx	lr
  81              	.LVL3:
  82              	.L4:
  83              	.LCFI2:
  84              		.cfi_restore_state
  61:D:/fchai/work/i-cube/I-CUBE-HUAWEI/Middlewares/Third_Party/Huawei/iot_link/network/mqtt/mqtt_al\mqtt_al.c ****     if((NULL != op)&&(NULL == s_mqtt_al_op_cb.ops))
  85              		.loc 1 61 9 view .LVU14
  86 0026 4FF0FF36 		mov	r6, #-1
  70:D:/fchai/work/i-cube/I-CUBE-HUAWEI/Middlewares/Third_Party/Huawei/iot_link/network/mqtt/mqtt_al\mqtt_al.c **** }
  87              		.loc 1 70 5 is_stmt 1 view .LVU15
  70:D:/fchai/work/i-cube/I-CUBE-HUAWEI/Middlewares/Third_Party/Huawei/iot_link/network/mqtt/mqtt_al\mqtt_al.c **** }
  88              		.loc 1 70 12 is_stmt 0 view .LVU16
  89 002a F9E7     		b	.L1
  90              	.L8:
  91              		.align	2
  92              	.L7:
  93 002c 00000000 		.word	.LANCHOR0
  94              		.cfi_endproc
  95              	.LFE3:
  97              		.section	.text.mqtt_al_uninstall,"ax",%progbits
  98              		.align	1
ARM GAS  T:\msys\tmp\ccQ0df0t.s 			page 4


  99              		.p2align 2,,3
 100              		.global	mqtt_al_uninstall
 101              		.syntax unified
 102              		.thumb
 103              		.thumb_func
 104              		.fpu fpv4-sp-d16
 106              	mqtt_al_uninstall:
 107              	.LFB4:
  72:D:/fchai/work/i-cube/I-CUBE-HUAWEI/Middlewares/Third_Party/Huawei/iot_link/network/mqtt/mqtt_al\mqtt_al.c **** 
  73:D:/fchai/work/i-cube/I-CUBE-HUAWEI/Middlewares/Third_Party/Huawei/iot_link/network/mqtt/mqtt_al\mqtt_al.c **** int mqtt_al_uninstall()
  74:D:/fchai/work/i-cube/I-CUBE-HUAWEI/Middlewares/Third_Party/Huawei/iot_link/network/mqtt/mqtt_al\mqtt_al.c **** {
 108              		.loc 1 74 1 is_stmt 1 view -0
 109              		.cfi_startproc
 110              		@ args = 0, pretend = 0, frame = 0
 111              		@ frame_needed = 0, uses_anonymous_args = 0
 112              		@ link register save eliminated.
  75:D:/fchai/work/i-cube/I-CUBE-HUAWEI/Middlewares/Third_Party/Huawei/iot_link/network/mqtt/mqtt_al\mqtt_al.c ****     int ret = -1;
 113              		.loc 1 75 5 view .LVU18
 114              	.LVL4:
  76:D:/fchai/work/i-cube/I-CUBE-HUAWEI/Middlewares/Third_Party/Huawei/iot_link/network/mqtt/mqtt_al\mqtt_al.c ****     if(NULL != s_mqtt_al_op_cb.ops)
 115              		.loc 1 76 5 view .LVU19
 116              		.loc 1 76 31 is_stmt 0 view .LVU20
 117 0000 044B     		ldr	r3, .L12
 118              		.loc 1 76 7 view .LVU21
 119 0002 1A68     		ldr	r2, [r3]
 120 0004 12B1     		cbz	r2, .L11
  77:D:/fchai/work/i-cube/I-CUBE-HUAWEI/Middlewares/Third_Party/Huawei/iot_link/network/mqtt/mqtt_al\mqtt_al.c ****     {
  78:D:/fchai/work/i-cube/I-CUBE-HUAWEI/Middlewares/Third_Party/Huawei/iot_link/network/mqtt/mqtt_al\mqtt_al.c ****         s_mqtt_al_op_cb.ops = NULL;
 121              		.loc 1 78 9 is_stmt 1 view .LVU22
 122              		.loc 1 78 29 is_stmt 0 view .LVU23
 123 0006 0020     		movs	r0, #0
 124 0008 1860     		str	r0, [r3]
  79:D:/fchai/work/i-cube/I-CUBE-HUAWEI/Middlewares/Third_Party/Huawei/iot_link/network/mqtt/mqtt_al\mqtt_al.c **** 
  80:D:/fchai/work/i-cube/I-CUBE-HUAWEI/Middlewares/Third_Party/Huawei/iot_link/network/mqtt/mqtt_al\mqtt_al.c ****         ret = 0;
 125              		.loc 1 80 9 is_stmt 1 view .LVU24
 126              	.LVL5:
 127              		.loc 1 80 9 is_stmt 0 view .LVU25
 128 000a 7047     		bx	lr
 129              	.LVL6:
 130              	.L11:
  75:D:/fchai/work/i-cube/I-CUBE-HUAWEI/Middlewares/Third_Party/Huawei/iot_link/network/mqtt/mqtt_al\mqtt_al.c ****     if(NULL != s_mqtt_al_op_cb.ops)
 131              		.loc 1 75 9 view .LVU26
 132 000c 4FF0FF30 		mov	r0, #-1
  81:D:/fchai/work/i-cube/I-CUBE-HUAWEI/Middlewares/Third_Party/Huawei/iot_link/network/mqtt/mqtt_al\mqtt_al.c ****     }
  82:D:/fchai/work/i-cube/I-CUBE-HUAWEI/Middlewares/Third_Party/Huawei/iot_link/network/mqtt/mqtt_al\mqtt_al.c **** 
  83:D:/fchai/work/i-cube/I-CUBE-HUAWEI/Middlewares/Third_Party/Huawei/iot_link/network/mqtt/mqtt_al\mqtt_al.c ****     return ret;
 133              		.loc 1 83 5 is_stmt 1 view .LVU27
  84:D:/fchai/work/i-cube/I-CUBE-HUAWEI/Middlewares/Third_Party/Huawei/iot_link/network/mqtt/mqtt_al\mqtt_al.c **** }
 134              		.loc 1 84 1 is_stmt 0 view .LVU28
 135 0010 7047     		bx	lr
 136              	.L13:
 137 0012 00BF     		.align	2
 138              	.L12:
 139 0014 00000000 		.word	.LANCHOR0
 140              		.cfi_endproc
 141              	.LFE4:
 143              		.section	.rodata.mqtt_imp_init.str1.4,"aMS",%progbits,1
ARM GAS  T:\msys\tmp\ccQ0df0t.s 			page 5


 144              		.align	2
 145              	.LC0:
 146 0000 5B25735D 		.ascii	"[%s][%u][%s] %s:###please implement mqtt by yoursel"
 146      5B25755D 
 146      5B25735D 
 146      2025733A 
 146      23232370 
 147 0033 66232323 		.ascii	"f####\015\012\000"
 147      230D0A00 
 148              		.section	.text.mqtt_imp_init,"ax",%progbits
 149              		.align	1
 150              		.p2align 2,,3
 151              		.weak	mqtt_imp_init
 152              		.syntax unified
 153              		.thumb
 154              		.thumb_func
 155              		.fpu fpv4-sp-d16
 157              	mqtt_imp_init:
 158              	.LFB5:
  85:D:/fchai/work/i-cube/I-CUBE-HUAWEI/Middlewares/Third_Party/Huawei/iot_link/network/mqtt/mqtt_al\mqtt_al.c **** 
  86:D:/fchai/work/i-cube/I-CUBE-HUAWEI/Middlewares/Third_Party/Huawei/iot_link/network/mqtt/mqtt_al\mqtt_al.c **** //////////////////////////CREATE THE API FOR THE MQTT APPLICATopsN///////////////
  87:D:/fchai/work/i-cube/I-CUBE-HUAWEI/Middlewares/Third_Party/Huawei/iot_link/network/mqtt/mqtt_al\mqtt_al.c **** 
  88:D:/fchai/work/i-cube/I-CUBE-HUAWEI/Middlewares/Third_Party/Huawei/iot_link/network/mqtt/mqtt_al\mqtt_al.c **** __attribute__((weak))  int mqtt_imp_init(void)
  89:D:/fchai/work/i-cube/I-CUBE-HUAWEI/Middlewares/Third_Party/Huawei/iot_link/network/mqtt/mqtt_al\mqtt_al.c **** {
 159              		.loc 1 89 1 is_stmt 1 view -0
 160              		.cfi_startproc
 161              		@ args = 0, pretend = 0, frame = 0
 162              		@ frame_needed = 0, uses_anonymous_args = 0
  90:D:/fchai/work/i-cube/I-CUBE-HUAWEI/Middlewares/Third_Party/Huawei/iot_link/network/mqtt/mqtt_al\mqtt_al.c ****     LINK_LOG_DEBUG("%s:###please implement mqtt by yourself####",__FUNCTION__);
 163              		.loc 1 90 5 view .LVU30
 164              		.loc 1 90 5 view .LVU31
  89:D:/fchai/work/i-cube/I-CUBE-HUAWEI/Middlewares/Third_Party/Huawei/iot_link/network/mqtt/mqtt_al\mqtt_al.c ****     LINK_LOG_DEBUG("%s:###please implement mqtt by yourself####",__FUNCTION__);
 165              		.loc 1 89 1 is_stmt 0 view .LVU32
 166 0000 10B5     		push	{r4, lr}
 167              	.LCFI3:
 168              		.cfi_def_cfa_offset 8
 169              		.cfi_offset 4, -8
 170              		.cfi_offset 14, -4
 171 0002 82B0     		sub	sp, sp, #8
 172              	.LCFI4:
 173              		.cfi_def_cfa_offset 16
 174              		.loc 1 90 5 view .LVU33
 175 0004 FFF7FEFF 		bl	link_log_level_get
 176              	.LVL7:
 177 0008 0128     		cmp	r0, #1
 178 000a 03D9     		bls	.L17
 179              		.loc 1 90 5 is_stmt 1 discriminator 3 view .LVU34
 180              		.loc 1 90 5 discriminator 3 view .LVU35
 181              		.loc 1 90 5 discriminator 3 view .LVU36
  91:D:/fchai/work/i-cube/I-CUBE-HUAWEI/Middlewares/Third_Party/Huawei/iot_link/network/mqtt/mqtt_al\mqtt_al.c ****     return -1;
 182              		.loc 1 91 5 discriminator 3 view .LVU37
  92:D:/fchai/work/i-cube/I-CUBE-HUAWEI/Middlewares/Third_Party/Huawei/iot_link/network/mqtt/mqtt_al\mqtt_al.c **** }
 183              		.loc 1 92 1 is_stmt 0 discriminator 3 view .LVU38
 184 000c 4FF0FF30 		mov	r0, #-1
 185 0010 02B0     		add	sp, sp, #8
 186              	.LCFI5:
 187              		.cfi_remember_state
ARM GAS  T:\msys\tmp\ccQ0df0t.s 			page 6


 188              		.cfi_def_cfa_offset 8
 189              		@ sp needed
 190 0012 10BD     		pop	{r4, pc}
 191              	.L17:
 192              	.LCFI6:
 193              		.cfi_restore_state
 194              	.LBB4:
 195              	.LBI4:
  88:D:/fchai/work/i-cube/I-CUBE-HUAWEI/Middlewares/Third_Party/Huawei/iot_link/network/mqtt/mqtt_al\mqtt_al.c **** {
 196              		.loc 1 88 28 is_stmt 1 view .LVU39
 197              	.LBB5:
  90:D:/fchai/work/i-cube/I-CUBE-HUAWEI/Middlewares/Third_Party/Huawei/iot_link/network/mqtt/mqtt_al\mqtt_al.c ****     return -1;
 198              		.loc 1 90 5 view .LVU40
  90:D:/fchai/work/i-cube/I-CUBE-HUAWEI/Middlewares/Third_Party/Huawei/iot_link/network/mqtt/mqtt_al\mqtt_al.c ****     return -1;
 199              		.loc 1 90 5 view .LVU41
  90:D:/fchai/work/i-cube/I-CUBE-HUAWEI/Middlewares/Third_Party/Huawei/iot_link/network/mqtt/mqtt_al\mqtt_al.c ****     return -1;
 200              		.loc 1 90 5 view .LVU42
 201 0014 0120     		movs	r0, #1
 202 0016 FFF7FEFF 		bl	link_log_level_name
 203              	.LVL8:
 204 001a 0446     		mov	r4, r0
 205 001c FFF7FEFF 		bl	osal_sys_time
 206              	.LVL9:
 207 0020 074B     		ldr	r3, .L18
 208 0022 0093     		str	r3, [sp]
 209 0024 0246     		mov	r2, r0
 210 0026 2146     		mov	r1, r4
 211 0028 0648     		ldr	r0, .L18+4
 212 002a FFF7FEFF 		bl	printf
 213              	.LVL10:
  90:D:/fchai/work/i-cube/I-CUBE-HUAWEI/Middlewares/Third_Party/Huawei/iot_link/network/mqtt/mqtt_al\mqtt_al.c ****     return -1;
 214              		.loc 1 90 5 view .LVU43
 215 002e 064B     		ldr	r3, .L18+8
 216 0030 1B68     		ldr	r3, [r3]
 217 0032 9868     		ldr	r0, [r3, #8]
 218 0034 FFF7FEFF 		bl	fflush
 219              	.LVL11:
 220              	.LBE5:
 221              	.LBE4:
  90:D:/fchai/work/i-cube/I-CUBE-HUAWEI/Middlewares/Third_Party/Huawei/iot_link/network/mqtt/mqtt_al\mqtt_al.c ****     return -1;
 222              		.loc 1 90 5 view .LVU44
  90:D:/fchai/work/i-cube/I-CUBE-HUAWEI/Middlewares/Third_Party/Huawei/iot_link/network/mqtt/mqtt_al\mqtt_al.c ****     return -1;
 223              		.loc 1 90 5 view .LVU45
  90:D:/fchai/work/i-cube/I-CUBE-HUAWEI/Middlewares/Third_Party/Huawei/iot_link/network/mqtt/mqtt_al\mqtt_al.c ****     return -1;
 224              		.loc 1 90 5 view .LVU46
  91:D:/fchai/work/i-cube/I-CUBE-HUAWEI/Middlewares/Third_Party/Huawei/iot_link/network/mqtt/mqtt_al\mqtt_al.c **** }
 225              		.loc 1 91 5 view .LVU47
 226              		.loc 1 92 1 is_stmt 0 view .LVU48
 227 0038 4FF0FF30 		mov	r0, #-1
 228 003c 02B0     		add	sp, sp, #8
 229              	.LCFI7:
 230              		.cfi_def_cfa_offset 8
 231              		@ sp needed
 232 003e 10BD     		pop	{r4, pc}
 233              	.L19:
 234              		.align	2
 235              	.L18:
ARM GAS  T:\msys\tmp\ccQ0df0t.s 			page 7


 236 0040 00000000 		.word	.LANCHOR1
 237 0044 00000000 		.word	.LC0
 238 0048 00000000 		.word	_impure_ptr
 239              		.cfi_endproc
 240              	.LFE5:
 242              		.section	.rodata.mqtt_al_init.str1.4,"aMS",%progbits,1
 243              		.align	2
 244              	.LC1:
 245 0000 5B25735D 		.ascii	"[%s][%u][%s] IOT_LINK:DO MQTT LOAD-IMPLEMENT RET:%d"
 245      5B25755D 
 245      5B25735D 
 245      20494F54 
 245      5F4C494E 
 246 0033 0D0A00   		.ascii	"\015\012\000"
 247              		.section	.text.mqtt_al_init,"ax",%progbits
 248              		.align	1
 249              		.p2align 2,,3
 250              		.global	mqtt_al_init
 251              		.syntax unified
 252              		.thumb
 253              		.thumb_func
 254              		.fpu fpv4-sp-d16
 256              	mqtt_al_init:
 257              	.LFB6:
  93:D:/fchai/work/i-cube/I-CUBE-HUAWEI/Middlewares/Third_Party/Huawei/iot_link/network/mqtt/mqtt_al\mqtt_al.c **** 
  94:D:/fchai/work/i-cube/I-CUBE-HUAWEI/Middlewares/Third_Party/Huawei/iot_link/network/mqtt/mqtt_al\mqtt_al.c **** int mqtt_al_init(void)
  95:D:/fchai/work/i-cube/I-CUBE-HUAWEI/Middlewares/Third_Party/Huawei/iot_link/network/mqtt/mqtt_al\mqtt_al.c **** {
 258              		.loc 1 95 1 is_stmt 1 view -0
 259              		.cfi_startproc
 260              		@ args = 0, pretend = 0, frame = 0
 261              		@ frame_needed = 0, uses_anonymous_args = 0
  96:D:/fchai/work/i-cube/I-CUBE-HUAWEI/Middlewares/Third_Party/Huawei/iot_link/network/mqtt/mqtt_al\mqtt_al.c ****     int ret;
 262              		.loc 1 96 5 view .LVU50
  97:D:/fchai/work/i-cube/I-CUBE-HUAWEI/Middlewares/Third_Party/Huawei/iot_link/network/mqtt/mqtt_al\mqtt_al.c **** 
  98:D:/fchai/work/i-cube/I-CUBE-HUAWEI/Middlewares/Third_Party/Huawei/iot_link/network/mqtt/mqtt_al\mqtt_al.c ****     ret = mqtt_imp_init();
 263              		.loc 1 98 5 view .LVU51
  95:D:/fchai/work/i-cube/I-CUBE-HUAWEI/Middlewares/Third_Party/Huawei/iot_link/network/mqtt/mqtt_al\mqtt_al.c ****     int ret;
 264              		.loc 1 95 1 is_stmt 0 view .LVU52
 265 0000 30B5     		push	{r4, r5, lr}
 266              	.LCFI8:
 267              		.cfi_def_cfa_offset 12
 268              		.cfi_offset 4, -12
 269              		.cfi_offset 5, -8
 270              		.cfi_offset 14, -4
 271 0002 83B0     		sub	sp, sp, #12
 272              	.LCFI9:
 273              		.cfi_def_cfa_offset 24
 274              		.loc 1 98 11 view .LVU53
 275 0004 FFF7FEFF 		bl	mqtt_imp_init
 276              	.LVL12:
 277 0008 0446     		mov	r4, r0
 278              	.LVL13:
  99:D:/fchai/work/i-cube/I-CUBE-HUAWEI/Middlewares/Third_Party/Huawei/iot_link/network/mqtt/mqtt_al\mqtt_al.c ****     LINK_LOG_DEBUG("IOT_LINK:DO MQTT LOAD-IMPLEMENT RET:%d",ret);
 279              		.loc 1 99 5 is_stmt 1 view .LVU54
 280              		.loc 1 99 5 view .LVU55
 281 000a FFF7FEFF 		bl	link_log_level_get
 282              	.LVL14:
ARM GAS  T:\msys\tmp\ccQ0df0t.s 			page 8


 283              		.loc 1 99 5 is_stmt 0 view .LVU56
 284 000e 0128     		cmp	r0, #1
 285 0010 02D9     		bls	.L23
 100:D:/fchai/work/i-cube/I-CUBE-HUAWEI/Middlewares/Third_Party/Huawei/iot_link/network/mqtt/mqtt_al\mqtt_al.c **** 
 101:D:/fchai/work/i-cube/I-CUBE-HUAWEI/Middlewares/Third_Party/Huawei/iot_link/network/mqtt/mqtt_al\mqtt_al.c ****     return ret;
 102:D:/fchai/work/i-cube/I-CUBE-HUAWEI/Middlewares/Third_Party/Huawei/iot_link/network/mqtt/mqtt_al\mqtt_al.c **** }
 286              		.loc 1 102 1 view .LVU57
 287 0012 2046     		mov	r0, r4
 288 0014 03B0     		add	sp, sp, #12
 289              	.LCFI10:
 290              		.cfi_remember_state
 291              		.cfi_def_cfa_offset 12
 292              		@ sp needed
 293 0016 30BD     		pop	{r4, r5, pc}
 294              	.LVL15:
 295              	.L23:
 296              	.LCFI11:
 297              		.cfi_restore_state
  99:D:/fchai/work/i-cube/I-CUBE-HUAWEI/Middlewares/Third_Party/Huawei/iot_link/network/mqtt/mqtt_al\mqtt_al.c ****     LINK_LOG_DEBUG("IOT_LINK:DO MQTT LOAD-IMPLEMENT RET:%d",ret);
 298              		.loc 1 99 5 is_stmt 1 discriminator 1 view .LVU58
  99:D:/fchai/work/i-cube/I-CUBE-HUAWEI/Middlewares/Third_Party/Huawei/iot_link/network/mqtt/mqtt_al\mqtt_al.c ****     LINK_LOG_DEBUG("IOT_LINK:DO MQTT LOAD-IMPLEMENT RET:%d",ret);
 299              		.loc 1 99 5 discriminator 1 view .LVU59
  99:D:/fchai/work/i-cube/I-CUBE-HUAWEI/Middlewares/Third_Party/Huawei/iot_link/network/mqtt/mqtt_al\mqtt_al.c ****     LINK_LOG_DEBUG("IOT_LINK:DO MQTT LOAD-IMPLEMENT RET:%d",ret);
 300              		.loc 1 99 5 discriminator 1 view .LVU60
 301 0018 0120     		movs	r0, #1
 302 001a FFF7FEFF 		bl	link_log_level_name
 303              	.LVL16:
 304 001e 0546     		mov	r5, r0
 305 0020 FFF7FEFF 		bl	osal_sys_time
 306              	.LVL17:
 307 0024 2946     		mov	r1, r5
 308 0026 0246     		mov	r2, r0
 309 0028 064B     		ldr	r3, .L24
 310 002a 0094     		str	r4, [sp]
 311 002c 0648     		ldr	r0, .L24+4
 312 002e FFF7FEFF 		bl	printf
 313              	.LVL18:
  99:D:/fchai/work/i-cube/I-CUBE-HUAWEI/Middlewares/Third_Party/Huawei/iot_link/network/mqtt/mqtt_al\mqtt_al.c ****     LINK_LOG_DEBUG("IOT_LINK:DO MQTT LOAD-IMPLEMENT RET:%d",ret);
 314              		.loc 1 99 5 discriminator 1 view .LVU61
 315 0032 064B     		ldr	r3, .L24+8
 316 0034 1B68     		ldr	r3, [r3]
 317 0036 9868     		ldr	r0, [r3, #8]
 318 0038 FFF7FEFF 		bl	fflush
 319              	.LVL19:
  99:D:/fchai/work/i-cube/I-CUBE-HUAWEI/Middlewares/Third_Party/Huawei/iot_link/network/mqtt/mqtt_al\mqtt_al.c ****     LINK_LOG_DEBUG("IOT_LINK:DO MQTT LOAD-IMPLEMENT RET:%d",ret);
 320              		.loc 1 99 5 discriminator 1 view .LVU62
  99:D:/fchai/work/i-cube/I-CUBE-HUAWEI/Middlewares/Third_Party/Huawei/iot_link/network/mqtt/mqtt_al\mqtt_al.c ****     LINK_LOG_DEBUG("IOT_LINK:DO MQTT LOAD-IMPLEMENT RET:%d",ret);
 321              		.loc 1 99 5 discriminator 1 view .LVU63
  99:D:/fchai/work/i-cube/I-CUBE-HUAWEI/Middlewares/Third_Party/Huawei/iot_link/network/mqtt/mqtt_al\mqtt_al.c ****     LINK_LOG_DEBUG("IOT_LINK:DO MQTT LOAD-IMPLEMENT RET:%d",ret);
 322              		.loc 1 99 5 discriminator 1 view .LVU64
 101:D:/fchai/work/i-cube/I-CUBE-HUAWEI/Middlewares/Third_Party/Huawei/iot_link/network/mqtt/mqtt_al\mqtt_al.c **** }
 323              		.loc 1 101 5 discriminator 1 view .LVU65
 324              		.loc 1 102 1 is_stmt 0 discriminator 1 view .LVU66
 325 003c 2046     		mov	r0, r4
 326 003e 03B0     		add	sp, sp, #12
 327              	.LCFI12:
 328              		.cfi_def_cfa_offset 12
ARM GAS  T:\msys\tmp\ccQ0df0t.s 			page 9


 329              		@ sp needed
 330 0040 30BD     		pop	{r4, r5, pc}
 331              	.LVL20:
 332              	.L25:
 333              		.loc 1 102 1 discriminator 1 view .LVU67
 334 0042 00BF     		.align	2
 335              	.L24:
 336 0044 00000000 		.word	.LANCHOR2
 337 0048 00000000 		.word	.LC1
 338 004c 00000000 		.word	_impure_ptr
 339              		.cfi_endproc
 340              	.LFE6:
 342              		.section	.text.mqtt_al_deinit,"ax",%progbits
 343              		.align	1
 344              		.p2align 2,,3
 345              		.global	mqtt_al_deinit
 346              		.syntax unified
 347              		.thumb
 348              		.thumb_func
 349              		.fpu fpv4-sp-d16
 351              	mqtt_al_deinit:
 352              	.LFB7:
 103:D:/fchai/work/i-cube/I-CUBE-HUAWEI/Middlewares/Third_Party/Huawei/iot_link/network/mqtt/mqtt_al\mqtt_al.c **** 
 104:D:/fchai/work/i-cube/I-CUBE-HUAWEI/Middlewares/Third_Party/Huawei/iot_link/network/mqtt/mqtt_al\mqtt_al.c **** int  mqtt_al_deinit()
 105:D:/fchai/work/i-cube/I-CUBE-HUAWEI/Middlewares/Third_Party/Huawei/iot_link/network/mqtt/mqtt_al\mqtt_al.c **** {
 353              		.loc 1 105 1 is_stmt 1 view -0
 354              		.cfi_startproc
 355              		@ args = 0, pretend = 0, frame = 0
 356              		@ frame_needed = 0, uses_anonymous_args = 0
 357              		@ link register save eliminated.
 106:D:/fchai/work/i-cube/I-CUBE-HUAWEI/Middlewares/Third_Party/Huawei/iot_link/network/mqtt/mqtt_al\mqtt_al.c **** 
 107:D:/fchai/work/i-cube/I-CUBE-HUAWEI/Middlewares/Third_Party/Huawei/iot_link/network/mqtt/mqtt_al\mqtt_al.c ****     int ret = 0;
 358              		.loc 1 107 5 view .LVU69
 359              	.LVL21:
 108:D:/fchai/work/i-cube/I-CUBE-HUAWEI/Middlewares/Third_Party/Huawei/iot_link/network/mqtt/mqtt_al\mqtt_al.c **** 
 109:D:/fchai/work/i-cube/I-CUBE-HUAWEI/Middlewares/Third_Party/Huawei/iot_link/network/mqtt/mqtt_al\mqtt_al.c ****     //maybe need special code here
 110:D:/fchai/work/i-cube/I-CUBE-HUAWEI/Middlewares/Third_Party/Huawei/iot_link/network/mqtt/mqtt_al\mqtt_al.c **** 
 111:D:/fchai/work/i-cube/I-CUBE-HUAWEI/Middlewares/Third_Party/Huawei/iot_link/network/mqtt/mqtt_al\mqtt_al.c ****     return ret;
 360              		.loc 1 111 5 view .LVU70
 112:D:/fchai/work/i-cube/I-CUBE-HUAWEI/Middlewares/Third_Party/Huawei/iot_link/network/mqtt/mqtt_al\mqtt_al.c **** }
 361              		.loc 1 112 1 is_stmt 0 view .LVU71
 362 0000 0020     		movs	r0, #0
 363 0002 7047     		bx	lr
 364              		.cfi_endproc
 365              	.LFE7:
 367              		.section	.text.mqtt_al_connect,"ax",%progbits
 368              		.align	1
 369              		.p2align 2,,3
 370              		.global	mqtt_al_connect
 371              		.syntax unified
 372              		.thumb
 373              		.thumb_func
 374              		.fpu fpv4-sp-d16
 376              	mqtt_al_connect:
 377              	.LVL22:
 378              	.LFB8:
 113:D:/fchai/work/i-cube/I-CUBE-HUAWEI/Middlewares/Third_Party/Huawei/iot_link/network/mqtt/mqtt_al\mqtt_al.c **** 
ARM GAS  T:\msys\tmp\ccQ0df0t.s 			page 10


 114:D:/fchai/work/i-cube/I-CUBE-HUAWEI/Middlewares/Third_Party/Huawei/iot_link/network/mqtt/mqtt_al\mqtt_al.c **** void * mqtt_al_connect( mqtt_al_conpara_t *conpara)
 115:D:/fchai/work/i-cube/I-CUBE-HUAWEI/Middlewares/Third_Party/Huawei/iot_link/network/mqtt/mqtt_al\mqtt_al.c **** {
 379              		.loc 1 115 1 is_stmt 1 view -0
 380              		.cfi_startproc
 381              		@ args = 0, pretend = 0, frame = 0
 382              		@ frame_needed = 0, uses_anonymous_args = 0
 383              		@ link register save eliminated.
 116:D:/fchai/work/i-cube/I-CUBE-HUAWEI/Middlewares/Third_Party/Huawei/iot_link/network/mqtt/mqtt_al\mqtt_al.c **** 
 117:D:/fchai/work/i-cube/I-CUBE-HUAWEI/Middlewares/Third_Party/Huawei/iot_link/network/mqtt/mqtt_al\mqtt_al.c ****     void *ret = NULL;
 384              		.loc 1 117 5 view .LVU73
 118:D:/fchai/work/i-cube/I-CUBE-HUAWEI/Middlewares/Third_Party/Huawei/iot_link/network/mqtt/mqtt_al\mqtt_al.c **** 
 119:D:/fchai/work/i-cube/I-CUBE-HUAWEI/Middlewares/Third_Party/Huawei/iot_link/network/mqtt/mqtt_al\mqtt_al.c ****     if((NULL != conpara) && (NULL != s_mqtt_al_op_cb.ops) && (NULL != s_mqtt_al_op_cb.ops->connect)
 385              		.loc 1 119 5 view .LVU74
 386              		.loc 1 119 7 is_stmt 0 view .LVU75
 387 0000 28B1     		cbz	r0, .L27
 388              		.loc 1 119 53 discriminator 1 view .LVU76
 389 0002 044B     		ldr	r3, .L36
 390 0004 1B68     		ldr	r3, [r3]
 391              		.loc 1 119 26 discriminator 1 view .LVU77
 392 0006 13B1     		cbz	r3, .L27
 393              		.loc 1 119 90 discriminator 2 view .LVU78
 394 0008 1B68     		ldr	r3, [r3]
 395              		.loc 1 119 59 discriminator 2 view .LVU79
 396 000a 03B1     		cbz	r3, .L27
 120:D:/fchai/work/i-cube/I-CUBE-HUAWEI/Middlewares/Third_Party/Huawei/iot_link/network/mqtt/mqtt_al\mqtt_al.c ****     {
 121:D:/fchai/work/i-cube/I-CUBE-HUAWEI/Middlewares/Third_Party/Huawei/iot_link/network/mqtt/mqtt_al\mqtt_al.c ****         ret = s_mqtt_al_op_cb.ops->connect(conpara);
 397              		.loc 1 121 9 is_stmt 1 view .LVU80
 398              		.loc 1 121 15 is_stmt 0 view .LVU81
 399 000c 1847     		bx	r3
 400              	.LVL23:
 401              	.L27:
 122:D:/fchai/work/i-cube/I-CUBE-HUAWEI/Middlewares/Third_Party/Huawei/iot_link/network/mqtt/mqtt_al\mqtt_al.c ****     }
 123:D:/fchai/work/i-cube/I-CUBE-HUAWEI/Middlewares/Third_Party/Huawei/iot_link/network/mqtt/mqtt_al\mqtt_al.c **** 
 124:D:/fchai/work/i-cube/I-CUBE-HUAWEI/Middlewares/Third_Party/Huawei/iot_link/network/mqtt/mqtt_al\mqtt_al.c ****     return ret;
 125:D:/fchai/work/i-cube/I-CUBE-HUAWEI/Middlewares/Third_Party/Huawei/iot_link/network/mqtt/mqtt_al\mqtt_al.c **** 
 126:D:/fchai/work/i-cube/I-CUBE-HUAWEI/Middlewares/Third_Party/Huawei/iot_link/network/mqtt/mqtt_al\mqtt_al.c **** }
 402              		.loc 1 126 1 view .LVU82
 403 000e 0020     		movs	r0, #0
 404              	.LVL24:
 405              		.loc 1 126 1 view .LVU83
 406 0010 7047     		bx	lr
 407              	.L37:
 408 0012 00BF     		.align	2
 409              	.L36:
 410 0014 00000000 		.word	.LANCHOR0
 411              		.cfi_endproc
 412              	.LFE8:
 414              		.section	.text.mqtt_al_disconnect,"ax",%progbits
 415              		.align	1
 416              		.p2align 2,,3
 417              		.global	mqtt_al_disconnect
 418              		.syntax unified
 419              		.thumb
 420              		.thumb_func
 421              		.fpu fpv4-sp-d16
 423              	mqtt_al_disconnect:
 424              	.LVL25:
ARM GAS  T:\msys\tmp\ccQ0df0t.s 			page 11


 425              	.LFB9:
 127:D:/fchai/work/i-cube/I-CUBE-HUAWEI/Middlewares/Third_Party/Huawei/iot_link/network/mqtt/mqtt_al\mqtt_al.c **** 
 128:D:/fchai/work/i-cube/I-CUBE-HUAWEI/Middlewares/Third_Party/Huawei/iot_link/network/mqtt/mqtt_al\mqtt_al.c **** 
 129:D:/fchai/work/i-cube/I-CUBE-HUAWEI/Middlewares/Third_Party/Huawei/iot_link/network/mqtt/mqtt_al\mqtt_al.c **** int mqtt_al_disconnect(void *handle)
 130:D:/fchai/work/i-cube/I-CUBE-HUAWEI/Middlewares/Third_Party/Huawei/iot_link/network/mqtt/mqtt_al\mqtt_al.c **** {
 426              		.loc 1 130 1 is_stmt 1 view -0
 427              		.cfi_startproc
 428              		@ args = 0, pretend = 0, frame = 0
 429              		@ frame_needed = 0, uses_anonymous_args = 0
 430              		@ link register save eliminated.
 131:D:/fchai/work/i-cube/I-CUBE-HUAWEI/Middlewares/Third_Party/Huawei/iot_link/network/mqtt/mqtt_al\mqtt_al.c **** 
 132:D:/fchai/work/i-cube/I-CUBE-HUAWEI/Middlewares/Third_Party/Huawei/iot_link/network/mqtt/mqtt_al\mqtt_al.c ****     int ret = -1;
 431              		.loc 1 132 5 view .LVU85
 133:D:/fchai/work/i-cube/I-CUBE-HUAWEI/Middlewares/Third_Party/Huawei/iot_link/network/mqtt/mqtt_al\mqtt_al.c **** 
 134:D:/fchai/work/i-cube/I-CUBE-HUAWEI/Middlewares/Third_Party/Huawei/iot_link/network/mqtt/mqtt_al\mqtt_al.c ****     if((NULL != handle) && (NULL != s_mqtt_al_op_cb.ops) && (NULL != s_mqtt_al_op_cb.ops->disconnec
 432              		.loc 1 134 5 view .LVU86
 433              		.loc 1 134 7 is_stmt 0 view .LVU87
 434 0000 28B1     		cbz	r0, .L38
 435              		.loc 1 134 52 discriminator 1 view .LVU88
 436 0002 044B     		ldr	r3, .L46
 437 0004 1B68     		ldr	r3, [r3]
 438              		.loc 1 134 25 discriminator 1 view .LVU89
 439 0006 13B1     		cbz	r3, .L38
 440              		.loc 1 134 89 discriminator 2 view .LVU90
 441 0008 5B68     		ldr	r3, [r3, #4]
 442              		.loc 1 134 58 discriminator 2 view .LVU91
 443 000a 03B1     		cbz	r3, .L38
 135:D:/fchai/work/i-cube/I-CUBE-HUAWEI/Middlewares/Third_Party/Huawei/iot_link/network/mqtt/mqtt_al\mqtt_al.c ****     {
 136:D:/fchai/work/i-cube/I-CUBE-HUAWEI/Middlewares/Third_Party/Huawei/iot_link/network/mqtt/mqtt_al\mqtt_al.c ****         ret = s_mqtt_al_op_cb.ops->disconnect(handle);
 444              		.loc 1 136 9 is_stmt 1 view .LVU92
 445              		.loc 1 136 15 is_stmt 0 view .LVU93
 446 000c 1847     		bx	r3
 447              	.LVL26:
 448              	.L38:
 137:D:/fchai/work/i-cube/I-CUBE-HUAWEI/Middlewares/Third_Party/Huawei/iot_link/network/mqtt/mqtt_al\mqtt_al.c ****     }
 138:D:/fchai/work/i-cube/I-CUBE-HUAWEI/Middlewares/Third_Party/Huawei/iot_link/network/mqtt/mqtt_al\mqtt_al.c **** 
 139:D:/fchai/work/i-cube/I-CUBE-HUAWEI/Middlewares/Third_Party/Huawei/iot_link/network/mqtt/mqtt_al\mqtt_al.c ****     return ret;
 140:D:/fchai/work/i-cube/I-CUBE-HUAWEI/Middlewares/Third_Party/Huawei/iot_link/network/mqtt/mqtt_al\mqtt_al.c **** 
 141:D:/fchai/work/i-cube/I-CUBE-HUAWEI/Middlewares/Third_Party/Huawei/iot_link/network/mqtt/mqtt_al\mqtt_al.c **** }
 449              		.loc 1 141 1 view .LVU94
 450 000e 4FF0FF30 		mov	r0, #-1
 451              	.LVL27:
 452              		.loc 1 141 1 view .LVU95
 453 0012 7047     		bx	lr
 454              	.L47:
 455              		.align	2
 456              	.L46:
 457 0014 00000000 		.word	.LANCHOR0
 458              		.cfi_endproc
 459              	.LFE9:
 461              		.section	.text.mqtt_al_publish,"ax",%progbits
 462              		.align	1
 463              		.p2align 2,,3
 464              		.global	mqtt_al_publish
 465              		.syntax unified
 466              		.thumb
 467              		.thumb_func
ARM GAS  T:\msys\tmp\ccQ0df0t.s 			page 12


 468              		.fpu fpv4-sp-d16
 470              	mqtt_al_publish:
 471              	.LVL28:
 472              	.LFB10:
 142:D:/fchai/work/i-cube/I-CUBE-HUAWEI/Middlewares/Third_Party/Huawei/iot_link/network/mqtt/mqtt_al\mqtt_al.c **** 
 143:D:/fchai/work/i-cube/I-CUBE-HUAWEI/Middlewares/Third_Party/Huawei/iot_link/network/mqtt/mqtt_al\mqtt_al.c **** 
 144:D:/fchai/work/i-cube/I-CUBE-HUAWEI/Middlewares/Third_Party/Huawei/iot_link/network/mqtt/mqtt_al\mqtt_al.c **** int mqtt_al_publish(void *handle, mqtt_al_pubpara_t *pubpara)
 145:D:/fchai/work/i-cube/I-CUBE-HUAWEI/Middlewares/Third_Party/Huawei/iot_link/network/mqtt/mqtt_al\mqtt_al.c **** {
 473              		.loc 1 145 1 is_stmt 1 view -0
 474              		.cfi_startproc
 475              		@ args = 0, pretend = 0, frame = 0
 476              		@ frame_needed = 0, uses_anonymous_args = 0
 477              		@ link register save eliminated.
 146:D:/fchai/work/i-cube/I-CUBE-HUAWEI/Middlewares/Third_Party/Huawei/iot_link/network/mqtt/mqtt_al\mqtt_al.c **** 
 147:D:/fchai/work/i-cube/I-CUBE-HUAWEI/Middlewares/Third_Party/Huawei/iot_link/network/mqtt/mqtt_al\mqtt_al.c ****     int ret = -1;
 478              		.loc 1 147 5 view .LVU97
 148:D:/fchai/work/i-cube/I-CUBE-HUAWEI/Middlewares/Third_Party/Huawei/iot_link/network/mqtt/mqtt_al\mqtt_al.c **** 
 149:D:/fchai/work/i-cube/I-CUBE-HUAWEI/Middlewares/Third_Party/Huawei/iot_link/network/mqtt/mqtt_al\mqtt_al.c ****     if((NULL != handle) && (NULL != pubpara) &&\
 479              		.loc 1 149 5 view .LVU98
 480              		.loc 1 149 7 is_stmt 0 view .LVU99
 481 0000 30B1     		cbz	r0, .L48
 482              		.loc 1 149 25 discriminator 1 view .LVU100
 483 0002 29B1     		cbz	r1, .L48
 150:D:/fchai/work/i-cube/I-CUBE-HUAWEI/Middlewares/Third_Party/Huawei/iot_link/network/mqtt/mqtt_al\mqtt_al.c ****        (NULL != s_mqtt_al_op_cb.ops) && (NULL != s_mqtt_al_op_cb.ops->publish))
 484              		.loc 1 150 32 discriminator 2 view .LVU101
 485 0004 044B     		ldr	r3, .L58
 486 0006 1B68     		ldr	r3, [r3]
 149:D:/fchai/work/i-cube/I-CUBE-HUAWEI/Middlewares/Third_Party/Huawei/iot_link/network/mqtt/mqtt_al\mqtt_al.c ****        (NULL != s_mqtt_al_op_cb.ops) && (NULL != s_mqtt_al_op_cb.ops->publish))
 487              		.loc 1 149 46 discriminator 2 view .LVU102
 488 0008 13B1     		cbz	r3, .L48
 489              		.loc 1 150 69 view .LVU103
 490 000a 9B68     		ldr	r3, [r3, #8]
 491              		.loc 1 150 38 view .LVU104
 492 000c 03B1     		cbz	r3, .L48
 151:D:/fchai/work/i-cube/I-CUBE-HUAWEI/Middlewares/Third_Party/Huawei/iot_link/network/mqtt/mqtt_al\mqtt_al.c ****     {
 152:D:/fchai/work/i-cube/I-CUBE-HUAWEI/Middlewares/Third_Party/Huawei/iot_link/network/mqtt/mqtt_al\mqtt_al.c ****         ret = s_mqtt_al_op_cb.ops->publish(handle,pubpara);
 493              		.loc 1 152 9 is_stmt 1 view .LVU105
 494              		.loc 1 152 15 is_stmt 0 view .LVU106
 495 000e 1847     		bx	r3
 496              	.LVL29:
 497              	.L48:
 153:D:/fchai/work/i-cube/I-CUBE-HUAWEI/Middlewares/Third_Party/Huawei/iot_link/network/mqtt/mqtt_al\mqtt_al.c ****     }
 154:D:/fchai/work/i-cube/I-CUBE-HUAWEI/Middlewares/Third_Party/Huawei/iot_link/network/mqtt/mqtt_al\mqtt_al.c **** 
 155:D:/fchai/work/i-cube/I-CUBE-HUAWEI/Middlewares/Third_Party/Huawei/iot_link/network/mqtt/mqtt_al\mqtt_al.c ****     return ret;
 156:D:/fchai/work/i-cube/I-CUBE-HUAWEI/Middlewares/Third_Party/Huawei/iot_link/network/mqtt/mqtt_al\mqtt_al.c **** 
 157:D:/fchai/work/i-cube/I-CUBE-HUAWEI/Middlewares/Third_Party/Huawei/iot_link/network/mqtt/mqtt_al\mqtt_al.c **** }
 498              		.loc 1 157 1 view .LVU107
 499 0010 4FF0FF30 		mov	r0, #-1
 500              	.LVL30:
 501              		.loc 1 157 1 view .LVU108
 502 0014 7047     		bx	lr
 503              	.L59:
 504 0016 00BF     		.align	2
 505              	.L58:
 506 0018 00000000 		.word	.LANCHOR0
 507              		.cfi_endproc
 508              	.LFE10:
ARM GAS  T:\msys\tmp\ccQ0df0t.s 			page 13


 510              		.section	.text.mqtt_al_subscribe,"ax",%progbits
 511              		.align	1
 512              		.p2align 2,,3
 513              		.global	mqtt_al_subscribe
 514              		.syntax unified
 515              		.thumb
 516              		.thumb_func
 517              		.fpu fpv4-sp-d16
 519              	mqtt_al_subscribe:
 520              	.LVL31:
 521              	.LFB11:
 158:D:/fchai/work/i-cube/I-CUBE-HUAWEI/Middlewares/Third_Party/Huawei/iot_link/network/mqtt/mqtt_al\mqtt_al.c **** 
 159:D:/fchai/work/i-cube/I-CUBE-HUAWEI/Middlewares/Third_Party/Huawei/iot_link/network/mqtt/mqtt_al\mqtt_al.c **** 
 160:D:/fchai/work/i-cube/I-CUBE-HUAWEI/Middlewares/Third_Party/Huawei/iot_link/network/mqtt/mqtt_al\mqtt_al.c **** int mqtt_al_subscribe(void *handle, mqtt_al_subpara_t *subpara)
 161:D:/fchai/work/i-cube/I-CUBE-HUAWEI/Middlewares/Third_Party/Huawei/iot_link/network/mqtt/mqtt_al\mqtt_al.c **** {
 522              		.loc 1 161 1 is_stmt 1 view -0
 523              		.cfi_startproc
 524              		@ args = 0, pretend = 0, frame = 0
 525              		@ frame_needed = 0, uses_anonymous_args = 0
 526              		@ link register save eliminated.
 162:D:/fchai/work/i-cube/I-CUBE-HUAWEI/Middlewares/Third_Party/Huawei/iot_link/network/mqtt/mqtt_al\mqtt_al.c **** 
 163:D:/fchai/work/i-cube/I-CUBE-HUAWEI/Middlewares/Third_Party/Huawei/iot_link/network/mqtt/mqtt_al\mqtt_al.c ****     int ret = -1;
 527              		.loc 1 163 5 view .LVU110
 164:D:/fchai/work/i-cube/I-CUBE-HUAWEI/Middlewares/Third_Party/Huawei/iot_link/network/mqtt/mqtt_al\mqtt_al.c **** 
 165:D:/fchai/work/i-cube/I-CUBE-HUAWEI/Middlewares/Third_Party/Huawei/iot_link/network/mqtt/mqtt_al\mqtt_al.c ****     if((NULL != handle) && (NULL != subpara) &&\
 528              		.loc 1 165 5 view .LVU111
 529              		.loc 1 165 7 is_stmt 0 view .LVU112
 530 0000 30B1     		cbz	r0, .L60
 531              		.loc 1 165 25 discriminator 1 view .LVU113
 532 0002 29B1     		cbz	r1, .L60
 166:D:/fchai/work/i-cube/I-CUBE-HUAWEI/Middlewares/Third_Party/Huawei/iot_link/network/mqtt/mqtt_al\mqtt_al.c ****        (NULL != s_mqtt_al_op_cb.ops) && (NULL != s_mqtt_al_op_cb.ops->subscribe))
 533              		.loc 1 166 32 discriminator 2 view .LVU114
 534 0004 044B     		ldr	r3, .L70
 535 0006 1B68     		ldr	r3, [r3]
 165:D:/fchai/work/i-cube/I-CUBE-HUAWEI/Middlewares/Third_Party/Huawei/iot_link/network/mqtt/mqtt_al\mqtt_al.c ****        (NULL != s_mqtt_al_op_cb.ops) && (NULL != s_mqtt_al_op_cb.ops->subscribe))
 536              		.loc 1 165 46 discriminator 2 view .LVU115
 537 0008 13B1     		cbz	r3, .L60
 538              		.loc 1 166 69 view .LVU116
 539 000a DB68     		ldr	r3, [r3, #12]
 540              		.loc 1 166 38 view .LVU117
 541 000c 03B1     		cbz	r3, .L60
 167:D:/fchai/work/i-cube/I-CUBE-HUAWEI/Middlewares/Third_Party/Huawei/iot_link/network/mqtt/mqtt_al\mqtt_al.c ****     {
 168:D:/fchai/work/i-cube/I-CUBE-HUAWEI/Middlewares/Third_Party/Huawei/iot_link/network/mqtt/mqtt_al\mqtt_al.c ****         ret = s_mqtt_al_op_cb.ops->subscribe(handle,subpara);
 542              		.loc 1 168 9 is_stmt 1 view .LVU118
 543              		.loc 1 168 15 is_stmt 0 view .LVU119
 544 000e 1847     		bx	r3
 545              	.LVL32:
 546              	.L60:
 169:D:/fchai/work/i-cube/I-CUBE-HUAWEI/Middlewares/Third_Party/Huawei/iot_link/network/mqtt/mqtt_al\mqtt_al.c ****     }
 170:D:/fchai/work/i-cube/I-CUBE-HUAWEI/Middlewares/Third_Party/Huawei/iot_link/network/mqtt/mqtt_al\mqtt_al.c **** 
 171:D:/fchai/work/i-cube/I-CUBE-HUAWEI/Middlewares/Third_Party/Huawei/iot_link/network/mqtt/mqtt_al\mqtt_al.c ****     return ret;
 172:D:/fchai/work/i-cube/I-CUBE-HUAWEI/Middlewares/Third_Party/Huawei/iot_link/network/mqtt/mqtt_al\mqtt_al.c **** 
 173:D:/fchai/work/i-cube/I-CUBE-HUAWEI/Middlewares/Third_Party/Huawei/iot_link/network/mqtt/mqtt_al\mqtt_al.c **** }
 547              		.loc 1 173 1 view .LVU120
 548 0010 4FF0FF30 		mov	r0, #-1
 549              	.LVL33:
 550              		.loc 1 173 1 view .LVU121
ARM GAS  T:\msys\tmp\ccQ0df0t.s 			page 14


 551 0014 7047     		bx	lr
 552              	.L71:
 553 0016 00BF     		.align	2
 554              	.L70:
 555 0018 00000000 		.word	.LANCHOR0
 556              		.cfi_endproc
 557              	.LFE11:
 559              		.section	.text.mqtt_al_unsubscribe,"ax",%progbits
 560              		.align	1
 561              		.p2align 2,,3
 562              		.global	mqtt_al_unsubscribe
 563              		.syntax unified
 564              		.thumb
 565              		.thumb_func
 566              		.fpu fpv4-sp-d16
 568              	mqtt_al_unsubscribe:
 569              	.LVL34:
 570              	.LFB12:
 174:D:/fchai/work/i-cube/I-CUBE-HUAWEI/Middlewares/Third_Party/Huawei/iot_link/network/mqtt/mqtt_al\mqtt_al.c **** 
 175:D:/fchai/work/i-cube/I-CUBE-HUAWEI/Middlewares/Third_Party/Huawei/iot_link/network/mqtt/mqtt_al\mqtt_al.c **** 
 176:D:/fchai/work/i-cube/I-CUBE-HUAWEI/Middlewares/Third_Party/Huawei/iot_link/network/mqtt/mqtt_al\mqtt_al.c **** int mqtt_al_unsubscribe(void *handle, mqtt_al_unsubpara_t *unsubpara)
 177:D:/fchai/work/i-cube/I-CUBE-HUAWEI/Middlewares/Third_Party/Huawei/iot_link/network/mqtt/mqtt_al\mqtt_al.c **** {
 571              		.loc 1 177 1 is_stmt 1 view -0
 572              		.cfi_startproc
 573              		@ args = 0, pretend = 0, frame = 0
 574              		@ frame_needed = 0, uses_anonymous_args = 0
 575              		@ link register save eliminated.
 178:D:/fchai/work/i-cube/I-CUBE-HUAWEI/Middlewares/Third_Party/Huawei/iot_link/network/mqtt/mqtt_al\mqtt_al.c **** 
 179:D:/fchai/work/i-cube/I-CUBE-HUAWEI/Middlewares/Third_Party/Huawei/iot_link/network/mqtt/mqtt_al\mqtt_al.c ****     int ret = -1;
 576              		.loc 1 179 5 view .LVU123
 180:D:/fchai/work/i-cube/I-CUBE-HUAWEI/Middlewares/Third_Party/Huawei/iot_link/network/mqtt/mqtt_al\mqtt_al.c **** 
 181:D:/fchai/work/i-cube/I-CUBE-HUAWEI/Middlewares/Third_Party/Huawei/iot_link/network/mqtt/mqtt_al\mqtt_al.c ****     if((NULL != handle) && (NULL != unsubpara) && \
 577              		.loc 1 181 5 view .LVU124
 578              		.loc 1 181 7 is_stmt 0 view .LVU125
 579 0000 30B1     		cbz	r0, .L72
 580              		.loc 1 181 25 discriminator 1 view .LVU126
 581 0002 29B1     		cbz	r1, .L72
 182:D:/fchai/work/i-cube/I-CUBE-HUAWEI/Middlewares/Third_Party/Huawei/iot_link/network/mqtt/mqtt_al\mqtt_al.c ****         (NULL != s_mqtt_al_op_cb.ops) && (NULL != s_mqtt_al_op_cb.ops->unsubscribe))
 582              		.loc 1 182 33 discriminator 2 view .LVU127
 583 0004 044B     		ldr	r3, .L82
 584 0006 1B68     		ldr	r3, [r3]
 181:D:/fchai/work/i-cube/I-CUBE-HUAWEI/Middlewares/Third_Party/Huawei/iot_link/network/mqtt/mqtt_al\mqtt_al.c ****         (NULL != s_mqtt_al_op_cb.ops) && (NULL != s_mqtt_al_op_cb.ops->unsubscribe))
 585              		.loc 1 181 48 discriminator 2 view .LVU128
 586 0008 13B1     		cbz	r3, .L72
 587              		.loc 1 182 70 view .LVU129
 588 000a 1B69     		ldr	r3, [r3, #16]
 589              		.loc 1 182 39 view .LVU130
 590 000c 03B1     		cbz	r3, .L72
 183:D:/fchai/work/i-cube/I-CUBE-HUAWEI/Middlewares/Third_Party/Huawei/iot_link/network/mqtt/mqtt_al\mqtt_al.c ****     {
 184:D:/fchai/work/i-cube/I-CUBE-HUAWEI/Middlewares/Third_Party/Huawei/iot_link/network/mqtt/mqtt_al\mqtt_al.c ****         ret = s_mqtt_al_op_cb.ops->unsubscribe(handle,unsubpara);
 591              		.loc 1 184 9 is_stmt 1 view .LVU131
 592              		.loc 1 184 15 is_stmt 0 view .LVU132
 593 000e 1847     		bx	r3
 594              	.LVL35:
 595              	.L72:
 185:D:/fchai/work/i-cube/I-CUBE-HUAWEI/Middlewares/Third_Party/Huawei/iot_link/network/mqtt/mqtt_al\mqtt_al.c ****     }
 186:D:/fchai/work/i-cube/I-CUBE-HUAWEI/Middlewares/Third_Party/Huawei/iot_link/network/mqtt/mqtt_al\mqtt_al.c **** 
ARM GAS  T:\msys\tmp\ccQ0df0t.s 			page 15


 187:D:/fchai/work/i-cube/I-CUBE-HUAWEI/Middlewares/Third_Party/Huawei/iot_link/network/mqtt/mqtt_al\mqtt_al.c ****     return ret;
 188:D:/fchai/work/i-cube/I-CUBE-HUAWEI/Middlewares/Third_Party/Huawei/iot_link/network/mqtt/mqtt_al\mqtt_al.c **** 
 189:D:/fchai/work/i-cube/I-CUBE-HUAWEI/Middlewares/Third_Party/Huawei/iot_link/network/mqtt/mqtt_al\mqtt_al.c **** }
 596              		.loc 1 189 1 view .LVU133
 597 0010 4FF0FF30 		mov	r0, #-1
 598              	.LVL36:
 599              		.loc 1 189 1 view .LVU134
 600 0014 7047     		bx	lr
 601              	.L83:
 602 0016 00BF     		.align	2
 603              	.L82:
 604 0018 00000000 		.word	.LANCHOR0
 605              		.cfi_endproc
 606              	.LFE12:
 608              		.section	.text.mqtt_al_check_status,"ax",%progbits
 609              		.align	1
 610              		.p2align 2,,3
 611              		.global	mqtt_al_check_status
 612              		.syntax unified
 613              		.thumb
 614              		.thumb_func
 615              		.fpu fpv4-sp-d16
 617              	mqtt_al_check_status:
 618              	.LVL37:
 619              	.LFB13:
 190:D:/fchai/work/i-cube/I-CUBE-HUAWEI/Middlewares/Third_Party/Huawei/iot_link/network/mqtt/mqtt_al\mqtt_al.c **** 
 191:D:/fchai/work/i-cube/I-CUBE-HUAWEI/Middlewares/Third_Party/Huawei/iot_link/network/mqtt/mqtt_al\mqtt_al.c **** en_mqtt_al_connect_state mqtt_al_check_status(void *handle)
 192:D:/fchai/work/i-cube/I-CUBE-HUAWEI/Middlewares/Third_Party/Huawei/iot_link/network/mqtt/mqtt_al\mqtt_al.c **** {
 620              		.loc 1 192 1 is_stmt 1 view -0
 621              		.cfi_startproc
 622              		@ args = 0, pretend = 0, frame = 0
 623              		@ frame_needed = 0, uses_anonymous_args = 0
 624              		@ link register save eliminated.
 193:D:/fchai/work/i-cube/I-CUBE-HUAWEI/Middlewares/Third_Party/Huawei/iot_link/network/mqtt/mqtt_al\mqtt_al.c **** 
 194:D:/fchai/work/i-cube/I-CUBE-HUAWEI/Middlewares/Third_Party/Huawei/iot_link/network/mqtt/mqtt_al\mqtt_al.c ****     en_mqtt_al_connect_state ret = en_mqtt_al_connect_err;
 625              		.loc 1 194 5 view .LVU136
 195:D:/fchai/work/i-cube/I-CUBE-HUAWEI/Middlewares/Third_Party/Huawei/iot_link/network/mqtt/mqtt_al\mqtt_al.c **** 
 196:D:/fchai/work/i-cube/I-CUBE-HUAWEI/Middlewares/Third_Party/Huawei/iot_link/network/mqtt/mqtt_al\mqtt_al.c ****     if((NULL != handle) && (NULL != s_mqtt_al_op_cb.ops) && (NULL != s_mqtt_al_op_cb.ops->check_sta
 626              		.loc 1 196 5 view .LVU137
 627              		.loc 1 196 7 is_stmt 0 view .LVU138
 628 0000 28B1     		cbz	r0, .L85
 629              		.loc 1 196 52 discriminator 1 view .LVU139
 630 0002 044B     		ldr	r3, .L92
 631 0004 1B68     		ldr	r3, [r3]
 632              		.loc 1 196 25 discriminator 1 view .LVU140
 633 0006 13B1     		cbz	r3, .L85
 634              		.loc 1 196 89 discriminator 2 view .LVU141
 635 0008 5B69     		ldr	r3, [r3, #20]
 636              		.loc 1 196 58 discriminator 2 view .LVU142
 637 000a 03B1     		cbz	r3, .L85
 197:D:/fchai/work/i-cube/I-CUBE-HUAWEI/Middlewares/Third_Party/Huawei/iot_link/network/mqtt/mqtt_al\mqtt_al.c ****     {
 198:D:/fchai/work/i-cube/I-CUBE-HUAWEI/Middlewares/Third_Party/Huawei/iot_link/network/mqtt/mqtt_al\mqtt_al.c ****         ret = s_mqtt_al_op_cb.ops->check_status(handle);
 638              		.loc 1 198 9 is_stmt 1 view .LVU143
 639              		.loc 1 198 15 is_stmt 0 view .LVU144
 640 000c 1847     		bx	r3
 641              	.LVL38:
 642              	.L85:
ARM GAS  T:\msys\tmp\ccQ0df0t.s 			page 16


 199:D:/fchai/work/i-cube/I-CUBE-HUAWEI/Middlewares/Third_Party/Huawei/iot_link/network/mqtt/mqtt_al\mqtt_al.c ****     }
 200:D:/fchai/work/i-cube/I-CUBE-HUAWEI/Middlewares/Third_Party/Huawei/iot_link/network/mqtt/mqtt_al\mqtt_al.c **** 
 201:D:/fchai/work/i-cube/I-CUBE-HUAWEI/Middlewares/Third_Party/Huawei/iot_link/network/mqtt/mqtt_al\mqtt_al.c ****     return ret;
 643              		.loc 1 201 5 is_stmt 1 view .LVU145
 202:D:/fchai/work/i-cube/I-CUBE-HUAWEI/Middlewares/Third_Party/Huawei/iot_link/network/mqtt/mqtt_al\mqtt_al.c **** }
 644              		.loc 1 202 1 is_stmt 0 view .LVU146
 645 000e 0120     		movs	r0, #1
 646              	.LVL39:
 647              		.loc 1 202 1 view .LVU147
 648 0010 7047     		bx	lr
 649              	.L93:
 650 0012 00BF     		.align	2
 651              	.L92:
 652 0014 00000000 		.word	.LANCHOR0
 653              		.cfi_endproc
 654              	.LFE13:
 656              		.section	.bss.s_mqtt_al_op_cb,"aw",%nobits
 657              		.align	2
 658              		.set	.LANCHOR0,. + 0
 661              	s_mqtt_al_op_cb:
 662 0000 00000000 		.space	28
 662      00000000 
 662      00000000 
 662      00000000 
 662      00000000 
 663              		.section	.rodata.__FUNCTION__.6817,"a"
 664              		.align	2
 665              		.set	.LANCHOR1,. + 0
 668              	__FUNCTION__.6817:
 669 0000 6D717474 		.ascii	"mqtt_imp_init\000"
 669      5F696D70 
 669      5F696E69 
 669      7400
 670              		.section	.rodata.__FUNCTION__.6822,"a"
 671              		.align	2
 672              		.set	.LANCHOR2,. + 0
 675              	__FUNCTION__.6822:
 676 0000 6D717474 		.ascii	"mqtt_al_init\000"
 676      5F616C5F 
 676      696E6974 
 676      00
 677              		.text
 678              	.Letext0:
 679              		.file 2 "t:\\msys\\3rd\\gcc-arm-none-eabi-9-2020-q2-update-win32\\arm-none-eabi\\include\\machine\
 680              		.file 3 "t:\\msys\\3rd\\gcc-arm-none-eabi-9-2020-q2-update-win32\\arm-none-eabi\\include\\sys\\_st
 681              		.file 4 "t:\\msys\\3rd\\gcc-arm-none-eabi-9-2020-q2-update-win32\\lib\\gcc\\arm-none-eabi\\9.3.1\\
 682              		.file 5 "t:\\msys\\3rd\\gcc-arm-none-eabi-9-2020-q2-update-win32\\arm-none-eabi\\include\\sys\\_ty
 683              		.file 6 "t:\\msys\\3rd\\gcc-arm-none-eabi-9-2020-q2-update-win32\\arm-none-eabi\\include\\sys\\ree
 684              		.file 7 "t:\\msys\\3rd\\gcc-arm-none-eabi-9-2020-q2-update-win32\\arm-none-eabi\\include\\sys\\loc
 685              		.file 8 "D:/fchai/work/i-cube/I-CUBE-HUAWEI/Middlewares/Third_Party/Huawei/iot_link/inc/link_log.h
 686              		.file 9 "D:/fchai/work/i-cube/I-CUBE-HUAWEI/Middlewares/Third_Party/Huawei/iot_link/inc/dtls_al.h"
 687              		.file 10 "D:/fchai/work/i-cube/I-CUBE-HUAWEI/Middlewares/Third_Party/Huawei/iot_link/inc/mqtt_al.h
 688              		.file 11 "t:\\msys\\3rd\\gcc-arm-none-eabi-9-2020-q2-update-win32\\arm-none-eabi\\include\\stdio.h
ARM GAS  T:\msys\tmp\ccQ0df0t.s 			page 17

