ARM GAS  T:\msys\tmp\ccHTo37l.s 			page 1


   1              		.cpu cortex-m4
   2              		.eabi_attribute 27, 1
   3              		.eabi_attribute 28, 1
   4              		.eabi_attribute 20, 1
   5              		.eabi_attribute 21, 1
   6              		.eabi_attribute 23, 3
   7              		.eabi_attribute 24, 1
   8              		.eabi_attribute 25, 1
   9              		.eabi_attribute 26, 1
  10              		.eabi_attribute 30, 2
  11              		.eabi_attribute 34, 1
  12              		.eabi_attribute 18, 4
  13              		.file	"los_heap.c"
  14              		.text
  15              	.Ltext0:
  16              		.cfi_sections	.debug_frame
  17              		.section	.text.heap_init,"ax",%progbits
  18              		.align	1
  19              		.p2align 2,,3
  20              		.global	heap_init
  21              		.arch armv7e-m
  22              		.syntax unified
  23              		.thumb
  24              		.thumb_func
  25              		.fpu fpv4-sp-d16
  27              	heap_init:
  28              	.LVL0:
  29              	.LFB163:
  30              		.file 1 "D:/fchai/work/i-cube/I-CUBE-HUAWEI/Middlewares/Third_Party/Huawei/iot_link/os/liteos/base
   1:D:/fchai/work/i-cube/I-CUBE-HUAWEI/Middlewares/Third_Party/Huawei/iot_link/os/liteos/base/mem/heap\los_heap.c **** /*----------------------------------------------------------------------------
   2:D:/fchai/work/i-cube/I-CUBE-HUAWEI/Middlewares/Third_Party/Huawei/iot_link/os/liteos/base/mem/heap\los_heap.c ****  * Copyright (c) <2013-2015>, <Huawei Technologies Co., Ltd>
   3:D:/fchai/work/i-cube/I-CUBE-HUAWEI/Middlewares/Third_Party/Huawei/iot_link/os/liteos/base/mem/heap\los_heap.c ****  * All rights reserved.
   4:D:/fchai/work/i-cube/I-CUBE-HUAWEI/Middlewares/Third_Party/Huawei/iot_link/os/liteos/base/mem/heap\los_heap.c ****  * Redistribution and use in source and binary forms, with or without modification,
   5:D:/fchai/work/i-cube/I-CUBE-HUAWEI/Middlewares/Third_Party/Huawei/iot_link/os/liteos/base/mem/heap\los_heap.c ****  * are permitted provided that the following conditions are met:
   6:D:/fchai/work/i-cube/I-CUBE-HUAWEI/Middlewares/Third_Party/Huawei/iot_link/os/liteos/base/mem/heap\los_heap.c ****  * 1. Redistributions of source code must retain the above copyright notice, this list of
   7:D:/fchai/work/i-cube/I-CUBE-HUAWEI/Middlewares/Third_Party/Huawei/iot_link/os/liteos/base/mem/heap\los_heap.c ****  * conditions and the following disclaimer.
   8:D:/fchai/work/i-cube/I-CUBE-HUAWEI/Middlewares/Third_Party/Huawei/iot_link/os/liteos/base/mem/heap\los_heap.c ****  * 2. Redistributions in binary form must reproduce the above copyright notice, this list
   9:D:/fchai/work/i-cube/I-CUBE-HUAWEI/Middlewares/Third_Party/Huawei/iot_link/os/liteos/base/mem/heap\los_heap.c ****  * of conditions and the following disclaimer in the documentation and/or other materials
  10:D:/fchai/work/i-cube/I-CUBE-HUAWEI/Middlewares/Third_Party/Huawei/iot_link/os/liteos/base/mem/heap\los_heap.c ****  * provided with the distribution.
  11:D:/fchai/work/i-cube/I-CUBE-HUAWEI/Middlewares/Third_Party/Huawei/iot_link/os/liteos/base/mem/heap\los_heap.c ****  * 3. Neither the name of the copyright holder nor the names of its contributors may be used
  12:D:/fchai/work/i-cube/I-CUBE-HUAWEI/Middlewares/Third_Party/Huawei/iot_link/os/liteos/base/mem/heap\los_heap.c ****  * to endorse or promote products derived from this software without specific prior written
  13:D:/fchai/work/i-cube/I-CUBE-HUAWEI/Middlewares/Third_Party/Huawei/iot_link/os/liteos/base/mem/heap\los_heap.c ****  * permission.
  14:D:/fchai/work/i-cube/I-CUBE-HUAWEI/Middlewares/Third_Party/Huawei/iot_link/os/liteos/base/mem/heap\los_heap.c ****  * THIS SOFTWARE IS PROVIDED BY THE COPYRIGHT HOLDERS AND CONTRIBUTORS
  15:D:/fchai/work/i-cube/I-CUBE-HUAWEI/Middlewares/Third_Party/Huawei/iot_link/os/liteos/base/mem/heap\los_heap.c ****  * "AS IS" AND ANY EXPRESS OR IMPLIED WARRANTIES, INCLUDING, BUT NOT LIMITED TO,
  16:D:/fchai/work/i-cube/I-CUBE-HUAWEI/Middlewares/Third_Party/Huawei/iot_link/os/liteos/base/mem/heap\los_heap.c ****  * THE IMPLIED WARRANTIES OF MERCHANTABILITY AND FITNESS FOR A PARTICULAR
  17:D:/fchai/work/i-cube/I-CUBE-HUAWEI/Middlewares/Third_Party/Huawei/iot_link/os/liteos/base/mem/heap\los_heap.c ****  * PURPOSE ARE DISCLAIMED. IN NO EVENT SHALL THE COPYRIGHT HOLDER OR
  18:D:/fchai/work/i-cube/I-CUBE-HUAWEI/Middlewares/Third_Party/Huawei/iot_link/os/liteos/base/mem/heap\los_heap.c ****  * CONTRIBUTORS BE LIABLE FOR ANY DIRECT, INDIRECT, INCIDENTAL, SPECIAL,
  19:D:/fchai/work/i-cube/I-CUBE-HUAWEI/Middlewares/Third_Party/Huawei/iot_link/os/liteos/base/mem/heap\los_heap.c ****  * EXEMPLARY, OR CONSEQUENTIAL DAMAGES (INCLUDING, BUT NOT LIMITED TO,
  20:D:/fchai/work/i-cube/I-CUBE-HUAWEI/Middlewares/Third_Party/Huawei/iot_link/os/liteos/base/mem/heap\los_heap.c ****  * PROCUREMENT OF SUBSTITUTE GOODS OR SERVICES; LOSS OF USE, DATA, OR PROFITS;
  21:D:/fchai/work/i-cube/I-CUBE-HUAWEI/Middlewares/Third_Party/Huawei/iot_link/os/liteos/base/mem/heap\los_heap.c ****  * OR BUSINESS INTERRUPTION) HOWEVER CAUSED AND ON ANY THEORY OF LIABILITY,
  22:D:/fchai/work/i-cube/I-CUBE-HUAWEI/Middlewares/Third_Party/Huawei/iot_link/os/liteos/base/mem/heap\los_heap.c ****  * WHETHER IN CONTRACT, STRICT LIABILITY, OR TORT (INCLUDING NEGLIGENCE OR
  23:D:/fchai/work/i-cube/I-CUBE-HUAWEI/Middlewares/Third_Party/Huawei/iot_link/os/liteos/base/mem/heap\los_heap.c ****  * OTHERWISE) ARISING IN ANY WAY OUT OF THE USE OF THIS SOFTWARE, EVEN IF
  24:D:/fchai/work/i-cube/I-CUBE-HUAWEI/Middlewares/Third_Party/Huawei/iot_link/os/liteos/base/mem/heap\los_heap.c ****  * ADVISED OF THE POSSIBILITY OF SUCH DAMAGE.
  25:D:/fchai/work/i-cube/I-CUBE-HUAWEI/Middlewares/Third_Party/Huawei/iot_link/os/liteos/base/mem/heap\los_heap.c ****  *---------------------------------------------------------------------------*/
  26:D:/fchai/work/i-cube/I-CUBE-HUAWEI/Middlewares/Third_Party/Huawei/iot_link/os/liteos/base/mem/heap\los_heap.c **** /*----------------------------------------------------------------------------
  27:D:/fchai/work/i-cube/I-CUBE-HUAWEI/Middlewares/Third_Party/Huawei/iot_link/os/liteos/base/mem/heap\los_heap.c ****  * Notice of Export Control Law
  28:D:/fchai/work/i-cube/I-CUBE-HUAWEI/Middlewares/Third_Party/Huawei/iot_link/os/liteos/base/mem/heap\los_heap.c ****  * ===============================================
ARM GAS  T:\msys\tmp\ccHTo37l.s 			page 2


  29:D:/fchai/work/i-cube/I-CUBE-HUAWEI/Middlewares/Third_Party/Huawei/iot_link/os/liteos/base/mem/heap\los_heap.c ****  * Huawei LiteOS may be subject to applicable export control laws and regulations, which might
  30:D:/fchai/work/i-cube/I-CUBE-HUAWEI/Middlewares/Third_Party/Huawei/iot_link/os/liteos/base/mem/heap\los_heap.c ****  * include those applicable to Huawei LiteOS of U.S. and the country in which you are located.
  31:D:/fchai/work/i-cube/I-CUBE-HUAWEI/Middlewares/Third_Party/Huawei/iot_link/os/liteos/base/mem/heap\los_heap.c ****  * Import, export and usage of Huawei LiteOS in any manner by you shall be in compliance with such
  32:D:/fchai/work/i-cube/I-CUBE-HUAWEI/Middlewares/Third_Party/Huawei/iot_link/os/liteos/base/mem/heap\los_heap.c ****  * applicable export control laws and regulations.
  33:D:/fchai/work/i-cube/I-CUBE-HUAWEI/Middlewares/Third_Party/Huawei/iot_link/os/liteos/base/mem/heap\los_heap.c ****  *---------------------------------------------------------------------------*/
  34:D:/fchai/work/i-cube/I-CUBE-HUAWEI/Middlewares/Third_Party/Huawei/iot_link/os/liteos/base/mem/heap\los_heap.c **** 
  35:D:/fchai/work/i-cube/I-CUBE-HUAWEI/Middlewares/Third_Party/Huawei/iot_link/os/liteos/base/mem/heap\los_heap.c **** #include <los_config.h>
  36:D:/fchai/work/i-cube/I-CUBE-HUAWEI/Middlewares/Third_Party/Huawei/iot_link/os/liteos/base/mem/heap\los_heap.c **** #include <los_printf.h>
  37:D:/fchai/work/i-cube/I-CUBE-HUAWEI/Middlewares/Third_Party/Huawei/iot_link/os/liteos/base/mem/heap\los_heap.c **** 
  38:D:/fchai/work/i-cube/I-CUBE-HUAWEI/Middlewares/Third_Party/Huawei/iot_link/os/liteos/base/mem/heap\los_heap.c **** #if (LOSCFG_HEAP_IMPROVED == YES)
  39:D:/fchai/work/i-cube/I-CUBE-HUAWEI/Middlewares/Third_Party/Huawei/iot_link/os/liteos/base/mem/heap\los_heap.c **** 
  40:D:/fchai/work/i-cube/I-CUBE-HUAWEI/Middlewares/Third_Party/Huawei/iot_link/os/liteos/base/mem/heap\los_heap.c **** #include <string.h>
  41:D:/fchai/work/i-cube/I-CUBE-HUAWEI/Middlewares/Third_Party/Huawei/iot_link/os/liteos/base/mem/heap\los_heap.c **** 
  42:D:/fchai/work/i-cube/I-CUBE-HUAWEI/Middlewares/Third_Party/Huawei/iot_link/os/liteos/base/mem/heap\los_heap.c **** #include <heap.h>
  43:D:/fchai/work/i-cube/I-CUBE-HUAWEI/Middlewares/Third_Party/Huawei/iot_link/os/liteos/base/mem/heap\los_heap.c **** #include <mem.h>
  44:D:/fchai/work/i-cube/I-CUBE-HUAWEI/Middlewares/Third_Party/Huawei/iot_link/os/liteos/base/mem/heap\los_heap.c **** 
  45:D:/fchai/work/i-cube/I-CUBE-HUAWEI/Middlewares/Third_Party/Huawei/iot_link/os/liteos/base/mem/heap\los_heap.c **** static inline int __put_chunk (heap_t * heap, chunk_t * chunk)
  46:D:/fchai/work/i-cube/I-CUBE-HUAWEI/Middlewares/Third_Party/Huawei/iot_link/os/liteos/base/mem/heap\los_heap.c **** {
  47:D:/fchai/work/i-cube/I-CUBE-HUAWEI/Middlewares/Third_Party/Huawei/iot_link/os/liteos/base/mem/heap\los_heap.c ****     if (__cm_put_chunk (&heap->cm, chunk) != 0)
  48:D:/fchai/work/i-cube/I-CUBE-HUAWEI/Middlewares/Third_Party/Huawei/iot_link/os/liteos/base/mem/heap\los_heap.c ****     {
  49:D:/fchai/work/i-cube/I-CUBE-HUAWEI/Middlewares/Third_Party/Huawei/iot_link/os/liteos/base/mem/heap\los_heap.c ****         return -1;
  50:D:/fchai/work/i-cube/I-CUBE-HUAWEI/Middlewares/Third_Party/Huawei/iot_link/os/liteos/base/mem/heap\los_heap.c ****     }
  51:D:/fchai/work/i-cube/I-CUBE-HUAWEI/Middlewares/Third_Party/Huawei/iot_link/os/liteos/base/mem/heap\los_heap.c **** 
  52:D:/fchai/work/i-cube/I-CUBE-HUAWEI/Middlewares/Third_Party/Huawei/iot_link/os/liteos/base/mem/heap\los_heap.c **** #if (LOSCFG_MEM_STATISTICS == YES)
  53:D:/fchai/work/i-cube/I-CUBE-HUAWEI/Middlewares/Third_Party/Huawei/iot_link/os/liteos/base/mem/heap\los_heap.c ****     __stat_chunk_add (&heap->stat, chunk);
  54:D:/fchai/work/i-cube/I-CUBE-HUAWEI/Middlewares/Third_Party/Huawei/iot_link/os/liteos/base/mem/heap\los_heap.c **** #endif
  55:D:/fchai/work/i-cube/I-CUBE-HUAWEI/Middlewares/Third_Party/Huawei/iot_link/os/liteos/base/mem/heap\los_heap.c **** 
  56:D:/fchai/work/i-cube/I-CUBE-HUAWEI/Middlewares/Third_Party/Huawei/iot_link/os/liteos/base/mem/heap\los_heap.c ****     return 0;
  57:D:/fchai/work/i-cube/I-CUBE-HUAWEI/Middlewares/Third_Party/Huawei/iot_link/os/liteos/base/mem/heap\los_heap.c **** }
  58:D:/fchai/work/i-cube/I-CUBE-HUAWEI/Middlewares/Third_Party/Huawei/iot_link/os/liteos/base/mem/heap\los_heap.c **** 
  59:D:/fchai/work/i-cube/I-CUBE-HUAWEI/Middlewares/Third_Party/Huawei/iot_link/os/liteos/base/mem/heap\los_heap.c **** static inline void __del_chunk (heap_t * heap, chunk_t * chunk)
  60:D:/fchai/work/i-cube/I-CUBE-HUAWEI/Middlewares/Third_Party/Huawei/iot_link/os/liteos/base/mem/heap\los_heap.c **** {
  61:D:/fchai/work/i-cube/I-CUBE-HUAWEI/Middlewares/Third_Party/Huawei/iot_link/os/liteos/base/mem/heap\los_heap.c ****     __cm_del_chunk (&heap->cm, chunk);
  62:D:/fchai/work/i-cube/I-CUBE-HUAWEI/Middlewares/Third_Party/Huawei/iot_link/os/liteos/base/mem/heap\los_heap.c **** 
  63:D:/fchai/work/i-cube/I-CUBE-HUAWEI/Middlewares/Third_Party/Huawei/iot_link/os/liteos/base/mem/heap\los_heap.c **** #if (LOSCFG_MEM_STATISTICS == YES)
  64:D:/fchai/work/i-cube/I-CUBE-HUAWEI/Middlewares/Third_Party/Huawei/iot_link/os/liteos/base/mem/heap\los_heap.c ****     __stat_chunk_del (&heap->stat, chunk);
  65:D:/fchai/work/i-cube/I-CUBE-HUAWEI/Middlewares/Third_Party/Huawei/iot_link/os/liteos/base/mem/heap\los_heap.c **** #endif
  66:D:/fchai/work/i-cube/I-CUBE-HUAWEI/Middlewares/Third_Party/Huawei/iot_link/os/liteos/base/mem/heap\los_heap.c **** }
  67:D:/fchai/work/i-cube/I-CUBE-HUAWEI/Middlewares/Third_Party/Huawei/iot_link/os/liteos/base/mem/heap\los_heap.c **** 
  68:D:/fchai/work/i-cube/I-CUBE-HUAWEI/Middlewares/Third_Party/Huawei/iot_link/os/liteos/base/mem/heap\los_heap.c **** static inline chunk_t * __get_chunk (heap_t * heap, size_t size)
  69:D:/fchai/work/i-cube/I-CUBE-HUAWEI/Middlewares/Third_Party/Huawei/iot_link/os/liteos/base/mem/heap\los_heap.c **** {
  70:D:/fchai/work/i-cube/I-CUBE-HUAWEI/Middlewares/Third_Party/Huawei/iot_link/os/liteos/base/mem/heap\los_heap.c ****     chunk_t * chunk = __cm_get_chunk (&heap->cm, size);
  71:D:/fchai/work/i-cube/I-CUBE-HUAWEI/Middlewares/Third_Party/Huawei/iot_link/os/liteos/base/mem/heap\los_heap.c **** 
  72:D:/fchai/work/i-cube/I-CUBE-HUAWEI/Middlewares/Third_Party/Huawei/iot_link/os/liteos/base/mem/heap\los_heap.c ****     if (chunk != NULL)
  73:D:/fchai/work/i-cube/I-CUBE-HUAWEI/Middlewares/Third_Party/Huawei/iot_link/os/liteos/base/mem/heap\los_heap.c ****     {
  74:D:/fchai/work/i-cube/I-CUBE-HUAWEI/Middlewares/Third_Party/Huawei/iot_link/os/liteos/base/mem/heap\los_heap.c ****         __del_chunk (heap, chunk);
  75:D:/fchai/work/i-cube/I-CUBE-HUAWEI/Middlewares/Third_Party/Huawei/iot_link/os/liteos/base/mem/heap\los_heap.c ****     }
  76:D:/fchai/work/i-cube/I-CUBE-HUAWEI/Middlewares/Third_Party/Huawei/iot_link/os/liteos/base/mem/heap\los_heap.c **** 
  77:D:/fchai/work/i-cube/I-CUBE-HUAWEI/Middlewares/Third_Party/Huawei/iot_link/os/liteos/base/mem/heap\los_heap.c ****     return chunk;
  78:D:/fchai/work/i-cube/I-CUBE-HUAWEI/Middlewares/Third_Party/Huawei/iot_link/os/liteos/base/mem/heap\los_heap.c **** }
  79:D:/fchai/work/i-cube/I-CUBE-HUAWEI/Middlewares/Third_Party/Huawei/iot_link/os/liteos/base/mem/heap\los_heap.c **** 
  80:D:/fchai/work/i-cube/I-CUBE-HUAWEI/Middlewares/Third_Party/Huawei/iot_link/os/liteos/base/mem/heap\los_heap.c **** /**
  81:D:/fchai/work/i-cube/I-CUBE-HUAWEI/Middlewares/Third_Party/Huawei/iot_link/os/liteos/base/mem/heap\los_heap.c ****  * heap_init - initialize a heap struct
  82:D:/fchai/work/i-cube/I-CUBE-HUAWEI/Middlewares/Third_Party/Huawei/iot_link/os/liteos/base/mem/heap\los_heap.c ****  * @heap: the given heap
  83:D:/fchai/work/i-cube/I-CUBE-HUAWEI/Middlewares/Third_Party/Huawei/iot_link/os/liteos/base/mem/heap\los_heap.c ****  *
  84:D:/fchai/work/i-cube/I-CUBE-HUAWEI/Middlewares/Third_Party/Huawei/iot_link/os/liteos/base/mem/heap\los_heap.c ****  * return: 0 on success, negtive value on error
  85:D:/fchai/work/i-cube/I-CUBE-HUAWEI/Middlewares/Third_Party/Huawei/iot_link/os/liteos/base/mem/heap\los_heap.c ****  */
ARM GAS  T:\msys\tmp\ccHTo37l.s 			page 3


  86:D:/fchai/work/i-cube/I-CUBE-HUAWEI/Middlewares/Third_Party/Huawei/iot_link/os/liteos/base/mem/heap\los_heap.c **** 
  87:D:/fchai/work/i-cube/I-CUBE-HUAWEI/Middlewares/Third_Party/Huawei/iot_link/os/liteos/base/mem/heap\los_heap.c **** int heap_init (heap_t * heap)
  88:D:/fchai/work/i-cube/I-CUBE-HUAWEI/Middlewares/Third_Party/Huawei/iot_link/os/liteos/base/mem/heap\los_heap.c **** {
  31              		.loc 1 88 1 view -0
  32              		.cfi_startproc
  33              		@ args = 0, pretend = 0, frame = 0
  34              		@ frame_needed = 0, uses_anonymous_args = 0
  89:D:/fchai/work/i-cube/I-CUBE-HUAWEI/Middlewares/Third_Party/Huawei/iot_link/os/liteos/base/mem/heap\los_heap.c ****     UINT32 ret;
  35              		.loc 1 89 5 view .LVU1
  90:D:/fchai/work/i-cube/I-CUBE-HUAWEI/Middlewares/Third_Party/Huawei/iot_link/os/liteos/base/mem/heap\los_heap.c **** 
  91:D:/fchai/work/i-cube/I-CUBE-HUAWEI/Middlewares/Third_Party/Huawei/iot_link/os/liteos/base/mem/heap\los_heap.c ****     if (heap == NULL)
  36              		.loc 1 91 5 view .LVU2
  37              		.loc 1 91 8 is_stmt 0 view .LVU3
  38 0000 58B1     		cbz	r0, .L3
  92:D:/fchai/work/i-cube/I-CUBE-HUAWEI/Middlewares/Third_Party/Huawei/iot_link/os/liteos/base/mem/heap\los_heap.c ****     {
  93:D:/fchai/work/i-cube/I-CUBE-HUAWEI/Middlewares/Third_Party/Huawei/iot_link/os/liteos/base/mem/heap\los_heap.c ****         return -1;
  94:D:/fchai/work/i-cube/I-CUBE-HUAWEI/Middlewares/Third_Party/Huawei/iot_link/os/liteos/base/mem/heap\los_heap.c ****     }
  95:D:/fchai/work/i-cube/I-CUBE-HUAWEI/Middlewares/Third_Party/Huawei/iot_link/os/liteos/base/mem/heap\los_heap.c **** 
  96:D:/fchai/work/i-cube/I-CUBE-HUAWEI/Middlewares/Third_Party/Huawei/iot_link/os/liteos/base/mem/heap\los_heap.c ****     memset (heap, 0, sizeof (heap_t));
  39              		.loc 1 96 5 is_stmt 1 view .LVU4
  88:D:/fchai/work/i-cube/I-CUBE-HUAWEI/Middlewares/Third_Party/Huawei/iot_link/os/liteos/base/mem/heap\los_heap.c ****     UINT32 ret;
  40              		.loc 1 88 1 is_stmt 0 view .LVU5
  41 0002 10B5     		push	{r4, lr}
  42              	.LCFI0:
  43              		.cfi_def_cfa_offset 8
  44              		.cfi_offset 4, -8
  45              		.cfi_offset 14, -4
  46              		.loc 1 96 5 view .LVU6
  47 0004 4FF40C72 		mov	r2, #560
  48 0008 0446     		mov	r4, r0
  49 000a 0021     		movs	r1, #0
  50 000c FFF7FEFF 		bl	memset
  51              	.LVL1:
  97:D:/fchai/work/i-cube/I-CUBE-HUAWEI/Middlewares/Third_Party/Huawei/iot_link/os/liteos/base/mem/heap\los_heap.c **** 
  98:D:/fchai/work/i-cube/I-CUBE-HUAWEI/Middlewares/Third_Party/Huawei/iot_link/os/liteos/base/mem/heap\los_heap.c ****     ret = LOS_MuxCreate (&heap->mux);
  52              		.loc 1 98 5 is_stmt 1 view .LVU7
  53              		.loc 1 98 11 is_stmt 0 view .LVU8
  54 0010 04F5DA70 		add	r0, r4, #436
  55 0014 FFF7FEFF 		bl	LOS_MuxCreate
  56              	.LVL2:
  99:D:/fchai/work/i-cube/I-CUBE-HUAWEI/Middlewares/Third_Party/Huawei/iot_link/os/liteos/base/mem/heap\los_heap.c **** 
 100:D:/fchai/work/i-cube/I-CUBE-HUAWEI/Middlewares/Third_Party/Huawei/iot_link/os/liteos/base/mem/heap\los_heap.c ****     if (ret != LOS_OK)
  57              		.loc 1 100 5 is_stmt 1 view .LVU9
 101:D:/fchai/work/i-cube/I-CUBE-HUAWEI/Middlewares/Third_Party/Huawei/iot_link/os/liteos/base/mem/heap\los_heap.c ****     {
 102:D:/fchai/work/i-cube/I-CUBE-HUAWEI/Middlewares/Third_Party/Huawei/iot_link/os/liteos/base/mem/heap\los_heap.c ****         return ret;
 103:D:/fchai/work/i-cube/I-CUBE-HUAWEI/Middlewares/Third_Party/Huawei/iot_link/os/liteos/base/mem/heap\los_heap.c ****     }
 104:D:/fchai/work/i-cube/I-CUBE-HUAWEI/Middlewares/Third_Party/Huawei/iot_link/os/liteos/base/mem/heap\los_heap.c **** 
 105:D:/fchai/work/i-cube/I-CUBE-HUAWEI/Middlewares/Third_Party/Huawei/iot_link/os/liteos/base/mem/heap\los_heap.c ****     __cm_init (&heap->cm);
 106:D:/fchai/work/i-cube/I-CUBE-HUAWEI/Middlewares/Third_Party/Huawei/iot_link/os/liteos/base/mem/heap\los_heap.c **** 
 107:D:/fchai/work/i-cube/I-CUBE-HUAWEI/Middlewares/Third_Party/Huawei/iot_link/os/liteos/base/mem/heap\los_heap.c ****     return LOS_OK;
 108:D:/fchai/work/i-cube/I-CUBE-HUAWEI/Middlewares/Third_Party/Huawei/iot_link/os/liteos/base/mem/heap\los_heap.c **** }
  58              		.loc 1 108 1 is_stmt 0 view .LVU10
  59 0018 10BD     		pop	{r4, pc}
  60              	.LVL3:
  61              	.L3:
  62              	.LCFI1:
  63              		.cfi_def_cfa_offset 0
ARM GAS  T:\msys\tmp\ccHTo37l.s 			page 4


  64              		.cfi_restore 4
  65              		.cfi_restore 14
  93:D:/fchai/work/i-cube/I-CUBE-HUAWEI/Middlewares/Third_Party/Huawei/iot_link/os/liteos/base/mem/heap\los_heap.c ****     }
  66              		.loc 1 93 16 view .LVU11
  67 001a 4FF0FF30 		mov	r0, #-1
  68              	.LVL4:
  69              		.loc 1 108 1 view .LVU12
  70 001e 7047     		bx	lr
  71              		.cfi_endproc
  72              	.LFE163:
  74              		.section	.text.heap_add,"ax",%progbits
  75              		.align	1
  76              		.p2align 2,,3
  77              		.global	heap_add
  78              		.syntax unified
  79              		.thumb
  80              		.thumb_func
  81              		.fpu fpv4-sp-d16
  83              	heap_add:
  84              	.LVL5:
  85              	.LFB164:
 109:D:/fchai/work/i-cube/I-CUBE-HUAWEI/Middlewares/Third_Party/Huawei/iot_link/os/liteos/base/mem/heap\los_heap.c **** 
 110:D:/fchai/work/i-cube/I-CUBE-HUAWEI/Middlewares/Third_Party/Huawei/iot_link/os/liteos/base/mem/heap\los_heap.c **** /**
 111:D:/fchai/work/i-cube/I-CUBE-HUAWEI/Middlewares/Third_Party/Huawei/iot_link/os/liteos/base/mem/heap\los_heap.c ****  * heap_add - add a block of memory to a heap
 112:D:/fchai/work/i-cube/I-CUBE-HUAWEI/Middlewares/Third_Party/Huawei/iot_link/os/liteos/base/mem/heap\los_heap.c ****  * @heap: the heap to add in
 113:D:/fchai/work/i-cube/I-CUBE-HUAWEI/Middlewares/Third_Party/Huawei/iot_link/os/liteos/base/mem/heap\los_heap.c ****  * @buff: the memory address to add
 114:D:/fchai/work/i-cube/I-CUBE-HUAWEI/Middlewares/Third_Party/Huawei/iot_link/os/liteos/base/mem/heap\los_heap.c ****  * @size: the memory block size
 115:D:/fchai/work/i-cube/I-CUBE-HUAWEI/Middlewares/Third_Party/Huawei/iot_link/os/liteos/base/mem/heap\los_heap.c ****  *
 116:D:/fchai/work/i-cube/I-CUBE-HUAWEI/Middlewares/Third_Party/Huawei/iot_link/os/liteos/base/mem/heap\los_heap.c ****  * return: 0 on success, negtive value on error
 117:D:/fchai/work/i-cube/I-CUBE-HUAWEI/Middlewares/Third_Party/Huawei/iot_link/os/liteos/base/mem/heap\los_heap.c ****  */
 118:D:/fchai/work/i-cube/I-CUBE-HUAWEI/Middlewares/Third_Party/Huawei/iot_link/os/liteos/base/mem/heap\los_heap.c **** 
 119:D:/fchai/work/i-cube/I-CUBE-HUAWEI/Middlewares/Third_Party/Huawei/iot_link/os/liteos/base/mem/heap\los_heap.c **** int heap_add (heap_t * heap, char * buff, size_t size)
 120:D:/fchai/work/i-cube/I-CUBE-HUAWEI/Middlewares/Third_Party/Huawei/iot_link/os/liteos/base/mem/heap\los_heap.c **** {
  86              		.loc 1 120 1 is_stmt 1 view -0
  87              		.cfi_startproc
  88              		@ args = 0, pretend = 0, frame = 0
  89              		@ frame_needed = 0, uses_anonymous_args = 0
 121:D:/fchai/work/i-cube/I-CUBE-HUAWEI/Middlewares/Third_Party/Huawei/iot_link/os/liteos/base/mem/heap\los_heap.c ****     int       ret;
  90              		.loc 1 121 5 view .LVU14
 122:D:/fchai/work/i-cube/I-CUBE-HUAWEI/Middlewares/Third_Party/Huawei/iot_link/os/liteos/base/mem/heap\los_heap.c ****     block_t * cb;
  91              		.loc 1 122 5 view .LVU15
 123:D:/fchai/work/i-cube/I-CUBE-HUAWEI/Middlewares/Third_Party/Huawei/iot_link/os/liteos/base/mem/heap\los_heap.c ****     chunk_t * chunk, * last;
  92              		.loc 1 123 5 view .LVU16
 124:D:/fchai/work/i-cube/I-CUBE-HUAWEI/Middlewares/Third_Party/Huawei/iot_link/os/liteos/base/mem/heap\los_heap.c **** 
 125:D:/fchai/work/i-cube/I-CUBE-HUAWEI/Middlewares/Third_Party/Huawei/iot_link/os/liteos/base/mem/heap\los_heap.c ****     if ((heap == NULL) || (buff == NULL))
  93              		.loc 1 125 5 view .LVU17
 120:D:/fchai/work/i-cube/I-CUBE-HUAWEI/Middlewares/Third_Party/Huawei/iot_link/os/liteos/base/mem/heap\los_heap.c ****     int       ret;
  94              		.loc 1 120 1 is_stmt 0 view .LVU18
  95 0000 2DE9F041 		push	{r4, r5, r6, r7, r8, lr}
  96              	.LCFI2:
  97              		.cfi_def_cfa_offset 24
  98              		.cfi_offset 4, -24
  99              		.cfi_offset 5, -20
 100              		.cfi_offset 6, -16
 101              		.cfi_offset 7, -12
 102              		.cfi_offset 8, -8
 103              		.cfi_offset 14, -4
ARM GAS  T:\msys\tmp\ccHTo37l.s 			page 5


 104              		.loc 1 125 8 view .LVU19
 105 0004 0028     		cmp	r0, #0
 106 0006 75D0     		beq	.L13
 107 0008 0D46     		mov	r5, r1
 108              		.loc 1 125 24 discriminator 1 view .LVU20
 109 000a 0029     		cmp	r1, #0
 110 000c 72D0     		beq	.L13
 126:D:/fchai/work/i-cube/I-CUBE-HUAWEI/Middlewares/Third_Party/Huawei/iot_link/os/liteos/base/mem/heap\los_heap.c ****     {
 127:D:/fchai/work/i-cube/I-CUBE-HUAWEI/Middlewares/Third_Party/Huawei/iot_link/os/liteos/base/mem/heap\los_heap.c ****         return -1;
 128:D:/fchai/work/i-cube/I-CUBE-HUAWEI/Middlewares/Third_Party/Huawei/iot_link/os/liteos/base/mem/heap\los_heap.c ****     }
 129:D:/fchai/work/i-cube/I-CUBE-HUAWEI/Middlewares/Third_Party/Huawei/iot_link/os/liteos/base/mem/heap\los_heap.c **** 
 130:D:/fchai/work/i-cube/I-CUBE-HUAWEI/Middlewares/Third_Party/Huawei/iot_link/os/liteos/base/mem/heap\los_heap.c ****     size -= (uintptr_t) buff & ALLOC_ALIGN_MASK;
 111              		.loc 1 130 5 is_stmt 1 view .LVU21
 112              		.loc 1 130 30 is_stmt 0 view .LVU22
 113 000e 01F00304 		and	r4, r1, #3
 114              		.loc 1 130 10 view .LVU23
 115 0012 121B     		subs	r2, r2, r4
 116              	.LVL6:
 131:D:/fchai/work/i-cube/I-CUBE-HUAWEI/Middlewares/Third_Party/Huawei/iot_link/os/liteos/base/mem/heap\los_heap.c ****     size &= ~ALLOC_ALIGN_MASK;
 117              		.loc 1 131 5 is_stmt 1 view .LVU24
 132:D:/fchai/work/i-cube/I-CUBE-HUAWEI/Middlewares/Third_Party/Huawei/iot_link/os/liteos/base/mem/heap\los_heap.c ****     buff  = (char *) ((uintptr_t) buff & ~ALLOC_ALIGN_MASK);
 133:D:/fchai/work/i-cube/I-CUBE-HUAWEI/Middlewares/Third_Party/Huawei/iot_link/os/liteos/base/mem/heap\los_heap.c **** 
 134:D:/fchai/work/i-cube/I-CUBE-HUAWEI/Middlewares/Third_Party/Huawei/iot_link/os/liteos/base/mem/heap\los_heap.c ****     if (buff > (buff + size))
 135:D:/fchai/work/i-cube/I-CUBE-HUAWEI/Middlewares/Third_Party/Huawei/iot_link/os/liteos/base/mem/heap\los_heap.c ****     {
 136:D:/fchai/work/i-cube/I-CUBE-HUAWEI/Middlewares/Third_Party/Huawei/iot_link/os/liteos/base/mem/heap\los_heap.c ****         return -1;
 137:D:/fchai/work/i-cube/I-CUBE-HUAWEI/Middlewares/Third_Party/Huawei/iot_link/os/liteos/base/mem/heap\los_heap.c ****     }
 138:D:/fchai/work/i-cube/I-CUBE-HUAWEI/Middlewares/Third_Party/Huawei/iot_link/os/liteos/base/mem/heap\los_heap.c **** 
 139:D:/fchai/work/i-cube/I-CUBE-HUAWEI/Middlewares/Third_Party/Huawei/iot_link/os/liteos/base/mem/heap\los_heap.c ****     if (size < MIN_BLOCK_SIZE)
 118              		.loc 1 139 8 is_stmt 0 view .LVU25
 119 0014 394B     		ldr	r3, .L22
 131:D:/fchai/work/i-cube/I-CUBE-HUAWEI/Middlewares/Third_Party/Huawei/iot_link/os/liteos/base/mem/heap\los_heap.c ****     size &= ~ALLOC_ALIGN_MASK;
 120              		.loc 1 131 10 view .LVU26
 121 0016 22F00304 		bic	r4, r2, #3
 122              	.LVL7:
 132:D:/fchai/work/i-cube/I-CUBE-HUAWEI/Middlewares/Third_Party/Huawei/iot_link/os/liteos/base/mem/heap\los_heap.c ****     buff  = (char *) ((uintptr_t) buff & ~ALLOC_ALIGN_MASK);
 123              		.loc 1 132 5 is_stmt 1 view .LVU27
 134:D:/fchai/work/i-cube/I-CUBE-HUAWEI/Middlewares/Third_Party/Huawei/iot_link/os/liteos/base/mem/heap\los_heap.c ****     {
 124              		.loc 1 134 5 view .LVU28
 125              		.loc 1 139 5 view .LVU29
 126              		.loc 1 139 8 is_stmt 0 view .LVU30
 127 001a A4F12802 		sub	r2, r4, #40
 128 001e 9A42     		cmp	r2, r3
 129 0020 68D8     		bhi	.L13
 140:D:/fchai/work/i-cube/I-CUBE-HUAWEI/Middlewares/Third_Party/Huawei/iot_link/os/liteos/base/mem/heap\los_heap.c ****     {
 141:D:/fchai/work/i-cube/I-CUBE-HUAWEI/Middlewares/Third_Party/Huawei/iot_link/os/liteos/base/mem/heap\los_heap.c ****         return -1;
 142:D:/fchai/work/i-cube/I-CUBE-HUAWEI/Middlewares/Third_Party/Huawei/iot_link/os/liteos/base/mem/heap\los_heap.c ****     }
 143:D:/fchai/work/i-cube/I-CUBE-HUAWEI/Middlewares/Third_Party/Huawei/iot_link/os/liteos/base/mem/heap\los_heap.c **** 
 144:D:/fchai/work/i-cube/I-CUBE-HUAWEI/Middlewares/Third_Party/Huawei/iot_link/os/liteos/base/mem/heap\los_heap.c ****     ret = LOS_MuxPend (heap->mux, LOS_WAIT_FOREVER);
 130              		.loc 1 144 5 is_stmt 1 view .LVU31
 131 0022 0646     		mov	r6, r0
 132              		.loc 1 144 11 is_stmt 0 view .LVU32
 133 0024 4FF0FF31 		mov	r1, #-1
 134              	.LVL8:
 135              		.loc 1 144 11 view .LVU33
 136 0028 D0F8B401 		ldr	r0, [r0, #436]
 137              	.LVL9:
 138              		.loc 1 144 11 view .LVU34
ARM GAS  T:\msys\tmp\ccHTo37l.s 			page 6


 139 002c FFF7FEFF 		bl	LOS_MuxPend
 140              	.LVL10:
 145:D:/fchai/work/i-cube/I-CUBE-HUAWEI/Middlewares/Third_Party/Huawei/iot_link/os/liteos/base/mem/heap\los_heap.c **** 
 146:D:/fchai/work/i-cube/I-CUBE-HUAWEI/Middlewares/Third_Party/Huawei/iot_link/os/liteos/base/mem/heap\los_heap.c ****     if (ret != LOS_OK)
 141              		.loc 1 146 5 is_stmt 1 view .LVU35
 142              		.loc 1 146 8 is_stmt 0 view .LVU36
 143 0030 0746     		mov	r7, r0
 144 0032 10B1     		cbz	r0, .L20
 145              	.LVL11:
 146              	.L10:
 147:D:/fchai/work/i-cube/I-CUBE-HUAWEI/Middlewares/Third_Party/Huawei/iot_link/os/liteos/base/mem/heap\los_heap.c ****     {
 148:D:/fchai/work/i-cube/I-CUBE-HUAWEI/Middlewares/Third_Party/Huawei/iot_link/os/liteos/base/mem/heap\los_heap.c ****         return ret;
 149:D:/fchai/work/i-cube/I-CUBE-HUAWEI/Middlewares/Third_Party/Huawei/iot_link/os/liteos/base/mem/heap\los_heap.c ****     }
 150:D:/fchai/work/i-cube/I-CUBE-HUAWEI/Middlewares/Third_Party/Huawei/iot_link/os/liteos/base/mem/heap\los_heap.c **** 
 151:D:/fchai/work/i-cube/I-CUBE-HUAWEI/Middlewares/Third_Party/Huawei/iot_link/os/liteos/base/mem/heap\los_heap.c ****     /*
 152:D:/fchai/work/i-cube/I-CUBE-HUAWEI/Middlewares/Third_Party/Huawei/iot_link/os/liteos/base/mem/heap\los_heap.c ****      * this block of memory will be initialized as:
 153:D:/fchai/work/i-cube/I-CUBE-HUAWEI/Middlewares/Third_Party/Huawei/iot_link/os/liteos/base/mem/heap\los_heap.c ****      *
 154:D:/fchai/work/i-cube/I-CUBE-HUAWEI/Middlewares/Third_Party/Huawei/iot_link/os/liteos/base/mem/heap\los_heap.c ****      * +----+-----+-----+-----+
 155:D:/fchai/work/i-cube/I-CUBE-HUAWEI/Middlewares/Third_Party/Huawei/iot_link/os/liteos/base/mem/heap\los_heap.c ****      * | CB | ACH | FCH | ACH |
 156:D:/fchai/work/i-cube/I-CUBE-HUAWEI/Middlewares/Third_Party/Huawei/iot_link/os/liteos/base/mem/heap\los_heap.c ****      * +----+-----+-----+-----+
 157:D:/fchai/work/i-cube/I-CUBE-HUAWEI/Middlewares/Third_Party/Huawei/iot_link/os/liteos/base/mem/heap\los_heap.c ****      *
 158:D:/fchai/work/i-cube/I-CUBE-HUAWEI/Middlewares/Third_Party/Huawei/iot_link/os/liteos/base/mem/heap\los_heap.c ****      * CB  - chunk block
 159:D:/fchai/work/i-cube/I-CUBE-HUAWEI/Middlewares/Third_Party/Huawei/iot_link/os/liteos/base/mem/heap\los_heap.c ****      * ACH - allocated chunk header
 160:D:/fchai/work/i-cube/I-CUBE-HUAWEI/Middlewares/Third_Party/Huawei/iot_link/os/liteos/base/mem/heap\los_heap.c ****      * FCH - free chunk header
 161:D:/fchai/work/i-cube/I-CUBE-HUAWEI/Middlewares/Third_Party/Huawei/iot_link/os/liteos/base/mem/heap\los_heap.c ****      *
 162:D:/fchai/work/i-cube/I-CUBE-HUAWEI/Middlewares/Third_Party/Huawei/iot_link/os/liteos/base/mem/heap\los_heap.c ****      * These two ACH at the beginning and ending are guards.
 163:D:/fchai/work/i-cube/I-CUBE-HUAWEI/Middlewares/Third_Party/Huawei/iot_link/os/liteos/base/mem/heap\los_heap.c ****      */
 164:D:/fchai/work/i-cube/I-CUBE-HUAWEI/Middlewares/Third_Party/Huawei/iot_link/os/liteos/base/mem/heap\los_heap.c **** 
 165:D:/fchai/work/i-cube/I-CUBE-HUAWEI/Middlewares/Third_Party/Huawei/iot_link/os/liteos/base/mem/heap\los_heap.c ****     cb           = (block_t *) (buff);
 166:D:/fchai/work/i-cube/I-CUBE-HUAWEI/Middlewares/Third_Party/Huawei/iot_link/os/liteos/base/mem/heap\los_heap.c ****     cb->size     = size;
 167:D:/fchai/work/i-cube/I-CUBE-HUAWEI/Middlewares/Third_Party/Huawei/iot_link/os/liteos/base/mem/heap\los_heap.c **** 
 168:D:/fchai/work/i-cube/I-CUBE-HUAWEI/Middlewares/Third_Party/Huawei/iot_link/os/liteos/base/mem/heap\los_heap.c ****     cb->next     = heap->blocks;
 169:D:/fchai/work/i-cube/I-CUBE-HUAWEI/Middlewares/Third_Party/Huawei/iot_link/os/liteos/base/mem/heap\los_heap.c ****     heap->blocks = cb;
 170:D:/fchai/work/i-cube/I-CUBE-HUAWEI/Middlewares/Third_Party/Huawei/iot_link/os/liteos/base/mem/heap\los_heap.c **** 
 171:D:/fchai/work/i-cube/I-CUBE-HUAWEI/Middlewares/Third_Party/Huawei/iot_link/os/liteos/base/mem/heap\los_heap.c ****     chunk        = (chunk_t *) (cb + 1);
 172:D:/fchai/work/i-cube/I-CUBE-HUAWEI/Middlewares/Third_Party/Huawei/iot_link/os/liteos/base/mem/heap\los_heap.c **** 
 173:D:/fchai/work/i-cube/I-CUBE-HUAWEI/Middlewares/Third_Party/Huawei/iot_link/os/liteos/base/mem/heap\los_heap.c ****     chunk->prev  = NULL;
 174:D:/fchai/work/i-cube/I-CUBE-HUAWEI/Middlewares/Third_Party/Huawei/iot_link/os/liteos/base/mem/heap\los_heap.c ****     chunk->size  = sizeof (ach_t);
 175:D:/fchai/work/i-cube/I-CUBE-HUAWEI/Middlewares/Third_Party/Huawei/iot_link/os/liteos/base/mem/heap\los_heap.c ****     __set_chunk_allocated (chunk);
 176:D:/fchai/work/i-cube/I-CUBE-HUAWEI/Middlewares/Third_Party/Huawei/iot_link/os/liteos/base/mem/heap\los_heap.c **** 
 177:D:/fchai/work/i-cube/I-CUBE-HUAWEI/Middlewares/Third_Party/Huawei/iot_link/os/liteos/base/mem/heap\los_heap.c ****     chunk        = __get_next_chunk (chunk);
 178:D:/fchai/work/i-cube/I-CUBE-HUAWEI/Middlewares/Third_Party/Huawei/iot_link/os/liteos/base/mem/heap\los_heap.c ****     chunk->prev  = (chunk_t *) (cb + 1);
 179:D:/fchai/work/i-cube/I-CUBE-HUAWEI/Middlewares/Third_Party/Huawei/iot_link/os/liteos/base/mem/heap\los_heap.c ****     chunk->size  = (size - sizeof (block_t) - 2 * sizeof (ach_t));
 180:D:/fchai/work/i-cube/I-CUBE-HUAWEI/Middlewares/Third_Party/Huawei/iot_link/os/liteos/base/mem/heap\los_heap.c **** 
 181:D:/fchai/work/i-cube/I-CUBE-HUAWEI/Middlewares/Third_Party/Huawei/iot_link/os/liteos/base/mem/heap\los_heap.c ****     if (__put_chunk (heap, chunk) != 0)
 182:D:/fchai/work/i-cube/I-CUBE-HUAWEI/Middlewares/Third_Party/Huawei/iot_link/os/liteos/base/mem/heap\los_heap.c ****     {
 183:D:/fchai/work/i-cube/I-CUBE-HUAWEI/Middlewares/Third_Party/Huawei/iot_link/os/liteos/base/mem/heap\los_heap.c ****         return -1;
 184:D:/fchai/work/i-cube/I-CUBE-HUAWEI/Middlewares/Third_Party/Huawei/iot_link/os/liteos/base/mem/heap\los_heap.c ****     }
 185:D:/fchai/work/i-cube/I-CUBE-HUAWEI/Middlewares/Third_Party/Huawei/iot_link/os/liteos/base/mem/heap\los_heap.c **** 
 186:D:/fchai/work/i-cube/I-CUBE-HUAWEI/Middlewares/Third_Party/Huawei/iot_link/os/liteos/base/mem/heap\los_heap.c ****     last         = __get_next_chunk (chunk);
 187:D:/fchai/work/i-cube/I-CUBE-HUAWEI/Middlewares/Third_Party/Huawei/iot_link/os/liteos/base/mem/heap\los_heap.c **** 
 188:D:/fchai/work/i-cube/I-CUBE-HUAWEI/Middlewares/Third_Party/Huawei/iot_link/os/liteos/base/mem/heap\los_heap.c ****     last->prev   = chunk;
 189:D:/fchai/work/i-cube/I-CUBE-HUAWEI/Middlewares/Third_Party/Huawei/iot_link/os/liteos/base/mem/heap\los_heap.c ****     last->size   = sizeof (ach_t);
 190:D:/fchai/work/i-cube/I-CUBE-HUAWEI/Middlewares/Third_Party/Huawei/iot_link/os/liteos/base/mem/heap\los_heap.c ****     __set_chunk_allocated (last);
 191:D:/fchai/work/i-cube/I-CUBE-HUAWEI/Middlewares/Third_Party/Huawei/iot_link/os/liteos/base/mem/heap\los_heap.c **** 
 192:D:/fchai/work/i-cube/I-CUBE-HUAWEI/Middlewares/Third_Party/Huawei/iot_link/os/liteos/base/mem/heap\los_heap.c ****     (void) LOS_MuxPost (heap->mux);
 193:D:/fchai/work/i-cube/I-CUBE-HUAWEI/Middlewares/Third_Party/Huawei/iot_link/os/liteos/base/mem/heap\los_heap.c **** 
ARM GAS  T:\msys\tmp\ccHTo37l.s 			page 7


 194:D:/fchai/work/i-cube/I-CUBE-HUAWEI/Middlewares/Third_Party/Huawei/iot_link/os/liteos/base/mem/heap\los_heap.c ****     return 0;
 195:D:/fchai/work/i-cube/I-CUBE-HUAWEI/Middlewares/Third_Party/Huawei/iot_link/os/liteos/base/mem/heap\los_heap.c **** }
 147              		.loc 1 195 1 view .LVU37
 148 0034 3846     		mov	r0, r7
 149 0036 BDE8F081 		pop	{r4, r5, r6, r7, r8, pc}
 150              	.LVL12:
 151              	.L20:
 132:D:/fchai/work/i-cube/I-CUBE-HUAWEI/Middlewares/Third_Party/Huawei/iot_link/os/liteos/base/mem/heap\los_heap.c **** 
 152              		.loc 1 132 40 view .LVU38
 153 003a 25F00301 		bic	r1, r5, #3
 165:D:/fchai/work/i-cube/I-CUBE-HUAWEI/Middlewares/Third_Party/Huawei/iot_link/os/liteos/base/mem/heap\los_heap.c ****     cb->size     = size;
 154              		.loc 1 165 5 is_stmt 1 view .LVU39
 155              	.LVL13:
 166:D:/fchai/work/i-cube/I-CUBE-HUAWEI/Middlewares/Third_Party/Huawei/iot_link/os/liteos/base/mem/heap\los_heap.c **** 
 156              		.loc 1 166 5 view .LVU40
 179:D:/fchai/work/i-cube/I-CUBE-HUAWEI/Middlewares/Third_Party/Huawei/iot_link/os/liteos/base/mem/heap\los_heap.c **** 
 157              		.loc 1 179 45 is_stmt 0 view .LVU41
 158 003e A4F11802 		sub	r2, r4, #24
 168:D:/fchai/work/i-cube/I-CUBE-HUAWEI/Middlewares/Third_Party/Huawei/iot_link/os/liteos/base/mem/heap\los_heap.c ****     heap->blocks = cb;
 159              		.loc 1 168 18 view .LVU42
 160 0042 D6F8B001 		ldr	r0, [r6, #432]
 161              	.LVL14:
 168:D:/fchai/work/i-cube/I-CUBE-HUAWEI/Middlewares/Third_Party/Huawei/iot_link/os/liteos/base/mem/heap\los_heap.c ****     heap->blocks = cb;
 162              		.loc 1 168 18 view .LVU43
 163 0046 0860     		str	r0, [r1]
 164              	.LBB124:
 165              	.LBB125:
 166              	.LBB126:
 167              	.LBB127:
 168              	.LBB128:
 169              		.file 2 "D:/fchai/work/i-cube/I-CUBE-HUAWEI/Middlewares/Third_Party/Huawei/iot_link/os/liteos/base
   1:D:/fchai/work/i-cube/I-CUBE-HUAWEI/Middlewares/Third_Party/Huawei/iot_link/os/liteos/base/include\cm-tlsf.h **** /*----------------------------------------------------------------------------
   2:D:/fchai/work/i-cube/I-CUBE-HUAWEI/Middlewares/Third_Party/Huawei/iot_link/os/liteos/base/include\cm-tlsf.h ****  * Copyright (c) <2018>, <Huawei Technologies Co., Ltd>
   3:D:/fchai/work/i-cube/I-CUBE-HUAWEI/Middlewares/Third_Party/Huawei/iot_link/os/liteos/base/include\cm-tlsf.h ****  * All rights reserved.
   4:D:/fchai/work/i-cube/I-CUBE-HUAWEI/Middlewares/Third_Party/Huawei/iot_link/os/liteos/base/include\cm-tlsf.h ****  * Redistribution and use in source and binary forms, with or without modification,
   5:D:/fchai/work/i-cube/I-CUBE-HUAWEI/Middlewares/Third_Party/Huawei/iot_link/os/liteos/base/include\cm-tlsf.h ****  * are permitted provided that the following conditions are met:
   6:D:/fchai/work/i-cube/I-CUBE-HUAWEI/Middlewares/Third_Party/Huawei/iot_link/os/liteos/base/include\cm-tlsf.h ****  * 1. Redistributions of source code must retain the above copyright notice, this list of
   7:D:/fchai/work/i-cube/I-CUBE-HUAWEI/Middlewares/Third_Party/Huawei/iot_link/os/liteos/base/include\cm-tlsf.h ****  * conditions and the following disclaimer.
   8:D:/fchai/work/i-cube/I-CUBE-HUAWEI/Middlewares/Third_Party/Huawei/iot_link/os/liteos/base/include\cm-tlsf.h ****  * 2. Redistributions in binary form must reproduce the above copyright notice, this list
   9:D:/fchai/work/i-cube/I-CUBE-HUAWEI/Middlewares/Third_Party/Huawei/iot_link/os/liteos/base/include\cm-tlsf.h ****  * of conditions and the following disclaimer in the documentation and/or other materials
  10:D:/fchai/work/i-cube/I-CUBE-HUAWEI/Middlewares/Third_Party/Huawei/iot_link/os/liteos/base/include\cm-tlsf.h ****  * provided with the distribution.
  11:D:/fchai/work/i-cube/I-CUBE-HUAWEI/Middlewares/Third_Party/Huawei/iot_link/os/liteos/base/include\cm-tlsf.h ****  * 3. Neither the name of the copyright holder nor the names of its contributors may be used
  12:D:/fchai/work/i-cube/I-CUBE-HUAWEI/Middlewares/Third_Party/Huawei/iot_link/os/liteos/base/include\cm-tlsf.h ****  * to endorse or promote products derived from this software without specific prior written
  13:D:/fchai/work/i-cube/I-CUBE-HUAWEI/Middlewares/Third_Party/Huawei/iot_link/os/liteos/base/include\cm-tlsf.h ****  * permission.
  14:D:/fchai/work/i-cube/I-CUBE-HUAWEI/Middlewares/Third_Party/Huawei/iot_link/os/liteos/base/include\cm-tlsf.h ****  * THIS SOFTWARE IS PROVIDED BY THE COPYRIGHT HOLDERS AND CONTRIBUTORS
  15:D:/fchai/work/i-cube/I-CUBE-HUAWEI/Middlewares/Third_Party/Huawei/iot_link/os/liteos/base/include\cm-tlsf.h ****  * "AS IS" AND ANY EXPRESS OR IMPLIED WARRANTIES, INCLUDING, BUT NOT LIMITED TO,
  16:D:/fchai/work/i-cube/I-CUBE-HUAWEI/Middlewares/Third_Party/Huawei/iot_link/os/liteos/base/include\cm-tlsf.h ****  * THE IMPLIED WARRANTIES OF MERCHANTABILITY AND FITNESS FOR A PARTICULAR
  17:D:/fchai/work/i-cube/I-CUBE-HUAWEI/Middlewares/Third_Party/Huawei/iot_link/os/liteos/base/include\cm-tlsf.h ****  * PURPOSE ARE DISCLAIMED. IN NO EVENT SHALL THE COPYRIGHT HOLDER OR
  18:D:/fchai/work/i-cube/I-CUBE-HUAWEI/Middlewares/Third_Party/Huawei/iot_link/os/liteos/base/include\cm-tlsf.h ****  * CONTRIBUTORS BE LIABLE FOR ANY DIRECT, INDIRECT, INCIDENTAL, SPECIAL,
  19:D:/fchai/work/i-cube/I-CUBE-HUAWEI/Middlewares/Third_Party/Huawei/iot_link/os/liteos/base/include\cm-tlsf.h ****  * EXEMPLARY, OR CONSEQUENTIAL DAMAGES (INCLUDING, BUT NOT LIMITED TO,
  20:D:/fchai/work/i-cube/I-CUBE-HUAWEI/Middlewares/Third_Party/Huawei/iot_link/os/liteos/base/include\cm-tlsf.h ****  * PROCUREMENT OF SUBSTITUTE GOODS OR SERVICES; LOSS OF USE, DATA, OR PROFITS;
  21:D:/fchai/work/i-cube/I-CUBE-HUAWEI/Middlewares/Third_Party/Huawei/iot_link/os/liteos/base/include\cm-tlsf.h ****  * OR BUSINESS INTERRUPTION) HOWEVER CAUSED AND ON ANY THEORY OF LIABILITY,
  22:D:/fchai/work/i-cube/I-CUBE-HUAWEI/Middlewares/Third_Party/Huawei/iot_link/os/liteos/base/include\cm-tlsf.h ****  * WHETHER IN CONTRACT, STRICT LIABILITY, OR TORT (INCLUDING NEGLIGENCE OR
  23:D:/fchai/work/i-cube/I-CUBE-HUAWEI/Middlewares/Third_Party/Huawei/iot_link/os/liteos/base/include\cm-tlsf.h ****  * OTHERWISE) ARISING IN ANY WAY OUT OF THE USE OF THIS SOFTWARE, EVEN IF
  24:D:/fchai/work/i-cube/I-CUBE-HUAWEI/Middlewares/Third_Party/Huawei/iot_link/os/liteos/base/include\cm-tlsf.h ****  * ADVISED OF THE POSSIBILITY OF SUCH DAMAGE.
  25:D:/fchai/work/i-cube/I-CUBE-HUAWEI/Middlewares/Third_Party/Huawei/iot_link/os/liteos/base/include\cm-tlsf.h ****  *---------------------------------------------------------------------------*/
  26:D:/fchai/work/i-cube/I-CUBE-HUAWEI/Middlewares/Third_Party/Huawei/iot_link/os/liteos/base/include\cm-tlsf.h **** /*----------------------------------------------------------------------------
ARM GAS  T:\msys\tmp\ccHTo37l.s 			page 8


  27:D:/fchai/work/i-cube/I-CUBE-HUAWEI/Middlewares/Third_Party/Huawei/iot_link/os/liteos/base/include\cm-tlsf.h ****  * Notice of Export Control Law
  28:D:/fchai/work/i-cube/I-CUBE-HUAWEI/Middlewares/Third_Party/Huawei/iot_link/os/liteos/base/include\cm-tlsf.h ****  * ===============================================
  29:D:/fchai/work/i-cube/I-CUBE-HUAWEI/Middlewares/Third_Party/Huawei/iot_link/os/liteos/base/include\cm-tlsf.h ****  * Huawei LiteOS may be subject to applicable export control laws and regulations, which might
  30:D:/fchai/work/i-cube/I-CUBE-HUAWEI/Middlewares/Third_Party/Huawei/iot_link/os/liteos/base/include\cm-tlsf.h ****  * include those applicable to Huawei LiteOS of U.S. and the country in which you are located.
  31:D:/fchai/work/i-cube/I-CUBE-HUAWEI/Middlewares/Third_Party/Huawei/iot_link/os/liteos/base/include\cm-tlsf.h ****  * Import, export and usage of Huawei LiteOS in any manner by you shall be in compliance with such
  32:D:/fchai/work/i-cube/I-CUBE-HUAWEI/Middlewares/Third_Party/Huawei/iot_link/os/liteos/base/include\cm-tlsf.h ****  * applicable export control laws and regulations.
  33:D:/fchai/work/i-cube/I-CUBE-HUAWEI/Middlewares/Third_Party/Huawei/iot_link/os/liteos/base/include\cm-tlsf.h ****  *---------------------------------------------------------------------------*/
  34:D:/fchai/work/i-cube/I-CUBE-HUAWEI/Middlewares/Third_Party/Huawei/iot_link/os/liteos/base/include\cm-tlsf.h **** 
  35:D:/fchai/work/i-cube/I-CUBE-HUAWEI/Middlewares/Third_Party/Huawei/iot_link/os/liteos/base/include\cm-tlsf.h **** #ifndef __CM_TLSF_H__
  36:D:/fchai/work/i-cube/I-CUBE-HUAWEI/Middlewares/Third_Party/Huawei/iot_link/os/liteos/base/include\cm-tlsf.h **** #define __CM_TLSF_H__
  37:D:/fchai/work/i-cube/I-CUBE-HUAWEI/Middlewares/Third_Party/Huawei/iot_link/os/liteos/base/include\cm-tlsf.h **** 
  38:D:/fchai/work/i-cube/I-CUBE-HUAWEI/Middlewares/Third_Party/Huawei/iot_link/os/liteos/base/include\cm-tlsf.h **** #include <list.h>
  39:D:/fchai/work/i-cube/I-CUBE-HUAWEI/Middlewares/Third_Party/Huawei/iot_link/os/liteos/base/include\cm-tlsf.h **** #include "los_common.h"
  40:D:/fchai/work/i-cube/I-CUBE-HUAWEI/Middlewares/Third_Party/Huawei/iot_link/os/liteos/base/include\cm-tlsf.h **** 
  41:D:/fchai/work/i-cube/I-CUBE-HUAWEI/Middlewares/Third_Party/Huawei/iot_link/os/liteos/base/include\cm-tlsf.h **** #include "chunk.h"
  42:D:/fchai/work/i-cube/I-CUBE-HUAWEI/Middlewares/Third_Party/Huawei/iot_link/os/liteos/base/include\cm-tlsf.h **** 
  43:D:/fchai/work/i-cube/I-CUBE-HUAWEI/Middlewares/Third_Party/Huawei/iot_link/os/liteos/base/include\cm-tlsf.h **** /*
  44:D:/fchai/work/i-cube/I-CUBE-HUAWEI/Middlewares/Third_Party/Huawei/iot_link/os/liteos/base/include\cm-tlsf.h ****  * chunks are inserted to chunk lists in a 2d "chunk_t *" array,
  45:D:/fchai/work/i-cube/I-CUBE-HUAWEI/Middlewares/Third_Party/Huawei/iot_link/os/liteos/base/include\cm-tlsf.h ****  * "chunks [max_nr_fl] [max_nr_sl]" according to their size:
  46:D:/fchai/work/i-cube/I-CUBE-HUAWEI/Middlewares/Third_Party/Huawei/iot_link/os/liteos/base/include\cm-tlsf.h ****  *
  47:D:/fchai/work/i-cube/I-CUBE-HUAWEI/Middlewares/Third_Party/Huawei/iot_link/os/liteos/base/include\cm-tlsf.h ****  * the index in the 1st level is the last (most-significant) bit set:
  48:D:/fchai/work/i-cube/I-CUBE-HUAWEI/Middlewares/Third_Party/Huawei/iot_link/os/liteos/base/include\cm-tlsf.h ****  *
  49:D:/fchai/work/i-cube/I-CUBE-HUAWEI/Middlewares/Third_Party/Huawei/iot_link/os/liteos/base/include\cm-tlsf.h ****  *     fl_idx = fls (size);
  50:D:/fchai/work/i-cube/I-CUBE-HUAWEI/Middlewares/Third_Party/Huawei/iot_link/os/liteos/base/include\cm-tlsf.h ****  *
  51:D:/fchai/work/i-cube/I-CUBE-HUAWEI/Middlewares/Third_Party/Huawei/iot_link/os/liteos/base/include\cm-tlsf.h ****  * the index in the 2nd level is SL_BITS bits followed the bit:
  52:D:/fchai/work/i-cube/I-CUBE-HUAWEI/Middlewares/Third_Party/Huawei/iot_link/os/liteos/base/include\cm-tlsf.h ****  *
  53:D:/fchai/work/i-cube/I-CUBE-HUAWEI/Middlewares/Third_Party/Huawei/iot_link/os/liteos/base/include\cm-tlsf.h ****  *     sl_idx = (size - (1 << fl_idx)) >> (fl_idx - SL_BITS) =
  54:D:/fchai/work/i-cube/I-CUBE-HUAWEI/Middlewares/Third_Party/Huawei/iot_link/os/liteos/base/include\cm-tlsf.h ****  *            = (size >> (fl_idx - SL_BITS)) - (1 << SL_BITS);
  55:D:/fchai/work/i-cube/I-CUBE-HUAWEI/Middlewares/Third_Party/Huawei/iot_link/os/liteos/base/include\cm-tlsf.h ****  *
  56:D:/fchai/work/i-cube/I-CUBE-HUAWEI/Middlewares/Third_Party/Huawei/iot_link/os/liteos/base/include\cm-tlsf.h ****  * given a size with the value of 74, its binary value is:
  57:D:/fchai/work/i-cube/I-CUBE-HUAWEI/Middlewares/Third_Party/Huawei/iot_link/os/liteos/base/include\cm-tlsf.h ****  *
  58:D:/fchai/work/i-cube/I-CUBE-HUAWEI/Middlewares/Third_Party/Huawei/iot_link/os/liteos/base/include\cm-tlsf.h ****  *     size = 74 = 0b01001010:
  59:D:/fchai/work/i-cube/I-CUBE-HUAWEI/Middlewares/Third_Party/Huawei/iot_link/os/liteos/base/include\cm-tlsf.h ****  *
  60:D:/fchai/work/i-cube/I-CUBE-HUAWEI/Middlewares/Third_Party/Huawei/iot_link/os/liteos/base/include\cm-tlsf.h ****  * fl_idx = 6
  61:D:/fchai/work/i-cube/I-CUBE-HUAWEI/Middlewares/Third_Party/Huawei/iot_link/os/liteos/base/include\cm-tlsf.h ****  *          |
  62:D:/fchai/work/i-cube/I-CUBE-HUAWEI/Middlewares/Third_Party/Huawei/iot_link/os/liteos/base/include\cm-tlsf.h ****  *        7 6 5 4 3 2 1 0
  63:D:/fchai/work/i-cube/I-CUBE-HUAWEI/Middlewares/Third_Party/Huawei/iot_link/os/liteos/base/include\cm-tlsf.h ****  *      +-----------------+
  64:D:/fchai/work/i-cube/I-CUBE-HUAWEI/Middlewares/Third_Party/Huawei/iot_link/os/liteos/base/include\cm-tlsf.h ****  *      | 0 1 0 0 1 0 1 0 |
  65:D:/fchai/work/i-cube/I-CUBE-HUAWEI/Middlewares/Third_Party/Huawei/iot_link/os/liteos/base/include\cm-tlsf.h ****  *      +-----------------+
  66:D:/fchai/work/i-cube/I-CUBE-HUAWEI/Middlewares/Third_Party/Huawei/iot_link/os/liteos/base/include\cm-tlsf.h ****  *        7 6 5 4 3 2 1 0
  67:D:/fchai/work/i-cube/I-CUBE-HUAWEI/Middlewares/Third_Party/Huawei/iot_link/os/liteos/base/include\cm-tlsf.h ****  * sl_idx =   0 0          0 if SL_BITS = 2
  68:D:/fchai/work/i-cube/I-CUBE-HUAWEI/Middlewares/Third_Party/Huawei/iot_link/os/liteos/base/include\cm-tlsf.h ****  * sl_idx =   0 0 1        1 if SL_BITS = 3
  69:D:/fchai/work/i-cube/I-CUBE-HUAWEI/Middlewares/Third_Party/Huawei/iot_link/os/liteos/base/include\cm-tlsf.h ****  * sl_idx =   0 0 1 0      2 if SL_BITS = 4
  70:D:/fchai/work/i-cube/I-CUBE-HUAWEI/Middlewares/Third_Party/Huawei/iot_link/os/liteos/base/include\cm-tlsf.h ****  *
  71:D:/fchai/work/i-cube/I-CUBE-HUAWEI/Middlewares/Third_Party/Huawei/iot_link/os/liteos/base/include\cm-tlsf.h ****  * but we only support 2 or 3 as the value of SL_BITS, so sl_bmap can be a
  72:D:/fchai/work/i-cube/I-CUBE-HUAWEI/Middlewares/Third_Party/Huawei/iot_link/os/liteos/base/include\cm-tlsf.h ****  * array of uint8_t
  73:D:/fchai/work/i-cube/I-CUBE-HUAWEI/Middlewares/Third_Party/Huawei/iot_link/os/liteos/base/include\cm-tlsf.h ****  */
  74:D:/fchai/work/i-cube/I-CUBE-HUAWEI/Middlewares/Third_Party/Huawei/iot_link/os/liteos/base/include\cm-tlsf.h **** 
  75:D:/fchai/work/i-cube/I-CUBE-HUAWEI/Middlewares/Third_Party/Huawei/iot_link/os/liteos/base/include\cm-tlsf.h **** #define SL_BITS                 2   /* valid value only 2 or 3 */
  76:D:/fchai/work/i-cube/I-CUBE-HUAWEI/Middlewares/Third_Party/Huawei/iot_link/os/liteos/base/include\cm-tlsf.h **** 
  77:D:/fchai/work/i-cube/I-CUBE-HUAWEI/Middlewares/Third_Party/Huawei/iot_link/os/liteos/base/include\cm-tlsf.h **** /*
  78:D:/fchai/work/i-cube/I-CUBE-HUAWEI/Middlewares/Third_Party/Huawei/iot_link/os/liteos/base/include\cm-tlsf.h ****  * the minimum chunks managed is sizeof (chunk_t) which size is:
  79:D:/fchai/work/i-cube/I-CUBE-HUAWEI/Middlewares/Third_Party/Huawei/iot_link/os/liteos/base/include\cm-tlsf.h ****  *
  80:D:/fchai/work/i-cube/I-CUBE-HUAWEI/Middlewares/Third_Party/Huawei/iot_link/os/liteos/base/include\cm-tlsf.h ****  *     4 * sizeof (uintptr_t)
  81:D:/fchai/work/i-cube/I-CUBE-HUAWEI/Middlewares/Third_Party/Huawei/iot_link/os/liteos/base/include\cm-tlsf.h ****  *
  82:D:/fchai/work/i-cube/I-CUBE-HUAWEI/Middlewares/Third_Party/Huawei/iot_link/os/liteos/base/include\cm-tlsf.h ****  * so fl_idx is always greater or equal to:
  83:D:/fchai/work/i-cube/I-CUBE-HUAWEI/Middlewares/Third_Party/Huawei/iot_link/os/liteos/base/include\cm-tlsf.h ****  *
ARM GAS  T:\msys\tmp\ccHTo37l.s 			page 9


  84:D:/fchai/work/i-cube/I-CUBE-HUAWEI/Middlewares/Third_Party/Huawei/iot_link/os/liteos/base/include\cm-tlsf.h ****  *     fls (sizeof (chunk_t))
  85:D:/fchai/work/i-cube/I-CUBE-HUAWEI/Middlewares/Third_Party/Huawei/iot_link/os/liteos/base/include\cm-tlsf.h ****  *
  86:D:/fchai/work/i-cube/I-CUBE-HUAWEI/Middlewares/Third_Party/Huawei/iot_link/os/liteos/base/include\cm-tlsf.h ****  * so fl_idx from [0 ~ fls (sizeof (chunk_t)) - 1] will never be used for
  87:D:/fchai/work/i-cube/I-CUBE-HUAWEI/Middlewares/Third_Party/Huawei/iot_link/os/liteos/base/include\cm-tlsf.h ****  * space saving purpose, we use the following index map:
  88:D:/fchai/work/i-cube/I-CUBE-HUAWEI/Middlewares/Third_Party/Huawei/iot_link/os/liteos/base/include\cm-tlsf.h ****  *
  89:D:/fchai/work/i-cube/I-CUBE-HUAWEI/Middlewares/Third_Party/Huawei/iot_link/os/liteos/base/include\cm-tlsf.h ****  *     real idx - fl_idx
  90:D:/fchai/work/i-cube/I-CUBE-HUAWEI/Middlewares/Third_Party/Huawei/iot_link/os/liteos/base/include\cm-tlsf.h ****  *            0 - fls (sizeof (chunk_t))
  91:D:/fchai/work/i-cube/I-CUBE-HUAWEI/Middlewares/Third_Party/Huawei/iot_link/os/liteos/base/include\cm-tlsf.h ****  *            1 - fls (sizeof (chunk_t)) + 1
  92:D:/fchai/work/i-cube/I-CUBE-HUAWEI/Middlewares/Third_Party/Huawei/iot_link/os/liteos/base/include\cm-tlsf.h ****  *          ... - ...
  93:D:/fchai/work/i-cube/I-CUBE-HUAWEI/Middlewares/Third_Party/Huawei/iot_link/os/liteos/base/include\cm-tlsf.h ****  *
  94:D:/fchai/work/i-cube/I-CUBE-HUAWEI/Middlewares/Third_Party/Huawei/iot_link/os/liteos/base/include\cm-tlsf.h ****  * so the 'real idx' to fl_idx have a fixed gap (called 'bias' here):
  95:D:/fchai/work/i-cube/I-CUBE-HUAWEI/Middlewares/Third_Party/Huawei/iot_link/os/liteos/base/include\cm-tlsf.h ****  *
  96:D:/fchai/work/i-cube/I-CUBE-HUAWEI/Middlewares/Third_Party/Huawei/iot_link/os/liteos/base/include\cm-tlsf.h ****  *     bias = fls (sizeof (chunk_t)) == log2 (sizeof (chunk_t))
  97:D:/fchai/work/i-cube/I-CUBE-HUAWEI/Middlewares/Third_Party/Huawei/iot_link/os/liteos/base/include\cm-tlsf.h ****  */
  98:D:/fchai/work/i-cube/I-CUBE-HUAWEI/Middlewares/Third_Party/Huawei/iot_link/os/liteos/base/include\cm-tlsf.h **** 
  99:D:/fchai/work/i-cube/I-CUBE-HUAWEI/Middlewares/Third_Party/Huawei/iot_link/os/liteos/base/include\cm-tlsf.h **** enum
 100:D:/fchai/work/i-cube/I-CUBE-HUAWEI/Middlewares/Third_Party/Huawei/iot_link/os/liteos/base/include\cm-tlsf.h **** {
 101:D:/fchai/work/i-cube/I-CUBE-HUAWEI/Middlewares/Third_Party/Huawei/iot_link/os/liteos/base/include\cm-tlsf.h ****     MIN_CHUNK_SIZE_LOG2 = sizeof (chunk_t) ==  8 ? 3    /* 16-bit target */
 102:D:/fchai/work/i-cube/I-CUBE-HUAWEI/Middlewares/Third_Party/Huawei/iot_link/os/liteos/base/include\cm-tlsf.h ****                         : sizeof (chunk_t) == 16 ? 4    /* 32-bit target */
 103:D:/fchai/work/i-cube/I-CUBE-HUAWEI/Middlewares/Third_Party/Huawei/iot_link/os/liteos/base/include\cm-tlsf.h ****                         : sizeof (chunk_t) == 32 ? 5    /* 64-bit target */
 104:D:/fchai/work/i-cube/I-CUBE-HUAWEI/Middlewares/Third_Party/Huawei/iot_link/os/liteos/base/include\cm-tlsf.h ****                         : 0,
 105:D:/fchai/work/i-cube/I-CUBE-HUAWEI/Middlewares/Third_Party/Huawei/iot_link/os/liteos/base/include\cm-tlsf.h **** };
 106:D:/fchai/work/i-cube/I-CUBE-HUAWEI/Middlewares/Third_Party/Huawei/iot_link/os/liteos/base/include\cm-tlsf.h **** 
 107:D:/fchai/work/i-cube/I-CUBE-HUAWEI/Middlewares/Third_Party/Huawei/iot_link/os/liteos/base/include\cm-tlsf.h **** enum
 108:D:/fchai/work/i-cube/I-CUBE-HUAWEI/Middlewares/Third_Party/Huawei/iot_link/os/liteos/base/include\cm-tlsf.h **** {
 109:D:/fchai/work/i-cube/I-CUBE-HUAWEI/Middlewares/Third_Party/Huawei/iot_link/os/liteos/base/include\cm-tlsf.h ****     FL_IDX_MAX_008K = 13,
 110:D:/fchai/work/i-cube/I-CUBE-HUAWEI/Middlewares/Third_Party/Huawei/iot_link/os/liteos/base/include\cm-tlsf.h ****     FL_IDX_MAX_016K,
 111:D:/fchai/work/i-cube/I-CUBE-HUAWEI/Middlewares/Third_Party/Huawei/iot_link/os/liteos/base/include\cm-tlsf.h ****     FL_IDX_MAX_032K,
 112:D:/fchai/work/i-cube/I-CUBE-HUAWEI/Middlewares/Third_Party/Huawei/iot_link/os/liteos/base/include\cm-tlsf.h ****     FL_IDX_MAX_064K,
 113:D:/fchai/work/i-cube/I-CUBE-HUAWEI/Middlewares/Third_Party/Huawei/iot_link/os/liteos/base/include\cm-tlsf.h ****     FL_IDX_MAX_128K,
 114:D:/fchai/work/i-cube/I-CUBE-HUAWEI/Middlewares/Third_Party/Huawei/iot_link/os/liteos/base/include\cm-tlsf.h ****     FL_IDX_MAX_256K,
 115:D:/fchai/work/i-cube/I-CUBE-HUAWEI/Middlewares/Third_Party/Huawei/iot_link/os/liteos/base/include\cm-tlsf.h ****     FL_IDX_MAX_512K,
 116:D:/fchai/work/i-cube/I-CUBE-HUAWEI/Middlewares/Third_Party/Huawei/iot_link/os/liteos/base/include\cm-tlsf.h ****     FL_IDX_MAX_001M,
 117:D:/fchai/work/i-cube/I-CUBE-HUAWEI/Middlewares/Third_Party/Huawei/iot_link/os/liteos/base/include\cm-tlsf.h ****     FL_IDX_MAX_002M,
 118:D:/fchai/work/i-cube/I-CUBE-HUAWEI/Middlewares/Third_Party/Huawei/iot_link/os/liteos/base/include\cm-tlsf.h ****     FL_IDX_MAX_004M,
 119:D:/fchai/work/i-cube/I-CUBE-HUAWEI/Middlewares/Third_Party/Huawei/iot_link/os/liteos/base/include\cm-tlsf.h ****     FL_IDX_MAX_008M,
 120:D:/fchai/work/i-cube/I-CUBE-HUAWEI/Middlewares/Third_Party/Huawei/iot_link/os/liteos/base/include\cm-tlsf.h ****     FL_IDX_MAX_016M,
 121:D:/fchai/work/i-cube/I-CUBE-HUAWEI/Middlewares/Third_Party/Huawei/iot_link/os/liteos/base/include\cm-tlsf.h ****     FL_IDX_MAX_032M,
 122:D:/fchai/work/i-cube/I-CUBE-HUAWEI/Middlewares/Third_Party/Huawei/iot_link/os/liteos/base/include\cm-tlsf.h ****     FL_IDX_MAX_064M,
 123:D:/fchai/work/i-cube/I-CUBE-HUAWEI/Middlewares/Third_Party/Huawei/iot_link/os/liteos/base/include\cm-tlsf.h ****     FL_IDX_MAX_128M,
 124:D:/fchai/work/i-cube/I-CUBE-HUAWEI/Middlewares/Third_Party/Huawei/iot_link/os/liteos/base/include\cm-tlsf.h ****     FL_IDX_MAX_256M,
 125:D:/fchai/work/i-cube/I-CUBE-HUAWEI/Middlewares/Third_Party/Huawei/iot_link/os/liteos/base/include\cm-tlsf.h ****     FL_IDX_MAX_512M,
 126:D:/fchai/work/i-cube/I-CUBE-HUAWEI/Middlewares/Third_Party/Huawei/iot_link/os/liteos/base/include\cm-tlsf.h ****     FL_IDX_MAX_001G,
 127:D:/fchai/work/i-cube/I-CUBE-HUAWEI/Middlewares/Third_Party/Huawei/iot_link/os/liteos/base/include\cm-tlsf.h ****     FL_IDX_MAX_002G,
 128:D:/fchai/work/i-cube/I-CUBE-HUAWEI/Middlewares/Third_Party/Huawei/iot_link/os/liteos/base/include\cm-tlsf.h **** };
 129:D:/fchai/work/i-cube/I-CUBE-HUAWEI/Middlewares/Third_Party/Huawei/iot_link/os/liteos/base/include\cm-tlsf.h **** 
 130:D:/fchai/work/i-cube/I-CUBE-HUAWEI/Middlewares/Third_Party/Huawei/iot_link/os/liteos/base/include\cm-tlsf.h **** #define FL_IDX_MAX              (FL_IDX_MAX_512M)
 131:D:/fchai/work/i-cube/I-CUBE-HUAWEI/Middlewares/Third_Party/Huawei/iot_link/os/liteos/base/include\cm-tlsf.h **** #define FL_IDX_BIAS             (MIN_CHUNK_SIZE_LOG2)
 132:D:/fchai/work/i-cube/I-CUBE-HUAWEI/Middlewares/Third_Party/Huawei/iot_link/os/liteos/base/include\cm-tlsf.h **** #define FL_IDXES                (FL_IDX_MAX - FL_IDX_BIAS)
 133:D:/fchai/work/i-cube/I-CUBE-HUAWEI/Middlewares/Third_Party/Huawei/iot_link/os/liteos/base/include\cm-tlsf.h **** #define SL_IDXES                (1 << SL_BITS)
 134:D:/fchai/work/i-cube/I-CUBE-HUAWEI/Middlewares/Third_Party/Huawei/iot_link/os/liteos/base/include\cm-tlsf.h **** 
 135:D:/fchai/work/i-cube/I-CUBE-HUAWEI/Middlewares/Third_Party/Huawei/iot_link/os/liteos/base/include\cm-tlsf.h **** #define SL_IDX_MAX              (SL_IDXES - 1)
 136:D:/fchai/work/i-cube/I-CUBE-HUAWEI/Middlewares/Third_Party/Huawei/iot_link/os/liteos/base/include\cm-tlsf.h **** 
 137:D:/fchai/work/i-cube/I-CUBE-HUAWEI/Middlewares/Third_Party/Huawei/iot_link/os/liteos/base/include\cm-tlsf.h **** typedef struct chunk_mgr
 138:D:/fchai/work/i-cube/I-CUBE-HUAWEI/Middlewares/Third_Party/Huawei/iot_link/os/liteos/base/include\cm-tlsf.h **** {
 139:D:/fchai/work/i-cube/I-CUBE-HUAWEI/Middlewares/Third_Party/Huawei/iot_link/os/liteos/base/include\cm-tlsf.h ****     uint32_t  fl_bmap;
 140:D:/fchai/work/i-cube/I-CUBE-HUAWEI/Middlewares/Third_Party/Huawei/iot_link/os/liteos/base/include\cm-tlsf.h ****     uint8_t   sl_bmap [FL_IDXES];
ARM GAS  T:\msys\tmp\ccHTo37l.s 			page 10


 141:D:/fchai/work/i-cube/I-CUBE-HUAWEI/Middlewares/Third_Party/Huawei/iot_link/os/liteos/base/include\cm-tlsf.h ****     chunk_t * chunks  [FL_IDXES] [SL_IDXES];
 142:D:/fchai/work/i-cube/I-CUBE-HUAWEI/Middlewares/Third_Party/Huawei/iot_link/os/liteos/base/include\cm-tlsf.h **** } chunk_mgr_t;
 143:D:/fchai/work/i-cube/I-CUBE-HUAWEI/Middlewares/Third_Party/Huawei/iot_link/os/liteos/base/include\cm-tlsf.h **** 
 144:D:/fchai/work/i-cube/I-CUBE-HUAWEI/Middlewares/Third_Party/Huawei/iot_link/os/liteos/base/include\cm-tlsf.h **** #define CTZ(x)                  (32 - CLZ (~(x) & ((x) - 1)))
 145:D:/fchai/work/i-cube/I-CUBE-HUAWEI/Middlewares/Third_Party/Huawei/iot_link/os/liteos/base/include\cm-tlsf.h **** 
 146:D:/fchai/work/i-cube/I-CUBE-HUAWEI/Middlewares/Third_Party/Huawei/iot_link/os/liteos/base/include\cm-tlsf.h **** /**
 147:D:/fchai/work/i-cube/I-CUBE-HUAWEI/Middlewares/Third_Party/Huawei/iot_link/os/liteos/base/include\cm-tlsf.h ****  * __cm_init - initialize chunk manager
 148:D:/fchai/work/i-cube/I-CUBE-HUAWEI/Middlewares/Third_Party/Huawei/iot_link/os/liteos/base/include\cm-tlsf.h ****  * @cm: the given chunk manager
 149:D:/fchai/work/i-cube/I-CUBE-HUAWEI/Middlewares/Third_Party/Huawei/iot_link/os/liteos/base/include\cm-tlsf.h ****  *
 150:D:/fchai/work/i-cube/I-CUBE-HUAWEI/Middlewares/Third_Party/Huawei/iot_link/os/liteos/base/include\cm-tlsf.h ****  * return: 0 on success, negtive value on error
 151:D:/fchai/work/i-cube/I-CUBE-HUAWEI/Middlewares/Third_Party/Huawei/iot_link/os/liteos/base/include\cm-tlsf.h ****  */
 152:D:/fchai/work/i-cube/I-CUBE-HUAWEI/Middlewares/Third_Party/Huawei/iot_link/os/liteos/base/include\cm-tlsf.h **** 
 153:D:/fchai/work/i-cube/I-CUBE-HUAWEI/Middlewares/Third_Party/Huawei/iot_link/os/liteos/base/include\cm-tlsf.h **** static inline int __cm_init (chunk_mgr_t * cm)
 154:D:/fchai/work/i-cube/I-CUBE-HUAWEI/Middlewares/Third_Party/Huawei/iot_link/os/liteos/base/include\cm-tlsf.h **** {
 155:D:/fchai/work/i-cube/I-CUBE-HUAWEI/Middlewares/Third_Party/Huawei/iot_link/os/liteos/base/include\cm-tlsf.h ****     return 0;
 156:D:/fchai/work/i-cube/I-CUBE-HUAWEI/Middlewares/Third_Party/Huawei/iot_link/os/liteos/base/include\cm-tlsf.h **** }
 157:D:/fchai/work/i-cube/I-CUBE-HUAWEI/Middlewares/Third_Party/Huawei/iot_link/os/liteos/base/include\cm-tlsf.h **** 
 158:D:/fchai/work/i-cube/I-CUBE-HUAWEI/Middlewares/Third_Party/Huawei/iot_link/os/liteos/base/include\cm-tlsf.h **** static inline int __get_fl_idx (size_t size)
 159:D:/fchai/work/i-cube/I-CUBE-HUAWEI/Middlewares/Third_Party/Huawei/iot_link/os/liteos/base/include\cm-tlsf.h **** {
 160:D:/fchai/work/i-cube/I-CUBE-HUAWEI/Middlewares/Third_Party/Huawei/iot_link/os/liteos/base/include\cm-tlsf.h ****     return 31 - CLZ (size);     /* size is never 0 */
 170              		.loc 2 160 17 view .LVU44
 171 0048 B2FA82FE 		clz	lr, r2
 172              	.LBE128:
 173              	.LBE127:
 174              	.LBB131:
 175              	.LBB132:
 161:D:/fchai/work/i-cube/I-CUBE-HUAWEI/Middlewares/Third_Party/Huawei/iot_link/os/liteos/base/include\cm-tlsf.h **** }
 162:D:/fchai/work/i-cube/I-CUBE-HUAWEI/Middlewares/Third_Party/Huawei/iot_link/os/liteos/base/include\cm-tlsf.h **** 
 163:D:/fchai/work/i-cube/I-CUBE-HUAWEI/Middlewares/Third_Party/Huawei/iot_link/os/liteos/base/include\cm-tlsf.h **** static inline int __get_sl_idx (size_t size, int fl_idx)
 164:D:/fchai/work/i-cube/I-CUBE-HUAWEI/Middlewares/Third_Party/Huawei/iot_link/os/liteos/base/include\cm-tlsf.h **** {
 165:D:/fchai/work/i-cube/I-CUBE-HUAWEI/Middlewares/Third_Party/Huawei/iot_link/os/liteos/base/include\cm-tlsf.h ****     return (size >> (fl_idx - SL_BITS)) - (1 << SL_BITS);
 176              		.loc 2 165 29 view .LVU45
 177 004c CEF11D03 		rsb	r3, lr, #29
 178              	.LBE132:
 179              	.LBE131:
 180              	.LBB136:
 181              	.LBB129:
 160:D:/fchai/work/i-cube/I-CUBE-HUAWEI/Middlewares/Third_Party/Huawei/iot_link/os/liteos/base/include\cm-tlsf.h **** }
 182              		.loc 2 160 15 view .LVU46
 183 0050 CEF11F00 		rsb	r0, lr, #31
 184              	.LBE129:
 185              	.LBE136:
 186              	.LBE126:
 187              	.LBE125:
 188              	.LBE124:
 166:D:/fchai/work/i-cube/I-CUBE-HUAWEI/Middlewares/Third_Party/Huawei/iot_link/os/liteos/base/mem/heap\los_heap.c **** 
 189              		.loc 1 166 18 view .LVU47
 190 0054 4C60     		str	r4, [r1, #4]
 168:D:/fchai/work/i-cube/I-CUBE-HUAWEI/Middlewares/Third_Party/Huawei/iot_link/os/liteos/base/mem/heap\los_heap.c ****     heap->blocks = cb;
 191              		.loc 1 168 5 is_stmt 1 view .LVU48
 169:D:/fchai/work/i-cube/I-CUBE-HUAWEI/Middlewares/Third_Party/Huawei/iot_link/os/liteos/base/mem/heap\los_heap.c **** 
 192              		.loc 1 169 5 view .LVU49
 193              	.LBB159:
 194              	.LBB160:
 195              		.file 3 "D:/fchai/work/i-cube/I-CUBE-HUAWEI/Middlewares/Third_Party/Huawei/iot_link/os/liteos/base
   1:D:/fchai/work/i-cube/I-CUBE-HUAWEI/Middlewares/Third_Party/Huawei/iot_link/os/liteos/base/include\chunk.h **** /*----------------------------------------------------------------------------
   2:D:/fchai/work/i-cube/I-CUBE-HUAWEI/Middlewares/Third_Party/Huawei/iot_link/os/liteos/base/include\chunk.h ****  * Copyright (c) <2018>, <Huawei Technologies Co., Ltd>
ARM GAS  T:\msys\tmp\ccHTo37l.s 			page 11


   3:D:/fchai/work/i-cube/I-CUBE-HUAWEI/Middlewares/Third_Party/Huawei/iot_link/os/liteos/base/include\chunk.h ****  * All rights reserved.
   4:D:/fchai/work/i-cube/I-CUBE-HUAWEI/Middlewares/Third_Party/Huawei/iot_link/os/liteos/base/include\chunk.h ****  * Redistribution and use in source and binary forms, with or without modification,
   5:D:/fchai/work/i-cube/I-CUBE-HUAWEI/Middlewares/Third_Party/Huawei/iot_link/os/liteos/base/include\chunk.h ****  * are permitted provided that the following conditions are met:
   6:D:/fchai/work/i-cube/I-CUBE-HUAWEI/Middlewares/Third_Party/Huawei/iot_link/os/liteos/base/include\chunk.h ****  * 1. Redistributions of source code must retain the above copyright notice, this list of
   7:D:/fchai/work/i-cube/I-CUBE-HUAWEI/Middlewares/Third_Party/Huawei/iot_link/os/liteos/base/include\chunk.h ****  * conditions and the following disclaimer.
   8:D:/fchai/work/i-cube/I-CUBE-HUAWEI/Middlewares/Third_Party/Huawei/iot_link/os/liteos/base/include\chunk.h ****  * 2. Redistributions in binary form must reproduce the above copyright notice, this list
   9:D:/fchai/work/i-cube/I-CUBE-HUAWEI/Middlewares/Third_Party/Huawei/iot_link/os/liteos/base/include\chunk.h ****  * of conditions and the following disclaimer in the documentation and/or other materials
  10:D:/fchai/work/i-cube/I-CUBE-HUAWEI/Middlewares/Third_Party/Huawei/iot_link/os/liteos/base/include\chunk.h ****  * provided with the distribution.
  11:D:/fchai/work/i-cube/I-CUBE-HUAWEI/Middlewares/Third_Party/Huawei/iot_link/os/liteos/base/include\chunk.h ****  * 3. Neither the name of the copyright holder nor the names of its contributors may be used
  12:D:/fchai/work/i-cube/I-CUBE-HUAWEI/Middlewares/Third_Party/Huawei/iot_link/os/liteos/base/include\chunk.h ****  * to endorse or promote products derived from this software without specific prior written
  13:D:/fchai/work/i-cube/I-CUBE-HUAWEI/Middlewares/Third_Party/Huawei/iot_link/os/liteos/base/include\chunk.h ****  * permission.
  14:D:/fchai/work/i-cube/I-CUBE-HUAWEI/Middlewares/Third_Party/Huawei/iot_link/os/liteos/base/include\chunk.h ****  * THIS SOFTWARE IS PROVIDED BY THE COPYRIGHT HOLDERS AND CONTRIBUTORS
  15:D:/fchai/work/i-cube/I-CUBE-HUAWEI/Middlewares/Third_Party/Huawei/iot_link/os/liteos/base/include\chunk.h ****  * "AS IS" AND ANY EXPRESS OR IMPLIED WARRANTIES, INCLUDING, BUT NOT LIMITED TO,
  16:D:/fchai/work/i-cube/I-CUBE-HUAWEI/Middlewares/Third_Party/Huawei/iot_link/os/liteos/base/include\chunk.h ****  * THE IMPLIED WARRANTIES OF MERCHANTABILITY AND FITNESS FOR A PARTICULAR
  17:D:/fchai/work/i-cube/I-CUBE-HUAWEI/Middlewares/Third_Party/Huawei/iot_link/os/liteos/base/include\chunk.h ****  * PURPOSE ARE DISCLAIMED. IN NO EVENT SHALL THE COPYRIGHT HOLDER OR
  18:D:/fchai/work/i-cube/I-CUBE-HUAWEI/Middlewares/Third_Party/Huawei/iot_link/os/liteos/base/include\chunk.h ****  * CONTRIBUTORS BE LIABLE FOR ANY DIRECT, INDIRECT, INCIDENTAL, SPECIAL,
  19:D:/fchai/work/i-cube/I-CUBE-HUAWEI/Middlewares/Third_Party/Huawei/iot_link/os/liteos/base/include\chunk.h ****  * EXEMPLARY, OR CONSEQUENTIAL DAMAGES (INCLUDING, BUT NOT LIMITED TO,
  20:D:/fchai/work/i-cube/I-CUBE-HUAWEI/Middlewares/Third_Party/Huawei/iot_link/os/liteos/base/include\chunk.h ****  * PROCUREMENT OF SUBSTITUTE GOODS OR SERVICES; LOSS OF USE, DATA, OR PROFITS;
  21:D:/fchai/work/i-cube/I-CUBE-HUAWEI/Middlewares/Third_Party/Huawei/iot_link/os/liteos/base/include\chunk.h ****  * OR BUSINESS INTERRUPTION) HOWEVER CAUSED AND ON ANY THEORY OF LIABILITY,
  22:D:/fchai/work/i-cube/I-CUBE-HUAWEI/Middlewares/Third_Party/Huawei/iot_link/os/liteos/base/include\chunk.h ****  * WHETHER IN CONTRACT, STRICT LIABILITY, OR TORT (INCLUDING NEGLIGENCE OR
  23:D:/fchai/work/i-cube/I-CUBE-HUAWEI/Middlewares/Third_Party/Huawei/iot_link/os/liteos/base/include\chunk.h ****  * OTHERWISE) ARISING IN ANY WAY OUT OF THE USE OF THIS SOFTWARE, EVEN IF
  24:D:/fchai/work/i-cube/I-CUBE-HUAWEI/Middlewares/Third_Party/Huawei/iot_link/os/liteos/base/include\chunk.h ****  * ADVISED OF THE POSSIBILITY OF SUCH DAMAGE.
  25:D:/fchai/work/i-cube/I-CUBE-HUAWEI/Middlewares/Third_Party/Huawei/iot_link/os/liteos/base/include\chunk.h ****  *---------------------------------------------------------------------------*/
  26:D:/fchai/work/i-cube/I-CUBE-HUAWEI/Middlewares/Third_Party/Huawei/iot_link/os/liteos/base/include\chunk.h **** /*----------------------------------------------------------------------------
  27:D:/fchai/work/i-cube/I-CUBE-HUAWEI/Middlewares/Third_Party/Huawei/iot_link/os/liteos/base/include\chunk.h ****  * Notice of Export Control Law
  28:D:/fchai/work/i-cube/I-CUBE-HUAWEI/Middlewares/Third_Party/Huawei/iot_link/os/liteos/base/include\chunk.h ****  * ===============================================
  29:D:/fchai/work/i-cube/I-CUBE-HUAWEI/Middlewares/Third_Party/Huawei/iot_link/os/liteos/base/include\chunk.h ****  * Huawei LiteOS may be subject to applicable export control laws and regulations, which might
  30:D:/fchai/work/i-cube/I-CUBE-HUAWEI/Middlewares/Third_Party/Huawei/iot_link/os/liteos/base/include\chunk.h ****  * include those applicable to Huawei LiteOS of U.S. and the country in which you are located.
  31:D:/fchai/work/i-cube/I-CUBE-HUAWEI/Middlewares/Third_Party/Huawei/iot_link/os/liteos/base/include\chunk.h ****  * Import, export and usage of Huawei LiteOS in any manner by you shall be in compliance with such
  32:D:/fchai/work/i-cube/I-CUBE-HUAWEI/Middlewares/Third_Party/Huawei/iot_link/os/liteos/base/include\chunk.h ****  * applicable export control laws and regulations.
  33:D:/fchai/work/i-cube/I-CUBE-HUAWEI/Middlewares/Third_Party/Huawei/iot_link/os/liteos/base/include\chunk.h ****  *---------------------------------------------------------------------------*/
  34:D:/fchai/work/i-cube/I-CUBE-HUAWEI/Middlewares/Third_Party/Huawei/iot_link/os/liteos/base/include\chunk.h **** 
  35:D:/fchai/work/i-cube/I-CUBE-HUAWEI/Middlewares/Third_Party/Huawei/iot_link/os/liteos/base/include\chunk.h **** #ifndef __CHUNK_H__
  36:D:/fchai/work/i-cube/I-CUBE-HUAWEI/Middlewares/Third_Party/Huawei/iot_link/os/liteos/base/include\chunk.h **** #define __CHUNK_H__
  37:D:/fchai/work/i-cube/I-CUBE-HUAWEI/Middlewares/Third_Party/Huawei/iot_link/os/liteos/base/include\chunk.h **** 
  38:D:/fchai/work/i-cube/I-CUBE-HUAWEI/Middlewares/Third_Party/Huawei/iot_link/os/liteos/base/include\chunk.h **** #include <stddef.h>
  39:D:/fchai/work/i-cube/I-CUBE-HUAWEI/Middlewares/Third_Party/Huawei/iot_link/os/liteos/base/include\chunk.h **** #include <stdint.h>
  40:D:/fchai/work/i-cube/I-CUBE-HUAWEI/Middlewares/Third_Party/Huawei/iot_link/os/liteos/base/include\chunk.h **** 
  41:D:/fchai/work/i-cube/I-CUBE-HUAWEI/Middlewares/Third_Party/Huawei/iot_link/os/liteos/base/include\chunk.h **** #include <list.h>
  42:D:/fchai/work/i-cube/I-CUBE-HUAWEI/Middlewares/Third_Party/Huawei/iot_link/os/liteos/base/include\chunk.h **** 
  43:D:/fchai/work/i-cube/I-CUBE-HUAWEI/Middlewares/Third_Party/Huawei/iot_link/os/liteos/base/include\chunk.h **** #ifndef ALLOC_ALIGN_SIZE
  44:D:/fchai/work/i-cube/I-CUBE-HUAWEI/Middlewares/Third_Party/Huawei/iot_link/os/liteos/base/include\chunk.h **** #define ALLOC_ALIGN_SIZE        (4)
  45:D:/fchai/work/i-cube/I-CUBE-HUAWEI/Middlewares/Third_Party/Huawei/iot_link/os/liteos/base/include\chunk.h **** #endif
  46:D:/fchai/work/i-cube/I-CUBE-HUAWEI/Middlewares/Third_Party/Huawei/iot_link/os/liteos/base/include\chunk.h **** 
  47:D:/fchai/work/i-cube/I-CUBE-HUAWEI/Middlewares/Third_Party/Huawei/iot_link/os/liteos/base/include\chunk.h **** #define ALLOC_ALIGN_MASK        (ALLOC_ALIGN_SIZE - 1)
  48:D:/fchai/work/i-cube/I-CUBE-HUAWEI/Middlewares/Third_Party/Huawei/iot_link/os/liteos/base/include\chunk.h **** 
  49:D:/fchai/work/i-cube/I-CUBE-HUAWEI/Middlewares/Third_Party/Huawei/iot_link/os/liteos/base/include\chunk.h **** #define ALLOC_MIN_SIZE          (sizeof (chunk_t) - sizeof (ach_t))
  50:D:/fchai/work/i-cube/I-CUBE-HUAWEI/Middlewares/Third_Party/Huawei/iot_link/os/liteos/base/include\chunk.h **** 
  51:D:/fchai/work/i-cube/I-CUBE-HUAWEI/Middlewares/Third_Party/Huawei/iot_link/os/liteos/base/include\chunk.h **** typedef struct chunk
  52:D:/fchai/work/i-cube/I-CUBE-HUAWEI/Middlewares/Third_Party/Huawei/iot_link/os/liteos/base/include\chunk.h **** {
  53:D:/fchai/work/i-cube/I-CUBE-HUAWEI/Middlewares/Third_Party/Huawei/iot_link/os/liteos/base/include\chunk.h ****     struct chunk * prev;
  54:D:/fchai/work/i-cube/I-CUBE-HUAWEI/Middlewares/Third_Party/Huawei/iot_link/os/liteos/base/include\chunk.h ****     uintptr_t      size;        /* bit[0] means is_allocated */
  55:D:/fchai/work/i-cube/I-CUBE-HUAWEI/Middlewares/Third_Party/Huawei/iot_link/os/liteos/base/include\chunk.h ****     dlist_t        node;        /* used for free chunks only */
  56:D:/fchai/work/i-cube/I-CUBE-HUAWEI/Middlewares/Third_Party/Huawei/iot_link/os/liteos/base/include\chunk.h **** } fch_t, chunk_t;
  57:D:/fchai/work/i-cube/I-CUBE-HUAWEI/Middlewares/Third_Party/Huawei/iot_link/os/liteos/base/include\chunk.h **** 
  58:D:/fchai/work/i-cube/I-CUBE-HUAWEI/Middlewares/Third_Party/Huawei/iot_link/os/liteos/base/include\chunk.h **** typedef struct ach
  59:D:/fchai/work/i-cube/I-CUBE-HUAWEI/Middlewares/Third_Party/Huawei/iot_link/os/liteos/base/include\chunk.h **** {
ARM GAS  T:\msys\tmp\ccHTo37l.s 			page 12


  60:D:/fchai/work/i-cube/I-CUBE-HUAWEI/Middlewares/Third_Party/Huawei/iot_link/os/liteos/base/include\chunk.h ****     struct chunk * prev;
  61:D:/fchai/work/i-cube/I-CUBE-HUAWEI/Middlewares/Third_Party/Huawei/iot_link/os/liteos/base/include\chunk.h ****     uintptr_t      size;        /* bit[0] means is_allocated */
  62:D:/fchai/work/i-cube/I-CUBE-HUAWEI/Middlewares/Third_Party/Huawei/iot_link/os/liteos/base/include\chunk.h **** } ach_t;
  63:D:/fchai/work/i-cube/I-CUBE-HUAWEI/Middlewares/Third_Party/Huawei/iot_link/os/liteos/base/include\chunk.h **** 
  64:D:/fchai/work/i-cube/I-CUBE-HUAWEI/Middlewares/Third_Party/Huawei/iot_link/os/liteos/base/include\chunk.h **** /* inlines */
  65:D:/fchai/work/i-cube/I-CUBE-HUAWEI/Middlewares/Third_Party/Huawei/iot_link/os/liteos/base/include\chunk.h **** 
  66:D:/fchai/work/i-cube/I-CUBE-HUAWEI/Middlewares/Third_Party/Huawei/iot_link/os/liteos/base/include\chunk.h **** /**
  67:D:/fchai/work/i-cube/I-CUBE-HUAWEI/Middlewares/Third_Party/Huawei/iot_link/os/liteos/base/include\chunk.h ****  * __is_free - check if a chunk is free
  68:D:/fchai/work/i-cube/I-CUBE-HUAWEI/Middlewares/Third_Party/Huawei/iot_link/os/liteos/base/include\chunk.h ****  * @chunk: the given chunk
  69:D:/fchai/work/i-cube/I-CUBE-HUAWEI/Middlewares/Third_Party/Huawei/iot_link/os/liteos/base/include\chunk.h ****  *
  70:D:/fchai/work/i-cube/I-CUBE-HUAWEI/Middlewares/Third_Party/Huawei/iot_link/os/liteos/base/include\chunk.h ****  * return: true if the chunk is free, false if not
  71:D:/fchai/work/i-cube/I-CUBE-HUAWEI/Middlewares/Third_Party/Huawei/iot_link/os/liteos/base/include\chunk.h ****  */
  72:D:/fchai/work/i-cube/I-CUBE-HUAWEI/Middlewares/Third_Party/Huawei/iot_link/os/liteos/base/include\chunk.h **** 
  73:D:/fchai/work/i-cube/I-CUBE-HUAWEI/Middlewares/Third_Party/Huawei/iot_link/os/liteos/base/include\chunk.h **** static inline int __is_free (chunk_t * chunk)
  74:D:/fchai/work/i-cube/I-CUBE-HUAWEI/Middlewares/Third_Party/Huawei/iot_link/os/liteos/base/include\chunk.h **** {
  75:D:/fchai/work/i-cube/I-CUBE-HUAWEI/Middlewares/Third_Party/Huawei/iot_link/os/liteos/base/include\chunk.h ****     return (chunk->size & 1) == 0;
  76:D:/fchai/work/i-cube/I-CUBE-HUAWEI/Middlewares/Third_Party/Huawei/iot_link/os/liteos/base/include\chunk.h **** }
  77:D:/fchai/work/i-cube/I-CUBE-HUAWEI/Middlewares/Third_Party/Huawei/iot_link/os/liteos/base/include\chunk.h **** 
  78:D:/fchai/work/i-cube/I-CUBE-HUAWEI/Middlewares/Third_Party/Huawei/iot_link/os/liteos/base/include\chunk.h **** /**
  79:D:/fchai/work/i-cube/I-CUBE-HUAWEI/Middlewares/Third_Party/Huawei/iot_link/os/liteos/base/include\chunk.h ****  * __set_chunk_allocated - set a chunk as allocated
  80:D:/fchai/work/i-cube/I-CUBE-HUAWEI/Middlewares/Third_Party/Huawei/iot_link/os/liteos/base/include\chunk.h ****  * @chunk: the given chunk
  81:D:/fchai/work/i-cube/I-CUBE-HUAWEI/Middlewares/Third_Party/Huawei/iot_link/os/liteos/base/include\chunk.h ****  */
  82:D:/fchai/work/i-cube/I-CUBE-HUAWEI/Middlewares/Third_Party/Huawei/iot_link/os/liteos/base/include\chunk.h **** 
  83:D:/fchai/work/i-cube/I-CUBE-HUAWEI/Middlewares/Third_Party/Huawei/iot_link/os/liteos/base/include\chunk.h **** static inline void __set_chunk_allocated (chunk_t * chunk)
  84:D:/fchai/work/i-cube/I-CUBE-HUAWEI/Middlewares/Third_Party/Huawei/iot_link/os/liteos/base/include\chunk.h **** {
  85:D:/fchai/work/i-cube/I-CUBE-HUAWEI/Middlewares/Third_Party/Huawei/iot_link/os/liteos/base/include\chunk.h ****     chunk->size |= 1;
 196              		.loc 3 85 17 is_stmt 0 view .LVU50
 197 0056 0925     		movs	r5, #9
 198              	.LVL15:
 199              		.loc 3 85 17 view .LVU51
 200              	.LBE160:
 201              	.LBE159:
 171:D:/fchai/work/i-cube/I-CUBE-HUAWEI/Middlewares/Third_Party/Huawei/iot_link/os/liteos/base/mem/heap\los_heap.c **** 
 202              		.loc 1 171 18 view .LVU52
 203 0058 01F10804 		add	r4, r1, #8
 204              	.LVL16:
 205              	.LBB162:
 206              	.LBB153:
 207              	.LBB149:
 208              	.LBB137:
 209              	.LBB133:
 210              		.loc 2 165 18 view .LVU53
 211 005c 22FA03F3 		lsr	r3, r2, r3
 212              	.LBE133:
 213              	.LBE137:
 166:D:/fchai/work/i-cube/I-CUBE-HUAWEI/Middlewares/Third_Party/Huawei/iot_link/os/liteos/base/include\cm-tlsf.h **** }
 167:D:/fchai/work/i-cube/I-CUBE-HUAWEI/Middlewares/Third_Party/Huawei/iot_link/os/liteos/base/include\cm-tlsf.h **** 
 168:D:/fchai/work/i-cube/I-CUBE-HUAWEI/Middlewares/Third_Party/Huawei/iot_link/os/liteos/base/include\cm-tlsf.h **** static inline int __cm_put_chunk (chunk_mgr_t * cm, chunk_t * chunk)
 169:D:/fchai/work/i-cube/I-CUBE-HUAWEI/Middlewares/Third_Party/Huawei/iot_link/os/liteos/base/include\cm-tlsf.h **** {
 170:D:/fchai/work/i-cube/I-CUBE-HUAWEI/Middlewares/Third_Party/Huawei/iot_link/os/liteos/base/include\cm-tlsf.h ****     int fl_idx = __get_fl_idx (chunk->size);
 171:D:/fchai/work/i-cube/I-CUBE-HUAWEI/Middlewares/Third_Party/Huawei/iot_link/os/liteos/base/include\cm-tlsf.h ****     int sl_idx = __get_sl_idx (chunk->size, fl_idx);
 172:D:/fchai/work/i-cube/I-CUBE-HUAWEI/Middlewares/Third_Party/Huawei/iot_link/os/liteos/base/include\cm-tlsf.h **** 
 173:D:/fchai/work/i-cube/I-CUBE-HUAWEI/Middlewares/Third_Party/Huawei/iot_link/os/liteos/base/include\cm-tlsf.h ****     if (fl_idx >= FL_IDX_MAX)
 214              		.loc 2 173 8 view .LVU54
 215 0060 1C28     		cmp	r0, #28
 216              	.LBE149:
 217              	.LBE153:
ARM GAS  T:\msys\tmp\ccHTo37l.s 			page 13


 218              	.LBE162:
 169:D:/fchai/work/i-cube/I-CUBE-HUAWEI/Middlewares/Third_Party/Huawei/iot_link/os/liteos/base/mem/heap\los_heap.c **** 
 219              		.loc 1 169 18 view .LVU55
 220 0062 C6F8B011 		str	r1, [r6, #432]
 171:D:/fchai/work/i-cube/I-CUBE-HUAWEI/Middlewares/Third_Party/Huawei/iot_link/os/liteos/base/mem/heap\los_heap.c **** 
 221              		.loc 1 171 5 is_stmt 1 view .LVU56
 222              	.LVL17:
 173:D:/fchai/work/i-cube/I-CUBE-HUAWEI/Middlewares/Third_Party/Huawei/iot_link/os/liteos/base/mem/heap\los_heap.c ****     chunk->size  = sizeof (ach_t);
 223              		.loc 1 173 5 view .LVU57
 224              	.LBB163:
 225              	.LBB154:
 226              	.LBB150:
 227              	.LBB138:
 228              	.LBB134:
 165:D:/fchai/work/i-cube/I-CUBE-HUAWEI/Middlewares/Third_Party/Huawei/iot_link/os/liteos/base/include\cm-tlsf.h **** }
 229              		.loc 2 165 41 is_stmt 0 view .LVU58
 230 0066 A3F10403 		sub	r3, r3, #4
 231              	.LBE134:
 232              	.LBE138:
 233              	.LBE150:
 234              	.LBE154:
 235              	.LBE163:
 178:D:/fchai/work/i-cube/I-CUBE-HUAWEI/Middlewares/Third_Party/Huawei/iot_link/os/liteos/base/mem/heap\los_heap.c ****     chunk->size  = (size - sizeof (block_t) - 2 * sizeof (ach_t));
 236              		.loc 1 178 18 view .LVU59
 237 006a C1E90354 		strd	r5, r4, [r1, #12]
 173:D:/fchai/work/i-cube/I-CUBE-HUAWEI/Middlewares/Third_Party/Huawei/iot_link/os/liteos/base/mem/heap\los_heap.c ****     chunk->size  = sizeof (ach_t);
 238              		.loc 1 173 18 view .LVU60
 239 006e 8F60     		str	r7, [r1, #8]
 174:D:/fchai/work/i-cube/I-CUBE-HUAWEI/Middlewares/Third_Party/Huawei/iot_link/os/liteos/base/mem/heap\los_heap.c ****     __set_chunk_allocated (chunk);
 240              		.loc 1 174 5 is_stmt 1 view .LVU61
 175:D:/fchai/work/i-cube/I-CUBE-HUAWEI/Middlewares/Third_Party/Huawei/iot_link/os/liteos/base/mem/heap\los_heap.c **** 
 241              		.loc 1 175 5 view .LVU62
 242              	.LBB164:
 243              	.LBI159:
  83:D:/fchai/work/i-cube/I-CUBE-HUAWEI/Middlewares/Third_Party/Huawei/iot_link/os/liteos/base/include\chunk.h **** {
 244              		.loc 3 83 20 view .LVU63
 245              	.LVL18:
 246              	.LBB161:
 247              		.loc 3 85 5 view .LVU64
 248              	.LBE161:
 249              	.LBE164:
 179:D:/fchai/work/i-cube/I-CUBE-HUAWEI/Middlewares/Third_Party/Huawei/iot_link/os/liteos/base/mem/heap\los_heap.c **** 
 250              		.loc 1 179 18 is_stmt 0 view .LVU65
 251 0070 4A61     		str	r2, [r1, #20]
 252              	.LBB165:
 253              	.LBB166:
  86:D:/fchai/work/i-cube/I-CUBE-HUAWEI/Middlewares/Third_Party/Huawei/iot_link/os/liteos/base/include\chunk.h **** }
  87:D:/fchai/work/i-cube/I-CUBE-HUAWEI/Middlewares/Third_Party/Huawei/iot_link/os/liteos/base/include\chunk.h **** 
  88:D:/fchai/work/i-cube/I-CUBE-HUAWEI/Middlewares/Third_Party/Huawei/iot_link/os/liteos/base/include\chunk.h **** /**
  89:D:/fchai/work/i-cube/I-CUBE-HUAWEI/Middlewares/Third_Party/Huawei/iot_link/os/liteos/base/include\chunk.h ****  * __set_chunk_free - set a chunk as free
  90:D:/fchai/work/i-cube/I-CUBE-HUAWEI/Middlewares/Third_Party/Huawei/iot_link/os/liteos/base/include\chunk.h ****  * @chunk: the given chunk
  91:D:/fchai/work/i-cube/I-CUBE-HUAWEI/Middlewares/Third_Party/Huawei/iot_link/os/liteos/base/include\chunk.h ****  */
  92:D:/fchai/work/i-cube/I-CUBE-HUAWEI/Middlewares/Third_Party/Huawei/iot_link/os/liteos/base/include\chunk.h **** 
  93:D:/fchai/work/i-cube/I-CUBE-HUAWEI/Middlewares/Third_Party/Huawei/iot_link/os/liteos/base/include\chunk.h **** static inline void __set_chunk_free (chunk_t * chunk)
  94:D:/fchai/work/i-cube/I-CUBE-HUAWEI/Middlewares/Third_Party/Huawei/iot_link/os/liteos/base/include\chunk.h **** {
  95:D:/fchai/work/i-cube/I-CUBE-HUAWEI/Middlewares/Third_Party/Huawei/iot_link/os/liteos/base/include\chunk.h ****     chunk->size &= ~1;
  96:D:/fchai/work/i-cube/I-CUBE-HUAWEI/Middlewares/Third_Party/Huawei/iot_link/os/liteos/base/include\chunk.h **** }
ARM GAS  T:\msys\tmp\ccHTo37l.s 			page 14


  97:D:/fchai/work/i-cube/I-CUBE-HUAWEI/Middlewares/Third_Party/Huawei/iot_link/os/liteos/base/include\chunk.h **** 
  98:D:/fchai/work/i-cube/I-CUBE-HUAWEI/Middlewares/Third_Party/Huawei/iot_link/os/liteos/base/include\chunk.h **** /**
  99:D:/fchai/work/i-cube/I-CUBE-HUAWEI/Middlewares/Third_Party/Huawei/iot_link/os/liteos/base/include\chunk.h ****  * __get_next_chunk - get the next chunk
 100:D:/fchai/work/i-cube/I-CUBE-HUAWEI/Middlewares/Third_Party/Huawei/iot_link/os/liteos/base/include\chunk.h ****  * @chunk: the current chunk
 101:D:/fchai/work/i-cube/I-CUBE-HUAWEI/Middlewares/Third_Party/Huawei/iot_link/os/liteos/base/include\chunk.h ****  *
 102:D:/fchai/work/i-cube/I-CUBE-HUAWEI/Middlewares/Third_Party/Huawei/iot_link/os/liteos/base/include\chunk.h ****  * return: next chunk
 103:D:/fchai/work/i-cube/I-CUBE-HUAWEI/Middlewares/Third_Party/Huawei/iot_link/os/liteos/base/include\chunk.h ****  */
 104:D:/fchai/work/i-cube/I-CUBE-HUAWEI/Middlewares/Third_Party/Huawei/iot_link/os/liteos/base/include\chunk.h **** 
 105:D:/fchai/work/i-cube/I-CUBE-HUAWEI/Middlewares/Third_Party/Huawei/iot_link/os/liteos/base/include\chunk.h **** static inline chunk_t * __get_next_chunk (chunk_t * chunk)
 106:D:/fchai/work/i-cube/I-CUBE-HUAWEI/Middlewares/Third_Party/Huawei/iot_link/os/liteos/base/include\chunk.h **** {
 107:D:/fchai/work/i-cube/I-CUBE-HUAWEI/Middlewares/Third_Party/Huawei/iot_link/os/liteos/base/include\chunk.h ****     return (chunk_t *) (((char *) chunk) + (chunk->size & ~1));
 254              		.loc 3 107 12 view .LVU66
 255 0072 01F11004 		add	r4, r1, #16
 256              	.LVL19:
 257              		.loc 3 107 12 view .LVU67
 258              	.LBE166:
 259              	.LBE165:
 178:D:/fchai/work/i-cube/I-CUBE-HUAWEI/Middlewares/Third_Party/Huawei/iot_link/os/liteos/base/mem/heap\los_heap.c ****     chunk->size  = (size - sizeof (block_t) - 2 * sizeof (ach_t));
 260              		.loc 1 178 5 is_stmt 1 view .LVU68
 179:D:/fchai/work/i-cube/I-CUBE-HUAWEI/Middlewares/Third_Party/Huawei/iot_link/os/liteos/base/mem/heap\los_heap.c **** 
 261              		.loc 1 179 5 view .LVU69
 181:D:/fchai/work/i-cube/I-CUBE-HUAWEI/Middlewares/Third_Party/Huawei/iot_link/os/liteos/base/mem/heap\los_heap.c ****     {
 262              		.loc 1 181 5 view .LVU70
 263              	.LBB167:
 264              	.LBI124:
  45:D:/fchai/work/i-cube/I-CUBE-HUAWEI/Middlewares/Third_Party/Huawei/iot_link/os/liteos/base/mem/heap\los_heap.c **** {
 265              		.loc 1 45 19 view .LVU71
 266              	.LBE167:
  47:D:/fchai/work/i-cube/I-CUBE-HUAWEI/Middlewares/Third_Party/Huawei/iot_link/os/liteos/base/mem/heap\los_heap.c ****     {
 267              		.loc 1 47 5 view .LVU72
 268              	.LBB168:
 269              	.LBB155:
 270              	.LBI125:
 168:D:/fchai/work/i-cube/I-CUBE-HUAWEI/Middlewares/Third_Party/Huawei/iot_link/os/liteos/base/include\cm-tlsf.h **** {
 271              		.loc 2 168 19 view .LVU73
 272              	.LBB151:
 170:D:/fchai/work/i-cube/I-CUBE-HUAWEI/Middlewares/Third_Party/Huawei/iot_link/os/liteos/base/include\cm-tlsf.h ****     int sl_idx = __get_sl_idx (chunk->size, fl_idx);
 273              		.loc 2 170 5 view .LVU74
 274              	.LBB139:
 275              	.LBI127:
 158:D:/fchai/work/i-cube/I-CUBE-HUAWEI/Middlewares/Third_Party/Huawei/iot_link/os/liteos/base/include\cm-tlsf.h **** {
 276              		.loc 2 158 19 view .LVU75
 277              	.LBB130:
 160:D:/fchai/work/i-cube/I-CUBE-HUAWEI/Middlewares/Third_Party/Huawei/iot_link/os/liteos/base/include\cm-tlsf.h **** }
 278              		.loc 2 160 5 view .LVU76
 160:D:/fchai/work/i-cube/I-CUBE-HUAWEI/Middlewares/Third_Party/Huawei/iot_link/os/liteos/base/include\cm-tlsf.h **** }
 279              		.loc 2 160 5 is_stmt 0 view .LVU77
 280              	.LBE130:
 281              	.LBE139:
 171:D:/fchai/work/i-cube/I-CUBE-HUAWEI/Middlewares/Third_Party/Huawei/iot_link/os/liteos/base/include\cm-tlsf.h **** 
 282              		.loc 2 171 5 is_stmt 1 view .LVU78
 283              	.LBB140:
 284              	.LBI131:
 163:D:/fchai/work/i-cube/I-CUBE-HUAWEI/Middlewares/Third_Party/Huawei/iot_link/os/liteos/base/include\cm-tlsf.h **** {
 285              		.loc 2 163 19 view .LVU79
 286              	.LBB135:
 165:D:/fchai/work/i-cube/I-CUBE-HUAWEI/Middlewares/Third_Party/Huawei/iot_link/os/liteos/base/include\cm-tlsf.h **** }
ARM GAS  T:\msys\tmp\ccHTo37l.s 			page 15


 287              		.loc 2 165 5 view .LVU80
 165:D:/fchai/work/i-cube/I-CUBE-HUAWEI/Middlewares/Third_Party/Huawei/iot_link/os/liteos/base/include\cm-tlsf.h **** }
 288              		.loc 2 165 5 is_stmt 0 view .LVU81
 289              	.LBE135:
 290              	.LBE140:
 291              		.loc 2 173 5 is_stmt 1 view .LVU82
 292              		.loc 2 173 8 is_stmt 0 view .LVU83
 293 0076 3DDC     		bgt	.L13
 174:D:/fchai/work/i-cube/I-CUBE-HUAWEI/Middlewares/Third_Party/Huawei/iot_link/os/liteos/base/include\cm-tlsf.h ****     {
 175:D:/fchai/work/i-cube/I-CUBE-HUAWEI/Middlewares/Third_Party/Huawei/iot_link/os/liteos/base/include\cm-tlsf.h ****         return -1;
 176:D:/fchai/work/i-cube/I-CUBE-HUAWEI/Middlewares/Third_Party/Huawei/iot_link/os/liteos/base/include\cm-tlsf.h ****     }
 177:D:/fchai/work/i-cube/I-CUBE-HUAWEI/Middlewares/Third_Party/Huawei/iot_link/os/liteos/base/include\cm-tlsf.h **** 
 178:D:/fchai/work/i-cube/I-CUBE-HUAWEI/Middlewares/Third_Party/Huawei/iot_link/os/liteos/base/include\cm-tlsf.h ****     cm->fl_bmap |= 1 << fl_idx;
 294              		.loc 2 178 5 is_stmt 1 view .LVU84
 295              		.loc 2 178 17 is_stmt 0 view .LVU85
 296 0078 3568     		ldr	r5, [r6]
 297              		.loc 2 178 22 view .LVU86
 298 007a 4FF0010C 		mov	ip, #1
 179:D:/fchai/work/i-cube/I-CUBE-HUAWEI/Middlewares/Third_Party/Huawei/iot_link/os/liteos/base/include\cm-tlsf.h ****     cm->sl_bmap [fl_idx - FL_IDX_BIAS] |= 1 << sl_idx;
 299              		.loc 2 179 40 view .LVU87
 300 007e CEF11B0E 		rsb	lr, lr, #27
 178:D:/fchai/work/i-cube/I-CUBE-HUAWEI/Middlewares/Third_Party/Huawei/iot_link/os/liteos/base/include\cm-tlsf.h ****     cm->sl_bmap [fl_idx - FL_IDX_BIAS] |= 1 << sl_idx;
 301              		.loc 2 178 22 view .LVU88
 302 0082 0CFA00F0 		lsl	r0, ip, r0
 303              	.LVL20:
 178:D:/fchai/work/i-cube/I-CUBE-HUAWEI/Middlewares/Third_Party/Huawei/iot_link/os/liteos/base/include\cm-tlsf.h ****     cm->sl_bmap [fl_idx - FL_IDX_BIAS] |= 1 << sl_idx;
 304              		.loc 2 178 17 view .LVU89
 305 0086 2843     		orrs	r0, r0, r5
 306              		.loc 2 179 40 view .LVU90
 307 0088 06EB0E08 		add	r8, r6, lr
 178:D:/fchai/work/i-cube/I-CUBE-HUAWEI/Middlewares/Third_Party/Huawei/iot_link/os/liteos/base/include\cm-tlsf.h ****     cm->sl_bmap [fl_idx - FL_IDX_BIAS] |= 1 << sl_idx;
 308              		.loc 2 178 17 view .LVU91
 309 008c 3060     		str	r0, [r6]
 310              		.loc 2 179 5 is_stmt 1 view .LVU92
 311              		.loc 2 179 40 is_stmt 0 view .LVU93
 312 008e 98F80400 		ldrb	r0, [r8, #4]	@ zero_extendqisi2
 313              		.loc 2 179 45 view .LVU94
 314 0092 0CFA03FC 		lsl	ip, ip, r3
 315 0096 03EB8E03 		add	r3, r3, lr, lsl #2
 316              	.LVL21:
 317              		.loc 2 179 40 view .LVU95
 318 009a 40EA0C0C 		orr	ip, r0, ip
 319 009e 06EB8303 		add	r3, r6, r3, lsl #2
 320 00a2 88F804C0 		strb	ip, [r8, #4]
 321              	.LVL22:
 180:D:/fchai/work/i-cube/I-CUBE-HUAWEI/Middlewares/Third_Party/Huawei/iot_link/os/liteos/base/include\cm-tlsf.h **** 
 181:D:/fchai/work/i-cube/I-CUBE-HUAWEI/Middlewares/Third_Party/Huawei/iot_link/os/liteos/base/include\cm-tlsf.h ****     fl_idx -= FL_IDX_BIAS;
 322              		.loc 2 181 5 is_stmt 1 view .LVU96
 182:D:/fchai/work/i-cube/I-CUBE-HUAWEI/Middlewares/Third_Party/Huawei/iot_link/os/liteos/base/include\cm-tlsf.h **** 
 183:D:/fchai/work/i-cube/I-CUBE-HUAWEI/Middlewares/Third_Party/Huawei/iot_link/os/liteos/base/include\cm-tlsf.h ****     if (cm->chunks [fl_idx][sl_idx] == NULL)
 323              		.loc 2 183 5 view .LVU97
 324              		.loc 2 183 28 is_stmt 0 view .LVU98
 325 00a6 186A     		ldr	r0, [r3, #32]
 326              		.loc 2 183 8 view .LVU99
 327 00a8 F0B1     		cbz	r0, .L21
 184:D:/fchai/work/i-cube/I-CUBE-HUAWEI/Middlewares/Third_Party/Huawei/iot_link/os/liteos/base/include\cm-tlsf.h ****     {
 185:D:/fchai/work/i-cube/I-CUBE-HUAWEI/Middlewares/Third_Party/Huawei/iot_link/os/liteos/base/include\cm-tlsf.h ****         dlist_init (&chunk->node);
ARM GAS  T:\msys\tmp\ccHTo37l.s 			page 16


 186:D:/fchai/work/i-cube/I-CUBE-HUAWEI/Middlewares/Third_Party/Huawei/iot_link/os/liteos/base/include\cm-tlsf.h ****         cm->chunks [fl_idx][sl_idx] = chunk;
 187:D:/fchai/work/i-cube/I-CUBE-HUAWEI/Middlewares/Third_Party/Huawei/iot_link/os/liteos/base/include\cm-tlsf.h ****     }
 188:D:/fchai/work/i-cube/I-CUBE-HUAWEI/Middlewares/Third_Party/Huawei/iot_link/os/liteos/base/include\cm-tlsf.h ****     else
 189:D:/fchai/work/i-cube/I-CUBE-HUAWEI/Middlewares/Third_Party/Huawei/iot_link/os/liteos/base/include\cm-tlsf.h ****     {
 190:D:/fchai/work/i-cube/I-CUBE-HUAWEI/Middlewares/Third_Party/Huawei/iot_link/os/liteos/base/include\cm-tlsf.h ****         dlist_add_tail (&cm->chunks [fl_idx][sl_idx]->node, &chunk->node);
 328              		.loc 2 190 9 is_stmt 1 view .LVU100
 329              	.LBB141:
 330              	.LBB142:
 331              		.file 4 "D:/fchai/work/i-cube/I-CUBE-HUAWEI/Middlewares/Third_Party/Huawei/iot_link/os/liteos/incl
   1:D:/fchai/work/i-cube/I-CUBE-HUAWEI/Middlewares/Third_Party/Huawei/iot_link/os/liteos/include\list.h **** /*----------------------------------------------------------------------------
   2:D:/fchai/work/i-cube/I-CUBE-HUAWEI/Middlewares/Third_Party/Huawei/iot_link/os/liteos/include\list.h ****  * Copyright (c) <2018>, <Huawei Technologies Co., Ltd>
   3:D:/fchai/work/i-cube/I-CUBE-HUAWEI/Middlewares/Third_Party/Huawei/iot_link/os/liteos/include\list.h ****  * All rights reserved.
   4:D:/fchai/work/i-cube/I-CUBE-HUAWEI/Middlewares/Third_Party/Huawei/iot_link/os/liteos/include\list.h ****  * Redistribution and use in source and binary forms, with or without modification,
   5:D:/fchai/work/i-cube/I-CUBE-HUAWEI/Middlewares/Third_Party/Huawei/iot_link/os/liteos/include\list.h ****  * are permitted provided that the following conditions are met:
   6:D:/fchai/work/i-cube/I-CUBE-HUAWEI/Middlewares/Third_Party/Huawei/iot_link/os/liteos/include\list.h ****  * 1. Redistributions of source code must retain the above copyright notice, this list of
   7:D:/fchai/work/i-cube/I-CUBE-HUAWEI/Middlewares/Third_Party/Huawei/iot_link/os/liteos/include\list.h ****  * conditions and the following disclaimer.
   8:D:/fchai/work/i-cube/I-CUBE-HUAWEI/Middlewares/Third_Party/Huawei/iot_link/os/liteos/include\list.h ****  * 2. Redistributions in binary form must reproduce the above copyright notice, this list
   9:D:/fchai/work/i-cube/I-CUBE-HUAWEI/Middlewares/Third_Party/Huawei/iot_link/os/liteos/include\list.h ****  * of conditions and the following disclaimer in the documentation and/or other materials
  10:D:/fchai/work/i-cube/I-CUBE-HUAWEI/Middlewares/Third_Party/Huawei/iot_link/os/liteos/include\list.h ****  * provided with the distribution.
  11:D:/fchai/work/i-cube/I-CUBE-HUAWEI/Middlewares/Third_Party/Huawei/iot_link/os/liteos/include\list.h ****  * 3. Neither the name of the copyright holder nor the names of its contributors may be used
  12:D:/fchai/work/i-cube/I-CUBE-HUAWEI/Middlewares/Third_Party/Huawei/iot_link/os/liteos/include\list.h ****  * to endorse or promote products derived from this software without specific prior written
  13:D:/fchai/work/i-cube/I-CUBE-HUAWEI/Middlewares/Third_Party/Huawei/iot_link/os/liteos/include\list.h ****  * permission.
  14:D:/fchai/work/i-cube/I-CUBE-HUAWEI/Middlewares/Third_Party/Huawei/iot_link/os/liteos/include\list.h ****  * THIS SOFTWARE IS PROVIDED BY THE COPYRIGHT HOLDERS AND CONTRIBUTORS
  15:D:/fchai/work/i-cube/I-CUBE-HUAWEI/Middlewares/Third_Party/Huawei/iot_link/os/liteos/include\list.h ****  * "AS IS" AND ANY EXPRESS OR IMPLIED WARRANTIES, INCLUDING, BUT NOT LIMITED TO,
  16:D:/fchai/work/i-cube/I-CUBE-HUAWEI/Middlewares/Third_Party/Huawei/iot_link/os/liteos/include\list.h ****  * THE IMPLIED WARRANTIES OF MERCHANTABILITY AND FITNESS FOR A PARTICULAR
  17:D:/fchai/work/i-cube/I-CUBE-HUAWEI/Middlewares/Third_Party/Huawei/iot_link/os/liteos/include\list.h ****  * PURPOSE ARE DISCLAIMED. IN NO EVENT SHALL THE COPYRIGHT HOLDER OR
  18:D:/fchai/work/i-cube/I-CUBE-HUAWEI/Middlewares/Third_Party/Huawei/iot_link/os/liteos/include\list.h ****  * CONTRIBUTORS BE LIABLE FOR ANY DIRECT, INDIRECT, INCIDENTAL, SPECIAL,
  19:D:/fchai/work/i-cube/I-CUBE-HUAWEI/Middlewares/Third_Party/Huawei/iot_link/os/liteos/include\list.h ****  * EXEMPLARY, OR CONSEQUENTIAL DAMAGES (INCLUDING, BUT NOT LIMITED TO,
  20:D:/fchai/work/i-cube/I-CUBE-HUAWEI/Middlewares/Third_Party/Huawei/iot_link/os/liteos/include\list.h ****  * PROCUREMENT OF SUBSTITUTE GOODS OR SERVICES; LOSS OF USE, DATA, OR PROFITS;
  21:D:/fchai/work/i-cube/I-CUBE-HUAWEI/Middlewares/Third_Party/Huawei/iot_link/os/liteos/include\list.h ****  * OR BUSINESS INTERRUPTION) HOWEVER CAUSED AND ON ANY THEORY OF LIABILITY,
  22:D:/fchai/work/i-cube/I-CUBE-HUAWEI/Middlewares/Third_Party/Huawei/iot_link/os/liteos/include\list.h ****  * WHETHER IN CONTRACT, STRICT LIABILITY, OR TORT (INCLUDING NEGLIGENCE OR
  23:D:/fchai/work/i-cube/I-CUBE-HUAWEI/Middlewares/Third_Party/Huawei/iot_link/os/liteos/include\list.h ****  * OTHERWISE) ARISING IN ANY WAY OUT OF THE USE OF THIS SOFTWARE, EVEN IF
  24:D:/fchai/work/i-cube/I-CUBE-HUAWEI/Middlewares/Third_Party/Huawei/iot_link/os/liteos/include\list.h ****  * ADVISED OF THE POSSIBILITY OF SUCH DAMAGE.
  25:D:/fchai/work/i-cube/I-CUBE-HUAWEI/Middlewares/Third_Party/Huawei/iot_link/os/liteos/include\list.h ****  *---------------------------------------------------------------------------*/
  26:D:/fchai/work/i-cube/I-CUBE-HUAWEI/Middlewares/Third_Party/Huawei/iot_link/os/liteos/include\list.h **** /*----------------------------------------------------------------------------
  27:D:/fchai/work/i-cube/I-CUBE-HUAWEI/Middlewares/Third_Party/Huawei/iot_link/os/liteos/include\list.h ****  * Notice of Export Control Law
  28:D:/fchai/work/i-cube/I-CUBE-HUAWEI/Middlewares/Third_Party/Huawei/iot_link/os/liteos/include\list.h ****  * ===============================================
  29:D:/fchai/work/i-cube/I-CUBE-HUAWEI/Middlewares/Third_Party/Huawei/iot_link/os/liteos/include\list.h ****  * Huawei LiteOS may be subject to applicable export control laws and regulations, which might
  30:D:/fchai/work/i-cube/I-CUBE-HUAWEI/Middlewares/Third_Party/Huawei/iot_link/os/liteos/include\list.h ****  * include those applicable to Huawei LiteOS of U.S. and the country in which you are located.
  31:D:/fchai/work/i-cube/I-CUBE-HUAWEI/Middlewares/Third_Party/Huawei/iot_link/os/liteos/include\list.h ****  * Import, export and usage of Huawei LiteOS in any manner by you shall be in compliance with such
  32:D:/fchai/work/i-cube/I-CUBE-HUAWEI/Middlewares/Third_Party/Huawei/iot_link/os/liteos/include\list.h ****  * applicable export control laws and regulations.
  33:D:/fchai/work/i-cube/I-CUBE-HUAWEI/Middlewares/Third_Party/Huawei/iot_link/os/liteos/include\list.h ****  *---------------------------------------------------------------------------*/
  34:D:/fchai/work/i-cube/I-CUBE-HUAWEI/Middlewares/Third_Party/Huawei/iot_link/os/liteos/include\list.h **** 
  35:D:/fchai/work/i-cube/I-CUBE-HUAWEI/Middlewares/Third_Party/Huawei/iot_link/os/liteos/include\list.h **** #ifndef __LIST_H__
  36:D:/fchai/work/i-cube/I-CUBE-HUAWEI/Middlewares/Third_Party/Huawei/iot_link/os/liteos/include\list.h **** #define __LIST_H__
  37:D:/fchai/work/i-cube/I-CUBE-HUAWEI/Middlewares/Third_Party/Huawei/iot_link/os/liteos/include\list.h **** 
  38:D:/fchai/work/i-cube/I-CUBE-HUAWEI/Middlewares/Third_Party/Huawei/iot_link/os/liteos/include\list.h **** /* double list */
  39:D:/fchai/work/i-cube/I-CUBE-HUAWEI/Middlewares/Third_Party/Huawei/iot_link/os/liteos/include\list.h **** 
  40:D:/fchai/work/i-cube/I-CUBE-HUAWEI/Middlewares/Third_Party/Huawei/iot_link/os/liteos/include\list.h **** typedef struct dlist
  41:D:/fchai/work/i-cube/I-CUBE-HUAWEI/Middlewares/Third_Party/Huawei/iot_link/os/liteos/include\list.h ****     {
  42:D:/fchai/work/i-cube/I-CUBE-HUAWEI/Middlewares/Third_Party/Huawei/iot_link/os/liteos/include\list.h ****     struct dlist * prev, * next;
  43:D:/fchai/work/i-cube/I-CUBE-HUAWEI/Middlewares/Third_Party/Huawei/iot_link/os/liteos/include\list.h ****     } dlist_t;
  44:D:/fchai/work/i-cube/I-CUBE-HUAWEI/Middlewares/Third_Party/Huawei/iot_link/os/liteos/include\list.h **** 
  45:D:/fchai/work/i-cube/I-CUBE-HUAWEI/Middlewares/Third_Party/Huawei/iot_link/os/liteos/include\list.h **** /* macros */
  46:D:/fchai/work/i-cube/I-CUBE-HUAWEI/Middlewares/Third_Party/Huawei/iot_link/os/liteos/include\list.h **** 
  47:D:/fchai/work/i-cube/I-CUBE-HUAWEI/Middlewares/Third_Party/Huawei/iot_link/os/liteos/include\list.h **** /**
  48:D:/fchai/work/i-cube/I-CUBE-HUAWEI/Middlewares/Third_Party/Huawei/iot_link/os/liteos/include\list.h ****  * DLIST_INIT - create a empty list head body
ARM GAS  T:\msys\tmp\ccHTo37l.s 			page 17


  49:D:/fchai/work/i-cube/I-CUBE-HUAWEI/Middlewares/Third_Party/Huawei/iot_link/os/liteos/include\list.h ****  */
  50:D:/fchai/work/i-cube/I-CUBE-HUAWEI/Middlewares/Third_Party/Huawei/iot_link/os/liteos/include\list.h **** 
  51:D:/fchai/work/i-cube/I-CUBE-HUAWEI/Middlewares/Third_Party/Huawei/iot_link/os/liteos/include\list.h **** #define DLIST_INIT(h)           { &(h), &(h) }
  52:D:/fchai/work/i-cube/I-CUBE-HUAWEI/Middlewares/Third_Party/Huawei/iot_link/os/liteos/include\list.h **** 
  53:D:/fchai/work/i-cube/I-CUBE-HUAWEI/Middlewares/Third_Party/Huawei/iot_link/os/liteos/include\list.h **** /**
  54:D:/fchai/work/i-cube/I-CUBE-HUAWEI/Middlewares/Third_Party/Huawei/iot_link/os/liteos/include\list.h ****  * DLIST_DEF - define a empty list head
  55:D:/fchai/work/i-cube/I-CUBE-HUAWEI/Middlewares/Third_Party/Huawei/iot_link/os/liteos/include\list.h ****  */
  56:D:/fchai/work/i-cube/I-CUBE-HUAWEI/Middlewares/Third_Party/Huawei/iot_link/os/liteos/include\list.h **** 
  57:D:/fchai/work/i-cube/I-CUBE-HUAWEI/Middlewares/Third_Party/Huawei/iot_link/os/liteos/include\list.h **** #define DLIST_DEF(name)         dlist_t name = DLIST_INIT (name)
  58:D:/fchai/work/i-cube/I-CUBE-HUAWEI/Middlewares/Third_Party/Huawei/iot_link/os/liteos/include\list.h **** 
  59:D:/fchai/work/i-cube/I-CUBE-HUAWEI/Middlewares/Third_Party/Huawei/iot_link/os/liteos/include\list.h **** /* inlines */
  60:D:/fchai/work/i-cube/I-CUBE-HUAWEI/Middlewares/Third_Party/Huawei/iot_link/os/liteos/include\list.h **** 
  61:D:/fchai/work/i-cube/I-CUBE-HUAWEI/Middlewares/Third_Party/Huawei/iot_link/os/liteos/include\list.h **** /* list operations */
  62:D:/fchai/work/i-cube/I-CUBE-HUAWEI/Middlewares/Third_Party/Huawei/iot_link/os/liteos/include\list.h **** 
  63:D:/fchai/work/i-cube/I-CUBE-HUAWEI/Middlewares/Third_Party/Huawei/iot_link/os/liteos/include\list.h **** static inline void dlist_init (dlist_t * head)
  64:D:/fchai/work/i-cube/I-CUBE-HUAWEI/Middlewares/Third_Party/Huawei/iot_link/os/liteos/include\list.h ****     {
  65:D:/fchai/work/i-cube/I-CUBE-HUAWEI/Middlewares/Third_Party/Huawei/iot_link/os/liteos/include\list.h ****     head->prev = head->next = head;
  66:D:/fchai/work/i-cube/I-CUBE-HUAWEI/Middlewares/Third_Party/Huawei/iot_link/os/liteos/include\list.h ****     }
  67:D:/fchai/work/i-cube/I-CUBE-HUAWEI/Middlewares/Third_Party/Huawei/iot_link/os/liteos/include\list.h **** 
  68:D:/fchai/work/i-cube/I-CUBE-HUAWEI/Middlewares/Third_Party/Huawei/iot_link/os/liteos/include\list.h **** /**
  69:D:/fchai/work/i-cube/I-CUBE-HUAWEI/Middlewares/Third_Party/Huawei/iot_link/os/liteos/include\list.h ****  * __dlist_add_at - insert a new entry between two known consecutive entries
  70:D:/fchai/work/i-cube/I-CUBE-HUAWEI/Middlewares/Third_Party/Huawei/iot_link/os/liteos/include\list.h ****  *
  71:D:/fchai/work/i-cube/I-CUBE-HUAWEI/Middlewares/Third_Party/Huawei/iot_link/os/liteos/include\list.h ****  * This is only for internal list manipulation where we know
  72:D:/fchai/work/i-cube/I-CUBE-HUAWEI/Middlewares/Third_Party/Huawei/iot_link/os/liteos/include\list.h ****  * the prev/next entries already!
  73:D:/fchai/work/i-cube/I-CUBE-HUAWEI/Middlewares/Third_Party/Huawei/iot_link/os/liteos/include\list.h ****  */
  74:D:/fchai/work/i-cube/I-CUBE-HUAWEI/Middlewares/Third_Party/Huawei/iot_link/os/liteos/include\list.h **** 
  75:D:/fchai/work/i-cube/I-CUBE-HUAWEI/Middlewares/Third_Party/Huawei/iot_link/os/liteos/include\list.h **** static inline void __dlist_add_at (dlist_t * prev, dlist_t * next, dlist_t * new)
  76:D:/fchai/work/i-cube/I-CUBE-HUAWEI/Middlewares/Third_Party/Huawei/iot_link/os/liteos/include\list.h ****     {
  77:D:/fchai/work/i-cube/I-CUBE-HUAWEI/Middlewares/Third_Party/Huawei/iot_link/os/liteos/include\list.h ****     new->prev  = prev;
  78:D:/fchai/work/i-cube/I-CUBE-HUAWEI/Middlewares/Third_Party/Huawei/iot_link/os/liteos/include\list.h ****     new->next  = next;
  79:D:/fchai/work/i-cube/I-CUBE-HUAWEI/Middlewares/Third_Party/Huawei/iot_link/os/liteos/include\list.h ****     prev->next = new;
  80:D:/fchai/work/i-cube/I-CUBE-HUAWEI/Middlewares/Third_Party/Huawei/iot_link/os/liteos/include\list.h ****     next->prev = new;
  81:D:/fchai/work/i-cube/I-CUBE-HUAWEI/Middlewares/Third_Party/Huawei/iot_link/os/liteos/include\list.h ****     }
  82:D:/fchai/work/i-cube/I-CUBE-HUAWEI/Middlewares/Third_Party/Huawei/iot_link/os/liteos/include\list.h **** 
  83:D:/fchai/work/i-cube/I-CUBE-HUAWEI/Middlewares/Third_Party/Huawei/iot_link/os/liteos/include\list.h **** /**
  84:D:/fchai/work/i-cube/I-CUBE-HUAWEI/Middlewares/Third_Party/Huawei/iot_link/os/liteos/include\list.h ****  * dlist_add - add a new entry at the front of the list
  85:D:/fchai/work/i-cube/I-CUBE-HUAWEI/Middlewares/Third_Party/Huawei/iot_link/os/liteos/include\list.h ****  * @new: new entry to be added
  86:D:/fchai/work/i-cube/I-CUBE-HUAWEI/Middlewares/Third_Party/Huawei/iot_link/os/liteos/include\list.h ****  * @head: list head to add it after
  87:D:/fchai/work/i-cube/I-CUBE-HUAWEI/Middlewares/Third_Party/Huawei/iot_link/os/liteos/include\list.h ****  *
  88:D:/fchai/work/i-cube/I-CUBE-HUAWEI/Middlewares/Third_Party/Huawei/iot_link/os/liteos/include\list.h ****  * Insert a new entry after the specified head
  89:D:/fchai/work/i-cube/I-CUBE-HUAWEI/Middlewares/Third_Party/Huawei/iot_link/os/liteos/include\list.h ****  * This is good for implementing stacks
  90:D:/fchai/work/i-cube/I-CUBE-HUAWEI/Middlewares/Third_Party/Huawei/iot_link/os/liteos/include\list.h ****  */
  91:D:/fchai/work/i-cube/I-CUBE-HUAWEI/Middlewares/Third_Party/Huawei/iot_link/os/liteos/include\list.h **** 
  92:D:/fchai/work/i-cube/I-CUBE-HUAWEI/Middlewares/Third_Party/Huawei/iot_link/os/liteos/include\list.h **** static inline void dlist_add (dlist_t * head, dlist_t * new)
  93:D:/fchai/work/i-cube/I-CUBE-HUAWEI/Middlewares/Third_Party/Huawei/iot_link/os/liteos/include\list.h ****     {
  94:D:/fchai/work/i-cube/I-CUBE-HUAWEI/Middlewares/Third_Party/Huawei/iot_link/os/liteos/include\list.h ****     __dlist_add_at (head, head->next, new);
  95:D:/fchai/work/i-cube/I-CUBE-HUAWEI/Middlewares/Third_Party/Huawei/iot_link/os/liteos/include\list.h ****     }
  96:D:/fchai/work/i-cube/I-CUBE-HUAWEI/Middlewares/Third_Party/Huawei/iot_link/os/liteos/include\list.h **** 
  97:D:/fchai/work/i-cube/I-CUBE-HUAWEI/Middlewares/Third_Party/Huawei/iot_link/os/liteos/include\list.h **** /**
  98:D:/fchai/work/i-cube/I-CUBE-HUAWEI/Middlewares/Third_Party/Huawei/iot_link/os/liteos/include\list.h ****  * dlist_add_tail - add a new entry at the tail of the list
  99:D:/fchai/work/i-cube/I-CUBE-HUAWEI/Middlewares/Third_Party/Huawei/iot_link/os/liteos/include\list.h ****  * @new: new entry to be added
 100:D:/fchai/work/i-cube/I-CUBE-HUAWEI/Middlewares/Third_Party/Huawei/iot_link/os/liteos/include\list.h ****  * @head: list head to add it before
 101:D:/fchai/work/i-cube/I-CUBE-HUAWEI/Middlewares/Third_Party/Huawei/iot_link/os/liteos/include\list.h ****  *
 102:D:/fchai/work/i-cube/I-CUBE-HUAWEI/Middlewares/Third_Party/Huawei/iot_link/os/liteos/include\list.h ****  * Insert a new entry before the specified head
 103:D:/fchai/work/i-cube/I-CUBE-HUAWEI/Middlewares/Third_Party/Huawei/iot_link/os/liteos/include\list.h ****  * This is useful for implementing queues
 104:D:/fchai/work/i-cube/I-CUBE-HUAWEI/Middlewares/Third_Party/Huawei/iot_link/os/liteos/include\list.h ****  */
 105:D:/fchai/work/i-cube/I-CUBE-HUAWEI/Middlewares/Third_Party/Huawei/iot_link/os/liteos/include\list.h **** 
ARM GAS  T:\msys\tmp\ccHTo37l.s 			page 18


 106:D:/fchai/work/i-cube/I-CUBE-HUAWEI/Middlewares/Third_Party/Huawei/iot_link/os/liteos/include\list.h **** static inline void dlist_add_tail (dlist_t * head, dlist_t * new)
 107:D:/fchai/work/i-cube/I-CUBE-HUAWEI/Middlewares/Third_Party/Huawei/iot_link/os/liteos/include\list.h ****     {
 108:D:/fchai/work/i-cube/I-CUBE-HUAWEI/Middlewares/Third_Party/Huawei/iot_link/os/liteos/include\list.h ****     __dlist_add_at (head->prev, head, new);
 332              		.loc 4 108 25 is_stmt 0 view .LVU101
 333 00aa 0546     		mov	r5, r0
 334              	.LBE142:
 335              	.LBE141:
 336              		.loc 2 190 9 view .LVU102
 337 00ac 01F11803 		add	r3, r1, #24
 338              	.LVL23:
 339              	.LBB146:
 340              	.LBI141:
 106:D:/fchai/work/i-cube/I-CUBE-HUAWEI/Middlewares/Third_Party/Huawei/iot_link/os/liteos/include\list.h ****     {
 341              		.loc 4 106 20 is_stmt 1 view .LVU103
 342              	.LBB145:
 343              		.loc 4 108 5 view .LVU104
 344              		.loc 4 108 25 is_stmt 0 view .LVU105
 345 00b0 55F808CF 		ldr	ip, [r5, #8]!
 346              	.LVL24:
 347              	.LBB143:
 348              	.LBI143:
  75:D:/fchai/work/i-cube/I-CUBE-HUAWEI/Middlewares/Third_Party/Huawei/iot_link/os/liteos/include\list.h ****     {
 349              		.loc 4 75 20 is_stmt 1 view .LVU106
 350              	.LBB144:
  77:D:/fchai/work/i-cube/I-CUBE-HUAWEI/Middlewares/Third_Party/Huawei/iot_link/os/liteos/include\list.h ****     new->next  = next;
 351              		.loc 4 77 5 view .LVU107
  78:D:/fchai/work/i-cube/I-CUBE-HUAWEI/Middlewares/Third_Party/Huawei/iot_link/os/liteos/include\list.h ****     prev->next = new;
 352              		.loc 4 78 16 is_stmt 0 view .LVU108
 353 00b4 C1E906C5 		strd	ip, r5, [r1, #24]
  79:D:/fchai/work/i-cube/I-CUBE-HUAWEI/Middlewares/Third_Party/Huawei/iot_link/os/liteos/include\list.h ****     next->prev = new;
 354              		.loc 4 79 5 is_stmt 1 view .LVU109
  79:D:/fchai/work/i-cube/I-CUBE-HUAWEI/Middlewares/Third_Party/Huawei/iot_link/os/liteos/include\list.h ****     next->prev = new;
 355              		.loc 4 79 16 is_stmt 0 view .LVU110
 356 00b8 CCF80430 		str	r3, [ip, #4]
  80:D:/fchai/work/i-cube/I-CUBE-HUAWEI/Middlewares/Third_Party/Huawei/iot_link/os/liteos/include\list.h ****     }
 357              		.loc 4 80 5 is_stmt 1 view .LVU111
  80:D:/fchai/work/i-cube/I-CUBE-HUAWEI/Middlewares/Third_Party/Huawei/iot_link/os/liteos/include\list.h ****     }
 358              		.loc 4 80 16 is_stmt 0 view .LVU112
 359 00bc 8360     		str	r3, [r0, #8]
 360              	.LVL25:
 361              	.L15:
  80:D:/fchai/work/i-cube/I-CUBE-HUAWEI/Middlewares/Third_Party/Huawei/iot_link/os/liteos/include\list.h ****     }
 362              		.loc 4 80 16 view .LVU113
 363              	.LBE144:
 364              	.LBE143:
 365              	.LBE145:
 366              	.LBE146:
 367              	.LBE151:
 368              	.LBE155:
 369              	.LBE168:
  53:D:/fchai/work/i-cube/I-CUBE-HUAWEI/Middlewares/Third_Party/Huawei/iot_link/os/liteos/base/mem/heap\los_heap.c **** #endif
 370              		.loc 1 53 5 is_stmt 1 view .LVU114
 371              	.LBB169:
 372              	.LBB156:
 373              	.LBI156:
 374              		.file 5 "D:/fchai/work/i-cube/I-CUBE-HUAWEI/Middlewares/Third_Party/Huawei/iot_link/os/liteos/base
   1:D:/fchai/work/i-cube/I-CUBE-HUAWEI/Middlewares/Third_Party/Huawei/iot_link/os/liteos/base/include\heap.h **** /*----------------------------------------------------------------------------
ARM GAS  T:\msys\tmp\ccHTo37l.s 			page 19


   2:D:/fchai/work/i-cube/I-CUBE-HUAWEI/Middlewares/Third_Party/Huawei/iot_link/os/liteos/base/include\heap.h ****  * Copyright (c) <2018>, <Huawei Technologies Co., Ltd>
   3:D:/fchai/work/i-cube/I-CUBE-HUAWEI/Middlewares/Third_Party/Huawei/iot_link/os/liteos/base/include\heap.h ****  * All rights reserved.
   4:D:/fchai/work/i-cube/I-CUBE-HUAWEI/Middlewares/Third_Party/Huawei/iot_link/os/liteos/base/include\heap.h ****  * Redistribution and use in source and binary forms, with or without modification,
   5:D:/fchai/work/i-cube/I-CUBE-HUAWEI/Middlewares/Third_Party/Huawei/iot_link/os/liteos/base/include\heap.h ****  * are permitted provided that the following conditions are met:
   6:D:/fchai/work/i-cube/I-CUBE-HUAWEI/Middlewares/Third_Party/Huawei/iot_link/os/liteos/base/include\heap.h ****  * 1. Redistributions of source code must retain the above copyright notice, this list of
   7:D:/fchai/work/i-cube/I-CUBE-HUAWEI/Middlewares/Third_Party/Huawei/iot_link/os/liteos/base/include\heap.h ****  * conditions and the following disclaimer.
   8:D:/fchai/work/i-cube/I-CUBE-HUAWEI/Middlewares/Third_Party/Huawei/iot_link/os/liteos/base/include\heap.h ****  * 2. Redistributions in binary form must reproduce the above copyright notice, this list
   9:D:/fchai/work/i-cube/I-CUBE-HUAWEI/Middlewares/Third_Party/Huawei/iot_link/os/liteos/base/include\heap.h ****  * of conditions and the following disclaimer in the documentation and/or other materials
  10:D:/fchai/work/i-cube/I-CUBE-HUAWEI/Middlewares/Third_Party/Huawei/iot_link/os/liteos/base/include\heap.h ****  * provided with the distribution.
  11:D:/fchai/work/i-cube/I-CUBE-HUAWEI/Middlewares/Third_Party/Huawei/iot_link/os/liteos/base/include\heap.h ****  * 3. Neither the name of the copyright holder nor the names of its contributors may be used
  12:D:/fchai/work/i-cube/I-CUBE-HUAWEI/Middlewares/Third_Party/Huawei/iot_link/os/liteos/base/include\heap.h ****  * to endorse or promote products derived from this software without specific prior written
  13:D:/fchai/work/i-cube/I-CUBE-HUAWEI/Middlewares/Third_Party/Huawei/iot_link/os/liteos/base/include\heap.h ****  * permission.
  14:D:/fchai/work/i-cube/I-CUBE-HUAWEI/Middlewares/Third_Party/Huawei/iot_link/os/liteos/base/include\heap.h ****  * THIS SOFTWARE IS PROVIDED BY THE COPYRIGHT HOLDERS AND CONTRIBUTORS
  15:D:/fchai/work/i-cube/I-CUBE-HUAWEI/Middlewares/Third_Party/Huawei/iot_link/os/liteos/base/include\heap.h ****  * "AS IS" AND ANY EXPRESS OR IMPLIED WARRANTIES, INCLUDING, BUT NOT LIMITED TO,
  16:D:/fchai/work/i-cube/I-CUBE-HUAWEI/Middlewares/Third_Party/Huawei/iot_link/os/liteos/base/include\heap.h ****  * THE IMPLIED WARRANTIES OF MERCHANTABILITY AND FITNESS FOR A PARTICULAR
  17:D:/fchai/work/i-cube/I-CUBE-HUAWEI/Middlewares/Third_Party/Huawei/iot_link/os/liteos/base/include\heap.h ****  * PURPOSE ARE DISCLAIMED. IN NO EVENT SHALL THE COPYRIGHT HOLDER OR
  18:D:/fchai/work/i-cube/I-CUBE-HUAWEI/Middlewares/Third_Party/Huawei/iot_link/os/liteos/base/include\heap.h ****  * CONTRIBUTORS BE LIABLE FOR ANY DIRECT, INDIRECT, INCIDENTAL, SPECIAL,
  19:D:/fchai/work/i-cube/I-CUBE-HUAWEI/Middlewares/Third_Party/Huawei/iot_link/os/liteos/base/include\heap.h ****  * EXEMPLARY, OR CONSEQUENTIAL DAMAGES (INCLUDING, BUT NOT LIMITED TO,
  20:D:/fchai/work/i-cube/I-CUBE-HUAWEI/Middlewares/Third_Party/Huawei/iot_link/os/liteos/base/include\heap.h ****  * PROCUREMENT OF SUBSTITUTE GOODS OR SERVICES; LOSS OF USE, DATA, OR PROFITS;
  21:D:/fchai/work/i-cube/I-CUBE-HUAWEI/Middlewares/Third_Party/Huawei/iot_link/os/liteos/base/include\heap.h ****  * OR BUSINESS INTERRUPTION) HOWEVER CAUSED AND ON ANY THEORY OF LIABILITY,
  22:D:/fchai/work/i-cube/I-CUBE-HUAWEI/Middlewares/Third_Party/Huawei/iot_link/os/liteos/base/include\heap.h ****  * WHETHER IN CONTRACT, STRICT LIABILITY, OR TORT (INCLUDING NEGLIGENCE OR
  23:D:/fchai/work/i-cube/I-CUBE-HUAWEI/Middlewares/Third_Party/Huawei/iot_link/os/liteos/base/include\heap.h ****  * OTHERWISE) ARISING IN ANY WAY OUT OF THE USE OF THIS SOFTWARE, EVEN IF
  24:D:/fchai/work/i-cube/I-CUBE-HUAWEI/Middlewares/Third_Party/Huawei/iot_link/os/liteos/base/include\heap.h ****  * ADVISED OF THE POSSIBILITY OF SUCH DAMAGE.
  25:D:/fchai/work/i-cube/I-CUBE-HUAWEI/Middlewares/Third_Party/Huawei/iot_link/os/liteos/base/include\heap.h ****  *---------------------------------------------------------------------------*/
  26:D:/fchai/work/i-cube/I-CUBE-HUAWEI/Middlewares/Third_Party/Huawei/iot_link/os/liteos/base/include\heap.h **** /*----------------------------------------------------------------------------
  27:D:/fchai/work/i-cube/I-CUBE-HUAWEI/Middlewares/Third_Party/Huawei/iot_link/os/liteos/base/include\heap.h ****  * Notice of Export Control Law
  28:D:/fchai/work/i-cube/I-CUBE-HUAWEI/Middlewares/Third_Party/Huawei/iot_link/os/liteos/base/include\heap.h ****  * ===============================================
  29:D:/fchai/work/i-cube/I-CUBE-HUAWEI/Middlewares/Third_Party/Huawei/iot_link/os/liteos/base/include\heap.h ****  * Huawei LiteOS may be subject to applicable export control laws and regulations, which might
  30:D:/fchai/work/i-cube/I-CUBE-HUAWEI/Middlewares/Third_Party/Huawei/iot_link/os/liteos/base/include\heap.h ****  * include those applicable to Huawei LiteOS of U.S. and the country in which you are located.
  31:D:/fchai/work/i-cube/I-CUBE-HUAWEI/Middlewares/Third_Party/Huawei/iot_link/os/liteos/base/include\heap.h ****  * Import, export and usage of Huawei LiteOS in any manner by you shall be in compliance with such
  32:D:/fchai/work/i-cube/I-CUBE-HUAWEI/Middlewares/Third_Party/Huawei/iot_link/os/liteos/base/include\heap.h ****  * applicable export control laws and regulations.
  33:D:/fchai/work/i-cube/I-CUBE-HUAWEI/Middlewares/Third_Party/Huawei/iot_link/os/liteos/base/include\heap.h ****  *---------------------------------------------------------------------------*/
  34:D:/fchai/work/i-cube/I-CUBE-HUAWEI/Middlewares/Third_Party/Huawei/iot_link/os/liteos/base/include\heap.h **** 
  35:D:/fchai/work/i-cube/I-CUBE-HUAWEI/Middlewares/Third_Party/Huawei/iot_link/os/liteos/base/include\heap.h **** #ifndef __HEAP_H__
  36:D:/fchai/work/i-cube/I-CUBE-HUAWEI/Middlewares/Third_Party/Huawei/iot_link/os/liteos/base/include\heap.h **** #define __HEAP_H__
  37:D:/fchai/work/i-cube/I-CUBE-HUAWEI/Middlewares/Third_Party/Huawei/iot_link/os/liteos/base/include\heap.h **** 
  38:D:/fchai/work/i-cube/I-CUBE-HUAWEI/Middlewares/Third_Party/Huawei/iot_link/os/liteos/base/include\heap.h **** #include <los_config.h>
  39:D:/fchai/work/i-cube/I-CUBE-HUAWEI/Middlewares/Third_Party/Huawei/iot_link/os/liteos/base/include\heap.h **** 
  40:D:/fchai/work/i-cube/I-CUBE-HUAWEI/Middlewares/Third_Party/Huawei/iot_link/os/liteos/base/include\heap.h **** #include <stddef.h>
  41:D:/fchai/work/i-cube/I-CUBE-HUAWEI/Middlewares/Third_Party/Huawei/iot_link/os/liteos/base/include\heap.h **** #include <stdbool.h>
  42:D:/fchai/work/i-cube/I-CUBE-HUAWEI/Middlewares/Third_Party/Huawei/iot_link/os/liteos/base/include\heap.h **** 
  43:D:/fchai/work/i-cube/I-CUBE-HUAWEI/Middlewares/Third_Party/Huawei/iot_link/os/liteos/base/include\heap.h **** #include <los_mux.h>
  44:D:/fchai/work/i-cube/I-CUBE-HUAWEI/Middlewares/Third_Party/Huawei/iot_link/os/liteos/base/include\heap.h **** 
  45:D:/fchai/work/i-cube/I-CUBE-HUAWEI/Middlewares/Third_Party/Huawei/iot_link/os/liteos/base/include\heap.h **** #include <los_slab.ph>
  46:D:/fchai/work/i-cube/I-CUBE-HUAWEI/Middlewares/Third_Party/Huawei/iot_link/os/liteos/base/include\heap.h **** 
  47:D:/fchai/work/i-cube/I-CUBE-HUAWEI/Middlewares/Third_Party/Huawei/iot_link/os/liteos/base/include\heap.h **** #include "chunk.h"
  48:D:/fchai/work/i-cube/I-CUBE-HUAWEI/Middlewares/Third_Party/Huawei/iot_link/os/liteos/base/include\heap.h **** 
  49:D:/fchai/work/i-cube/I-CUBE-HUAWEI/Middlewares/Third_Party/Huawei/iot_link/os/liteos/base/include\heap.h **** #if !defined (LOSCFG_CONFIG_CM_TLSF) && !defined (LOSCFG_CONFIG_CM_BESTFIT)
  50:D:/fchai/work/i-cube/I-CUBE-HUAWEI/Middlewares/Third_Party/Huawei/iot_link/os/liteos/base/include\heap.h **** #define LOSCFG_CONFIG_CM_BESTFIT
  51:D:/fchai/work/i-cube/I-CUBE-HUAWEI/Middlewares/Third_Party/Huawei/iot_link/os/liteos/base/include\heap.h **** #endif
  52:D:/fchai/work/i-cube/I-CUBE-HUAWEI/Middlewares/Third_Party/Huawei/iot_link/os/liteos/base/include\heap.h **** 
  53:D:/fchai/work/i-cube/I-CUBE-HUAWEI/Middlewares/Third_Party/Huawei/iot_link/os/liteos/base/include\heap.h **** #if   defined (LOSCFG_CONFIG_CM_TLSF)
  54:D:/fchai/work/i-cube/I-CUBE-HUAWEI/Middlewares/Third_Party/Huawei/iot_link/os/liteos/base/include\heap.h **** #include "cm-tlsf.h"
  55:D:/fchai/work/i-cube/I-CUBE-HUAWEI/Middlewares/Third_Party/Huawei/iot_link/os/liteos/base/include\heap.h **** #elif defined (LOSCFG_CONFIG_CM_BESTFIT)
  56:D:/fchai/work/i-cube/I-CUBE-HUAWEI/Middlewares/Third_Party/Huawei/iot_link/os/liteos/base/include\heap.h **** #include "cm-bestfit.h"
  57:D:/fchai/work/i-cube/I-CUBE-HUAWEI/Middlewares/Third_Party/Huawei/iot_link/os/liteos/base/include\heap.h **** #endif
  58:D:/fchai/work/i-cube/I-CUBE-HUAWEI/Middlewares/Third_Party/Huawei/iot_link/os/liteos/base/include\heap.h **** 
ARM GAS  T:\msys\tmp\ccHTo37l.s 			page 20


  59:D:/fchai/work/i-cube/I-CUBE-HUAWEI/Middlewares/Third_Party/Huawei/iot_link/os/liteos/base/include\heap.h **** #define MIN_BLOCK_SIZE          (sizeof (block_t) + sizeof (ach_t) * 2 + \
  60:D:/fchai/work/i-cube/I-CUBE-HUAWEI/Middlewares/Third_Party/Huawei/iot_link/os/liteos/base/include\heap.h ****                                  sizeof (fch_t))
  61:D:/fchai/work/i-cube/I-CUBE-HUAWEI/Middlewares/Third_Party/Huawei/iot_link/os/liteos/base/include\heap.h **** 
  62:D:/fchai/work/i-cube/I-CUBE-HUAWEI/Middlewares/Third_Party/Huawei/iot_link/os/liteos/base/include\heap.h **** #ifndef ALLOC_ALIGN
  63:D:/fchai/work/i-cube/I-CUBE-HUAWEI/Middlewares/Third_Party/Huawei/iot_link/os/liteos/base/include\heap.h **** #define ALLOC_ALIGN             8
  64:D:/fchai/work/i-cube/I-CUBE-HUAWEI/Middlewares/Third_Party/Huawei/iot_link/os/liteos/base/include\heap.h **** #endif
  65:D:/fchai/work/i-cube/I-CUBE-HUAWEI/Middlewares/Third_Party/Huawei/iot_link/os/liteos/base/include\heap.h **** 
  66:D:/fchai/work/i-cube/I-CUBE-HUAWEI/Middlewares/Third_Party/Huawei/iot_link/os/liteos/base/include\heap.h **** typedef struct block
  67:D:/fchai/work/i-cube/I-CUBE-HUAWEI/Middlewares/Third_Party/Huawei/iot_link/os/liteos/base/include\heap.h **** {
  68:D:/fchai/work/i-cube/I-CUBE-HUAWEI/Middlewares/Third_Party/Huawei/iot_link/os/liteos/base/include\heap.h ****     struct block * next;        /* link into next block      */
  69:D:/fchai/work/i-cube/I-CUBE-HUAWEI/Middlewares/Third_Party/Huawei/iot_link/os/liteos/base/include\heap.h ****     size_t         size;
  70:D:/fchai/work/i-cube/I-CUBE-HUAWEI/Middlewares/Third_Party/Huawei/iot_link/os/liteos/base/include\heap.h **** } block_t;
  71:D:/fchai/work/i-cube/I-CUBE-HUAWEI/Middlewares/Third_Party/Huawei/iot_link/os/liteos/base/include\heap.h **** 
  72:D:/fchai/work/i-cube/I-CUBE-HUAWEI/Middlewares/Third_Party/Huawei/iot_link/os/liteos/base/include\heap.h **** #if (LOSCFG_MEM_STATISTICS == YES)
  73:D:/fchai/work/i-cube/I-CUBE-HUAWEI/Middlewares/Third_Party/Huawei/iot_link/os/liteos/base/include\heap.h **** typedef struct mem_stat
  74:D:/fchai/work/i-cube/I-CUBE-HUAWEI/Middlewares/Third_Party/Huawei/iot_link/os/liteos/base/include\heap.h **** {
  75:D:/fchai/work/i-cube/I-CUBE-HUAWEI/Middlewares/Third_Party/Huawei/iot_link/os/liteos/base/include\heap.h ****     unsigned int       free_chunks;
  76:D:/fchai/work/i-cube/I-CUBE-HUAWEI/Middlewares/Third_Party/Huawei/iot_link/os/liteos/base/include\heap.h ****     size_t             free_size;
  77:D:/fchai/work/i-cube/I-CUBE-HUAWEI/Middlewares/Third_Party/Huawei/iot_link/os/liteos/base/include\heap.h ****     unsigned int       busy_chunks;
  78:D:/fchai/work/i-cube/I-CUBE-HUAWEI/Middlewares/Third_Party/Huawei/iot_link/os/liteos/base/include\heap.h ****     size_t             busy_size;
  79:D:/fchai/work/i-cube/I-CUBE-HUAWEI/Middlewares/Third_Party/Huawei/iot_link/os/liteos/base/include\heap.h ****     size_t             max_busy_size;
  80:D:/fchai/work/i-cube/I-CUBE-HUAWEI/Middlewares/Third_Party/Huawei/iot_link/os/liteos/base/include\heap.h ****     size_t             max_free_size;
  81:D:/fchai/work/i-cube/I-CUBE-HUAWEI/Middlewares/Third_Party/Huawei/iot_link/os/liteos/base/include\heap.h ****     unsigned long long cum_allocated;
  82:D:/fchai/work/i-cube/I-CUBE-HUAWEI/Middlewares/Third_Party/Huawei/iot_link/os/liteos/base/include\heap.h ****     unsigned long long cum_size_allocated;
  83:D:/fchai/work/i-cube/I-CUBE-HUAWEI/Middlewares/Third_Party/Huawei/iot_link/os/liteos/base/include\heap.h ****     unsigned long long cum_freed;
  84:D:/fchai/work/i-cube/I-CUBE-HUAWEI/Middlewares/Third_Party/Huawei/iot_link/os/liteos/base/include\heap.h ****     unsigned long long cum_size_freed;
  85:D:/fchai/work/i-cube/I-CUBE-HUAWEI/Middlewares/Third_Party/Huawei/iot_link/os/liteos/base/include\heap.h **** } mem_stat_t;
  86:D:/fchai/work/i-cube/I-CUBE-HUAWEI/Middlewares/Third_Party/Huawei/iot_link/os/liteos/base/include\heap.h **** #endif
  87:D:/fchai/work/i-cube/I-CUBE-HUAWEI/Middlewares/Third_Party/Huawei/iot_link/os/liteos/base/include\heap.h **** 
  88:D:/fchai/work/i-cube/I-CUBE-HUAWEI/Middlewares/Third_Party/Huawei/iot_link/os/liteos/base/include\heap.h **** typedef struct heap
  89:D:/fchai/work/i-cube/I-CUBE-HUAWEI/Middlewares/Third_Party/Huawei/iot_link/os/liteos/base/include\heap.h **** {
  90:D:/fchai/work/i-cube/I-CUBE-HUAWEI/Middlewares/Third_Party/Huawei/iot_link/os/liteos/base/include\heap.h ****     chunk_mgr_t        cm;
  91:D:/fchai/work/i-cube/I-CUBE-HUAWEI/Middlewares/Third_Party/Huawei/iot_link/os/liteos/base/include\heap.h ****     block_t          * blocks;
  92:D:/fchai/work/i-cube/I-CUBE-HUAWEI/Middlewares/Third_Party/Huawei/iot_link/os/liteos/base/include\heap.h ****     UINT32             mux;
  93:D:/fchai/work/i-cube/I-CUBE-HUAWEI/Middlewares/Third_Party/Huawei/iot_link/os/liteos/base/include\heap.h **** #if (LOSCFG_MEM_STATISTICS == YES)
  94:D:/fchai/work/i-cube/I-CUBE-HUAWEI/Middlewares/Third_Party/Huawei/iot_link/os/liteos/base/include\heap.h ****     struct mem_stat    stat;
  95:D:/fchai/work/i-cube/I-CUBE-HUAWEI/Middlewares/Third_Party/Huawei/iot_link/os/liteos/base/include\heap.h **** #endif
  96:D:/fchai/work/i-cube/I-CUBE-HUAWEI/Middlewares/Third_Party/Huawei/iot_link/os/liteos/base/include\heap.h **** #if (LOSCFG_KERNEL_MEM_SLAB == YES)
  97:D:/fchai/work/i-cube/I-CUBE-HUAWEI/Middlewares/Third_Party/Huawei/iot_link/os/liteos/base/include\heap.h ****     struct LOS_SLAB_CONTROL_HEADER stSlabCtrlHdr;
  98:D:/fchai/work/i-cube/I-CUBE-HUAWEI/Middlewares/Third_Party/Huawei/iot_link/os/liteos/base/include\heap.h **** #endif
  99:D:/fchai/work/i-cube/I-CUBE-HUAWEI/Middlewares/Third_Party/Huawei/iot_link/os/liteos/base/include\heap.h **** } heap_t;
 100:D:/fchai/work/i-cube/I-CUBE-HUAWEI/Middlewares/Third_Party/Huawei/iot_link/os/liteos/base/include\heap.h **** 
 101:D:/fchai/work/i-cube/I-CUBE-HUAWEI/Middlewares/Third_Party/Huawei/iot_link/os/liteos/base/include\heap.h **** /* inlines */
 102:D:/fchai/work/i-cube/I-CUBE-HUAWEI/Middlewares/Third_Party/Huawei/iot_link/os/liteos/base/include\heap.h **** 
 103:D:/fchai/work/i-cube/I-CUBE-HUAWEI/Middlewares/Third_Party/Huawei/iot_link/os/liteos/base/include\heap.h **** #if (LOSCFG_MEM_STATISTICS == YES)
 104:D:/fchai/work/i-cube/I-CUBE-HUAWEI/Middlewares/Third_Party/Huawei/iot_link/os/liteos/base/include\heap.h **** static inline void __stat_chunk_add (mem_stat_t * stat, chunk_t * chunk)
 375              		.loc 5 104 20 view .LVU115
 376              	.LBB157:
 105:D:/fchai/work/i-cube/I-CUBE-HUAWEI/Middlewares/Third_Party/Huawei/iot_link/os/liteos/base/include\heap.h **** {
 106:D:/fchai/work/i-cube/I-CUBE-HUAWEI/Middlewares/Third_Party/Huawei/iot_link/os/liteos/base/include\heap.h ****     stat->free_chunks++;
 377              		.loc 5 106 5 view .LVU116
 378              		.loc 5 106 22 is_stmt 0 view .LVU117
 379 00be D6E96E03 		ldrd	r0, r3, [r6, #440]
 107:D:/fchai/work/i-cube/I-CUBE-HUAWEI/Middlewares/Third_Party/Huawei/iot_link/os/liteos/base/include\heap.h ****     stat->free_size += (chunk->size - sizeof (ach_t));
 380              		.loc 5 107 21 view .LVU118
 381 00c2 083B     		subs	r3, r3, #8
 382 00c4 1344     		add	r3, r3, r2
ARM GAS  T:\msys\tmp\ccHTo37l.s 			page 21


 106:D:/fchai/work/i-cube/I-CUBE-HUAWEI/Middlewares/Third_Party/Huawei/iot_link/os/liteos/base/include\heap.h ****     stat->free_size += (chunk->size - sizeof (ach_t));
 383              		.loc 5 106 22 view .LVU119
 384 00c6 0130     		adds	r0, r0, #1
 385 00c8 C6E96E03 		strd	r0, r3, [r6, #440]
 386              		.loc 5 107 5 is_stmt 1 view .LVU120
 387              	.LBE157:
 388              	.LBE156:
 389              	.LBE169:
  56:D:/fchai/work/i-cube/I-CUBE-HUAWEI/Middlewares/Third_Party/Huawei/iot_link/os/liteos/base/mem/heap\los_heap.c **** }
 390              		.loc 1 56 5 view .LVU121
 391              	.LVL26:
 186:D:/fchai/work/i-cube/I-CUBE-HUAWEI/Middlewares/Third_Party/Huawei/iot_link/os/liteos/base/mem/heap\los_heap.c **** 
 392              		.loc 1 186 5 view .LVU122
 393              	.LBB170:
 394              	.LBI170:
 105:D:/fchai/work/i-cube/I-CUBE-HUAWEI/Middlewares/Third_Party/Huawei/iot_link/os/liteos/base/include\chunk.h **** {
 395              		.loc 3 105 25 view .LVU123
 396              	.LBB171:
 397              		.loc 3 107 5 view .LVU124
 398              		.loc 3 107 57 is_stmt 0 view .LVU125
 399 00cc 4B69     		ldr	r3, [r1, #20]
 400 00ce 23F00103 		bic	r3, r3, #1
 401              		.loc 3 107 12 view .LVU126
 402 00d2 E218     		adds	r2, r4, r3
 403              	.LVL27:
 404              		.loc 3 107 12 view .LVU127
 405              	.LBE171:
 406              	.LBE170:
 188:D:/fchai/work/i-cube/I-CUBE-HUAWEI/Middlewares/Third_Party/Huawei/iot_link/os/liteos/base/mem/heap\los_heap.c ****     last->size   = sizeof (ach_t);
 407              		.loc 1 188 5 is_stmt 1 view .LVU128
 408              	.LBB172:
 409              	.LBB173:
  85:D:/fchai/work/i-cube/I-CUBE-HUAWEI/Middlewares/Third_Party/Huawei/iot_link/os/liteos/base/include\chunk.h **** }
 410              		.loc 3 85 17 is_stmt 0 view .LVU129
 411 00d4 0921     		movs	r1, #9
 412              	.LVL28:
  85:D:/fchai/work/i-cube/I-CUBE-HUAWEI/Middlewares/Third_Party/Huawei/iot_link/os/liteos/base/include\chunk.h **** }
 413              		.loc 3 85 17 view .LVU130
 414              	.LBE173:
 415              	.LBE172:
 188:D:/fchai/work/i-cube/I-CUBE-HUAWEI/Middlewares/Third_Party/Huawei/iot_link/os/liteos/base/mem/heap\los_heap.c ****     last->size   = sizeof (ach_t);
 416              		.loc 1 188 18 view .LVU131
 417 00d6 E450     		str	r4, [r4, r3]
 189:D:/fchai/work/i-cube/I-CUBE-HUAWEI/Middlewares/Third_Party/Huawei/iot_link/os/liteos/base/mem/heap\los_heap.c ****     __set_chunk_allocated (last);
 418              		.loc 1 189 5 is_stmt 1 view .LVU132
 190:D:/fchai/work/i-cube/I-CUBE-HUAWEI/Middlewares/Third_Party/Huawei/iot_link/os/liteos/base/mem/heap\los_heap.c **** 
 419              		.loc 1 190 5 view .LVU133
 420              	.LVL29:
 421              	.LBB175:
 422              	.LBI172:
  83:D:/fchai/work/i-cube/I-CUBE-HUAWEI/Middlewares/Third_Party/Huawei/iot_link/os/liteos/base/include\chunk.h **** {
 423              		.loc 3 83 20 view .LVU134
 424              	.LBB174:
  85:D:/fchai/work/i-cube/I-CUBE-HUAWEI/Middlewares/Third_Party/Huawei/iot_link/os/liteos/base/include\chunk.h **** }
 425              		.loc 3 85 5 view .LVU135
  85:D:/fchai/work/i-cube/I-CUBE-HUAWEI/Middlewares/Third_Party/Huawei/iot_link/os/liteos/base/include\chunk.h **** }
 426              		.loc 3 85 17 is_stmt 0 view .LVU136
ARM GAS  T:\msys\tmp\ccHTo37l.s 			page 22


 427 00d8 5160     		str	r1, [r2, #4]
 428              	.LBE174:
 429              	.LBE175:
 192:D:/fchai/work/i-cube/I-CUBE-HUAWEI/Middlewares/Third_Party/Huawei/iot_link/os/liteos/base/mem/heap\los_heap.c **** 
 430              		.loc 1 192 5 is_stmt 1 view .LVU137
 192:D:/fchai/work/i-cube/I-CUBE-HUAWEI/Middlewares/Third_Party/Huawei/iot_link/os/liteos/base/mem/heap\los_heap.c **** 
 431              		.loc 1 192 12 is_stmt 0 view .LVU138
 432 00da D6F8B401 		ldr	r0, [r6, #436]
 433 00de FFF7FEFF 		bl	LOS_MuxPost
 434              	.LVL30:
 194:D:/fchai/work/i-cube/I-CUBE-HUAWEI/Middlewares/Third_Party/Huawei/iot_link/os/liteos/base/mem/heap\los_heap.c **** }
 435              		.loc 1 194 5 is_stmt 1 view .LVU139
 436              		.loc 1 195 1 is_stmt 0 view .LVU140
 437 00e2 3846     		mov	r0, r7
 438 00e4 BDE8F081 		pop	{r4, r5, r6, r7, r8, pc}
 439              	.LVL31:
 440              	.L21:
 441              	.LBB176:
 442              	.LBB158:
 443              	.LBB152:
 185:D:/fchai/work/i-cube/I-CUBE-HUAWEI/Middlewares/Third_Party/Huawei/iot_link/os/liteos/base/include\cm-tlsf.h ****         cm->chunks [fl_idx][sl_idx] = chunk;
 444              		.loc 2 185 9 is_stmt 1 view .LVU141
 445 00e8 01F11800 		add	r0, r1, #24
 446              	.LVL32:
 447              	.LBB147:
 448              	.LBI147:
  63:D:/fchai/work/i-cube/I-CUBE-HUAWEI/Middlewares/Third_Party/Huawei/iot_link/os/liteos/include\list.h ****     {
 449              		.loc 4 63 20 view .LVU142
 450              	.LBB148:
  65:D:/fchai/work/i-cube/I-CUBE-HUAWEI/Middlewares/Third_Party/Huawei/iot_link/os/liteos/include\list.h ****     }
 451              		.loc 4 65 5 view .LVU143
  65:D:/fchai/work/i-cube/I-CUBE-HUAWEI/Middlewares/Third_Party/Huawei/iot_link/os/liteos/include\list.h ****     }
 452              		.loc 4 65 16 is_stmt 0 view .LVU144
 453 00ec C1E90600 		strd	r0, r0, [r1, #24]
 454              	.LVL33:
  65:D:/fchai/work/i-cube/I-CUBE-HUAWEI/Middlewares/Third_Party/Huawei/iot_link/os/liteos/include\list.h ****     }
 455              		.loc 4 65 16 view .LVU145
 456              	.LBE148:
 457              	.LBE147:
 186:D:/fchai/work/i-cube/I-CUBE-HUAWEI/Middlewares/Third_Party/Huawei/iot_link/os/liteos/base/include\cm-tlsf.h ****     }
 458              		.loc 2 186 9 is_stmt 1 view .LVU146
 186:D:/fchai/work/i-cube/I-CUBE-HUAWEI/Middlewares/Third_Party/Huawei/iot_link/os/liteos/base/include\cm-tlsf.h ****     }
 459              		.loc 2 186 37 is_stmt 0 view .LVU147
 460 00f0 1C62     		str	r4, [r3, #32]
 461              	.LVL34:
 186:D:/fchai/work/i-cube/I-CUBE-HUAWEI/Middlewares/Third_Party/Huawei/iot_link/os/liteos/base/include\cm-tlsf.h ****     }
 462              		.loc 2 186 37 view .LVU148
 463 00f2 E4E7     		b	.L15
 464              	.LVL35:
 465              	.L13:
 186:D:/fchai/work/i-cube/I-CUBE-HUAWEI/Middlewares/Third_Party/Huawei/iot_link/os/liteos/base/include\cm-tlsf.h ****     }
 466              		.loc 2 186 37 view .LVU149
 467              	.LBE152:
 468              	.LBE158:
 469              	.LBE176:
 127:D:/fchai/work/i-cube/I-CUBE-HUAWEI/Middlewares/Third_Party/Huawei/iot_link/os/liteos/base/mem/heap\los_heap.c ****     }
 470              		.loc 1 127 16 view .LVU150
ARM GAS  T:\msys\tmp\ccHTo37l.s 			page 23


 471 00f4 4FF0FF37 		mov	r7, #-1
 472 00f8 9CE7     		b	.L10
 473              	.L23:
 474 00fa 00BF     		.align	2
 475              	.L22:
 476 00fc D7FFFF7F 		.word	2147483607
 477              		.cfi_endproc
 478              	.LFE164:
 480              		.section	.text.heap_alloc_align,"ax",%progbits
 481              		.align	1
 482              		.p2align 2,,3
 483              		.global	heap_alloc_align
 484              		.syntax unified
 485              		.thumb
 486              		.thumb_func
 487              		.fpu fpv4-sp-d16
 489              	heap_alloc_align:
 490              	.LVL36:
 491              	.LFB166:
 196:D:/fchai/work/i-cube/I-CUBE-HUAWEI/Middlewares/Third_Party/Huawei/iot_link/os/liteos/base/mem/heap\los_heap.c **** 
 197:D:/fchai/work/i-cube/I-CUBE-HUAWEI/Middlewares/Third_Party/Huawei/iot_link/os/liteos/base/mem/heap\los_heap.c **** /**
 198:D:/fchai/work/i-cube/I-CUBE-HUAWEI/Middlewares/Third_Party/Huawei/iot_link/os/liteos/base/mem/heap\los_heap.c ****  * __carve_extra - round up a block of memory and carve the unused memory at
 199:D:/fchai/work/i-cube/I-CUBE-HUAWEI/Middlewares/Third_Party/Huawei/iot_link/os/liteos/base/mem/heap\los_heap.c ****  *                 the beginning and ending
 200:D:/fchai/work/i-cube/I-CUBE-HUAWEI/Middlewares/Third_Party/Huawei/iot_link/os/liteos/base/mem/heap\los_heap.c ****  * @heap:  the heap used
 201:D:/fchai/work/i-cube/I-CUBE-HUAWEI/Middlewares/Third_Party/Huawei/iot_link/os/liteos/base/mem/heap\los_heap.c ****  * @chunk: the chunk which hold the memory block to round up and carve
 202:D:/fchai/work/i-cube/I-CUBE-HUAWEI/Middlewares/Third_Party/Huawei/iot_link/os/liteos/base/mem/heap\los_heap.c ****  * @align: the alignment to round up
 203:D:/fchai/work/i-cube/I-CUBE-HUAWEI/Middlewares/Third_Party/Huawei/iot_link/os/liteos/base/mem/heap\los_heap.c ****  *
 204:D:/fchai/work/i-cube/I-CUBE-HUAWEI/Middlewares/Third_Party/Huawei/iot_link/os/liteos/base/mem/heap\los_heap.c ****  * return: the new aligned memory block
 205:D:/fchai/work/i-cube/I-CUBE-HUAWEI/Middlewares/Third_Party/Huawei/iot_link/os/liteos/base/mem/heap\los_heap.c ****  */
 206:D:/fchai/work/i-cube/I-CUBE-HUAWEI/Middlewares/Third_Party/Huawei/iot_link/os/liteos/base/mem/heap\los_heap.c **** 
 207:D:/fchai/work/i-cube/I-CUBE-HUAWEI/Middlewares/Third_Party/Huawei/iot_link/os/liteos/base/mem/heap\los_heap.c **** static inline char * __carve_extra (heap_t * heap, chunk_t * chunk,
 208:D:/fchai/work/i-cube/I-CUBE-HUAWEI/Middlewares/Third_Party/Huawei/iot_link/os/liteos/base/mem/heap\los_heap.c ****                                     size_t align, size_t size)
 209:D:/fchai/work/i-cube/I-CUBE-HUAWEI/Middlewares/Third_Party/Huawei/iot_link/os/liteos/base/mem/heap\los_heap.c **** {
 210:D:/fchai/work/i-cube/I-CUBE-HUAWEI/Middlewares/Third_Party/Huawei/iot_link/os/liteos/base/mem/heap\los_heap.c ****     char    * mem         = __get_mem_block (chunk);
 211:D:/fchai/work/i-cube/I-CUBE-HUAWEI/Middlewares/Third_Party/Huawei/iot_link/os/liteos/base/mem/heap\los_heap.c ****     char    * aligned_mem = (char *) round_up (mem, align);
 212:D:/fchai/work/i-cube/I-CUBE-HUAWEI/Middlewares/Third_Party/Huawei/iot_link/os/liteos/base/mem/heap\los_heap.c ****     ach_t   * ach         = (ach_t *) chunk;
 213:D:/fchai/work/i-cube/I-CUBE-HUAWEI/Middlewares/Third_Party/Huawei/iot_link/os/liteos/base/mem/heap\los_heap.c ****     chunk_t * next;
 214:D:/fchai/work/i-cube/I-CUBE-HUAWEI/Middlewares/Third_Party/Huawei/iot_link/os/liteos/base/mem/heap\los_heap.c ****     size_t    usable_size;
 215:D:/fchai/work/i-cube/I-CUBE-HUAWEI/Middlewares/Third_Party/Huawei/iot_link/os/liteos/base/mem/heap\los_heap.c **** 
 216:D:/fchai/work/i-cube/I-CUBE-HUAWEI/Middlewares/Third_Party/Huawei/iot_link/os/liteos/base/mem/heap\los_heap.c ****     if (aligned_mem != mem)
 217:D:/fchai/work/i-cube/I-CUBE-HUAWEI/Middlewares/Third_Party/Huawei/iot_link/os/liteos/base/mem/heap\los_heap.c ****     {
 218:D:/fchai/work/i-cube/I-CUBE-HUAWEI/Middlewares/Third_Party/Huawei/iot_link/os/liteos/base/mem/heap\los_heap.c **** 
 219:D:/fchai/work/i-cube/I-CUBE-HUAWEI/Middlewares/Third_Party/Huawei/iot_link/os/liteos/base/mem/heap\los_heap.c ****         /*
 220:D:/fchai/work/i-cube/I-CUBE-HUAWEI/Middlewares/Third_Party/Huawei/iot_link/os/liteos/base/mem/heap\los_heap.c ****          * carve at the begining (carve head)
 221:D:/fchai/work/i-cube/I-CUBE-HUAWEI/Middlewares/Third_Party/Huawei/iot_link/os/liteos/base/mem/heap\los_heap.c ****          *
 222:D:/fchai/work/i-cube/I-CUBE-HUAWEI/Middlewares/Third_Party/Huawei/iot_link/os/liteos/base/mem/heap\los_heap.c ****          *   .-chunk(FCH)-.
 223:D:/fchai/work/i-cube/I-CUBE-HUAWEI/Middlewares/Third_Party/Huawei/iot_link/os/liteos/base/mem/heap\los_heap.c ****          *  /              \
 224:D:/fchai/work/i-cube/I-CUBE-HUAWEI/Middlewares/Third_Party/Huawei/iot_link/os/liteos/base/mem/heap\los_heap.c ****          * +---+---+---+---+~~~+---+---+~~
 225:D:/fchai/work/i-cube/I-CUBE-HUAWEI/Middlewares/Third_Party/Huawei/iot_link/os/liteos/base/mem/heap\los_heap.c ****          * | p | s |   l   | ~ | p | s |
 226:D:/fchai/work/i-cube/I-CUBE-HUAWEI/Middlewares/Third_Party/Huawei/iot_link/os/liteos/base/mem/heap\los_heap.c ****          * | r | i |   i   | ~ | r | i |
 227:D:/fchai/work/i-cube/I-CUBE-HUAWEI/Middlewares/Third_Party/Huawei/iot_link/os/liteos/base/mem/heap\los_heap.c ****          * | e | z |   s   | ~ | e | z |
 228:D:/fchai/work/i-cube/I-CUBE-HUAWEI/Middlewares/Third_Party/Huawei/iot_link/os/liteos/base/mem/heap\los_heap.c ****          * | v | e |   t   | ~ | v | e |
 229:D:/fchai/work/i-cube/I-CUBE-HUAWEI/Middlewares/Third_Party/Huawei/iot_link/os/liteos/base/mem/heap\los_heap.c ****          * +---+---+---+---+~~~+---+---+~~
 230:D:/fchai/work/i-cube/I-CUBE-HUAWEI/Middlewares/Third_Party/Huawei/iot_link/os/liteos/base/mem/heap\los_heap.c ****          *         \           \       /\
 231:D:/fchai/work/i-cube/I-CUBE-HUAWEI/Middlewares/Third_Party/Huawei/iot_link/os/liteos/base/mem/heap\los_heap.c ****          *          `-- mem     `-ach-' `-- aligned_mem
 232:D:/fchai/work/i-cube/I-CUBE-HUAWEI/Middlewares/Third_Party/Huawei/iot_link/os/liteos/base/mem/heap\los_heap.c ****          *
 233:D:/fchai/work/i-cube/I-CUBE-HUAWEI/Middlewares/Third_Party/Huawei/iot_link/os/liteos/base/mem/heap\los_heap.c ****          * now "mem != aligned_mem", so there must be "chunk < ach" so there are
ARM GAS  T:\msys\tmp\ccHTo37l.s 			page 24


 234:D:/fchai/work/i-cube/I-CUBE-HUAWEI/Middlewares/Third_Party/Huawei/iot_link/os/liteos/base/mem/heap\los_heap.c ****          * memory space in front of ach (chunk ~ ach), if "(ach - chunk) <= chunk",
 235:D:/fchai/work/i-cube/I-CUBE-HUAWEI/Middlewares/Third_Party/Huawei/iot_link/os/liteos/base/mem/heap\los_heap.c ****          * needless create new chunk, it is not worse to add logic save such memory
 236:D:/fchai/work/i-cube/I-CUBE-HUAWEI/Middlewares/Third_Party/Huawei/iot_link/os/liteos/base/mem/heap\los_heap.c ****          * block, because for any method to save such memory block we must allocate
 237:D:/fchai/work/i-cube/I-CUBE-HUAWEI/Middlewares/Third_Party/Huawei/iot_link/os/liteos/base/mem/heap\los_heap.c ****          * a chunk head for it, the chunk head itself waste more memory
 238:D:/fchai/work/i-cube/I-CUBE-HUAWEI/Middlewares/Third_Party/Huawei/iot_link/os/liteos/base/mem/heap\los_heap.c ****          */
 239:D:/fchai/work/i-cube/I-CUBE-HUAWEI/Middlewares/Third_Party/Huawei/iot_link/os/liteos/base/mem/heap\los_heap.c **** 
 240:D:/fchai/work/i-cube/I-CUBE-HUAWEI/Middlewares/Third_Party/Huawei/iot_link/os/liteos/base/mem/heap\los_heap.c ****         if ((aligned_mem - (char *) chunk) <= (sizeof (chunk_t) + sizeof (ach_t)))
 241:D:/fchai/work/i-cube/I-CUBE-HUAWEI/Middlewares/Third_Party/Huawei/iot_link/os/liteos/base/mem/heap\los_heap.c ****         {
 242:D:/fchai/work/i-cube/I-CUBE-HUAWEI/Middlewares/Third_Party/Huawei/iot_link/os/liteos/base/mem/heap\los_heap.c ****             __set_ach_to_mem (aligned_mem, chunk);
 243:D:/fchai/work/i-cube/I-CUBE-HUAWEI/Middlewares/Third_Party/Huawei/iot_link/os/liteos/base/mem/heap\los_heap.c ****         }
 244:D:/fchai/work/i-cube/I-CUBE-HUAWEI/Middlewares/Third_Party/Huawei/iot_link/os/liteos/base/mem/heap\los_heap.c ****         else
 245:D:/fchai/work/i-cube/I-CUBE-HUAWEI/Middlewares/Third_Party/Huawei/iot_link/os/liteos/base/mem/heap\los_heap.c ****         {
 246:D:/fchai/work/i-cube/I-CUBE-HUAWEI/Middlewares/Third_Party/Huawei/iot_link/os/liteos/base/mem/heap\los_heap.c ****             ach = (ach_t *) (aligned_mem - sizeof (ach_t));
 247:D:/fchai/work/i-cube/I-CUBE-HUAWEI/Middlewares/Third_Party/Huawei/iot_link/os/liteos/base/mem/heap\los_heap.c **** 
 248:D:/fchai/work/i-cube/I-CUBE-HUAWEI/Middlewares/Third_Party/Huawei/iot_link/os/liteos/base/mem/heap\los_heap.c ****             ach->prev = chunk;
 249:D:/fchai/work/i-cube/I-CUBE-HUAWEI/Middlewares/Third_Party/Huawei/iot_link/os/liteos/base/mem/heap\los_heap.c ****             ach->size = chunk->size - ((char *) ach - (char *) chunk);
 250:D:/fchai/work/i-cube/I-CUBE-HUAWEI/Middlewares/Third_Party/Huawei/iot_link/os/liteos/base/mem/heap\los_heap.c **** 
 251:D:/fchai/work/i-cube/I-CUBE-HUAWEI/Middlewares/Third_Party/Huawei/iot_link/os/liteos/base/mem/heap\los_heap.c ****             __get_next_chunk ((chunk_t *) ach)->prev = (chunk_t *) ach;
 252:D:/fchai/work/i-cube/I-CUBE-HUAWEI/Middlewares/Third_Party/Huawei/iot_link/os/liteos/base/mem/heap\los_heap.c **** 
 253:D:/fchai/work/i-cube/I-CUBE-HUAWEI/Middlewares/Third_Party/Huawei/iot_link/os/liteos/base/mem/heap\los_heap.c ****             chunk->size = (char *) ach - (char *) chunk;
 254:D:/fchai/work/i-cube/I-CUBE-HUAWEI/Middlewares/Third_Party/Huawei/iot_link/os/liteos/base/mem/heap\los_heap.c **** 
 255:D:/fchai/work/i-cube/I-CUBE-HUAWEI/Middlewares/Third_Party/Huawei/iot_link/os/liteos/base/mem/heap\los_heap.c ****             __put_chunk (heap, chunk);
 256:D:/fchai/work/i-cube/I-CUBE-HUAWEI/Middlewares/Third_Party/Huawei/iot_link/os/liteos/base/mem/heap\los_heap.c ****         }
 257:D:/fchai/work/i-cube/I-CUBE-HUAWEI/Middlewares/Third_Party/Huawei/iot_link/os/liteos/base/mem/heap\los_heap.c ****     }
 258:D:/fchai/work/i-cube/I-CUBE-HUAWEI/Middlewares/Third_Party/Huawei/iot_link/os/liteos/base/mem/heap\los_heap.c **** 
 259:D:/fchai/work/i-cube/I-CUBE-HUAWEI/Middlewares/Third_Party/Huawei/iot_link/os/liteos/base/mem/heap\los_heap.c ****     /*
 260:D:/fchai/work/i-cube/I-CUBE-HUAWEI/Middlewares/Third_Party/Huawei/iot_link/os/liteos/base/mem/heap\los_heap.c ****      * carve at the ending (carve tail)
 261:D:/fchai/work/i-cube/I-CUBE-HUAWEI/Middlewares/Third_Party/Huawei/iot_link/os/liteos/base/mem/heap\los_heap.c ****      *
 262:D:/fchai/work/i-cube/I-CUBE-HUAWEI/Middlewares/Third_Party/Huawei/iot_link/os/liteos/base/mem/heap\los_heap.c ****      * there may be small memory gap (less than a chunk head size) betwen
 263:D:/fchai/work/i-cube/I-CUBE-HUAWEI/Middlewares/Third_Party/Huawei/iot_link/os/liteos/base/mem/heap\los_heap.c ****      * __get_mem_block (chunk) and mem, see above "carve head" for details
 264:D:/fchai/work/i-cube/I-CUBE-HUAWEI/Middlewares/Third_Party/Huawei/iot_link/os/liteos/base/mem/heap\los_heap.c ****      *
 265:D:/fchai/work/i-cube/I-CUBE-HUAWEI/Middlewares/Third_Party/Huawei/iot_link/os/liteos/base/mem/heap\los_heap.c ****      *                     .-- total size is chunk->size
 266:D:/fchai/work/i-cube/I-CUBE-HUAWEI/Middlewares/Third_Party/Huawei/iot_link/os/liteos/base/mem/heap\los_heap.c ****      *                    /
 267:D:/fchai/work/i-cube/I-CUBE-HUAWEI/Middlewares/Third_Party/Huawei/iot_link/os/liteos/base/mem/heap\los_heap.c ****      *  ..................+....................
 268:D:/fchai/work/i-cube/I-CUBE-HUAWEI/Middlewares/Third_Party/Huawei/iot_link/os/liteos/base/mem/heap\los_heap.c ****      * /                                       \
 269:D:/fchai/work/i-cube/I-CUBE-HUAWEI/Middlewares/Third_Party/Huawei/iot_link/os/liteos/base/mem/heap\los_heap.c ****      * +-----+-----+----------------------------+------------+ ~ ...
 270:D:/fchai/work/i-cube/I-CUBE-HUAWEI/Middlewares/Third_Party/Huawei/iot_link/os/liteos/base/mem/heap\los_heap.c ****      * | ACH | GAP |        usable memory       | next chunk | ~ ...
 271:D:/fchai/work/i-cube/I-CUBE-HUAWEI/Middlewares/Third_Party/Huawei/iot_link/os/liteos/base/mem/heap\los_heap.c ****      * +-----+-----+----------------------------+------------+ ~ ...
 272:D:/fchai/work/i-cube/I-CUBE-HUAWEI/Middlewares/Third_Party/Huawei/iot_link/os/liteos/base/mem/heap\los_heap.c ****      * \            \
 273:D:/fchai/work/i-cube/I-CUBE-HUAWEI/Middlewares/Third_Party/Huawei/iot_link/os/liteos/base/mem/heap\los_heap.c ****      *  \            `-------- mem
 274:D:/fchai/work/i-cube/I-CUBE-HUAWEI/Middlewares/Third_Party/Huawei/iot_link/os/liteos/base/mem/heap\los_heap.c ****      *   `-------------------- chunk
 275:D:/fchai/work/i-cube/I-CUBE-HUAWEI/Middlewares/Third_Party/Huawei/iot_link/os/liteos/base/mem/heap\los_heap.c ****      *
 276:D:/fchai/work/i-cube/I-CUBE-HUAWEI/Middlewares/Third_Party/Huawei/iot_link/os/liteos/base/mem/heap\los_heap.c ****      * so, the usable memory size is (chunk->size - (addr (mem) - (addr) chunk))
 277:D:/fchai/work/i-cube/I-CUBE-HUAWEI/Middlewares/Third_Party/Huawei/iot_link/os/liteos/base/mem/heap\los_heap.c ****      *
 278:D:/fchai/work/i-cube/I-CUBE-HUAWEI/Middlewares/Third_Party/Huawei/iot_link/os/liteos/base/mem/heap\los_heap.c ****      * we are going to carve extra memory block at the end of the usable memory
 279:D:/fchai/work/i-cube/I-CUBE-HUAWEI/Middlewares/Third_Party/Huawei/iot_link/os/liteos/base/mem/heap\los_heap.c ****      */
 280:D:/fchai/work/i-cube/I-CUBE-HUAWEI/Middlewares/Third_Party/Huawei/iot_link/os/liteos/base/mem/heap\los_heap.c **** 
 281:D:/fchai/work/i-cube/I-CUBE-HUAWEI/Middlewares/Third_Party/Huawei/iot_link/os/liteos/base/mem/heap\los_heap.c ****     usable_size = ach->size - (aligned_mem - (char *) ach);
 282:D:/fchai/work/i-cube/I-CUBE-HUAWEI/Middlewares/Third_Party/Huawei/iot_link/os/liteos/base/mem/heap\los_heap.c **** 
 283:D:/fchai/work/i-cube/I-CUBE-HUAWEI/Middlewares/Third_Party/Huawei/iot_link/os/liteos/base/mem/heap\los_heap.c ****     /*
 284:D:/fchai/work/i-cube/I-CUBE-HUAWEI/Middlewares/Third_Party/Huawei/iot_link/os/liteos/base/mem/heap\los_heap.c ****      * if the extra memory at the end is smaller than a chunk head size, do not
 285:D:/fchai/work/i-cube/I-CUBE-HUAWEI/Middlewares/Third_Party/Huawei/iot_link/os/liteos/base/mem/heap\los_heap.c ****      * create new chunk
 286:D:/fchai/work/i-cube/I-CUBE-HUAWEI/Middlewares/Third_Party/Huawei/iot_link/os/liteos/base/mem/heap\los_heap.c ****      */
 287:D:/fchai/work/i-cube/I-CUBE-HUAWEI/Middlewares/Third_Party/Huawei/iot_link/os/liteos/base/mem/heap\los_heap.c **** 
 288:D:/fchai/work/i-cube/I-CUBE-HUAWEI/Middlewares/Third_Party/Huawei/iot_link/os/liteos/base/mem/heap\los_heap.c ****     if ((usable_size - size) >= sizeof (chunk_t))
 289:D:/fchai/work/i-cube/I-CUBE-HUAWEI/Middlewares/Third_Party/Huawei/iot_link/os/liteos/base/mem/heap\los_heap.c ****     {
 290:D:/fchai/work/i-cube/I-CUBE-HUAWEI/Middlewares/Third_Party/Huawei/iot_link/os/liteos/base/mem/heap\los_heap.c **** 
ARM GAS  T:\msys\tmp\ccHTo37l.s 			page 25


 291:D:/fchai/work/i-cube/I-CUBE-HUAWEI/Middlewares/Third_Party/Huawei/iot_link/os/liteos/base/mem/heap\los_heap.c ****         /*
 292:D:/fchai/work/i-cube/I-CUBE-HUAWEI/Middlewares/Third_Party/Huawei/iot_link/os/liteos/base/mem/heap\los_heap.c ****          * there is extra memory at the end of usable memory greater than chunk size:
 293:D:/fchai/work/i-cube/I-CUBE-HUAWEI/Middlewares/Third_Party/Huawei/iot_link/os/liteos/base/mem/heap\los_heap.c ****          *
 294:D:/fchai/work/i-cube/I-CUBE-HUAWEI/Middlewares/Third_Party/Huawei/iot_link/os/liteos/base/mem/heap\los_heap.c ****          *                              .----- usable memory
 295:D:/fchai/work/i-cube/I-CUBE-HUAWEI/Middlewares/Third_Party/Huawei/iot_link/os/liteos/base/mem/heap\los_heap.c ****          *                             /
 296:D:/fchai/work/i-cube/I-CUBE-HUAWEI/Middlewares/Third_Party/Huawei/iot_link/os/liteos/base/mem/heap\los_heap.c ****          *                   .........+........
 297:D:/fchai/work/i-cube/I-CUBE-HUAWEI/Middlewares/Third_Party/Huawei/iot_link/os/liteos/base/mem/heap\los_heap.c ****          *                  /                  \
 298:D:/fchai/work/i-cube/I-CUBE-HUAWEI/Middlewares/Third_Party/Huawei/iot_link/os/liteos/base/mem/heap\los_heap.c ****          *                 /      .- size       \
 299:D:/fchai/work/i-cube/I-CUBE-HUAWEI/Middlewares/Third_Party/Huawei/iot_link/os/liteos/base/mem/heap\los_heap.c ****          *                /      /               \
 300:D:/fchai/work/i-cube/I-CUBE-HUAWEI/Middlewares/Third_Party/Huawei/iot_link/os/liteos/base/mem/heap\los_heap.c ****          *               .......+......           \
 301:D:/fchai/work/i-cube/I-CUBE-HUAWEI/Middlewares/Third_Party/Huawei/iot_link/os/liteos/base/mem/heap\los_heap.c ****          *              /              \           \
 302:D:/fchai/work/i-cube/I-CUBE-HUAWEI/Middlewares/Third_Party/Huawei/iot_link/os/liteos/base/mem/heap\los_heap.c ****          * +-----+-----+----------------+-----------+------------+ ~ ...
 303:D:/fchai/work/i-cube/I-CUBE-HUAWEI/Middlewares/Third_Party/Huawei/iot_link/os/liteos/base/mem/heap\los_heap.c ****          * | ACH | GAP | wanted memory  | extra mem | next chunk | ~ ...
 304:D:/fchai/work/i-cube/I-CUBE-HUAWEI/Middlewares/Third_Party/Huawei/iot_link/os/liteos/base/mem/heap\los_heap.c ****          * +-----+-----+----------------+-----------+------------+ ~ ...
 305:D:/fchai/work/i-cube/I-CUBE-HUAWEI/Middlewares/Third_Party/Huawei/iot_link/os/liteos/base/mem/heap\los_heap.c ****          *  \           \                 \
 306:D:/fchai/work/i-cube/I-CUBE-HUAWEI/Middlewares/Third_Party/Huawei/iot_link/os/liteos/base/mem/heap\los_heap.c ****          *   \           \                 `-- extra memory at the end
 307:D:/fchai/work/i-cube/I-CUBE-HUAWEI/Middlewares/Third_Party/Huawei/iot_link/os/liteos/base/mem/heap\los_heap.c ****          *    \           `------------------- mem
 308:D:/fchai/work/i-cube/I-CUBE-HUAWEI/Middlewares/Third_Party/Huawei/iot_link/os/liteos/base/mem/heap\los_heap.c ****          *     `------------------------------ ach
 309:D:/fchai/work/i-cube/I-CUBE-HUAWEI/Middlewares/Third_Party/Huawei/iot_link/os/liteos/base/mem/heap\los_heap.c ****          *
 310:D:/fchai/work/i-cube/I-CUBE-HUAWEI/Middlewares/Third_Party/Huawei/iot_link/os/liteos/base/mem/heap\los_heap.c ****          * ==>
 311:D:/fchai/work/i-cube/I-CUBE-HUAWEI/Middlewares/Third_Party/Huawei/iot_link/os/liteos/base/mem/heap\los_heap.c ****          *
 312:D:/fchai/work/i-cube/I-CUBE-HUAWEI/Middlewares/Third_Party/Huawei/iot_link/os/liteos/base/mem/heap\los_heap.c ****          * +-----+-----+----------------+-----+-----+------------+ ~ ...
 313:D:/fchai/work/i-cube/I-CUBE-HUAWEI/Middlewares/Third_Party/Huawei/iot_link/os/liteos/base/mem/heap\los_heap.c ****          * | ACH | GAP | wanted memory  | FCH | mem | next chunk | ~ ...
 314:D:/fchai/work/i-cube/I-CUBE-HUAWEI/Middlewares/Third_Party/Huawei/iot_link/os/liteos/base/mem/heap\los_heap.c ****          * +-----+-----+----------------+-----+-----+------------+ ~ ...
 315:D:/fchai/work/i-cube/I-CUBE-HUAWEI/Middlewares/Third_Party/Huawei/iot_link/os/liteos/base/mem/heap\los_heap.c ****          *  \           \                \
 316:D:/fchai/work/i-cube/I-CUBE-HUAWEI/Middlewares/Third_Party/Huawei/iot_link/os/liteos/base/mem/heap\los_heap.c ****          *   \           \                `--- new_chunk, will return to heap
 317:D:/fchai/work/i-cube/I-CUBE-HUAWEI/Middlewares/Third_Party/Huawei/iot_link/os/liteos/base/mem/heap\los_heap.c ****          *    \           `------------------- mem, will return to user
 318:D:/fchai/work/i-cube/I-CUBE-HUAWEI/Middlewares/Third_Party/Huawei/iot_link/os/liteos/base/mem/heap\los_heap.c ****          *     `------------------------------ ach
 319:D:/fchai/work/i-cube/I-CUBE-HUAWEI/Middlewares/Third_Party/Huawei/iot_link/os/liteos/base/mem/heap\los_heap.c ****          */
 320:D:/fchai/work/i-cube/I-CUBE-HUAWEI/Middlewares/Third_Party/Huawei/iot_link/os/liteos/base/mem/heap\los_heap.c **** 
 321:D:/fchai/work/i-cube/I-CUBE-HUAWEI/Middlewares/Third_Party/Huawei/iot_link/os/liteos/base/mem/heap\los_heap.c ****         ach->size  -= (usable_size - size);
 322:D:/fchai/work/i-cube/I-CUBE-HUAWEI/Middlewares/Third_Party/Huawei/iot_link/os/liteos/base/mem/heap\los_heap.c **** 
 323:D:/fchai/work/i-cube/I-CUBE-HUAWEI/Middlewares/Third_Party/Huawei/iot_link/os/liteos/base/mem/heap\los_heap.c ****         chunk       = (chunk_t *) (aligned_mem + size);
 324:D:/fchai/work/i-cube/I-CUBE-HUAWEI/Middlewares/Third_Party/Huawei/iot_link/os/liteos/base/mem/heap\los_heap.c ****         chunk->prev = (chunk_t *) ach;
 325:D:/fchai/work/i-cube/I-CUBE-HUAWEI/Middlewares/Third_Party/Huawei/iot_link/os/liteos/base/mem/heap\los_heap.c ****         chunk->size = (usable_size - size);
 326:D:/fchai/work/i-cube/I-CUBE-HUAWEI/Middlewares/Third_Party/Huawei/iot_link/os/liteos/base/mem/heap\los_heap.c **** 
 327:D:/fchai/work/i-cube/I-CUBE-HUAWEI/Middlewares/Third_Party/Huawei/iot_link/os/liteos/base/mem/heap\los_heap.c ****         next        = __get_next_chunk (chunk);
 328:D:/fchai/work/i-cube/I-CUBE-HUAWEI/Middlewares/Third_Party/Huawei/iot_link/os/liteos/base/mem/heap\los_heap.c **** 
 329:D:/fchai/work/i-cube/I-CUBE-HUAWEI/Middlewares/Third_Party/Huawei/iot_link/os/liteos/base/mem/heap\los_heap.c ****         next->prev  = chunk;
 330:D:/fchai/work/i-cube/I-CUBE-HUAWEI/Middlewares/Third_Party/Huawei/iot_link/os/liteos/base/mem/heap\los_heap.c **** 
 331:D:/fchai/work/i-cube/I-CUBE-HUAWEI/Middlewares/Third_Party/Huawei/iot_link/os/liteos/base/mem/heap\los_heap.c ****         __put_chunk (heap, chunk);
 332:D:/fchai/work/i-cube/I-CUBE-HUAWEI/Middlewares/Third_Party/Huawei/iot_link/os/liteos/base/mem/heap\los_heap.c ****     }
 333:D:/fchai/work/i-cube/I-CUBE-HUAWEI/Middlewares/Third_Party/Huawei/iot_link/os/liteos/base/mem/heap\los_heap.c **** 
 334:D:/fchai/work/i-cube/I-CUBE-HUAWEI/Middlewares/Third_Party/Huawei/iot_link/os/liteos/base/mem/heap\los_heap.c **** #if (LOSCFG_MEM_STATISTICS == YES)
 335:D:/fchai/work/i-cube/I-CUBE-HUAWEI/Middlewares/Third_Party/Huawei/iot_link/os/liteos/base/mem/heap\los_heap.c ****     __stat_chunk_alloc (&heap->stat, (chunk_t *) ach);
 336:D:/fchai/work/i-cube/I-CUBE-HUAWEI/Middlewares/Third_Party/Huawei/iot_link/os/liteos/base/mem/heap\los_heap.c **** #endif
 337:D:/fchai/work/i-cube/I-CUBE-HUAWEI/Middlewares/Third_Party/Huawei/iot_link/os/liteos/base/mem/heap\los_heap.c **** 
 338:D:/fchai/work/i-cube/I-CUBE-HUAWEI/Middlewares/Third_Party/Huawei/iot_link/os/liteos/base/mem/heap\los_heap.c ****     __set_chunk_allocated ((chunk_t *) ach);
 339:D:/fchai/work/i-cube/I-CUBE-HUAWEI/Middlewares/Third_Party/Huawei/iot_link/os/liteos/base/mem/heap\los_heap.c **** 
 340:D:/fchai/work/i-cube/I-CUBE-HUAWEI/Middlewares/Third_Party/Huawei/iot_link/os/liteos/base/mem/heap\los_heap.c ****     return aligned_mem;
 341:D:/fchai/work/i-cube/I-CUBE-HUAWEI/Middlewares/Third_Party/Huawei/iot_link/os/liteos/base/mem/heap\los_heap.c **** }
 342:D:/fchai/work/i-cube/I-CUBE-HUAWEI/Middlewares/Third_Party/Huawei/iot_link/os/liteos/base/mem/heap\los_heap.c **** 
 343:D:/fchai/work/i-cube/I-CUBE-HUAWEI/Middlewares/Third_Party/Huawei/iot_link/os/liteos/base/mem/heap\los_heap.c **** /**
 344:D:/fchai/work/i-cube/I-CUBE-HUAWEI/Middlewares/Third_Party/Huawei/iot_link/os/liteos/base/mem/heap\los_heap.c ****  * heap_alloc_align - allocate a block of memory from a heap with alignment
 345:D:/fchai/work/i-cube/I-CUBE-HUAWEI/Middlewares/Third_Party/Huawei/iot_link/os/liteos/base/mem/heap\los_heap.c ****  * @heap:  the heap to allocate from
 346:D:/fchai/work/i-cube/I-CUBE-HUAWEI/Middlewares/Third_Party/Huawei/iot_link/os/liteos/base/mem/heap\los_heap.c ****  * @bytes: size of memory in bytes to allocate
 347:D:/fchai/work/i-cube/I-CUBE-HUAWEI/Middlewares/Third_Party/Huawei/iot_link/os/liteos/base/mem/heap\los_heap.c ****  * @align: the expected alignment value
ARM GAS  T:\msys\tmp\ccHTo37l.s 			page 26


 348:D:/fchai/work/i-cube/I-CUBE-HUAWEI/Middlewares/Third_Party/Huawei/iot_link/os/liteos/base/mem/heap\los_heap.c ****  *
 349:D:/fchai/work/i-cube/I-CUBE-HUAWEI/Middlewares/Third_Party/Huawei/iot_link/os/liteos/base/mem/heap\los_heap.c ****  * return: the allocated memory block or NULL if fail
 350:D:/fchai/work/i-cube/I-CUBE-HUAWEI/Middlewares/Third_Party/Huawei/iot_link/os/liteos/base/mem/heap\los_heap.c ****  */
 351:D:/fchai/work/i-cube/I-CUBE-HUAWEI/Middlewares/Third_Party/Huawei/iot_link/os/liteos/base/mem/heap\los_heap.c **** 
 352:D:/fchai/work/i-cube/I-CUBE-HUAWEI/Middlewares/Third_Party/Huawei/iot_link/os/liteos/base/mem/heap\los_heap.c **** char * heap_alloc_align (heap_t * heap, size_t align, size_t bytes)
 353:D:/fchai/work/i-cube/I-CUBE-HUAWEI/Middlewares/Third_Party/Huawei/iot_link/os/liteos/base/mem/heap\los_heap.c **** {
 492              		.loc 1 353 1 is_stmt 1 view -0
 493              		.cfi_startproc
 494              		@ args = 0, pretend = 0, frame = 0
 495              		@ frame_needed = 0, uses_anonymous_args = 0
 354:D:/fchai/work/i-cube/I-CUBE-HUAWEI/Middlewares/Third_Party/Huawei/iot_link/os/liteos/base/mem/heap\los_heap.c ****     chunk_t * chunk;
 496              		.loc 1 354 5 view .LVU152
 355:D:/fchai/work/i-cube/I-CUBE-HUAWEI/Middlewares/Third_Party/Huawei/iot_link/os/liteos/base/mem/heap\los_heap.c ****     char    * mem = NULL;
 497              		.loc 1 355 5 view .LVU153
 356:D:/fchai/work/i-cube/I-CUBE-HUAWEI/Middlewares/Third_Party/Huawei/iot_link/os/liteos/base/mem/heap\los_heap.c **** 
 357:D:/fchai/work/i-cube/I-CUBE-HUAWEI/Middlewares/Third_Party/Huawei/iot_link/os/liteos/base/mem/heap\los_heap.c ****     if (heap == NULL)
 498              		.loc 1 357 5 view .LVU154
 353:D:/fchai/work/i-cube/I-CUBE-HUAWEI/Middlewares/Third_Party/Huawei/iot_link/os/liteos/base/mem/heap\los_heap.c ****     chunk_t * chunk;
 499              		.loc 1 353 1 is_stmt 0 view .LVU155
 500 0000 2DE9F047 		push	{r4, r5, r6, r7, r8, r9, r10, lr}
 501              	.LCFI3:
 502              		.cfi_def_cfa_offset 32
 503              		.cfi_offset 4, -32
 504              		.cfi_offset 5, -28
 505              		.cfi_offset 6, -24
 506              		.cfi_offset 7, -20
 507              		.cfi_offset 8, -16
 508              		.cfi_offset 9, -12
 509              		.cfi_offset 10, -8
 510              		.cfi_offset 14, -4
 511              		.loc 1 357 8 view .LVU156
 512 0004 0028     		cmp	r0, #0
 513 0006 00F0C580 		beq	.L27
 358:D:/fchai/work/i-cube/I-CUBE-HUAWEI/Middlewares/Third_Party/Huawei/iot_link/os/liteos/base/mem/heap\los_heap.c ****     {
 359:D:/fchai/work/i-cube/I-CUBE-HUAWEI/Middlewares/Third_Party/Huawei/iot_link/os/liteos/base/mem/heap\los_heap.c ****         return NULL;
 360:D:/fchai/work/i-cube/I-CUBE-HUAWEI/Middlewares/Third_Party/Huawei/iot_link/os/liteos/base/mem/heap\los_heap.c ****     }
 361:D:/fchai/work/i-cube/I-CUBE-HUAWEI/Middlewares/Third_Party/Huawei/iot_link/os/liteos/base/mem/heap\los_heap.c **** 
 362:D:/fchai/work/i-cube/I-CUBE-HUAWEI/Middlewares/Third_Party/Huawei/iot_link/os/liteos/base/mem/heap\los_heap.c ****     /* align must be power of 2 */
 363:D:/fchai/work/i-cube/I-CUBE-HUAWEI/Middlewares/Third_Party/Huawei/iot_link/os/liteos/base/mem/heap\los_heap.c **** 
 364:D:/fchai/work/i-cube/I-CUBE-HUAWEI/Middlewares/Third_Party/Huawei/iot_link/os/liteos/base/mem/heap\los_heap.c ****     if (align & (align - 1))
 514              		.loc 1 364 5 is_stmt 1 view .LVU157
 515              		.loc 1 364 24 is_stmt 0 view .LVU158
 516 000a 4B1E     		subs	r3, r1, #1
 517              		.loc 1 364 8 view .LVU159
 518 000c 0B42     		tst	r3, r1
 519 000e 40F0C180 		bne	.L27
 365:D:/fchai/work/i-cube/I-CUBE-HUAWEI/Middlewares/Third_Party/Huawei/iot_link/os/liteos/base/mem/heap\los_heap.c ****     {
 366:D:/fchai/work/i-cube/I-CUBE-HUAWEI/Middlewares/Third_Party/Huawei/iot_link/os/liteos/base/mem/heap\los_heap.c ****         return NULL;
 367:D:/fchai/work/i-cube/I-CUBE-HUAWEI/Middlewares/Third_Party/Huawei/iot_link/os/liteos/base/mem/heap\los_heap.c ****     }
 368:D:/fchai/work/i-cube/I-CUBE-HUAWEI/Middlewares/Third_Party/Huawei/iot_link/os/liteos/base/mem/heap\los_heap.c **** 
 369:D:/fchai/work/i-cube/I-CUBE-HUAWEI/Middlewares/Third_Party/Huawei/iot_link/os/liteos/base/mem/heap\los_heap.c ****     bytes = bytes == 0 ? 1 : bytes;
 520              		.loc 1 369 5 is_stmt 1 view .LVU160
 521 0012 0446     		mov	r4, r0
 522              		.loc 1 369 28 is_stmt 0 view .LVU161
 523 0014 002A     		cmp	r2, #0
 524 0016 40F0AA80 		bne	.L28
 525              	.LVL37:
ARM GAS  T:\msys\tmp\ccHTo37l.s 			page 27


 370:D:/fchai/work/i-cube/I-CUBE-HUAWEI/Middlewares/Third_Party/Huawei/iot_link/os/liteos/base/mem/heap\los_heap.c **** 
 371:D:/fchai/work/i-cube/I-CUBE-HUAWEI/Middlewares/Third_Party/Huawei/iot_link/os/liteos/base/mem/heap\los_heap.c ****     align = align < ALLOC_ALIGN_SIZE ? ALLOC_ALIGN_SIZE : align;
 526              		.loc 1 371 5 is_stmt 1 view .LVU162
 527              		.loc 1 371 11 is_stmt 0 view .LVU163
 528 001a 0429     		cmp	r1, #4
 529 001c 38BF     		it	cc
 530 001e 0421     		movcc	r1, #4
 531              	.LVL38:
 532              		.loc 1 371 11 view .LVU164
 533 0020 0F46     		mov	r7, r1
 534              	.LVL39:
 372:D:/fchai/work/i-cube/I-CUBE-HUAWEI/Middlewares/Third_Party/Huawei/iot_link/os/liteos/base/mem/heap\los_heap.c **** 
 373:D:/fchai/work/i-cube/I-CUBE-HUAWEI/Middlewares/Third_Party/Huawei/iot_link/os/liteos/base/mem/heap\los_heap.c ****     if (bytes < ALLOC_MIN_SIZE)
 535              		.loc 1 373 5 is_stmt 1 view .LVU165
 374:D:/fchai/work/i-cube/I-CUBE-HUAWEI/Middlewares/Third_Party/Huawei/iot_link/os/liteos/base/mem/heap\los_heap.c ****     {
 375:D:/fchai/work/i-cube/I-CUBE-HUAWEI/Middlewares/Third_Party/Huawei/iot_link/os/liteos/base/mem/heap\los_heap.c ****         bytes = ALLOC_MIN_SIZE;
 376:D:/fchai/work/i-cube/I-CUBE-HUAWEI/Middlewares/Third_Party/Huawei/iot_link/os/liteos/base/mem/heap\los_heap.c ****     }
 377:D:/fchai/work/i-cube/I-CUBE-HUAWEI/Middlewares/Third_Party/Huawei/iot_link/os/liteos/base/mem/heap\los_heap.c **** 
 378:D:/fchai/work/i-cube/I-CUBE-HUAWEI/Middlewares/Third_Party/Huawei/iot_link/os/liteos/base/mem/heap\los_heap.c ****     bytes = round_up (bytes, ALLOC_ALIGN_SIZE);
 536              		.loc 1 378 5 view .LVU166
 379:D:/fchai/work/i-cube/I-CUBE-HUAWEI/Middlewares/Third_Party/Huawei/iot_link/os/liteos/base/mem/heap\los_heap.c **** 
 380:D:/fchai/work/i-cube/I-CUBE-HUAWEI/Middlewares/Third_Party/Huawei/iot_link/os/liteos/base/mem/heap\los_heap.c ****     if (LOS_MuxPend (heap->mux, LOS_WAIT_FOREVER) != LOS_OK)
 537              		.loc 1 380 5 view .LVU167
 538              		.loc 1 380 9 is_stmt 0 view .LVU168
 539 0022 D4F8B401 		ldr	r0, [r4, #436]
 540              	.LVL40:
 541              		.loc 1 380 9 view .LVU169
 542 0026 4FF0FF31 		mov	r1, #-1
 543              	.LVL41:
 371:D:/fchai/work/i-cube/I-CUBE-HUAWEI/Middlewares/Third_Party/Huawei/iot_link/os/liteos/base/mem/heap\los_heap.c **** 
 544              		.loc 1 371 11 view .LVU170
 545 002a 0826     		movs	r6, #8
 546              		.loc 1 380 9 view .LVU171
 547 002c FFF7FEFF 		bl	LOS_MuxPend
 548              	.LVL42:
 549              		.loc 1 380 8 view .LVU172
 550 0030 0028     		cmp	r0, #0
 551 0032 40F0AF80 		bne	.L27
 552              	.L53:
 381:D:/fchai/work/i-cube/I-CUBE-HUAWEI/Middlewares/Third_Party/Huawei/iot_link/os/liteos/base/mem/heap\los_heap.c ****     {
 382:D:/fchai/work/i-cube/I-CUBE-HUAWEI/Middlewares/Third_Party/Huawei/iot_link/os/liteos/base/mem/heap\los_heap.c ****         return NULL;
 383:D:/fchai/work/i-cube/I-CUBE-HUAWEI/Middlewares/Third_Party/Huawei/iot_link/os/liteos/base/mem/heap\los_heap.c ****     }
 384:D:/fchai/work/i-cube/I-CUBE-HUAWEI/Middlewares/Third_Party/Huawei/iot_link/os/liteos/base/mem/heap\los_heap.c **** 
 385:D:/fchai/work/i-cube/I-CUBE-HUAWEI/Middlewares/Third_Party/Huawei/iot_link/os/liteos/base/mem/heap\los_heap.c ****     /* find a big enough memory chunk */
 386:D:/fchai/work/i-cube/I-CUBE-HUAWEI/Middlewares/Third_Party/Huawei/iot_link/os/liteos/base/mem/heap\los_heap.c **** 
 387:D:/fchai/work/i-cube/I-CUBE-HUAWEI/Middlewares/Third_Party/Huawei/iot_link/os/liteos/base/mem/heap\los_heap.c ****     chunk = __get_chunk (heap, bytes + sizeof (ach_t) + align - ALLOC_ALIGN_SIZE);
 553              		.loc 1 387 5 is_stmt 1 view .LVU173
 554 0036 B919     		adds	r1, r7, r6
 555              	.LVL43:
 556              	.LBB247:
 557              	.LBI247:
  68:D:/fchai/work/i-cube/I-CUBE-HUAWEI/Middlewares/Third_Party/Huawei/iot_link/os/liteos/base/mem/heap\los_heap.c **** {
 558              		.loc 1 68 25 view .LVU174
 559              	.LBB248:
  70:D:/fchai/work/i-cube/I-CUBE-HUAWEI/Middlewares/Third_Party/Huawei/iot_link/os/liteos/base/mem/heap\los_heap.c **** 
 560              		.loc 1 70 5 view .LVU175
 561              	.LBB249:
ARM GAS  T:\msys\tmp\ccHTo37l.s 			page 28


 562              	.LBI249:
 191:D:/fchai/work/i-cube/I-CUBE-HUAWEI/Middlewares/Third_Party/Huawei/iot_link/os/liteos/base/include\cm-tlsf.h ****     }
 192:D:/fchai/work/i-cube/I-CUBE-HUAWEI/Middlewares/Third_Party/Huawei/iot_link/os/liteos/base/include\cm-tlsf.h **** 
 193:D:/fchai/work/i-cube/I-CUBE-HUAWEI/Middlewares/Third_Party/Huawei/iot_link/os/liteos/base/include\cm-tlsf.h ****     return 0;
 194:D:/fchai/work/i-cube/I-CUBE-HUAWEI/Middlewares/Third_Party/Huawei/iot_link/os/liteos/base/include\cm-tlsf.h **** }
 195:D:/fchai/work/i-cube/I-CUBE-HUAWEI/Middlewares/Third_Party/Huawei/iot_link/os/liteos/base/include\cm-tlsf.h **** 
 196:D:/fchai/work/i-cube/I-CUBE-HUAWEI/Middlewares/Third_Party/Huawei/iot_link/os/liteos/base/include\cm-tlsf.h **** /**
 197:D:/fchai/work/i-cube/I-CUBE-HUAWEI/Middlewares/Third_Party/Huawei/iot_link/os/liteos/base/include\cm-tlsf.h ****  * __cm_del_chunk - delete a chunk from a heap (for allocating or merging)
 198:D:/fchai/work/i-cube/I-CUBE-HUAWEI/Middlewares/Third_Party/Huawei/iot_link/os/liteos/base/include\cm-tlsf.h ****  * @heap:  the given heap
 199:D:/fchai/work/i-cube/I-CUBE-HUAWEI/Middlewares/Third_Party/Huawei/iot_link/os/liteos/base/include\cm-tlsf.h ****  * @chunk: the chunk to delete
 200:D:/fchai/work/i-cube/I-CUBE-HUAWEI/Middlewares/Third_Party/Huawei/iot_link/os/liteos/base/include\cm-tlsf.h ****  *
 201:D:/fchai/work/i-cube/I-CUBE-HUAWEI/Middlewares/Third_Party/Huawei/iot_link/os/liteos/base/include\cm-tlsf.h ****  * return: NA
 202:D:/fchai/work/i-cube/I-CUBE-HUAWEI/Middlewares/Third_Party/Huawei/iot_link/os/liteos/base/include\cm-tlsf.h ****  */
 203:D:/fchai/work/i-cube/I-CUBE-HUAWEI/Middlewares/Third_Party/Huawei/iot_link/os/liteos/base/include\cm-tlsf.h **** 
 204:D:/fchai/work/i-cube/I-CUBE-HUAWEI/Middlewares/Third_Party/Huawei/iot_link/os/liteos/base/include\cm-tlsf.h **** static inline void __cm_del_chunk (chunk_mgr_t * cm, chunk_t * chunk)
 205:D:/fchai/work/i-cube/I-CUBE-HUAWEI/Middlewares/Third_Party/Huawei/iot_link/os/liteos/base/include\cm-tlsf.h **** {
 206:D:/fchai/work/i-cube/I-CUBE-HUAWEI/Middlewares/Third_Party/Huawei/iot_link/os/liteos/base/include\cm-tlsf.h ****     int fl_idx = __get_fl_idx (chunk->size);
 207:D:/fchai/work/i-cube/I-CUBE-HUAWEI/Middlewares/Third_Party/Huawei/iot_link/os/liteos/base/include\cm-tlsf.h ****     int sl_idx = __get_sl_idx (chunk->size, fl_idx);
 208:D:/fchai/work/i-cube/I-CUBE-HUAWEI/Middlewares/Third_Party/Huawei/iot_link/os/liteos/base/include\cm-tlsf.h **** 
 209:D:/fchai/work/i-cube/I-CUBE-HUAWEI/Middlewares/Third_Party/Huawei/iot_link/os/liteos/base/include\cm-tlsf.h ****     fl_idx -= FL_IDX_BIAS;
 210:D:/fchai/work/i-cube/I-CUBE-HUAWEI/Middlewares/Third_Party/Huawei/iot_link/os/liteos/base/include\cm-tlsf.h **** 
 211:D:/fchai/work/i-cube/I-CUBE-HUAWEI/Middlewares/Third_Party/Huawei/iot_link/os/liteos/base/include\cm-tlsf.h ****     if (!dlist_empty (&chunk->node))
 212:D:/fchai/work/i-cube/I-CUBE-HUAWEI/Middlewares/Third_Party/Huawei/iot_link/os/liteos/base/include\cm-tlsf.h ****     {
 213:D:/fchai/work/i-cube/I-CUBE-HUAWEI/Middlewares/Third_Party/Huawei/iot_link/os/liteos/base/include\cm-tlsf.h ****         if (cm->chunks [fl_idx][sl_idx] == chunk)
 214:D:/fchai/work/i-cube/I-CUBE-HUAWEI/Middlewares/Third_Party/Huawei/iot_link/os/liteos/base/include\cm-tlsf.h ****         {
 215:D:/fchai/work/i-cube/I-CUBE-HUAWEI/Middlewares/Third_Party/Huawei/iot_link/os/liteos/base/include\cm-tlsf.h ****             cm->chunks [fl_idx][sl_idx] = container_of (chunk->node.next, chunk_t, node);
 216:D:/fchai/work/i-cube/I-CUBE-HUAWEI/Middlewares/Third_Party/Huawei/iot_link/os/liteos/base/include\cm-tlsf.h ****         }
 217:D:/fchai/work/i-cube/I-CUBE-HUAWEI/Middlewares/Third_Party/Huawei/iot_link/os/liteos/base/include\cm-tlsf.h **** 
 218:D:/fchai/work/i-cube/I-CUBE-HUAWEI/Middlewares/Third_Party/Huawei/iot_link/os/liteos/base/include\cm-tlsf.h ****         dlist_del (&chunk->node);
 219:D:/fchai/work/i-cube/I-CUBE-HUAWEI/Middlewares/Third_Party/Huawei/iot_link/os/liteos/base/include\cm-tlsf.h **** 
 220:D:/fchai/work/i-cube/I-CUBE-HUAWEI/Middlewares/Third_Party/Huawei/iot_link/os/liteos/base/include\cm-tlsf.h ****         return;
 221:D:/fchai/work/i-cube/I-CUBE-HUAWEI/Middlewares/Third_Party/Huawei/iot_link/os/liteos/base/include\cm-tlsf.h ****     }
 222:D:/fchai/work/i-cube/I-CUBE-HUAWEI/Middlewares/Third_Party/Huawei/iot_link/os/liteos/base/include\cm-tlsf.h **** 
 223:D:/fchai/work/i-cube/I-CUBE-HUAWEI/Middlewares/Third_Party/Huawei/iot_link/os/liteos/base/include\cm-tlsf.h ****     cm->chunks [fl_idx][sl_idx] = NULL;
 224:D:/fchai/work/i-cube/I-CUBE-HUAWEI/Middlewares/Third_Party/Huawei/iot_link/os/liteos/base/include\cm-tlsf.h **** 
 225:D:/fchai/work/i-cube/I-CUBE-HUAWEI/Middlewares/Third_Party/Huawei/iot_link/os/liteos/base/include\cm-tlsf.h ****     cm->sl_bmap [fl_idx] &= ~(1 << sl_idx);
 226:D:/fchai/work/i-cube/I-CUBE-HUAWEI/Middlewares/Third_Party/Huawei/iot_link/os/liteos/base/include\cm-tlsf.h **** 
 227:D:/fchai/work/i-cube/I-CUBE-HUAWEI/Middlewares/Third_Party/Huawei/iot_link/os/liteos/base/include\cm-tlsf.h ****     if (cm->sl_bmap [fl_idx] == 0)
 228:D:/fchai/work/i-cube/I-CUBE-HUAWEI/Middlewares/Third_Party/Huawei/iot_link/os/liteos/base/include\cm-tlsf.h ****     {
 229:D:/fchai/work/i-cube/I-CUBE-HUAWEI/Middlewares/Third_Party/Huawei/iot_link/os/liteos/base/include\cm-tlsf.h ****         cm->fl_bmap &= ~(1 << (fl_idx + FL_IDX_BIAS));
 230:D:/fchai/work/i-cube/I-CUBE-HUAWEI/Middlewares/Third_Party/Huawei/iot_link/os/liteos/base/include\cm-tlsf.h ****     }
 231:D:/fchai/work/i-cube/I-CUBE-HUAWEI/Middlewares/Third_Party/Huawei/iot_link/os/liteos/base/include\cm-tlsf.h **** }
 232:D:/fchai/work/i-cube/I-CUBE-HUAWEI/Middlewares/Third_Party/Huawei/iot_link/os/liteos/base/include\cm-tlsf.h **** 
 233:D:/fchai/work/i-cube/I-CUBE-HUAWEI/Middlewares/Third_Party/Huawei/iot_link/os/liteos/base/include\cm-tlsf.h **** /**
 234:D:/fchai/work/i-cube/I-CUBE-HUAWEI/Middlewares/Third_Party/Huawei/iot_link/os/liteos/base/include\cm-tlsf.h ****  * __cm_get_chunk - get a proper chunk in the heap
 235:D:/fchai/work/i-cube/I-CUBE-HUAWEI/Middlewares/Third_Party/Huawei/iot_link/os/liteos/base/include\cm-tlsf.h ****  * @heap:  the heap to allocate from
 236:D:/fchai/work/i-cube/I-CUBE-HUAWEI/Middlewares/Third_Party/Huawei/iot_link/os/liteos/base/include\cm-tlsf.h ****  * @bytes: size of memory in bytes to allocate
 237:D:/fchai/work/i-cube/I-CUBE-HUAWEI/Middlewares/Third_Party/Huawei/iot_link/os/liteos/base/include\cm-tlsf.h ****  *
 238:D:/fchai/work/i-cube/I-CUBE-HUAWEI/Middlewares/Third_Party/Huawei/iot_link/os/liteos/base/include\cm-tlsf.h ****  * return: the proper chunk found, or NULL if not found
 239:D:/fchai/work/i-cube/I-CUBE-HUAWEI/Middlewares/Third_Party/Huawei/iot_link/os/liteos/base/include\cm-tlsf.h ****  */
 240:D:/fchai/work/i-cube/I-CUBE-HUAWEI/Middlewares/Third_Party/Huawei/iot_link/os/liteos/base/include\cm-tlsf.h **** 
 241:D:/fchai/work/i-cube/I-CUBE-HUAWEI/Middlewares/Third_Party/Huawei/iot_link/os/liteos/base/include\cm-tlsf.h **** static inline chunk_t * __cm_get_chunk (chunk_mgr_t * cm, size_t bytes)
 563              		.loc 2 241 25 view .LVU176
 564              	.LBB250:
 242:D:/fchai/work/i-cube/I-CUBE-HUAWEI/Middlewares/Third_Party/Huawei/iot_link/os/liteos/base/include\cm-tlsf.h **** {
 243:D:/fchai/work/i-cube/I-CUBE-HUAWEI/Middlewares/Third_Party/Huawei/iot_link/os/liteos/base/include\cm-tlsf.h ****     int       fl_idx;
 565              		.loc 2 243 5 view .LVU177
ARM GAS  T:\msys\tmp\ccHTo37l.s 			page 29


 244:D:/fchai/work/i-cube/I-CUBE-HUAWEI/Middlewares/Third_Party/Huawei/iot_link/os/liteos/base/include\cm-tlsf.h ****     int       sl_idx;
 566              		.loc 2 244 5 view .LVU178
 245:D:/fchai/work/i-cube/I-CUBE-HUAWEI/Middlewares/Third_Party/Huawei/iot_link/os/liteos/base/include\cm-tlsf.h ****     uint32_t  fl_bmap;
 567              		.loc 2 245 5 view .LVU179
 246:D:/fchai/work/i-cube/I-CUBE-HUAWEI/Middlewares/Third_Party/Huawei/iot_link/os/liteos/base/include\cm-tlsf.h ****     uint32_t  sl_bmap;
 568              		.loc 2 246 5 view .LVU180
 247:D:/fchai/work/i-cube/I-CUBE-HUAWEI/Middlewares/Third_Party/Huawei/iot_link/os/liteos/base/include\cm-tlsf.h **** 
 248:D:/fchai/work/i-cube/I-CUBE-HUAWEI/Middlewares/Third_Party/Huawei/iot_link/os/liteos/base/include\cm-tlsf.h ****     fl_idx = __get_fl_idx (bytes);
 569              		.loc 2 248 5 view .LVU181
 570              	.LBB251:
 571              	.LBI251:
 158:D:/fchai/work/i-cube/I-CUBE-HUAWEI/Middlewares/Third_Party/Huawei/iot_link/os/liteos/base/include\cm-tlsf.h **** {
 572              		.loc 2 158 19 view .LVU182
 573              	.LBB252:
 160:D:/fchai/work/i-cube/I-CUBE-HUAWEI/Middlewares/Third_Party/Huawei/iot_link/os/liteos/base/include\cm-tlsf.h **** }
 574              		.loc 2 160 5 view .LVU183
 575              	.LBE252:
 576              	.LBE251:
 577              	.LBE250:
 578              	.LBE249:
 579              	.LBE248:
 580              	.LBE247:
 581              		.loc 1 387 13 is_stmt 0 view .LVU184
 582 0038 0B1D     		adds	r3, r1, #4
 583              	.LVL44:
 584              	.LBB305:
 585              	.LBB298:
 586              	.LBB264:
 587              	.LBB263:
 588              	.LBB254:
 589              	.LBB253:
 160:D:/fchai/work/i-cube/I-CUBE-HUAWEI/Middlewares/Third_Party/Huawei/iot_link/os/liteos/base/include\cm-tlsf.h **** }
 590              		.loc 2 160 17 view .LVU185
 591 003a B3FA83F3 		clz	r3, r3
 592              	.LVL45:
 160:D:/fchai/work/i-cube/I-CUBE-HUAWEI/Middlewares/Third_Party/Huawei/iot_link/os/liteos/base/include\cm-tlsf.h **** }
 593              		.loc 2 160 17 view .LVU186
 594              	.LBE253:
 595              	.LBE254:
 249:D:/fchai/work/i-cube/I-CUBE-HUAWEI/Middlewares/Third_Party/Huawei/iot_link/os/liteos/base/include\cm-tlsf.h **** 
 250:D:/fchai/work/i-cube/I-CUBE-HUAWEI/Middlewares/Third_Party/Huawei/iot_link/os/liteos/base/include\cm-tlsf.h ****     bytes += (1 << (fl_idx - SL_BITS)) - 1;
 596              		.loc 2 250 5 is_stmt 1 view .LVU187
 597              		.loc 2 250 28 is_stmt 0 view .LVU188
 598 003e C3F11D02 		rsb	r2, r3, #29
 599              		.loc 2 250 17 view .LVU189
 600 0042 0123     		movs	r3, #1
 601              	.LVL46:
 602              		.loc 2 250 17 view .LVU190
 603 0044 9340     		lsls	r3, r3, r2
 604              		.loc 2 250 11 view .LVU191
 605 0046 0331     		adds	r1, r1, #3
 606              	.LVL47:
 607              		.loc 2 250 11 view .LVU192
 608 0048 0B44     		add	r3, r3, r1
 609              	.LVL48:
 251:D:/fchai/work/i-cube/I-CUBE-HUAWEI/Middlewares/Third_Party/Huawei/iot_link/os/liteos/base/include\cm-tlsf.h **** 
 252:D:/fchai/work/i-cube/I-CUBE-HUAWEI/Middlewares/Third_Party/Huawei/iot_link/os/liteos/base/include\cm-tlsf.h ****     fl_idx = __get_fl_idx (bytes);
ARM GAS  T:\msys\tmp\ccHTo37l.s 			page 30


 610              		.loc 2 252 5 is_stmt 1 view .LVU193
 611              	.LBB255:
 612              	.LBI255:
 158:D:/fchai/work/i-cube/I-CUBE-HUAWEI/Middlewares/Third_Party/Huawei/iot_link/os/liteos/base/include\cm-tlsf.h **** {
 613              		.loc 2 158 19 view .LVU194
 614              	.LBB256:
 160:D:/fchai/work/i-cube/I-CUBE-HUAWEI/Middlewares/Third_Party/Huawei/iot_link/os/liteos/base/include\cm-tlsf.h **** }
 615              		.loc 2 160 5 view .LVU195
 160:D:/fchai/work/i-cube/I-CUBE-HUAWEI/Middlewares/Third_Party/Huawei/iot_link/os/liteos/base/include\cm-tlsf.h **** }
 616              		.loc 2 160 17 is_stmt 0 view .LVU196
 617 004a B3FA83F5 		clz	r5, r3
 618              	.LVL49:
 160:D:/fchai/work/i-cube/I-CUBE-HUAWEI/Middlewares/Third_Party/Huawei/iot_link/os/liteos/base/include\cm-tlsf.h **** }
 619              		.loc 2 160 17 view .LVU197
 620              	.LBE256:
 621              	.LBE255:
 253:D:/fchai/work/i-cube/I-CUBE-HUAWEI/Middlewares/Third_Party/Huawei/iot_link/os/liteos/base/include\cm-tlsf.h ****     sl_idx = __get_sl_idx (bytes, fl_idx);
 622              		.loc 2 253 5 is_stmt 1 view .LVU198
 623              	.LBB258:
 624              	.LBI258:
 163:D:/fchai/work/i-cube/I-CUBE-HUAWEI/Middlewares/Third_Party/Huawei/iot_link/os/liteos/base/include\cm-tlsf.h **** {
 625              		.loc 2 163 19 view .LVU199
 626              	.LBB259:
 165:D:/fchai/work/i-cube/I-CUBE-HUAWEI/Middlewares/Third_Party/Huawei/iot_link/os/liteos/base/include\cm-tlsf.h **** }
 627              		.loc 2 165 5 view .LVU200
 165:D:/fchai/work/i-cube/I-CUBE-HUAWEI/Middlewares/Third_Party/Huawei/iot_link/os/liteos/base/include\cm-tlsf.h **** }
 628              		.loc 2 165 29 is_stmt 0 view .LVU201
 629 004e C5F11D02 		rsb	r2, r5, #29
 165:D:/fchai/work/i-cube/I-CUBE-HUAWEI/Middlewares/Third_Party/Huawei/iot_link/os/liteos/base/include\cm-tlsf.h **** }
 630              		.loc 2 165 18 view .LVU202
 631 0052 D340     		lsrs	r3, r3, r2
 632              	.LVL50:
 165:D:/fchai/work/i-cube/I-CUBE-HUAWEI/Middlewares/Third_Party/Huawei/iot_link/os/liteos/base/include\cm-tlsf.h **** }
 633              		.loc 2 165 18 view .LVU203
 634              	.LBE259:
 635              	.LBE258:
 636              	.LBB261:
 637              	.LBB257:
 160:D:/fchai/work/i-cube/I-CUBE-HUAWEI/Middlewares/Third_Party/Huawei/iot_link/os/liteos/base/include\cm-tlsf.h **** }
 638              		.loc 2 160 15 view .LVU204
 639 0054 C5F11F02 		rsb	r2, r5, #31
 640              	.LVL51:
 160:D:/fchai/work/i-cube/I-CUBE-HUAWEI/Middlewares/Third_Party/Huawei/iot_link/os/liteos/base/include\cm-tlsf.h **** }
 641              		.loc 2 160 15 view .LVU205
 642              	.LBE257:
 643              	.LBE261:
 254:D:/fchai/work/i-cube/I-CUBE-HUAWEI/Middlewares/Third_Party/Huawei/iot_link/os/liteos/base/include\cm-tlsf.h **** 
 255:D:/fchai/work/i-cube/I-CUBE-HUAWEI/Middlewares/Third_Party/Huawei/iot_link/os/liteos/base/include\cm-tlsf.h ****     if (fl_idx > FL_IDX_MAX)
 644              		.loc 2 255 8 view .LVU206
 645 0058 1D2A     		cmp	r2, #29
 646              	.LBB262:
 647              	.LBB260:
 165:D:/fchai/work/i-cube/I-CUBE-HUAWEI/Middlewares/Third_Party/Huawei/iot_link/os/liteos/base/include\cm-tlsf.h **** }
 648              		.loc 2 165 41 view .LVU207
 649 005a A3F10403 		sub	r3, r3, #4
 650              	.LVL52:
 165:D:/fchai/work/i-cube/I-CUBE-HUAWEI/Middlewares/Third_Party/Huawei/iot_link/os/liteos/base/include\cm-tlsf.h **** }
ARM GAS  T:\msys\tmp\ccHTo37l.s 			page 31


 651              		.loc 2 165 41 view .LVU208
 652              	.LBE260:
 653              	.LBE262:
 654              		.loc 2 255 5 is_stmt 1 view .LVU209
 655              		.loc 2 255 8 is_stmt 0 view .LVU210
 656 005e 00F3B880 		bgt	.L48
 256:D:/fchai/work/i-cube/I-CUBE-HUAWEI/Middlewares/Third_Party/Huawei/iot_link/os/liteos/base/include\cm-tlsf.h ****     {
 257:D:/fchai/work/i-cube/I-CUBE-HUAWEI/Middlewares/Third_Party/Huawei/iot_link/os/liteos/base/include\cm-tlsf.h ****         return NULL;
 258:D:/fchai/work/i-cube/I-CUBE-HUAWEI/Middlewares/Third_Party/Huawei/iot_link/os/liteos/base/include\cm-tlsf.h ****     }
 259:D:/fchai/work/i-cube/I-CUBE-HUAWEI/Middlewares/Third_Party/Huawei/iot_link/os/liteos/base/include\cm-tlsf.h **** 
 260:D:/fchai/work/i-cube/I-CUBE-HUAWEI/Middlewares/Third_Party/Huawei/iot_link/os/liteos/base/include\cm-tlsf.h ****     sl_bmap = cm->sl_bmap [fl_idx - FL_IDX_BIAS] & (0xffffffffu << sl_idx);
 657              		.loc 2 260 5 is_stmt 1 view .LVU211
 658              		.loc 2 260 35 is_stmt 0 view .LVU212
 659 0062 C5F11B01 		rsb	r1, r5, #27
 660              	.LVL53:
 661              		.loc 2 260 27 view .LVU213
 662 0066 6218     		adds	r2, r4, r1
 663              	.LVL54:
 664              		.loc 2 260 65 view .LVU214
 665 0068 4FF0FF30 		mov	r0, #-1
 666              		.loc 2 260 27 view .LVU215
 667 006c 1279     		ldrb	r2, [r2, #4]	@ zero_extendqisi2
 668              		.loc 2 260 65 view .LVU216
 669 006e 00FA03F3 		lsl	r3, r0, r3
 670              	.LVL55:
 261:D:/fchai/work/i-cube/I-CUBE-HUAWEI/Middlewares/Third_Party/Huawei/iot_link/os/liteos/base/include\cm-tlsf.h **** 
 262:D:/fchai/work/i-cube/I-CUBE-HUAWEI/Middlewares/Third_Party/Huawei/iot_link/os/liteos/base/include\cm-tlsf.h ****     if (sl_bmap == 0)
 671              		.loc 2 262 5 is_stmt 1 view .LVU217
 672              		.loc 2 262 8 is_stmt 0 view .LVU218
 673 0072 1A40     		ands	r2, r2, r3
 674              	.LVL56:
 675              		.loc 2 262 8 view .LVU219
 676 0074 10D1     		bne	.L31
 263:D:/fchai/work/i-cube/I-CUBE-HUAWEI/Middlewares/Third_Party/Huawei/iot_link/os/liteos/base/include\cm-tlsf.h ****     {
 264:D:/fchai/work/i-cube/I-CUBE-HUAWEI/Middlewares/Third_Party/Huawei/iot_link/os/liteos/base/include\cm-tlsf.h ****         fl_bmap = cm->fl_bmap & (0xffffffffu << (fl_idx + 1));
 677              		.loc 2 264 9 is_stmt 1 view .LVU220
 678              		.loc 2 264 57 is_stmt 0 view .LVU221
 679 0076 C5F12003 		rsb	r3, r5, #32
 680              		.loc 2 264 17 view .LVU222
 681 007a 2568     		ldr	r5, [r4]
 682              	.LVL57:
 683              		.loc 2 264 46 view .LVU223
 684 007c 00FA03F3 		lsl	r3, r0, r3
 685              	.LVL58:
 265:D:/fchai/work/i-cube/I-CUBE-HUAWEI/Middlewares/Third_Party/Huawei/iot_link/os/liteos/base/include\cm-tlsf.h **** 
 266:D:/fchai/work/i-cube/I-CUBE-HUAWEI/Middlewares/Third_Party/Huawei/iot_link/os/liteos/base/include\cm-tlsf.h ****         if (fl_bmap == 0)
 686              		.loc 2 266 9 is_stmt 1 view .LVU224
 687              		.loc 2 266 12 is_stmt 0 view .LVU225
 688 0080 2B40     		ands	r3, r3, r5
 689              	.LVL59:
 690              		.loc 2 266 12 view .LVU226
 691 0082 00F03581 		beq	.L47
 267:D:/fchai/work/i-cube/I-CUBE-HUAWEI/Middlewares/Third_Party/Huawei/iot_link/os/liteos/base/include\cm-tlsf.h ****         {
 268:D:/fchai/work/i-cube/I-CUBE-HUAWEI/Middlewares/Third_Party/Huawei/iot_link/os/liteos/base/include\cm-tlsf.h ****             return NULL;
 269:D:/fchai/work/i-cube/I-CUBE-HUAWEI/Middlewares/Third_Party/Huawei/iot_link/os/liteos/base/include\cm-tlsf.h ****         }
 270:D:/fchai/work/i-cube/I-CUBE-HUAWEI/Middlewares/Third_Party/Huawei/iot_link/os/liteos/base/include\cm-tlsf.h **** 
 271:D:/fchai/work/i-cube/I-CUBE-HUAWEI/Middlewares/Third_Party/Huawei/iot_link/os/liteos/base/include\cm-tlsf.h ****         fl_idx  = CTZ (fl_bmap);
ARM GAS  T:\msys\tmp\ccHTo37l.s 			page 32


 692              		.loc 2 271 9 is_stmt 1 view .LVU227
 693              		.loc 2 271 19 is_stmt 0 view .LVU228
 694 0086 1918     		adds	r1, r3, r0
 695 0088 21EA0303 		bic	r3, r1, r3
 696              	.LVL60:
 697              		.loc 2 271 19 view .LVU229
 698 008c B3FA83F3 		clz	r3, r3
 699              	.LVL61:
 272:D:/fchai/work/i-cube/I-CUBE-HUAWEI/Middlewares/Third_Party/Huawei/iot_link/os/liteos/base/include\cm-tlsf.h ****         sl_bmap = cm->sl_bmap [fl_idx - FL_IDX_BIAS];
 700              		.loc 2 272 9 is_stmt 1 view .LVU230
 701              		.loc 2 272 39 is_stmt 0 view .LVU231
 702 0090 C3F11C01 		rsb	r1, r3, #28
 703              	.LVL62:
 704              		.loc 2 272 31 view .LVU232
 705 0094 6318     		adds	r3, r4, r1
 706              	.LVL63:
 707              		.loc 2 272 17 view .LVU233
 708 0096 1A79     		ldrb	r2, [r3, #4]	@ zero_extendqisi2
 709              	.LVL64:
 710              	.L31:
 273:D:/fchai/work/i-cube/I-CUBE-HUAWEI/Middlewares/Third_Party/Huawei/iot_link/os/liteos/base/include\cm-tlsf.h ****     }
 274:D:/fchai/work/i-cube/I-CUBE-HUAWEI/Middlewares/Third_Party/Huawei/iot_link/os/liteos/base/include\cm-tlsf.h **** 
 275:D:/fchai/work/i-cube/I-CUBE-HUAWEI/Middlewares/Third_Party/Huawei/iot_link/os/liteos/base/include\cm-tlsf.h ****     sl_idx = CTZ (sl_bmap);
 711              		.loc 2 275 5 is_stmt 1 view .LVU234
 712              		.loc 2 275 14 is_stmt 0 view .LVU235
 713 0098 531E     		subs	r3, r2, #1
 714 009a 23EA0203 		bic	r3, r3, r2
 715 009e B3FA83F3 		clz	r3, r3
 716              	.LVL65:
 276:D:/fchai/work/i-cube/I-CUBE-HUAWEI/Middlewares/Third_Party/Huawei/iot_link/os/liteos/base/include\cm-tlsf.h **** 
 277:D:/fchai/work/i-cube/I-CUBE-HUAWEI/Middlewares/Third_Party/Huawei/iot_link/os/liteos/base/include\cm-tlsf.h ****     return cm->chunks [fl_idx - FL_IDX_BIAS] [sl_idx];
 717              		.loc 2 277 5 is_stmt 1 view .LVU236
 718              		.loc 2 277 46 is_stmt 0 view .LVU237
 719 00a2 C3EB8103 		rsb	r3, r3, r1, lsl #2
 720              	.LVL66:
 721              		.loc 2 277 46 view .LVU238
 722 00a6 2833     		adds	r3, r3, #40
 723 00a8 54F82300 		ldr	r0, [r4, r3, lsl #2]
 724              	.LVL67:
 725              		.loc 2 277 46 view .LVU239
 726              	.LBE263:
 727              	.LBE264:
  72:D:/fchai/work/i-cube/I-CUBE-HUAWEI/Middlewares/Third_Party/Huawei/iot_link/os/liteos/base/mem/heap\los_heap.c ****     {
 728              		.loc 1 72 5 is_stmt 1 view .LVU240
  72:D:/fchai/work/i-cube/I-CUBE-HUAWEI/Middlewares/Third_Party/Huawei/iot_link/os/liteos/base/mem/heap\los_heap.c ****     {
 729              		.loc 1 72 8 is_stmt 0 view .LVU241
 730 00ac 0028     		cmp	r0, #0
 731 00ae 00F09080 		beq	.L48
  74:D:/fchai/work/i-cube/I-CUBE-HUAWEI/Middlewares/Third_Party/Huawei/iot_link/os/liteos/base/mem/heap\los_heap.c ****     }
 732              		.loc 1 74 9 is_stmt 1 view .LVU242
 733              	.LVL68:
 734              	.LBB265:
 735              	.LBI265:
  59:D:/fchai/work/i-cube/I-CUBE-HUAWEI/Middlewares/Third_Party/Huawei/iot_link/os/liteos/base/mem/heap\los_heap.c **** {
 736              		.loc 1 59 20 view .LVU243
 737              	.LBE265:
 738              	.LBE298:
ARM GAS  T:\msys\tmp\ccHTo37l.s 			page 33


 739              	.LBE305:
  61:D:/fchai/work/i-cube/I-CUBE-HUAWEI/Middlewares/Third_Party/Huawei/iot_link/os/liteos/base/mem/heap\los_heap.c **** 
 740              		.loc 1 61 5 view .LVU244
 741              	.LBB306:
 742              	.LBB299:
 743              	.LBB292:
 744              	.LBB266:
 745              	.LBI266:
 204:D:/fchai/work/i-cube/I-CUBE-HUAWEI/Middlewares/Third_Party/Huawei/iot_link/os/liteos/base/include\cm-tlsf.h **** {
 746              		.loc 2 204 20 view .LVU245
 747              	.LBB267:
 206:D:/fchai/work/i-cube/I-CUBE-HUAWEI/Middlewares/Third_Party/Huawei/iot_link/os/liteos/base/include\cm-tlsf.h ****     int sl_idx = __get_sl_idx (chunk->size, fl_idx);
 748              		.loc 2 206 5 view .LVU246
 749              	.LBB268:
 750              	.LBB269:
 109:D:/fchai/work/i-cube/I-CUBE-HUAWEI/Middlewares/Third_Party/Huawei/iot_link/os/liteos/include\list.h ****     }
 110:D:/fchai/work/i-cube/I-CUBE-HUAWEI/Middlewares/Third_Party/Huawei/iot_link/os/liteos/include\list.h **** 
 111:D:/fchai/work/i-cube/I-CUBE-HUAWEI/Middlewares/Third_Party/Huawei/iot_link/os/liteos/include\list.h **** /**
 112:D:/fchai/work/i-cube/I-CUBE-HUAWEI/Middlewares/Third_Party/Huawei/iot_link/os/liteos/include\list.h ****  * dlist_del - deletes entry from list.
 113:D:/fchai/work/i-cube/I-CUBE-HUAWEI/Middlewares/Third_Party/Huawei/iot_link/os/liteos/include\list.h ****  * @entry: the element to delete from the list
 114:D:/fchai/work/i-cube/I-CUBE-HUAWEI/Middlewares/Third_Party/Huawei/iot_link/os/liteos/include\list.h ****  * Note: dlist_empty() on entry does not return true after this, the entry is
 115:D:/fchai/work/i-cube/I-CUBE-HUAWEI/Middlewares/Third_Party/Huawei/iot_link/os/liteos/include\list.h ****  * in an undefined state
 116:D:/fchai/work/i-cube/I-CUBE-HUAWEI/Middlewares/Third_Party/Huawei/iot_link/os/liteos/include\list.h ****  */
 117:D:/fchai/work/i-cube/I-CUBE-HUAWEI/Middlewares/Third_Party/Huawei/iot_link/os/liteos/include\list.h **** 
 118:D:/fchai/work/i-cube/I-CUBE-HUAWEI/Middlewares/Third_Party/Huawei/iot_link/os/liteos/include\list.h **** static inline void dlist_del (dlist_t * node)
 119:D:/fchai/work/i-cube/I-CUBE-HUAWEI/Middlewares/Third_Party/Huawei/iot_link/os/liteos/include\list.h ****     {
 120:D:/fchai/work/i-cube/I-CUBE-HUAWEI/Middlewares/Third_Party/Huawei/iot_link/os/liteos/include\list.h ****     node->prev->next = node->next;
 121:D:/fchai/work/i-cube/I-CUBE-HUAWEI/Middlewares/Third_Party/Huawei/iot_link/os/liteos/include\list.h ****     node->next->prev = node->prev;
 122:D:/fchai/work/i-cube/I-CUBE-HUAWEI/Middlewares/Third_Party/Huawei/iot_link/os/liteos/include\list.h ****     }
 123:D:/fchai/work/i-cube/I-CUBE-HUAWEI/Middlewares/Third_Party/Huawei/iot_link/os/liteos/include\list.h **** 
 124:D:/fchai/work/i-cube/I-CUBE-HUAWEI/Middlewares/Third_Party/Huawei/iot_link/os/liteos/include\list.h **** /**
 125:D:/fchai/work/i-cube/I-CUBE-HUAWEI/Middlewares/Third_Party/Huawei/iot_link/os/liteos/include\list.h ****  * dlist_empty - check if a list is empty
 126:D:/fchai/work/i-cube/I-CUBE-HUAWEI/Middlewares/Third_Party/Huawei/iot_link/os/liteos/include\list.h ****  * @head: the list head to check
 127:D:/fchai/work/i-cube/I-CUBE-HUAWEI/Middlewares/Third_Party/Huawei/iot_link/os/liteos/include\list.h ****  */
 128:D:/fchai/work/i-cube/I-CUBE-HUAWEI/Middlewares/Third_Party/Huawei/iot_link/os/liteos/include\list.h **** 
 129:D:/fchai/work/i-cube/I-CUBE-HUAWEI/Middlewares/Third_Party/Huawei/iot_link/os/liteos/include\list.h **** static inline int dlist_empty (dlist_t * head)
 130:D:/fchai/work/i-cube/I-CUBE-HUAWEI/Middlewares/Third_Party/Huawei/iot_link/os/liteos/include\list.h ****     {
 131:D:/fchai/work/i-cube/I-CUBE-HUAWEI/Middlewares/Third_Party/Huawei/iot_link/os/liteos/include\list.h ****     return head->prev == head;
 751              		.loc 4 131 16 is_stmt 0 view .LVU247
 752 00b2 D0E90115 		ldrd	r1, r5, [r0, #4]
 753              	.LBE269:
 754              	.LBE268:
 755              	.LBB271:
 756              	.LBB272:
 160:D:/fchai/work/i-cube/I-CUBE-HUAWEI/Middlewares/Third_Party/Huawei/iot_link/os/liteos/base/include\cm-tlsf.h **** }
 757              		.loc 2 160 17 view .LVU248
 758 00b6 B1FA81FE 		clz	lr, r1
 759              	.LVL69:
 160:D:/fchai/work/i-cube/I-CUBE-HUAWEI/Middlewares/Third_Party/Huawei/iot_link/os/liteos/base/include\cm-tlsf.h **** }
 760              		.loc 2 160 17 view .LVU249
 761              	.LBE272:
 762              	.LBE271:
 207:D:/fchai/work/i-cube/I-CUBE-HUAWEI/Middlewares/Third_Party/Huawei/iot_link/os/liteos/base/include\cm-tlsf.h **** 
 763              		.loc 2 207 5 is_stmt 1 view .LVU250
 764              	.LBB273:
 765              	.LBI273:
 163:D:/fchai/work/i-cube/I-CUBE-HUAWEI/Middlewares/Third_Party/Huawei/iot_link/os/liteos/base/include\cm-tlsf.h **** {
ARM GAS  T:\msys\tmp\ccHTo37l.s 			page 34


 766              		.loc 2 163 19 view .LVU251
 767              	.LBB274:
 165:D:/fchai/work/i-cube/I-CUBE-HUAWEI/Middlewares/Third_Party/Huawei/iot_link/os/liteos/base/include\cm-tlsf.h **** }
 768              		.loc 2 165 5 view .LVU252
 165:D:/fchai/work/i-cube/I-CUBE-HUAWEI/Middlewares/Third_Party/Huawei/iot_link/os/liteos/base/include\cm-tlsf.h **** }
 769              		.loc 2 165 29 is_stmt 0 view .LVU253
 770 00ba CEF11D02 		rsb	r2, lr, #29
 771              	.LBE274:
 772              	.LBE273:
 211:D:/fchai/work/i-cube/I-CUBE-HUAWEI/Middlewares/Third_Party/Huawei/iot_link/os/liteos/base/include\cm-tlsf.h ****     {
 773              		.loc 2 211 10 view .LVU254
 774 00be 00F1080C 		add	ip, r0, #8
 775              	.LBB277:
 776              	.LBB275:
 165:D:/fchai/work/i-cube/I-CUBE-HUAWEI/Middlewares/Third_Party/Huawei/iot_link/os/liteos/base/include\cm-tlsf.h **** }
 777              		.loc 2 165 18 view .LVU255
 778 00c2 21FA02F2 		lsr	r2, r1, r2
 779              	.LBE275:
 780              	.LBE277:
 211:D:/fchai/work/i-cube/I-CUBE-HUAWEI/Middlewares/Third_Party/Huawei/iot_link/os/liteos/base/include\cm-tlsf.h ****     {
 781              		.loc 2 211 8 view .LVU256
 782 00c6 AC45     		cmp	ip, r5
 783              	.LBB278:
 784              	.LBB276:
 165:D:/fchai/work/i-cube/I-CUBE-HUAWEI/Middlewares/Third_Party/Huawei/iot_link/os/liteos/base/include\cm-tlsf.h **** }
 785              		.loc 2 165 41 view .LVU257
 786 00c8 A2F10403 		sub	r3, r2, #4
 787              	.LVL70:
 165:D:/fchai/work/i-cube/I-CUBE-HUAWEI/Middlewares/Third_Party/Huawei/iot_link/os/liteos/base/include\cm-tlsf.h **** }
 788              		.loc 2 165 41 view .LVU258
 789              	.LBE276:
 790              	.LBE278:
 209:D:/fchai/work/i-cube/I-CUBE-HUAWEI/Middlewares/Third_Party/Huawei/iot_link/os/liteos/base/include\cm-tlsf.h **** 
 791              		.loc 2 209 5 is_stmt 1 view .LVU259
 209:D:/fchai/work/i-cube/I-CUBE-HUAWEI/Middlewares/Third_Party/Huawei/iot_link/os/liteos/base/include\cm-tlsf.h **** 
 792              		.loc 2 209 12 is_stmt 0 view .LVU260
 793 00cc CEF11B02 		rsb	r2, lr, #27
 794              	.LVL71:
 211:D:/fchai/work/i-cube/I-CUBE-HUAWEI/Middlewares/Third_Party/Huawei/iot_link/os/liteos/base/include\cm-tlsf.h ****     {
 795              		.loc 2 211 5 is_stmt 1 view .LVU261
 796              	.LBB279:
 797              	.LBI268:
 129:D:/fchai/work/i-cube/I-CUBE-HUAWEI/Middlewares/Third_Party/Huawei/iot_link/os/liteos/include\list.h ****     {
 798              		.loc 4 129 19 view .LVU262
 799              	.LBB270:
 800              		.loc 4 131 5 view .LVU263
 801              		.loc 4 131 5 is_stmt 0 view .LVU264
 802              	.LBE270:
 803              	.LBE279:
 211:D:/fchai/work/i-cube/I-CUBE-HUAWEI/Middlewares/Third_Party/Huawei/iot_link/os/liteos/base/include\cm-tlsf.h ****     {
 804              		.loc 2 211 8 view .LVU265
 805 00d0 64D0     		beq	.L32
 213:D:/fchai/work/i-cube/I-CUBE-HUAWEI/Middlewares/Third_Party/Huawei/iot_link/os/liteos/base/include\cm-tlsf.h ****         {
 806              		.loc 2 213 9 is_stmt 1 view .LVU266
 807 00d2 03EB8202 		add	r2, r3, r2, lsl #2
 808              	.LVL72:
 213:D:/fchai/work/i-cube/I-CUBE-HUAWEI/Middlewares/Third_Party/Huawei/iot_link/os/liteos/base/include\cm-tlsf.h ****         {
ARM GAS  T:\msys\tmp\ccHTo37l.s 			page 35


 809              		.loc 2 213 9 is_stmt 0 view .LVU267
 810 00d6 04EB8202 		add	r2, r4, r2, lsl #2
 213:D:/fchai/work/i-cube/I-CUBE-HUAWEI/Middlewares/Third_Party/Huawei/iot_link/os/liteos/base/include\cm-tlsf.h ****         {
 811              		.loc 2 213 12 view .LVU268
 812 00da 136A     		ldr	r3, [r2, #32]
 813              	.LVL73:
 213:D:/fchai/work/i-cube/I-CUBE-HUAWEI/Middlewares/Third_Party/Huawei/iot_link/os/liteos/base/include\cm-tlsf.h ****         {
 814              		.loc 2 213 12 view .LVU269
 815 00dc 9842     		cmp	r0, r3
 215:D:/fchai/work/i-cube/I-CUBE-HUAWEI/Middlewares/Third_Party/Huawei/iot_link/os/liteos/base/include\cm-tlsf.h ****         }
 816              		.loc 2 215 43 view .LVU270
 817 00de C368     		ldr	r3, [r0, #12]
 215:D:/fchai/work/i-cube/I-CUBE-HUAWEI/Middlewares/Third_Party/Huawei/iot_link/os/liteos/base/include\cm-tlsf.h ****         }
 818              		.loc 2 215 13 is_stmt 1 view .LVU271
 215:D:/fchai/work/i-cube/I-CUBE-HUAWEI/Middlewares/Third_Party/Huawei/iot_link/os/liteos/base/include\cm-tlsf.h ****         }
 819              		.loc 2 215 43 is_stmt 0 view .LVU272
 820 00e0 04BF     		itt	eq
 821 00e2 A3F1080E 		subeq	lr, r3, #8
 822              	.LVL74:
 215:D:/fchai/work/i-cube/I-CUBE-HUAWEI/Middlewares/Third_Party/Huawei/iot_link/os/liteos/base/include\cm-tlsf.h ****         }
 823              		.loc 2 215 41 view .LVU273
 824 00e6 C2F820E0 		streq	lr, [r2, #32]
 218:D:/fchai/work/i-cube/I-CUBE-HUAWEI/Middlewares/Third_Party/Huawei/iot_link/os/liteos/base/include\cm-tlsf.h **** 
 825              		.loc 2 218 9 is_stmt 1 view .LVU274
 826              	.LBB280:
 827              	.LBI280:
 118:D:/fchai/work/i-cube/I-CUBE-HUAWEI/Middlewares/Third_Party/Huawei/iot_link/os/liteos/include\list.h ****     {
 828              		.loc 4 118 20 view .LVU275
 829              	.LVL75:
 830              	.LBB281:
 120:D:/fchai/work/i-cube/I-CUBE-HUAWEI/Middlewares/Third_Party/Huawei/iot_link/os/liteos/include\list.h ****     node->next->prev = node->prev;
 831              		.loc 4 120 5 view .LVU276
 120:D:/fchai/work/i-cube/I-CUBE-HUAWEI/Middlewares/Third_Party/Huawei/iot_link/os/liteos/include\list.h ****     node->next->prev = node->prev;
 832              		.loc 4 120 22 is_stmt 0 view .LVU277
 833 00ea 6B60     		str	r3, [r5, #4]
 121:D:/fchai/work/i-cube/I-CUBE-HUAWEI/Middlewares/Third_Party/Huawei/iot_link/os/liteos/include\list.h ****     }
 834              		.loc 4 121 5 is_stmt 1 view .LVU278
 121:D:/fchai/work/i-cube/I-CUBE-HUAWEI/Middlewares/Third_Party/Huawei/iot_link/os/liteos/include\list.h ****     }
 835              		.loc 4 121 22 is_stmt 0 view .LVU279
 836 00ec 1D60     		str	r5, [r3]
 837              	.LBE281:
 838              	.LBE280:
 220:D:/fchai/work/i-cube/I-CUBE-HUAWEI/Middlewares/Third_Party/Huawei/iot_link/os/liteos/base/include\cm-tlsf.h ****     }
 839              		.loc 2 220 9 is_stmt 1 view .LVU280
 840              	.LVL76:
 841              	.L35:
 220:D:/fchai/work/i-cube/I-CUBE-HUAWEI/Middlewares/Third_Party/Huawei/iot_link/os/liteos/base/include\cm-tlsf.h ****     }
 842              		.loc 2 220 9 is_stmt 0 view .LVU281
 843              	.LBE267:
 844              	.LBE266:
 845              	.LBE292:
 846              	.LBE299:
 847              	.LBE306:
  64:D:/fchai/work/i-cube/I-CUBE-HUAWEI/Middlewares/Third_Party/Huawei/iot_link/os/liteos/base/mem/heap\los_heap.c **** #endif
 848              		.loc 1 64 5 is_stmt 1 view .LVU282
 849              	.LBB307:
 850              	.LBB300:
ARM GAS  T:\msys\tmp\ccHTo37l.s 			page 36


 851              	.LBB293:
 852              	.LBB283:
 853              	.LBI283:
 108:D:/fchai/work/i-cube/I-CUBE-HUAWEI/Middlewares/Third_Party/Huawei/iot_link/os/liteos/base/include\heap.h **** }
 109:D:/fchai/work/i-cube/I-CUBE-HUAWEI/Middlewares/Third_Party/Huawei/iot_link/os/liteos/base/include\heap.h **** 
 110:D:/fchai/work/i-cube/I-CUBE-HUAWEI/Middlewares/Third_Party/Huawei/iot_link/os/liteos/base/include\heap.h **** static inline void __stat_chunk_del (mem_stat_t * stat, chunk_t * chunk)
 854              		.loc 5 110 20 view .LVU283
 855              	.LBB284:
 111:D:/fchai/work/i-cube/I-CUBE-HUAWEI/Middlewares/Third_Party/Huawei/iot_link/os/liteos/base/include\heap.h **** {
 112:D:/fchai/work/i-cube/I-CUBE-HUAWEI/Middlewares/Third_Party/Huawei/iot_link/os/liteos/base/include\heap.h ****     stat->free_chunks--;
 856              		.loc 5 112 5 view .LVU284
 857              		.loc 5 112 22 is_stmt 0 view .LVU285
 858 00ee D4E96E23 		ldrd	r2, r3, [r4, #440]
 859              	.LBE284:
 860              	.LBE283:
 861              	.LBE293:
 862              	.LBE300:
 863              	.LBE307:
 864              	.LBB308:
 865              	.LBB309:
 211:D:/fchai/work/i-cube/I-CUBE-HUAWEI/Middlewares/Third_Party/Huawei/iot_link/os/liteos/base/mem/heap\los_heap.c ****     ach_t   * ach         = (ach_t *) chunk;
 866              		.loc 1 211 38 view .LVU286
 867 00f2 7D1E     		subs	r5, r7, #1
 868              	.LBE309:
 869              	.LBE308:
 870              	.LBB423:
 871              	.LBB301:
 872              	.LBB294:
 873              	.LBB288:
 874              	.LBB285:
 113:D:/fchai/work/i-cube/I-CUBE-HUAWEI/Middlewares/Third_Party/Huawei/iot_link/os/liteos/base/include\heap.h ****     stat->free_size -= (chunk->size - sizeof (ach_t));
 875              		.loc 5 113 21 view .LVU287
 876 00f4 0833     		adds	r3, r3, #8
 877 00f6 5B1A     		subs	r3, r3, r1
 878              	.LBE285:
 879              	.LBE288:
 880              	.LBE294:
 881              	.LBE301:
 882              	.LBE423:
 883              	.LBB424:
 884              	.LBB418:
 211:D:/fchai/work/i-cube/I-CUBE-HUAWEI/Middlewares/Third_Party/Huawei/iot_link/os/liteos/base/mem/heap\los_heap.c ****     ach_t   * ach         = (ach_t *) chunk;
 885              		.loc 1 211 38 view .LVU288
 886 00f8 6544     		add	r5, r5, ip
 887 00fa 7942     		rsbs	r1, r7, #0
 888              	.LVL77:
 211:D:/fchai/work/i-cube/I-CUBE-HUAWEI/Middlewares/Third_Party/Huawei/iot_link/os/liteos/base/mem/heap\los_heap.c ****     ach_t   * ach         = (ach_t *) chunk;
 889              		.loc 1 211 38 view .LVU289
 890 00fc 0D40     		ands	r5, r5, r1
 891              	.LBE418:
 892              	.LBE424:
 893              	.LBB425:
 894              	.LBB302:
 895              	.LBB295:
 896              	.LBB289:
 897              	.LBB286:
 112:D:/fchai/work/i-cube/I-CUBE-HUAWEI/Middlewares/Third_Party/Huawei/iot_link/os/liteos/base/include\heap.h ****     stat->free_size -= (chunk->size - sizeof (ach_t));
ARM GAS  T:\msys\tmp\ccHTo37l.s 			page 37


 898              		.loc 5 112 22 view .LVU290
 899 00fe 013A     		subs	r2, r2, #1
 900              	.LBE286:
 901              	.LBE289:
 902              	.LBE295:
 903              	.LBE302:
 904              	.LBE425:
 905              	.LBB426:
 906              	.LBB419:
 216:D:/fchai/work/i-cube/I-CUBE-HUAWEI/Middlewares/Third_Party/Huawei/iot_link/os/liteos/base/mem/heap\los_heap.c ****     {
 907              		.loc 1 216 8 view .LVU291
 908 0100 AC45     		cmp	ip, r5
 909              	.LBE419:
 910              	.LBE426:
 911              	.LBB427:
 912              	.LBB303:
 913              	.LBB296:
 914              	.LBB290:
 915              	.LBB287:
 112:D:/fchai/work/i-cube/I-CUBE-HUAWEI/Middlewares/Third_Party/Huawei/iot_link/os/liteos/base/include\heap.h ****     stat->free_size -= (chunk->size - sizeof (ach_t));
 916              		.loc 5 112 22 view .LVU292
 917 0102 C4E96E23 		strd	r2, r3, [r4, #440]
 918              		.loc 5 113 5 is_stmt 1 view .LVU293
 919              	.LVL78:
 920              		.loc 5 113 5 is_stmt 0 view .LVU294
 921              	.LBE287:
 922              	.LBE290:
 923              	.LBE296:
  77:D:/fchai/work/i-cube/I-CUBE-HUAWEI/Middlewares/Third_Party/Huawei/iot_link/os/liteos/base/mem/heap\los_heap.c **** }
 924              		.loc 1 77 5 is_stmt 1 view .LVU295
  77:D:/fchai/work/i-cube/I-CUBE-HUAWEI/Middlewares/Third_Party/Huawei/iot_link/os/liteos/base/mem/heap\los_heap.c **** }
 925              		.loc 1 77 5 is_stmt 0 view .LVU296
 926              	.LBE303:
 927              	.LBE427:
 388:D:/fchai/work/i-cube/I-CUBE-HUAWEI/Middlewares/Third_Party/Huawei/iot_link/os/liteos/base/mem/heap\los_heap.c **** 
 389:D:/fchai/work/i-cube/I-CUBE-HUAWEI/Middlewares/Third_Party/Huawei/iot_link/os/liteos/base/mem/heap\los_heap.c ****     if (chunk != NULL)
 928              		.loc 1 389 5 is_stmt 1 view .LVU297
 390:D:/fchai/work/i-cube/I-CUBE-HUAWEI/Middlewares/Third_Party/Huawei/iot_link/os/liteos/base/mem/heap\los_heap.c ****     {
 391:D:/fchai/work/i-cube/I-CUBE-HUAWEI/Middlewares/Third_Party/Huawei/iot_link/os/liteos/base/mem/heap\los_heap.c ****         mem = __carve_extra (heap, chunk, align, bytes);
 929              		.loc 1 391 9 view .LVU298
 930              	.LBB428:
 931              	.LBI308:
 207:D:/fchai/work/i-cube/I-CUBE-HUAWEI/Middlewares/Third_Party/Huawei/iot_link/os/liteos/base/mem/heap\los_heap.c ****                                     size_t align, size_t size)
 932              		.loc 1 207 22 view .LVU299
 933              	.LBB420:
 210:D:/fchai/work/i-cube/I-CUBE-HUAWEI/Middlewares/Third_Party/Huawei/iot_link/os/liteos/base/mem/heap\los_heap.c ****     char    * aligned_mem = (char *) round_up (mem, align);
 934              		.loc 1 210 5 view .LVU300
 935              	.LBB310:
 936              	.LBI310:
 108:D:/fchai/work/i-cube/I-CUBE-HUAWEI/Middlewares/Third_Party/Huawei/iot_link/os/liteos/base/include\chunk.h **** }
 109:D:/fchai/work/i-cube/I-CUBE-HUAWEI/Middlewares/Third_Party/Huawei/iot_link/os/liteos/base/include\chunk.h **** 
 110:D:/fchai/work/i-cube/I-CUBE-HUAWEI/Middlewares/Third_Party/Huawei/iot_link/os/liteos/base/include\chunk.h **** /**
 111:D:/fchai/work/i-cube/I-CUBE-HUAWEI/Middlewares/Third_Party/Huawei/iot_link/os/liteos/base/include\chunk.h ****  * __get_prev_chunk - get the previous chunk
 112:D:/fchai/work/i-cube/I-CUBE-HUAWEI/Middlewares/Third_Party/Huawei/iot_link/os/liteos/base/include\chunk.h ****  * @chunk: the current chunk
 113:D:/fchai/work/i-cube/I-CUBE-HUAWEI/Middlewares/Third_Party/Huawei/iot_link/os/liteos/base/include\chunk.h ****  *
 114:D:/fchai/work/i-cube/I-CUBE-HUAWEI/Middlewares/Third_Party/Huawei/iot_link/os/liteos/base/include\chunk.h ****  * return: previous chunk
 115:D:/fchai/work/i-cube/I-CUBE-HUAWEI/Middlewares/Third_Party/Huawei/iot_link/os/liteos/base/include\chunk.h ****  */
ARM GAS  T:\msys\tmp\ccHTo37l.s 			page 38


 116:D:/fchai/work/i-cube/I-CUBE-HUAWEI/Middlewares/Third_Party/Huawei/iot_link/os/liteos/base/include\chunk.h **** 
 117:D:/fchai/work/i-cube/I-CUBE-HUAWEI/Middlewares/Third_Party/Huawei/iot_link/os/liteos/base/include\chunk.h **** static inline chunk_t * __get_prev_chunk (chunk_t * chunk)
 118:D:/fchai/work/i-cube/I-CUBE-HUAWEI/Middlewares/Third_Party/Huawei/iot_link/os/liteos/base/include\chunk.h **** {
 119:D:/fchai/work/i-cube/I-CUBE-HUAWEI/Middlewares/Third_Party/Huawei/iot_link/os/liteos/base/include\chunk.h ****     return chunk->prev;
 120:D:/fchai/work/i-cube/I-CUBE-HUAWEI/Middlewares/Third_Party/Huawei/iot_link/os/liteos/base/include\chunk.h **** }
 121:D:/fchai/work/i-cube/I-CUBE-HUAWEI/Middlewares/Third_Party/Huawei/iot_link/os/liteos/base/include\chunk.h **** 
 122:D:/fchai/work/i-cube/I-CUBE-HUAWEI/Middlewares/Third_Party/Huawei/iot_link/os/liteos/base/include\chunk.h **** /**
 123:D:/fchai/work/i-cube/I-CUBE-HUAWEI/Middlewares/Third_Party/Huawei/iot_link/os/liteos/base/include\chunk.h ****  * __get_mem_block - get the memory block in a chunk
 124:D:/fchai/work/i-cube/I-CUBE-HUAWEI/Middlewares/Third_Party/Huawei/iot_link/os/liteos/base/include\chunk.h ****  * @chunk: the chunk
 125:D:/fchai/work/i-cube/I-CUBE-HUAWEI/Middlewares/Third_Party/Huawei/iot_link/os/liteos/base/include\chunk.h ****  *
 126:D:/fchai/work/i-cube/I-CUBE-HUAWEI/Middlewares/Third_Party/Huawei/iot_link/os/liteos/base/include\chunk.h ****  * return: the memory block in the chunk
 127:D:/fchai/work/i-cube/I-CUBE-HUAWEI/Middlewares/Third_Party/Huawei/iot_link/os/liteos/base/include\chunk.h ****  */
 128:D:/fchai/work/i-cube/I-CUBE-HUAWEI/Middlewares/Third_Party/Huawei/iot_link/os/liteos/base/include\chunk.h **** 
 129:D:/fchai/work/i-cube/I-CUBE-HUAWEI/Middlewares/Third_Party/Huawei/iot_link/os/liteos/base/include\chunk.h **** static inline char * __get_mem_block (chunk_t * chunk)
 937              		.loc 3 129 22 view .LVU301
 938              	.LBB311:
 130:D:/fchai/work/i-cube/I-CUBE-HUAWEI/Middlewares/Third_Party/Huawei/iot_link/os/liteos/base/include\chunk.h **** {
 131:D:/fchai/work/i-cube/I-CUBE-HUAWEI/Middlewares/Third_Party/Huawei/iot_link/os/liteos/base/include\chunk.h ****     return (char *) chunk + sizeof (ach_t);
 939              		.loc 3 131 5 view .LVU302
 940              		.loc 3 131 5 is_stmt 0 view .LVU303
 941              	.LBE311:
 942              	.LBE310:
 211:D:/fchai/work/i-cube/I-CUBE-HUAWEI/Middlewares/Third_Party/Huawei/iot_link/os/liteos/base/mem/heap\los_heap.c ****     ach_t   * ach         = (ach_t *) chunk;
 943              		.loc 1 211 5 is_stmt 1 view .LVU304
 212:D:/fchai/work/i-cube/I-CUBE-HUAWEI/Middlewares/Third_Party/Huawei/iot_link/os/liteos/base/mem/heap\los_heap.c ****     chunk_t * next;
 944              		.loc 1 212 5 view .LVU305
 213:D:/fchai/work/i-cube/I-CUBE-HUAWEI/Middlewares/Third_Party/Huawei/iot_link/os/liteos/base/mem/heap\los_heap.c ****     size_t    usable_size;
 945              		.loc 1 213 5 view .LVU306
 214:D:/fchai/work/i-cube/I-CUBE-HUAWEI/Middlewares/Third_Party/Huawei/iot_link/os/liteos/base/mem/heap\los_heap.c **** 
 946              		.loc 1 214 5 view .LVU307
 216:D:/fchai/work/i-cube/I-CUBE-HUAWEI/Middlewares/Third_Party/Huawei/iot_link/os/liteos/base/mem/heap\los_heap.c ****     {
 947              		.loc 1 216 5 view .LVU308
 240:D:/fchai/work/i-cube/I-CUBE-HUAWEI/Middlewares/Third_Party/Huawei/iot_link/os/liteos/base/mem/heap\los_heap.c ****         {
 948              		.loc 1 240 26 is_stmt 0 view .LVU309
 949 0106 A5EB0003 		sub	r3, r5, r0
 216:D:/fchai/work/i-cube/I-CUBE-HUAWEI/Middlewares/Third_Party/Huawei/iot_link/os/liteos/base/mem/heap\los_heap.c ****     {
 950              		.loc 1 216 8 view .LVU310
 951 010a 04D0     		beq	.L37
 240:D:/fchai/work/i-cube/I-CUBE-HUAWEI/Middlewares/Third_Party/Huawei/iot_link/os/liteos/base/mem/heap\los_heap.c ****         {
 952              		.loc 1 240 9 is_stmt 1 view .LVU311
 240:D:/fchai/work/i-cube/I-CUBE-HUAWEI/Middlewares/Third_Party/Huawei/iot_link/os/liteos/base/mem/heap\los_heap.c ****         {
 953              		.loc 1 240 12 is_stmt 0 view .LVU312
 954 010c 182B     		cmp	r3, #24
 955 010e 00F2A680 		bhi	.L38
 242:D:/fchai/work/i-cube/I-CUBE-HUAWEI/Middlewares/Third_Party/Huawei/iot_link/os/liteos/base/mem/heap\los_heap.c ****         }
 956              		.loc 1 242 13 is_stmt 1 view .LVU313
 957              	.LVL79:
 958              	.LBB312:
 959              	.LBI312:
 132:D:/fchai/work/i-cube/I-CUBE-HUAWEI/Middlewares/Third_Party/Huawei/iot_link/os/liteos/base/include\chunk.h **** }
 133:D:/fchai/work/i-cube/I-CUBE-HUAWEI/Middlewares/Third_Party/Huawei/iot_link/os/liteos/base/include\chunk.h **** 
 134:D:/fchai/work/i-cube/I-CUBE-HUAWEI/Middlewares/Third_Party/Huawei/iot_link/os/liteos/base/include\chunk.h **** /**
 135:D:/fchai/work/i-cube/I-CUBE-HUAWEI/Middlewares/Third_Party/Huawei/iot_link/os/liteos/base/include\chunk.h ****  * __get_fch_from_mem - create a new chunk for a memory block
 136:D:/fchai/work/i-cube/I-CUBE-HUAWEI/Middlewares/Third_Party/Huawei/iot_link/os/liteos/base/include\chunk.h ****  * @mem: the memory block
 137:D:/fchai/work/i-cube/I-CUBE-HUAWEI/Middlewares/Third_Party/Huawei/iot_link/os/liteos/base/include\chunk.h ****  *
 138:D:/fchai/work/i-cube/I-CUBE-HUAWEI/Middlewares/Third_Party/Huawei/iot_link/os/liteos/base/include\chunk.h ****  * return: the new chunk containing the memory block
 139:D:/fchai/work/i-cube/I-CUBE-HUAWEI/Middlewares/Third_Party/Huawei/iot_link/os/liteos/base/include\chunk.h ****  */
ARM GAS  T:\msys\tmp\ccHTo37l.s 			page 39


 140:D:/fchai/work/i-cube/I-CUBE-HUAWEI/Middlewares/Third_Party/Huawei/iot_link/os/liteos/base/include\chunk.h **** 
 141:D:/fchai/work/i-cube/I-CUBE-HUAWEI/Middlewares/Third_Party/Huawei/iot_link/os/liteos/base/include\chunk.h **** static inline chunk_t * __get_fch_from_mem (char * mem)
 142:D:/fchai/work/i-cube/I-CUBE-HUAWEI/Middlewares/Third_Party/Huawei/iot_link/os/liteos/base/include\chunk.h **** {
 143:D:/fchai/work/i-cube/I-CUBE-HUAWEI/Middlewares/Third_Party/Huawei/iot_link/os/liteos/base/include\chunk.h ****     return &((chunk_t *) mem) [-1];
 144:D:/fchai/work/i-cube/I-CUBE-HUAWEI/Middlewares/Third_Party/Huawei/iot_link/os/liteos/base/include\chunk.h **** }
 145:D:/fchai/work/i-cube/I-CUBE-HUAWEI/Middlewares/Third_Party/Huawei/iot_link/os/liteos/base/include\chunk.h **** 
 146:D:/fchai/work/i-cube/I-CUBE-HUAWEI/Middlewares/Third_Party/Huawei/iot_link/os/liteos/base/include\chunk.h **** /**
 147:D:/fchai/work/i-cube/I-CUBE-HUAWEI/Middlewares/Third_Party/Huawei/iot_link/os/liteos/base/include\chunk.h ****  * __get_ach_from_mem - get the chunk of a allocated memory block
 148:D:/fchai/work/i-cube/I-CUBE-HUAWEI/Middlewares/Third_Party/Huawei/iot_link/os/liteos/base/include\chunk.h ****  * @mem: the memory block
 149:D:/fchai/work/i-cube/I-CUBE-HUAWEI/Middlewares/Third_Party/Huawei/iot_link/os/liteos/base/include\chunk.h ****  *
 150:D:/fchai/work/i-cube/I-CUBE-HUAWEI/Middlewares/Third_Party/Huawei/iot_link/os/liteos/base/include\chunk.h ****  * return: the chunk containing the memory block
 151:D:/fchai/work/i-cube/I-CUBE-HUAWEI/Middlewares/Third_Party/Huawei/iot_link/os/liteos/base/include\chunk.h ****  */
 152:D:/fchai/work/i-cube/I-CUBE-HUAWEI/Middlewares/Third_Party/Huawei/iot_link/os/liteos/base/include\chunk.h **** 
 153:D:/fchai/work/i-cube/I-CUBE-HUAWEI/Middlewares/Third_Party/Huawei/iot_link/os/liteos/base/include\chunk.h **** static inline ach_t * __get_ach_from_mem (char * mem)
 154:D:/fchai/work/i-cube/I-CUBE-HUAWEI/Middlewares/Third_Party/Huawei/iot_link/os/liteos/base/include\chunk.h **** {
 155:D:/fchai/work/i-cube/I-CUBE-HUAWEI/Middlewares/Third_Party/Huawei/iot_link/os/liteos/base/include\chunk.h ****     uintptr_t szorptr;
 156:D:/fchai/work/i-cube/I-CUBE-HUAWEI/Middlewares/Third_Party/Huawei/iot_link/os/liteos/base/include\chunk.h **** 
 157:D:/fchai/work/i-cube/I-CUBE-HUAWEI/Middlewares/Third_Party/Huawei/iot_link/os/liteos/base/include\chunk.h ****     /*
 158:D:/fchai/work/i-cube/I-CUBE-HUAWEI/Middlewares/Third_Party/Huawei/iot_link/os/liteos/base/include\chunk.h ****      * there are two possible cases here:
 159:D:/fchai/work/i-cube/I-CUBE-HUAWEI/Middlewares/Third_Party/Huawei/iot_link/os/liteos/base/include\chunk.h ****      *
 160:D:/fchai/work/i-cube/I-CUBE-HUAWEI/Middlewares/Third_Party/Huawei/iot_link/os/liteos/base/include\chunk.h ****      * 1) chunk->head is just behind the 'mem':
 161:D:/fchai/work/i-cube/I-CUBE-HUAWEI/Middlewares/Third_Party/Huawei/iot_link/os/liteos/base/include\chunk.h ****      *
 162:D:/fchai/work/i-cube/I-CUBE-HUAWEI/Middlewares/Third_Party/Huawei/iot_link/os/liteos/base/include\chunk.h ****      *    +-------------+--------------+
 163:D:/fchai/work/i-cube/I-CUBE-HUAWEI/Middlewares/Third_Party/Huawei/iot_link/os/liteos/base/include\chunk.h ****      *    | prev | size | memory block |
 164:D:/fchai/work/i-cube/I-CUBE-HUAWEI/Middlewares/Third_Party/Huawei/iot_link/os/liteos/base/include\chunk.h ****      *    +-------------+--------------+
 165:D:/fchai/work/i-cube/I-CUBE-HUAWEI/Middlewares/Third_Party/Huawei/iot_link/os/liteos/base/include\chunk.h ****      *
 166:D:/fchai/work/i-cube/I-CUBE-HUAWEI/Middlewares/Third_Party/Huawei/iot_link/os/liteos/base/include\chunk.h ****      * 2) after an aligned alloc, there may extra memory in the front but the
 167:D:/fchai/work/i-cube/I-CUBE-HUAWEI/Middlewares/Third_Party/Huawei/iot_link/os/liteos/base/include\chunk.h ****      *    size is less than sizeof (chunk_t), there will be a pointer in the
 168:D:/fchai/work/i-cube/I-CUBE-HUAWEI/Middlewares/Third_Party/Huawei/iot_link/os/liteos/base/include\chunk.h ****      *    'extra mem':
 169:D:/fchai/work/i-cube/I-CUBE-HUAWEI/Middlewares/Third_Party/Huawei/iot_link/os/liteos/base/include\chunk.h ****      *
 170:D:/fchai/work/i-cube/I-CUBE-HUAWEI/Middlewares/Third_Party/Huawei/iot_link/os/liteos/base/include\chunk.h ****      *    +-------------+-----------+----------------------+
 171:D:/fchai/work/i-cube/I-CUBE-HUAWEI/Middlewares/Third_Party/Huawei/iot_link/os/liteos/base/include\chunk.h ****      *    | prev | size | extra mem | aligned memory block |
 172:D:/fchai/work/i-cube/I-CUBE-HUAWEI/Middlewares/Third_Party/Huawei/iot_link/os/liteos/base/include\chunk.h ****      *    +-------------+-----------+----------------------+
 173:D:/fchai/work/i-cube/I-CUBE-HUAWEI/Middlewares/Third_Party/Huawei/iot_link/os/liteos/base/include\chunk.h ****      *
 174:D:/fchai/work/i-cube/I-CUBE-HUAWEI/Middlewares/Third_Party/Huawei/iot_link/os/liteos/base/include\chunk.h ****      *    please refer to the routine of <__carve_head> for this case
 175:D:/fchai/work/i-cube/I-CUBE-HUAWEI/Middlewares/Third_Party/Huawei/iot_link/os/liteos/base/include\chunk.h ****      *
 176:D:/fchai/work/i-cube/I-CUBE-HUAWEI/Middlewares/Third_Party/Huawei/iot_link/os/liteos/base/include\chunk.h ****      * for both cases, this routine just works fine
 177:D:/fchai/work/i-cube/I-CUBE-HUAWEI/Middlewares/Third_Party/Huawei/iot_link/os/liteos/base/include\chunk.h ****      */
 178:D:/fchai/work/i-cube/I-CUBE-HUAWEI/Middlewares/Third_Party/Huawei/iot_link/os/liteos/base/include\chunk.h **** 
 179:D:/fchai/work/i-cube/I-CUBE-HUAWEI/Middlewares/Third_Party/Huawei/iot_link/os/liteos/base/include\chunk.h ****     szorptr = ((uintptr_t *) mem) [-1];
 180:D:/fchai/work/i-cube/I-CUBE-HUAWEI/Middlewares/Third_Party/Huawei/iot_link/os/liteos/base/include\chunk.h **** 
 181:D:/fchai/work/i-cube/I-CUBE-HUAWEI/Middlewares/Third_Party/Huawei/iot_link/os/liteos/base/include\chunk.h ****     if (szorptr & 1)
 182:D:/fchai/work/i-cube/I-CUBE-HUAWEI/Middlewares/Third_Party/Huawei/iot_link/os/liteos/base/include\chunk.h ****     {
 183:D:/fchai/work/i-cube/I-CUBE-HUAWEI/Middlewares/Third_Party/Huawei/iot_link/os/liteos/base/include\chunk.h **** 
 184:D:/fchai/work/i-cube/I-CUBE-HUAWEI/Middlewares/Third_Party/Huawei/iot_link/os/liteos/base/include\chunk.h ****         /* case 1, chunk->size */
 185:D:/fchai/work/i-cube/I-CUBE-HUAWEI/Middlewares/Third_Party/Huawei/iot_link/os/liteos/base/include\chunk.h **** 
 186:D:/fchai/work/i-cube/I-CUBE-HUAWEI/Middlewares/Third_Party/Huawei/iot_link/os/liteos/base/include\chunk.h ****         return &((ach_t *) mem) [-1];
 187:D:/fchai/work/i-cube/I-CUBE-HUAWEI/Middlewares/Third_Party/Huawei/iot_link/os/liteos/base/include\chunk.h ****     }
 188:D:/fchai/work/i-cube/I-CUBE-HUAWEI/Middlewares/Third_Party/Huawei/iot_link/os/liteos/base/include\chunk.h **** 
 189:D:/fchai/work/i-cube/I-CUBE-HUAWEI/Middlewares/Third_Party/Huawei/iot_link/os/liteos/base/include\chunk.h ****     /* case 2, a pointer to the chunk */
 190:D:/fchai/work/i-cube/I-CUBE-HUAWEI/Middlewares/Third_Party/Huawei/iot_link/os/liteos/base/include\chunk.h **** 
 191:D:/fchai/work/i-cube/I-CUBE-HUAWEI/Middlewares/Third_Party/Huawei/iot_link/os/liteos/base/include\chunk.h ****     return (ach_t *) szorptr;
 192:D:/fchai/work/i-cube/I-CUBE-HUAWEI/Middlewares/Third_Party/Huawei/iot_link/os/liteos/base/include\chunk.h **** }
 193:D:/fchai/work/i-cube/I-CUBE-HUAWEI/Middlewares/Third_Party/Huawei/iot_link/os/liteos/base/include\chunk.h **** 
 194:D:/fchai/work/i-cube/I-CUBE-HUAWEI/Middlewares/Third_Party/Huawei/iot_link/os/liteos/base/include\chunk.h **** /**
 195:D:/fchai/work/i-cube/I-CUBE-HUAWEI/Middlewares/Third_Party/Huawei/iot_link/os/liteos/base/include\chunk.h ****  * __set_ach_to_mem - set chunk in the front of memory block
 196:D:/fchai/work/i-cube/I-CUBE-HUAWEI/Middlewares/Third_Party/Huawei/iot_link/os/liteos/base/include\chunk.h ****  * @mem: the memory block
ARM GAS  T:\msys\tmp\ccHTo37l.s 			page 40


 197:D:/fchai/work/i-cube/I-CUBE-HUAWEI/Middlewares/Third_Party/Huawei/iot_link/os/liteos/base/include\chunk.h ****  *
 198:D:/fchai/work/i-cube/I-CUBE-HUAWEI/Middlewares/Third_Party/Huawei/iot_link/os/liteos/base/include\chunk.h ****  * return: NA
 199:D:/fchai/work/i-cube/I-CUBE-HUAWEI/Middlewares/Third_Party/Huawei/iot_link/os/liteos/base/include\chunk.h ****  */
 200:D:/fchai/work/i-cube/I-CUBE-HUAWEI/Middlewares/Third_Party/Huawei/iot_link/os/liteos/base/include\chunk.h **** 
 201:D:/fchai/work/i-cube/I-CUBE-HUAWEI/Middlewares/Third_Party/Huawei/iot_link/os/liteos/base/include\chunk.h **** static inline void __set_ach_to_mem (char * mem, chunk_t * chunk)
 960              		.loc 3 201 20 view .LVU314
 961              	.LBB313:
 202:D:/fchai/work/i-cube/I-CUBE-HUAWEI/Middlewares/Third_Party/Huawei/iot_link/os/liteos/base/include\chunk.h **** {
 203:D:/fchai/work/i-cube/I-CUBE-HUAWEI/Middlewares/Third_Party/Huawei/iot_link/os/liteos/base/include\chunk.h ****     ((chunk_t **) mem) [-1] = chunk;
 962              		.loc 3 203 5 view .LVU315
 963              		.loc 3 203 29 is_stmt 0 view .LVU316
 964 0112 45F8040C 		str	r0, [r5, #-4]
 965              	.LVL80:
 966              	.L37:
 967              		.loc 3 203 29 view .LVU317
 968              	.LBE313:
 969              	.LBE312:
 281:D:/fchai/work/i-cube/I-CUBE-HUAWEI/Middlewares/Third_Party/Huawei/iot_link/os/liteos/base/mem/heap\los_heap.c **** 
 970              		.loc 1 281 5 is_stmt 1 view .LVU318
 281:D:/fchai/work/i-cube/I-CUBE-HUAWEI/Middlewares/Third_Party/Huawei/iot_link/os/liteos/base/mem/heap\los_heap.c **** 
 971              		.loc 1 281 22 is_stmt 0 view .LVU319
 972 0116 4768     		ldr	r7, [r0, #4]
 973              	.LVL81:
 288:D:/fchai/work/i-cube/I-CUBE-HUAWEI/Middlewares/Third_Party/Huawei/iot_link/os/liteos/base/mem/heap\los_heap.c ****     {
 974              		.loc 1 288 5 is_stmt 1 view .LVU320
 288:D:/fchai/work/i-cube/I-CUBE-HUAWEI/Middlewares/Third_Party/Huawei/iot_link/os/liteos/base/mem/heap\los_heap.c ****     {
 975              		.loc 1 288 22 is_stmt 0 view .LVU321
 976 0118 FA1A     		subs	r2, r7, r3
 977 011a 921B     		subs	r2, r2, r6
 288:D:/fchai/work/i-cube/I-CUBE-HUAWEI/Middlewares/Third_Party/Huawei/iot_link/os/liteos/base/mem/heap\los_heap.c ****     {
 978              		.loc 1 288 8 view .LVU322
 979 011c 0F2A     		cmp	r2, #15
 980 011e 5AD8     		bhi	.L52
 981              	.LVL82:
 982              	.L41:
 335:D:/fchai/work/i-cube/I-CUBE-HUAWEI/Middlewares/Third_Party/Huawei/iot_link/os/liteos/base/mem/heap\los_heap.c **** #endif
 983              		.loc 1 335 5 is_stmt 1 view .LVU323
 984              	.LBB314:
 985              	.LBI314:
 114:D:/fchai/work/i-cube/I-CUBE-HUAWEI/Middlewares/Third_Party/Huawei/iot_link/os/liteos/base/include\heap.h **** }
 115:D:/fchai/work/i-cube/I-CUBE-HUAWEI/Middlewares/Third_Party/Huawei/iot_link/os/liteos/base/include\heap.h **** 
 116:D:/fchai/work/i-cube/I-CUBE-HUAWEI/Middlewares/Third_Party/Huawei/iot_link/os/liteos/base/include\heap.h **** static inline void __stat_chunk_alloc (mem_stat_t * stat, chunk_t * chunk)
 986              		.loc 5 116 20 view .LVU324
 987              	.LBB315:
 117:D:/fchai/work/i-cube/I-CUBE-HUAWEI/Middlewares/Third_Party/Huawei/iot_link/os/liteos/base/include\heap.h **** {
 118:D:/fchai/work/i-cube/I-CUBE-HUAWEI/Middlewares/Third_Party/Huawei/iot_link/os/liteos/base/include\heap.h ****     stat->busy_chunks++;
 988              		.loc 5 118 5 view .LVU325
 119:D:/fchai/work/i-cube/I-CUBE-HUAWEI/Middlewares/Third_Party/Huawei/iot_link/os/liteos/base/include\heap.h ****     stat->busy_size += chunk->size;
 120:D:/fchai/work/i-cube/I-CUBE-HUAWEI/Middlewares/Third_Party/Huawei/iot_link/os/liteos/base/include\heap.h ****     stat->cum_allocated++;
 989              		.loc 5 120 24 is_stmt 0 view .LVU326
 990 0120 D4E97436 		ldrd	r3, r6, [r4, #464]
 119:D:/fchai/work/i-cube/I-CUBE-HUAWEI/Middlewares/Third_Party/Huawei/iot_link/os/liteos/base/include\heap.h ****     stat->busy_size += chunk->size;
 991              		.loc 5 119 21 view .LVU327
 992 0124 D4E97021 		ldrd	r2, r1, [r4, #448]
 993              		.loc 5 120 24 view .LVU328
 994 0128 0133     		adds	r3, r3, #1
 995 012a 46F1000C 		adc	ip, r6, #0
ARM GAS  T:\msys\tmp\ccHTo37l.s 			page 41


 996 012e C4F8D031 		str	r3, [r4, #464]
 118:D:/fchai/work/i-cube/I-CUBE-HUAWEI/Middlewares/Third_Party/Huawei/iot_link/os/liteos/base/include\heap.h ****     stat->busy_size += chunk->size;
 997              		.loc 5 118 22 view .LVU329
 998 0132 561C     		adds	r6, r2, #1
 121:D:/fchai/work/i-cube/I-CUBE-HUAWEI/Middlewares/Third_Party/Huawei/iot_link/os/liteos/base/include\heap.h ****     stat->cum_size_allocated += chunk->size;
 999              		.loc 5 121 30 view .LVU330
 1000 0134 D4E97623 		ldrd	r2, [r4, #472]
 1001 0138 D219     		adds	r2, r2, r7
 1002 013a 43F10003 		adc	r3, r3, #0
 119:D:/fchai/work/i-cube/I-CUBE-HUAWEI/Middlewares/Third_Party/Huawei/iot_link/os/liteos/base/include\heap.h ****     stat->busy_size += chunk->size;
 1003              		.loc 5 119 21 view .LVU331
 1004 013e 3944     		add	r1, r1, r7
 1005              		.loc 5 121 30 view .LVU332
 1006 0140 C4E97623 		strd	r2, [r4, #472]
 122:D:/fchai/work/i-cube/I-CUBE-HUAWEI/Middlewares/Third_Party/Huawei/iot_link/os/liteos/base/include\heap.h **** 
 123:D:/fchai/work/i-cube/I-CUBE-HUAWEI/Middlewares/Third_Party/Huawei/iot_link/os/liteos/base/include\heap.h ****     if (stat->busy_size > stat->max_busy_size)
 1007              		.loc 5 123 8 view .LVU333
 1008 0144 D4F8C831 		ldr	r3, [r4, #456]
 120:D:/fchai/work/i-cube/I-CUBE-HUAWEI/Middlewares/Third_Party/Huawei/iot_link/os/liteos/base/include\heap.h ****     stat->cum_size_allocated += chunk->size;
 1009              		.loc 5 120 24 view .LVU334
 1010 0148 C4F8D4C1 		str	ip, [r4, #468]
 119:D:/fchai/work/i-cube/I-CUBE-HUAWEI/Middlewares/Third_Party/Huawei/iot_link/os/liteos/base/include\heap.h ****     stat->cum_allocated++;
 1011              		.loc 5 119 21 view .LVU335
 1012 014c C4E97061 		strd	r6, r1, [r4, #448]
 120:D:/fchai/work/i-cube/I-CUBE-HUAWEI/Middlewares/Third_Party/Huawei/iot_link/os/liteos/base/include\heap.h ****     stat->cum_size_allocated += chunk->size;
 1013              		.loc 5 120 5 is_stmt 1 view .LVU336
 121:D:/fchai/work/i-cube/I-CUBE-HUAWEI/Middlewares/Third_Party/Huawei/iot_link/os/liteos/base/include\heap.h **** 
 1014              		.loc 5 121 5 view .LVU337
 1015              		.loc 5 123 5 view .LVU338
 1016              		.loc 5 123 8 is_stmt 0 view .LVU339
 1017 0150 9942     		cmp	r1, r3
 124:D:/fchai/work/i-cube/I-CUBE-HUAWEI/Middlewares/Third_Party/Huawei/iot_link/os/liteos/base/include\heap.h ****     {
 125:D:/fchai/work/i-cube/I-CUBE-HUAWEI/Middlewares/Third_Party/Huawei/iot_link/os/liteos/base/include\heap.h ****         stat->max_busy_size = stat->busy_size;
 1018              		.loc 5 125 9 is_stmt 1 view .LVU340
 1019              		.loc 5 125 29 is_stmt 0 view .LVU341
 1020 0152 88BF     		it	hi
 1021 0154 C4F8C811 		strhi	r1, [r4, #456]
 1022              	.LVL83:
 1023              		.loc 5 125 29 view .LVU342
 1024              	.LBE315:
 1025              	.LBE314:
 338:D:/fchai/work/i-cube/I-CUBE-HUAWEI/Middlewares/Third_Party/Huawei/iot_link/os/liteos/base/mem/heap\los_heap.c **** 
 1026              		.loc 1 338 5 is_stmt 1 view .LVU343
 1027              	.LBB316:
 1028              	.LBI316:
  83:D:/fchai/work/i-cube/I-CUBE-HUAWEI/Middlewares/Third_Party/Huawei/iot_link/os/liteos/base/include\chunk.h **** {
 1029              		.loc 3 83 20 view .LVU344
 1030              	.LBB317:
  85:D:/fchai/work/i-cube/I-CUBE-HUAWEI/Middlewares/Third_Party/Huawei/iot_link/os/liteos/base/include\chunk.h **** }
 1031              		.loc 3 85 5 view .LVU345
  85:D:/fchai/work/i-cube/I-CUBE-HUAWEI/Middlewares/Third_Party/Huawei/iot_link/os/liteos/base/include\chunk.h **** }
 1032              		.loc 3 85 17 is_stmt 0 view .LVU346
 1033 0158 4368     		ldr	r3, [r0, #4]
 1034 015a 43F00103 		orr	r3, r3, #1
 1035 015e 4360     		str	r3, [r0, #4]
 1036              	.LBE317:
 1037              	.LBE316:
ARM GAS  T:\msys\tmp\ccHTo37l.s 			page 42


 340:D:/fchai/work/i-cube/I-CUBE-HUAWEI/Middlewares/Third_Party/Huawei/iot_link/os/liteos/base/mem/heap\los_heap.c **** }
 1038              		.loc 1 340 5 is_stmt 1 view .LVU347
 1039              	.LVL84:
 1040              	.L30:
 340:D:/fchai/work/i-cube/I-CUBE-HUAWEI/Middlewares/Third_Party/Huawei/iot_link/os/liteos/base/mem/heap\los_heap.c **** }
 1041              		.loc 1 340 5 is_stmt 0 view .LVU348
 1042              	.LBE420:
 1043              	.LBE428:
 392:D:/fchai/work/i-cube/I-CUBE-HUAWEI/Middlewares/Third_Party/Huawei/iot_link/os/liteos/base/mem/heap\los_heap.c ****     }
 393:D:/fchai/work/i-cube/I-CUBE-HUAWEI/Middlewares/Third_Party/Huawei/iot_link/os/liteos/base/mem/heap\los_heap.c **** 
 394:D:/fchai/work/i-cube/I-CUBE-HUAWEI/Middlewares/Third_Party/Huawei/iot_link/os/liteos/base/mem/heap\los_heap.c ****     (void) LOS_MuxPost (heap->mux);
 1044              		.loc 1 394 5 is_stmt 1 view .LVU349
 1045              		.loc 1 394 12 is_stmt 0 view .LVU350
 1046 0160 D4F8B401 		ldr	r0, [r4, #436]
 1047 0164 FFF7FEFF 		bl	LOS_MuxPost
 1048              	.LVL85:
 395:D:/fchai/work/i-cube/I-CUBE-HUAWEI/Middlewares/Third_Party/Huawei/iot_link/os/liteos/base/mem/heap\los_heap.c **** 
 396:D:/fchai/work/i-cube/I-CUBE-HUAWEI/Middlewares/Third_Party/Huawei/iot_link/os/liteos/base/mem/heap\los_heap.c ****     return mem;
 1049              		.loc 1 396 5 is_stmt 1 view .LVU351
 397:D:/fchai/work/i-cube/I-CUBE-HUAWEI/Middlewares/Third_Party/Huawei/iot_link/os/liteos/base/mem/heap\los_heap.c **** }
 1050              		.loc 1 397 1 is_stmt 0 view .LVU352
 1051 0168 2846     		mov	r0, r5
 1052 016a BDE8F087 		pop	{r4, r5, r6, r7, r8, r9, r10, pc}
 1053              	.LVL86:
 1054              	.L28:
 371:D:/fchai/work/i-cube/I-CUBE-HUAWEI/Middlewares/Third_Party/Huawei/iot_link/os/liteos/base/mem/heap\los_heap.c **** 
 1055              		.loc 1 371 5 is_stmt 1 discriminator 4 view .LVU353
 1056 016e 082A     		cmp	r2, #8
 1057 0170 38BF     		it	cc
 1058 0172 0822     		movcc	r2, #8
 1059              	.LVL87:
 371:D:/fchai/work/i-cube/I-CUBE-HUAWEI/Middlewares/Third_Party/Huawei/iot_link/os/liteos/base/mem/heap\los_heap.c **** 
 1060              		.loc 1 371 11 is_stmt 0 discriminator 4 view .LVU354
 1061 0174 0429     		cmp	r1, #4
 1062 0176 38BF     		it	cc
 1063 0178 0421     		movcc	r1, #4
 1064              	.LVL88:
 371:D:/fchai/work/i-cube/I-CUBE-HUAWEI/Middlewares/Third_Party/Huawei/iot_link/os/liteos/base/mem/heap\los_heap.c **** 
 1065              		.loc 1 371 11 discriminator 4 view .LVU355
 1066 017a 0332     		adds	r2, r2, #3
 1067 017c 0F46     		mov	r7, r1
 1068              	.LVL89:
 373:D:/fchai/work/i-cube/I-CUBE-HUAWEI/Middlewares/Third_Party/Huawei/iot_link/os/liteos/base/mem/heap\los_heap.c ****     {
 1069              		.loc 1 373 5 is_stmt 1 discriminator 4 view .LVU356
 378:D:/fchai/work/i-cube/I-CUBE-HUAWEI/Middlewares/Third_Party/Huawei/iot_link/os/liteos/base/mem/heap\los_heap.c **** 
 1070              		.loc 1 378 5 discriminator 4 view .LVU357
 380:D:/fchai/work/i-cube/I-CUBE-HUAWEI/Middlewares/Third_Party/Huawei/iot_link/os/liteos/base/mem/heap\los_heap.c ****     {
 1071              		.loc 1 380 5 discriminator 4 view .LVU358
 380:D:/fchai/work/i-cube/I-CUBE-HUAWEI/Middlewares/Third_Party/Huawei/iot_link/os/liteos/base/mem/heap\los_heap.c ****     {
 1072              		.loc 1 380 9 is_stmt 0 discriminator 4 view .LVU359
 1073 017e D4F8B401 		ldr	r0, [r4, #436]
 1074              	.LVL90:
 380:D:/fchai/work/i-cube/I-CUBE-HUAWEI/Middlewares/Third_Party/Huawei/iot_link/os/liteos/base/mem/heap\los_heap.c ****     {
 1075              		.loc 1 380 9 discriminator 4 view .LVU360
 1076 0182 4FF0FF31 		mov	r1, #-1
 1077              	.LVL91:
 380:D:/fchai/work/i-cube/I-CUBE-HUAWEI/Middlewares/Third_Party/Huawei/iot_link/os/liteos/base/mem/heap\los_heap.c ****     {
ARM GAS  T:\msys\tmp\ccHTo37l.s 			page 43


 1078              		.loc 1 380 9 discriminator 4 view .LVU361
 1079 0186 22F00306 		bic	r6, r2, #3
 1080 018a FFF7FEFF 		bl	LOS_MuxPend
 1081              	.LVL92:
 380:D:/fchai/work/i-cube/I-CUBE-HUAWEI/Middlewares/Third_Party/Huawei/iot_link/os/liteos/base/mem/heap\los_heap.c ****     {
 1082              		.loc 1 380 8 discriminator 4 view .LVU362
 1083 018e 0028     		cmp	r0, #0
 1084 0190 3FF451AF 		beq	.L53
 1085              	.LVL93:
 1086              	.L27:
 359:D:/fchai/work/i-cube/I-CUBE-HUAWEI/Middlewares/Third_Party/Huawei/iot_link/os/liteos/base/mem/heap\los_heap.c ****     }
 1087              		.loc 1 359 16 view .LVU363
 1088 0194 0025     		movs	r5, #0
 1089              		.loc 1 397 1 view .LVU364
 1090 0196 2846     		mov	r0, r5
 1091 0198 BDE8F087 		pop	{r4, r5, r6, r7, r8, r9, r10, pc}
 1092              	.LVL94:
 1093              	.L32:
 1094              	.LBB429:
 1095              	.LBB304:
 1096              	.LBB297:
 1097              	.LBB291:
 1098              	.LBB282:
 223:D:/fchai/work/i-cube/I-CUBE-HUAWEI/Middlewares/Third_Party/Huawei/iot_link/os/liteos/base/include\cm-tlsf.h **** 
 1099              		.loc 2 223 5 is_stmt 1 view .LVU365
 223:D:/fchai/work/i-cube/I-CUBE-HUAWEI/Middlewares/Third_Party/Huawei/iot_link/os/liteos/base/include\cm-tlsf.h **** 
 1100              		.loc 2 223 33 is_stmt 0 view .LVU366
 1101 019c 03EB8205 		add	r5, r3, r2, lsl #2
 1102 01a0 0835     		adds	r5, r5, #8
 1103 01a2 4FF00008 		mov	r8, #0
 1104 01a6 44F82580 		str	r8, [r4, r5, lsl #2]
 225:D:/fchai/work/i-cube/I-CUBE-HUAWEI/Middlewares/Third_Party/Huawei/iot_link/os/liteos/base/include\cm-tlsf.h **** 
 1105              		.loc 2 225 5 is_stmt 1 view .LVU367
 225:D:/fchai/work/i-cube/I-CUBE-HUAWEI/Middlewares/Third_Party/Huawei/iot_link/os/liteos/base/include\cm-tlsf.h **** 
 1106              		.loc 2 225 26 is_stmt 0 view .LVU368
 1107 01aa 2244     		add	r2, r2, r4
 1108              	.LVL95:
 225:D:/fchai/work/i-cube/I-CUBE-HUAWEI/Middlewares/Third_Party/Huawei/iot_link/os/liteos/base/include\cm-tlsf.h **** 
 1109              		.loc 2 225 33 view .LVU369
 1110 01ac 4FF00108 		mov	r8, #1
 225:D:/fchai/work/i-cube/I-CUBE-HUAWEI/Middlewares/Third_Party/Huawei/iot_link/os/liteos/base/include\cm-tlsf.h **** 
 1111              		.loc 2 225 26 view .LVU370
 1112 01b0 1579     		ldrb	r5, [r2, #4]	@ zero_extendqisi2
 225:D:/fchai/work/i-cube/I-CUBE-HUAWEI/Middlewares/Third_Party/Huawei/iot_link/os/liteos/base/include\cm-tlsf.h **** 
 1113              		.loc 2 225 33 view .LVU371
 1114 01b2 08FA03F3 		lsl	r3, r8, r3
 1115              	.LVL96:
 225:D:/fchai/work/i-cube/I-CUBE-HUAWEI/Middlewares/Third_Party/Huawei/iot_link/os/liteos/base/include\cm-tlsf.h **** 
 1116              		.loc 2 225 26 view .LVU372
 1117 01b6 25EA0303 		bic	r3, r5, r3
 1118 01ba 1371     		strb	r3, [r2, #4]
 227:D:/fchai/work/i-cube/I-CUBE-HUAWEI/Middlewares/Third_Party/Huawei/iot_link/os/liteos/base/include\cm-tlsf.h ****     {
 1119              		.loc 2 227 5 is_stmt 1 view .LVU373
 227:D:/fchai/work/i-cube/I-CUBE-HUAWEI/Middlewares/Third_Party/Huawei/iot_link/os/liteos/base/include\cm-tlsf.h ****     {
 1120              		.loc 2 227 8 is_stmt 0 view .LVU374
 1121 01bc 002B     		cmp	r3, #0
 1122 01be 96D1     		bne	.L35
ARM GAS  T:\msys\tmp\ccHTo37l.s 			page 44


 229:D:/fchai/work/i-cube/I-CUBE-HUAWEI/Middlewares/Third_Party/Huawei/iot_link/os/liteos/base/include\cm-tlsf.h ****     }
 1123              		.loc 2 229 9 is_stmt 1 view .LVU375
 229:D:/fchai/work/i-cube/I-CUBE-HUAWEI/Middlewares/Third_Party/Huawei/iot_link/os/liteos/base/include\cm-tlsf.h ****     }
 1124              		.loc 2 229 21 is_stmt 0 view .LVU376
 1125 01c0 2368     		ldr	r3, [r4]
 229:D:/fchai/work/i-cube/I-CUBE-HUAWEI/Middlewares/Third_Party/Huawei/iot_link/os/liteos/base/include\cm-tlsf.h ****     }
 1126              		.loc 2 229 28 view .LVU377
 1127 01c2 4FF00042 		mov	r2, #-2147483648
 1128 01c6 22FA0EFE 		lsr	lr, r2, lr
 1129              	.LVL97:
 229:D:/fchai/work/i-cube/I-CUBE-HUAWEI/Middlewares/Third_Party/Huawei/iot_link/os/liteos/base/include\cm-tlsf.h ****     }
 1130              		.loc 2 229 21 view .LVU378
 1131 01ca 23EA0E03 		bic	r3, r3, lr
 1132 01ce 2360     		str	r3, [r4]
 1133 01d0 8DE7     		b	.L35
 1134              	.LVL98:
 1135              	.L48:
 229:D:/fchai/work/i-cube/I-CUBE-HUAWEI/Middlewares/Third_Party/Huawei/iot_link/os/liteos/base/include\cm-tlsf.h ****     }
 1136              		.loc 2 229 21 view .LVU379
 1137              	.LBE282:
 1138              	.LBE291:
 1139              	.LBE297:
 1140              	.LBE304:
 1141              	.LBE429:
 355:D:/fchai/work/i-cube/I-CUBE-HUAWEI/Middlewares/Third_Party/Huawei/iot_link/os/liteos/base/mem/heap\los_heap.c **** 
 1142              		.loc 1 355 15 view .LVU380
 1143 01d2 0546     		mov	r5, r0
 1144 01d4 C4E7     		b	.L30
 1145              	.LVL99:
 1146              	.L52:
 1147              	.LBB430:
 1148              	.LBB421:
 321:D:/fchai/work/i-cube/I-CUBE-HUAWEI/Middlewares/Third_Party/Huawei/iot_link/os/liteos/base/mem/heap\los_heap.c **** 
 1149              		.loc 1 321 9 is_stmt 1 view .LVU381
 1150              	.LBB318:
 1151              	.LBB319:
 1152              	.LBB320:
 1153              	.LBB321:
 1154              	.LBB322:
 1155              	.LBB323:
 160:D:/fchai/work/i-cube/I-CUBE-HUAWEI/Middlewares/Third_Party/Huawei/iot_link/os/liteos/base/include\cm-tlsf.h **** }
 1156              		.loc 2 160 17 is_stmt 0 view .LVU382
 1157 01d6 B2FA82F7 		clz	r7, r2
 160:D:/fchai/work/i-cube/I-CUBE-HUAWEI/Middlewares/Third_Party/Huawei/iot_link/os/liteos/base/include\cm-tlsf.h **** }
 1158              		.loc 2 160 17 view .LVU383
 1159              	.LBE323:
 1160              	.LBE322:
 1161              	.LBE321:
 1162              	.LBE320:
 1163              	.LBE319:
 1164              	.LBE318:
 321:D:/fchai/work/i-cube/I-CUBE-HUAWEI/Middlewares/Third_Party/Huawei/iot_link/os/liteos/base/mem/heap\los_heap.c **** 
 1165              		.loc 1 321 20 view .LVU384
 1166 01da 3344     		add	r3, r3, r6
 1167 01dc 4360     		str	r3, [r0, #4]
 323:D:/fchai/work/i-cube/I-CUBE-HUAWEI/Middlewares/Third_Party/Huawei/iot_link/os/liteos/base/mem/heap\los_heap.c ****         chunk->prev = (chunk_t *) ach;
 1168              		.loc 1 323 9 is_stmt 1 view .LVU385
ARM GAS  T:\msys\tmp\ccHTo37l.s 			page 45


 1169              	.LVL100:
 324:D:/fchai/work/i-cube/I-CUBE-HUAWEI/Middlewares/Third_Party/Huawei/iot_link/os/liteos/base/mem/heap\los_heap.c ****         chunk->size = (usable_size - size);
 1170              		.loc 1 324 9 view .LVU386
 323:D:/fchai/work/i-cube/I-CUBE-HUAWEI/Middlewares/Third_Party/Huawei/iot_link/os/liteos/base/mem/heap\los_heap.c ****         chunk->prev = (chunk_t *) ach;
 1171              		.loc 1 323 21 is_stmt 0 view .LVU387
 1172 01de A919     		adds	r1, r5, r6
 1173              	.LVL101:
 1174              	.LBB358:
 1175              	.LBB359:
 107:D:/fchai/work/i-cube/I-CUBE-HUAWEI/Middlewares/Third_Party/Huawei/iot_link/os/liteos/base/include\chunk.h **** }
 1176              		.loc 3 107 57 view .LVU388
 1177 01e0 22F0010E 		bic	lr, r2, #1
 1178              	.LBE359:
 1179              	.LBE358:
 1180              	.LBB361:
 1181              	.LBB354:
 1182              	.LBB348:
 1183              	.LBB344:
 1184              	.LBB326:
 1185              	.LBB327:
 165:D:/fchai/work/i-cube/I-CUBE-HUAWEI/Middlewares/Third_Party/Huawei/iot_link/os/liteos/base/include\cm-tlsf.h **** }
 1186              		.loc 2 165 29 view .LVU389
 1187 01e4 C7F11D03 		rsb	r3, r7, #29
 1188              	.LBE327:
 1189              	.LBE326:
 1190              	.LBB331:
 1191              	.LBB324:
 160:D:/fchai/work/i-cube/I-CUBE-HUAWEI/Middlewares/Third_Party/Huawei/iot_link/os/liteos/base/include\cm-tlsf.h **** }
 1192              		.loc 2 160 15 view .LVU390
 1193 01e8 C7F11F0C 		rsb	ip, r7, #31
 1194              	.LVL102:
 160:D:/fchai/work/i-cube/I-CUBE-HUAWEI/Middlewares/Third_Party/Huawei/iot_link/os/liteos/base/include\cm-tlsf.h **** }
 1195              		.loc 2 160 15 view .LVU391
 1196              	.LBE324:
 1197              	.LBE331:
 1198              	.LBB332:
 1199              	.LBB328:
 165:D:/fchai/work/i-cube/I-CUBE-HUAWEI/Middlewares/Third_Party/Huawei/iot_link/os/liteos/base/include\cm-tlsf.h **** }
 1200              		.loc 2 165 18 view .LVU392
 1201 01ec 22FA03F3 		lsr	r3, r2, r3
 1202              	.LBE328:
 1203              	.LBE332:
 173:D:/fchai/work/i-cube/I-CUBE-HUAWEI/Middlewares/Third_Party/Huawei/iot_link/os/liteos/base/include\cm-tlsf.h ****     {
 1204              		.loc 2 173 8 view .LVU393
 1205 01f0 BCF11C0F 		cmp	ip, #28
 1206              	.LBE344:
 1207              	.LBE348:
 1208              	.LBE354:
 1209              	.LBE361:
 324:D:/fchai/work/i-cube/I-CUBE-HUAWEI/Middlewares/Third_Party/Huawei/iot_link/os/liteos/base/mem/heap\los_heap.c ****         chunk->size = (usable_size - size);
 1210              		.loc 1 324 21 view .LVU394
 1211 01f4 A851     		str	r0, [r5, r6]
 325:D:/fchai/work/i-cube/I-CUBE-HUAWEI/Middlewares/Third_Party/Huawei/iot_link/os/liteos/base/mem/heap\los_heap.c **** 
 1212              		.loc 1 325 9 is_stmt 1 view .LVU395
 1213              	.LBB362:
 1214              	.LBB355:
 1215              	.LBB349:
ARM GAS  T:\msys\tmp\ccHTo37l.s 			page 46


 1216              	.LBB345:
 1217              	.LBB333:
 1218              	.LBB329:
 165:D:/fchai/work/i-cube/I-CUBE-HUAWEI/Middlewares/Third_Party/Huawei/iot_link/os/liteos/base/include\cm-tlsf.h **** }
 1219              		.loc 2 165 41 is_stmt 0 view .LVU396
 1220 01f6 A3F10403 		sub	r3, r3, #4
 1221              	.LBE329:
 1222              	.LBE333:
 1223              	.LBE345:
 1224              	.LBE349:
 1225              	.LBE355:
 1226              	.LBE362:
 325:D:/fchai/work/i-cube/I-CUBE-HUAWEI/Middlewares/Third_Party/Huawei/iot_link/os/liteos/base/mem/heap\los_heap.c **** 
 1227              		.loc 1 325 21 view .LVU397
 1228 01fa 4A60     		str	r2, [r1, #4]
 327:D:/fchai/work/i-cube/I-CUBE-HUAWEI/Middlewares/Third_Party/Huawei/iot_link/os/liteos/base/mem/heap\los_heap.c **** 
 1229              		.loc 1 327 9 is_stmt 1 view .LVU398
 1230              	.LVL103:
 1231              	.LBB363:
 1232              	.LBI358:
 105:D:/fchai/work/i-cube/I-CUBE-HUAWEI/Middlewares/Third_Party/Huawei/iot_link/os/liteos/base/include\chunk.h **** {
 1233              		.loc 3 105 25 view .LVU399
 1234              	.LBB360:
 107:D:/fchai/work/i-cube/I-CUBE-HUAWEI/Middlewares/Third_Party/Huawei/iot_link/os/liteos/base/include\chunk.h **** }
 1235              		.loc 3 107 5 view .LVU400
 107:D:/fchai/work/i-cube/I-CUBE-HUAWEI/Middlewares/Third_Party/Huawei/iot_link/os/liteos/base/include\chunk.h **** }
 1236              		.loc 3 107 5 is_stmt 0 view .LVU401
 1237              	.LBE360:
 1238              	.LBE363:
 329:D:/fchai/work/i-cube/I-CUBE-HUAWEI/Middlewares/Third_Party/Huawei/iot_link/os/liteos/base/mem/heap\los_heap.c **** 
 1239              		.loc 1 329 9 is_stmt 1 view .LVU402
 329:D:/fchai/work/i-cube/I-CUBE-HUAWEI/Middlewares/Third_Party/Huawei/iot_link/os/liteos/base/mem/heap\los_heap.c **** 
 1240              		.loc 1 329 21 is_stmt 0 view .LVU403
 1241 01fc 41F80E10 		str	r1, [r1, lr]
 331:D:/fchai/work/i-cube/I-CUBE-HUAWEI/Middlewares/Third_Party/Huawei/iot_link/os/liteos/base/mem/heap\los_heap.c ****     }
 1242              		.loc 1 331 9 is_stmt 1 view .LVU404
 1243              	.LVL104:
 1244              	.LBB364:
 1245              	.LBI318:
  45:D:/fchai/work/i-cube/I-CUBE-HUAWEI/Middlewares/Third_Party/Huawei/iot_link/os/liteos/base/mem/heap\los_heap.c **** {
 1246              		.loc 1 45 19 view .LVU405
 1247              	.LBB356:
  47:D:/fchai/work/i-cube/I-CUBE-HUAWEI/Middlewares/Third_Party/Huawei/iot_link/os/liteos/base/mem/heap\los_heap.c ****     {
 1248              		.loc 1 47 5 view .LVU406
 1249              	.LBB350:
 1250              	.LBI320:
 168:D:/fchai/work/i-cube/I-CUBE-HUAWEI/Middlewares/Third_Party/Huawei/iot_link/os/liteos/base/include\cm-tlsf.h **** {
 1251              		.loc 2 168 19 view .LVU407
 1252              	.LBB346:
