ARM GAS  T:\msys\tmp\cc6LrgUd.s 			page 1


   1              		.cpu cortex-m4
   2              		.eabi_attribute 27, 1
   3              		.eabi_attribute 28, 1
   4              		.eabi_attribute 20, 1
   5              		.eabi_attribute 21, 1
   6              		.eabi_attribute 23, 3
   7              		.eabi_attribute 24, 1
   8              		.eabi_attribute 25, 1
   9              		.eabi_attribute 26, 1
  10              		.eabi_attribute 30, 2
  11              		.eabi_attribute 34, 1
  12              		.eabi_attribute 18, 4
  13              		.file	"ota_img.c"
  14              		.text
  15              	.Ltext0:
  16              		.cfi_sections	.debug_frame
  17              		.section	.text.ota_img_bind,"ax",%progbits
  18              		.align	1
  19              		.p2align 2,,3
  20              		.global	ota_img_bind
  21              		.arch armv7e-m
  22              		.syntax unified
  23              		.thumb
  24              		.thumb_func
  25              		.fpu fpv4-sp-d16
  27              	ota_img_bind:
  28              	.LVL0:
  29              	.LFB3:
  30              		.file 1 "D:/fchai/work/i-cube/I-CUBE-HUAWEI/Middlewares/Third_Party/Huawei/iot_link/link_ota/ota_i
   1:D:/fchai/work/i-cube/I-CUBE-HUAWEI/Middlewares/Third_Party/Huawei/iot_link/link_ota\ota_img.c **** /*----------------------------------------------------------------------------
   2:D:/fchai/work/i-cube/I-CUBE-HUAWEI/Middlewares/Third_Party/Huawei/iot_link/link_ota\ota_img.c ****  * Copyright (c) <2018>, <Huawei Technologies Co., Ltd>
   3:D:/fchai/work/i-cube/I-CUBE-HUAWEI/Middlewares/Third_Party/Huawei/iot_link/link_ota\ota_img.c ****  * All rights reserved.
   4:D:/fchai/work/i-cube/I-CUBE-HUAWEI/Middlewares/Third_Party/Huawei/iot_link/link_ota\ota_img.c ****  * Redistribution and use in source and binary forms, with or without modification,
   5:D:/fchai/work/i-cube/I-CUBE-HUAWEI/Middlewares/Third_Party/Huawei/iot_link/link_ota\ota_img.c ****  * are permitted provided that the following conditions are met:
   6:D:/fchai/work/i-cube/I-CUBE-HUAWEI/Middlewares/Third_Party/Huawei/iot_link/link_ota\ota_img.c ****  * 1. Redistributions of source code must retain the above copyright notice, this list of
   7:D:/fchai/work/i-cube/I-CUBE-HUAWEI/Middlewares/Third_Party/Huawei/iot_link/link_ota\ota_img.c ****  * conditions and the following disclaimer.
   8:D:/fchai/work/i-cube/I-CUBE-HUAWEI/Middlewares/Third_Party/Huawei/iot_link/link_ota\ota_img.c ****  * 2. Redistributions in binary form must reproduce the above copyright notice, this list
   9:D:/fchai/work/i-cube/I-CUBE-HUAWEI/Middlewares/Third_Party/Huawei/iot_link/link_ota\ota_img.c ****  * of conditions and the following disclaimer in the documentation and/or other materials
  10:D:/fchai/work/i-cube/I-CUBE-HUAWEI/Middlewares/Third_Party/Huawei/iot_link/link_ota\ota_img.c ****  * provided with the distribution.
  11:D:/fchai/work/i-cube/I-CUBE-HUAWEI/Middlewares/Third_Party/Huawei/iot_link/link_ota\ota_img.c ****  * 3. Neither the name of the copyright holder nor the names of its contributors may be used
  12:D:/fchai/work/i-cube/I-CUBE-HUAWEI/Middlewares/Third_Party/Huawei/iot_link/link_ota\ota_img.c ****  * to endorse or promote products derived from this software without specific prior written
  13:D:/fchai/work/i-cube/I-CUBE-HUAWEI/Middlewares/Third_Party/Huawei/iot_link/link_ota\ota_img.c ****  * permission.
  14:D:/fchai/work/i-cube/I-CUBE-HUAWEI/Middlewares/Third_Party/Huawei/iot_link/link_ota\ota_img.c ****  * THIS SOFTWARE IS PROVIDED BY THE COPYRIGHT HOLDERS AND CONTRIBUTORS
  15:D:/fchai/work/i-cube/I-CUBE-HUAWEI/Middlewares/Third_Party/Huawei/iot_link/link_ota\ota_img.c ****  * "AS IS" AND ANY EXPRESS OR IMPLIED WARRANTIES, INCLUDING, BUT NOT LIMITED TO,
  16:D:/fchai/work/i-cube/I-CUBE-HUAWEI/Middlewares/Third_Party/Huawei/iot_link/link_ota\ota_img.c ****  * THE IMPLIED WARRANTIES OF MERCHANTABILITY AND FITNESS FOR A PARTICULAR
  17:D:/fchai/work/i-cube/I-CUBE-HUAWEI/Middlewares/Third_Party/Huawei/iot_link/link_ota\ota_img.c ****  * PURPOSE ARE DISCLAIMED. IN NO EVENT SHALL THE COPYRIGHT HOLDER OR
  18:D:/fchai/work/i-cube/I-CUBE-HUAWEI/Middlewares/Third_Party/Huawei/iot_link/link_ota\ota_img.c ****  * CONTRIBUTORS BE LIABLE FOR ANY DIRECT, INDIRECT, INCIDENTAL, SPECIAL,
  19:D:/fchai/work/i-cube/I-CUBE-HUAWEI/Middlewares/Third_Party/Huawei/iot_link/link_ota\ota_img.c ****  * EXEMPLARY, OR CONSEQUENTIAL DAMAGES (INCLUDING, BUT NOT LIMITED TO,
  20:D:/fchai/work/i-cube/I-CUBE-HUAWEI/Middlewares/Third_Party/Huawei/iot_link/link_ota\ota_img.c ****  * PROCUREMENT OF SUBSTITUTE GOODS OR SERVICES; LOSS OF USE, DATA, OR PROFITS;
  21:D:/fchai/work/i-cube/I-CUBE-HUAWEI/Middlewares/Third_Party/Huawei/iot_link/link_ota\ota_img.c ****  * OR BUSINESS INTERRUPTION) HOWEVER CAUSED AND ON ANY THEORY OF LIABILITY,
  22:D:/fchai/work/i-cube/I-CUBE-HUAWEI/Middlewares/Third_Party/Huawei/iot_link/link_ota\ota_img.c ****  * WHETHER IN CONTRACT, STRICT LIABILITY, OR TORT (INCLUDING NEGLIGENCE OR
  23:D:/fchai/work/i-cube/I-CUBE-HUAWEI/Middlewares/Third_Party/Huawei/iot_link/link_ota\ota_img.c ****  * OTHERWISE) ARISING IN ANY WAY OUT OF THE USE OF THIS SOFTWARE, EVEN IF
  24:D:/fchai/work/i-cube/I-CUBE-HUAWEI/Middlewares/Third_Party/Huawei/iot_link/link_ota\ota_img.c ****  * ADVISED OF THE POSSIBILITY OF SUCH DAMAGE.
  25:D:/fchai/work/i-cube/I-CUBE-HUAWEI/Middlewares/Third_Party/Huawei/iot_link/link_ota\ota_img.c ****  *---------------------------------------------------------------------------*/
  26:D:/fchai/work/i-cube/I-CUBE-HUAWEI/Middlewares/Third_Party/Huawei/iot_link/link_ota\ota_img.c **** /*----------------------------------------------------------------------------
  27:D:/fchai/work/i-cube/I-CUBE-HUAWEI/Middlewares/Third_Party/Huawei/iot_link/link_ota\ota_img.c ****  * Notice of Export Control Law
  28:D:/fchai/work/i-cube/I-CUBE-HUAWEI/Middlewares/Third_Party/Huawei/iot_link/link_ota\ota_img.c ****  * ===============================================
ARM GAS  T:\msys\tmp\cc6LrgUd.s 			page 2


  29:D:/fchai/work/i-cube/I-CUBE-HUAWEI/Middlewares/Third_Party/Huawei/iot_link/link_ota\ota_img.c ****  * Huawei LiteOS may be subject to applicable export control laws and regulations, which might
  30:D:/fchai/work/i-cube/I-CUBE-HUAWEI/Middlewares/Third_Party/Huawei/iot_link/link_ota\ota_img.c ****  * include those applicable to Huawei LiteOS of U.S. and the country in which you are located.
  31:D:/fchai/work/i-cube/I-CUBE-HUAWEI/Middlewares/Third_Party/Huawei/iot_link/link_ota\ota_img.c ****  * Import, export and usage of Huawei LiteOS in any manner by you shall be in compliance with such
  32:D:/fchai/work/i-cube/I-CUBE-HUAWEI/Middlewares/Third_Party/Huawei/iot_link/link_ota\ota_img.c ****  * applicable export control laws and regulations.
  33:D:/fchai/work/i-cube/I-CUBE-HUAWEI/Middlewares/Third_Party/Huawei/iot_link/link_ota\ota_img.c ****  *---------------------------------------------------------------------------*/
  34:D:/fchai/work/i-cube/I-CUBE-HUAWEI/Middlewares/Third_Party/Huawei/iot_link/link_ota\ota_img.c **** /**
  35:D:/fchai/work/i-cube/I-CUBE-HUAWEI/Middlewares/Third_Party/Huawei/iot_link/link_ota\ota_img.c ****  *  DATE                AUTHOR      INSTRUCTION
  36:D:/fchai/work/i-cube/I-CUBE-HUAWEI/Middlewares/Third_Party/Huawei/iot_link/link_ota\ota_img.c ****  *  2020-05-08 20:33  zhangqianfu  The first version
  37:D:/fchai/work/i-cube/I-CUBE-HUAWEI/Middlewares/Third_Party/Huawei/iot_link/link_ota\ota_img.c ****  *
  38:D:/fchai/work/i-cube/I-CUBE-HUAWEI/Middlewares/Third_Party/Huawei/iot_link/link_ota\ota_img.c ****  */
  39:D:/fchai/work/i-cube/I-CUBE-HUAWEI/Middlewares/Third_Party/Huawei/iot_link/link_ota\ota_img.c **** 
  40:D:/fchai/work/i-cube/I-CUBE-HUAWEI/Middlewares/Third_Party/Huawei/iot_link/link_ota\ota_img.c **** #include <ota_img.h>
  41:D:/fchai/work/i-cube/I-CUBE-HUAWEI/Middlewares/Third_Party/Huawei/iot_link/link_ota\ota_img.c **** 
  42:D:/fchai/work/i-cube/I-CUBE-HUAWEI/Middlewares/Third_Party/Huawei/iot_link/link_ota\ota_img.c **** typedef struct
  43:D:/fchai/work/i-cube/I-CUBE-HUAWEI/Middlewares/Third_Party/Huawei/iot_link/link_ota\ota_img.c **** {
  44:D:/fchai/work/i-cube/I-CUBE-HUAWEI/Middlewares/Third_Party/Huawei/iot_link/link_ota\ota_img.c ****     const ota_img_t  *ota[EN_OTA_TYPE_LAST][EN_OTA_IMG_LAST];
  45:D:/fchai/work/i-cube/I-CUBE-HUAWEI/Middlewares/Third_Party/Huawei/iot_link/link_ota\ota_img.c **** }ota_img_cb_t;
  46:D:/fchai/work/i-cube/I-CUBE-HUAWEI/Middlewares/Third_Party/Huawei/iot_link/link_ota\ota_img.c **** static ota_img_cb_t  g_img_cb_t;
  47:D:/fchai/work/i-cube/I-CUBE-HUAWEI/Middlewares/Third_Party/Huawei/iot_link/link_ota\ota_img.c **** 
  48:D:/fchai/work/i-cube/I-CUBE-HUAWEI/Middlewares/Third_Party/Huawei/iot_link/link_ota\ota_img.c **** 
  49:D:/fchai/work/i-cube/I-CUBE-HUAWEI/Middlewares/Third_Party/Huawei/iot_link/link_ota\ota_img.c **** int ota_img_bind(en_ota_type_t otatype, const ota_img_t *img)
  50:D:/fchai/work/i-cube/I-CUBE-HUAWEI/Middlewares/Third_Party/Huawei/iot_link/link_ota\ota_img.c **** {
  31              		.loc 1 50 1 view -0
  32              		.cfi_startproc
  33              		@ args = 0, pretend = 0, frame = 0
  34              		@ frame_needed = 0, uses_anonymous_args = 0
  35              		@ link register save eliminated.
  51:D:/fchai/work/i-cube/I-CUBE-HUAWEI/Middlewares/Third_Party/Huawei/iot_link/link_ota\ota_img.c ****     int ret = -1;
  36              		.loc 1 51 5 view .LVU1
  52:D:/fchai/work/i-cube/I-CUBE-HUAWEI/Middlewares/Third_Party/Huawei/iot_link/link_ota\ota_img.c ****     if ((NULL != img)&&(otatype < EN_OTA_TYPE_LAST) && (img->type  < EN_OTA_IMG_LAST) )
  37              		.loc 1 52 5 view .LVU2
  38              		.loc 1 52 8 is_stmt 0 view .LVU3
  39 0000 61B1     		cbz	r1, .L5
  40              		.loc 1 52 22 discriminator 1 view .LVU4
  41 0002 0128     		cmp	r0, #1
  42 0004 0AD8     		bhi	.L5
  43              		.loc 1 52 60 discriminator 2 view .LVU5
  44 0006 0B7A     		ldrb	r3, [r1, #8]	@ zero_extendqisi2
  45              		.loc 1 52 53 discriminator 2 view .LVU6
  46 0008 042B     		cmp	r3, #4
  47 000a 07D8     		bhi	.L5
  53:D:/fchai/work/i-cube/I-CUBE-HUAWEI/Middlewares/Third_Party/Huawei/iot_link/link_ota\ota_img.c ****     {
  54:D:/fchai/work/i-cube/I-CUBE-HUAWEI/Middlewares/Third_Party/Huawei/iot_link/link_ota\ota_img.c ****         g_img_cb_t.ota[otatype][img->type] = img;
  48              		.loc 1 54 9 is_stmt 1 view .LVU7
  49              		.loc 1 54 44 is_stmt 0 view .LVU8
  50 000c 00EB8000 		add	r0, r0, r0, lsl #2
  51              	.LVL1:
  52              		.loc 1 54 44 view .LVU9
  53 0010 0344     		add	r3, r3, r0
  54 0012 044A     		ldr	r2, .L7
  55:D:/fchai/work/i-cube/I-CUBE-HUAWEI/Middlewares/Third_Party/Huawei/iot_link/link_ota\ota_img.c ****         ret = 0;
  55              		.loc 1 55 13 view .LVU10
  56 0014 0020     		movs	r0, #0
  54:D:/fchai/work/i-cube/I-CUBE-HUAWEI/Middlewares/Third_Party/Huawei/iot_link/link_ota\ota_img.c ****         ret = 0;
  57              		.loc 1 54 44 view .LVU11
  58 0016 42F82310 		str	r1, [r2, r3, lsl #2]
  59              		.loc 1 55 9 is_stmt 1 view .LVU12
ARM GAS  T:\msys\tmp\cc6LrgUd.s 			page 3


  60              	.LVL2:
  61              		.loc 1 55 9 is_stmt 0 view .LVU13
  62 001a 7047     		bx	lr
  63              	.LVL3:
  64              	.L5:
  51:D:/fchai/work/i-cube/I-CUBE-HUAWEI/Middlewares/Third_Party/Huawei/iot_link/link_ota\ota_img.c ****     if ((NULL != img)&&(otatype < EN_OTA_TYPE_LAST) && (img->type  < EN_OTA_IMG_LAST) )
  65              		.loc 1 51 9 view .LVU14
  66 001c 4FF0FF30 		mov	r0, #-1
  67              	.LVL4:
  56:D:/fchai/work/i-cube/I-CUBE-HUAWEI/Middlewares/Third_Party/Huawei/iot_link/link_ota\ota_img.c ****     }
  57:D:/fchai/work/i-cube/I-CUBE-HUAWEI/Middlewares/Third_Party/Huawei/iot_link/link_ota\ota_img.c ****     return ret;
  68              		.loc 1 57 5 is_stmt 1 view .LVU15
  58:D:/fchai/work/i-cube/I-CUBE-HUAWEI/Middlewares/Third_Party/Huawei/iot_link/link_ota\ota_img.c **** }
  69              		.loc 1 58 1 is_stmt 0 view .LVU16
  70 0020 7047     		bx	lr
  71              	.L8:
  72 0022 00BF     		.align	2
  73              	.L7:
  74 0024 00000000 		.word	.LANCHOR0
  75              		.cfi_endproc
  76              	.LFE3:
  78              		.section	.text.ota_img_read,"ax",%progbits
  79              		.align	1
  80              		.p2align 2,,3
  81              		.global	ota_img_read
  82              		.syntax unified
  83              		.thumb
  84              		.thumb_func
  85              		.fpu fpv4-sp-d16
  87              	ota_img_read:
  88              	.LVL5:
  89              	.LFB4:
  59:D:/fchai/work/i-cube/I-CUBE-HUAWEI/Middlewares/Third_Party/Huawei/iot_link/link_ota\ota_img.c **** 
  60:D:/fchai/work/i-cube/I-CUBE-HUAWEI/Middlewares/Third_Party/Huawei/iot_link/link_ota\ota_img.c **** 
  61:D:/fchai/work/i-cube/I-CUBE-HUAWEI/Middlewares/Third_Party/Huawei/iot_link/link_ota\ota_img.c **** int ota_img_read(en_ota_type_t otatype, en_ota_img_type_t imgtype,int offset, void *buf, int len)
  62:D:/fchai/work/i-cube/I-CUBE-HUAWEI/Middlewares/Third_Party/Huawei/iot_link/link_ota\ota_img.c **** {
  90              		.loc 1 62 1 is_stmt 1 view -0
  91              		.cfi_startproc
  92              		@ args = 4, pretend = 0, frame = 0
  93              		@ frame_needed = 0, uses_anonymous_args = 0
  94              		@ link register save eliminated.
  63:D:/fchai/work/i-cube/I-CUBE-HUAWEI/Middlewares/Third_Party/Huawei/iot_link/link_ota\ota_img.c ****     int ret = -1;
  95              		.loc 1 63 5 view .LVU18
  64:D:/fchai/work/i-cube/I-CUBE-HUAWEI/Middlewares/Third_Party/Huawei/iot_link/link_ota\ota_img.c ****     const ota_img_t *img;
  96              		.loc 1 64 5 view .LVU19
  65:D:/fchai/work/i-cube/I-CUBE-HUAWEI/Middlewares/Third_Party/Huawei/iot_link/link_ota\ota_img.c ****     if((otatype < EN_OTA_TYPE_LAST) && (imgtype  < EN_OTA_IMG_LAST) && \
  97              		.loc 1 65 5 view .LVU20
  62:D:/fchai/work/i-cube/I-CUBE-HUAWEI/Middlewares/Third_Party/Huawei/iot_link/link_ota\ota_img.c ****     int ret = -1;
  98              		.loc 1 62 1 is_stmt 0 view .LVU21
  99 0000 30B4     		push	{r4, r5}
 100              	.LCFI0:
 101              		.cfi_def_cfa_offset 8
 102              		.cfi_offset 4, -8
 103              		.cfi_offset 5, -4
 104              		.loc 1 65 7 view .LVU22
 105 0002 0128     		cmp	r0, #1
  62:D:/fchai/work/i-cube/I-CUBE-HUAWEI/Middlewares/Third_Party/Huawei/iot_link/link_ota\ota_img.c ****     int ret = -1;
ARM GAS  T:\msys\tmp\cc6LrgUd.s 			page 4


 106              		.loc 1 62 1 view .LVU23
 107 0004 1446     		mov	r4, r2
 108 0006 1A46     		mov	r2, r3
 109              	.LVL6:
  62:D:/fchai/work/i-cube/I-CUBE-HUAWEI/Middlewares/Third_Party/Huawei/iot_link/link_ota\ota_img.c ****     int ret = -1;
 110              		.loc 1 62 1 view .LVU24
 111 0008 029B     		ldr	r3, [sp, #8]
 112              	.LVL7:
 113              		.loc 1 65 7 view .LVU25
 114 000a 18D8     		bhi	.L9
 115              		.loc 1 65 37 discriminator 1 view .LVU26
 116 000c 0429     		cmp	r1, #4
 117 000e 16D8     		bhi	.L9
  66:D:/fchai/work/i-cube/I-CUBE-HUAWEI/Middlewares/Third_Party/Huawei/iot_link/link_ota\ota_img.c ****        (NULL != g_img_cb_t.ota[otatype][imgtype])  && (NULL != buf) && (offset >= 0) && (len > 0))
 118              		.loc 1 66 40 discriminator 2 view .LVU27
 119 0010 00EB8000 		add	r0, r0, r0, lsl #2
 120              	.LVL8:
 121              		.loc 1 66 40 discriminator 2 view .LVU28
 122 0014 0844     		add	r0, r0, r1
 123 0016 0C49     		ldr	r1, .L23
 124              	.LVL9:
 125              		.loc 1 66 40 discriminator 2 view .LVU29
 126 0018 51F82000 		ldr	r0, [r1, r0, lsl #2]
  65:D:/fchai/work/i-cube/I-CUBE-HUAWEI/Middlewares/Third_Party/Huawei/iot_link/link_ota\ota_img.c ****     if((otatype < EN_OTA_TYPE_LAST) && (imgtype  < EN_OTA_IMG_LAST) && \
 127              		.loc 1 65 69 discriminator 2 view .LVU30
 128 001c 78B1     		cbz	r0, .L9
 129              		.loc 1 66 52 view .LVU31
 130 001e 72B1     		cbz	r2, .L9
 131              		.loc 1 66 69 discriminator 1 view .LVU32
 132 0020 002C     		cmp	r4, #0
 133 0022 0CDB     		blt	.L9
 134              		.loc 1 66 86 discriminator 2 view .LVU33
 135 0024 002B     		cmp	r3, #0
 136 0026 0ADD     		ble	.L9
  67:D:/fchai/work/i-cube/I-CUBE-HUAWEI/Middlewares/Third_Party/Huawei/iot_link/link_ota\ota_img.c ****     {
  68:D:/fchai/work/i-cube/I-CUBE-HUAWEI/Middlewares/Third_Party/Huawei/iot_link/link_ota\ota_img.c ****         img = g_img_cb_t.ota[otatype][imgtype];
 137              		.loc 1 68 9 is_stmt 1 view .LVU34
 138              	.LVL10:
  69:D:/fchai/work/i-cube/I-CUBE-HUAWEI/Middlewares/Third_Party/Huawei/iot_link/link_ota\ota_img.c ****         if((NULL != img->opt.read) && (offset <= (img->size - len)))
 139              		.loc 1 69 9 view .LVU35
 140              		.loc 1 69 29 is_stmt 0 view .LVU36
 141 0028 4569     		ldr	r5, [r0, #20]
 142              		.loc 1 69 11 view .LVU37
 143 002a 45B1     		cbz	r5, .L9
 144              		.loc 1 69 61 discriminator 1 view .LVU38
 145 002c 4168     		ldr	r1, [r0, #4]
 146 002e C91A     		subs	r1, r1, r3
 147              		.loc 1 69 36 discriminator 1 view .LVU39
 148 0030 A142     		cmp	r1, r4
 149 0032 04DB     		blt	.L9
  70:D:/fchai/work/i-cube/I-CUBE-HUAWEI/Middlewares/Third_Party/Huawei/iot_link/link_ota\ota_img.c ****         {
  71:D:/fchai/work/i-cube/I-CUBE-HUAWEI/Middlewares/Third_Party/Huawei/iot_link/link_ota\ota_img.c ****             ret = img->opt.read(img->arg,offset, buf, len);
 150              		.loc 1 71 13 is_stmt 1 view .LVU40
 151              		.loc 1 71 19 is_stmt 0 view .LVU41
 152 0034 2146     		mov	r1, r4
 153 0036 AC46     		mov	ip, r5
 154 0038 C068     		ldr	r0, [r0, #12]
ARM GAS  T:\msys\tmp\cc6LrgUd.s 			page 5


 155              	.LVL11:
  72:D:/fchai/work/i-cube/I-CUBE-HUAWEI/Middlewares/Third_Party/Huawei/iot_link/link_ota\ota_img.c ****         }
  73:D:/fchai/work/i-cube/I-CUBE-HUAWEI/Middlewares/Third_Party/Huawei/iot_link/link_ota\ota_img.c ****     }
  74:D:/fchai/work/i-cube/I-CUBE-HUAWEI/Middlewares/Third_Party/Huawei/iot_link/link_ota\ota_img.c **** 
  75:D:/fchai/work/i-cube/I-CUBE-HUAWEI/Middlewares/Third_Party/Huawei/iot_link/link_ota\ota_img.c ****     return ret;
  76:D:/fchai/work/i-cube/I-CUBE-HUAWEI/Middlewares/Third_Party/Huawei/iot_link/link_ota\ota_img.c **** }
 156              		.loc 1 76 1 view .LVU42
 157 003a 30BC     		pop	{r4, r5}
 158              	.LCFI1:
 159              		.cfi_remember_state
 160              		.cfi_restore 5
 161              		.cfi_restore 4
 162              		.cfi_def_cfa_offset 0
 163              	.LVL12:
  71:D:/fchai/work/i-cube/I-CUBE-HUAWEI/Middlewares/Third_Party/Huawei/iot_link/link_ota\ota_img.c ****         }
 164              		.loc 1 71 19 view .LVU43
 165 003c 6047     		bx	ip
 166              	.LVL13:
 167              	.L9:
 168              	.LCFI2:
 169              		.cfi_restore_state
 170              		.loc 1 76 1 view .LVU44
 171 003e 4FF0FF30 		mov	r0, #-1
 172 0042 30BC     		pop	{r4, r5}
 173              	.LCFI3:
 174              		.cfi_restore 5
 175              		.cfi_restore 4
 176              		.cfi_def_cfa_offset 0
 177              	.LVL14:
 178              		.loc 1 76 1 view .LVU45
 179 0044 7047     		bx	lr
 180              	.L24:
 181 0046 00BF     		.align	2
 182              	.L23:
 183 0048 00000000 		.word	.LANCHOR0
 184              		.cfi_endproc
 185              	.LFE4:
 187              		.section	.text.ota_img_write,"ax",%progbits
 188              		.align	1
 189              		.p2align 2,,3
 190              		.global	ota_img_write
 191              		.syntax unified
 192              		.thumb
 193              		.thumb_func
 194              		.fpu fpv4-sp-d16
 196              	ota_img_write:
 197              	.LVL15:
 198              	.LFB5:
  77:D:/fchai/work/i-cube/I-CUBE-HUAWEI/Middlewares/Third_Party/Huawei/iot_link/link_ota\ota_img.c **** 
  78:D:/fchai/work/i-cube/I-CUBE-HUAWEI/Middlewares/Third_Party/Huawei/iot_link/link_ota\ota_img.c **** int ota_img_write(en_ota_type_t otatype, en_ota_img_type_t imgtype,int offset,const void *buf, int 
  79:D:/fchai/work/i-cube/I-CUBE-HUAWEI/Middlewares/Third_Party/Huawei/iot_link/link_ota\ota_img.c **** {
 199              		.loc 1 79 1 is_stmt 1 view -0
 200              		.cfi_startproc
 201              		@ args = 4, pretend = 0, frame = 0
 202              		@ frame_needed = 0, uses_anonymous_args = 0
 203              		@ link register save eliminated.
  80:D:/fchai/work/i-cube/I-CUBE-HUAWEI/Middlewares/Third_Party/Huawei/iot_link/link_ota\ota_img.c ****     int ret = -1;
ARM GAS  T:\msys\tmp\cc6LrgUd.s 			page 6


 204              		.loc 1 80 5 view .LVU47
  81:D:/fchai/work/i-cube/I-CUBE-HUAWEI/Middlewares/Third_Party/Huawei/iot_link/link_ota\ota_img.c ****     const ota_img_t *img;
 205              		.loc 1 81 5 view .LVU48
  82:D:/fchai/work/i-cube/I-CUBE-HUAWEI/Middlewares/Third_Party/Huawei/iot_link/link_ota\ota_img.c ****     if((otatype < EN_OTA_TYPE_LAST) && (imgtype  < EN_OTA_IMG_LAST) && \
 206              		.loc 1 82 5 view .LVU49
  79:D:/fchai/work/i-cube/I-CUBE-HUAWEI/Middlewares/Third_Party/Huawei/iot_link/link_ota\ota_img.c ****     int ret = -1;
 207              		.loc 1 79 1 is_stmt 0 view .LVU50
 208 0000 30B4     		push	{r4, r5}
 209              	.LCFI4:
 210              		.cfi_def_cfa_offset 8
 211              		.cfi_offset 4, -8
 212              		.cfi_offset 5, -4
 213              		.loc 1 82 7 view .LVU51
 214 0002 0128     		cmp	r0, #1
  79:D:/fchai/work/i-cube/I-CUBE-HUAWEI/Middlewares/Third_Party/Huawei/iot_link/link_ota\ota_img.c ****     int ret = -1;
 215              		.loc 1 79 1 view .LVU52
 216 0004 1446     		mov	r4, r2
 217 0006 1A46     		mov	r2, r3
 218              	.LVL16:
  79:D:/fchai/work/i-cube/I-CUBE-HUAWEI/Middlewares/Third_Party/Huawei/iot_link/link_ota\ota_img.c ****     int ret = -1;
 219              		.loc 1 79 1 view .LVU53
 220 0008 029B     		ldr	r3, [sp, #8]
 221              	.LVL17:
 222              		.loc 1 82 7 view .LVU54
 223 000a 18D8     		bhi	.L25
 224              		.loc 1 82 37 discriminator 1 view .LVU55
 225 000c 0429     		cmp	r1, #4
 226 000e 16D8     		bhi	.L25
  83:D:/fchai/work/i-cube/I-CUBE-HUAWEI/Middlewares/Third_Party/Huawei/iot_link/link_ota\ota_img.c ****        (NULL != g_img_cb_t.ota[otatype][imgtype]) && (NULL != buf) && (offset >= 0) && (len > 0))
 227              		.loc 1 83 40 discriminator 2 view .LVU56
 228 0010 00EB8000 		add	r0, r0, r0, lsl #2
 229              	.LVL18:
 230              		.loc 1 83 40 discriminator 2 view .LVU57
 231 0014 0844     		add	r0, r0, r1
 232 0016 0C49     		ldr	r1, .L39
 233              	.LVL19:
 234              		.loc 1 83 40 discriminator 2 view .LVU58
 235 0018 51F82000 		ldr	r0, [r1, r0, lsl #2]
  82:D:/fchai/work/i-cube/I-CUBE-HUAWEI/Middlewares/Third_Party/Huawei/iot_link/link_ota\ota_img.c ****     if((otatype < EN_OTA_TYPE_LAST) && (imgtype  < EN_OTA_IMG_LAST) && \
 236              		.loc 1 82 69 discriminator 2 view .LVU59
 237 001c 78B1     		cbz	r0, .L25
 238              		.loc 1 83 51 view .LVU60
 239 001e 72B1     		cbz	r2, .L25
 240              		.loc 1 83 68 discriminator 1 view .LVU61
 241 0020 002C     		cmp	r4, #0
 242 0022 0CDB     		blt	.L25
 243              		.loc 1 83 85 discriminator 2 view .LVU62
 244 0024 002B     		cmp	r3, #0
 245 0026 0ADD     		ble	.L25
  84:D:/fchai/work/i-cube/I-CUBE-HUAWEI/Middlewares/Third_Party/Huawei/iot_link/link_ota\ota_img.c ****     {
  85:D:/fchai/work/i-cube/I-CUBE-HUAWEI/Middlewares/Third_Party/Huawei/iot_link/link_ota\ota_img.c ****         img = g_img_cb_t.ota[otatype][imgtype];
 246              		.loc 1 85 9 is_stmt 1 view .LVU63
 247              	.LVL20:
  86:D:/fchai/work/i-cube/I-CUBE-HUAWEI/Middlewares/Third_Party/Huawei/iot_link/link_ota\ota_img.c ****         if((NULL != img->opt.write) && (offset <= (img->size - len)))
 248              		.loc 1 86 9 view .LVU64
 249              		.loc 1 86 29 is_stmt 0 view .LVU65
 250 0028 0569     		ldr	r5, [r0, #16]
ARM GAS  T:\msys\tmp\cc6LrgUd.s 			page 7


 251              		.loc 1 86 11 view .LVU66
 252 002a 45B1     		cbz	r5, .L25
 253              		.loc 1 86 62 discriminator 1 view .LVU67
 254 002c 4168     		ldr	r1, [r0, #4]
 255 002e C91A     		subs	r1, r1, r3
 256              		.loc 1 86 37 discriminator 1 view .LVU68
 257 0030 A142     		cmp	r1, r4
 258 0032 04DB     		blt	.L25
  87:D:/fchai/work/i-cube/I-CUBE-HUAWEI/Middlewares/Third_Party/Huawei/iot_link/link_ota\ota_img.c ****         {
  88:D:/fchai/work/i-cube/I-CUBE-HUAWEI/Middlewares/Third_Party/Huawei/iot_link/link_ota\ota_img.c ****             ret = img->opt.write(img->arg,offset, buf, len);
 259              		.loc 1 88 13 is_stmt 1 view .LVU69
 260              		.loc 1 88 19 is_stmt 0 view .LVU70
 261 0034 2146     		mov	r1, r4
 262 0036 AC46     		mov	ip, r5
 263 0038 C068     		ldr	r0, [r0, #12]
 264              	.LVL21:
  89:D:/fchai/work/i-cube/I-CUBE-HUAWEI/Middlewares/Third_Party/Huawei/iot_link/link_ota\ota_img.c ****         }
  90:D:/fchai/work/i-cube/I-CUBE-HUAWEI/Middlewares/Third_Party/Huawei/iot_link/link_ota\ota_img.c ****     }
  91:D:/fchai/work/i-cube/I-CUBE-HUAWEI/Middlewares/Third_Party/Huawei/iot_link/link_ota\ota_img.c ****     return ret;
  92:D:/fchai/work/i-cube/I-CUBE-HUAWEI/Middlewares/Third_Party/Huawei/iot_link/link_ota\ota_img.c **** }
 265              		.loc 1 92 1 view .LVU71
 266 003a 30BC     		pop	{r4, r5}
 267              	.LCFI5:
 268              		.cfi_remember_state
 269              		.cfi_restore 5
 270              		.cfi_restore 4
 271              		.cfi_def_cfa_offset 0
 272              	.LVL22:
  88:D:/fchai/work/i-cube/I-CUBE-HUAWEI/Middlewares/Third_Party/Huawei/iot_link/link_ota\ota_img.c ****         }
 273              		.loc 1 88 19 view .LVU72
 274 003c 6047     		bx	ip
 275              	.LVL23:
 276              	.L25:
 277              	.LCFI6:
 278              		.cfi_restore_state
 279              		.loc 1 92 1 view .LVU73
 280 003e 4FF0FF30 		mov	r0, #-1
 281 0042 30BC     		pop	{r4, r5}
 282              	.LCFI7:
 283              		.cfi_restore 5
 284              		.cfi_restore 4
 285              		.cfi_def_cfa_offset 0
 286              	.LVL24:
 287              		.loc 1 92 1 view .LVU74
 288 0044 7047     		bx	lr
 289              	.L40:
 290 0046 00BF     		.align	2
 291              	.L39:
 292 0048 00000000 		.word	.LANCHOR0
 293              		.cfi_endproc
 294              	.LFE5:
 296              		.section	.text.ota_img_erase,"ax",%progbits
 297              		.align	1
 298              		.p2align 2,,3
 299              		.global	ota_img_erase
 300              		.syntax unified
 301              		.thumb
ARM GAS  T:\msys\tmp\cc6LrgUd.s 			page 8


 302              		.thumb_func
 303              		.fpu fpv4-sp-d16
 305              	ota_img_erase:
 306              	.LVL25:
 307              	.LFB6:
  93:D:/fchai/work/i-cube/I-CUBE-HUAWEI/Middlewares/Third_Party/Huawei/iot_link/link_ota\ota_img.c **** 
  94:D:/fchai/work/i-cube/I-CUBE-HUAWEI/Middlewares/Third_Party/Huawei/iot_link/link_ota\ota_img.c **** int ota_img_erase(en_ota_type_t otatype, en_ota_img_type_t imgtype)
  95:D:/fchai/work/i-cube/I-CUBE-HUAWEI/Middlewares/Third_Party/Huawei/iot_link/link_ota\ota_img.c **** {
 308              		.loc 1 95 1 is_stmt 1 view -0
 309              		.cfi_startproc
 310              		@ args = 0, pretend = 0, frame = 0
 311              		@ frame_needed = 0, uses_anonymous_args = 0
 312              		@ link register save eliminated.
  96:D:/fchai/work/i-cube/I-CUBE-HUAWEI/Middlewares/Third_Party/Huawei/iot_link/link_ota\ota_img.c ****     int ret = -1;
 313              		.loc 1 96 5 view .LVU76
  97:D:/fchai/work/i-cube/I-CUBE-HUAWEI/Middlewares/Third_Party/Huawei/iot_link/link_ota\ota_img.c ****     const ota_img_t *img;
 314              		.loc 1 97 5 view .LVU77
  98:D:/fchai/work/i-cube/I-CUBE-HUAWEI/Middlewares/Third_Party/Huawei/iot_link/link_ota\ota_img.c ****     if((otatype < EN_OTA_TYPE_LAST) && (imgtype  < EN_OTA_IMG_LAST) && (NULL != g_img_cb_t.ota[otat
 315              		.loc 1 98 5 view .LVU78
 316              		.loc 1 98 7 is_stmt 0 view .LVU79
 317 0000 0128     		cmp	r0, #1
 318 0002 0DD8     		bhi	.L41
 319              		.loc 1 98 37 discriminator 1 view .LVU80
 320 0004 0429     		cmp	r1, #4
 321 0006 0BD8     		bhi	.L41
 322              		.loc 1 98 104 discriminator 2 view .LVU81
 323 0008 00EB8000 		add	r0, r0, r0, lsl #2
 324              	.LVL26:
 325              		.loc 1 98 104 discriminator 2 view .LVU82
 326 000c 064B     		ldr	r3, .L49
 327 000e 0144     		add	r1, r1, r0
 328              	.LVL27:
 329              		.loc 1 98 104 discriminator 2 view .LVU83
 330 0010 53F82130 		ldr	r3, [r3, r1, lsl #2]
 331              		.loc 1 98 69 discriminator 2 view .LVU84
 332 0014 23B1     		cbz	r3, .L41
  99:D:/fchai/work/i-cube/I-CUBE-HUAWEI/Middlewares/Third_Party/Huawei/iot_link/link_ota\ota_img.c ****     {
 100:D:/fchai/work/i-cube/I-CUBE-HUAWEI/Middlewares/Third_Party/Huawei/iot_link/link_ota\ota_img.c ****         img = g_img_cb_t.ota[otatype][imgtype];
 333              		.loc 1 100 9 is_stmt 1 view .LVU85
 334              	.LVL28:
 101:D:/fchai/work/i-cube/I-CUBE-HUAWEI/Middlewares/Third_Party/Huawei/iot_link/link_ota\ota_img.c ****         if(NULL != img->opt.erase)
 335              		.loc 1 101 9 view .LVU86
 336              		.loc 1 101 28 is_stmt 0 view .LVU87
 337 0016 9A69     		ldr	r2, [r3, #24]
 338              		.loc 1 101 11 view .LVU88
 339 0018 12B1     		cbz	r2, .L41
 102:D:/fchai/work/i-cube/I-CUBE-HUAWEI/Middlewares/Third_Party/Huawei/iot_link/link_ota\ota_img.c ****         {
 103:D:/fchai/work/i-cube/I-CUBE-HUAWEI/Middlewares/Third_Party/Huawei/iot_link/link_ota\ota_img.c ****             ret = img->opt.erase(img->arg,img->size);
 340              		.loc 1 103 13 is_stmt 1 view .LVU89
 341              		.loc 1 103 19 is_stmt 0 view .LVU90
 342 001a 5968     		ldr	r1, [r3, #4]
 343 001c D868     		ldr	r0, [r3, #12]
 344 001e 1047     		bx	r2
 345              	.LVL29:
 346              	.L41:
 104:D:/fchai/work/i-cube/I-CUBE-HUAWEI/Middlewares/Third_Party/Huawei/iot_link/link_ota\ota_img.c ****         }
 105:D:/fchai/work/i-cube/I-CUBE-HUAWEI/Middlewares/Third_Party/Huawei/iot_link/link_ota\ota_img.c ****     }
ARM GAS  T:\msys\tmp\cc6LrgUd.s 			page 9


 106:D:/fchai/work/i-cube/I-CUBE-HUAWEI/Middlewares/Third_Party/Huawei/iot_link/link_ota\ota_img.c ****     return ret;
 107:D:/fchai/work/i-cube/I-CUBE-HUAWEI/Middlewares/Third_Party/Huawei/iot_link/link_ota\ota_img.c **** }
 347              		.loc 1 107 1 view .LVU91
 348 0020 4FF0FF30 		mov	r0, #-1
 349 0024 7047     		bx	lr
 350              	.L50:
 351 0026 00BF     		.align	2
 352              	.L49:
 353 0028 00000000 		.word	.LANCHOR0
 354              		.cfi_endproc
 355              	.LFE6:
 357              		.section	.text.ota_img_flush,"ax",%progbits
 358              		.align	1
 359              		.p2align 2,,3
 360              		.global	ota_img_flush
 361              		.syntax unified
 362              		.thumb
 363              		.thumb_func
 364              		.fpu fpv4-sp-d16
 366              	ota_img_flush:
 367              	.LVL30:
 368              	.LFB7:
 108:D:/fchai/work/i-cube/I-CUBE-HUAWEI/Middlewares/Third_Party/Huawei/iot_link/link_ota\ota_img.c **** 
 109:D:/fchai/work/i-cube/I-CUBE-HUAWEI/Middlewares/Third_Party/Huawei/iot_link/link_ota\ota_img.c **** int ota_img_flush(en_ota_type_t otatype, en_ota_img_type_t imgtype)
 110:D:/fchai/work/i-cube/I-CUBE-HUAWEI/Middlewares/Third_Party/Huawei/iot_link/link_ota\ota_img.c **** {
 369              		.loc 1 110 1 is_stmt 1 view -0
 370              		.cfi_startproc
 371              		@ args = 0, pretend = 0, frame = 0
 372              		@ frame_needed = 0, uses_anonymous_args = 0
 373              		@ link register save eliminated.
 111:D:/fchai/work/i-cube/I-CUBE-HUAWEI/Middlewares/Third_Party/Huawei/iot_link/link_ota\ota_img.c ****     int ret = -1;
 374              		.loc 1 111 5 view .LVU93
 112:D:/fchai/work/i-cube/I-CUBE-HUAWEI/Middlewares/Third_Party/Huawei/iot_link/link_ota\ota_img.c ****     const ota_img_t *img;
 375              		.loc 1 112 5 view .LVU94
 113:D:/fchai/work/i-cube/I-CUBE-HUAWEI/Middlewares/Third_Party/Huawei/iot_link/link_ota\ota_img.c ****     if((otatype < EN_OTA_TYPE_LAST) && (imgtype  < EN_OTA_IMG_LAST) && (NULL != g_img_cb_t.ota[otat
 376              		.loc 1 113 5 view .LVU95
 377              		.loc 1 113 7 is_stmt 0 view .LVU96
 378 0000 0128     		cmp	r0, #1
 379 0002 0DD8     		bhi	.L51
 380              		.loc 1 113 37 discriminator 1 view .LVU97
 381 0004 0429     		cmp	r1, #4
 382 0006 0BD8     		bhi	.L51
 383              		.loc 1 113 104 discriminator 2 view .LVU98
 384 0008 00EB8000 		add	r0, r0, r0, lsl #2
 385              	.LVL31:
 386              		.loc 1 113 104 discriminator 2 view .LVU99
 387 000c 064B     		ldr	r3, .L59
 388 000e 0144     		add	r1, r1, r0
 389              	.LVL32:
 390              		.loc 1 113 104 discriminator 2 view .LVU100
 391 0010 53F82130 		ldr	r3, [r3, r1, lsl #2]
 392              		.loc 1 113 69 discriminator 2 view .LVU101
 393 0014 23B1     		cbz	r3, .L51
 114:D:/fchai/work/i-cube/I-CUBE-HUAWEI/Middlewares/Third_Party/Huawei/iot_link/link_ota\ota_img.c ****     {
 115:D:/fchai/work/i-cube/I-CUBE-HUAWEI/Middlewares/Third_Party/Huawei/iot_link/link_ota\ota_img.c ****         img = g_img_cb_t.ota[otatype][imgtype];
 394              		.loc 1 115 9 is_stmt 1 view .LVU102
 395              	.LVL33:
ARM GAS  T:\msys\tmp\cc6LrgUd.s 			page 10


 116:D:/fchai/work/i-cube/I-CUBE-HUAWEI/Middlewares/Third_Party/Huawei/iot_link/link_ota\ota_img.c ****         if(NULL != img->opt.flush)
 396              		.loc 1 116 9 view .LVU103
 397              		.loc 1 116 28 is_stmt 0 view .LVU104
 398 0016 DA69     		ldr	r2, [r3, #28]
 399              		.loc 1 116 11 view .LVU105
 400 0018 12B1     		cbz	r2, .L51
 117:D:/fchai/work/i-cube/I-CUBE-HUAWEI/Middlewares/Third_Party/Huawei/iot_link/link_ota\ota_img.c ****         {
 118:D:/fchai/work/i-cube/I-CUBE-HUAWEI/Middlewares/Third_Party/Huawei/iot_link/link_ota\ota_img.c ****             ret = img->opt.flush(img->arg,img->size);
 401              		.loc 1 118 13 is_stmt 1 view .LVU106
 402              		.loc 1 118 19 is_stmt 0 view .LVU107
 403 001a 5968     		ldr	r1, [r3, #4]
 404 001c D868     		ldr	r0, [r3, #12]
 405 001e 1047     		bx	r2
 406              	.LVL34:
 407              	.L51:
 119:D:/fchai/work/i-cube/I-CUBE-HUAWEI/Middlewares/Third_Party/Huawei/iot_link/link_ota\ota_img.c ****         }
 120:D:/fchai/work/i-cube/I-CUBE-HUAWEI/Middlewares/Third_Party/Huawei/iot_link/link_ota\ota_img.c ****     }
 121:D:/fchai/work/i-cube/I-CUBE-HUAWEI/Middlewares/Third_Party/Huawei/iot_link/link_ota\ota_img.c ****     return ret;
 122:D:/fchai/work/i-cube/I-CUBE-HUAWEI/Middlewares/Third_Party/Huawei/iot_link/link_ota\ota_img.c **** }
 408              		.loc 1 122 1 view .LVU108
 409 0020 4FF0FF30 		mov	r0, #-1
 410 0024 7047     		bx	lr
 411              	.L60:
 412 0026 00BF     		.align	2
 413              	.L59:
 414 0028 00000000 		.word	.LANCHOR0
 415              		.cfi_endproc
 416              	.LFE7:
 418              		.section	.text.ota_img_size,"ax",%progbits
 419              		.align	1
 420              		.p2align 2,,3
 421              		.global	ota_img_size
 422              		.syntax unified
 423              		.thumb
 424              		.thumb_func
 425              		.fpu fpv4-sp-d16
 427              	ota_img_size:
 428              	.LVL35:
 429              	.LFB8:
 123:D:/fchai/work/i-cube/I-CUBE-HUAWEI/Middlewares/Third_Party/Huawei/iot_link/link_ota\ota_img.c **** 
 124:D:/fchai/work/i-cube/I-CUBE-HUAWEI/Middlewares/Third_Party/Huawei/iot_link/link_ota\ota_img.c **** int ota_img_size(en_ota_type_t otatype, en_ota_img_type_t imgtype, int *size)
 125:D:/fchai/work/i-cube/I-CUBE-HUAWEI/Middlewares/Third_Party/Huawei/iot_link/link_ota\ota_img.c **** {
 430              		.loc 1 125 1 is_stmt 1 view -0
 431              		.cfi_startproc
 432              		@ args = 0, pretend = 0, frame = 0
 433              		@ frame_needed = 0, uses_anonymous_args = 0
 434              		@ link register save eliminated.
 126:D:/fchai/work/i-cube/I-CUBE-HUAWEI/Middlewares/Third_Party/Huawei/iot_link/link_ota\ota_img.c ****     int ret = -1;
 435              		.loc 1 126 5 view .LVU110
 127:D:/fchai/work/i-cube/I-CUBE-HUAWEI/Middlewares/Third_Party/Huawei/iot_link/link_ota\ota_img.c ****     const ota_img_t *img;
 436              		.loc 1 127 5 view .LVU111
 128:D:/fchai/work/i-cube/I-CUBE-HUAWEI/Middlewares/Third_Party/Huawei/iot_link/link_ota\ota_img.c ****     if((otatype < EN_OTA_TYPE_LAST) && (imgtype  < EN_OTA_IMG_LAST) && (NULL != g_img_cb_t.ota[otat
 437              		.loc 1 128 5 view .LVU112
 438              		.loc 1 128 7 is_stmt 0 view .LVU113
 439 0000 0128     		cmp	r0, #1
 440 0002 0CD8     		bhi	.L65
 441              		.loc 1 128 37 discriminator 1 view .LVU114
ARM GAS  T:\msys\tmp\cc6LrgUd.s 			page 11


 442 0004 0429     		cmp	r1, #4
 443 0006 0AD8     		bhi	.L65
 444              		.loc 1 128 104 discriminator 2 view .LVU115
 445 0008 00EB8000 		add	r0, r0, r0, lsl #2
 446              	.LVL36:
 447              		.loc 1 128 104 discriminator 2 view .LVU116
 448 000c 054B     		ldr	r3, .L66
 449 000e 0144     		add	r1, r1, r0
 450              	.LVL37:
 451              		.loc 1 128 104 discriminator 2 view .LVU117
 452 0010 53F82130 		ldr	r3, [r3, r1, lsl #2]
 453              		.loc 1 128 69 discriminator 2 view .LVU118
 454 0014 1BB1     		cbz	r3, .L65
 129:D:/fchai/work/i-cube/I-CUBE-HUAWEI/Middlewares/Third_Party/Huawei/iot_link/link_ota\ota_img.c ****     {
 130:D:/fchai/work/i-cube/I-CUBE-HUAWEI/Middlewares/Third_Party/Huawei/iot_link/link_ota\ota_img.c ****         img = g_img_cb_t.ota[otatype][imgtype];
 455              		.loc 1 130 9 is_stmt 1 view .LVU119
 456              	.LVL38:
 131:D:/fchai/work/i-cube/I-CUBE-HUAWEI/Middlewares/Third_Party/Huawei/iot_link/link_ota\ota_img.c ****         *size = img->size;
 457              		.loc 1 131 9 view .LVU120
 458              		.loc 1 131 20 is_stmt 0 view .LVU121
 459 0016 5B68     		ldr	r3, [r3, #4]
 460              	.LVL39:
 461              		.loc 1 131 15 view .LVU122
 462 0018 1360     		str	r3, [r2]
 132:D:/fchai/work/i-cube/I-CUBE-HUAWEI/Middlewares/Third_Party/Huawei/iot_link/link_ota\ota_img.c ****         ret = 0;
 463              		.loc 1 132 9 is_stmt 1 view .LVU123
 464              	.LVL40:
 465              		.loc 1 132 13 is_stmt 0 view .LVU124
 466 001a 0020     		movs	r0, #0
 467 001c 7047     		bx	lr
 468              	.LVL41:
 469              	.L65:
 126:D:/fchai/work/i-cube/I-CUBE-HUAWEI/Middlewares/Third_Party/Huawei/iot_link/link_ota\ota_img.c ****     const ota_img_t *img;
 470              		.loc 1 126 9 view .LVU125
 471 001e 4FF0FF30 		mov	r0, #-1
 133:D:/fchai/work/i-cube/I-CUBE-HUAWEI/Middlewares/Third_Party/Huawei/iot_link/link_ota\ota_img.c ****     }
 134:D:/fchai/work/i-cube/I-CUBE-HUAWEI/Middlewares/Third_Party/Huawei/iot_link/link_ota\ota_img.c ****     return ret;
 472              		.loc 1 134 5 is_stmt 1 view .LVU126
 135:D:/fchai/work/i-cube/I-CUBE-HUAWEI/Middlewares/Third_Party/Huawei/iot_link/link_ota\ota_img.c **** }
 473              		.loc 1 135 1 is_stmt 0 view .LVU127
 474 0022 7047     		bx	lr
 475              	.L67:
 476              		.align	2
 477              	.L66:
 478 0024 00000000 		.word	.LANCHOR0
 479              		.cfi_endproc
 480              	.LFE8:
 482              		.section	.bss.g_img_cb_t,"aw",%nobits
 483              		.align	2
 484              		.set	.LANCHOR0,. + 0
 487              	g_img_cb_t:
 488 0000 00000000 		.space	40
 488      00000000 
 488      00000000 
 488      00000000 
 488      00000000 
 489              		.text
ARM GAS  T:\msys\tmp\cc6LrgUd.s 			page 12


 490              	.Letext0:
 491              		.file 2 "t:\\msys\\3rd\\gcc-arm-none-eabi-9-2020-q2-update-win32\\arm-none-eabi\\include\\machine\
 492              		.file 3 "t:\\msys\\3rd\\gcc-arm-none-eabi-9-2020-q2-update-win32\\arm-none-eabi\\include\\sys\\_st
 493              		.file 4 "t:\\msys\\3rd\\gcc-arm-none-eabi-9-2020-q2-update-win32\\lib\\gcc\\arm-none-eabi\\9.3.1\\
 494              		.file 5 "t:\\msys\\3rd\\gcc-arm-none-eabi-9-2020-q2-update-win32\\arm-none-eabi\\include\\sys\\_ty
 495              		.file 6 "t:\\msys\\3rd\\gcc-arm-none-eabi-9-2020-q2-update-win32\\arm-none-eabi\\include\\sys\\ree
 496              		.file 7 "t:\\msys\\3rd\\gcc-arm-none-eabi-9-2020-q2-update-win32\\arm-none-eabi\\include\\sys\\loc
 497              		.file 8 "D:/fchai/work/i-cube/I-CUBE-HUAWEI/Middlewares/Third_Party/Huawei/iot_link/link_ota/ota_i
ARM GAS  T:\msys\tmp\cc6LrgUd.s 			page 13

