ARM GAS  T:\msys\tmp\ccK9B02h.s 			page 1


   1              		.cpu cortex-m4
   2              		.eabi_attribute 27, 1
   3              		.eabi_attribute 28, 1
   4              		.eabi_attribute 20, 1
   5              		.eabi_attribute 21, 1
   6              		.eabi_attribute 23, 3
   7              		.eabi_attribute 24, 1
   8              		.eabi_attribute 25, 1
   9              		.eabi_attribute 26, 1
  10              		.eabi_attribute 30, 2
  11              		.eabi_attribute 34, 1
  12              		.eabi_attribute 18, 4
  13              		.file	"stm32l4xx_hal.c"
  14              		.text
  15              	.Ltext0:
  16              		.cfi_sections	.debug_frame
  17              		.section	.text.HAL_MspInit,"ax",%progbits
  18              		.align	1
  19              		.p2align 2,,3
  20              		.weak	HAL_MspInit
  21              		.arch armv7e-m
  22              		.syntax unified
  23              		.thumb
  24              		.thumb_func
  25              		.fpu fpv4-sp-d16
  27              	HAL_MspInit:
  28              	.LFB125:
  29              		.file 1 "D:/fchai/work/i-cube/I-CUBE-HUAWEI/Drivers/STM32L4xx_HAL_Driver/Src/stm32l4xx_hal.c"
   1:D:/fchai/work/i-cube/I-CUBE-HUAWEI/Drivers/STM32L4xx_HAL_Driver/Src\stm32l4xx_hal.c **** /**
   2:D:/fchai/work/i-cube/I-CUBE-HUAWEI/Drivers/STM32L4xx_HAL_Driver/Src\stm32l4xx_hal.c ****   ******************************************************************************
   3:D:/fchai/work/i-cube/I-CUBE-HUAWEI/Drivers/STM32L4xx_HAL_Driver/Src\stm32l4xx_hal.c ****   * @file    stm32l4xx_hal.c
   4:D:/fchai/work/i-cube/I-CUBE-HUAWEI/Drivers/STM32L4xx_HAL_Driver/Src\stm32l4xx_hal.c ****   * @author  MCD Application Team
   5:D:/fchai/work/i-cube/I-CUBE-HUAWEI/Drivers/STM32L4xx_HAL_Driver/Src\stm32l4xx_hal.c ****   * @brief   HAL module driver.
   6:D:/fchai/work/i-cube/I-CUBE-HUAWEI/Drivers/STM32L4xx_HAL_Driver/Src\stm32l4xx_hal.c ****   *          This is the common part of the HAL initialization
   7:D:/fchai/work/i-cube/I-CUBE-HUAWEI/Drivers/STM32L4xx_HAL_Driver/Src\stm32l4xx_hal.c ****   *
   8:D:/fchai/work/i-cube/I-CUBE-HUAWEI/Drivers/STM32L4xx_HAL_Driver/Src\stm32l4xx_hal.c ****   @verbatim
   9:D:/fchai/work/i-cube/I-CUBE-HUAWEI/Drivers/STM32L4xx_HAL_Driver/Src\stm32l4xx_hal.c ****   ==============================================================================
  10:D:/fchai/work/i-cube/I-CUBE-HUAWEI/Drivers/STM32L4xx_HAL_Driver/Src\stm32l4xx_hal.c ****                      ##### How to use this driver #####
  11:D:/fchai/work/i-cube/I-CUBE-HUAWEI/Drivers/STM32L4xx_HAL_Driver/Src\stm32l4xx_hal.c ****   ==============================================================================
  12:D:/fchai/work/i-cube/I-CUBE-HUAWEI/Drivers/STM32L4xx_HAL_Driver/Src\stm32l4xx_hal.c ****     [..]
  13:D:/fchai/work/i-cube/I-CUBE-HUAWEI/Drivers/STM32L4xx_HAL_Driver/Src\stm32l4xx_hal.c ****     The common HAL driver contains a set of generic and common APIs that can be
  14:D:/fchai/work/i-cube/I-CUBE-HUAWEI/Drivers/STM32L4xx_HAL_Driver/Src\stm32l4xx_hal.c ****     used by the PPP peripheral drivers and the user to start using the HAL.
  15:D:/fchai/work/i-cube/I-CUBE-HUAWEI/Drivers/STM32L4xx_HAL_Driver/Src\stm32l4xx_hal.c ****     [..]
  16:D:/fchai/work/i-cube/I-CUBE-HUAWEI/Drivers/STM32L4xx_HAL_Driver/Src\stm32l4xx_hal.c ****     The HAL contains two APIs' categories:
  17:D:/fchai/work/i-cube/I-CUBE-HUAWEI/Drivers/STM32L4xx_HAL_Driver/Src\stm32l4xx_hal.c ****          (+) Common HAL APIs
  18:D:/fchai/work/i-cube/I-CUBE-HUAWEI/Drivers/STM32L4xx_HAL_Driver/Src\stm32l4xx_hal.c ****          (+) Services HAL APIs
  19:D:/fchai/work/i-cube/I-CUBE-HUAWEI/Drivers/STM32L4xx_HAL_Driver/Src\stm32l4xx_hal.c **** 
  20:D:/fchai/work/i-cube/I-CUBE-HUAWEI/Drivers/STM32L4xx_HAL_Driver/Src\stm32l4xx_hal.c ****   @endverbatim
  21:D:/fchai/work/i-cube/I-CUBE-HUAWEI/Drivers/STM32L4xx_HAL_Driver/Src\stm32l4xx_hal.c ****   ******************************************************************************
  22:D:/fchai/work/i-cube/I-CUBE-HUAWEI/Drivers/STM32L4xx_HAL_Driver/Src\stm32l4xx_hal.c ****   * @attention
  23:D:/fchai/work/i-cube/I-CUBE-HUAWEI/Drivers/STM32L4xx_HAL_Driver/Src\stm32l4xx_hal.c ****   *
  24:D:/fchai/work/i-cube/I-CUBE-HUAWEI/Drivers/STM32L4xx_HAL_Driver/Src\stm32l4xx_hal.c ****   * <h2><center>&copy; Copyright (c) 2017 STMicroelectronics.
  25:D:/fchai/work/i-cube/I-CUBE-HUAWEI/Drivers/STM32L4xx_HAL_Driver/Src\stm32l4xx_hal.c ****   * All rights reserved.</center></h2>
  26:D:/fchai/work/i-cube/I-CUBE-HUAWEI/Drivers/STM32L4xx_HAL_Driver/Src\stm32l4xx_hal.c ****   *
  27:D:/fchai/work/i-cube/I-CUBE-HUAWEI/Drivers/STM32L4xx_HAL_Driver/Src\stm32l4xx_hal.c ****   * This software component is licensed by ST under BSD 3-Clause license,
  28:D:/fchai/work/i-cube/I-CUBE-HUAWEI/Drivers/STM32L4xx_HAL_Driver/Src\stm32l4xx_hal.c ****   * the "License"; You may not use this file except in compliance with the
  29:D:/fchai/work/i-cube/I-CUBE-HUAWEI/Drivers/STM32L4xx_HAL_Driver/Src\stm32l4xx_hal.c ****   * License. You may obtain a copy of the License at:
ARM GAS  T:\msys\tmp\ccK9B02h.s 			page 2


  30:D:/fchai/work/i-cube/I-CUBE-HUAWEI/Drivers/STM32L4xx_HAL_Driver/Src\stm32l4xx_hal.c ****   *                        opensource.org/licenses/BSD-3-Clause
  31:D:/fchai/work/i-cube/I-CUBE-HUAWEI/Drivers/STM32L4xx_HAL_Driver/Src\stm32l4xx_hal.c ****   *
  32:D:/fchai/work/i-cube/I-CUBE-HUAWEI/Drivers/STM32L4xx_HAL_Driver/Src\stm32l4xx_hal.c ****   ******************************************************************************
  33:D:/fchai/work/i-cube/I-CUBE-HUAWEI/Drivers/STM32L4xx_HAL_Driver/Src\stm32l4xx_hal.c ****   */
  34:D:/fchai/work/i-cube/I-CUBE-HUAWEI/Drivers/STM32L4xx_HAL_Driver/Src\stm32l4xx_hal.c **** 
  35:D:/fchai/work/i-cube/I-CUBE-HUAWEI/Drivers/STM32L4xx_HAL_Driver/Src\stm32l4xx_hal.c **** /* Includes ------------------------------------------------------------------*/
  36:D:/fchai/work/i-cube/I-CUBE-HUAWEI/Drivers/STM32L4xx_HAL_Driver/Src\stm32l4xx_hal.c **** #include "stm32l4xx_hal.h"
  37:D:/fchai/work/i-cube/I-CUBE-HUAWEI/Drivers/STM32L4xx_HAL_Driver/Src\stm32l4xx_hal.c **** 
  38:D:/fchai/work/i-cube/I-CUBE-HUAWEI/Drivers/STM32L4xx_HAL_Driver/Src\stm32l4xx_hal.c **** /** @addtogroup STM32L4xx_HAL_Driver
  39:D:/fchai/work/i-cube/I-CUBE-HUAWEI/Drivers/STM32L4xx_HAL_Driver/Src\stm32l4xx_hal.c ****   * @{
  40:D:/fchai/work/i-cube/I-CUBE-HUAWEI/Drivers/STM32L4xx_HAL_Driver/Src\stm32l4xx_hal.c ****   */
  41:D:/fchai/work/i-cube/I-CUBE-HUAWEI/Drivers/STM32L4xx_HAL_Driver/Src\stm32l4xx_hal.c **** 
  42:D:/fchai/work/i-cube/I-CUBE-HUAWEI/Drivers/STM32L4xx_HAL_Driver/Src\stm32l4xx_hal.c **** /** @defgroup HAL HAL
  43:D:/fchai/work/i-cube/I-CUBE-HUAWEI/Drivers/STM32L4xx_HAL_Driver/Src\stm32l4xx_hal.c ****   * @brief HAL module driver
  44:D:/fchai/work/i-cube/I-CUBE-HUAWEI/Drivers/STM32L4xx_HAL_Driver/Src\stm32l4xx_hal.c ****   * @{
  45:D:/fchai/work/i-cube/I-CUBE-HUAWEI/Drivers/STM32L4xx_HAL_Driver/Src\stm32l4xx_hal.c ****   */
  46:D:/fchai/work/i-cube/I-CUBE-HUAWEI/Drivers/STM32L4xx_HAL_Driver/Src\stm32l4xx_hal.c **** 
  47:D:/fchai/work/i-cube/I-CUBE-HUAWEI/Drivers/STM32L4xx_HAL_Driver/Src\stm32l4xx_hal.c **** #ifdef HAL_MODULE_ENABLED
  48:D:/fchai/work/i-cube/I-CUBE-HUAWEI/Drivers/STM32L4xx_HAL_Driver/Src\stm32l4xx_hal.c **** 
  49:D:/fchai/work/i-cube/I-CUBE-HUAWEI/Drivers/STM32L4xx_HAL_Driver/Src\stm32l4xx_hal.c **** /* Private typedef -----------------------------------------------------------*/
  50:D:/fchai/work/i-cube/I-CUBE-HUAWEI/Drivers/STM32L4xx_HAL_Driver/Src\stm32l4xx_hal.c **** /* Private define ------------------------------------------------------------*/
  51:D:/fchai/work/i-cube/I-CUBE-HUAWEI/Drivers/STM32L4xx_HAL_Driver/Src\stm32l4xx_hal.c **** /**
  52:D:/fchai/work/i-cube/I-CUBE-HUAWEI/Drivers/STM32L4xx_HAL_Driver/Src\stm32l4xx_hal.c ****  * @brief STM32L4xx HAL Driver version number
  53:D:/fchai/work/i-cube/I-CUBE-HUAWEI/Drivers/STM32L4xx_HAL_Driver/Src\stm32l4xx_hal.c ****    */
  54:D:/fchai/work/i-cube/I-CUBE-HUAWEI/Drivers/STM32L4xx_HAL_Driver/Src\stm32l4xx_hal.c **** #define STM32L4XX_HAL_VERSION_MAIN   (0x01U) /*!< [31:24] main version */
  55:D:/fchai/work/i-cube/I-CUBE-HUAWEI/Drivers/STM32L4xx_HAL_Driver/Src\stm32l4xx_hal.c **** #define STM32L4XX_HAL_VERSION_SUB1   (0x0BU) /*!< [23:16] sub1 version */
  56:D:/fchai/work/i-cube/I-CUBE-HUAWEI/Drivers/STM32L4xx_HAL_Driver/Src\stm32l4xx_hal.c **** #define STM32L4XX_HAL_VERSION_SUB2   (0x01U) /*!< [15:8]  sub2 version */
  57:D:/fchai/work/i-cube/I-CUBE-HUAWEI/Drivers/STM32L4xx_HAL_Driver/Src\stm32l4xx_hal.c **** #define STM32L4XX_HAL_VERSION_RC     (0x00U) /*!< [7:0]  release candidate */
  58:D:/fchai/work/i-cube/I-CUBE-HUAWEI/Drivers/STM32L4xx_HAL_Driver/Src\stm32l4xx_hal.c **** #define STM32L4XX_HAL_VERSION        ((STM32L4XX_HAL_VERSION_MAIN  << 24U)\
  59:D:/fchai/work/i-cube/I-CUBE-HUAWEI/Drivers/STM32L4xx_HAL_Driver/Src\stm32l4xx_hal.c ****                                       |(STM32L4XX_HAL_VERSION_SUB1 << 16U)\
  60:D:/fchai/work/i-cube/I-CUBE-HUAWEI/Drivers/STM32L4xx_HAL_Driver/Src\stm32l4xx_hal.c ****                                       |(STM32L4XX_HAL_VERSION_SUB2 << 8U)\
  61:D:/fchai/work/i-cube/I-CUBE-HUAWEI/Drivers/STM32L4xx_HAL_Driver/Src\stm32l4xx_hal.c ****                                       |(STM32L4XX_HAL_VERSION_RC))
  62:D:/fchai/work/i-cube/I-CUBE-HUAWEI/Drivers/STM32L4xx_HAL_Driver/Src\stm32l4xx_hal.c **** 
  63:D:/fchai/work/i-cube/I-CUBE-HUAWEI/Drivers/STM32L4xx_HAL_Driver/Src\stm32l4xx_hal.c **** #if defined(VREFBUF)
  64:D:/fchai/work/i-cube/I-CUBE-HUAWEI/Drivers/STM32L4xx_HAL_Driver/Src\stm32l4xx_hal.c **** #define VREFBUF_TIMEOUT_VALUE     10U   /* 10 ms (to be confirmed) */
  65:D:/fchai/work/i-cube/I-CUBE-HUAWEI/Drivers/STM32L4xx_HAL_Driver/Src\stm32l4xx_hal.c **** #endif /* VREFBUF */
  66:D:/fchai/work/i-cube/I-CUBE-HUAWEI/Drivers/STM32L4xx_HAL_Driver/Src\stm32l4xx_hal.c **** 
  67:D:/fchai/work/i-cube/I-CUBE-HUAWEI/Drivers/STM32L4xx_HAL_Driver/Src\stm32l4xx_hal.c **** /* ------------ SYSCFG registers bit address in the alias region ------------ */
  68:D:/fchai/work/i-cube/I-CUBE-HUAWEI/Drivers/STM32L4xx_HAL_Driver/Src\stm32l4xx_hal.c **** #define SYSCFG_OFFSET             (SYSCFG_BASE - PERIPH_BASE)
  69:D:/fchai/work/i-cube/I-CUBE-HUAWEI/Drivers/STM32L4xx_HAL_Driver/Src\stm32l4xx_hal.c **** /* ---  MEMRMP Register ---*/
  70:D:/fchai/work/i-cube/I-CUBE-HUAWEI/Drivers/STM32L4xx_HAL_Driver/Src\stm32l4xx_hal.c **** /* Alias word address of FB_MODE bit */
  71:D:/fchai/work/i-cube/I-CUBE-HUAWEI/Drivers/STM32L4xx_HAL_Driver/Src\stm32l4xx_hal.c **** #define MEMRMP_OFFSET             SYSCFG_OFFSET
  72:D:/fchai/work/i-cube/I-CUBE-HUAWEI/Drivers/STM32L4xx_HAL_Driver/Src\stm32l4xx_hal.c **** #define FB_MODE_BitNumber         8U
  73:D:/fchai/work/i-cube/I-CUBE-HUAWEI/Drivers/STM32L4xx_HAL_Driver/Src\stm32l4xx_hal.c **** #define FB_MODE_BB                (PERIPH_BB_BASE + (MEMRMP_OFFSET * 32U) + (FB_MODE_BitNumber * 4U
  74:D:/fchai/work/i-cube/I-CUBE-HUAWEI/Drivers/STM32L4xx_HAL_Driver/Src\stm32l4xx_hal.c **** 
  75:D:/fchai/work/i-cube/I-CUBE-HUAWEI/Drivers/STM32L4xx_HAL_Driver/Src\stm32l4xx_hal.c **** /* --- SCSR Register ---*/
  76:D:/fchai/work/i-cube/I-CUBE-HUAWEI/Drivers/STM32L4xx_HAL_Driver/Src\stm32l4xx_hal.c **** /* Alias word address of SRAM2ER bit */
  77:D:/fchai/work/i-cube/I-CUBE-HUAWEI/Drivers/STM32L4xx_HAL_Driver/Src\stm32l4xx_hal.c **** #define SCSR_OFFSET               (SYSCFG_OFFSET + 0x18U)
  78:D:/fchai/work/i-cube/I-CUBE-HUAWEI/Drivers/STM32L4xx_HAL_Driver/Src\stm32l4xx_hal.c **** #define BRER_BitNumber            0U
  79:D:/fchai/work/i-cube/I-CUBE-HUAWEI/Drivers/STM32L4xx_HAL_Driver/Src\stm32l4xx_hal.c **** #define SCSR_SRAM2ER_BB           (PERIPH_BB_BASE + (SCSR_OFFSET * 32U) + (BRER_BitNumber * 4U))
  80:D:/fchai/work/i-cube/I-CUBE-HUAWEI/Drivers/STM32L4xx_HAL_Driver/Src\stm32l4xx_hal.c **** 
  81:D:/fchai/work/i-cube/I-CUBE-HUAWEI/Drivers/STM32L4xx_HAL_Driver/Src\stm32l4xx_hal.c **** /* Private macro -------------------------------------------------------------*/
  82:D:/fchai/work/i-cube/I-CUBE-HUAWEI/Drivers/STM32L4xx_HAL_Driver/Src\stm32l4xx_hal.c **** /* Private variables ---------------------------------------------------------*/
  83:D:/fchai/work/i-cube/I-CUBE-HUAWEI/Drivers/STM32L4xx_HAL_Driver/Src\stm32l4xx_hal.c **** /* Private function prototypes -----------------------------------------------*/
  84:D:/fchai/work/i-cube/I-CUBE-HUAWEI/Drivers/STM32L4xx_HAL_Driver/Src\stm32l4xx_hal.c **** 
  85:D:/fchai/work/i-cube/I-CUBE-HUAWEI/Drivers/STM32L4xx_HAL_Driver/Src\stm32l4xx_hal.c **** /* Exported variables --------------------------------------------------------*/
  86:D:/fchai/work/i-cube/I-CUBE-HUAWEI/Drivers/STM32L4xx_HAL_Driver/Src\stm32l4xx_hal.c **** 
ARM GAS  T:\msys\tmp\ccK9B02h.s 			page 3


  87:D:/fchai/work/i-cube/I-CUBE-HUAWEI/Drivers/STM32L4xx_HAL_Driver/Src\stm32l4xx_hal.c **** /** @defgroup HAL_Exported_Variables HAL Exported Variables
  88:D:/fchai/work/i-cube/I-CUBE-HUAWEI/Drivers/STM32L4xx_HAL_Driver/Src\stm32l4xx_hal.c ****   * @{
  89:D:/fchai/work/i-cube/I-CUBE-HUAWEI/Drivers/STM32L4xx_HAL_Driver/Src\stm32l4xx_hal.c ****   */
  90:D:/fchai/work/i-cube/I-CUBE-HUAWEI/Drivers/STM32L4xx_HAL_Driver/Src\stm32l4xx_hal.c **** __IO uint32_t uwTick;
  91:D:/fchai/work/i-cube/I-CUBE-HUAWEI/Drivers/STM32L4xx_HAL_Driver/Src\stm32l4xx_hal.c **** uint32_t uwTickPrio = (1UL << __NVIC_PRIO_BITS); /* Invalid priority */
  92:D:/fchai/work/i-cube/I-CUBE-HUAWEI/Drivers/STM32L4xx_HAL_Driver/Src\stm32l4xx_hal.c **** uint32_t uwTickFreq = HAL_TICK_FREQ_DEFAULT;  /* 1KHz */
  93:D:/fchai/work/i-cube/I-CUBE-HUAWEI/Drivers/STM32L4xx_HAL_Driver/Src\stm32l4xx_hal.c **** /**
  94:D:/fchai/work/i-cube/I-CUBE-HUAWEI/Drivers/STM32L4xx_HAL_Driver/Src\stm32l4xx_hal.c ****   * @}
  95:D:/fchai/work/i-cube/I-CUBE-HUAWEI/Drivers/STM32L4xx_HAL_Driver/Src\stm32l4xx_hal.c ****   */
  96:D:/fchai/work/i-cube/I-CUBE-HUAWEI/Drivers/STM32L4xx_HAL_Driver/Src\stm32l4xx_hal.c **** 
  97:D:/fchai/work/i-cube/I-CUBE-HUAWEI/Drivers/STM32L4xx_HAL_Driver/Src\stm32l4xx_hal.c **** /* Exported functions --------------------------------------------------------*/
  98:D:/fchai/work/i-cube/I-CUBE-HUAWEI/Drivers/STM32L4xx_HAL_Driver/Src\stm32l4xx_hal.c **** 
  99:D:/fchai/work/i-cube/I-CUBE-HUAWEI/Drivers/STM32L4xx_HAL_Driver/Src\stm32l4xx_hal.c **** /** @defgroup HAL_Exported_Functions HAL Exported Functions
 100:D:/fchai/work/i-cube/I-CUBE-HUAWEI/Drivers/STM32L4xx_HAL_Driver/Src\stm32l4xx_hal.c ****   * @{
 101:D:/fchai/work/i-cube/I-CUBE-HUAWEI/Drivers/STM32L4xx_HAL_Driver/Src\stm32l4xx_hal.c ****   */
 102:D:/fchai/work/i-cube/I-CUBE-HUAWEI/Drivers/STM32L4xx_HAL_Driver/Src\stm32l4xx_hal.c **** 
 103:D:/fchai/work/i-cube/I-CUBE-HUAWEI/Drivers/STM32L4xx_HAL_Driver/Src\stm32l4xx_hal.c **** /** @defgroup HAL_Exported_Functions_Group1 Initialization and de-initialization Functions
 104:D:/fchai/work/i-cube/I-CUBE-HUAWEI/Drivers/STM32L4xx_HAL_Driver/Src\stm32l4xx_hal.c ****  *  @brief    Initialization and de-initialization functions
 105:D:/fchai/work/i-cube/I-CUBE-HUAWEI/Drivers/STM32L4xx_HAL_Driver/Src\stm32l4xx_hal.c ****  *
 106:D:/fchai/work/i-cube/I-CUBE-HUAWEI/Drivers/STM32L4xx_HAL_Driver/Src\stm32l4xx_hal.c **** @verbatim
 107:D:/fchai/work/i-cube/I-CUBE-HUAWEI/Drivers/STM32L4xx_HAL_Driver/Src\stm32l4xx_hal.c ****  ===============================================================================
 108:D:/fchai/work/i-cube/I-CUBE-HUAWEI/Drivers/STM32L4xx_HAL_Driver/Src\stm32l4xx_hal.c ****               ##### Initialization and de-initialization functions #####
 109:D:/fchai/work/i-cube/I-CUBE-HUAWEI/Drivers/STM32L4xx_HAL_Driver/Src\stm32l4xx_hal.c ****  ===============================================================================
 110:D:/fchai/work/i-cube/I-CUBE-HUAWEI/Drivers/STM32L4xx_HAL_Driver/Src\stm32l4xx_hal.c ****     [..]  This section provides functions allowing to:
 111:D:/fchai/work/i-cube/I-CUBE-HUAWEI/Drivers/STM32L4xx_HAL_Driver/Src\stm32l4xx_hal.c ****       (+) Initialize the Flash interface, the NVIC allocation and initial time base
 112:D:/fchai/work/i-cube/I-CUBE-HUAWEI/Drivers/STM32L4xx_HAL_Driver/Src\stm32l4xx_hal.c ****           clock configuration.
 113:D:/fchai/work/i-cube/I-CUBE-HUAWEI/Drivers/STM32L4xx_HAL_Driver/Src\stm32l4xx_hal.c ****       (+) De-initialize common part of the HAL.
 114:D:/fchai/work/i-cube/I-CUBE-HUAWEI/Drivers/STM32L4xx_HAL_Driver/Src\stm32l4xx_hal.c ****       (+) Configure the time base source to have 1ms time base with a dedicated
 115:D:/fchai/work/i-cube/I-CUBE-HUAWEI/Drivers/STM32L4xx_HAL_Driver/Src\stm32l4xx_hal.c ****           Tick interrupt priority.
 116:D:/fchai/work/i-cube/I-CUBE-HUAWEI/Drivers/STM32L4xx_HAL_Driver/Src\stm32l4xx_hal.c ****         (++) SysTick timer is used by default as source of time base, but user
 117:D:/fchai/work/i-cube/I-CUBE-HUAWEI/Drivers/STM32L4xx_HAL_Driver/Src\stm32l4xx_hal.c ****              can eventually implement his proper time base source (a general purpose
 118:D:/fchai/work/i-cube/I-CUBE-HUAWEI/Drivers/STM32L4xx_HAL_Driver/Src\stm32l4xx_hal.c ****              timer for example or other time source), keeping in mind that Time base
 119:D:/fchai/work/i-cube/I-CUBE-HUAWEI/Drivers/STM32L4xx_HAL_Driver/Src\stm32l4xx_hal.c ****              duration should be kept 1ms since PPP_TIMEOUT_VALUEs are defined and
 120:D:/fchai/work/i-cube/I-CUBE-HUAWEI/Drivers/STM32L4xx_HAL_Driver/Src\stm32l4xx_hal.c ****              handled in milliseconds basis.
 121:D:/fchai/work/i-cube/I-CUBE-HUAWEI/Drivers/STM32L4xx_HAL_Driver/Src\stm32l4xx_hal.c ****         (++) Time base configuration function (HAL_InitTick ()) is called automatically
 122:D:/fchai/work/i-cube/I-CUBE-HUAWEI/Drivers/STM32L4xx_HAL_Driver/Src\stm32l4xx_hal.c ****              at the beginning of the program after reset by HAL_Init() or at any time
 123:D:/fchai/work/i-cube/I-CUBE-HUAWEI/Drivers/STM32L4xx_HAL_Driver/Src\stm32l4xx_hal.c ****              when clock is configured, by HAL_RCC_ClockConfig().
 124:D:/fchai/work/i-cube/I-CUBE-HUAWEI/Drivers/STM32L4xx_HAL_Driver/Src\stm32l4xx_hal.c ****         (++) Source of time base is configured  to generate interrupts at regular
 125:D:/fchai/work/i-cube/I-CUBE-HUAWEI/Drivers/STM32L4xx_HAL_Driver/Src\stm32l4xx_hal.c ****              time intervals. Care must be taken if HAL_Delay() is called from a
 126:D:/fchai/work/i-cube/I-CUBE-HUAWEI/Drivers/STM32L4xx_HAL_Driver/Src\stm32l4xx_hal.c ****              peripheral ISR process, the Tick interrupt line must have higher priority
 127:D:/fchai/work/i-cube/I-CUBE-HUAWEI/Drivers/STM32L4xx_HAL_Driver/Src\stm32l4xx_hal.c ****             (numerically lower) than the peripheral interrupt. Otherwise the caller
 128:D:/fchai/work/i-cube/I-CUBE-HUAWEI/Drivers/STM32L4xx_HAL_Driver/Src\stm32l4xx_hal.c ****             ISR process will be blocked.
 129:D:/fchai/work/i-cube/I-CUBE-HUAWEI/Drivers/STM32L4xx_HAL_Driver/Src\stm32l4xx_hal.c ****        (++) functions affecting time base configurations are declared as __weak
 130:D:/fchai/work/i-cube/I-CUBE-HUAWEI/Drivers/STM32L4xx_HAL_Driver/Src\stm32l4xx_hal.c ****              to make  override possible  in case of other  implementations in user file.
 131:D:/fchai/work/i-cube/I-CUBE-HUAWEI/Drivers/STM32L4xx_HAL_Driver/Src\stm32l4xx_hal.c **** @endverbatim
 132:D:/fchai/work/i-cube/I-CUBE-HUAWEI/Drivers/STM32L4xx_HAL_Driver/Src\stm32l4xx_hal.c ****   * @{
 133:D:/fchai/work/i-cube/I-CUBE-HUAWEI/Drivers/STM32L4xx_HAL_Driver/Src\stm32l4xx_hal.c ****   */
 134:D:/fchai/work/i-cube/I-CUBE-HUAWEI/Drivers/STM32L4xx_HAL_Driver/Src\stm32l4xx_hal.c **** 
 135:D:/fchai/work/i-cube/I-CUBE-HUAWEI/Drivers/STM32L4xx_HAL_Driver/Src\stm32l4xx_hal.c **** /**
 136:D:/fchai/work/i-cube/I-CUBE-HUAWEI/Drivers/STM32L4xx_HAL_Driver/Src\stm32l4xx_hal.c ****   * @brief  Configure the Flash prefetch, the Instruction and Data caches,
 137:D:/fchai/work/i-cube/I-CUBE-HUAWEI/Drivers/STM32L4xx_HAL_Driver/Src\stm32l4xx_hal.c ****   *         the time base source, NVIC and any required global low level hardware
 138:D:/fchai/work/i-cube/I-CUBE-HUAWEI/Drivers/STM32L4xx_HAL_Driver/Src\stm32l4xx_hal.c ****   *         by calling the HAL_MspInit() callback function to be optionally defined in user file
 139:D:/fchai/work/i-cube/I-CUBE-HUAWEI/Drivers/STM32L4xx_HAL_Driver/Src\stm32l4xx_hal.c ****   *         stm32l4xx_hal_msp.c.
 140:D:/fchai/work/i-cube/I-CUBE-HUAWEI/Drivers/STM32L4xx_HAL_Driver/Src\stm32l4xx_hal.c ****   *
 141:D:/fchai/work/i-cube/I-CUBE-HUAWEI/Drivers/STM32L4xx_HAL_Driver/Src\stm32l4xx_hal.c ****   * @note   HAL_Init() function is called at the beginning of program after reset and before
 142:D:/fchai/work/i-cube/I-CUBE-HUAWEI/Drivers/STM32L4xx_HAL_Driver/Src\stm32l4xx_hal.c ****   *         the clock configuration.
 143:D:/fchai/work/i-cube/I-CUBE-HUAWEI/Drivers/STM32L4xx_HAL_Driver/Src\stm32l4xx_hal.c ****   *
ARM GAS  T:\msys\tmp\ccK9B02h.s 			page 4


 144:D:/fchai/work/i-cube/I-CUBE-HUAWEI/Drivers/STM32L4xx_HAL_Driver/Src\stm32l4xx_hal.c ****   * @note   In the default implementation the System Timer (Systick) is used as source of time base
 145:D:/fchai/work/i-cube/I-CUBE-HUAWEI/Drivers/STM32L4xx_HAL_Driver/Src\stm32l4xx_hal.c ****   *         The Systick configuration is based on MSI clock, as MSI is the clock
 146:D:/fchai/work/i-cube/I-CUBE-HUAWEI/Drivers/STM32L4xx_HAL_Driver/Src\stm32l4xx_hal.c ****   *         used after a system Reset and the NVIC configuration is set to Priority group 4.
 147:D:/fchai/work/i-cube/I-CUBE-HUAWEI/Drivers/STM32L4xx_HAL_Driver/Src\stm32l4xx_hal.c ****   *         Once done, time base tick starts incrementing: the tick variable counter is incremented
 148:D:/fchai/work/i-cube/I-CUBE-HUAWEI/Drivers/STM32L4xx_HAL_Driver/Src\stm32l4xx_hal.c ****   *         each 1ms in the SysTick_Handler() interrupt handler.
 149:D:/fchai/work/i-cube/I-CUBE-HUAWEI/Drivers/STM32L4xx_HAL_Driver/Src\stm32l4xx_hal.c ****   *
 150:D:/fchai/work/i-cube/I-CUBE-HUAWEI/Drivers/STM32L4xx_HAL_Driver/Src\stm32l4xx_hal.c ****   * @retval HAL status
 151:D:/fchai/work/i-cube/I-CUBE-HUAWEI/Drivers/STM32L4xx_HAL_Driver/Src\stm32l4xx_hal.c ****   */
 152:D:/fchai/work/i-cube/I-CUBE-HUAWEI/Drivers/STM32L4xx_HAL_Driver/Src\stm32l4xx_hal.c **** HAL_StatusTypeDef HAL_Init(void)
 153:D:/fchai/work/i-cube/I-CUBE-HUAWEI/Drivers/STM32L4xx_HAL_Driver/Src\stm32l4xx_hal.c **** {
 154:D:/fchai/work/i-cube/I-CUBE-HUAWEI/Drivers/STM32L4xx_HAL_Driver/Src\stm32l4xx_hal.c ****   HAL_StatusTypeDef  status = HAL_OK;
 155:D:/fchai/work/i-cube/I-CUBE-HUAWEI/Drivers/STM32L4xx_HAL_Driver/Src\stm32l4xx_hal.c **** 
 156:D:/fchai/work/i-cube/I-CUBE-HUAWEI/Drivers/STM32L4xx_HAL_Driver/Src\stm32l4xx_hal.c ****   /* Configure Flash prefetch, Instruction cache, Data cache */
 157:D:/fchai/work/i-cube/I-CUBE-HUAWEI/Drivers/STM32L4xx_HAL_Driver/Src\stm32l4xx_hal.c ****   /* Default configuration at reset is:                      */
 158:D:/fchai/work/i-cube/I-CUBE-HUAWEI/Drivers/STM32L4xx_HAL_Driver/Src\stm32l4xx_hal.c ****   /* - Prefetch disabled                                     */
 159:D:/fchai/work/i-cube/I-CUBE-HUAWEI/Drivers/STM32L4xx_HAL_Driver/Src\stm32l4xx_hal.c ****   /* - Instruction cache enabled                             */
 160:D:/fchai/work/i-cube/I-CUBE-HUAWEI/Drivers/STM32L4xx_HAL_Driver/Src\stm32l4xx_hal.c ****   /* - Data cache enabled                                    */
 161:D:/fchai/work/i-cube/I-CUBE-HUAWEI/Drivers/STM32L4xx_HAL_Driver/Src\stm32l4xx_hal.c **** #if (INSTRUCTION_CACHE_ENABLE == 0)
 162:D:/fchai/work/i-cube/I-CUBE-HUAWEI/Drivers/STM32L4xx_HAL_Driver/Src\stm32l4xx_hal.c ****    __HAL_FLASH_INSTRUCTION_CACHE_DISABLE();
 163:D:/fchai/work/i-cube/I-CUBE-HUAWEI/Drivers/STM32L4xx_HAL_Driver/Src\stm32l4xx_hal.c **** #endif /* INSTRUCTION_CACHE_ENABLE */
 164:D:/fchai/work/i-cube/I-CUBE-HUAWEI/Drivers/STM32L4xx_HAL_Driver/Src\stm32l4xx_hal.c **** 
 165:D:/fchai/work/i-cube/I-CUBE-HUAWEI/Drivers/STM32L4xx_HAL_Driver/Src\stm32l4xx_hal.c **** #if (DATA_CACHE_ENABLE == 0)
 166:D:/fchai/work/i-cube/I-CUBE-HUAWEI/Drivers/STM32L4xx_HAL_Driver/Src\stm32l4xx_hal.c ****    __HAL_FLASH_DATA_CACHE_DISABLE();
 167:D:/fchai/work/i-cube/I-CUBE-HUAWEI/Drivers/STM32L4xx_HAL_Driver/Src\stm32l4xx_hal.c **** #endif /* DATA_CACHE_ENABLE */
 168:D:/fchai/work/i-cube/I-CUBE-HUAWEI/Drivers/STM32L4xx_HAL_Driver/Src\stm32l4xx_hal.c **** 
 169:D:/fchai/work/i-cube/I-CUBE-HUAWEI/Drivers/STM32L4xx_HAL_Driver/Src\stm32l4xx_hal.c **** #if (PREFETCH_ENABLE != 0)
 170:D:/fchai/work/i-cube/I-CUBE-HUAWEI/Drivers/STM32L4xx_HAL_Driver/Src\stm32l4xx_hal.c ****   __HAL_FLASH_PREFETCH_BUFFER_ENABLE();
 171:D:/fchai/work/i-cube/I-CUBE-HUAWEI/Drivers/STM32L4xx_HAL_Driver/Src\stm32l4xx_hal.c **** #endif /* PREFETCH_ENABLE */
 172:D:/fchai/work/i-cube/I-CUBE-HUAWEI/Drivers/STM32L4xx_HAL_Driver/Src\stm32l4xx_hal.c **** 
 173:D:/fchai/work/i-cube/I-CUBE-HUAWEI/Drivers/STM32L4xx_HAL_Driver/Src\stm32l4xx_hal.c ****   /* Set Interrupt Group Priority */
 174:D:/fchai/work/i-cube/I-CUBE-HUAWEI/Drivers/STM32L4xx_HAL_Driver/Src\stm32l4xx_hal.c ****   HAL_NVIC_SetPriorityGrouping(NVIC_PRIORITYGROUP_4);
 175:D:/fchai/work/i-cube/I-CUBE-HUAWEI/Drivers/STM32L4xx_HAL_Driver/Src\stm32l4xx_hal.c **** 
 176:D:/fchai/work/i-cube/I-CUBE-HUAWEI/Drivers/STM32L4xx_HAL_Driver/Src\stm32l4xx_hal.c ****   /* Use SysTick as time base source and configure 1ms tick (default clock after Reset is MSI) */
 177:D:/fchai/work/i-cube/I-CUBE-HUAWEI/Drivers/STM32L4xx_HAL_Driver/Src\stm32l4xx_hal.c ****   if (HAL_InitTick(TICK_INT_PRIORITY) != HAL_OK)
 178:D:/fchai/work/i-cube/I-CUBE-HUAWEI/Drivers/STM32L4xx_HAL_Driver/Src\stm32l4xx_hal.c ****   {
 179:D:/fchai/work/i-cube/I-CUBE-HUAWEI/Drivers/STM32L4xx_HAL_Driver/Src\stm32l4xx_hal.c ****     status = HAL_ERROR;
 180:D:/fchai/work/i-cube/I-CUBE-HUAWEI/Drivers/STM32L4xx_HAL_Driver/Src\stm32l4xx_hal.c ****   }
 181:D:/fchai/work/i-cube/I-CUBE-HUAWEI/Drivers/STM32L4xx_HAL_Driver/Src\stm32l4xx_hal.c ****   else
 182:D:/fchai/work/i-cube/I-CUBE-HUAWEI/Drivers/STM32L4xx_HAL_Driver/Src\stm32l4xx_hal.c ****   {
 183:D:/fchai/work/i-cube/I-CUBE-HUAWEI/Drivers/STM32L4xx_HAL_Driver/Src\stm32l4xx_hal.c ****     /* Init the low level hardware */
 184:D:/fchai/work/i-cube/I-CUBE-HUAWEI/Drivers/STM32L4xx_HAL_Driver/Src\stm32l4xx_hal.c ****     HAL_MspInit();
 185:D:/fchai/work/i-cube/I-CUBE-HUAWEI/Drivers/STM32L4xx_HAL_Driver/Src\stm32l4xx_hal.c ****   }
 186:D:/fchai/work/i-cube/I-CUBE-HUAWEI/Drivers/STM32L4xx_HAL_Driver/Src\stm32l4xx_hal.c **** 
 187:D:/fchai/work/i-cube/I-CUBE-HUAWEI/Drivers/STM32L4xx_HAL_Driver/Src\stm32l4xx_hal.c ****   /* Return function status */
 188:D:/fchai/work/i-cube/I-CUBE-HUAWEI/Drivers/STM32L4xx_HAL_Driver/Src\stm32l4xx_hal.c ****   return status;
 189:D:/fchai/work/i-cube/I-CUBE-HUAWEI/Drivers/STM32L4xx_HAL_Driver/Src\stm32l4xx_hal.c **** }
 190:D:/fchai/work/i-cube/I-CUBE-HUAWEI/Drivers/STM32L4xx_HAL_Driver/Src\stm32l4xx_hal.c **** 
 191:D:/fchai/work/i-cube/I-CUBE-HUAWEI/Drivers/STM32L4xx_HAL_Driver/Src\stm32l4xx_hal.c **** /**
 192:D:/fchai/work/i-cube/I-CUBE-HUAWEI/Drivers/STM32L4xx_HAL_Driver/Src\stm32l4xx_hal.c ****   * @brief De-initialize common part of the HAL and stop the source of time base.
 193:D:/fchai/work/i-cube/I-CUBE-HUAWEI/Drivers/STM32L4xx_HAL_Driver/Src\stm32l4xx_hal.c ****   * @note This function is optional.
 194:D:/fchai/work/i-cube/I-CUBE-HUAWEI/Drivers/STM32L4xx_HAL_Driver/Src\stm32l4xx_hal.c ****   * @retval HAL status
 195:D:/fchai/work/i-cube/I-CUBE-HUAWEI/Drivers/STM32L4xx_HAL_Driver/Src\stm32l4xx_hal.c ****   */
 196:D:/fchai/work/i-cube/I-CUBE-HUAWEI/Drivers/STM32L4xx_HAL_Driver/Src\stm32l4xx_hal.c **** HAL_StatusTypeDef HAL_DeInit(void)
 197:D:/fchai/work/i-cube/I-CUBE-HUAWEI/Drivers/STM32L4xx_HAL_Driver/Src\stm32l4xx_hal.c **** {
 198:D:/fchai/work/i-cube/I-CUBE-HUAWEI/Drivers/STM32L4xx_HAL_Driver/Src\stm32l4xx_hal.c ****   /* Reset of all peripherals */
 199:D:/fchai/work/i-cube/I-CUBE-HUAWEI/Drivers/STM32L4xx_HAL_Driver/Src\stm32l4xx_hal.c ****   __HAL_RCC_APB1_FORCE_RESET();
 200:D:/fchai/work/i-cube/I-CUBE-HUAWEI/Drivers/STM32L4xx_HAL_Driver/Src\stm32l4xx_hal.c ****   __HAL_RCC_APB1_RELEASE_RESET();
ARM GAS  T:\msys\tmp\ccK9B02h.s 			page 5


 201:D:/fchai/work/i-cube/I-CUBE-HUAWEI/Drivers/STM32L4xx_HAL_Driver/Src\stm32l4xx_hal.c **** 
 202:D:/fchai/work/i-cube/I-CUBE-HUAWEI/Drivers/STM32L4xx_HAL_Driver/Src\stm32l4xx_hal.c ****   __HAL_RCC_APB2_FORCE_RESET();
 203:D:/fchai/work/i-cube/I-CUBE-HUAWEI/Drivers/STM32L4xx_HAL_Driver/Src\stm32l4xx_hal.c ****   __HAL_RCC_APB2_RELEASE_RESET();
 204:D:/fchai/work/i-cube/I-CUBE-HUAWEI/Drivers/STM32L4xx_HAL_Driver/Src\stm32l4xx_hal.c **** 
 205:D:/fchai/work/i-cube/I-CUBE-HUAWEI/Drivers/STM32L4xx_HAL_Driver/Src\stm32l4xx_hal.c ****   __HAL_RCC_AHB1_FORCE_RESET();
 206:D:/fchai/work/i-cube/I-CUBE-HUAWEI/Drivers/STM32L4xx_HAL_Driver/Src\stm32l4xx_hal.c ****   __HAL_RCC_AHB1_RELEASE_RESET();
 207:D:/fchai/work/i-cube/I-CUBE-HUAWEI/Drivers/STM32L4xx_HAL_Driver/Src\stm32l4xx_hal.c **** 
 208:D:/fchai/work/i-cube/I-CUBE-HUAWEI/Drivers/STM32L4xx_HAL_Driver/Src\stm32l4xx_hal.c ****   __HAL_RCC_AHB2_FORCE_RESET();
 209:D:/fchai/work/i-cube/I-CUBE-HUAWEI/Drivers/STM32L4xx_HAL_Driver/Src\stm32l4xx_hal.c ****   __HAL_RCC_AHB2_RELEASE_RESET();
 210:D:/fchai/work/i-cube/I-CUBE-HUAWEI/Drivers/STM32L4xx_HAL_Driver/Src\stm32l4xx_hal.c **** 
 211:D:/fchai/work/i-cube/I-CUBE-HUAWEI/Drivers/STM32L4xx_HAL_Driver/Src\stm32l4xx_hal.c ****   __HAL_RCC_AHB3_FORCE_RESET();
 212:D:/fchai/work/i-cube/I-CUBE-HUAWEI/Drivers/STM32L4xx_HAL_Driver/Src\stm32l4xx_hal.c ****   __HAL_RCC_AHB3_RELEASE_RESET();
 213:D:/fchai/work/i-cube/I-CUBE-HUAWEI/Drivers/STM32L4xx_HAL_Driver/Src\stm32l4xx_hal.c **** 
 214:D:/fchai/work/i-cube/I-CUBE-HUAWEI/Drivers/STM32L4xx_HAL_Driver/Src\stm32l4xx_hal.c ****   /* De-Init the low level hardware */
 215:D:/fchai/work/i-cube/I-CUBE-HUAWEI/Drivers/STM32L4xx_HAL_Driver/Src\stm32l4xx_hal.c ****   HAL_MspDeInit();
 216:D:/fchai/work/i-cube/I-CUBE-HUAWEI/Drivers/STM32L4xx_HAL_Driver/Src\stm32l4xx_hal.c **** 
 217:D:/fchai/work/i-cube/I-CUBE-HUAWEI/Drivers/STM32L4xx_HAL_Driver/Src\stm32l4xx_hal.c ****   /* Return function status */
 218:D:/fchai/work/i-cube/I-CUBE-HUAWEI/Drivers/STM32L4xx_HAL_Driver/Src\stm32l4xx_hal.c ****   return HAL_OK;
 219:D:/fchai/work/i-cube/I-CUBE-HUAWEI/Drivers/STM32L4xx_HAL_Driver/Src\stm32l4xx_hal.c **** }
 220:D:/fchai/work/i-cube/I-CUBE-HUAWEI/Drivers/STM32L4xx_HAL_Driver/Src\stm32l4xx_hal.c **** 
 221:D:/fchai/work/i-cube/I-CUBE-HUAWEI/Drivers/STM32L4xx_HAL_Driver/Src\stm32l4xx_hal.c **** /**
 222:D:/fchai/work/i-cube/I-CUBE-HUAWEI/Drivers/STM32L4xx_HAL_Driver/Src\stm32l4xx_hal.c ****   * @brief  Initialize the MSP.
 223:D:/fchai/work/i-cube/I-CUBE-HUAWEI/Drivers/STM32L4xx_HAL_Driver/Src\stm32l4xx_hal.c ****   * @retval None
 224:D:/fchai/work/i-cube/I-CUBE-HUAWEI/Drivers/STM32L4xx_HAL_Driver/Src\stm32l4xx_hal.c ****   */
 225:D:/fchai/work/i-cube/I-CUBE-HUAWEI/Drivers/STM32L4xx_HAL_Driver/Src\stm32l4xx_hal.c **** __weak void HAL_MspInit(void)
 226:D:/fchai/work/i-cube/I-CUBE-HUAWEI/Drivers/STM32L4xx_HAL_Driver/Src\stm32l4xx_hal.c **** {
  30              		.loc 1 226 1 view -0
  31              		.cfi_startproc
  32              		@ args = 0, pretend = 0, frame = 0
  33              		@ frame_needed = 0, uses_anonymous_args = 0
  34              		@ link register save eliminated.
 227:D:/fchai/work/i-cube/I-CUBE-HUAWEI/Drivers/STM32L4xx_HAL_Driver/Src\stm32l4xx_hal.c ****   /* NOTE : This function should not be modified, when the callback is needed,
 228:D:/fchai/work/i-cube/I-CUBE-HUAWEI/Drivers/STM32L4xx_HAL_Driver/Src\stm32l4xx_hal.c ****             the HAL_MspInit could be implemented in the user file
 229:D:/fchai/work/i-cube/I-CUBE-HUAWEI/Drivers/STM32L4xx_HAL_Driver/Src\stm32l4xx_hal.c ****    */
 230:D:/fchai/work/i-cube/I-CUBE-HUAWEI/Drivers/STM32L4xx_HAL_Driver/Src\stm32l4xx_hal.c **** }
  35              		.loc 1 230 1 view .LVU1
  36 0000 7047     		bx	lr
  37              		.cfi_endproc
  38              	.LFE125:
  40 0002 00BF     		.section	.text.HAL_MspDeInit,"ax",%progbits
  41              		.align	1
  42              		.p2align 2,,3
  43              		.weak	HAL_MspDeInit
  44              		.syntax unified
  45              		.thumb
  46              		.thumb_func
  47              		.fpu fpv4-sp-d16
  49              	HAL_MspDeInit:
  50              	.LFB160:
  51              		.cfi_startproc
  52              		@ args = 0, pretend = 0, frame = 0
  53              		@ frame_needed = 0, uses_anonymous_args = 0
  54              		@ link register save eliminated.
  55 0000 7047     		bx	lr
  56              		.cfi_endproc
  57              	.LFE160:
  59 0002 00BF     		.section	.text.HAL_DeInit,"ax",%progbits
ARM GAS  T:\msys\tmp\ccK9B02h.s 			page 6


  60              		.align	1
  61              		.p2align 2,,3
  62              		.global	HAL_DeInit
  63              		.syntax unified
  64              		.thumb
  65              		.thumb_func
  66              		.fpu fpv4-sp-d16
  68              	HAL_DeInit:
  69              	.LFB124:
 197:D:/fchai/work/i-cube/I-CUBE-HUAWEI/Drivers/STM32L4xx_HAL_Driver/Src\stm32l4xx_hal.c ****   /* Reset of all peripherals */
  70              		.loc 1 197 1 view -0
  71              		.cfi_startproc
  72              		@ args = 0, pretend = 0, frame = 0
  73              		@ frame_needed = 0, uses_anonymous_args = 0
 199:D:/fchai/work/i-cube/I-CUBE-HUAWEI/Drivers/STM32L4xx_HAL_Driver/Src\stm32l4xx_hal.c ****   __HAL_RCC_APB1_RELEASE_RESET();
  74              		.loc 1 199 3 view .LVU3
 197:D:/fchai/work/i-cube/I-CUBE-HUAWEI/Drivers/STM32L4xx_HAL_Driver/Src\stm32l4xx_hal.c ****   /* Reset of all peripherals */
  75              		.loc 1 197 1 is_stmt 0 view .LVU4
  76 0000 10B5     		push	{r4, lr}
  77              	.LCFI0:
  78              		.cfi_def_cfa_offset 8
  79              		.cfi_offset 4, -8
  80              		.cfi_offset 14, -4
 199:D:/fchai/work/i-cube/I-CUBE-HUAWEI/Drivers/STM32L4xx_HAL_Driver/Src\stm32l4xx_hal.c ****   __HAL_RCC_APB1_RELEASE_RESET();
  81              		.loc 1 199 3 view .LVU5
  82 0002 094B     		ldr	r3, .L6
  83 0004 4FF0FF32 		mov	r2, #-1
 200:D:/fchai/work/i-cube/I-CUBE-HUAWEI/Drivers/STM32L4xx_HAL_Driver/Src\stm32l4xx_hal.c **** 
  84              		.loc 1 200 3 view .LVU6
  85 0008 0024     		movs	r4, #0
 199:D:/fchai/work/i-cube/I-CUBE-HUAWEI/Drivers/STM32L4xx_HAL_Driver/Src\stm32l4xx_hal.c ****   __HAL_RCC_APB1_RELEASE_RESET();
  86              		.loc 1 199 3 view .LVU7
  87 000a 9A63     		str	r2, [r3, #56]
 200:D:/fchai/work/i-cube/I-CUBE-HUAWEI/Drivers/STM32L4xx_HAL_Driver/Src\stm32l4xx_hal.c **** 
  88              		.loc 1 200 3 is_stmt 1 view .LVU8
  89 000c 9C63     		str	r4, [r3, #56]
 202:D:/fchai/work/i-cube/I-CUBE-HUAWEI/Drivers/STM32L4xx_HAL_Driver/Src\stm32l4xx_hal.c ****   __HAL_RCC_APB2_RELEASE_RESET();
  90              		.loc 1 202 3 view .LVU9
  91 000e 1A64     		str	r2, [r3, #64]
 203:D:/fchai/work/i-cube/I-CUBE-HUAWEI/Drivers/STM32L4xx_HAL_Driver/Src\stm32l4xx_hal.c **** 
  92              		.loc 1 203 3 view .LVU10
  93 0010 1C64     		str	r4, [r3, #64]
 205:D:/fchai/work/i-cube/I-CUBE-HUAWEI/Drivers/STM32L4xx_HAL_Driver/Src\stm32l4xx_hal.c ****   __HAL_RCC_AHB1_RELEASE_RESET();
  94              		.loc 1 205 3 view .LVU11
  95 0012 9A62     		str	r2, [r3, #40]
 206:D:/fchai/work/i-cube/I-CUBE-HUAWEI/Drivers/STM32L4xx_HAL_Driver/Src\stm32l4xx_hal.c **** 
  96              		.loc 1 206 3 view .LVU12
  97 0014 9C62     		str	r4, [r3, #40]
 208:D:/fchai/work/i-cube/I-CUBE-HUAWEI/Drivers/STM32L4xx_HAL_Driver/Src\stm32l4xx_hal.c ****   __HAL_RCC_AHB2_RELEASE_RESET();
  98              		.loc 1 208 3 view .LVU13
  99 0016 DA62     		str	r2, [r3, #44]
 209:D:/fchai/work/i-cube/I-CUBE-HUAWEI/Drivers/STM32L4xx_HAL_Driver/Src\stm32l4xx_hal.c **** 
 100              		.loc 1 209 3 view .LVU14
 101 0018 DC62     		str	r4, [r3, #44]
 211:D:/fchai/work/i-cube/I-CUBE-HUAWEI/Drivers/STM32L4xx_HAL_Driver/Src\stm32l4xx_hal.c ****   __HAL_RCC_AHB3_RELEASE_RESET();
 102              		.loc 1 211 3 view .LVU15
 103 001a 1A63     		str	r2, [r3, #48]
ARM GAS  T:\msys\tmp\ccK9B02h.s 			page 7


 212:D:/fchai/work/i-cube/I-CUBE-HUAWEI/Drivers/STM32L4xx_HAL_Driver/Src\stm32l4xx_hal.c **** 
 104              		.loc 1 212 3 view .LVU16
 105 001c 1C63     		str	r4, [r3, #48]
 215:D:/fchai/work/i-cube/I-CUBE-HUAWEI/Drivers/STM32L4xx_HAL_Driver/Src\stm32l4xx_hal.c **** 
 106              		.loc 1 215 3 view .LVU17
 107 001e FFF7FEFF 		bl	HAL_MspDeInit
 108              	.LVL0:
 218:D:/fchai/work/i-cube/I-CUBE-HUAWEI/Drivers/STM32L4xx_HAL_Driver/Src\stm32l4xx_hal.c **** }
 109              		.loc 1 218 3 view .LVU18
 219:D:/fchai/work/i-cube/I-CUBE-HUAWEI/Drivers/STM32L4xx_HAL_Driver/Src\stm32l4xx_hal.c **** 
 110              		.loc 1 219 1 is_stmt 0 view .LVU19
 111 0022 2046     		mov	r0, r4
 112 0024 10BD     		pop	{r4, pc}
 113              	.L7:
 114 0026 00BF     		.align	2
 115              	.L6:
 116 0028 00100240 		.word	1073876992
 117              		.cfi_endproc
 118              	.LFE124:
 120              		.section	.text.HAL_InitTick,"ax",%progbits
 121              		.align	1
 122              		.p2align 2,,3
 123              		.weak	HAL_InitTick
 124              		.syntax unified
 125              		.thumb
 126              		.thumb_func
 127              		.fpu fpv4-sp-d16
 129              	HAL_InitTick:
 130              	.LVL1:
 131              	.LFB127:
 231:D:/fchai/work/i-cube/I-CUBE-HUAWEI/Drivers/STM32L4xx_HAL_Driver/Src\stm32l4xx_hal.c **** 
 232:D:/fchai/work/i-cube/I-CUBE-HUAWEI/Drivers/STM32L4xx_HAL_Driver/Src\stm32l4xx_hal.c **** /**
 233:D:/fchai/work/i-cube/I-CUBE-HUAWEI/Drivers/STM32L4xx_HAL_Driver/Src\stm32l4xx_hal.c ****   * @brief  DeInitialize the MSP.
 234:D:/fchai/work/i-cube/I-CUBE-HUAWEI/Drivers/STM32L4xx_HAL_Driver/Src\stm32l4xx_hal.c ****   * @retval None
 235:D:/fchai/work/i-cube/I-CUBE-HUAWEI/Drivers/STM32L4xx_HAL_Driver/Src\stm32l4xx_hal.c ****   */
 236:D:/fchai/work/i-cube/I-CUBE-HUAWEI/Drivers/STM32L4xx_HAL_Driver/Src\stm32l4xx_hal.c **** __weak void HAL_MspDeInit(void)
 237:D:/fchai/work/i-cube/I-CUBE-HUAWEI/Drivers/STM32L4xx_HAL_Driver/Src\stm32l4xx_hal.c **** {
 238:D:/fchai/work/i-cube/I-CUBE-HUAWEI/Drivers/STM32L4xx_HAL_Driver/Src\stm32l4xx_hal.c ****   /* NOTE : This function should not be modified, when the callback is needed,
 239:D:/fchai/work/i-cube/I-CUBE-HUAWEI/Drivers/STM32L4xx_HAL_Driver/Src\stm32l4xx_hal.c ****             the HAL_MspDeInit could be implemented in the user file
 240:D:/fchai/work/i-cube/I-CUBE-HUAWEI/Drivers/STM32L4xx_HAL_Driver/Src\stm32l4xx_hal.c ****    */
 241:D:/fchai/work/i-cube/I-CUBE-HUAWEI/Drivers/STM32L4xx_HAL_Driver/Src\stm32l4xx_hal.c **** }
 242:D:/fchai/work/i-cube/I-CUBE-HUAWEI/Drivers/STM32L4xx_HAL_Driver/Src\stm32l4xx_hal.c **** 
 243:D:/fchai/work/i-cube/I-CUBE-HUAWEI/Drivers/STM32L4xx_HAL_Driver/Src\stm32l4xx_hal.c **** /**
 244:D:/fchai/work/i-cube/I-CUBE-HUAWEI/Drivers/STM32L4xx_HAL_Driver/Src\stm32l4xx_hal.c ****   * @brief This function configures the source of the time base:
 245:D:/fchai/work/i-cube/I-CUBE-HUAWEI/Drivers/STM32L4xx_HAL_Driver/Src\stm32l4xx_hal.c ****   *        The time source is configured to have 1ms time base with a dedicated
 246:D:/fchai/work/i-cube/I-CUBE-HUAWEI/Drivers/STM32L4xx_HAL_Driver/Src\stm32l4xx_hal.c ****   *        Tick interrupt priority.
 247:D:/fchai/work/i-cube/I-CUBE-HUAWEI/Drivers/STM32L4xx_HAL_Driver/Src\stm32l4xx_hal.c ****   * @note This function is called  automatically at the beginning of program after
 248:D:/fchai/work/i-cube/I-CUBE-HUAWEI/Drivers/STM32L4xx_HAL_Driver/Src\stm32l4xx_hal.c ****   *       reset by HAL_Init() or at any time when clock is reconfigured  by HAL_RCC_ClockConfig().
 249:D:/fchai/work/i-cube/I-CUBE-HUAWEI/Drivers/STM32L4xx_HAL_Driver/Src\stm32l4xx_hal.c ****   * @note In the default implementation, SysTick timer is the source of time base.
 250:D:/fchai/work/i-cube/I-CUBE-HUAWEI/Drivers/STM32L4xx_HAL_Driver/Src\stm32l4xx_hal.c ****   *       It is used to generate interrupts at regular time intervals.
 251:D:/fchai/work/i-cube/I-CUBE-HUAWEI/Drivers/STM32L4xx_HAL_Driver/Src\stm32l4xx_hal.c ****   *       Care must be taken if HAL_Delay() is called from a peripheral ISR process,
 252:D:/fchai/work/i-cube/I-CUBE-HUAWEI/Drivers/STM32L4xx_HAL_Driver/Src\stm32l4xx_hal.c ****   *       The SysTick interrupt must have higher priority (numerically lower)
 253:D:/fchai/work/i-cube/I-CUBE-HUAWEI/Drivers/STM32L4xx_HAL_Driver/Src\stm32l4xx_hal.c ****   *       than the peripheral interrupt. Otherwise the caller ISR process will be blocked.
 254:D:/fchai/work/i-cube/I-CUBE-HUAWEI/Drivers/STM32L4xx_HAL_Driver/Src\stm32l4xx_hal.c ****   *       The function is declared as __weak  to be overwritten  in case of other
 255:D:/fchai/work/i-cube/I-CUBE-HUAWEI/Drivers/STM32L4xx_HAL_Driver/Src\stm32l4xx_hal.c ****   *       implementation  in user file.
 256:D:/fchai/work/i-cube/I-CUBE-HUAWEI/Drivers/STM32L4xx_HAL_Driver/Src\stm32l4xx_hal.c ****   * @param TickPriority  Tick interrupt priority.
 257:D:/fchai/work/i-cube/I-CUBE-HUAWEI/Drivers/STM32L4xx_HAL_Driver/Src\stm32l4xx_hal.c ****   * @retval HAL status
ARM GAS  T:\msys\tmp\ccK9B02h.s 			page 8


 258:D:/fchai/work/i-cube/I-CUBE-HUAWEI/Drivers/STM32L4xx_HAL_Driver/Src\stm32l4xx_hal.c ****   */
 259:D:/fchai/work/i-cube/I-CUBE-HUAWEI/Drivers/STM32L4xx_HAL_Driver/Src\stm32l4xx_hal.c **** __weak HAL_StatusTypeDef HAL_InitTick(uint32_t TickPriority)
 260:D:/fchai/work/i-cube/I-CUBE-HUAWEI/Drivers/STM32L4xx_HAL_Driver/Src\stm32l4xx_hal.c **** {
 132              		.loc 1 260 1 is_stmt 1 view -0
 133              		.cfi_startproc
 134              		@ args = 0, pretend = 0, frame = 0
 135              		@ frame_needed = 0, uses_anonymous_args = 0
 261:D:/fchai/work/i-cube/I-CUBE-HUAWEI/Drivers/STM32L4xx_HAL_Driver/Src\stm32l4xx_hal.c ****   HAL_StatusTypeDef  status = HAL_OK;
 136              		.loc 1 261 3 view .LVU21
 262:D:/fchai/work/i-cube/I-CUBE-HUAWEI/Drivers/STM32L4xx_HAL_Driver/Src\stm32l4xx_hal.c **** 
 263:D:/fchai/work/i-cube/I-CUBE-HUAWEI/Drivers/STM32L4xx_HAL_Driver/Src\stm32l4xx_hal.c ****   if (uwTickFreq != 0U)
 137              		.loc 1 263 3 view .LVU22
 260:D:/fchai/work/i-cube/I-CUBE-HUAWEI/Drivers/STM32L4xx_HAL_Driver/Src\stm32l4xx_hal.c ****   HAL_StatusTypeDef  status = HAL_OK;
 138              		.loc 1 260 1 is_stmt 0 view .LVU23
 139 0000 38B5     		push	{r3, r4, r5, lr}
 140              	.LCFI1:
 141              		.cfi_def_cfa_offset 16
 142              		.cfi_offset 3, -16
 143              		.cfi_offset 4, -12
 144              		.cfi_offset 5, -8
 145              		.cfi_offset 14, -4
 146              		.loc 1 263 18 view .LVU24
 147 0002 0F4B     		ldr	r3, .L13
 148 0004 1B68     		ldr	r3, [r3]
 149              		.loc 1 263 6 view .LVU25
 150 0006 0BB9     		cbnz	r3, .L9
 151              	.LVL2:
 152              	.L11:
 264:D:/fchai/work/i-cube/I-CUBE-HUAWEI/Drivers/STM32L4xx_HAL_Driver/Src\stm32l4xx_hal.c ****   {
 265:D:/fchai/work/i-cube/I-CUBE-HUAWEI/Drivers/STM32L4xx_HAL_Driver/Src\stm32l4xx_hal.c ****     /*Configure the SysTick to have interrupt in 1ms time basis*/
 266:D:/fchai/work/i-cube/I-CUBE-HUAWEI/Drivers/STM32L4xx_HAL_Driver/Src\stm32l4xx_hal.c ****     if (HAL_SYSTICK_Config(SystemCoreClock / (1000U / uwTickFreq)) == 0U)
 267:D:/fchai/work/i-cube/I-CUBE-HUAWEI/Drivers/STM32L4xx_HAL_Driver/Src\stm32l4xx_hal.c ****     {
 268:D:/fchai/work/i-cube/I-CUBE-HUAWEI/Drivers/STM32L4xx_HAL_Driver/Src\stm32l4xx_hal.c ****       /* Configure the SysTick IRQ priority */
 269:D:/fchai/work/i-cube/I-CUBE-HUAWEI/Drivers/STM32L4xx_HAL_Driver/Src\stm32l4xx_hal.c ****       if (TickPriority < (1UL << __NVIC_PRIO_BITS))
 270:D:/fchai/work/i-cube/I-CUBE-HUAWEI/Drivers/STM32L4xx_HAL_Driver/Src\stm32l4xx_hal.c ****       {
 271:D:/fchai/work/i-cube/I-CUBE-HUAWEI/Drivers/STM32L4xx_HAL_Driver/Src\stm32l4xx_hal.c ****         HAL_NVIC_SetPriority(SysTick_IRQn, TickPriority, 0U);
 272:D:/fchai/work/i-cube/I-CUBE-HUAWEI/Drivers/STM32L4xx_HAL_Driver/Src\stm32l4xx_hal.c ****         uwTickPrio = TickPriority;
 273:D:/fchai/work/i-cube/I-CUBE-HUAWEI/Drivers/STM32L4xx_HAL_Driver/Src\stm32l4xx_hal.c ****       }
 274:D:/fchai/work/i-cube/I-CUBE-HUAWEI/Drivers/STM32L4xx_HAL_Driver/Src\stm32l4xx_hal.c ****       else
 275:D:/fchai/work/i-cube/I-CUBE-HUAWEI/Drivers/STM32L4xx_HAL_Driver/Src\stm32l4xx_hal.c ****       {
 276:D:/fchai/work/i-cube/I-CUBE-HUAWEI/Drivers/STM32L4xx_HAL_Driver/Src\stm32l4xx_hal.c ****         status = HAL_ERROR;
 277:D:/fchai/work/i-cube/I-CUBE-HUAWEI/Drivers/STM32L4xx_HAL_Driver/Src\stm32l4xx_hal.c ****       }
 278:D:/fchai/work/i-cube/I-CUBE-HUAWEI/Drivers/STM32L4xx_HAL_Driver/Src\stm32l4xx_hal.c ****     }
 279:D:/fchai/work/i-cube/I-CUBE-HUAWEI/Drivers/STM32L4xx_HAL_Driver/Src\stm32l4xx_hal.c ****     else
 280:D:/fchai/work/i-cube/I-CUBE-HUAWEI/Drivers/STM32L4xx_HAL_Driver/Src\stm32l4xx_hal.c ****     {
 281:D:/fchai/work/i-cube/I-CUBE-HUAWEI/Drivers/STM32L4xx_HAL_Driver/Src\stm32l4xx_hal.c ****       status = HAL_ERROR;
 282:D:/fchai/work/i-cube/I-CUBE-HUAWEI/Drivers/STM32L4xx_HAL_Driver/Src\stm32l4xx_hal.c ****     }
 283:D:/fchai/work/i-cube/I-CUBE-HUAWEI/Drivers/STM32L4xx_HAL_Driver/Src\stm32l4xx_hal.c ****   }
 284:D:/fchai/work/i-cube/I-CUBE-HUAWEI/Drivers/STM32L4xx_HAL_Driver/Src\stm32l4xx_hal.c ****   else
 285:D:/fchai/work/i-cube/I-CUBE-HUAWEI/Drivers/STM32L4xx_HAL_Driver/Src\stm32l4xx_hal.c ****   {
 286:D:/fchai/work/i-cube/I-CUBE-HUAWEI/Drivers/STM32L4xx_HAL_Driver/Src\stm32l4xx_hal.c ****     status = HAL_ERROR;
 153              		.loc 1 286 12 view .LVU26
 154 0008 0120     		movs	r0, #1
 155              	.LVL3:
 287:D:/fchai/work/i-cube/I-CUBE-HUAWEI/Drivers/STM32L4xx_HAL_Driver/Src\stm32l4xx_hal.c ****   }
 288:D:/fchai/work/i-cube/I-CUBE-HUAWEI/Drivers/STM32L4xx_HAL_Driver/Src\stm32l4xx_hal.c **** 
 289:D:/fchai/work/i-cube/I-CUBE-HUAWEI/Drivers/STM32L4xx_HAL_Driver/Src\stm32l4xx_hal.c ****   /* Return function status */
ARM GAS  T:\msys\tmp\ccK9B02h.s 			page 9


 290:D:/fchai/work/i-cube/I-CUBE-HUAWEI/Drivers/STM32L4xx_HAL_Driver/Src\stm32l4xx_hal.c ****   return status;
 156              		.loc 1 290 3 is_stmt 1 view .LVU27
 291:D:/fchai/work/i-cube/I-CUBE-HUAWEI/Drivers/STM32L4xx_HAL_Driver/Src\stm32l4xx_hal.c **** }
 157              		.loc 1 291 1 is_stmt 0 view .LVU28
 158 000a 38BD     		pop	{r3, r4, r5, pc}
 159              	.LVL4:
 160              	.L9:
 266:D:/fchai/work/i-cube/I-CUBE-HUAWEI/Drivers/STM32L4xx_HAL_Driver/Src\stm32l4xx_hal.c ****     {
 161              		.loc 1 266 5 is_stmt 1 view .LVU29
 266:D:/fchai/work/i-cube/I-CUBE-HUAWEI/Drivers/STM32L4xx_HAL_Driver/Src\stm32l4xx_hal.c ****     {
 162              		.loc 1 266 9 is_stmt 0 view .LVU30
 163 000c 0D49     		ldr	r1, .L13+4
 266:D:/fchai/work/i-cube/I-CUBE-HUAWEI/Drivers/STM32L4xx_HAL_Driver/Src\stm32l4xx_hal.c ****     {
 164              		.loc 1 266 53 view .LVU31
 165 000e 4FF47A72 		mov	r2, #1000
 166 0012 0546     		mov	r5, r0
 167 0014 B2FBF3F3 		udiv	r3, r2, r3
 266:D:/fchai/work/i-cube/I-CUBE-HUAWEI/Drivers/STM32L4xx_HAL_Driver/Src\stm32l4xx_hal.c ****     {
 168              		.loc 1 266 9 view .LVU32
 169 0018 0868     		ldr	r0, [r1]
 170              	.LVL5:
 266:D:/fchai/work/i-cube/I-CUBE-HUAWEI/Drivers/STM32L4xx_HAL_Driver/Src\stm32l4xx_hal.c ****     {
 171              		.loc 1 266 9 view .LVU33
 172 001a B0FBF3F0 		udiv	r0, r0, r3
 173 001e FFF7FEFF 		bl	HAL_SYSTICK_Config
 174              	.LVL6:
 266:D:/fchai/work/i-cube/I-CUBE-HUAWEI/Drivers/STM32L4xx_HAL_Driver/Src\stm32l4xx_hal.c ****     {
 175              		.loc 1 266 8 view .LVU34
 176 0022 0446     		mov	r4, r0
 177 0024 0028     		cmp	r0, #0
 178 0026 EFD1     		bne	.L11
 269:D:/fchai/work/i-cube/I-CUBE-HUAWEI/Drivers/STM32L4xx_HAL_Driver/Src\stm32l4xx_hal.c ****       {
 179              		.loc 1 269 7 is_stmt 1 view .LVU35
 269:D:/fchai/work/i-cube/I-CUBE-HUAWEI/Drivers/STM32L4xx_HAL_Driver/Src\stm32l4xx_hal.c ****       {
 180              		.loc 1 269 10 is_stmt 0 view .LVU36
 181 0028 0F2D     		cmp	r5, #15
 182 002a EDD8     		bhi	.L11
 183              	.LVL7:
 184              	.LBB4:
 185              	.LBI4:
 259:D:/fchai/work/i-cube/I-CUBE-HUAWEI/Drivers/STM32L4xx_HAL_Driver/Src\stm32l4xx_hal.c **** {
 186              		.loc 1 259 26 is_stmt 1 view .LVU37
 187              	.LBB5:
 271:D:/fchai/work/i-cube/I-CUBE-HUAWEI/Drivers/STM32L4xx_HAL_Driver/Src\stm32l4xx_hal.c ****         uwTickPrio = TickPriority;
 188              		.loc 1 271 9 view .LVU38
 189 002c 0246     		mov	r2, r0
 190 002e 2946     		mov	r1, r5
 191 0030 4FF0FF30 		mov	r0, #-1
 192 0034 FFF7FEFF 		bl	HAL_NVIC_SetPriority
 193              	.LVL8:
 272:D:/fchai/work/i-cube/I-CUBE-HUAWEI/Drivers/STM32L4xx_HAL_Driver/Src\stm32l4xx_hal.c ****       }
 194              		.loc 1 272 9 view .LVU39
 272:D:/fchai/work/i-cube/I-CUBE-HUAWEI/Drivers/STM32L4xx_HAL_Driver/Src\stm32l4xx_hal.c ****       }
 195              		.loc 1 272 20 is_stmt 0 view .LVU40
 196 0038 034B     		ldr	r3, .L13+8
 197 003a 2046     		mov	r0, r4
 198 003c 1D60     		str	r5, [r3]
ARM GAS  T:\msys\tmp\ccK9B02h.s 			page 10


 199              	.LVL9:
 290:D:/fchai/work/i-cube/I-CUBE-HUAWEI/Drivers/STM32L4xx_HAL_Driver/Src\stm32l4xx_hal.c **** }
 200              		.loc 1 290 3 is_stmt 1 view .LVU41
 290:D:/fchai/work/i-cube/I-CUBE-HUAWEI/Drivers/STM32L4xx_HAL_Driver/Src\stm32l4xx_hal.c **** }
 201              		.loc 1 290 3 is_stmt 0 view .LVU42
 202              	.LBE5:
 203              	.LBE4:
 290:D:/fchai/work/i-cube/I-CUBE-HUAWEI/Drivers/STM32L4xx_HAL_Driver/Src\stm32l4xx_hal.c **** }
 204              		.loc 1 290 3 is_stmt 1 view .LVU43
 205              		.loc 1 291 1 is_stmt 0 view .LVU44
 206 003e 38BD     		pop	{r3, r4, r5, pc}
 207              	.LVL10:
 208              	.L14:
 209              		.loc 1 291 1 view .LVU45
 210              		.align	2
 211              	.L13:
 212 0040 00000000 		.word	.LANCHOR0
 213 0044 00000000 		.word	SystemCoreClock
 214 0048 00000000 		.word	.LANCHOR1
 215              		.cfi_endproc
 216              	.LFE127:
 218              		.section	.text.HAL_Init,"ax",%progbits
 219              		.align	1
 220              		.p2align 2,,3
 221              		.global	HAL_Init
 222              		.syntax unified
 223              		.thumb
 224              		.thumb_func
 225              		.fpu fpv4-sp-d16
 227              	HAL_Init:
 228              	.LFB123:
 153:D:/fchai/work/i-cube/I-CUBE-HUAWEI/Drivers/STM32L4xx_HAL_Driver/Src\stm32l4xx_hal.c ****   HAL_StatusTypeDef  status = HAL_OK;
 229              		.loc 1 153 1 is_stmt 1 view -0
 230              		.cfi_startproc
 231              		@ args = 0, pretend = 0, frame = 0
 232              		@ frame_needed = 0, uses_anonymous_args = 0
 154:D:/fchai/work/i-cube/I-CUBE-HUAWEI/Drivers/STM32L4xx_HAL_Driver/Src\stm32l4xx_hal.c **** 
 233              		.loc 1 154 3 view .LVU47
 234              	.LVL11:
 174:D:/fchai/work/i-cube/I-CUBE-HUAWEI/Drivers/STM32L4xx_HAL_Driver/Src\stm32l4xx_hal.c **** 
 235              		.loc 1 174 3 view .LVU48
 153:D:/fchai/work/i-cube/I-CUBE-HUAWEI/Drivers/STM32L4xx_HAL_Driver/Src\stm32l4xx_hal.c ****   HAL_StatusTypeDef  status = HAL_OK;
 236              		.loc 1 153 1 is_stmt 0 view .LVU49
 237 0000 10B5     		push	{r4, lr}
 238              	.LCFI2:
 239              		.cfi_def_cfa_offset 8
 240              		.cfi_offset 4, -8
 241              		.cfi_offset 14, -4
 174:D:/fchai/work/i-cube/I-CUBE-HUAWEI/Drivers/STM32L4xx_HAL_Driver/Src\stm32l4xx_hal.c **** 
 242              		.loc 1 174 3 view .LVU50
 243 0002 0320     		movs	r0, #3
 244 0004 FFF7FEFF 		bl	HAL_NVIC_SetPriorityGrouping
 245              	.LVL12:
 177:D:/fchai/work/i-cube/I-CUBE-HUAWEI/Drivers/STM32L4xx_HAL_Driver/Src\stm32l4xx_hal.c ****   {
 246              		.loc 1 177 3 is_stmt 1 view .LVU51
 177:D:/fchai/work/i-cube/I-CUBE-HUAWEI/Drivers/STM32L4xx_HAL_Driver/Src\stm32l4xx_hal.c ****   {
 247              		.loc 1 177 7 is_stmt 0 view .LVU52
ARM GAS  T:\msys\tmp\ccK9B02h.s 			page 11


 248 0008 0020     		movs	r0, #0
 249 000a FFF7FEFF 		bl	HAL_InitTick
 250              	.LVL13:
 177:D:/fchai/work/i-cube/I-CUBE-HUAWEI/Drivers/STM32L4xx_HAL_Driver/Src\stm32l4xx_hal.c ****   {
 251              		.loc 1 177 6 view .LVU53
 252 000e 10B1     		cbz	r0, .L19
 179:D:/fchai/work/i-cube/I-CUBE-HUAWEI/Drivers/STM32L4xx_HAL_Driver/Src\stm32l4xx_hal.c ****   }
 253              		.loc 1 179 12 view .LVU54
 254 0010 0124     		movs	r4, #1
 255              	.LVL14:
 188:D:/fchai/work/i-cube/I-CUBE-HUAWEI/Drivers/STM32L4xx_HAL_Driver/Src\stm32l4xx_hal.c **** }
 256              		.loc 1 188 3 is_stmt 1 view .LVU55
 189:D:/fchai/work/i-cube/I-CUBE-HUAWEI/Drivers/STM32L4xx_HAL_Driver/Src\stm32l4xx_hal.c **** 
 257              		.loc 1 189 1 is_stmt 0 view .LVU56
 258 0012 2046     		mov	r0, r4
 259 0014 10BD     		pop	{r4, pc}
 260              	.LVL15:
 261              	.L19:
 189:D:/fchai/work/i-cube/I-CUBE-HUAWEI/Drivers/STM32L4xx_HAL_Driver/Src\stm32l4xx_hal.c **** 
 262              		.loc 1 189 1 view .LVU57
 263 0016 0446     		mov	r4, r0
 184:D:/fchai/work/i-cube/I-CUBE-HUAWEI/Drivers/STM32L4xx_HAL_Driver/Src\stm32l4xx_hal.c ****   }
 264              		.loc 1 184 5 is_stmt 1 view .LVU58
 265 0018 FFF7FEFF 		bl	HAL_MspInit
 266              	.LVL16:
 188:D:/fchai/work/i-cube/I-CUBE-HUAWEI/Drivers/STM32L4xx_HAL_Driver/Src\stm32l4xx_hal.c **** }
 267              		.loc 1 188 3 view .LVU59
 189:D:/fchai/work/i-cube/I-CUBE-HUAWEI/Drivers/STM32L4xx_HAL_Driver/Src\stm32l4xx_hal.c **** 
 268              		.loc 1 189 1 is_stmt 0 view .LVU60
 269 001c 2046     		mov	r0, r4
 270 001e 10BD     		pop	{r4, pc}
 189:D:/fchai/work/i-cube/I-CUBE-HUAWEI/Drivers/STM32L4xx_HAL_Driver/Src\stm32l4xx_hal.c **** 
 271              		.loc 1 189 1 view .LVU61
 272              		.cfi_endproc
 273              	.LFE123:
 275              		.section	.text.HAL_IncTick,"ax",%progbits
 276              		.align	1
 277              		.p2align 2,,3
 278              		.weak	HAL_IncTick
 279              		.syntax unified
 280              		.thumb
 281              		.thumb_func
 282              		.fpu fpv4-sp-d16
 284              	HAL_IncTick:
 285              	.LFB128:
 292:D:/fchai/work/i-cube/I-CUBE-HUAWEI/Drivers/STM32L4xx_HAL_Driver/Src\stm32l4xx_hal.c **** 
 293:D:/fchai/work/i-cube/I-CUBE-HUAWEI/Drivers/STM32L4xx_HAL_Driver/Src\stm32l4xx_hal.c **** /**
 294:D:/fchai/work/i-cube/I-CUBE-HUAWEI/Drivers/STM32L4xx_HAL_Driver/Src\stm32l4xx_hal.c ****   * @}
 295:D:/fchai/work/i-cube/I-CUBE-HUAWEI/Drivers/STM32L4xx_HAL_Driver/Src\stm32l4xx_hal.c ****   */
 296:D:/fchai/work/i-cube/I-CUBE-HUAWEI/Drivers/STM32L4xx_HAL_Driver/Src\stm32l4xx_hal.c **** 
 297:D:/fchai/work/i-cube/I-CUBE-HUAWEI/Drivers/STM32L4xx_HAL_Driver/Src\stm32l4xx_hal.c **** /** @defgroup HAL_Exported_Functions_Group2 HAL Control functions
 298:D:/fchai/work/i-cube/I-CUBE-HUAWEI/Drivers/STM32L4xx_HAL_Driver/Src\stm32l4xx_hal.c ****  *  @brief    HAL Control functions
 299:D:/fchai/work/i-cube/I-CUBE-HUAWEI/Drivers/STM32L4xx_HAL_Driver/Src\stm32l4xx_hal.c ****  *
 300:D:/fchai/work/i-cube/I-CUBE-HUAWEI/Drivers/STM32L4xx_HAL_Driver/Src\stm32l4xx_hal.c **** @verbatim
 301:D:/fchai/work/i-cube/I-CUBE-HUAWEI/Drivers/STM32L4xx_HAL_Driver/Src\stm32l4xx_hal.c ****  ===============================================================================
 302:D:/fchai/work/i-cube/I-CUBE-HUAWEI/Drivers/STM32L4xx_HAL_Driver/Src\stm32l4xx_hal.c ****                       ##### HAL Control functions #####
 303:D:/fchai/work/i-cube/I-CUBE-HUAWEI/Drivers/STM32L4xx_HAL_Driver/Src\stm32l4xx_hal.c ****  ===============================================================================
ARM GAS  T:\msys\tmp\ccK9B02h.s 			page 12


 304:D:/fchai/work/i-cube/I-CUBE-HUAWEI/Drivers/STM32L4xx_HAL_Driver/Src\stm32l4xx_hal.c ****     [..]  This section provides functions allowing to:
 305:D:/fchai/work/i-cube/I-CUBE-HUAWEI/Drivers/STM32L4xx_HAL_Driver/Src\stm32l4xx_hal.c ****       (+) Provide a tick value in millisecond
 306:D:/fchai/work/i-cube/I-CUBE-HUAWEI/Drivers/STM32L4xx_HAL_Driver/Src\stm32l4xx_hal.c ****       (+) Provide a blocking delay in millisecond
 307:D:/fchai/work/i-cube/I-CUBE-HUAWEI/Drivers/STM32L4xx_HAL_Driver/Src\stm32l4xx_hal.c ****       (+) Suspend the time base source interrupt
 308:D:/fchai/work/i-cube/I-CUBE-HUAWEI/Drivers/STM32L4xx_HAL_Driver/Src\stm32l4xx_hal.c ****       (+) Resume the time base source interrupt
 309:D:/fchai/work/i-cube/I-CUBE-HUAWEI/Drivers/STM32L4xx_HAL_Driver/Src\stm32l4xx_hal.c ****       (+) Get the HAL API driver version
 310:D:/fchai/work/i-cube/I-CUBE-HUAWEI/Drivers/STM32L4xx_HAL_Driver/Src\stm32l4xx_hal.c ****       (+) Get the device identifier
 311:D:/fchai/work/i-cube/I-CUBE-HUAWEI/Drivers/STM32L4xx_HAL_Driver/Src\stm32l4xx_hal.c ****       (+) Get the device revision identifier
 312:D:/fchai/work/i-cube/I-CUBE-HUAWEI/Drivers/STM32L4xx_HAL_Driver/Src\stm32l4xx_hal.c **** 
 313:D:/fchai/work/i-cube/I-CUBE-HUAWEI/Drivers/STM32L4xx_HAL_Driver/Src\stm32l4xx_hal.c **** @endverbatim
 314:D:/fchai/work/i-cube/I-CUBE-HUAWEI/Drivers/STM32L4xx_HAL_Driver/Src\stm32l4xx_hal.c ****   * @{
 315:D:/fchai/work/i-cube/I-CUBE-HUAWEI/Drivers/STM32L4xx_HAL_Driver/Src\stm32l4xx_hal.c ****   */
 316:D:/fchai/work/i-cube/I-CUBE-HUAWEI/Drivers/STM32L4xx_HAL_Driver/Src\stm32l4xx_hal.c **** 
 317:D:/fchai/work/i-cube/I-CUBE-HUAWEI/Drivers/STM32L4xx_HAL_Driver/Src\stm32l4xx_hal.c **** /**
 318:D:/fchai/work/i-cube/I-CUBE-HUAWEI/Drivers/STM32L4xx_HAL_Driver/Src\stm32l4xx_hal.c ****   * @brief This function is called to increment a global variable "uwTick"
 319:D:/fchai/work/i-cube/I-CUBE-HUAWEI/Drivers/STM32L4xx_HAL_Driver/Src\stm32l4xx_hal.c ****   *        used as application time base.
 320:D:/fchai/work/i-cube/I-CUBE-HUAWEI/Drivers/STM32L4xx_HAL_Driver/Src\stm32l4xx_hal.c ****   * @note In the default implementation, this variable is incremented each 1ms
 321:D:/fchai/work/i-cube/I-CUBE-HUAWEI/Drivers/STM32L4xx_HAL_Driver/Src\stm32l4xx_hal.c ****   *       in SysTick ISR.
 322:D:/fchai/work/i-cube/I-CUBE-HUAWEI/Drivers/STM32L4xx_HAL_Driver/Src\stm32l4xx_hal.c ****  * @note This function is declared as __weak to be overwritten in case of other
 323:D:/fchai/work/i-cube/I-CUBE-HUAWEI/Drivers/STM32L4xx_HAL_Driver/Src\stm32l4xx_hal.c ****   *      implementations in user file.
 324:D:/fchai/work/i-cube/I-CUBE-HUAWEI/Drivers/STM32L4xx_HAL_Driver/Src\stm32l4xx_hal.c ****   * @retval None
 325:D:/fchai/work/i-cube/I-CUBE-HUAWEI/Drivers/STM32L4xx_HAL_Driver/Src\stm32l4xx_hal.c ****   */
 326:D:/fchai/work/i-cube/I-CUBE-HUAWEI/Drivers/STM32L4xx_HAL_Driver/Src\stm32l4xx_hal.c **** __weak void HAL_IncTick(void)
 327:D:/fchai/work/i-cube/I-CUBE-HUAWEI/Drivers/STM32L4xx_HAL_Driver/Src\stm32l4xx_hal.c **** {
 286              		.loc 1 327 1 is_stmt 1 view -0
 287              		.cfi_startproc
 288              		@ args = 0, pretend = 0, frame = 0
 289              		@ frame_needed = 0, uses_anonymous_args = 0
 290              		@ link register save eliminated.
 328:D:/fchai/work/i-cube/I-CUBE-HUAWEI/Drivers/STM32L4xx_HAL_Driver/Src\stm32l4xx_hal.c ****   uwTick += uwTickFreq;
 291              		.loc 1 328 3 view .LVU63
 292              		.loc 1 328 10 is_stmt 0 view .LVU64
 293 0000 034A     		ldr	r2, .L21
 294 0002 0449     		ldr	r1, .L21+4
 295 0004 1368     		ldr	r3, [r2]
 296 0006 0968     		ldr	r1, [r1]
 297 0008 0B44     		add	r3, r3, r1
 298 000a 1360     		str	r3, [r2]
 329:D:/fchai/work/i-cube/I-CUBE-HUAWEI/Drivers/STM32L4xx_HAL_Driver/Src\stm32l4xx_hal.c **** }
 299              		.loc 1 329 1 view .LVU65
 300 000c 7047     		bx	lr
 301              	.L22:
 302 000e 00BF     		.align	2
 303              	.L21:
 304 0010 00000000 		.word	uwTick
 305 0014 00000000 		.word	.LANCHOR0
 306              		.cfi_endproc
 307              	.LFE128:
 309              		.section	.text.HAL_GetTick,"ax",%progbits
 310              		.align	1
 311              		.p2align 2,,3
 312              		.weak	HAL_GetTick
 313              		.syntax unified
 314              		.thumb
 315              		.thumb_func
 316              		.fpu fpv4-sp-d16
 318              	HAL_GetTick:
ARM GAS  T:\msys\tmp\ccK9B02h.s 			page 13


 319              	.LFB129:
 330:D:/fchai/work/i-cube/I-CUBE-HUAWEI/Drivers/STM32L4xx_HAL_Driver/Src\stm32l4xx_hal.c **** 
 331:D:/fchai/work/i-cube/I-CUBE-HUAWEI/Drivers/STM32L4xx_HAL_Driver/Src\stm32l4xx_hal.c **** /**
 332:D:/fchai/work/i-cube/I-CUBE-HUAWEI/Drivers/STM32L4xx_HAL_Driver/Src\stm32l4xx_hal.c ****   * @brief Provide a tick value in millisecond.
 333:D:/fchai/work/i-cube/I-CUBE-HUAWEI/Drivers/STM32L4xx_HAL_Driver/Src\stm32l4xx_hal.c ****   * @note This function is declared as __weak to be overwritten in case of other
 334:D:/fchai/work/i-cube/I-CUBE-HUAWEI/Drivers/STM32L4xx_HAL_Driver/Src\stm32l4xx_hal.c ****   *       implementations in user file.
 335:D:/fchai/work/i-cube/I-CUBE-HUAWEI/Drivers/STM32L4xx_HAL_Driver/Src\stm32l4xx_hal.c ****   * @retval tick value
 336:D:/fchai/work/i-cube/I-CUBE-HUAWEI/Drivers/STM32L4xx_HAL_Driver/Src\stm32l4xx_hal.c ****   */
 337:D:/fchai/work/i-cube/I-CUBE-HUAWEI/Drivers/STM32L4xx_HAL_Driver/Src\stm32l4xx_hal.c **** __weak uint32_t HAL_GetTick(void)
 338:D:/fchai/work/i-cube/I-CUBE-HUAWEI/Drivers/STM32L4xx_HAL_Driver/Src\stm32l4xx_hal.c **** {
 320              		.loc 1 338 1 is_stmt 1 view -0
 321              		.cfi_startproc
 322              		@ args = 0, pretend = 0, frame = 0
 323              		@ frame_needed = 0, uses_anonymous_args = 0
 324              		@ link register save eliminated.
 339:D:/fchai/work/i-cube/I-CUBE-HUAWEI/Drivers/STM32L4xx_HAL_Driver/Src\stm32l4xx_hal.c ****   return uwTick;
 325              		.loc 1 339 3 view .LVU67
 326              		.loc 1 339 10 is_stmt 0 view .LVU68
 327 0000 014B     		ldr	r3, .L24
 328 0002 1868     		ldr	r0, [r3]
 340:D:/fchai/work/i-cube/I-CUBE-HUAWEI/Drivers/STM32L4xx_HAL_Driver/Src\stm32l4xx_hal.c **** }
 329              		.loc 1 340 1 view .LVU69
 330 0004 7047     		bx	lr
 331              	.L25:
 332 0006 00BF     		.align	2
 333              	.L24:
 334 0008 00000000 		.word	uwTick
 335              		.cfi_endproc
 336              	.LFE129:
 338              		.section	.text.HAL_GetTickPrio,"ax",%progbits
 339              		.align	1
 340              		.p2align 2,,3
 341              		.global	HAL_GetTickPrio
 342              		.syntax unified
 343              		.thumb
 344              		.thumb_func
 345              		.fpu fpv4-sp-d16
 347              	HAL_GetTickPrio:
 348              	.LFB130:
 341:D:/fchai/work/i-cube/I-CUBE-HUAWEI/Drivers/STM32L4xx_HAL_Driver/Src\stm32l4xx_hal.c **** 
 342:D:/fchai/work/i-cube/I-CUBE-HUAWEI/Drivers/STM32L4xx_HAL_Driver/Src\stm32l4xx_hal.c **** /**
 343:D:/fchai/work/i-cube/I-CUBE-HUAWEI/Drivers/STM32L4xx_HAL_Driver/Src\stm32l4xx_hal.c ****   * @brief This function returns a tick priority.
 344:D:/fchai/work/i-cube/I-CUBE-HUAWEI/Drivers/STM32L4xx_HAL_Driver/Src\stm32l4xx_hal.c ****   * @retval tick priority
 345:D:/fchai/work/i-cube/I-CUBE-HUAWEI/Drivers/STM32L4xx_HAL_Driver/Src\stm32l4xx_hal.c ****   */
 346:D:/fchai/work/i-cube/I-CUBE-HUAWEI/Drivers/STM32L4xx_HAL_Driver/Src\stm32l4xx_hal.c **** uint32_t HAL_GetTickPrio(void)
 347:D:/fchai/work/i-cube/I-CUBE-HUAWEI/Drivers/STM32L4xx_HAL_Driver/Src\stm32l4xx_hal.c **** {
 349              		.loc 1 347 1 is_stmt 1 view -0
 350              		.cfi_startproc
 351              		@ args = 0, pretend = 0, frame = 0
 352              		@ frame_needed = 0, uses_anonymous_args = 0
 353              		@ link register save eliminated.
 348:D:/fchai/work/i-cube/I-CUBE-HUAWEI/Drivers/STM32L4xx_HAL_Driver/Src\stm32l4xx_hal.c ****   return uwTickPrio;
 354              		.loc 1 348 3 view .LVU71
 355              		.loc 1 348 10 is_stmt 0 view .LVU72
 356 0000 014B     		ldr	r3, .L27
 349:D:/fchai/work/i-cube/I-CUBE-HUAWEI/Drivers/STM32L4xx_HAL_Driver/Src\stm32l4xx_hal.c **** }
 357              		.loc 1 349 1 view .LVU73
ARM GAS  T:\msys\tmp\ccK9B02h.s 			page 14


 358 0002 1868     		ldr	r0, [r3]
 359 0004 7047     		bx	lr
 360              	.L28:
 361 0006 00BF     		.align	2
 362              	.L27:
 363 0008 00000000 		.word	.LANCHOR1
 364              		.cfi_endproc
 365              	.LFE130:
 367              		.section	.text.HAL_SetTickFreq,"ax",%progbits
 368              		.align	1
 369              		.p2align 2,,3
 370              		.global	HAL_SetTickFreq
 371              		.syntax unified
 372              		.thumb
 373              		.thumb_func
 374              		.fpu fpv4-sp-d16
 376              	HAL_SetTickFreq:
 377              	.LVL17:
 378              	.LFB131:
 350:D:/fchai/work/i-cube/I-CUBE-HUAWEI/Drivers/STM32L4xx_HAL_Driver/Src\stm32l4xx_hal.c **** 
 351:D:/fchai/work/i-cube/I-CUBE-HUAWEI/Drivers/STM32L4xx_HAL_Driver/Src\stm32l4xx_hal.c **** /**
 352:D:/fchai/work/i-cube/I-CUBE-HUAWEI/Drivers/STM32L4xx_HAL_Driver/Src\stm32l4xx_hal.c ****   * @brief Set new tick Freq.
 353:D:/fchai/work/i-cube/I-CUBE-HUAWEI/Drivers/STM32L4xx_HAL_Driver/Src\stm32l4xx_hal.c ****   * @param Freq tick frequency
 354:D:/fchai/work/i-cube/I-CUBE-HUAWEI/Drivers/STM32L4xx_HAL_Driver/Src\stm32l4xx_hal.c ****   * @retval HAL status
 355:D:/fchai/work/i-cube/I-CUBE-HUAWEI/Drivers/STM32L4xx_HAL_Driver/Src\stm32l4xx_hal.c ****   */
 356:D:/fchai/work/i-cube/I-CUBE-HUAWEI/Drivers/STM32L4xx_HAL_Driver/Src\stm32l4xx_hal.c **** HAL_StatusTypeDef HAL_SetTickFreq(uint32_t Freq)
 357:D:/fchai/work/i-cube/I-CUBE-HUAWEI/Drivers/STM32L4xx_HAL_Driver/Src\stm32l4xx_hal.c **** {
 379              		.loc 1 357 1 is_stmt 1 view -0
 380              		.cfi_startproc
 381              		@ args = 0, pretend = 0, frame = 0
 382              		@ frame_needed = 0, uses_anonymous_args = 0
 358:D:/fchai/work/i-cube/I-CUBE-HUAWEI/Drivers/STM32L4xx_HAL_Driver/Src\stm32l4xx_hal.c ****   HAL_StatusTypeDef status  = HAL_OK;
 383              		.loc 1 358 3 view .LVU75
 359:D:/fchai/work/i-cube/I-CUBE-HUAWEI/Drivers/STM32L4xx_HAL_Driver/Src\stm32l4xx_hal.c ****   assert_param(IS_TICKFREQ(Freq));
 384              		.loc 1 359 3 view .LVU76
 360:D:/fchai/work/i-cube/I-CUBE-HUAWEI/Drivers/STM32L4xx_HAL_Driver/Src\stm32l4xx_hal.c **** 
 361:D:/fchai/work/i-cube/I-CUBE-HUAWEI/Drivers/STM32L4xx_HAL_Driver/Src\stm32l4xx_hal.c ****   if (uwTickFreq != Freq)
 385              		.loc 1 361 3 view .LVU77
 357:D:/fchai/work/i-cube/I-CUBE-HUAWEI/Drivers/STM32L4xx_HAL_Driver/Src\stm32l4xx_hal.c ****   HAL_StatusTypeDef status  = HAL_OK;
 386              		.loc 1 357 1 is_stmt 0 view .LVU78
 387 0000 38B5     		push	{r3, r4, r5, lr}
 388              	.LCFI3:
 389              		.cfi_def_cfa_offset 16
 390              		.cfi_offset 3, -16
 391              		.cfi_offset 4, -12
 392              		.cfi_offset 5, -8
 393              		.cfi_offset 14, -4
 394              		.loc 1 361 18 view .LVU79
 395 0002 074D     		ldr	r5, .L34
 396              		.loc 1 361 6 view .LVU80
 397 0004 2B68     		ldr	r3, [r5]
 398 0006 8342     		cmp	r3, r0
 399 0008 01D1     		bne	.L33
 358:D:/fchai/work/i-cube/I-CUBE-HUAWEI/Drivers/STM32L4xx_HAL_Driver/Src\stm32l4xx_hal.c ****   assert_param(IS_TICKFREQ(Freq));
 400              		.loc 1 358 21 view .LVU81
 401 000a 0020     		movs	r0, #0
 402              	.LVL18:
ARM GAS  T:\msys\tmp\ccK9B02h.s 			page 15


 403              	.L30:
 362:D:/fchai/work/i-cube/I-CUBE-HUAWEI/Drivers/STM32L4xx_HAL_Driver/Src\stm32l4xx_hal.c ****   {
 363:D:/fchai/work/i-cube/I-CUBE-HUAWEI/Drivers/STM32L4xx_HAL_Driver/Src\stm32l4xx_hal.c ****     /* Apply the new tick Freq  */
 364:D:/fchai/work/i-cube/I-CUBE-HUAWEI/Drivers/STM32L4xx_HAL_Driver/Src\stm32l4xx_hal.c ****     status = HAL_InitTick(uwTickPrio);
 365:D:/fchai/work/i-cube/I-CUBE-HUAWEI/Drivers/STM32L4xx_HAL_Driver/Src\stm32l4xx_hal.c ****     if (status == HAL_OK)
 366:D:/fchai/work/i-cube/I-CUBE-HUAWEI/Drivers/STM32L4xx_HAL_Driver/Src\stm32l4xx_hal.c ****     {
 367:D:/fchai/work/i-cube/I-CUBE-HUAWEI/Drivers/STM32L4xx_HAL_Driver/Src\stm32l4xx_hal.c ****       uwTickFreq = Freq;
 368:D:/fchai/work/i-cube/I-CUBE-HUAWEI/Drivers/STM32L4xx_HAL_Driver/Src\stm32l4xx_hal.c ****     }
 369:D:/fchai/work/i-cube/I-CUBE-HUAWEI/Drivers/STM32L4xx_HAL_Driver/Src\stm32l4xx_hal.c ****   }
 370:D:/fchai/work/i-cube/I-CUBE-HUAWEI/Drivers/STM32L4xx_HAL_Driver/Src\stm32l4xx_hal.c **** 
 371:D:/fchai/work/i-cube/I-CUBE-HUAWEI/Drivers/STM32L4xx_HAL_Driver/Src\stm32l4xx_hal.c ****   return status;
 404              		.loc 1 371 3 is_stmt 1 view .LVU82
 372:D:/fchai/work/i-cube/I-CUBE-HUAWEI/Drivers/STM32L4xx_HAL_Driver/Src\stm32l4xx_hal.c **** }
 405              		.loc 1 372 1 is_stmt 0 view .LVU83
 406 000c 38BD     		pop	{r3, r4, r5, pc}
 407              	.LVL19:
 408              	.L33:
 364:D:/fchai/work/i-cube/I-CUBE-HUAWEI/Drivers/STM32L4xx_HAL_Driver/Src\stm32l4xx_hal.c ****     if (status == HAL_OK)
 409              		.loc 1 364 5 is_stmt 1 view .LVU84
 364:D:/fchai/work/i-cube/I-CUBE-HUAWEI/Drivers/STM32L4xx_HAL_Driver/Src\stm32l4xx_hal.c ****     if (status == HAL_OK)
 410              		.loc 1 364 14 is_stmt 0 view .LVU85
 411 000e 054B     		ldr	r3, .L34+4
 412 0010 0446     		mov	r4, r0
 413 0012 1868     		ldr	r0, [r3]
 414              	.LVL20:
 364:D:/fchai/work/i-cube/I-CUBE-HUAWEI/Drivers/STM32L4xx_HAL_Driver/Src\stm32l4xx_hal.c ****     if (status == HAL_OK)
 415              		.loc 1 364 14 view .LVU86
 416 0014 FFF7FEFF 		bl	HAL_InitTick
 417              	.LVL21:
 365:D:/fchai/work/i-cube/I-CUBE-HUAWEI/Drivers/STM32L4xx_HAL_Driver/Src\stm32l4xx_hal.c ****     {
 418              		.loc 1 365 5 is_stmt 1 view .LVU87
 365:D:/fchai/work/i-cube/I-CUBE-HUAWEI/Drivers/STM32L4xx_HAL_Driver/Src\stm32l4xx_hal.c ****     {
 419              		.loc 1 365 8 is_stmt 0 view .LVU88
 420 0018 0028     		cmp	r0, #0
 421 001a F7D1     		bne	.L30
 367:D:/fchai/work/i-cube/I-CUBE-HUAWEI/Drivers/STM32L4xx_HAL_Driver/Src\stm32l4xx_hal.c ****     }
 422              		.loc 1 367 7 is_stmt 1 view .LVU89
 367:D:/fchai/work/i-cube/I-CUBE-HUAWEI/Drivers/STM32L4xx_HAL_Driver/Src\stm32l4xx_hal.c ****     }
 423              		.loc 1 367 18 is_stmt 0 view .LVU90
 424 001c 2C60     		str	r4, [r5]
 371:D:/fchai/work/i-cube/I-CUBE-HUAWEI/Drivers/STM32L4xx_HAL_Driver/Src\stm32l4xx_hal.c **** }
 425              		.loc 1 371 3 is_stmt 1 view .LVU91
 426              		.loc 1 372 1 is_stmt 0 view .LVU92
 427 001e 38BD     		pop	{r3, r4, r5, pc}
 428              	.LVL22:
 429              	.L35:
 430              		.loc 1 372 1 view .LVU93
 431              		.align	2
 432              	.L34:
 433 0020 00000000 		.word	.LANCHOR0
 434 0024 00000000 		.word	.LANCHOR1
 435              		.cfi_endproc
 436              	.LFE131:
 438              		.section	.text.HAL_GetTickFreq,"ax",%progbits
 439              		.align	1
 440              		.p2align 2,,3
 441              		.global	HAL_GetTickFreq
ARM GAS  T:\msys\tmp\ccK9B02h.s 			page 16


 442              		.syntax unified
 443              		.thumb
 444              		.thumb_func
 445              		.fpu fpv4-sp-d16
 447              	HAL_GetTickFreq:
 448              	.LFB132:
 373:D:/fchai/work/i-cube/I-CUBE-HUAWEI/Drivers/STM32L4xx_HAL_Driver/Src\stm32l4xx_hal.c **** 
 374:D:/fchai/work/i-cube/I-CUBE-HUAWEI/Drivers/STM32L4xx_HAL_Driver/Src\stm32l4xx_hal.c **** /**
 375:D:/fchai/work/i-cube/I-CUBE-HUAWEI/Drivers/STM32L4xx_HAL_Driver/Src\stm32l4xx_hal.c ****   * @brief Return tick frequency.
 376:D:/fchai/work/i-cube/I-CUBE-HUAWEI/Drivers/STM32L4xx_HAL_Driver/Src\stm32l4xx_hal.c ****   * @retval tick period in Hz
 377:D:/fchai/work/i-cube/I-CUBE-HUAWEI/Drivers/STM32L4xx_HAL_Driver/Src\stm32l4xx_hal.c ****   */
 378:D:/fchai/work/i-cube/I-CUBE-HUAWEI/Drivers/STM32L4xx_HAL_Driver/Src\stm32l4xx_hal.c **** uint32_t HAL_GetTickFreq(void)
 379:D:/fchai/work/i-cube/I-CUBE-HUAWEI/Drivers/STM32L4xx_HAL_Driver/Src\stm32l4xx_hal.c **** {
 449              		.loc 1 379 1 is_stmt 1 view -0
 450              		.cfi_startproc
 451              		@ args = 0, pretend = 0, frame = 0
 452              		@ frame_needed = 0, uses_anonymous_args = 0
 453              		@ link register save eliminated.
 380:D:/fchai/work/i-cube/I-CUBE-HUAWEI/Drivers/STM32L4xx_HAL_Driver/Src\stm32l4xx_hal.c ****   return uwTickFreq;
 454              		.loc 1 380 3 view .LVU95
 455              		.loc 1 380 10 is_stmt 0 view .LVU96
 456 0000 014B     		ldr	r3, .L37
 381:D:/fchai/work/i-cube/I-CUBE-HUAWEI/Drivers/STM32L4xx_HAL_Driver/Src\stm32l4xx_hal.c **** }
 457              		.loc 1 381 1 view .LVU97
 458 0002 1868     		ldr	r0, [r3]
 459 0004 7047     		bx	lr
 460              	.L38:
 461 0006 00BF     		.align	2
 462              	.L37:
 463 0008 00000000 		.word	.LANCHOR0
 464              		.cfi_endproc
 465              	.LFE132:
 467              		.section	.text.HAL_Delay,"ax",%progbits
 468              		.align	1
 469              		.p2align 2,,3
 470              		.weak	HAL_Delay
 471              		.syntax unified
 472              		.thumb
 473              		.thumb_func
 474              		.fpu fpv4-sp-d16
 476              	HAL_Delay:
 477              	.LVL23:
 478              	.LFB133:
 382:D:/fchai/work/i-cube/I-CUBE-HUAWEI/Drivers/STM32L4xx_HAL_Driver/Src\stm32l4xx_hal.c **** 
 383:D:/fchai/work/i-cube/I-CUBE-HUAWEI/Drivers/STM32L4xx_HAL_Driver/Src\stm32l4xx_hal.c **** /**
 384:D:/fchai/work/i-cube/I-CUBE-HUAWEI/Drivers/STM32L4xx_HAL_Driver/Src\stm32l4xx_hal.c ****   * @brief This function provides minimum delay (in milliseconds) based
 385:D:/fchai/work/i-cube/I-CUBE-HUAWEI/Drivers/STM32L4xx_HAL_Driver/Src\stm32l4xx_hal.c ****   *        on variable incremented.
 386:D:/fchai/work/i-cube/I-CUBE-HUAWEI/Drivers/STM32L4xx_HAL_Driver/Src\stm32l4xx_hal.c ****   * @note In the default implementation , SysTick timer is the source of time base.
 387:D:/fchai/work/i-cube/I-CUBE-HUAWEI/Drivers/STM32L4xx_HAL_Driver/Src\stm32l4xx_hal.c ****   *       It is used to generate interrupts at regular time intervals where uwTick
 388:D:/fchai/work/i-cube/I-CUBE-HUAWEI/Drivers/STM32L4xx_HAL_Driver/Src\stm32l4xx_hal.c ****   *       is incremented.
 389:D:/fchai/work/i-cube/I-CUBE-HUAWEI/Drivers/STM32L4xx_HAL_Driver/Src\stm32l4xx_hal.c ****   * @note This function is declared as __weak to be overwritten in case of other
 390:D:/fchai/work/i-cube/I-CUBE-HUAWEI/Drivers/STM32L4xx_HAL_Driver/Src\stm32l4xx_hal.c ****   *       implementations in user file.
 391:D:/fchai/work/i-cube/I-CUBE-HUAWEI/Drivers/STM32L4xx_HAL_Driver/Src\stm32l4xx_hal.c ****   * @param Delay  specifies the delay time length, in milliseconds.
 392:D:/fchai/work/i-cube/I-CUBE-HUAWEI/Drivers/STM32L4xx_HAL_Driver/Src\stm32l4xx_hal.c ****   * @retval None
 393:D:/fchai/work/i-cube/I-CUBE-HUAWEI/Drivers/STM32L4xx_HAL_Driver/Src\stm32l4xx_hal.c ****   */
 394:D:/fchai/work/i-cube/I-CUBE-HUAWEI/Drivers/STM32L4xx_HAL_Driver/Src\stm32l4xx_hal.c **** __weak void HAL_Delay(uint32_t Delay)
 395:D:/fchai/work/i-cube/I-CUBE-HUAWEI/Drivers/STM32L4xx_HAL_Driver/Src\stm32l4xx_hal.c **** {
ARM GAS  T:\msys\tmp\ccK9B02h.s 			page 17


 479              		.loc 1 395 1 is_stmt 1 view -0
 480              		.cfi_startproc
 481              		@ args = 0, pretend = 0, frame = 0
 482              		@ frame_needed = 0, uses_anonymous_args = 0
 396:D:/fchai/work/i-cube/I-CUBE-HUAWEI/Drivers/STM32L4xx_HAL_Driver/Src\stm32l4xx_hal.c ****   uint32_t tickstart = HAL_GetTick();
 483              		.loc 1 396 3 view .LVU99
 395:D:/fchai/work/i-cube/I-CUBE-HUAWEI/Drivers/STM32L4xx_HAL_Driver/Src\stm32l4xx_hal.c ****   uint32_t tickstart = HAL_GetTick();
 484              		.loc 1 395 1 is_stmt 0 view .LVU100
 485 0000 38B5     		push	{r3, r4, r5, lr}
 486              	.LCFI4:
 487              		.cfi_def_cfa_offset 16
 488              		.cfi_offset 3, -16
 489              		.cfi_offset 4, -12
 490              		.cfi_offset 5, -8
 491              		.cfi_offset 14, -4
 395:D:/fchai/work/i-cube/I-CUBE-HUAWEI/Drivers/STM32L4xx_HAL_Driver/Src\stm32l4xx_hal.c ****   uint32_t tickstart = HAL_GetTick();
 492              		.loc 1 395 1 view .LVU101
 493 0002 0446     		mov	r4, r0
 494              		.loc 1 396 24 view .LVU102
 495 0004 FFF7FEFF 		bl	HAL_GetTick
 496              	.LVL24:
 397:D:/fchai/work/i-cube/I-CUBE-HUAWEI/Drivers/STM32L4xx_HAL_Driver/Src\stm32l4xx_hal.c ****   uint32_t wait = Delay;
 398:D:/fchai/work/i-cube/I-CUBE-HUAWEI/Drivers/STM32L4xx_HAL_Driver/Src\stm32l4xx_hal.c **** 
 399:D:/fchai/work/i-cube/I-CUBE-HUAWEI/Drivers/STM32L4xx_HAL_Driver/Src\stm32l4xx_hal.c ****   /* Add a period to guaranty minimum wait */
 400:D:/fchai/work/i-cube/I-CUBE-HUAWEI/Drivers/STM32L4xx_HAL_Driver/Src\stm32l4xx_hal.c ****   if (wait < HAL_MAX_DELAY)
 497              		.loc 1 400 6 view .LVU103
 498 0008 631C     		adds	r3, r4, #1
 396:D:/fchai/work/i-cube/I-CUBE-HUAWEI/Drivers/STM32L4xx_HAL_Driver/Src\stm32l4xx_hal.c ****   uint32_t wait = Delay;
 499              		.loc 1 396 24 view .LVU104
 500 000a 0546     		mov	r5, r0
 501              	.LVL25:
 397:D:/fchai/work/i-cube/I-CUBE-HUAWEI/Drivers/STM32L4xx_HAL_Driver/Src\stm32l4xx_hal.c ****   uint32_t wait = Delay;
 502              		.loc 1 397 3 is_stmt 1 view .LVU105
 503              		.loc 1 400 3 view .LVU106
 504              		.loc 1 400 6 is_stmt 0 view .LVU107
 505 000c 02D0     		beq	.L41
 401:D:/fchai/work/i-cube/I-CUBE-HUAWEI/Drivers/STM32L4xx_HAL_Driver/Src\stm32l4xx_hal.c ****   {
 402:D:/fchai/work/i-cube/I-CUBE-HUAWEI/Drivers/STM32L4xx_HAL_Driver/Src\stm32l4xx_hal.c ****     wait += (uint32_t)(uwTickFreq);
 506              		.loc 1 402 5 is_stmt 1 view .LVU108
 507              		.loc 1 402 13 is_stmt 0 view .LVU109
 508 000e 044B     		ldr	r3, .L47
 509              		.loc 1 402 10 view .LVU110
 510 0010 1B68     		ldr	r3, [r3]
 511 0012 1C44     		add	r4, r4, r3
 512              	.LVL26:
 513              	.L41:
 403:D:/fchai/work/i-cube/I-CUBE-HUAWEI/Drivers/STM32L4xx_HAL_Driver/Src\stm32l4xx_hal.c ****   }
 404:D:/fchai/work/i-cube/I-CUBE-HUAWEI/Drivers/STM32L4xx_HAL_Driver/Src\stm32l4xx_hal.c **** 
 405:D:/fchai/work/i-cube/I-CUBE-HUAWEI/Drivers/STM32L4xx_HAL_Driver/Src\stm32l4xx_hal.c ****   while((HAL_GetTick() - tickstart) < wait)
 406:D:/fchai/work/i-cube/I-CUBE-HUAWEI/Drivers/STM32L4xx_HAL_Driver/Src\stm32l4xx_hal.c ****   {
 407:D:/fchai/work/i-cube/I-CUBE-HUAWEI/Drivers/STM32L4xx_HAL_Driver/Src\stm32l4xx_hal.c ****   }
 514              		.loc 1 407 3 is_stmt 1 discriminator 1 view .LVU111
 405:D:/fchai/work/i-cube/I-CUBE-HUAWEI/Drivers/STM32L4xx_HAL_Driver/Src\stm32l4xx_hal.c ****   {
 515              		.loc 1 405 8 discriminator 1 view .LVU112
 405:D:/fchai/work/i-cube/I-CUBE-HUAWEI/Drivers/STM32L4xx_HAL_Driver/Src\stm32l4xx_hal.c ****   {
 516              		.loc 1 405 10 is_stmt 0 discriminator 1 view .LVU113
 517 0014 FFF7FEFF 		bl	HAL_GetTick
ARM GAS  T:\msys\tmp\ccK9B02h.s 			page 18


 518              	.LVL27:
 405:D:/fchai/work/i-cube/I-CUBE-HUAWEI/Drivers/STM32L4xx_HAL_Driver/Src\stm32l4xx_hal.c ****   {
 519              		.loc 1 405 24 discriminator 1 view .LVU114
 520 0018 431B     		subs	r3, r0, r5
 405:D:/fchai/work/i-cube/I-CUBE-HUAWEI/Drivers/STM32L4xx_HAL_Driver/Src\stm32l4xx_hal.c ****   {
 521              		.loc 1 405 8 discriminator 1 view .LVU115
 522 001a A342     		cmp	r3, r4
 523 001c FAD3     		bcc	.L41
 408:D:/fchai/work/i-cube/I-CUBE-HUAWEI/Drivers/STM32L4xx_HAL_Driver/Src\stm32l4xx_hal.c **** }
 524              		.loc 1 408 1 view .LVU116
 525 001e 38BD     		pop	{r3, r4, r5, pc}
 526              	.LVL28:
 527              	.L48:
 528              		.loc 1 408 1 view .LVU117
 529              		.align	2
 530              	.L47:
 531 0020 00000000 		.word	.LANCHOR0
 532              		.cfi_endproc
 533              	.LFE133:
 535              		.section	.text.HAL_SuspendTick,"ax",%progbits
 536              		.align	1
 537              		.p2align 2,,3
 538              		.weak	HAL_SuspendTick
 539              		.syntax unified
 540              		.thumb
 541              		.thumb_func
 542              		.fpu fpv4-sp-d16
 544              	HAL_SuspendTick:
 545              	.LFB134:
 409:D:/fchai/work/i-cube/I-CUBE-HUAWEI/Drivers/STM32L4xx_HAL_Driver/Src\stm32l4xx_hal.c **** 
 410:D:/fchai/work/i-cube/I-CUBE-HUAWEI/Drivers/STM32L4xx_HAL_Driver/Src\stm32l4xx_hal.c **** /**
 411:D:/fchai/work/i-cube/I-CUBE-HUAWEI/Drivers/STM32L4xx_HAL_Driver/Src\stm32l4xx_hal.c ****   * @brief Suspend Tick increment.
 412:D:/fchai/work/i-cube/I-CUBE-HUAWEI/Drivers/STM32L4xx_HAL_Driver/Src\stm32l4xx_hal.c ****   * @note In the default implementation , SysTick timer is the source of time base. It is
 413:D:/fchai/work/i-cube/I-CUBE-HUAWEI/Drivers/STM32L4xx_HAL_Driver/Src\stm32l4xx_hal.c ****   *       used to generate interrupts at regular time intervals. Once HAL_SuspendTick()
 414:D:/fchai/work/i-cube/I-CUBE-HUAWEI/Drivers/STM32L4xx_HAL_Driver/Src\stm32l4xx_hal.c ****   *       is called, the SysTick interrupt will be disabled and so Tick increment
 415:D:/fchai/work/i-cube/I-CUBE-HUAWEI/Drivers/STM32L4xx_HAL_Driver/Src\stm32l4xx_hal.c ****   *       is suspended.
 416:D:/fchai/work/i-cube/I-CUBE-HUAWEI/Drivers/STM32L4xx_HAL_Driver/Src\stm32l4xx_hal.c ****   * @note This function is declared as __weak to be overwritten in case of other
 417:D:/fchai/work/i-cube/I-CUBE-HUAWEI/Drivers/STM32L4xx_HAL_Driver/Src\stm32l4xx_hal.c ****   *       implementations in user file.
 418:D:/fchai/work/i-cube/I-CUBE-HUAWEI/Drivers/STM32L4xx_HAL_Driver/Src\stm32l4xx_hal.c ****   * @retval None
 419:D:/fchai/work/i-cube/I-CUBE-HUAWEI/Drivers/STM32L4xx_HAL_Driver/Src\stm32l4xx_hal.c ****   */
 420:D:/fchai/work/i-cube/I-CUBE-HUAWEI/Drivers/STM32L4xx_HAL_Driver/Src\stm32l4xx_hal.c **** __weak void HAL_SuspendTick(void)
 421:D:/fchai/work/i-cube/I-CUBE-HUAWEI/Drivers/STM32L4xx_HAL_Driver/Src\stm32l4xx_hal.c **** {
 546              		.loc 1 421 1 is_stmt 1 view -0
 547              		.cfi_startproc
 548              		@ args = 0, pretend = 0, frame = 0
 549              		@ frame_needed = 0, uses_anonymous_args = 0
 550              		@ link register save eliminated.
 422:D:/fchai/work/i-cube/I-CUBE-HUAWEI/Drivers/STM32L4xx_HAL_Driver/Src\stm32l4xx_hal.c ****   /* Disable SysTick Interrupt */
 423:D:/fchai/work/i-cube/I-CUBE-HUAWEI/Drivers/STM32L4xx_HAL_Driver/Src\stm32l4xx_hal.c ****   SysTick->CTRL &= ~SysTick_CTRL_TICKINT_Msk;
 551              		.loc 1 423 3 view .LVU119
 552              		.loc 1 423 17 is_stmt 0 view .LVU120
 553 0000 024A     		ldr	r2, .L50
 554 0002 1368     		ldr	r3, [r2]
 555 0004 23F00203 		bic	r3, r3, #2
 556 0008 1360     		str	r3, [r2]
 424:D:/fchai/work/i-cube/I-CUBE-HUAWEI/Drivers/STM32L4xx_HAL_Driver/Src\stm32l4xx_hal.c **** }
 557              		.loc 1 424 1 view .LVU121
ARM GAS  T:\msys\tmp\ccK9B02h.s 			page 19


 558 000a 7047     		bx	lr
 559              	.L51:
 560              		.align	2
 561              	.L50:
 562 000c 10E000E0 		.word	-536813552
 563              		.cfi_endproc
 564              	.LFE134:
 566              		.section	.text.HAL_ResumeTick,"ax",%progbits
 567              		.align	1
 568              		.p2align 2,,3
 569              		.weak	HAL_ResumeTick
 570              		.syntax unified
 571              		.thumb
 572              		.thumb_func
 573              		.fpu fpv4-sp-d16
 575              	HAL_ResumeTick:
 576              	.LFB135:
 425:D:/fchai/work/i-cube/I-CUBE-HUAWEI/Drivers/STM32L4xx_HAL_Driver/Src\stm32l4xx_hal.c **** 
 426:D:/fchai/work/i-cube/I-CUBE-HUAWEI/Drivers/STM32L4xx_HAL_Driver/Src\stm32l4xx_hal.c **** /**
 427:D:/fchai/work/i-cube/I-CUBE-HUAWEI/Drivers/STM32L4xx_HAL_Driver/Src\stm32l4xx_hal.c ****   * @brief Resume Tick increment.
 428:D:/fchai/work/i-cube/I-CUBE-HUAWEI/Drivers/STM32L4xx_HAL_Driver/Src\stm32l4xx_hal.c ****   * @note In the default implementation , SysTick timer is the source of time base. It is
 429:D:/fchai/work/i-cube/I-CUBE-HUAWEI/Drivers/STM32L4xx_HAL_Driver/Src\stm32l4xx_hal.c ****   *       used to generate interrupts at regular time intervals. Once HAL_ResumeTick()
 430:D:/fchai/work/i-cube/I-CUBE-HUAWEI/Drivers/STM32L4xx_HAL_Driver/Src\stm32l4xx_hal.c ****   *       is called, the SysTick interrupt will be enabled and so Tick increment
 431:D:/fchai/work/i-cube/I-CUBE-HUAWEI/Drivers/STM32L4xx_HAL_Driver/Src\stm32l4xx_hal.c ****   *       is resumed.
 432:D:/fchai/work/i-cube/I-CUBE-HUAWEI/Drivers/STM32L4xx_HAL_Driver/Src\stm32l4xx_hal.c ****   * @note This function is declared as __weak to be overwritten in case of other
 433:D:/fchai/work/i-cube/I-CUBE-HUAWEI/Drivers/STM32L4xx_HAL_Driver/Src\stm32l4xx_hal.c ****   *       implementations in user file.
 434:D:/fchai/work/i-cube/I-CUBE-HUAWEI/Drivers/STM32L4xx_HAL_Driver/Src\stm32l4xx_hal.c ****   * @retval None
 435:D:/fchai/work/i-cube/I-CUBE-HUAWEI/Drivers/STM32L4xx_HAL_Driver/Src\stm32l4xx_hal.c ****   */
 436:D:/fchai/work/i-cube/I-CUBE-HUAWEI/Drivers/STM32L4xx_HAL_Driver/Src\stm32l4xx_hal.c **** __weak void HAL_ResumeTick(void)
 437:D:/fchai/work/i-cube/I-CUBE-HUAWEI/Drivers/STM32L4xx_HAL_Driver/Src\stm32l4xx_hal.c **** {
 577              		.loc 1 437 1 is_stmt 1 view -0
 578              		.cfi_startproc
 579              		@ args = 0, pretend = 0, frame = 0
 580              		@ frame_needed = 0, uses_anonymous_args = 0
 581              		@ link register save eliminated.
 438:D:/fchai/work/i-cube/I-CUBE-HUAWEI/Drivers/STM32L4xx_HAL_Driver/Src\stm32l4xx_hal.c ****   /* Enable SysTick Interrupt */
 439:D:/fchai/work/i-cube/I-CUBE-HUAWEI/Drivers/STM32L4xx_HAL_Driver/Src\stm32l4xx_hal.c ****   SysTick->CTRL  |= SysTick_CTRL_TICKINT_Msk;
 582              		.loc 1 439 3 view .LVU123
 583              		.loc 1 439 18 is_stmt 0 view .LVU124
 584 0000 024A     		ldr	r2, .L53
 585 0002 1368     		ldr	r3, [r2]
 586 0004 43F00203 		orr	r3, r3, #2
 587 0008 1360     		str	r3, [r2]
 440:D:/fchai/work/i-cube/I-CUBE-HUAWEI/Drivers/STM32L4xx_HAL_Driver/Src\stm32l4xx_hal.c **** }
 588              		.loc 1 440 1 view .LVU125
 589 000a 7047     		bx	lr
 590              	.L54:
 591              		.align	2
 592              	.L53:
 593 000c 10E000E0 		.word	-536813552
 594              		.cfi_endproc
 595              	.LFE135:
 597              		.section	.text.HAL_GetHalVersion,"ax",%progbits
 598              		.align	1
 599              		.p2align 2,,3
 600              		.global	HAL_GetHalVersion
 601              		.syntax unified
ARM GAS  T:\msys\tmp\ccK9B02h.s 			page 20


 602              		.thumb
 603              		.thumb_func
 604              		.fpu fpv4-sp-d16
 606              	HAL_GetHalVersion:
 607              	.LFB136:
 441:D:/fchai/work/i-cube/I-CUBE-HUAWEI/Drivers/STM32L4xx_HAL_Driver/Src\stm32l4xx_hal.c **** 
 442:D:/fchai/work/i-cube/I-CUBE-HUAWEI/Drivers/STM32L4xx_HAL_Driver/Src\stm32l4xx_hal.c **** /**
 443:D:/fchai/work/i-cube/I-CUBE-HUAWEI/Drivers/STM32L4xx_HAL_Driver/Src\stm32l4xx_hal.c ****   * @brief  Return the HAL revision.
 444:D:/fchai/work/i-cube/I-CUBE-HUAWEI/Drivers/STM32L4xx_HAL_Driver/Src\stm32l4xx_hal.c ****   * @retval version : 0xXYZR (8bits for each decimal, R for RC)
 445:D:/fchai/work/i-cube/I-CUBE-HUAWEI/Drivers/STM32L4xx_HAL_Driver/Src\stm32l4xx_hal.c ****   */
 446:D:/fchai/work/i-cube/I-CUBE-HUAWEI/Drivers/STM32L4xx_HAL_Driver/Src\stm32l4xx_hal.c **** uint32_t HAL_GetHalVersion(void)
 447:D:/fchai/work/i-cube/I-CUBE-HUAWEI/Drivers/STM32L4xx_HAL_Driver/Src\stm32l4xx_hal.c **** {
 608              		.loc 1 447 1 is_stmt 1 view -0
 609              		.cfi_startproc
 610              		@ args = 0, pretend = 0, frame = 0
 611              		@ frame_needed = 0, uses_anonymous_args = 0
 612              		@ link register save eliminated.
 448:D:/fchai/work/i-cube/I-CUBE-HUAWEI/Drivers/STM32L4xx_HAL_Driver/Src\stm32l4xx_hal.c ****   return STM32L4XX_HAL_VERSION;
 613              		.loc 1 448 3 view .LVU127
 449:D:/fchai/work/i-cube/I-CUBE-HUAWEI/Drivers/STM32L4xx_HAL_Driver/Src\stm32l4xx_hal.c **** }
 614              		.loc 1 449 1 is_stmt 0 view .LVU128
 615 0000 0048     		ldr	r0, .L56
 616 0002 7047     		bx	lr
 617              	.L57:
 618              		.align	2
 619              	.L56:
 620 0004 00010B01 		.word	17498368
 621              		.cfi_endproc
 622              	.LFE136:
 624              		.section	.text.HAL_GetREVID,"ax",%progbits
 625              		.align	1
 626              		.p2align 2,,3
 627              		.global	HAL_GetREVID
 628              		.syntax unified
 629              		.thumb
 630              		.thumb_func
 631              		.fpu fpv4-sp-d16
 633              	HAL_GetREVID:
 634              	.LFB137:
 450:D:/fchai/work/i-cube/I-CUBE-HUAWEI/Drivers/STM32L4xx_HAL_Driver/Src\stm32l4xx_hal.c **** 
 451:D:/fchai/work/i-cube/I-CUBE-HUAWEI/Drivers/STM32L4xx_HAL_Driver/Src\stm32l4xx_hal.c **** /**
 452:D:/fchai/work/i-cube/I-CUBE-HUAWEI/Drivers/STM32L4xx_HAL_Driver/Src\stm32l4xx_hal.c ****   * @brief  Return the device revision identifier.
 453:D:/fchai/work/i-cube/I-CUBE-HUAWEI/Drivers/STM32L4xx_HAL_Driver/Src\stm32l4xx_hal.c ****   * @retval Device revision identifier
 454:D:/fchai/work/i-cube/I-CUBE-HUAWEI/Drivers/STM32L4xx_HAL_Driver/Src\stm32l4xx_hal.c ****   */
 455:D:/fchai/work/i-cube/I-CUBE-HUAWEI/Drivers/STM32L4xx_HAL_Driver/Src\stm32l4xx_hal.c **** uint32_t HAL_GetREVID(void)
 456:D:/fchai/work/i-cube/I-CUBE-HUAWEI/Drivers/STM32L4xx_HAL_Driver/Src\stm32l4xx_hal.c **** {
 635              		.loc 1 456 1 is_stmt 1 view -0
 636              		.cfi_startproc
 637              		@ args = 0, pretend = 0, frame = 0
 638              		@ frame_needed = 0, uses_anonymous_args = 0
 639              		@ link register save eliminated.
 457:D:/fchai/work/i-cube/I-CUBE-HUAWEI/Drivers/STM32L4xx_HAL_Driver/Src\stm32l4xx_hal.c ****   return((DBGMCU->IDCODE & DBGMCU_IDCODE_REV_ID) >> 16);
 640              		.loc 1 457 3 view .LVU130
 641              		.loc 1 457 17 is_stmt 0 view .LVU131
 642 0000 014B     		ldr	r3, .L59
 643 0002 1868     		ldr	r0, [r3]
 458:D:/fchai/work/i-cube/I-CUBE-HUAWEI/Drivers/STM32L4xx_HAL_Driver/Src\stm32l4xx_hal.c **** }
ARM GAS  T:\msys\tmp\ccK9B02h.s 			page 21


 644              		.loc 1 458 1 view .LVU132
 645 0004 000C     		lsrs	r0, r0, #16
 646 0006 7047     		bx	lr
 647              	.L60:
 648              		.align	2
 649              	.L59:
 650 0008 002004E0 		.word	-536600576
 651              		.cfi_endproc
 652              	.LFE137:
 654              		.section	.text.HAL_GetDEVID,"ax",%progbits
 655              		.align	1
 656              		.p2align 2,,3
 657              		.global	HAL_GetDEVID
 658              		.syntax unified
 659              		.thumb
 660              		.thumb_func
 661              		.fpu fpv4-sp-d16
 663              	HAL_GetDEVID:
 664              	.LFB138:
 459:D:/fchai/work/i-cube/I-CUBE-HUAWEI/Drivers/STM32L4xx_HAL_Driver/Src\stm32l4xx_hal.c **** 
 460:D:/fchai/work/i-cube/I-CUBE-HUAWEI/Drivers/STM32L4xx_HAL_Driver/Src\stm32l4xx_hal.c **** /**
 461:D:/fchai/work/i-cube/I-CUBE-HUAWEI/Drivers/STM32L4xx_HAL_Driver/Src\stm32l4xx_hal.c ****   * @brief  Return the device identifier.
 462:D:/fchai/work/i-cube/I-CUBE-HUAWEI/Drivers/STM32L4xx_HAL_Driver/Src\stm32l4xx_hal.c ****   * @retval Device identifier
 463:D:/fchai/work/i-cube/I-CUBE-HUAWEI/Drivers/STM32L4xx_HAL_Driver/Src\stm32l4xx_hal.c ****   */
 464:D:/fchai/work/i-cube/I-CUBE-HUAWEI/Drivers/STM32L4xx_HAL_Driver/Src\stm32l4xx_hal.c **** uint32_t HAL_GetDEVID(void)
 465:D:/fchai/work/i-cube/I-CUBE-HUAWEI/Drivers/STM32L4xx_HAL_Driver/Src\stm32l4xx_hal.c **** {
 665              		.loc 1 465 1 is_stmt 1 view -0
 666              		.cfi_startproc
 667              		@ args = 0, pretend = 0, frame = 0
 668              		@ frame_needed = 0, uses_anonymous_args = 0
 669              		@ link register save eliminated.
 466:D:/fchai/work/i-cube/I-CUBE-HUAWEI/Drivers/STM32L4xx_HAL_Driver/Src\stm32l4xx_hal.c ****   return(DBGMCU->IDCODE & DBGMCU_IDCODE_DEV_ID);
 670              		.loc 1 466 3 view .LVU134
 671              		.loc 1 466 16 is_stmt 0 view .LVU135
 672 0000 024B     		ldr	r3, .L62
 673 0002 1868     		ldr	r0, [r3]
 467:D:/fchai/work/i-cube/I-CUBE-HUAWEI/Drivers/STM32L4xx_HAL_Driver/Src\stm32l4xx_hal.c **** }
 674              		.loc 1 467 1 view .LVU136
 675 0004 C0F30B00 		ubfx	r0, r0, #0, #12
 676 0008 7047     		bx	lr
 677              	.L63:
 678 000a 00BF     		.align	2
 679              	.L62:
 680 000c 002004E0 		.word	-536600576
 681              		.cfi_endproc
 682              	.LFE138:
 684              		.section	.text.HAL_GetUIDw0,"ax",%progbits
 685              		.align	1
 686              		.p2align 2,,3
 687              		.global	HAL_GetUIDw0
 688              		.syntax unified
 689              		.thumb
 690              		.thumb_func
 691              		.fpu fpv4-sp-d16
 693              	HAL_GetUIDw0:
 694              	.LFB139:
 468:D:/fchai/work/i-cube/I-CUBE-HUAWEI/Drivers/STM32L4xx_HAL_Driver/Src\stm32l4xx_hal.c **** 
ARM GAS  T:\msys\tmp\ccK9B02h.s 			page 22


 469:D:/fchai/work/i-cube/I-CUBE-HUAWEI/Drivers/STM32L4xx_HAL_Driver/Src\stm32l4xx_hal.c **** /**
 470:D:/fchai/work/i-cube/I-CUBE-HUAWEI/Drivers/STM32L4xx_HAL_Driver/Src\stm32l4xx_hal.c ****   * @brief  Return the first word of the unique device identifier (UID based on 96 bits)
 471:D:/fchai/work/i-cube/I-CUBE-HUAWEI/Drivers/STM32L4xx_HAL_Driver/Src\stm32l4xx_hal.c ****   * @retval Device identifier
 472:D:/fchai/work/i-cube/I-CUBE-HUAWEI/Drivers/STM32L4xx_HAL_Driver/Src\stm32l4xx_hal.c ****   */
 473:D:/fchai/work/i-cube/I-CUBE-HUAWEI/Drivers/STM32L4xx_HAL_Driver/Src\stm32l4xx_hal.c **** uint32_t HAL_GetUIDw0(void)
 474:D:/fchai/work/i-cube/I-CUBE-HUAWEI/Drivers/STM32L4xx_HAL_Driver/Src\stm32l4xx_hal.c **** {
 695              		.loc 1 474 1 is_stmt 1 view -0
 696              		.cfi_startproc
 697              		@ args = 0, pretend = 0, frame = 0
 698              		@ frame_needed = 0, uses_anonymous_args = 0
 699              		@ link register save eliminated.
 475:D:/fchai/work/i-cube/I-CUBE-HUAWEI/Drivers/STM32L4xx_HAL_Driver/Src\stm32l4xx_hal.c ****   return(READ_REG(*((uint32_t *)UID_BASE)));
 700              		.loc 1 475 3 view .LVU138
 701              		.loc 1 475 10 is_stmt 0 view .LVU139
 702 0000 014B     		ldr	r3, .L65
 476:D:/fchai/work/i-cube/I-CUBE-HUAWEI/Drivers/STM32L4xx_HAL_Driver/Src\stm32l4xx_hal.c **** }
 703              		.loc 1 476 1 view .LVU140
 704 0002 1868     		ldr	r0, [r3]
 705 0004 7047     		bx	lr
 706              	.L66:
 707 0006 00BF     		.align	2
 708              	.L65:
 709 0008 9075FF1F 		.word	536835472
 710              		.cfi_endproc
 711              	.LFE139:
 713              		.section	.text.HAL_GetUIDw1,"ax",%progbits
 714              		.align	1
 715              		.p2align 2,,3
 716              		.global	HAL_GetUIDw1
 717              		.syntax unified
 718              		.thumb
 719              		.thumb_func
 720              		.fpu fpv4-sp-d16
 722              	HAL_GetUIDw1:
 723              	.LFB140:
 477:D:/fchai/work/i-cube/I-CUBE-HUAWEI/Drivers/STM32L4xx_HAL_Driver/Src\stm32l4xx_hal.c **** 
 478:D:/fchai/work/i-cube/I-CUBE-HUAWEI/Drivers/STM32L4xx_HAL_Driver/Src\stm32l4xx_hal.c **** /**
 479:D:/fchai/work/i-cube/I-CUBE-HUAWEI/Drivers/STM32L4xx_HAL_Driver/Src\stm32l4xx_hal.c ****   * @brief  Return the second word of the unique device identifier (UID based on 96 bits)
 480:D:/fchai/work/i-cube/I-CUBE-HUAWEI/Drivers/STM32L4xx_HAL_Driver/Src\stm32l4xx_hal.c ****   * @retval Device identifier
 481:D:/fchai/work/i-cube/I-CUBE-HUAWEI/Drivers/STM32L4xx_HAL_Driver/Src\stm32l4xx_hal.c ****   */
 482:D:/fchai/work/i-cube/I-CUBE-HUAWEI/Drivers/STM32L4xx_HAL_Driver/Src\stm32l4xx_hal.c **** uint32_t HAL_GetUIDw1(void)
 483:D:/fchai/work/i-cube/I-CUBE-HUAWEI/Drivers/STM32L4xx_HAL_Driver/Src\stm32l4xx_hal.c **** {
 724              		.loc 1 483 1 is_stmt 1 view -0
 725              		.cfi_startproc
 726              		@ args = 0, pretend = 0, frame = 0
 727              		@ frame_needed = 0, uses_anonymous_args = 0
 728              		@ link register save eliminated.
 484:D:/fchai/work/i-cube/I-CUBE-HUAWEI/Drivers/STM32L4xx_HAL_Driver/Src\stm32l4xx_hal.c ****   return(READ_REG(*((uint32_t *)(UID_BASE + 4U))));
 729              		.loc 1 484 3 view .LVU142
 730              		.loc 1 484 10 is_stmt 0 view .LVU143
 731 0000 014B     		ldr	r3, .L68
 485:D:/fchai/work/i-cube/I-CUBE-HUAWEI/Drivers/STM32L4xx_HAL_Driver/Src\stm32l4xx_hal.c **** }
 732              		.loc 1 485 1 view .LVU144
 733 0002 1868     		ldr	r0, [r3]
 734 0004 7047     		bx	lr
 735              	.L69:
 736 0006 00BF     		.align	2
ARM GAS  T:\msys\tmp\ccK9B02h.s 			page 23


 737              	.L68:
 738 0008 9475FF1F 		.word	536835476
 739              		.cfi_endproc
 740              	.LFE140:
 742              		.section	.text.HAL_GetUIDw2,"ax",%progbits
 743              		.align	1
 744              		.p2align 2,,3
 745              		.global	HAL_GetUIDw2
 746              		.syntax unified
 747              		.thumb
 748              		.thumb_func
 749              		.fpu fpv4-sp-d16
 751              	HAL_GetUIDw2:
 752              	.LFB141:
 486:D:/fchai/work/i-cube/I-CUBE-HUAWEI/Drivers/STM32L4xx_HAL_Driver/Src\stm32l4xx_hal.c **** 
 487:D:/fchai/work/i-cube/I-CUBE-HUAWEI/Drivers/STM32L4xx_HAL_Driver/Src\stm32l4xx_hal.c **** /**
 488:D:/fchai/work/i-cube/I-CUBE-HUAWEI/Drivers/STM32L4xx_HAL_Driver/Src\stm32l4xx_hal.c ****   * @brief  Return the third word of the unique device identifier (UID based on 96 bits)
 489:D:/fchai/work/i-cube/I-CUBE-HUAWEI/Drivers/STM32L4xx_HAL_Driver/Src\stm32l4xx_hal.c ****   * @retval Device identifier
 490:D:/fchai/work/i-cube/I-CUBE-HUAWEI/Drivers/STM32L4xx_HAL_Driver/Src\stm32l4xx_hal.c ****   */
 491:D:/fchai/work/i-cube/I-CUBE-HUAWEI/Drivers/STM32L4xx_HAL_Driver/Src\stm32l4xx_hal.c **** uint32_t HAL_GetUIDw2(void)
 492:D:/fchai/work/i-cube/I-CUBE-HUAWEI/Drivers/STM32L4xx_HAL_Driver/Src\stm32l4xx_hal.c **** {
 753              		.loc 1 492 1 is_stmt 1 view -0
 754              		.cfi_startproc
 755              		@ args = 0, pretend = 0, frame = 0
 756              		@ frame_needed = 0, uses_anonymous_args = 0
 757              		@ link register save eliminated.
 493:D:/fchai/work/i-cube/I-CUBE-HUAWEI/Drivers/STM32L4xx_HAL_Driver/Src\stm32l4xx_hal.c ****   return(READ_REG(*((uint32_t *)(UID_BASE + 8U))));
 758              		.loc 1 493 3 view .LVU146
 759              		.loc 1 493 10 is_stmt 0 view .LVU147
 760 0000 014B     		ldr	r3, .L71
 494:D:/fchai/work/i-cube/I-CUBE-HUAWEI/Drivers/STM32L4xx_HAL_Driver/Src\stm32l4xx_hal.c **** }
 761              		.loc 1 494 1 view .LVU148
 762 0002 1868     		ldr	r0, [r3]
 763 0004 7047     		bx	lr
 764              	.L72:
 765 0006 00BF     		.align	2
 766              	.L71:
 767 0008 9875FF1F 		.word	536835480
 768              		.cfi_endproc
 769              	.LFE141:
 771              		.section	.text.HAL_DBGMCU_EnableDBGSleepMode,"ax",%progbits
 772              		.align	1
 773              		.p2align 2,,3
 774              		.global	HAL_DBGMCU_EnableDBGSleepMode
 775              		.syntax unified
 776              		.thumb
 777              		.thumb_func
 778              		.fpu fpv4-sp-d16
 780              	HAL_DBGMCU_EnableDBGSleepMode:
 781              	.LFB142:
 495:D:/fchai/work/i-cube/I-CUBE-HUAWEI/Drivers/STM32L4xx_HAL_Driver/Src\stm32l4xx_hal.c **** 
 496:D:/fchai/work/i-cube/I-CUBE-HUAWEI/Drivers/STM32L4xx_HAL_Driver/Src\stm32l4xx_hal.c **** /**
 497:D:/fchai/work/i-cube/I-CUBE-HUAWEI/Drivers/STM32L4xx_HAL_Driver/Src\stm32l4xx_hal.c ****   * @}
 498:D:/fchai/work/i-cube/I-CUBE-HUAWEI/Drivers/STM32L4xx_HAL_Driver/Src\stm32l4xx_hal.c ****   */
 499:D:/fchai/work/i-cube/I-CUBE-HUAWEI/Drivers/STM32L4xx_HAL_Driver/Src\stm32l4xx_hal.c **** 
 500:D:/fchai/work/i-cube/I-CUBE-HUAWEI/Drivers/STM32L4xx_HAL_Driver/Src\stm32l4xx_hal.c **** /** @defgroup HAL_Exported_Functions_Group3 HAL Debug functions
 501:D:/fchai/work/i-cube/I-CUBE-HUAWEI/Drivers/STM32L4xx_HAL_Driver/Src\stm32l4xx_hal.c ****  *  @brief    HAL Debug functions
ARM GAS  T:\msys\tmp\ccK9B02h.s 			page 24


 502:D:/fchai/work/i-cube/I-CUBE-HUAWEI/Drivers/STM32L4xx_HAL_Driver/Src\stm32l4xx_hal.c ****  *
 503:D:/fchai/work/i-cube/I-CUBE-HUAWEI/Drivers/STM32L4xx_HAL_Driver/Src\stm32l4xx_hal.c **** @verbatim
 504:D:/fchai/work/i-cube/I-CUBE-HUAWEI/Drivers/STM32L4xx_HAL_Driver/Src\stm32l4xx_hal.c ****  ===============================================================================
 505:D:/fchai/work/i-cube/I-CUBE-HUAWEI/Drivers/STM32L4xx_HAL_Driver/Src\stm32l4xx_hal.c ****                       ##### HAL Debug functions #####
 506:D:/fchai/work/i-cube/I-CUBE-HUAWEI/Drivers/STM32L4xx_HAL_Driver/Src\stm32l4xx_hal.c ****  ===============================================================================
 507:D:/fchai/work/i-cube/I-CUBE-HUAWEI/Drivers/STM32L4xx_HAL_Driver/Src\stm32l4xx_hal.c ****     [..]  This section provides functions allowing to:
 508:D:/fchai/work/i-cube/I-CUBE-HUAWEI/Drivers/STM32L4xx_HAL_Driver/Src\stm32l4xx_hal.c ****       (+) Enable/Disable Debug module during SLEEP mode
 509:D:/fchai/work/i-cube/I-CUBE-HUAWEI/Drivers/STM32L4xx_HAL_Driver/Src\stm32l4xx_hal.c ****       (+) Enable/Disable Debug module during STOP0/STOP1/STOP2 modes
 510:D:/fchai/work/i-cube/I-CUBE-HUAWEI/Drivers/STM32L4xx_HAL_Driver/Src\stm32l4xx_hal.c ****       (+) Enable/Disable Debug module during STANDBY mode
 511:D:/fchai/work/i-cube/I-CUBE-HUAWEI/Drivers/STM32L4xx_HAL_Driver/Src\stm32l4xx_hal.c **** 
 512:D:/fchai/work/i-cube/I-CUBE-HUAWEI/Drivers/STM32L4xx_HAL_Driver/Src\stm32l4xx_hal.c **** @endverbatim
 513:D:/fchai/work/i-cube/I-CUBE-HUAWEI/Drivers/STM32L4xx_HAL_Driver/Src\stm32l4xx_hal.c ****   * @{
 514:D:/fchai/work/i-cube/I-CUBE-HUAWEI/Drivers/STM32L4xx_HAL_Driver/Src\stm32l4xx_hal.c ****   */
 515:D:/fchai/work/i-cube/I-CUBE-HUAWEI/Drivers/STM32L4xx_HAL_Driver/Src\stm32l4xx_hal.c **** 
 516:D:/fchai/work/i-cube/I-CUBE-HUAWEI/Drivers/STM32L4xx_HAL_Driver/Src\stm32l4xx_hal.c **** /**
 517:D:/fchai/work/i-cube/I-CUBE-HUAWEI/Drivers/STM32L4xx_HAL_Driver/Src\stm32l4xx_hal.c ****   * @brief  Enable the Debug Module during SLEEP mode.
 518:D:/fchai/work/i-cube/I-CUBE-HUAWEI/Drivers/STM32L4xx_HAL_Driver/Src\stm32l4xx_hal.c ****   * @retval None
 519:D:/fchai/work/i-cube/I-CUBE-HUAWEI/Drivers/STM32L4xx_HAL_Driver/Src\stm32l4xx_hal.c ****   */
 520:D:/fchai/work/i-cube/I-CUBE-HUAWEI/Drivers/STM32L4xx_HAL_Driver/Src\stm32l4xx_hal.c **** void HAL_DBGMCU_EnableDBGSleepMode(void)
 521:D:/fchai/work/i-cube/I-CUBE-HUAWEI/Drivers/STM32L4xx_HAL_Driver/Src\stm32l4xx_hal.c **** {
 782              		.loc 1 521 1 is_stmt 1 view -0
 783              		.cfi_startproc
 784              		@ args = 0, pretend = 0, frame = 0
 785              		@ frame_needed = 0, uses_anonymous_args = 0
 786              		@ link register save eliminated.
 522:D:/fchai/work/i-cube/I-CUBE-HUAWEI/Drivers/STM32L4xx_HAL_Driver/Src\stm32l4xx_hal.c ****   SET_BIT(DBGMCU->CR, DBGMCU_CR_DBG_SLEEP);
 787              		.loc 1 522 3 view .LVU150
 788 0000 024A     		ldr	r2, .L74
 789 0002 5368     		ldr	r3, [r2, #4]
 790 0004 43F00103 		orr	r3, r3, #1
 791 0008 5360     		str	r3, [r2, #4]
 523:D:/fchai/work/i-cube/I-CUBE-HUAWEI/Drivers/STM32L4xx_HAL_Driver/Src\stm32l4xx_hal.c **** }
 792              		.loc 1 523 1 is_stmt 0 view .LVU151
 793 000a 7047     		bx	lr
 794              	.L75:
 795              		.align	2
 796              	.L74:
 797 000c 002004E0 		.word	-536600576
 798              		.cfi_endproc
 799              	.LFE142:
 801              		.section	.text.HAL_DBGMCU_DisableDBGSleepMode,"ax",%progbits
 802              		.align	1
 803              		.p2align 2,,3
 804              		.global	HAL_DBGMCU_DisableDBGSleepMode
 805              		.syntax unified
 806              		.thumb
 807              		.thumb_func
 808              		.fpu fpv4-sp-d16
 810              	HAL_DBGMCU_DisableDBGSleepMode:
 811              	.LFB143:
 524:D:/fchai/work/i-cube/I-CUBE-HUAWEI/Drivers/STM32L4xx_HAL_Driver/Src\stm32l4xx_hal.c **** 
 525:D:/fchai/work/i-cube/I-CUBE-HUAWEI/Drivers/STM32L4xx_HAL_Driver/Src\stm32l4xx_hal.c **** /**
 526:D:/fchai/work/i-cube/I-CUBE-HUAWEI/Drivers/STM32L4xx_HAL_Driver/Src\stm32l4xx_hal.c ****   * @brief  Disable the Debug Module during SLEEP mode.
 527:D:/fchai/work/i-cube/I-CUBE-HUAWEI/Drivers/STM32L4xx_HAL_Driver/Src\stm32l4xx_hal.c ****   * @retval None
 528:D:/fchai/work/i-cube/I-CUBE-HUAWEI/Drivers/STM32L4xx_HAL_Driver/Src\stm32l4xx_hal.c ****   */
 529:D:/fchai/work/i-cube/I-CUBE-HUAWEI/Drivers/STM32L4xx_HAL_Driver/Src\stm32l4xx_hal.c **** void HAL_DBGMCU_DisableDBGSleepMode(void)
 530:D:/fchai/work/i-cube/I-CUBE-HUAWEI/Drivers/STM32L4xx_HAL_Driver/Src\stm32l4xx_hal.c **** {
ARM GAS  T:\msys\tmp\ccK9B02h.s 			page 25


 812              		.loc 1 530 1 is_stmt 1 view -0
 813              		.cfi_startproc
 814              		@ args = 0, pretend = 0, frame = 0
 815              		@ frame_needed = 0, uses_anonymous_args = 0
 816              		@ link register save eliminated.
 531:D:/fchai/work/i-cube/I-CUBE-HUAWEI/Drivers/STM32L4xx_HAL_Driver/Src\stm32l4xx_hal.c ****   CLEAR_BIT(DBGMCU->CR, DBGMCU_CR_DBG_SLEEP);
 817              		.loc 1 531 3 view .LVU153
 818 0000 024A     		ldr	r2, .L77
 819 0002 5368     		ldr	r3, [r2, #4]
 820 0004 23F00103 		bic	r3, r3, #1
 821 0008 5360     		str	r3, [r2, #4]
 532:D:/fchai/work/i-cube/I-CUBE-HUAWEI/Drivers/STM32L4xx_HAL_Driver/Src\stm32l4xx_hal.c **** }
 822              		.loc 1 532 1 is_stmt 0 view .LVU154
 823 000a 7047     		bx	lr
 824              	.L78:
 825              		.align	2
 826              	.L77:
 827 000c 002004E0 		.word	-536600576
 828              		.cfi_endproc
 829              	.LFE143:
 831              		.section	.text.HAL_DBGMCU_EnableDBGStopMode,"ax",%progbits
 832              		.align	1
 833              		.p2align 2,,3
 834              		.global	HAL_DBGMCU_EnableDBGStopMode
 835              		.syntax unified
 836              		.thumb
 837              		.thumb_func
 838              		.fpu fpv4-sp-d16
 840              	HAL_DBGMCU_EnableDBGStopMode:
 841              	.LFB144:
 533:D:/fchai/work/i-cube/I-CUBE-HUAWEI/Drivers/STM32L4xx_HAL_Driver/Src\stm32l4xx_hal.c **** 
 534:D:/fchai/work/i-cube/I-CUBE-HUAWEI/Drivers/STM32L4xx_HAL_Driver/Src\stm32l4xx_hal.c **** /**
 535:D:/fchai/work/i-cube/I-CUBE-HUAWEI/Drivers/STM32L4xx_HAL_Driver/Src\stm32l4xx_hal.c ****   * @brief  Enable the Debug Module during STOP0/STOP1/STOP2 modes.
 536:D:/fchai/work/i-cube/I-CUBE-HUAWEI/Drivers/STM32L4xx_HAL_Driver/Src\stm32l4xx_hal.c ****   * @retval None
 537:D:/fchai/work/i-cube/I-CUBE-HUAWEI/Drivers/STM32L4xx_HAL_Driver/Src\stm32l4xx_hal.c ****   */
 538:D:/fchai/work/i-cube/I-CUBE-HUAWEI/Drivers/STM32L4xx_HAL_Driver/Src\stm32l4xx_hal.c **** void HAL_DBGMCU_EnableDBGStopMode(void)
 539:D:/fchai/work/i-cube/I-CUBE-HUAWEI/Drivers/STM32L4xx_HAL_Driver/Src\stm32l4xx_hal.c **** {
 842              		.loc 1 539 1 is_stmt 1 view -0
 843              		.cfi_startproc
 844              		@ args = 0, pretend = 0, frame = 0
 845              		@ frame_needed = 0, uses_anonymous_args = 0
 846              		@ link register save eliminated.
 540:D:/fchai/work/i-cube/I-CUBE-HUAWEI/Drivers/STM32L4xx_HAL_Driver/Src\stm32l4xx_hal.c ****   SET_BIT(DBGMCU->CR, DBGMCU_CR_DBG_STOP);
 847              		.loc 1 540 3 view .LVU156
 848 0000 024A     		ldr	r2, .L80
 849 0002 5368     		ldr	r3, [r2, #4]
 850 0004 43F00203 		orr	r3, r3, #2
 851 0008 5360     		str	r3, [r2, #4]
 541:D:/fchai/work/i-cube/I-CUBE-HUAWEI/Drivers/STM32L4xx_HAL_Driver/Src\stm32l4xx_hal.c **** }
 852              		.loc 1 541 1 is_stmt 0 view .LVU157
 853 000a 7047     		bx	lr
 854              	.L81:
 855              		.align	2
 856              	.L80:
 857 000c 002004E0 		.word	-536600576
 858              		.cfi_endproc
 859              	.LFE144:
ARM GAS  T:\msys\tmp\ccK9B02h.s 			page 26


 861              		.section	.text.HAL_DBGMCU_DisableDBGStopMode,"ax",%progbits
 862              		.align	1
 863              		.p2align 2,,3
 864              		.global	HAL_DBGMCU_DisableDBGStopMode
 865              		.syntax unified
 866              		.thumb
 867              		.thumb_func
 868              		.fpu fpv4-sp-d16
 870              	HAL_DBGMCU_DisableDBGStopMode:
 871              	.LFB145:
 542:D:/fchai/work/i-cube/I-CUBE-HUAWEI/Drivers/STM32L4xx_HAL_Driver/Src\stm32l4xx_hal.c **** 
 543:D:/fchai/work/i-cube/I-CUBE-HUAWEI/Drivers/STM32L4xx_HAL_Driver/Src\stm32l4xx_hal.c **** /**
 544:D:/fchai/work/i-cube/I-CUBE-HUAWEI/Drivers/STM32L4xx_HAL_Driver/Src\stm32l4xx_hal.c ****   * @brief  Disable the Debug Module during STOP0/STOP1/STOP2 modes.
 545:D:/fchai/work/i-cube/I-CUBE-HUAWEI/Drivers/STM32L4xx_HAL_Driver/Src\stm32l4xx_hal.c ****   * @retval None
 546:D:/fchai/work/i-cube/I-CUBE-HUAWEI/Drivers/STM32L4xx_HAL_Driver/Src\stm32l4xx_hal.c ****   */
 547:D:/fchai/work/i-cube/I-CUBE-HUAWEI/Drivers/STM32L4xx_HAL_Driver/Src\stm32l4xx_hal.c **** void HAL_DBGMCU_DisableDBGStopMode(void)
 548:D:/fchai/work/i-cube/I-CUBE-HUAWEI/Drivers/STM32L4xx_HAL_Driver/Src\stm32l4xx_hal.c **** {
 872              		.loc 1 548 1 is_stmt 1 view -0
 873              		.cfi_startproc
 874              		@ args = 0, pretend = 0, frame = 0
 875              		@ frame_needed = 0, uses_anonymous_args = 0
 876              		@ link register save eliminated.
 549:D:/fchai/work/i-cube/I-CUBE-HUAWEI/Drivers/STM32L4xx_HAL_Driver/Src\stm32l4xx_hal.c ****   CLEAR_BIT(DBGMCU->CR, DBGMCU_CR_DBG_STOP);
 877              		.loc 1 549 3 view .LVU159
 878 0000 024A     		ldr	r2, .L83
 879 0002 5368     		ldr	r3, [r2, #4]
 880 0004 23F00203 		bic	r3, r3, #2
 881 0008 5360     		str	r3, [r2, #4]
 550:D:/fchai/work/i-cube/I-CUBE-HUAWEI/Drivers/STM32L4xx_HAL_Driver/Src\stm32l4xx_hal.c **** }
 882              		.loc 1 550 1 is_stmt 0 view .LVU160
 883 000a 7047     		bx	lr
 884              	.L84:
 885              		.align	2
 886              	.L83:
 887 000c 002004E0 		.word	-536600576
 888              		.cfi_endproc
 889              	.LFE145:
 891              		.section	.text.HAL_DBGMCU_EnableDBGStandbyMode,"ax",%progbits
 892              		.align	1
 893              		.p2align 2,,3
 894              		.global	HAL_DBGMCU_EnableDBGStandbyMode
 895              		.syntax unified
 896              		.thumb
 897              		.thumb_func
 898              		.fpu fpv4-sp-d16
 900              	HAL_DBGMCU_EnableDBGStandbyMode:
 901              	.LFB146:
 551:D:/fchai/work/i-cube/I-CUBE-HUAWEI/Drivers/STM32L4xx_HAL_Driver/Src\stm32l4xx_hal.c **** 
 552:D:/fchai/work/i-cube/I-CUBE-HUAWEI/Drivers/STM32L4xx_HAL_Driver/Src\stm32l4xx_hal.c **** /**
 553:D:/fchai/work/i-cube/I-CUBE-HUAWEI/Drivers/STM32L4xx_HAL_Driver/Src\stm32l4xx_hal.c ****   * @brief  Enable the Debug Module during STANDBY mode.
 554:D:/fchai/work/i-cube/I-CUBE-HUAWEI/Drivers/STM32L4xx_HAL_Driver/Src\stm32l4xx_hal.c ****   * @retval None
 555:D:/fchai/work/i-cube/I-CUBE-HUAWEI/Drivers/STM32L4xx_HAL_Driver/Src\stm32l4xx_hal.c ****   */
 556:D:/fchai/work/i-cube/I-CUBE-HUAWEI/Drivers/STM32L4xx_HAL_Driver/Src\stm32l4xx_hal.c **** void HAL_DBGMCU_EnableDBGStandbyMode(void)
 557:D:/fchai/work/i-cube/I-CUBE-HUAWEI/Drivers/STM32L4xx_HAL_Driver/Src\stm32l4xx_hal.c **** {
 902              		.loc 1 557 1 is_stmt 1 view -0
 903              		.cfi_startproc
 904              		@ args = 0, pretend = 0, frame = 0
ARM GAS  T:\msys\tmp\ccK9B02h.s 			page 27


 905              		@ frame_needed = 0, uses_anonymous_args = 0
 906              		@ link register save eliminated.
 558:D:/fchai/work/i-cube/I-CUBE-HUAWEI/Drivers/STM32L4xx_HAL_Driver/Src\stm32l4xx_hal.c ****   SET_BIT(DBGMCU->CR, DBGMCU_CR_DBG_STANDBY);
 907              		.loc 1 558 3 view .LVU162
 908 0000 024A     		ldr	r2, .L86
 909 0002 5368     		ldr	r3, [r2, #4]
 910 0004 43F00403 		orr	r3, r3, #4
 911 0008 5360     		str	r3, [r2, #4]
 559:D:/fchai/work/i-cube/I-CUBE-HUAWEI/Drivers/STM32L4xx_HAL_Driver/Src\stm32l4xx_hal.c **** }
 912              		.loc 1 559 1 is_stmt 0 view .LVU163
 913 000a 7047     		bx	lr
 914              	.L87:
 915              		.align	2
 916              	.L86:
 917 000c 002004E0 		.word	-536600576
 918              		.cfi_endproc
 919              	.LFE146:
 921              		.section	.text.HAL_DBGMCU_DisableDBGStandbyMode,"ax",%progbits
 922              		.align	1
 923              		.p2align 2,,3
 924              		.global	HAL_DBGMCU_DisableDBGStandbyMode
 925              		.syntax unified
 926              		.thumb
 927              		.thumb_func
 928              		.fpu fpv4-sp-d16
 930              	HAL_DBGMCU_DisableDBGStandbyMode:
 931              	.LFB147:
 560:D:/fchai/work/i-cube/I-CUBE-HUAWEI/Drivers/STM32L4xx_HAL_Driver/Src\stm32l4xx_hal.c **** 
 561:D:/fchai/work/i-cube/I-CUBE-HUAWEI/Drivers/STM32L4xx_HAL_Driver/Src\stm32l4xx_hal.c **** /**
 562:D:/fchai/work/i-cube/I-CUBE-HUAWEI/Drivers/STM32L4xx_HAL_Driver/Src\stm32l4xx_hal.c ****   * @brief  Disable the Debug Module during STANDBY mode.
 563:D:/fchai/work/i-cube/I-CUBE-HUAWEI/Drivers/STM32L4xx_HAL_Driver/Src\stm32l4xx_hal.c ****   * @retval None
 564:D:/fchai/work/i-cube/I-CUBE-HUAWEI/Drivers/STM32L4xx_HAL_Driver/Src\stm32l4xx_hal.c ****   */
 565:D:/fchai/work/i-cube/I-CUBE-HUAWEI/Drivers/STM32L4xx_HAL_Driver/Src\stm32l4xx_hal.c **** void HAL_DBGMCU_DisableDBGStandbyMode(void)
 566:D:/fchai/work/i-cube/I-CUBE-HUAWEI/Drivers/STM32L4xx_HAL_Driver/Src\stm32l4xx_hal.c **** {
 932              		.loc 1 566 1 is_stmt 1 view -0
 933              		.cfi_startproc
 934              		@ args = 0, pretend = 0, frame = 0
 935              		@ frame_needed = 0, uses_anonymous_args = 0
 936              		@ link register save eliminated.
 567:D:/fchai/work/i-cube/I-CUBE-HUAWEI/Drivers/STM32L4xx_HAL_Driver/Src\stm32l4xx_hal.c ****   CLEAR_BIT(DBGMCU->CR, DBGMCU_CR_DBG_STANDBY);
 937              		.loc 1 567 3 view .LVU165
 938 0000 024A     		ldr	r2, .L89
 939 0002 5368     		ldr	r3, [r2, #4]
 940 0004 23F00403 		bic	r3, r3, #4
 941 0008 5360     		str	r3, [r2, #4]
 568:D:/fchai/work/i-cube/I-CUBE-HUAWEI/Drivers/STM32L4xx_HAL_Driver/Src\stm32l4xx_hal.c **** }
 942              		.loc 1 568 1 is_stmt 0 view .LVU166
 943 000a 7047     		bx	lr
 944              	.L90:
 945              		.align	2
 946              	.L89:
 947 000c 002004E0 		.word	-536600576
 948              		.cfi_endproc
 949              	.LFE147:
 951              		.section	.text.HAL_SYSCFG_SRAM2Erase,"ax",%progbits
 952              		.align	1
 953              		.p2align 2,,3
ARM GAS  T:\msys\tmp\ccK9B02h.s 			page 28


 954              		.global	HAL_SYSCFG_SRAM2Erase
 955              		.syntax unified
 956              		.thumb
 957              		.thumb_func
 958              		.fpu fpv4-sp-d16
 960              	HAL_SYSCFG_SRAM2Erase:
 961              	.LFB148:
 569:D:/fchai/work/i-cube/I-CUBE-HUAWEI/Drivers/STM32L4xx_HAL_Driver/Src\stm32l4xx_hal.c **** 
 570:D:/fchai/work/i-cube/I-CUBE-HUAWEI/Drivers/STM32L4xx_HAL_Driver/Src\stm32l4xx_hal.c **** /**
 571:D:/fchai/work/i-cube/I-CUBE-HUAWEI/Drivers/STM32L4xx_HAL_Driver/Src\stm32l4xx_hal.c ****   * @}
 572:D:/fchai/work/i-cube/I-CUBE-HUAWEI/Drivers/STM32L4xx_HAL_Driver/Src\stm32l4xx_hal.c ****   */
 573:D:/fchai/work/i-cube/I-CUBE-HUAWEI/Drivers/STM32L4xx_HAL_Driver/Src\stm32l4xx_hal.c **** 
 574:D:/fchai/work/i-cube/I-CUBE-HUAWEI/Drivers/STM32L4xx_HAL_Driver/Src\stm32l4xx_hal.c **** /** @defgroup HAL_Exported_Functions_Group4 HAL SYSCFG configuration functions
 575:D:/fchai/work/i-cube/I-CUBE-HUAWEI/Drivers/STM32L4xx_HAL_Driver/Src\stm32l4xx_hal.c ****  *  @brief    HAL SYSCFG configuration functions
 576:D:/fchai/work/i-cube/I-CUBE-HUAWEI/Drivers/STM32L4xx_HAL_Driver/Src\stm32l4xx_hal.c ****  *
 577:D:/fchai/work/i-cube/I-CUBE-HUAWEI/Drivers/STM32L4xx_HAL_Driver/Src\stm32l4xx_hal.c **** @verbatim
 578:D:/fchai/work/i-cube/I-CUBE-HUAWEI/Drivers/STM32L4xx_HAL_Driver/Src\stm32l4xx_hal.c ****  ===============================================================================
 579:D:/fchai/work/i-cube/I-CUBE-HUAWEI/Drivers/STM32L4xx_HAL_Driver/Src\stm32l4xx_hal.c ****                       ##### HAL SYSCFG configuration functions #####
 580:D:/fchai/work/i-cube/I-CUBE-HUAWEI/Drivers/STM32L4xx_HAL_Driver/Src\stm32l4xx_hal.c ****  ===============================================================================
 581:D:/fchai/work/i-cube/I-CUBE-HUAWEI/Drivers/STM32L4xx_HAL_Driver/Src\stm32l4xx_hal.c ****     [..]  This section provides functions allowing to:
 582:D:/fchai/work/i-cube/I-CUBE-HUAWEI/Drivers/STM32L4xx_HAL_Driver/Src\stm32l4xx_hal.c ****       (+) Start a hardware SRAM2 erase operation
 583:D:/fchai/work/i-cube/I-CUBE-HUAWEI/Drivers/STM32L4xx_HAL_Driver/Src\stm32l4xx_hal.c ****       (+) Enable/Disable the Internal FLASH Bank Swapping
 584:D:/fchai/work/i-cube/I-CUBE-HUAWEI/Drivers/STM32L4xx_HAL_Driver/Src\stm32l4xx_hal.c ****       (+) Configure the Voltage reference buffer
 585:D:/fchai/work/i-cube/I-CUBE-HUAWEI/Drivers/STM32L4xx_HAL_Driver/Src\stm32l4xx_hal.c ****       (+) Enable/Disable the Voltage reference buffer
 586:D:/fchai/work/i-cube/I-CUBE-HUAWEI/Drivers/STM32L4xx_HAL_Driver/Src\stm32l4xx_hal.c ****       (+) Enable/Disable the I/O analog switch voltage booster
 587:D:/fchai/work/i-cube/I-CUBE-HUAWEI/Drivers/STM32L4xx_HAL_Driver/Src\stm32l4xx_hal.c **** 
 588:D:/fchai/work/i-cube/I-CUBE-HUAWEI/Drivers/STM32L4xx_HAL_Driver/Src\stm32l4xx_hal.c **** @endverbatim
 589:D:/fchai/work/i-cube/I-CUBE-HUAWEI/Drivers/STM32L4xx_HAL_Driver/Src\stm32l4xx_hal.c ****   * @{
 590:D:/fchai/work/i-cube/I-CUBE-HUAWEI/Drivers/STM32L4xx_HAL_Driver/Src\stm32l4xx_hal.c ****   */
 591:D:/fchai/work/i-cube/I-CUBE-HUAWEI/Drivers/STM32L4xx_HAL_Driver/Src\stm32l4xx_hal.c **** 
 592:D:/fchai/work/i-cube/I-CUBE-HUAWEI/Drivers/STM32L4xx_HAL_Driver/Src\stm32l4xx_hal.c **** /**
 593:D:/fchai/work/i-cube/I-CUBE-HUAWEI/Drivers/STM32L4xx_HAL_Driver/Src\stm32l4xx_hal.c ****   * @brief  Start a hardware SRAM2 erase operation.
 594:D:/fchai/work/i-cube/I-CUBE-HUAWEI/Drivers/STM32L4xx_HAL_Driver/Src\stm32l4xx_hal.c ****   * @note   As long as SRAM2 is not erased the SRAM2ER bit will be set.
 595:D:/fchai/work/i-cube/I-CUBE-HUAWEI/Drivers/STM32L4xx_HAL_Driver/Src\stm32l4xx_hal.c ****   *         This bit is automatically reset at the end of the SRAM2 erase operation.
 596:D:/fchai/work/i-cube/I-CUBE-HUAWEI/Drivers/STM32L4xx_HAL_Driver/Src\stm32l4xx_hal.c ****   * @retval None
 597:D:/fchai/work/i-cube/I-CUBE-HUAWEI/Drivers/STM32L4xx_HAL_Driver/Src\stm32l4xx_hal.c ****   */
 598:D:/fchai/work/i-cube/I-CUBE-HUAWEI/Drivers/STM32L4xx_HAL_Driver/Src\stm32l4xx_hal.c **** void HAL_SYSCFG_SRAM2Erase(void)
 599:D:/fchai/work/i-cube/I-CUBE-HUAWEI/Drivers/STM32L4xx_HAL_Driver/Src\stm32l4xx_hal.c **** {
 962              		.loc 1 599 1 is_stmt 1 view -0
 963              		.cfi_startproc
 964              		@ args = 0, pretend = 0, frame = 0
 965              		@ frame_needed = 0, uses_anonymous_args = 0
 966              		@ link register save eliminated.
 600:D:/fchai/work/i-cube/I-CUBE-HUAWEI/Drivers/STM32L4xx_HAL_Driver/Src\stm32l4xx_hal.c ****   /* unlock the write protection of the SRAM2ER bit */
 601:D:/fchai/work/i-cube/I-CUBE-HUAWEI/Drivers/STM32L4xx_HAL_Driver/Src\stm32l4xx_hal.c ****   SYSCFG->SKR = 0xCA;
 967              		.loc 1 601 3 view .LVU168
 968              		.loc 1 601 15 is_stmt 0 view .LVU169
 969 0000 054B     		ldr	r3, .L93
 602:D:/fchai/work/i-cube/I-CUBE-HUAWEI/Drivers/STM32L4xx_HAL_Driver/Src\stm32l4xx_hal.c ****   SYSCFG->SKR = 0x53;
 603:D:/fchai/work/i-cube/I-CUBE-HUAWEI/Drivers/STM32L4xx_HAL_Driver/Src\stm32l4xx_hal.c ****   /* Starts a hardware SRAM2 erase operation*/
 604:D:/fchai/work/i-cube/I-CUBE-HUAWEI/Drivers/STM32L4xx_HAL_Driver/Src\stm32l4xx_hal.c ****   *(__IO uint32_t *) SCSR_SRAM2ER_BB = 0x00000001UL;
 970              		.loc 1 604 38 view .LVU170
 971 0002 064A     		ldr	r2, .L93+4
 599:D:/fchai/work/i-cube/I-CUBE-HUAWEI/Drivers/STM32L4xx_HAL_Driver/Src\stm32l4xx_hal.c ****   /* unlock the write protection of the SRAM2ER bit */
 972              		.loc 1 599 1 view .LVU171
 973 0004 10B4     		push	{r4}
 974              	.LCFI5:
ARM GAS  T:\msys\tmp\ccK9B02h.s 			page 29


 975              		.cfi_def_cfa_offset 4
 976              		.cfi_offset 4, -4
 602:D:/fchai/work/i-cube/I-CUBE-HUAWEI/Drivers/STM32L4xx_HAL_Driver/Src\stm32l4xx_hal.c ****   SYSCFG->SKR = 0x53;
 977              		.loc 1 602 15 view .LVU172
 978 0006 5320     		movs	r0, #83
 601:D:/fchai/work/i-cube/I-CUBE-HUAWEI/Drivers/STM32L4xx_HAL_Driver/Src\stm32l4xx_hal.c ****   SYSCFG->SKR = 0x53;
 979              		.loc 1 601 15 view .LVU173
 980 0008 CA24     		movs	r4, #202
 981              		.loc 1 604 38 view .LVU174
 982 000a 0121     		movs	r1, #1
 601:D:/fchai/work/i-cube/I-CUBE-HUAWEI/Drivers/STM32L4xx_HAL_Driver/Src\stm32l4xx_hal.c ****   SYSCFG->SKR = 0x53;
 983              		.loc 1 601 15 view .LVU175
 984 000c 5C62     		str	r4, [r3, #36]
 602:D:/fchai/work/i-cube/I-CUBE-HUAWEI/Drivers/STM32L4xx_HAL_Driver/Src\stm32l4xx_hal.c ****   SYSCFG->SKR = 0x53;
 985              		.loc 1 602 3 is_stmt 1 view .LVU176
 602:D:/fchai/work/i-cube/I-CUBE-HUAWEI/Drivers/STM32L4xx_HAL_Driver/Src\stm32l4xx_hal.c ****   SYSCFG->SKR = 0x53;
 986              		.loc 1 602 15 is_stmt 0 view .LVU177
 987 000e 5862     		str	r0, [r3, #36]
 988              		.loc 1 604 3 is_stmt 1 view .LVU178
 605:D:/fchai/work/i-cube/I-CUBE-HUAWEI/Drivers/STM32L4xx_HAL_Driver/Src\stm32l4xx_hal.c **** }
 989              		.loc 1 605 1 is_stmt 0 view .LVU179
 990 0010 5DF8044B 		ldr	r4, [sp], #4
 991              	.LCFI6:
 992              		.cfi_restore 4
 993              		.cfi_def_cfa_offset 0
 604:D:/fchai/work/i-cube/I-CUBE-HUAWEI/Drivers/STM32L4xx_HAL_Driver/Src\stm32l4xx_hal.c **** }
 994              		.loc 1 604 38 view .LVU180
 995 0014 1160     		str	r1, [r2]
 996              		.loc 1 605 1 view .LVU181
 997 0016 7047     		bx	lr
 998              	.L94:
 999              		.align	2
 1000              	.L93:
 1001 0018 00000140 		.word	1073807360
 1002 001c 00032042 		.word	1109394176
 1003              		.cfi_endproc
 1004              	.LFE148:
 1006              		.section	.text.HAL_SYSCFG_EnableMemorySwappingBank,"ax",%progbits
 1007              		.align	1
 1008              		.p2align 2,,3
 1009              		.global	HAL_SYSCFG_EnableMemorySwappingBank
 1010              		.syntax unified
 1011              		.thumb
 1012              		.thumb_func
 1013              		.fpu fpv4-sp-d16
 1015              	HAL_SYSCFG_EnableMemorySwappingBank:
 1016              	.LFB149:
 606:D:/fchai/work/i-cube/I-CUBE-HUAWEI/Drivers/STM32L4xx_HAL_Driver/Src\stm32l4xx_hal.c **** 
 607:D:/fchai/work/i-cube/I-CUBE-HUAWEI/Drivers/STM32L4xx_HAL_Driver/Src\stm32l4xx_hal.c **** /**
 608:D:/fchai/work/i-cube/I-CUBE-HUAWEI/Drivers/STM32L4xx_HAL_Driver/Src\stm32l4xx_hal.c ****   * @brief  Enable the Internal FLASH Bank Swapping.
 609:D:/fchai/work/i-cube/I-CUBE-HUAWEI/Drivers/STM32L4xx_HAL_Driver/Src\stm32l4xx_hal.c ****   *
 610:D:/fchai/work/i-cube/I-CUBE-HUAWEI/Drivers/STM32L4xx_HAL_Driver/Src\stm32l4xx_hal.c ****   * @note   This function can be used only for STM32L4xx devices.
 611:D:/fchai/work/i-cube/I-CUBE-HUAWEI/Drivers/STM32L4xx_HAL_Driver/Src\stm32l4xx_hal.c ****   *
 612:D:/fchai/work/i-cube/I-CUBE-HUAWEI/Drivers/STM32L4xx_HAL_Driver/Src\stm32l4xx_hal.c ****   * @note   Flash Bank2 mapped at 0x08000000 (and aliased @0x00000000)
 613:D:/fchai/work/i-cube/I-CUBE-HUAWEI/Drivers/STM32L4xx_HAL_Driver/Src\stm32l4xx_hal.c ****   *         and Flash Bank1 mapped at 0x08100000 (and aliased at 0x00100000)
 614:D:/fchai/work/i-cube/I-CUBE-HUAWEI/Drivers/STM32L4xx_HAL_Driver/Src\stm32l4xx_hal.c ****   *
 615:D:/fchai/work/i-cube/I-CUBE-HUAWEI/Drivers/STM32L4xx_HAL_Driver/Src\stm32l4xx_hal.c ****   * @retval None
ARM GAS  T:\msys\tmp\ccK9B02h.s 			page 30


 616:D:/fchai/work/i-cube/I-CUBE-HUAWEI/Drivers/STM32L4xx_HAL_Driver/Src\stm32l4xx_hal.c ****   */
 617:D:/fchai/work/i-cube/I-CUBE-HUAWEI/Drivers/STM32L4xx_HAL_Driver/Src\stm32l4xx_hal.c **** void HAL_SYSCFG_EnableMemorySwappingBank(void)
 618:D:/fchai/work/i-cube/I-CUBE-HUAWEI/Drivers/STM32L4xx_HAL_Driver/Src\stm32l4xx_hal.c **** {
 1017              		.loc 1 618 1 is_stmt 1 view -0
 1018              		.cfi_startproc
 1019              		@ args = 0, pretend = 0, frame = 0
 1020              		@ frame_needed = 0, uses_anonymous_args = 0
 1021              		@ link register save eliminated.
 619:D:/fchai/work/i-cube/I-CUBE-HUAWEI/Drivers/STM32L4xx_HAL_Driver/Src\stm32l4xx_hal.c ****   *(__IO uint32_t *)FB_MODE_BB = 0x00000001UL;
 1022              		.loc 1 619 3 view .LVU183
 1023              		.loc 1 619 32 is_stmt 0 view .LVU184
 1024 0000 014B     		ldr	r3, .L96
 1025 0002 0122     		movs	r2, #1
 1026 0004 1A60     		str	r2, [r3]
 620:D:/fchai/work/i-cube/I-CUBE-HUAWEI/Drivers/STM32L4xx_HAL_Driver/Src\stm32l4xx_hal.c **** }
 1027              		.loc 1 620 1 view .LVU185
 1028 0006 7047     		bx	lr
 1029              	.L97:
 1030              		.align	2
 1031              	.L96:
 1032 0008 20002042 		.word	1109393440
 1033              		.cfi_endproc
 1034              	.LFE149:
 1036              		.section	.text.HAL_SYSCFG_DisableMemorySwappingBank,"ax",%progbits
 1037              		.align	1
 1038              		.p2align 2,,3
 1039              		.global	HAL_SYSCFG_DisableMemorySwappingBank
 1040              		.syntax unified
 1041              		.thumb
 1042              		.thumb_func
 1043              		.fpu fpv4-sp-d16
 1045              	HAL_SYSCFG_DisableMemorySwappingBank:
 1046              	.LFB150:
 621:D:/fchai/work/i-cube/I-CUBE-HUAWEI/Drivers/STM32L4xx_HAL_Driver/Src\stm32l4xx_hal.c **** 
 622:D:/fchai/work/i-cube/I-CUBE-HUAWEI/Drivers/STM32L4xx_HAL_Driver/Src\stm32l4xx_hal.c **** /**
 623:D:/fchai/work/i-cube/I-CUBE-HUAWEI/Drivers/STM32L4xx_HAL_Driver/Src\stm32l4xx_hal.c ****   * @brief  Disable the Internal FLASH Bank Swapping.
 624:D:/fchai/work/i-cube/I-CUBE-HUAWEI/Drivers/STM32L4xx_HAL_Driver/Src\stm32l4xx_hal.c ****   *
 625:D:/fchai/work/i-cube/I-CUBE-HUAWEI/Drivers/STM32L4xx_HAL_Driver/Src\stm32l4xx_hal.c ****   * @note   This function can be used only for STM32L4xx devices.
 626:D:/fchai/work/i-cube/I-CUBE-HUAWEI/Drivers/STM32L4xx_HAL_Driver/Src\stm32l4xx_hal.c ****   *
 627:D:/fchai/work/i-cube/I-CUBE-HUAWEI/Drivers/STM32L4xx_HAL_Driver/Src\stm32l4xx_hal.c ****   * @note   The default state : Flash Bank1 mapped at 0x08000000 (and aliased @0x0000 0000)
 628:D:/fchai/work/i-cube/I-CUBE-HUAWEI/Drivers/STM32L4xx_HAL_Driver/Src\stm32l4xx_hal.c ****   *         and Flash Bank2 mapped at 0x08100000 (and aliased at 0x00100000)
 629:D:/fchai/work/i-cube/I-CUBE-HUAWEI/Drivers/STM32L4xx_HAL_Driver/Src\stm32l4xx_hal.c ****   *
 630:D:/fchai/work/i-cube/I-CUBE-HUAWEI/Drivers/STM32L4xx_HAL_Driver/Src\stm32l4xx_hal.c ****   * @retval None
 631:D:/fchai/work/i-cube/I-CUBE-HUAWEI/Drivers/STM32L4xx_HAL_Driver/Src\stm32l4xx_hal.c ****   */
 632:D:/fchai/work/i-cube/I-CUBE-HUAWEI/Drivers/STM32L4xx_HAL_Driver/Src\stm32l4xx_hal.c **** void HAL_SYSCFG_DisableMemorySwappingBank(void)
 633:D:/fchai/work/i-cube/I-CUBE-HUAWEI/Drivers/STM32L4xx_HAL_Driver/Src\stm32l4xx_hal.c **** {
 1047              		.loc 1 633 1 is_stmt 1 view -0
 1048              		.cfi_startproc
 1049              		@ args = 0, pretend = 0, frame = 0
 1050              		@ frame_needed = 0, uses_anonymous_args = 0
 1051              		@ link register save eliminated.
 634:D:/fchai/work/i-cube/I-CUBE-HUAWEI/Drivers/STM32L4xx_HAL_Driver/Src\stm32l4xx_hal.c **** 
 635:D:/fchai/work/i-cube/I-CUBE-HUAWEI/Drivers/STM32L4xx_HAL_Driver/Src\stm32l4xx_hal.c ****   *(__IO uint32_t *)FB_MODE_BB = 0x00000000UL;
 1052              		.loc 1 635 3 view .LVU187
 1053              		.loc 1 635 32 is_stmt 0 view .LVU188
 1054 0000 014B     		ldr	r3, .L99
 1055 0002 0022     		movs	r2, #0
ARM GAS  T:\msys\tmp\ccK9B02h.s 			page 31


 1056 0004 1A60     		str	r2, [r3]
 636:D:/fchai/work/i-cube/I-CUBE-HUAWEI/Drivers/STM32L4xx_HAL_Driver/Src\stm32l4xx_hal.c **** }
 1057              		.loc 1 636 1 view .LVU189
 1058 0006 7047     		bx	lr
 1059              	.L100:
 1060              		.align	2
 1061              	.L99:
 1062 0008 20002042 		.word	1109393440
 1063              		.cfi_endproc
 1064              	.LFE150:
 1066              		.section	.text.HAL_SYSCFG_VREFBUF_VoltageScalingConfig,"ax",%progbits
 1067              		.align	1
 1068              		.p2align 2,,3
 1069              		.global	HAL_SYSCFG_VREFBUF_VoltageScalingConfig
 1070              		.syntax unified
 1071              		.thumb
 1072              		.thumb_func
 1073              		.fpu fpv4-sp-d16
 1075              	HAL_SYSCFG_VREFBUF_VoltageScalingConfig:
 1076              	.LVL29:
 1077              	.LFB151:
 637:D:/fchai/work/i-cube/I-CUBE-HUAWEI/Drivers/STM32L4xx_HAL_Driver/Src\stm32l4xx_hal.c **** 
 638:D:/fchai/work/i-cube/I-CUBE-HUAWEI/Drivers/STM32L4xx_HAL_Driver/Src\stm32l4xx_hal.c **** #if defined(VREFBUF)
 639:D:/fchai/work/i-cube/I-CUBE-HUAWEI/Drivers/STM32L4xx_HAL_Driver/Src\stm32l4xx_hal.c **** /**
 640:D:/fchai/work/i-cube/I-CUBE-HUAWEI/Drivers/STM32L4xx_HAL_Driver/Src\stm32l4xx_hal.c ****   * @brief Configure the internal voltage reference buffer voltage scale.
 641:D:/fchai/work/i-cube/I-CUBE-HUAWEI/Drivers/STM32L4xx_HAL_Driver/Src\stm32l4xx_hal.c ****   * @param VoltageScaling  specifies the output voltage to achieve
 642:D:/fchai/work/i-cube/I-CUBE-HUAWEI/Drivers/STM32L4xx_HAL_Driver/Src\stm32l4xx_hal.c ****   *          This parameter can be one of the following values:
 643:D:/fchai/work/i-cube/I-CUBE-HUAWEI/Drivers/STM32L4xx_HAL_Driver/Src\stm32l4xx_hal.c ****   *            @arg SYSCFG_VREFBUF_VOLTAGE_SCALE0: VREF_OUT1 around 2.048 V.
 644:D:/fchai/work/i-cube/I-CUBE-HUAWEI/Drivers/STM32L4xx_HAL_Driver/Src\stm32l4xx_hal.c ****   *                                                This requires VDDA equal to or higher than 2.4 V
 645:D:/fchai/work/i-cube/I-CUBE-HUAWEI/Drivers/STM32L4xx_HAL_Driver/Src\stm32l4xx_hal.c ****   *            @arg SYSCFG_VREFBUF_VOLTAGE_SCALE1: VREF_OUT2 around 2.5 V.
 646:D:/fchai/work/i-cube/I-CUBE-HUAWEI/Drivers/STM32L4xx_HAL_Driver/Src\stm32l4xx_hal.c ****   *                                                This requires VDDA equal to or higher than 2.8 V
 647:D:/fchai/work/i-cube/I-CUBE-HUAWEI/Drivers/STM32L4xx_HAL_Driver/Src\stm32l4xx_hal.c ****   * @retval None
 648:D:/fchai/work/i-cube/I-CUBE-HUAWEI/Drivers/STM32L4xx_HAL_Driver/Src\stm32l4xx_hal.c ****   */
 649:D:/fchai/work/i-cube/I-CUBE-HUAWEI/Drivers/STM32L4xx_HAL_Driver/Src\stm32l4xx_hal.c **** void HAL_SYSCFG_VREFBUF_VoltageScalingConfig(uint32_t VoltageScaling)
 650:D:/fchai/work/i-cube/I-CUBE-HUAWEI/Drivers/STM32L4xx_HAL_Driver/Src\stm32l4xx_hal.c **** {
 1078              		.loc 1 650 1 is_stmt 1 view -0
 1079              		.cfi_startproc
 1080              		@ args = 0, pretend = 0, frame = 0
 1081              		@ frame_needed = 0, uses_anonymous_args = 0
 1082              		@ link register save eliminated.
 651:D:/fchai/work/i-cube/I-CUBE-HUAWEI/Drivers/STM32L4xx_HAL_Driver/Src\stm32l4xx_hal.c ****   /* Check the parameters */
 652:D:/fchai/work/i-cube/I-CUBE-HUAWEI/Drivers/STM32L4xx_HAL_Driver/Src\stm32l4xx_hal.c ****   assert_param(IS_SYSCFG_VREFBUF_VOLTAGE_SCALE(VoltageScaling));
 1083              		.loc 1 652 3 view .LVU191
 653:D:/fchai/work/i-cube/I-CUBE-HUAWEI/Drivers/STM32L4xx_HAL_Driver/Src\stm32l4xx_hal.c **** 
 654:D:/fchai/work/i-cube/I-CUBE-HUAWEI/Drivers/STM32L4xx_HAL_Driver/Src\stm32l4xx_hal.c ****   MODIFY_REG(VREFBUF->CSR, VREFBUF_CSR_VRS, VoltageScaling);
 1084              		.loc 1 654 3 view .LVU192
 1085 0000 034A     		ldr	r2, .L102
 1086 0002 1368     		ldr	r3, [r2]
 1087 0004 23F00403 		bic	r3, r3, #4
 1088 0008 0343     		orrs	r3, r3, r0
 1089 000a 1360     		str	r3, [r2]
 655:D:/fchai/work/i-cube/I-CUBE-HUAWEI/Drivers/STM32L4xx_HAL_Driver/Src\stm32l4xx_hal.c **** }
 1090              		.loc 1 655 1 is_stmt 0 view .LVU193
 1091 000c 7047     		bx	lr
 1092              	.L103:
 1093 000e 00BF     		.align	2
 1094              	.L102:
ARM GAS  T:\msys\tmp\ccK9B02h.s 			page 32


 1095 0010 30000140 		.word	1073807408
 1096              		.cfi_endproc
 1097              	.LFE151:
 1099              		.section	.text.HAL_SYSCFG_VREFBUF_HighImpedanceConfig,"ax",%progbits
 1100              		.align	1
 1101              		.p2align 2,,3
 1102              		.global	HAL_SYSCFG_VREFBUF_HighImpedanceConfig
 1103              		.syntax unified
 1104              		.thumb
 1105              		.thumb_func
 1106              		.fpu fpv4-sp-d16
 1108              	HAL_SYSCFG_VREFBUF_HighImpedanceConfig:
 1109              	.LVL30:
 1110              	.LFB152:
 656:D:/fchai/work/i-cube/I-CUBE-HUAWEI/Drivers/STM32L4xx_HAL_Driver/Src\stm32l4xx_hal.c **** 
 657:D:/fchai/work/i-cube/I-CUBE-HUAWEI/Drivers/STM32L4xx_HAL_Driver/Src\stm32l4xx_hal.c **** /**
 658:D:/fchai/work/i-cube/I-CUBE-HUAWEI/Drivers/STM32L4xx_HAL_Driver/Src\stm32l4xx_hal.c ****   * @brief Configure the internal voltage reference buffer high impedance mode.
 659:D:/fchai/work/i-cube/I-CUBE-HUAWEI/Drivers/STM32L4xx_HAL_Driver/Src\stm32l4xx_hal.c ****   * @param Mode  specifies the high impedance mode
 660:D:/fchai/work/i-cube/I-CUBE-HUAWEI/Drivers/STM32L4xx_HAL_Driver/Src\stm32l4xx_hal.c ****   *          This parameter can be one of the following values:
 661:D:/fchai/work/i-cube/I-CUBE-HUAWEI/Drivers/STM32L4xx_HAL_Driver/Src\stm32l4xx_hal.c ****   *            @arg SYSCFG_VREFBUF_HIGH_IMPEDANCE_DISABLE: VREF+ pin is internally connect to VREFI
 662:D:/fchai/work/i-cube/I-CUBE-HUAWEI/Drivers/STM32L4xx_HAL_Driver/Src\stm32l4xx_hal.c ****   *            @arg SYSCFG_VREFBUF_HIGH_IMPEDANCE_ENABLE: VREF+ pin is high impedance.
 663:D:/fchai/work/i-cube/I-CUBE-HUAWEI/Drivers/STM32L4xx_HAL_Driver/Src\stm32l4xx_hal.c ****   * @retval None
 664:D:/fchai/work/i-cube/I-CUBE-HUAWEI/Drivers/STM32L4xx_HAL_Driver/Src\stm32l4xx_hal.c ****   */
 665:D:/fchai/work/i-cube/I-CUBE-HUAWEI/Drivers/STM32L4xx_HAL_Driver/Src\stm32l4xx_hal.c **** void HAL_SYSCFG_VREFBUF_HighImpedanceConfig(uint32_t Mode)
 666:D:/fchai/work/i-cube/I-CUBE-HUAWEI/Drivers/STM32L4xx_HAL_Driver/Src\stm32l4xx_hal.c **** {
 1111              		.loc 1 666 1 is_stmt 1 view -0
 1112              		.cfi_startproc
 1113              		@ args = 0, pretend = 0, frame = 0
 1114              		@ frame_needed = 0, uses_anonymous_args = 0
 1115              		@ link register save eliminated.
 667:D:/fchai/work/i-cube/I-CUBE-HUAWEI/Drivers/STM32L4xx_HAL_Driver/Src\stm32l4xx_hal.c ****   /* Check the parameters */
 668:D:/fchai/work/i-cube/I-CUBE-HUAWEI/Drivers/STM32L4xx_HAL_Driver/Src\stm32l4xx_hal.c ****   assert_param(IS_SYSCFG_VREFBUF_HIGH_IMPEDANCE(Mode));
 1116              		.loc 1 668 3 view .LVU195
 669:D:/fchai/work/i-cube/I-CUBE-HUAWEI/Drivers/STM32L4xx_HAL_Driver/Src\stm32l4xx_hal.c **** 
 670:D:/fchai/work/i-cube/I-CUBE-HUAWEI/Drivers/STM32L4xx_HAL_Driver/Src\stm32l4xx_hal.c ****   MODIFY_REG(VREFBUF->CSR, VREFBUF_CSR_HIZ, Mode);
 1117              		.loc 1 670 3 view .LVU196
 1118 0000 034A     		ldr	r2, .L105
 1119 0002 1368     		ldr	r3, [r2]
 1120 0004 23F00203 		bic	r3, r3, #2
 1121 0008 0343     		orrs	r3, r3, r0
 1122 000a 1360     		str	r3, [r2]
 671:D:/fchai/work/i-cube/I-CUBE-HUAWEI/Drivers/STM32L4xx_HAL_Driver/Src\stm32l4xx_hal.c **** }
 1123              		.loc 1 671 1 is_stmt 0 view .LVU197
 1124 000c 7047     		bx	lr
 1125              	.L106:
 1126 000e 00BF     		.align	2
 1127              	.L105:
 1128 0010 30000140 		.word	1073807408
 1129              		.cfi_endproc
 1130              	.LFE152:
 1132              		.section	.text.HAL_SYSCFG_VREFBUF_TrimmingConfig,"ax",%progbits
 1133              		.align	1
 1134              		.p2align 2,,3
 1135              		.global	HAL_SYSCFG_VREFBUF_TrimmingConfig
 1136              		.syntax unified
 1137              		.thumb
 1138              		.thumb_func
ARM GAS  T:\msys\tmp\ccK9B02h.s 			page 33


 1139              		.fpu fpv4-sp-d16
 1141              	HAL_SYSCFG_VREFBUF_TrimmingConfig:
 1142              	.LVL31:
 1143              	.LFB153:
 672:D:/fchai/work/i-cube/I-CUBE-HUAWEI/Drivers/STM32L4xx_HAL_Driver/Src\stm32l4xx_hal.c **** 
 673:D:/fchai/work/i-cube/I-CUBE-HUAWEI/Drivers/STM32L4xx_HAL_Driver/Src\stm32l4xx_hal.c **** /**
 674:D:/fchai/work/i-cube/I-CUBE-HUAWEI/Drivers/STM32L4xx_HAL_Driver/Src\stm32l4xx_hal.c ****   * @brief  Tune the Internal Voltage Reference buffer (VREFBUF).
 675:D:/fchai/work/i-cube/I-CUBE-HUAWEI/Drivers/STM32L4xx_HAL_Driver/Src\stm32l4xx_hal.c ****   * @retval None
 676:D:/fchai/work/i-cube/I-CUBE-HUAWEI/Drivers/STM32L4xx_HAL_Driver/Src\stm32l4xx_hal.c ****   */
 677:D:/fchai/work/i-cube/I-CUBE-HUAWEI/Drivers/STM32L4xx_HAL_Driver/Src\stm32l4xx_hal.c **** void HAL_SYSCFG_VREFBUF_TrimmingConfig(uint32_t TrimmingValue)
 678:D:/fchai/work/i-cube/I-CUBE-HUAWEI/Drivers/STM32L4xx_HAL_Driver/Src\stm32l4xx_hal.c **** {
 1144              		.loc 1 678 1 is_stmt 1 view -0
 1145              		.cfi_startproc
 1146              		@ args = 0, pretend = 0, frame = 0
 1147              		@ frame_needed = 0, uses_anonymous_args = 0
 1148              		@ link register save eliminated.
 679:D:/fchai/work/i-cube/I-CUBE-HUAWEI/Drivers/STM32L4xx_HAL_Driver/Src\stm32l4xx_hal.c ****   /* Check the parameters */
 680:D:/fchai/work/i-cube/I-CUBE-HUAWEI/Drivers/STM32L4xx_HAL_Driver/Src\stm32l4xx_hal.c ****   assert_param(IS_SYSCFG_VREFBUF_TRIMMING(TrimmingValue));
 1149              		.loc 1 680 3 view .LVU199
 681:D:/fchai/work/i-cube/I-CUBE-HUAWEI/Drivers/STM32L4xx_HAL_Driver/Src\stm32l4xx_hal.c **** 
 682:D:/fchai/work/i-cube/I-CUBE-HUAWEI/Drivers/STM32L4xx_HAL_Driver/Src\stm32l4xx_hal.c ****   MODIFY_REG(VREFBUF->CCR, VREFBUF_CCR_TRIM, TrimmingValue);
 1150              		.loc 1 682 3 view .LVU200
 1151 0000 034A     		ldr	r2, .L108
 1152 0002 5368     		ldr	r3, [r2, #4]
 1153 0004 23F03F03 		bic	r3, r3, #63
 1154 0008 0343     		orrs	r3, r3, r0
 1155 000a 5360     		str	r3, [r2, #4]
 683:D:/fchai/work/i-cube/I-CUBE-HUAWEI/Drivers/STM32L4xx_HAL_Driver/Src\stm32l4xx_hal.c **** }
 1156              		.loc 1 683 1 is_stmt 0 view .LVU201
 1157 000c 7047     		bx	lr
 1158              	.L109:
 1159 000e 00BF     		.align	2
 1160              	.L108:
 1161 0010 30000140 		.word	1073807408
 1162              		.cfi_endproc
 1163              	.LFE153:
 1165              		.section	.text.HAL_SYSCFG_EnableVREFBUF,"ax",%progbits
 1166              		.align	1
 1167              		.p2align 2,,3
 1168              		.global	HAL_SYSCFG_EnableVREFBUF
 1169              		.syntax unified
 1170              		.thumb
 1171              		.thumb_func
 1172              		.fpu fpv4-sp-d16
 1174              	HAL_SYSCFG_EnableVREFBUF:
 1175              	.LFB154:
 684:D:/fchai/work/i-cube/I-CUBE-HUAWEI/Drivers/STM32L4xx_HAL_Driver/Src\stm32l4xx_hal.c **** 
 685:D:/fchai/work/i-cube/I-CUBE-HUAWEI/Drivers/STM32L4xx_HAL_Driver/Src\stm32l4xx_hal.c **** /**
 686:D:/fchai/work/i-cube/I-CUBE-HUAWEI/Drivers/STM32L4xx_HAL_Driver/Src\stm32l4xx_hal.c ****   * @brief  Enable the Internal Voltage Reference buffer (VREFBUF).
 687:D:/fchai/work/i-cube/I-CUBE-HUAWEI/Drivers/STM32L4xx_HAL_Driver/Src\stm32l4xx_hal.c ****   * @retval HAL_OK/HAL_TIMEOUT
 688:D:/fchai/work/i-cube/I-CUBE-HUAWEI/Drivers/STM32L4xx_HAL_Driver/Src\stm32l4xx_hal.c ****   */
 689:D:/fchai/work/i-cube/I-CUBE-HUAWEI/Drivers/STM32L4xx_HAL_Driver/Src\stm32l4xx_hal.c **** HAL_StatusTypeDef HAL_SYSCFG_EnableVREFBUF(void)
 690:D:/fchai/work/i-cube/I-CUBE-HUAWEI/Drivers/STM32L4xx_HAL_Driver/Src\stm32l4xx_hal.c **** {
 1176              		.loc 1 690 1 is_stmt 1 view -0
 1177              		.cfi_startproc
 1178              		@ args = 0, pretend = 0, frame = 0
 1179              		@ frame_needed = 0, uses_anonymous_args = 0
ARM GAS  T:\msys\tmp\ccK9B02h.s 			page 34


 691:D:/fchai/work/i-cube/I-CUBE-HUAWEI/Drivers/STM32L4xx_HAL_Driver/Src\stm32l4xx_hal.c ****   uint32_t  tickstart;
 1180              		.loc 1 691 3 view .LVU203
 692:D:/fchai/work/i-cube/I-CUBE-HUAWEI/Drivers/STM32L4xx_HAL_Driver/Src\stm32l4xx_hal.c **** 
 693:D:/fchai/work/i-cube/I-CUBE-HUAWEI/Drivers/STM32L4xx_HAL_Driver/Src\stm32l4xx_hal.c ****   SET_BIT(VREFBUF->CSR, VREFBUF_CSR_ENVR);
 1181              		.loc 1 693 3 view .LVU204
 690:D:/fchai/work/i-cube/I-CUBE-HUAWEI/Drivers/STM32L4xx_HAL_Driver/Src\stm32l4xx_hal.c ****   uint32_t  tickstart;
 1182              		.loc 1 690 1 is_stmt 0 view .LVU205
 1183 0000 38B5     		push	{r3, r4, r5, lr}
 1184              	.LCFI7:
 1185              		.cfi_def_cfa_offset 16
 1186              		.cfi_offset 3, -16
 1187              		.cfi_offset 4, -12
 1188              		.cfi_offset 5, -8
 1189              		.cfi_offset 14, -4
 1190              		.loc 1 693 3 view .LVU206
 1191 0002 0A4C     		ldr	r4, .L116
 1192 0004 2368     		ldr	r3, [r4]
 1193 0006 43F00103 		orr	r3, r3, #1
 1194 000a 2360     		str	r3, [r4]
 694:D:/fchai/work/i-cube/I-CUBE-HUAWEI/Drivers/STM32L4xx_HAL_Driver/Src\stm32l4xx_hal.c **** 
 695:D:/fchai/work/i-cube/I-CUBE-HUAWEI/Drivers/STM32L4xx_HAL_Driver/Src\stm32l4xx_hal.c ****   /* Get Start Tick*/
 696:D:/fchai/work/i-cube/I-CUBE-HUAWEI/Drivers/STM32L4xx_HAL_Driver/Src\stm32l4xx_hal.c ****   tickstart = HAL_GetTick();
 1195              		.loc 1 696 3 is_stmt 1 view .LVU207
 1196              		.loc 1 696 15 is_stmt 0 view .LVU208
 1197 000c FFF7FEFF 		bl	HAL_GetTick
 1198              	.LVL32:
 1199 0010 0546     		mov	r5, r0
 1200              	.LVL33:
 697:D:/fchai/work/i-cube/I-CUBE-HUAWEI/Drivers/STM32L4xx_HAL_Driver/Src\stm32l4xx_hal.c **** 
 698:D:/fchai/work/i-cube/I-CUBE-HUAWEI/Drivers/STM32L4xx_HAL_Driver/Src\stm32l4xx_hal.c ****   /* Wait for VRR bit  */
 699:D:/fchai/work/i-cube/I-CUBE-HUAWEI/Drivers/STM32L4xx_HAL_Driver/Src\stm32l4xx_hal.c ****   while(READ_BIT(VREFBUF->CSR, VREFBUF_CSR_VRR) == 0U)
 1201              		.loc 1 699 3 is_stmt 1 view .LVU209
 1202              		.loc 1 699 8 is_stmt 0 view .LVU210
 1203 0012 04E0     		b	.L111
 1204              	.LVL34:
 1205              	.L113:
 700:D:/fchai/work/i-cube/I-CUBE-HUAWEI/Drivers/STM32L4xx_HAL_Driver/Src\stm32l4xx_hal.c ****   {
 701:D:/fchai/work/i-cube/I-CUBE-HUAWEI/Drivers/STM32L4xx_HAL_Driver/Src\stm32l4xx_hal.c ****     if((HAL_GetTick() - tickstart) > VREFBUF_TIMEOUT_VALUE)
 1206              		.loc 1 701 9 view .LVU211
 1207 0014 FFF7FEFF 		bl	HAL_GetTick
 1208              	.LVL35:
 1209              		.loc 1 701 23 view .LVU212
 1210 0018 401B     		subs	r0, r0, r5
 1211              		.loc 1 701 7 view .LVU213
 1212 001a 0A28     		cmp	r0, #10
 1213 001c 04D8     		bhi	.L114
 1214              	.L111:
 1215              		.loc 1 701 5 is_stmt 1 view .LVU214
 699:D:/fchai/work/i-cube/I-CUBE-HUAWEI/Drivers/STM32L4xx_HAL_Driver/Src\stm32l4xx_hal.c ****   {
 1216              		.loc 1 699 8 view .LVU215
 699:D:/fchai/work/i-cube/I-CUBE-HUAWEI/Drivers/STM32L4xx_HAL_Driver/Src\stm32l4xx_hal.c ****   {
 1217              		.loc 1 699 9 is_stmt 0 view .LVU216
 1218 001e 2368     		ldr	r3, [r4]
 699:D:/fchai/work/i-cube/I-CUBE-HUAWEI/Drivers/STM32L4xx_HAL_Driver/Src\stm32l4xx_hal.c ****   {
 1219              		.loc 1 699 8 view .LVU217
 1220 0020 1B07     		lsls	r3, r3, #28
 1221 0022 F7D5     		bpl	.L113
ARM GAS  T:\msys\tmp\ccK9B02h.s 			page 35


 702:D:/fchai/work/i-cube/I-CUBE-HUAWEI/Drivers/STM32L4xx_HAL_Driver/Src\stm32l4xx_hal.c ****     {
 703:D:/fchai/work/i-cube/I-CUBE-HUAWEI/Drivers/STM32L4xx_HAL_Driver/Src\stm32l4xx_hal.c ****       return HAL_TIMEOUT;
 704:D:/fchai/work/i-cube/I-CUBE-HUAWEI/Drivers/STM32L4xx_HAL_Driver/Src\stm32l4xx_hal.c ****     }
 705:D:/fchai/work/i-cube/I-CUBE-HUAWEI/Drivers/STM32L4xx_HAL_Driver/Src\stm32l4xx_hal.c ****   }
 706:D:/fchai/work/i-cube/I-CUBE-HUAWEI/Drivers/STM32L4xx_HAL_Driver/Src\stm32l4xx_hal.c **** 
 707:D:/fchai/work/i-cube/I-CUBE-HUAWEI/Drivers/STM32L4xx_HAL_Driver/Src\stm32l4xx_hal.c ****   return HAL_OK;
 1222              		.loc 1 707 10 view .LVU218
 1223 0024 0020     		movs	r0, #0
 708:D:/fchai/work/i-cube/I-CUBE-HUAWEI/Drivers/STM32L4xx_HAL_Driver/Src\stm32l4xx_hal.c **** }
 1224              		.loc 1 708 1 view .LVU219
 1225 0026 38BD     		pop	{r3, r4, r5, pc}
 1226              	.LVL36:
 1227              	.L114:
 703:D:/fchai/work/i-cube/I-CUBE-HUAWEI/Drivers/STM32L4xx_HAL_Driver/Src\stm32l4xx_hal.c ****     }
 1228              		.loc 1 703 14 view .LVU220
 1229 0028 0320     		movs	r0, #3
 1230              		.loc 1 708 1 view .LVU221
 1231 002a 38BD     		pop	{r3, r4, r5, pc}
 1232              	.LVL37:
 1233              	.L117:
 1234              		.loc 1 708 1 view .LVU222
 1235              		.align	2
 1236              	.L116:
 1237 002c 30000140 		.word	1073807408
 1238              		.cfi_endproc
 1239              	.LFE154:
 1241              		.section	.text.HAL_SYSCFG_DisableVREFBUF,"ax",%progbits
 1242              		.align	1
 1243              		.p2align 2,,3
 1244              		.global	HAL_SYSCFG_DisableVREFBUF
 1245              		.syntax unified
 1246              		.thumb
 1247              		.thumb_func
 1248              		.fpu fpv4-sp-d16
 1250              	HAL_SYSCFG_DisableVREFBUF:
 1251              	.LFB155:
 709:D:/fchai/work/i-cube/I-CUBE-HUAWEI/Drivers/STM32L4xx_HAL_Driver/Src\stm32l4xx_hal.c **** 
 710:D:/fchai/work/i-cube/I-CUBE-HUAWEI/Drivers/STM32L4xx_HAL_Driver/Src\stm32l4xx_hal.c **** /**
 711:D:/fchai/work/i-cube/I-CUBE-HUAWEI/Drivers/STM32L4xx_HAL_Driver/Src\stm32l4xx_hal.c ****   * @brief  Disable the Internal Voltage Reference buffer (VREFBUF).
 712:D:/fchai/work/i-cube/I-CUBE-HUAWEI/Drivers/STM32L4xx_HAL_Driver/Src\stm32l4xx_hal.c ****   *
 713:D:/fchai/work/i-cube/I-CUBE-HUAWEI/Drivers/STM32L4xx_HAL_Driver/Src\stm32l4xx_hal.c ****   * @retval None
 714:D:/fchai/work/i-cube/I-CUBE-HUAWEI/Drivers/STM32L4xx_HAL_Driver/Src\stm32l4xx_hal.c ****   */
 715:D:/fchai/work/i-cube/I-CUBE-HUAWEI/Drivers/STM32L4xx_HAL_Driver/Src\stm32l4xx_hal.c **** void HAL_SYSCFG_DisableVREFBUF(void)
 716:D:/fchai/work/i-cube/I-CUBE-HUAWEI/Drivers/STM32L4xx_HAL_Driver/Src\stm32l4xx_hal.c **** {
 1252              		.loc 1 716 1 is_stmt 1 view -0
 1253              		.cfi_startproc
 1254              		@ args = 0, pretend = 0, frame = 0
 1255              		@ frame_needed = 0, uses_anonymous_args = 0
 1256              		@ link register save eliminated.
 717:D:/fchai/work/i-cube/I-CUBE-HUAWEI/Drivers/STM32L4xx_HAL_Driver/Src\stm32l4xx_hal.c ****   CLEAR_BIT(VREFBUF->CSR, VREFBUF_CSR_ENVR);
 1257              		.loc 1 717 3 view .LVU224
 1258 0000 024A     		ldr	r2, .L119
 1259 0002 1368     		ldr	r3, [r2]
 1260 0004 23F00103 		bic	r3, r3, #1
 1261 0008 1360     		str	r3, [r2]
 718:D:/fchai/work/i-cube/I-CUBE-HUAWEI/Drivers/STM32L4xx_HAL_Driver/Src\stm32l4xx_hal.c **** }
 1262              		.loc 1 718 1 is_stmt 0 view .LVU225
ARM GAS  T:\msys\tmp\ccK9B02h.s 			page 36


 1263 000a 7047     		bx	lr
 1264              	.L120:
 1265              		.align	2
 1266              	.L119:
 1267 000c 30000140 		.word	1073807408
 1268              		.cfi_endproc
 1269              	.LFE155:
 1271              		.section	.text.HAL_SYSCFG_EnableIOAnalogSwitchBooster,"ax",%progbits
 1272              		.align	1
 1273              		.p2align 2,,3
 1274              		.global	HAL_SYSCFG_EnableIOAnalogSwitchBooster
 1275              		.syntax unified
 1276              		.thumb
 1277              		.thumb_func
 1278              		.fpu fpv4-sp-d16
 1280              	HAL_SYSCFG_EnableIOAnalogSwitchBooster:
 1281              	.LFB156:
 719:D:/fchai/work/i-cube/I-CUBE-HUAWEI/Drivers/STM32L4xx_HAL_Driver/Src\stm32l4xx_hal.c **** #endif /* VREFBUF */
 720:D:/fchai/work/i-cube/I-CUBE-HUAWEI/Drivers/STM32L4xx_HAL_Driver/Src\stm32l4xx_hal.c **** 
 721:D:/fchai/work/i-cube/I-CUBE-HUAWEI/Drivers/STM32L4xx_HAL_Driver/Src\stm32l4xx_hal.c **** /**
 722:D:/fchai/work/i-cube/I-CUBE-HUAWEI/Drivers/STM32L4xx_HAL_Driver/Src\stm32l4xx_hal.c ****   * @brief  Enable the I/O analog switch voltage booster
 723:D:/fchai/work/i-cube/I-CUBE-HUAWEI/Drivers/STM32L4xx_HAL_Driver/Src\stm32l4xx_hal.c ****   *
 724:D:/fchai/work/i-cube/I-CUBE-HUAWEI/Drivers/STM32L4xx_HAL_Driver/Src\stm32l4xx_hal.c ****   * @retval None
 725:D:/fchai/work/i-cube/I-CUBE-HUAWEI/Drivers/STM32L4xx_HAL_Driver/Src\stm32l4xx_hal.c ****   */
 726:D:/fchai/work/i-cube/I-CUBE-HUAWEI/Drivers/STM32L4xx_HAL_Driver/Src\stm32l4xx_hal.c **** void HAL_SYSCFG_EnableIOAnalogSwitchBooster(void)
 727:D:/fchai/work/i-cube/I-CUBE-HUAWEI/Drivers/STM32L4xx_HAL_Driver/Src\stm32l4xx_hal.c **** {
 1282              		.loc 1 727 1 is_stmt 1 view -0
 1283              		.cfi_startproc
 1284              		@ args = 0, pretend = 0, frame = 0
 1285              		@ frame_needed = 0, uses_anonymous_args = 0
 1286              		@ link register save eliminated.
 728:D:/fchai/work/i-cube/I-CUBE-HUAWEI/Drivers/STM32L4xx_HAL_Driver/Src\stm32l4xx_hal.c ****   SET_BIT(SYSCFG->CFGR1, SYSCFG_CFGR1_BOOSTEN);
 1287              		.loc 1 728 3 view .LVU227
 1288 0000 024A     		ldr	r2, .L122
 1289 0002 5368     		ldr	r3, [r2, #4]
 1290 0004 43F48073 		orr	r3, r3, #256
 1291 0008 5360     		str	r3, [r2, #4]
 729:D:/fchai/work/i-cube/I-CUBE-HUAWEI/Drivers/STM32L4xx_HAL_Driver/Src\stm32l4xx_hal.c **** }
 1292              		.loc 1 729 1 is_stmt 0 view .LVU228
 1293 000a 7047     		bx	lr
 1294              	.L123:
 1295              		.align	2
 1296              	.L122:
 1297 000c 00000140 		.word	1073807360
 1298              		.cfi_endproc
 1299              	.LFE156:
 1301              		.section	.text.HAL_SYSCFG_DisableIOAnalogSwitchBooster,"ax",%progbits
 1302              		.align	1
 1303              		.p2align 2,,3
 1304              		.global	HAL_SYSCFG_DisableIOAnalogSwitchBooster
 1305              		.syntax unified
 1306              		.thumb
 1307              		.thumb_func
 1308              		.fpu fpv4-sp-d16
 1310              	HAL_SYSCFG_DisableIOAnalogSwitchBooster:
 1311              	.LFB157:
 730:D:/fchai/work/i-cube/I-CUBE-HUAWEI/Drivers/STM32L4xx_HAL_Driver/Src\stm32l4xx_hal.c **** 
ARM GAS  T:\msys\tmp\ccK9B02h.s 			page 37


 731:D:/fchai/work/i-cube/I-CUBE-HUAWEI/Drivers/STM32L4xx_HAL_Driver/Src\stm32l4xx_hal.c **** /**
 732:D:/fchai/work/i-cube/I-CUBE-HUAWEI/Drivers/STM32L4xx_HAL_Driver/Src\stm32l4xx_hal.c ****   * @brief  Disable the I/O analog switch voltage booster
 733:D:/fchai/work/i-cube/I-CUBE-HUAWEI/Drivers/STM32L4xx_HAL_Driver/Src\stm32l4xx_hal.c ****   *
 734:D:/fchai/work/i-cube/I-CUBE-HUAWEI/Drivers/STM32L4xx_HAL_Driver/Src\stm32l4xx_hal.c ****   * @retval None
 735:D:/fchai/work/i-cube/I-CUBE-HUAWEI/Drivers/STM32L4xx_HAL_Driver/Src\stm32l4xx_hal.c ****   */
 736:D:/fchai/work/i-cube/I-CUBE-HUAWEI/Drivers/STM32L4xx_HAL_Driver/Src\stm32l4xx_hal.c **** void HAL_SYSCFG_DisableIOAnalogSwitchBooster(void)
 737:D:/fchai/work/i-cube/I-CUBE-HUAWEI/Drivers/STM32L4xx_HAL_Driver/Src\stm32l4xx_hal.c **** {
 1312              		.loc 1 737 1 is_stmt 1 view -0
 1313              		.cfi_startproc
 1314              		@ args = 0, pretend = 0, frame = 0
 1315              		@ frame_needed = 0, uses_anonymous_args = 0
 1316              		@ link register save eliminated.
 738:D:/fchai/work/i-cube/I-CUBE-HUAWEI/Drivers/STM32L4xx_HAL_Driver/Src\stm32l4xx_hal.c ****   CLEAR_BIT(SYSCFG->CFGR1, SYSCFG_CFGR1_BOOSTEN);
 1317              		.loc 1 738 3 view .LVU230
 1318 0000 024A     		ldr	r2, .L125
 1319 0002 5368     		ldr	r3, [r2, #4]
 1320 0004 23F48073 		bic	r3, r3, #256
 1321 0008 5360     		str	r3, [r2, #4]
 739:D:/fchai/work/i-cube/I-CUBE-HUAWEI/Drivers/STM32L4xx_HAL_Driver/Src\stm32l4xx_hal.c **** }
 1322              		.loc 1 739 1 is_stmt 0 view .LVU231
 1323 000a 7047     		bx	lr
 1324              	.L126:
 1325              		.align	2
 1326              	.L125:
 1327 000c 00000140 		.word	1073807360
 1328              		.cfi_endproc
 1329              	.LFE157:
 1331              		.global	uwTickFreq
 1332              		.global	uwTickPrio
 1333              		.comm	uwTick,4,4
 1334              		.section	.data.uwTickFreq,"aw"
 1335              		.align	2
 1336              		.set	.LANCHOR0,. + 0
 1339              	uwTickFreq:
 1340 0000 01000000 		.word	1
 1341              		.section	.data.uwTickPrio,"aw"
 1342              		.align	2
 1343              		.set	.LANCHOR1,. + 0
 1346              	uwTickPrio:
 1347 0000 10000000 		.word	16
 1348              		.text
 1349              	.Letext0:
 1350              		.file 2 "t:\\msys\\3rd\\gcc-arm-none-eabi-9-2020-q2-update-win32\\arm-none-eabi\\include\\machine\
 1351              		.file 3 "t:\\msys\\3rd\\gcc-arm-none-eabi-9-2020-q2-update-win32\\arm-none-eabi\\include\\sys\\_st
 1352              		.file 4 "D:/fchai/work/i-cube/I-CUBE-HUAWEI/Middlewares/Third_Party/Huawei/iot_link/os/liteos/arch
 1353              		.file 5 "D:/fchai/work/i-cube/I-CUBE-HUAWEI/Drivers/CMSIS/Device/ST/STM32L4xx/Include/system_stm32
 1354              		.file 6 "D:/fchai/work/i-cube/I-CUBE-HUAWEI/Drivers/CMSIS/Device/ST/STM32L4xx/Include/stm32l496xx.
 1355              		.file 7 "D:/fchai/work/i-cube/I-CUBE-HUAWEI/Drivers/STM32L4xx_HAL_Driver/Inc/stm32l4xx_hal_def.h"
 1356              		.file 8 "D:/fchai/work/i-cube/I-CUBE-HUAWEI/Drivers/STM32L4xx_HAL_Driver/Inc/stm32l4xx_hal_flash.h
 1357              		.file 9 "D:/fchai/work/i-cube/I-CUBE-HUAWEI/Drivers/STM32L4xx_HAL_Driver/Inc/stm32l4xx_hal.h"
 1358              		.file 10 "D:/fchai/work/i-cube/I-CUBE-HUAWEI/Drivers/STM32L4xx_HAL_Driver/Inc/stm32l4xx_hal_cortex
ARM GAS  T:\msys\tmp\ccK9B02h.s 			page 38

