ARM GAS  T:\msys\tmp\ccvH13VP.s 			page 1


   1              		.cpu cortex-m4
   2              		.eabi_attribute 27, 1
   3              		.eabi_attribute 28, 1
   4              		.eabi_attribute 20, 1
   5              		.eabi_attribute 21, 1
   6              		.eabi_attribute 23, 3
   7              		.eabi_attribute 24, 1
   8              		.eabi_attribute 25, 1
   9              		.eabi_attribute 26, 1
  10              		.eabi_attribute 30, 2
  11              		.eabi_attribute 34, 1
  12              		.eabi_attribute 18, 4
  13              		.file	"los_slabmem.c"
  14              		.text
  15              	.Ltext0:
  16              		.cfi_sections	.debug_frame
  17              		.section	.text.osSlabBlockHeadFill,"ax",%progbits
  18              		.align	1
  19              		.p2align 2,,3
  20              		.global	osSlabBlockHeadFill
  21              		.arch armv7e-m
  22              		.syntax unified
  23              		.thumb
  24              		.thumb_func
  25              		.fpu fpv4-sp-d16
  27              	osSlabBlockHeadFill:
  28              	.LVL0:
  29              	.LFB133:
  30              		.file 1 "D:/fchai/work/i-cube/I-CUBE-HUAWEI/Middlewares/Third_Party/Huawei/iot_link/os/liteos/base
   1:D:/fchai/work/i-cube/I-CUBE-HUAWEI/Middlewares/Third_Party/Huawei/iot_link/os/liteos/base/mem/common\los_slabmem.c **** /*----------------------------------------------------------------------------
   2:D:/fchai/work/i-cube/I-CUBE-HUAWEI/Middlewares/Third_Party/Huawei/iot_link/os/liteos/base/mem/common\los_slabmem.c ****  * Copyright (c) <2013-2017>, <Huawei Technologies Co., Ltd>
   3:D:/fchai/work/i-cube/I-CUBE-HUAWEI/Middlewares/Third_Party/Huawei/iot_link/os/liteos/base/mem/common\los_slabmem.c ****  * All rights reserved.
   4:D:/fchai/work/i-cube/I-CUBE-HUAWEI/Middlewares/Third_Party/Huawei/iot_link/os/liteos/base/mem/common\los_slabmem.c ****  * Redistribution and use in source and binary forms, with or without modification,
   5:D:/fchai/work/i-cube/I-CUBE-HUAWEI/Middlewares/Third_Party/Huawei/iot_link/os/liteos/base/mem/common\los_slabmem.c ****  * are permitted provided that the following conditions are met:
   6:D:/fchai/work/i-cube/I-CUBE-HUAWEI/Middlewares/Third_Party/Huawei/iot_link/os/liteos/base/mem/common\los_slabmem.c ****  * 1. Redistributions of source code must retain the above copyright notice, this list of
   7:D:/fchai/work/i-cube/I-CUBE-HUAWEI/Middlewares/Third_Party/Huawei/iot_link/os/liteos/base/mem/common\los_slabmem.c ****  * conditions and the following disclaimer.
   8:D:/fchai/work/i-cube/I-CUBE-HUAWEI/Middlewares/Third_Party/Huawei/iot_link/os/liteos/base/mem/common\los_slabmem.c ****  * 2. Redistributions in binary form must reproduce the above copyright notice, this list
   9:D:/fchai/work/i-cube/I-CUBE-HUAWEI/Middlewares/Third_Party/Huawei/iot_link/os/liteos/base/mem/common\los_slabmem.c ****  * of conditions and the following disclaimer in the documentation and/or other materials
  10:D:/fchai/work/i-cube/I-CUBE-HUAWEI/Middlewares/Third_Party/Huawei/iot_link/os/liteos/base/mem/common\los_slabmem.c ****  * provided with the distribution.
  11:D:/fchai/work/i-cube/I-CUBE-HUAWEI/Middlewares/Third_Party/Huawei/iot_link/os/liteos/base/mem/common\los_slabmem.c ****  * 3. Neither the name of the copyright holder nor the names of its contributors may be used
  12:D:/fchai/work/i-cube/I-CUBE-HUAWEI/Middlewares/Third_Party/Huawei/iot_link/os/liteos/base/mem/common\los_slabmem.c ****  * to endorse or promote products derived from this software without specific prior written
  13:D:/fchai/work/i-cube/I-CUBE-HUAWEI/Middlewares/Third_Party/Huawei/iot_link/os/liteos/base/mem/common\los_slabmem.c ****  * permission.
  14:D:/fchai/work/i-cube/I-CUBE-HUAWEI/Middlewares/Third_Party/Huawei/iot_link/os/liteos/base/mem/common\los_slabmem.c ****  * THIS SOFTWARE IS PROVIDED BY THE COPYRIGHT HOLDERS AND CONTRIBUTORS
  15:D:/fchai/work/i-cube/I-CUBE-HUAWEI/Middlewares/Third_Party/Huawei/iot_link/os/liteos/base/mem/common\los_slabmem.c ****  * "AS IS" AND ANY EXPRESS OR IMPLIED WARRANTIES, INCLUDING, BUT NOT LIMITED TO,
  16:D:/fchai/work/i-cube/I-CUBE-HUAWEI/Middlewares/Third_Party/Huawei/iot_link/os/liteos/base/mem/common\los_slabmem.c ****  * THE IMPLIED WARRANTIES OF MERCHANTABILITY AND FITNESS FOR A PARTICULAR
  17:D:/fchai/work/i-cube/I-CUBE-HUAWEI/Middlewares/Third_Party/Huawei/iot_link/os/liteos/base/mem/common\los_slabmem.c ****  * PURPOSE ARE DISCLAIMED. IN NO EVENT SHALL THE COPYRIGHT HOLDER OR
  18:D:/fchai/work/i-cube/I-CUBE-HUAWEI/Middlewares/Third_Party/Huawei/iot_link/os/liteos/base/mem/common\los_slabmem.c ****  * CONTRIBUTORS BE LIABLE FOR ANY DIRECT, INDIRECT, INCIDENTAL, SPECIAL,
  19:D:/fchai/work/i-cube/I-CUBE-HUAWEI/Middlewares/Third_Party/Huawei/iot_link/os/liteos/base/mem/common\los_slabmem.c ****  * EXEMPLARY, OR CONSEQUENTIAL DAMAGES (INCLUDING, BUT NOT LIMITED TO,
  20:D:/fchai/work/i-cube/I-CUBE-HUAWEI/Middlewares/Third_Party/Huawei/iot_link/os/liteos/base/mem/common\los_slabmem.c ****  * PROCUREMENT OF SUBSTITUTE GOODS OR SERVICES; LOSS OF USE, DATA, OR PROFITS;
  21:D:/fchai/work/i-cube/I-CUBE-HUAWEI/Middlewares/Third_Party/Huawei/iot_link/os/liteos/base/mem/common\los_slabmem.c ****  * OR BUSINESS INTERRUPTION) HOWEVER CAUSED AND ON ANY THEORY OF LIABILITY,
  22:D:/fchai/work/i-cube/I-CUBE-HUAWEI/Middlewares/Third_Party/Huawei/iot_link/os/liteos/base/mem/common\los_slabmem.c ****  * WHETHER IN CONTRACT, STRICT LIABILITY, OR TORT (INCLUDING NEGLIGENCE OR
  23:D:/fchai/work/i-cube/I-CUBE-HUAWEI/Middlewares/Third_Party/Huawei/iot_link/os/liteos/base/mem/common\los_slabmem.c ****  * OTHERWISE) ARISING IN ANY WAY OUT OF THE USE OF THIS SOFTWARE, EVEN IF
  24:D:/fchai/work/i-cube/I-CUBE-HUAWEI/Middlewares/Third_Party/Huawei/iot_link/os/liteos/base/mem/common\los_slabmem.c ****  * ADVISED OF THE POSSIBILITY OF SUCH DAMAGE.
  25:D:/fchai/work/i-cube/I-CUBE-HUAWEI/Middlewares/Third_Party/Huawei/iot_link/os/liteos/base/mem/common\los_slabmem.c ****  *---------------------------------------------------------------------------*/
  26:D:/fchai/work/i-cube/I-CUBE-HUAWEI/Middlewares/Third_Party/Huawei/iot_link/os/liteos/base/mem/common\los_slabmem.c **** /*----------------------------------------------------------------------------
  27:D:/fchai/work/i-cube/I-CUBE-HUAWEI/Middlewares/Third_Party/Huawei/iot_link/os/liteos/base/mem/common\los_slabmem.c ****  * Notice of Export Control Law
  28:D:/fchai/work/i-cube/I-CUBE-HUAWEI/Middlewares/Third_Party/Huawei/iot_link/os/liteos/base/mem/common\los_slabmem.c ****  * ===============================================
ARM GAS  T:\msys\tmp\ccvH13VP.s 			page 2


  29:D:/fchai/work/i-cube/I-CUBE-HUAWEI/Middlewares/Third_Party/Huawei/iot_link/os/liteos/base/mem/common\los_slabmem.c ****  * Huawei LiteOS may be subject to applicable export control laws and regulations, which might
  30:D:/fchai/work/i-cube/I-CUBE-HUAWEI/Middlewares/Third_Party/Huawei/iot_link/os/liteos/base/mem/common\los_slabmem.c ****  * include those applicable to Huawei LiteOS of U.S. and the country in which you are located.
  31:D:/fchai/work/i-cube/I-CUBE-HUAWEI/Middlewares/Third_Party/Huawei/iot_link/os/liteos/base/mem/common\los_slabmem.c ****  * Import, export and usage of Huawei LiteOS in any manner by you shall be in compliance with such
  32:D:/fchai/work/i-cube/I-CUBE-HUAWEI/Middlewares/Third_Party/Huawei/iot_link/os/liteos/base/mem/common\los_slabmem.c ****  * applicable export control laws and regulations.
  33:D:/fchai/work/i-cube/I-CUBE-HUAWEI/Middlewares/Third_Party/Huawei/iot_link/os/liteos/base/mem/common\los_slabmem.c ****  *---------------------------------------------------------------------------*/
  34:D:/fchai/work/i-cube/I-CUBE-HUAWEI/Middlewares/Third_Party/Huawei/iot_link/os/liteos/base/mem/common\los_slabmem.c **** #define _LOS_SLAB_MEM_C_
  35:D:/fchai/work/i-cube/I-CUBE-HUAWEI/Middlewares/Third_Party/Huawei/iot_link/os/liteos/base/mem/common\los_slabmem.c **** 
  36:D:/fchai/work/i-cube/I-CUBE-HUAWEI/Middlewares/Third_Party/Huawei/iot_link/os/liteos/base/mem/common\los_slabmem.c **** #include <los_printf.h>
  37:D:/fchai/work/i-cube/I-CUBE-HUAWEI/Middlewares/Third_Party/Huawei/iot_link/os/liteos/base/mem/common\los_slabmem.c **** #include <los_slab.ph>
  38:D:/fchai/work/i-cube/I-CUBE-HUAWEI/Middlewares/Third_Party/Huawei/iot_link/os/liteos/base/mem/common\los_slabmem.c **** #include <los_hwi.h>
  39:D:/fchai/work/i-cube/I-CUBE-HUAWEI/Middlewares/Third_Party/Huawei/iot_link/os/liteos/base/mem/common\los_slabmem.c **** 
  40:D:/fchai/work/i-cube/I-CUBE-HUAWEI/Middlewares/Third_Party/Huawei/iot_link/os/liteos/base/mem/common\los_slabmem.c **** #if (LOSCFG_MEM_TASK_USED_STATISTICS == YES)
  41:D:/fchai/work/i-cube/I-CUBE-HUAWEI/Middlewares/Third_Party/Huawei/iot_link/os/liteos/base/mem/common\los_slabmem.c **** #include "los_memstat.inc"
  42:D:/fchai/work/i-cube/I-CUBE-HUAWEI/Middlewares/Third_Party/Huawei/iot_link/os/liteos/base/mem/common\los_slabmem.c **** #endif
  43:D:/fchai/work/i-cube/I-CUBE-HUAWEI/Middlewares/Third_Party/Huawei/iot_link/os/liteos/base/mem/common\los_slabmem.c **** 
  44:D:/fchai/work/i-cube/I-CUBE-HUAWEI/Middlewares/Third_Party/Huawei/iot_link/os/liteos/base/mem/common\los_slabmem.c **** VOID *osSlabBlockHeadFill(OS_SLAB_BLOCK_NODE *pstSlabNode, UINT32 uwBlkSz)
  45:D:/fchai/work/i-cube/I-CUBE-HUAWEI/Middlewares/Third_Party/Huawei/iot_link/os/liteos/base/mem/common\los_slabmem.c **** {
  31              		.loc 1 45 1 view -0
  32              		.cfi_startproc
  33              		@ args = 0, pretend = 0, frame = 0
  34              		@ frame_needed = 0, uses_anonymous_args = 0
  35              		@ link register save eliminated.
  46:D:/fchai/work/i-cube/I-CUBE-HUAWEI/Middlewares/Third_Party/Huawei/iot_link/os/liteos/base/mem/common\los_slabmem.c ****     OS_SLAB_BLOCK_MAGIC_SET(pstSlabNode);
  36              		.loc 1 46 5 view .LVU1
  37 0000 4DF6DE62 		movw	r2, #57054
  47:D:/fchai/work/i-cube/I-CUBE-HUAWEI/Middlewares/Third_Party/Huawei/iot_link/os/liteos/base/mem/common\los_slabmem.c ****     OS_SLAB_BLOCK_SIZE_SET(pstSlabNode, uwBlkSz);
  48:D:/fchai/work/i-cube/I-CUBE-HUAWEI/Middlewares/Third_Party/Huawei/iot_link/os/liteos/base/mem/common\los_slabmem.c ****     OS_SLAB_BLOCK_ID_SET(pstSlabNode, 0);//now undefine how to use ID
  38              		.loc 1 48 5 is_stmt 0 view .LVU2
  39 0004 0023     		movs	r3, #0
  47:D:/fchai/work/i-cube/I-CUBE-HUAWEI/Middlewares/Third_Party/Huawei/iot_link/os/liteos/base/mem/common\los_slabmem.c ****     OS_SLAB_BLOCK_SIZE_SET(pstSlabNode, uwBlkSz);
  40              		.loc 1 47 5 view .LVU3
  41 0006 8170     		strb	r1, [r0, #2]
  46:D:/fchai/work/i-cube/I-CUBE-HUAWEI/Middlewares/Third_Party/Huawei/iot_link/os/liteos/base/mem/common\los_slabmem.c ****     OS_SLAB_BLOCK_MAGIC_SET(pstSlabNode);
  42              		.loc 1 46 5 view .LVU4
  43 0008 0280     		strh	r2, [r0]	@ movhi
  47:D:/fchai/work/i-cube/I-CUBE-HUAWEI/Middlewares/Third_Party/Huawei/iot_link/os/liteos/base/mem/common\los_slabmem.c ****     OS_SLAB_BLOCK_SIZE_SET(pstSlabNode, uwBlkSz);
  44              		.loc 1 47 5 is_stmt 1 view .LVU5
  45              		.loc 1 48 5 view .LVU6
  46 000a C370     		strb	r3, [r0, #3]
  49:D:/fchai/work/i-cube/I-CUBE-HUAWEI/Middlewares/Third_Party/Huawei/iot_link/os/liteos/base/mem/common\los_slabmem.c ****     return (VOID *)(pstSlabNode + 1);
  47              		.loc 1 49 5 view .LVU7
  50:D:/fchai/work/i-cube/I-CUBE-HUAWEI/Middlewares/Third_Party/Huawei/iot_link/os/liteos/base/mem/common\los_slabmem.c **** }
  48              		.loc 1 50 1 is_stmt 0 view .LVU8
  49 000c 0430     		adds	r0, r0, #4
  50              	.LVL1:
  51              		.loc 1 50 1 view .LVU9
  52 000e 7047     		bx	lr
  53              		.cfi_endproc
  54              	.LFE133:
  56              		.section	.text.osSlabMemInit,"ax",%progbits
  57              		.align	1
  58              		.p2align 2,,3
  59              		.global	osSlabMemInit
  60              		.syntax unified
  61              		.thumb
  62              		.thumb_func
  63              		.fpu fpv4-sp-d16
ARM GAS  T:\msys\tmp\ccvH13VP.s 			page 3


  65              	osSlabMemInit:
  66              	.LVL2:
  67              	.LFB134:
  51:D:/fchai/work/i-cube/I-CUBE-HUAWEI/Middlewares/Third_Party/Huawei/iot_link/os/liteos/base/mem/common\los_slabmem.c **** 
  52:D:/fchai/work/i-cube/I-CUBE-HUAWEI/Middlewares/Third_Party/Huawei/iot_link/os/liteos/base/mem/common\los_slabmem.c **** /*****************************************************************************
  53:D:/fchai/work/i-cube/I-CUBE-HUAWEI/Middlewares/Third_Party/Huawei/iot_link/os/liteos/base/mem/common\los_slabmem.c ****  Function : osSlabMemInit
  54:D:/fchai/work/i-cube/I-CUBE-HUAWEI/Middlewares/Third_Party/Huawei/iot_link/os/liteos/base/mem/common\los_slabmem.c ****  Description : To initialize the slab memory management
  55:D:/fchai/work/i-cube/I-CUBE-HUAWEI/Middlewares/Third_Party/Huawei/iot_link/os/liteos/base/mem/common\los_slabmem.c ****  Input       : None
  56:D:/fchai/work/i-cube/I-CUBE-HUAWEI/Middlewares/Third_Party/Huawei/iot_link/os/liteos/base/mem/common\los_slabmem.c ****  Output      : None
  57:D:/fchai/work/i-cube/I-CUBE-HUAWEI/Middlewares/Third_Party/Huawei/iot_link/os/liteos/base/mem/common\los_slabmem.c ****  Return      : None
  58:D:/fchai/work/i-cube/I-CUBE-HUAWEI/Middlewares/Third_Party/Huawei/iot_link/os/liteos/base/mem/common\los_slabmem.c **** *****************************************************************************/
  59:D:/fchai/work/i-cube/I-CUBE-HUAWEI/Middlewares/Third_Party/Huawei/iot_link/os/liteos/base/mem/common\los_slabmem.c **** BOOL osSlabMemInit(VOID *pPool)
  60:D:/fchai/work/i-cube/I-CUBE-HUAWEI/Middlewares/Third_Party/Huawei/iot_link/os/liteos/base/mem/common\los_slabmem.c **** {
  68              		.loc 1 60 1 is_stmt 1 view -0
  69              		.cfi_startproc
  70              		@ args = 0, pretend = 0, frame = 0
  71              		@ frame_needed = 0, uses_anonymous_args = 0
  61:D:/fchai/work/i-cube/I-CUBE-HUAWEI/Middlewares/Third_Party/Huawei/iot_link/os/liteos/base/mem/common\los_slabmem.c ****     struct LOS_SLAB_CONTROL_HEADER *pstSlabMemHead = osSlabCtrlHdrGet(pPool);
  72              		.loc 1 61 5 view .LVU11
  60:D:/fchai/work/i-cube/I-CUBE-HUAWEI/Middlewares/Third_Party/Huawei/iot_link/os/liteos/base/mem/common\los_slabmem.c ****     struct LOS_SLAB_CONTROL_HEADER *pstSlabMemHead = osSlabCtrlHdrGet(pPool);
  73              		.loc 1 60 1 is_stmt 0 view .LVU12
  74 0000 2DE9F047 		push	{r4, r5, r6, r7, r8, r9, r10, lr}
  75              	.LCFI0:
  76              		.cfi_def_cfa_offset 32
  77              		.cfi_offset 4, -32
  78              		.cfi_offset 5, -28
  79              		.cfi_offset 6, -24
  80              		.cfi_offset 7, -20
  81              		.cfi_offset 8, -16
  82              		.cfi_offset 9, -12
  83              		.cfi_offset 10, -8
  84              		.cfi_offset 14, -4
  60:D:/fchai/work/i-cube/I-CUBE-HUAWEI/Middlewares/Third_Party/Huawei/iot_link/os/liteos/base/mem/common\los_slabmem.c ****     struct LOS_SLAB_CONTROL_HEADER *pstSlabMemHead = osSlabCtrlHdrGet(pPool);
  85              		.loc 1 60 1 view .LVU13
  86 0004 8246     		mov	r10, r0
  87              		.loc 1 61 54 view .LVU14
  88 0006 FFF7FEFF 		bl	osSlabCtrlHdrGet
  89              	.LVL3:
  62:D:/fchai/work/i-cube/I-CUBE-HUAWEI/Middlewares/Third_Party/Huawei/iot_link/os/liteos/base/mem/common\los_slabmem.c ****     UINT32 uwIdx = 0;
  63:D:/fchai/work/i-cube/I-CUBE-HUAWEI/Middlewares/Third_Party/Huawei/iot_link/os/liteos/base/mem/common\los_slabmem.c ****     UINT32 uwTmp = 0;
  90              		.loc 1 63 12 view .LVU15
  91 000a 0026     		movs	r6, #0
  61:D:/fchai/work/i-cube/I-CUBE-HUAWEI/Middlewares/Third_Party/Huawei/iot_link/os/liteos/base/mem/common\los_slabmem.c ****     UINT32 uwIdx = 0;
  92              		.loc 1 61 54 view .LVU16
  93 000c 0446     		mov	r4, r0
  62:D:/fchai/work/i-cube/I-CUBE-HUAWEI/Middlewares/Third_Party/Huawei/iot_link/os/liteos/base/mem/common\los_slabmem.c ****     UINT32 uwIdx = 0;
  94              		.loc 1 62 5 is_stmt 1 view .LVU17
  95              	.LVL4:
  96              		.loc 1 63 5 view .LVU18
  64:D:/fchai/work/i-cube/I-CUBE-HUAWEI/Middlewares/Third_Party/Huawei/iot_link/os/liteos/base/mem/common\los_slabmem.c ****     UINT32 uwBlkSz = 0;
  97              		.loc 1 64 5 view .LVU19
  65:D:/fchai/work/i-cube/I-CUBE-HUAWEI/Middlewares/Third_Party/Huawei/iot_link/os/liteos/base/mem/common\los_slabmem.c ****     UINT32 uwBlkCnt = 0;
  98              		.loc 1 65 5 view .LVU20
  66:D:/fchai/work/i-cube/I-CUBE-HUAWEI/Middlewares/Third_Party/Huawei/iot_link/os/liteos/base/mem/common\los_slabmem.c **** 
  67:D:/fchai/work/i-cube/I-CUBE-HUAWEI/Middlewares/Third_Party/Huawei/iot_link/os/liteos/base/mem/common\los_slabmem.c ****     for (uwIdx = 0; uwIdx < SLAB_MEM_COUNT; uwIdx++)
  99              		.loc 1 67 5 view .LVU21
 100              		.loc 1 67 21 view .LVU22
ARM GAS  T:\msys\tmp\ccvH13VP.s 			page 4


 101              		.loc 1 67 16 is_stmt 0 view .LVU23
 102 000e 3546     		mov	r5, r6
  68:D:/fchai/work/i-cube/I-CUBE-HUAWEI/Middlewares/Third_Party/Huawei/iot_link/os/liteos/base/mem/common\los_slabmem.c ****     {
  69:D:/fchai/work/i-cube/I-CUBE-HUAWEI/Middlewares/Third_Party/Huawei/iot_link/os/liteos/base/mem/common\los_slabmem.c ****         uwBlkSz = (SLAB_MEM_CALSS_STEP_SIZE << uwIdx);
  70:D:/fchai/work/i-cube/I-CUBE-HUAWEI/Middlewares/Third_Party/Huawei/iot_link/os/liteos/base/mem/common\los_slabmem.c ****         uwBlkCnt = SLAB_MEM_ALLOCATOR_SIZE / uwBlkSz;
  71:D:/fchai/work/i-cube/I-CUBE-HUAWEI/Middlewares/Third_Party/Huawei/iot_link/os/liteos/base/mem/common\los_slabmem.c ****         pstSlabMemHead->stSlabClass[uwIdx].blkSz = uwBlkSz;
  72:D:/fchai/work/i-cube/I-CUBE-HUAWEI/Middlewares/Third_Party/Huawei/iot_link/os/liteos/base/mem/common\los_slabmem.c ****         pstSlabMemHead->stSlabClass[uwIdx].blkCnt = uwBlkCnt;
  73:D:/fchai/work/i-cube/I-CUBE-HUAWEI/Middlewares/Third_Party/Huawei/iot_link/os/liteos/base/mem/common\los_slabmem.c ****         pstSlabMemHead->stSlabClass[uwIdx].blkUsedCnt = 0;
 103              		.loc 1 73 55 view .LVU24
 104 0010 B146     		mov	r9, r6
  69:D:/fchai/work/i-cube/I-CUBE-HUAWEI/Middlewares/Third_Party/Huawei/iot_link/os/liteos/base/mem/common\los_slabmem.c ****         uwBlkCnt = SLAB_MEM_ALLOCATOR_SIZE / uwBlkSz;
 105              		.loc 1 69 45 view .LVU25
 106 0012 4FF01008 		mov	r8, #16
  70:D:/fchai/work/i-cube/I-CUBE-HUAWEI/Middlewares/Third_Party/Huawei/iot_link/os/liteos/base/mem/common\los_slabmem.c ****         pstSlabMemHead->stSlabClass[uwIdx].blkSz = uwBlkSz;
 107              		.loc 1 70 18 view .LVU26
 108 0016 4FF40077 		mov	r7, #512
 109              	.LVL5:
 110              	.L6:
  69:D:/fchai/work/i-cube/I-CUBE-HUAWEI/Middlewares/Third_Party/Huawei/iot_link/os/liteos/base/mem/common\los_slabmem.c ****         uwBlkCnt = SLAB_MEM_ALLOCATOR_SIZE / uwBlkSz;
 111              		.loc 1 69 9 is_stmt 1 view .LVU27
  74:D:/fchai/work/i-cube/I-CUBE-HUAWEI/Middlewares/Third_Party/Huawei/iot_link/os/liteos/base/mem/common\los_slabmem.c ****         if (NULL != pstSlabMemHead->stSlabClass[uwIdx].alloc)
  75:D:/fchai/work/i-cube/I-CUBE-HUAWEI/Middlewares/Third_Party/Huawei/iot_link/os/liteos/base/mem/common\los_slabmem.c ****         {
  76:D:/fchai/work/i-cube/I-CUBE-HUAWEI/Middlewares/Third_Party/Huawei/iot_link/os/liteos/base/mem/common\los_slabmem.c ****             PRINT_WARN("SlabMemAllocator[%d] inited before\n", uwIdx);
 112              		.loc 1 76 70 view .LVU28
  77:D:/fchai/work/i-cube/I-CUBE-HUAWEI/Middlewares/Third_Party/Huawei/iot_link/os/liteos/base/mem/common\los_slabmem.c ****             uwTmp++;
 113              		.loc 1 77 13 view .LVU29
  74:D:/fchai/work/i-cube/I-CUBE-HUAWEI/Middlewares/Third_Party/Huawei/iot_link/os/liteos/base/mem/common\los_slabmem.c ****         if (NULL != pstSlabMemHead->stSlabClass[uwIdx].alloc)
 114              		.loc 1 74 12 is_stmt 0 view .LVU30
 115 001a E268     		ldr	r2, [r4, #12]
  73:D:/fchai/work/i-cube/I-CUBE-HUAWEI/Middlewares/Third_Party/Huawei/iot_link/os/liteos/base/mem/common\los_slabmem.c ****         if (NULL != pstSlabMemHead->stSlabClass[uwIdx].alloc)
 116              		.loc 1 73 55 view .LVU31
 117 001c C4F80890 		str	r9, [r4, #8]
  69:D:/fchai/work/i-cube/I-CUBE-HUAWEI/Middlewares/Third_Party/Huawei/iot_link/os/liteos/base/mem/common\los_slabmem.c ****         uwBlkCnt = SLAB_MEM_ALLOCATOR_SIZE / uwBlkSz;
 118              		.loc 1 69 45 view .LVU32
 119 0020 08FA05F1 		lsl	r1, r8, r5
 120              	.LVL6:
  70:D:/fchai/work/i-cube/I-CUBE-HUAWEI/Middlewares/Third_Party/Huawei/iot_link/os/liteos/base/mem/common\los_slabmem.c ****         pstSlabMemHead->stSlabClass[uwIdx].blkSz = uwBlkSz;
 121              		.loc 1 70 9 is_stmt 1 view .LVU33
  71:D:/fchai/work/i-cube/I-CUBE-HUAWEI/Middlewares/Third_Party/Huawei/iot_link/os/liteos/base/mem/common\los_slabmem.c ****         pstSlabMemHead->stSlabClass[uwIdx].blkCnt = uwBlkCnt;
 122              		.loc 1 71 50 is_stmt 0 view .LVU34
 123 0024 2160     		str	r1, [r4]
  70:D:/fchai/work/i-cube/I-CUBE-HUAWEI/Middlewares/Third_Party/Huawei/iot_link/os/liteos/base/mem/common\los_slabmem.c ****         pstSlabMemHead->stSlabClass[uwIdx].blkSz = uwBlkSz;
 124              		.loc 1 70 18 view .LVU35
 125 0026 B7FBF1F3 		udiv	r3, r7, r1
 126              	.LVL7:
  71:D:/fchai/work/i-cube/I-CUBE-HUAWEI/Middlewares/Third_Party/Huawei/iot_link/os/liteos/base/mem/common\los_slabmem.c ****         pstSlabMemHead->stSlabClass[uwIdx].blkCnt = uwBlkCnt;
 127              		.loc 1 71 9 is_stmt 1 view .LVU36
  72:D:/fchai/work/i-cube/I-CUBE-HUAWEI/Middlewares/Third_Party/Huawei/iot_link/os/liteos/base/mem/common\los_slabmem.c ****         pstSlabMemHead->stSlabClass[uwIdx].blkUsedCnt = 0;
 128              		.loc 1 72 9 view .LVU37
  72:D:/fchai/work/i-cube/I-CUBE-HUAWEI/Middlewares/Third_Party/Huawei/iot_link/os/liteos/base/mem/common\los_slabmem.c ****         pstSlabMemHead->stSlabClass[uwIdx].blkUsedCnt = 0;
 129              		.loc 1 72 51 is_stmt 0 view .LVU38
 130 002a 6360     		str	r3, [r4, #4]
  73:D:/fchai/work/i-cube/I-CUBE-HUAWEI/Middlewares/Third_Party/Huawei/iot_link/os/liteos/base/mem/common\los_slabmem.c ****         if (NULL != pstSlabMemHead->stSlabClass[uwIdx].alloc)
 131              		.loc 1 73 9 is_stmt 1 view .LVU39
  74:D:/fchai/work/i-cube/I-CUBE-HUAWEI/Middlewares/Third_Party/Huawei/iot_link/os/liteos/base/mem/common\los_slabmem.c ****         {
 132              		.loc 1 74 9 view .LVU40
  74:D:/fchai/work/i-cube/I-CUBE-HUAWEI/Middlewares/Third_Party/Huawei/iot_link/os/liteos/base/mem/common\los_slabmem.c ****         {
ARM GAS  T:\msys\tmp\ccvH13VP.s 			page 5


 133              		.loc 1 74 12 is_stmt 0 view .LVU41
 134 002c 52B1     		cbz	r2, .L4
 135              		.loc 1 77 18 view .LVU42
 136 002e 0136     		adds	r6, r6, #1
 137              	.LVL8:
 138              	.L5:
  67:D:/fchai/work/i-cube/I-CUBE-HUAWEI/Middlewares/Third_Party/Huawei/iot_link/os/liteos/base/mem/common\los_slabmem.c ****     {
 139              		.loc 1 67 45 is_stmt 1 discriminator 2 view .LVU43
  67:D:/fchai/work/i-cube/I-CUBE-HUAWEI/Middlewares/Third_Party/Huawei/iot_link/os/liteos/base/mem/common\los_slabmem.c ****     {
 140              		.loc 1 67 50 is_stmt 0 discriminator 2 view .LVU44
 141 0030 0135     		adds	r5, r5, #1
 142              	.LVL9:
  67:D:/fchai/work/i-cube/I-CUBE-HUAWEI/Middlewares/Third_Party/Huawei/iot_link/os/liteos/base/mem/common\los_slabmem.c ****     {
 143              		.loc 1 67 21 is_stmt 1 discriminator 2 view .LVU45
  67:D:/fchai/work/i-cube/I-CUBE-HUAWEI/Middlewares/Third_Party/Huawei/iot_link/os/liteos/base/mem/common\los_slabmem.c ****     {
 144              		.loc 1 67 5 is_stmt 0 discriminator 2 view .LVU46
 145 0032 042D     		cmp	r5, #4
 146 0034 04F11004 		add	r4, r4, #16
 147 0038 EFD1     		bne	.L6
  78:D:/fchai/work/i-cube/I-CUBE-HUAWEI/Middlewares/Third_Party/Huawei/iot_link/os/liteos/base/mem/common\los_slabmem.c ****         }
  79:D:/fchai/work/i-cube/I-CUBE-HUAWEI/Middlewares/Third_Party/Huawei/iot_link/os/liteos/base/mem/common\los_slabmem.c ****         else
  80:D:/fchai/work/i-cube/I-CUBE-HUAWEI/Middlewares/Third_Party/Huawei/iot_link/os/liteos/base/mem/common\los_slabmem.c ****         {
  81:D:/fchai/work/i-cube/I-CUBE-HUAWEI/Middlewares/Third_Party/Huawei/iot_link/os/liteos/base/mem/common\los_slabmem.c ****             pstSlabMemHead->stSlabClass[uwIdx].alloc = osSlabAllocatorNew(pPool, uwBlkSz + sizeof(O
  82:D:/fchai/work/i-cube/I-CUBE-HUAWEI/Middlewares/Third_Party/Huawei/iot_link/os/liteos/base/mem/common\los_slabmem.c ****         }
  83:D:/fchai/work/i-cube/I-CUBE-HUAWEI/Middlewares/Third_Party/Huawei/iot_link/os/liteos/base/mem/common\los_slabmem.c ****     }
  84:D:/fchai/work/i-cube/I-CUBE-HUAWEI/Middlewares/Third_Party/Huawei/iot_link/os/liteos/base/mem/common\los_slabmem.c **** 
  85:D:/fchai/work/i-cube/I-CUBE-HUAWEI/Middlewares/Third_Party/Huawei/iot_link/os/liteos/base/mem/common\los_slabmem.c ****     return ((0 == uwTmp) ? TRUE : FALSE);
 148              		.loc 1 85 5 is_stmt 1 view .LVU47
  86:D:/fchai/work/i-cube/I-CUBE-HUAWEI/Middlewares/Third_Party/Huawei/iot_link/os/liteos/base/mem/common\los_slabmem.c **** }
 149              		.loc 1 86 1 is_stmt 0 view .LVU48
 150 003a B6FA86F0 		clz	r0, r6
 151 003e 4009     		lsrs	r0, r0, #5
 152 0040 BDE8F087 		pop	{r4, r5, r6, r7, r8, r9, r10, pc}
 153              	.LVL10:
 154              	.L4:
  81:D:/fchai/work/i-cube/I-CUBE-HUAWEI/Middlewares/Third_Party/Huawei/iot_link/os/liteos/base/mem/common\los_slabmem.c ****         }
 155              		.loc 1 81 13 is_stmt 1 view .LVU49
  81:D:/fchai/work/i-cube/I-CUBE-HUAWEI/Middlewares/Third_Party/Huawei/iot_link/os/liteos/base/mem/common\los_slabmem.c ****         }
 156              		.loc 1 81 56 is_stmt 0 view .LVU50
 157 0044 0431     		adds	r1, r1, #4
 158              	.LVL11:
  81:D:/fchai/work/i-cube/I-CUBE-HUAWEI/Middlewares/Third_Party/Huawei/iot_link/os/liteos/base/mem/common\los_slabmem.c ****         }
 159              		.loc 1 81 56 view .LVU51
 160 0046 0422     		movs	r2, #4
 161 0048 5046     		mov	r0, r10
 162 004a FFF7FEFF 		bl	osSlabAllocatorNew
 163              	.LVL12:
  81:D:/fchai/work/i-cube/I-CUBE-HUAWEI/Middlewares/Third_Party/Huawei/iot_link/os/liteos/base/mem/common\los_slabmem.c ****         }
 164              		.loc 1 81 54 view .LVU52
 165 004e E060     		str	r0, [r4, #12]
 166 0050 EEE7     		b	.L5
 167              		.cfi_endproc
 168              	.LFE134:
 170 0052 00BF     		.section	.text.osSlabMemAlloc,"ax",%progbits
 171              		.align	1
 172              		.p2align 2,,3
 173              		.global	osSlabMemAlloc
ARM GAS  T:\msys\tmp\ccvH13VP.s 			page 6


 174              		.syntax unified
 175              		.thumb
 176              		.thumb_func
 177              		.fpu fpv4-sp-d16
 179              	osSlabMemAlloc:
 180              	.LVL13:
 181              	.LFB135:
  87:D:/fchai/work/i-cube/I-CUBE-HUAWEI/Middlewares/Third_Party/Huawei/iot_link/os/liteos/base/mem/common\los_slabmem.c **** 
  88:D:/fchai/work/i-cube/I-CUBE-HUAWEI/Middlewares/Third_Party/Huawei/iot_link/os/liteos/base/mem/common\los_slabmem.c **** /*****************************************************************************
  89:D:/fchai/work/i-cube/I-CUBE-HUAWEI/Middlewares/Third_Party/Huawei/iot_link/os/liteos/base/mem/common\los_slabmem.c ****  Function : osSlabMemAlloc
  90:D:/fchai/work/i-cube/I-CUBE-HUAWEI/Middlewares/Third_Party/Huawei/iot_link/os/liteos/base/mem/common\los_slabmem.c ****  Description : To alloc memory block
  91:D:/fchai/work/i-cube/I-CUBE-HUAWEI/Middlewares/Third_Party/Huawei/iot_link/os/liteos/base/mem/common\los_slabmem.c ****  Input       :  UITN32 sz --- size of the  memory we want to alloc
  92:D:/fchai/work/i-cube/I-CUBE-HUAWEI/Middlewares/Third_Party/Huawei/iot_link/os/liteos/base/mem/common\los_slabmem.c ****  Output      : None
  93:D:/fchai/work/i-cube/I-CUBE-HUAWEI/Middlewares/Third_Party/Huawei/iot_link/os/liteos/base/mem/common\los_slabmem.c ****  Return      : pointer :the address of the memory we alloced
  94:D:/fchai/work/i-cube/I-CUBE-HUAWEI/Middlewares/Third_Party/Huawei/iot_link/os/liteos/base/mem/common\los_slabmem.c **** *****************************************************************************/
  95:D:/fchai/work/i-cube/I-CUBE-HUAWEI/Middlewares/Third_Party/Huawei/iot_link/os/liteos/base/mem/common\los_slabmem.c **** VOID *osSlabMemAlloc(VOID *pPool, UINT32 uwSz)
  96:D:/fchai/work/i-cube/I-CUBE-HUAWEI/Middlewares/Third_Party/Huawei/iot_link/os/liteos/base/mem/common\los_slabmem.c **** {
 182              		.loc 1 96 1 is_stmt 1 view -0
 183              		.cfi_startproc
 184              		@ args = 0, pretend = 0, frame = 0
 185              		@ frame_needed = 0, uses_anonymous_args = 0
  97:D:/fchai/work/i-cube/I-CUBE-HUAWEI/Middlewares/Third_Party/Huawei/iot_link/os/liteos/base/mem/common\los_slabmem.c ****     VOID *pRet = NULL;
 186              		.loc 1 97 5 view .LVU54
  98:D:/fchai/work/i-cube/I-CUBE-HUAWEI/Middlewares/Third_Party/Huawei/iot_link/os/liteos/base/mem/common\los_slabmem.c ****     UINTPTR uvIntSave;
 187              		.loc 1 98 5 view .LVU55
  99:D:/fchai/work/i-cube/I-CUBE-HUAWEI/Middlewares/Third_Party/Huawei/iot_link/os/liteos/base/mem/common\los_slabmem.c ****     struct LOS_SLAB_CONTROL_HEADER *pstSlabMem = osSlabCtrlHdrGet(pPool);
 188              		.loc 1 99 5 view .LVU56
  96:D:/fchai/work/i-cube/I-CUBE-HUAWEI/Middlewares/Third_Party/Huawei/iot_link/os/liteos/base/mem/common\los_slabmem.c ****     VOID *pRet = NULL;
 189              		.loc 1 96 1 is_stmt 0 view .LVU57
 190 0000 2DE9F041 		push	{r4, r5, r6, r7, r8, lr}
 191              	.LCFI1:
 192              		.cfi_def_cfa_offset 24
 193              		.cfi_offset 4, -24
 194              		.cfi_offset 5, -20
 195              		.cfi_offset 6, -16
 196              		.cfi_offset 7, -12
 197              		.cfi_offset 8, -8
 198              		.cfi_offset 14, -4
  96:D:/fchai/work/i-cube/I-CUBE-HUAWEI/Middlewares/Third_Party/Huawei/iot_link/os/liteos/base/mem/common\los_slabmem.c ****     VOID *pRet = NULL;
 199              		.loc 1 96 1 view .LVU58
 200 0004 0C46     		mov	r4, r1
 201              		.loc 1 99 50 view .LVU59
 202 0006 FFF7FEFF 		bl	osSlabCtrlHdrGet
 203              	.LVL14:
 100:D:/fchai/work/i-cube/I-CUBE-HUAWEI/Middlewares/Third_Party/Huawei/iot_link/os/liteos/base/mem/common\los_slabmem.c ****     OS_SLAB_MEM *pstSlabAlloc = NULL;
 204              		.loc 1 100 5 is_stmt 1 view .LVU60
 101:D:/fchai/work/i-cube/I-CUBE-HUAWEI/Middlewares/Third_Party/Huawei/iot_link/os/liteos/base/mem/common\los_slabmem.c ****     UINT32 uwIdx = 0;
 205              		.loc 1 101 5 view .LVU61
 102:D:/fchai/work/i-cube/I-CUBE-HUAWEI/Middlewares/Third_Party/Huawei/iot_link/os/liteos/base/mem/common\los_slabmem.c **** 
 103:D:/fchai/work/i-cube/I-CUBE-HUAWEI/Middlewares/Third_Party/Huawei/iot_link/os/liteos/base/mem/common\los_slabmem.c ****     if (uwSz > (SLAB_MEM_CALSS_STEP_SIZE << (SLAB_MEM_COUNT - 1)))
 206              		.loc 1 103 5 view .LVU62
 207              		.loc 1 103 8 is_stmt 0 view .LVU63
 208 000a 802C     		cmp	r4, #128
 209 000c 08D8     		bhi	.L16
 210 000e 0546     		mov	r5, r0
 104:D:/fchai/work/i-cube/I-CUBE-HUAWEI/Middlewares/Third_Party/Huawei/iot_link/os/liteos/base/mem/common\los_slabmem.c ****     {
 105:D:/fchai/work/i-cube/I-CUBE-HUAWEI/Middlewares/Third_Party/Huawei/iot_link/os/liteos/base/mem/common\los_slabmem.c ****         return NULL;
ARM GAS  T:\msys\tmp\ccvH13VP.s 			page 7


 106:D:/fchai/work/i-cube/I-CUBE-HUAWEI/Middlewares/Third_Party/Huawei/iot_link/os/liteos/base/mem/common\los_slabmem.c ****     }
 107:D:/fchai/work/i-cube/I-CUBE-HUAWEI/Middlewares/Third_Party/Huawei/iot_link/os/liteos/base/mem/common\los_slabmem.c **** 
 108:D:/fchai/work/i-cube/I-CUBE-HUAWEI/Middlewares/Third_Party/Huawei/iot_link/os/liteos/base/mem/common\los_slabmem.c ****     for (uwIdx = 0; uwIdx < SLAB_MEM_COUNT; uwIdx++)
 211              		.loc 1 108 16 view .LVU64
 212 0010 0023     		movs	r3, #0
 213              	.LVL15:
 214              	.L15:
 109:D:/fchai/work/i-cube/I-CUBE-HUAWEI/Middlewares/Third_Party/Huawei/iot_link/os/liteos/base/mem/common\los_slabmem.c ****     {
 110:D:/fchai/work/i-cube/I-CUBE-HUAWEI/Middlewares/Third_Party/Huawei/iot_link/os/liteos/base/mem/common\los_slabmem.c ****         if (uwSz<= pstSlabMem->stSlabClass[uwIdx].blkSz)
 215              		.loc 1 110 9 is_stmt 1 view .LVU65
 108:D:/fchai/work/i-cube/I-CUBE-HUAWEI/Middlewares/Third_Party/Huawei/iot_link/os/liteos/base/mem/common\los_slabmem.c ****     {
 216              		.loc 1 108 45 view .LVU66
 217 0012 1E01     		lsls	r6, r3, #4
 108:D:/fchai/work/i-cube/I-CUBE-HUAWEI/Middlewares/Third_Party/Huawei/iot_link/os/liteos/base/mem/common\los_slabmem.c ****     {
 218              		.loc 1 108 50 is_stmt 0 view .LVU67
 219 0014 0133     		adds	r3, r3, #1
 220              	.LVL16:
 108:D:/fchai/work/i-cube/I-CUBE-HUAWEI/Middlewares/Third_Party/Huawei/iot_link/os/liteos/base/mem/common\los_slabmem.c ****     {
 221              		.loc 1 108 21 is_stmt 1 view .LVU68
 222              		.loc 1 110 12 is_stmt 0 view .LVU69
 223 0016 AA59     		ldr	r2, [r5, r6]
 224 0018 A242     		cmp	r2, r4
 225 001a 05D2     		bcs	.L23
 108:D:/fchai/work/i-cube/I-CUBE-HUAWEI/Middlewares/Third_Party/Huawei/iot_link/os/liteos/base/mem/common\los_slabmem.c ****     {
 226              		.loc 1 108 5 discriminator 2 view .LVU70
 227 001c 042B     		cmp	r3, #4
 228 001e F8D1     		bne	.L15
 229              	.LVL17:
 230              	.L16:
 105:D:/fchai/work/i-cube/I-CUBE-HUAWEI/Middlewares/Third_Party/Huawei/iot_link/os/liteos/base/mem/common\los_slabmem.c ****     }
 231              		.loc 1 105 16 view .LVU71
 232 0020 0024     		movs	r4, #0
 233              	.LVL18:
 234              	.L9:
 111:D:/fchai/work/i-cube/I-CUBE-HUAWEI/Middlewares/Third_Party/Huawei/iot_link/os/liteos/base/mem/common\los_slabmem.c ****         {
 112:D:/fchai/work/i-cube/I-CUBE-HUAWEI/Middlewares/Third_Party/Huawei/iot_link/os/liteos/base/mem/common\los_slabmem.c ****             uvIntSave = LOS_IntLock();
 113:D:/fchai/work/i-cube/I-CUBE-HUAWEI/Middlewares/Third_Party/Huawei/iot_link/os/liteos/base/mem/common\los_slabmem.c **** 
 114:D:/fchai/work/i-cube/I-CUBE-HUAWEI/Middlewares/Third_Party/Huawei/iot_link/os/liteos/base/mem/common\los_slabmem.c ****             if (pstSlabMem->stSlabClass[uwIdx].blkUsedCnt >= pstSlabMem->stSlabClass[uwIdx].blkCnt)
 115:D:/fchai/work/i-cube/I-CUBE-HUAWEI/Middlewares/Third_Party/Huawei/iot_link/os/liteos/base/mem/common\los_slabmem.c ****             {
 116:D:/fchai/work/i-cube/I-CUBE-HUAWEI/Middlewares/Third_Party/Huawei/iot_link/os/liteos/base/mem/common\los_slabmem.c ****                 (VOID)LOS_IntRestore(uvIntSave);
 117:D:/fchai/work/i-cube/I-CUBE-HUAWEI/Middlewares/Third_Party/Huawei/iot_link/os/liteos/base/mem/common\los_slabmem.c ****                 return NULL;
 118:D:/fchai/work/i-cube/I-CUBE-HUAWEI/Middlewares/Third_Party/Huawei/iot_link/os/liteos/base/mem/common\los_slabmem.c ****             }
 119:D:/fchai/work/i-cube/I-CUBE-HUAWEI/Middlewares/Third_Party/Huawei/iot_link/os/liteos/base/mem/common\los_slabmem.c **** 
 120:D:/fchai/work/i-cube/I-CUBE-HUAWEI/Middlewares/Third_Party/Huawei/iot_link/os/liteos/base/mem/common\los_slabmem.c ****             if (NULL == pstSlabMem->stSlabClass[uwIdx].alloc)
 121:D:/fchai/work/i-cube/I-CUBE-HUAWEI/Middlewares/Third_Party/Huawei/iot_link/os/liteos/base/mem/common\los_slabmem.c ****             {
 122:D:/fchai/work/i-cube/I-CUBE-HUAWEI/Middlewares/Third_Party/Huawei/iot_link/os/liteos/base/mem/common\los_slabmem.c ****                 (VOID)LOS_IntRestore(uvIntSave);
 123:D:/fchai/work/i-cube/I-CUBE-HUAWEI/Middlewares/Third_Party/Huawei/iot_link/os/liteos/base/mem/common\los_slabmem.c ****                 return NULL;
 124:D:/fchai/work/i-cube/I-CUBE-HUAWEI/Middlewares/Third_Party/Huawei/iot_link/os/liteos/base/mem/common\los_slabmem.c ****             }
 125:D:/fchai/work/i-cube/I-CUBE-HUAWEI/Middlewares/Third_Party/Huawei/iot_link/os/liteos/base/mem/common\los_slabmem.c **** 
 126:D:/fchai/work/i-cube/I-CUBE-HUAWEI/Middlewares/Third_Party/Huawei/iot_link/os/liteos/base/mem/common\los_slabmem.c ****             pstSlabAlloc = &(pstSlabMem->stSlabClass[uwIdx]);
 127:D:/fchai/work/i-cube/I-CUBE-HUAWEI/Middlewares/Third_Party/Huawei/iot_link/os/liteos/base/mem/common\los_slabmem.c ****             pRet = osSlabAllocatorAlloc(pstSlabAlloc->alloc);
 128:D:/fchai/work/i-cube/I-CUBE-HUAWEI/Middlewares/Third_Party/Huawei/iot_link/os/liteos/base/mem/common\los_slabmem.c ****             if (NULL != pRet)
 129:D:/fchai/work/i-cube/I-CUBE-HUAWEI/Middlewares/Third_Party/Huawei/iot_link/os/liteos/base/mem/common\los_slabmem.c ****             {
 130:D:/fchai/work/i-cube/I-CUBE-HUAWEI/Middlewares/Third_Party/Huawei/iot_link/os/liteos/base/mem/common\los_slabmem.c ****                 /* alloc success */
 131:D:/fchai/work/i-cube/I-CUBE-HUAWEI/Middlewares/Third_Party/Huawei/iot_link/os/liteos/base/mem/common\los_slabmem.c ****                 pRet = osSlabBlockHeadFill((OS_SLAB_BLOCK_NODE *)pRet, pstSlabMem->stSlabClass[uwId
 132:D:/fchai/work/i-cube/I-CUBE-HUAWEI/Middlewares/Third_Party/Huawei/iot_link/os/liteos/base/mem/common\los_slabmem.c ****                 pstSlabMem->stSlabClass[uwIdx].blkUsedCnt++;
 133:D:/fchai/work/i-cube/I-CUBE-HUAWEI/Middlewares/Third_Party/Huawei/iot_link/os/liteos/base/mem/common\los_slabmem.c **** #if (LOSCFG_MEM_TASK_USED_STATISTICS == YES)
ARM GAS  T:\msys\tmp\ccvH13VP.s 			page 8


 134:D:/fchai/work/i-cube/I-CUBE-HUAWEI/Middlewares/Third_Party/Huawei/iot_link/os/liteos/base/mem/common\los_slabmem.c ****                 OS_MEM_ADD_USED(pstSlabMem->stSlabClass[uwIdx].blkSz);
 135:D:/fchai/work/i-cube/I-CUBE-HUAWEI/Middlewares/Third_Party/Huawei/iot_link/os/liteos/base/mem/common\los_slabmem.c **** #endif
 136:D:/fchai/work/i-cube/I-CUBE-HUAWEI/Middlewares/Third_Party/Huawei/iot_link/os/liteos/base/mem/common\los_slabmem.c ****             }
 137:D:/fchai/work/i-cube/I-CUBE-HUAWEI/Middlewares/Third_Party/Huawei/iot_link/os/liteos/base/mem/common\los_slabmem.c **** 
 138:D:/fchai/work/i-cube/I-CUBE-HUAWEI/Middlewares/Third_Party/Huawei/iot_link/os/liteos/base/mem/common\los_slabmem.c ****             (VOID)LOS_IntRestore(uvIntSave);
 139:D:/fchai/work/i-cube/I-CUBE-HUAWEI/Middlewares/Third_Party/Huawei/iot_link/os/liteos/base/mem/common\los_slabmem.c ****             return pRet;
 140:D:/fchai/work/i-cube/I-CUBE-HUAWEI/Middlewares/Third_Party/Huawei/iot_link/os/liteos/base/mem/common\los_slabmem.c ****         }
 141:D:/fchai/work/i-cube/I-CUBE-HUAWEI/Middlewares/Third_Party/Huawei/iot_link/os/liteos/base/mem/common\los_slabmem.c ****     }
 142:D:/fchai/work/i-cube/I-CUBE-HUAWEI/Middlewares/Third_Party/Huawei/iot_link/os/liteos/base/mem/common\los_slabmem.c **** 
 143:D:/fchai/work/i-cube/I-CUBE-HUAWEI/Middlewares/Third_Party/Huawei/iot_link/os/liteos/base/mem/common\los_slabmem.c ****     return NULL;
 144:D:/fchai/work/i-cube/I-CUBE-HUAWEI/Middlewares/Third_Party/Huawei/iot_link/os/liteos/base/mem/common\los_slabmem.c **** }
 235              		.loc 1 144 1 view .LVU72
 236 0022 2046     		mov	r0, r4
 237 0024 BDE8F081 		pop	{r4, r5, r6, r7, r8, pc}
 238              	.LVL19:
 239              	.L23:
 112:D:/fchai/work/i-cube/I-CUBE-HUAWEI/Middlewares/Third_Party/Huawei/iot_link/os/liteos/base/mem/common\los_slabmem.c **** 
 240              		.loc 1 112 13 is_stmt 1 view .LVU73
 241 0028 AF19     		adds	r7, r5, r6
 112:D:/fchai/work/i-cube/I-CUBE-HUAWEI/Middlewares/Third_Party/Huawei/iot_link/os/liteos/base/mem/common\los_slabmem.c **** 
 242              		.loc 1 112 25 is_stmt 0 view .LVU74
 243 002a FFF7FEFF 		bl	LOS_IntLock
 244              	.LVL20:
 114:D:/fchai/work/i-cube/I-CUBE-HUAWEI/Middlewares/Third_Party/Huawei/iot_link/os/liteos/base/mem/common\los_slabmem.c ****             {
 245              		.loc 1 114 16 view .LVU75
 246 002e D7E90132 		ldrd	r3, r2, [r7, #4]
 247 0032 9A42     		cmp	r2, r3
 112:D:/fchai/work/i-cube/I-CUBE-HUAWEI/Middlewares/Third_Party/Huawei/iot_link/os/liteos/base/mem/common\los_slabmem.c **** 
 248              		.loc 1 112 25 view .LVU76
 249 0034 8046     		mov	r8, r0
 250              	.LVL21:
 114:D:/fchai/work/i-cube/I-CUBE-HUAWEI/Middlewares/Third_Party/Huawei/iot_link/os/liteos/base/mem/common\los_slabmem.c ****             {
 251              		.loc 1 114 13 is_stmt 1 view .LVU77
 114:D:/fchai/work/i-cube/I-CUBE-HUAWEI/Middlewares/Third_Party/Huawei/iot_link/os/liteos/base/mem/common\los_slabmem.c ****             {
 252              		.loc 1 114 16 is_stmt 0 view .LVU78
 253 0036 17D2     		bcs	.L24
 120:D:/fchai/work/i-cube/I-CUBE-HUAWEI/Middlewares/Third_Party/Huawei/iot_link/os/liteos/base/mem/common\los_slabmem.c ****             {
 254              		.loc 1 120 13 is_stmt 1 view .LVU79
 120:D:/fchai/work/i-cube/I-CUBE-HUAWEI/Middlewares/Third_Party/Huawei/iot_link/os/liteos/base/mem/common\los_slabmem.c ****             {
 255              		.loc 1 120 55 is_stmt 0 view .LVU80
 256 0038 FC68     		ldr	r4, [r7, #12]
 257              	.LVL22:
 120:D:/fchai/work/i-cube/I-CUBE-HUAWEI/Middlewares/Third_Party/Huawei/iot_link/os/liteos/base/mem/common\los_slabmem.c ****             {
 258              		.loc 1 120 16 view .LVU81
 259 003a 84B1     		cbz	r4, .L22
 126:D:/fchai/work/i-cube/I-CUBE-HUAWEI/Middlewares/Third_Party/Huawei/iot_link/os/liteos/base/mem/common\los_slabmem.c ****             pRet = osSlabAllocatorAlloc(pstSlabAlloc->alloc);
 260              		.loc 1 126 13 is_stmt 1 view .LVU82
 261              	.LVL23:
 127:D:/fchai/work/i-cube/I-CUBE-HUAWEI/Middlewares/Third_Party/Huawei/iot_link/os/liteos/base/mem/common\los_slabmem.c ****             if (NULL != pRet)
 262              		.loc 1 127 13 view .LVU83
 127:D:/fchai/work/i-cube/I-CUBE-HUAWEI/Middlewares/Third_Party/Huawei/iot_link/os/liteos/base/mem/common\los_slabmem.c ****             if (NULL != pRet)
 263              		.loc 1 127 20 is_stmt 0 view .LVU84
 264 003c 2046     		mov	r0, r4
 265              	.LVL24:
 127:D:/fchai/work/i-cube/I-CUBE-HUAWEI/Middlewares/Third_Party/Huawei/iot_link/os/liteos/base/mem/common\los_slabmem.c ****             if (NULL != pRet)
 266              		.loc 1 127 20 view .LVU85
 267 003e FFF7FEFF 		bl	osSlabAllocatorAlloc
ARM GAS  T:\msys\tmp\ccvH13VP.s 			page 9


 268              	.LVL25:
 128:D:/fchai/work/i-cube/I-CUBE-HUAWEI/Middlewares/Third_Party/Huawei/iot_link/os/liteos/base/mem/common\los_slabmem.c ****             {
 269              		.loc 1 128 13 is_stmt 1 view .LVU86
 128:D:/fchai/work/i-cube/I-CUBE-HUAWEI/Middlewares/Third_Party/Huawei/iot_link/os/liteos/base/mem/common\los_slabmem.c ****             {
 270              		.loc 1 128 16 is_stmt 0 view .LVU87
 271 0042 0446     		mov	r4, r0
 272 0044 50B1     		cbz	r0, .L14
 131:D:/fchai/work/i-cube/I-CUBE-HUAWEI/Middlewares/Third_Party/Huawei/iot_link/os/liteos/base/mem/common\los_slabmem.c ****                 pstSlabMem->stSlabClass[uwIdx].blkUsedCnt++;
 273              		.loc 1 131 17 is_stmt 1 view .LVU88
 131:D:/fchai/work/i-cube/I-CUBE-HUAWEI/Middlewares/Third_Party/Huawei/iot_link/os/liteos/base/mem/common\los_slabmem.c ****                 pstSlabMem->stSlabClass[uwIdx].blkUsedCnt++;
 274              		.loc 1 131 24 is_stmt 0 view .LVU89
 275 0046 AB59     		ldr	r3, [r5, r6]
 276              	.LVL26:
 277              	.LBB4:
 278              	.LBI4:
  44:D:/fchai/work/i-cube/I-CUBE-HUAWEI/Middlewares/Third_Party/Huawei/iot_link/os/liteos/base/mem/common\los_slabmem.c **** {
 279              		.loc 1 44 7 is_stmt 1 view .LVU90
 280              	.LBB5:
  46:D:/fchai/work/i-cube/I-CUBE-HUAWEI/Middlewares/Third_Party/Huawei/iot_link/os/liteos/base/mem/common\los_slabmem.c ****     OS_SLAB_BLOCK_SIZE_SET(pstSlabNode, uwBlkSz);
 281              		.loc 1 46 5 view .LVU91
  47:D:/fchai/work/i-cube/I-CUBE-HUAWEI/Middlewares/Third_Party/Huawei/iot_link/os/liteos/base/mem/common\los_slabmem.c ****     OS_SLAB_BLOCK_ID_SET(pstSlabNode, 0);//now undefine how to use ID
 282              		.loc 1 47 5 is_stmt 0 view .LVU92
 283 0048 8370     		strb	r3, [r0, #2]
  48:D:/fchai/work/i-cube/I-CUBE-HUAWEI/Middlewares/Third_Party/Huawei/iot_link/os/liteos/base/mem/common\los_slabmem.c ****     return (VOID *)(pstSlabNode + 1);
 284              		.loc 1 48 5 view .LVU93
 285 004a 0023     		movs	r3, #0
 286              	.LVL27:
  48:D:/fchai/work/i-cube/I-CUBE-HUAWEI/Middlewares/Third_Party/Huawei/iot_link/os/liteos/base/mem/common\los_slabmem.c ****     return (VOID *)(pstSlabNode + 1);
 287              		.loc 1 48 5 view .LVU94
 288 004c C370     		strb	r3, [r0, #3]
 289              	.LBE5:
 290              	.LBE4:
 132:D:/fchai/work/i-cube/I-CUBE-HUAWEI/Middlewares/Third_Party/Huawei/iot_link/os/liteos/base/mem/common\los_slabmem.c **** #if (LOSCFG_MEM_TASK_USED_STATISTICS == YES)
 291              		.loc 1 132 58 view .LVU95
 292 004e BB68     		ldr	r3, [r7, #8]
 293              	.LBB8:
 294              	.LBB6:
  46:D:/fchai/work/i-cube/I-CUBE-HUAWEI/Middlewares/Third_Party/Huawei/iot_link/os/liteos/base/mem/common\los_slabmem.c ****     OS_SLAB_BLOCK_SIZE_SET(pstSlabNode, uwBlkSz);
 295              		.loc 1 46 5 view .LVU96
 296 0050 4DF6DE62 		movw	r2, #57054
 297              	.LBE6:
 298              	.LBE8:
 132:D:/fchai/work/i-cube/I-CUBE-HUAWEI/Middlewares/Third_Party/Huawei/iot_link/os/liteos/base/mem/common\los_slabmem.c **** #if (LOSCFG_MEM_TASK_USED_STATISTICS == YES)
 299              		.loc 1 132 58 view .LVU97
 300 0054 0133     		adds	r3, r3, #1
 301              	.LBB9:
 302              	.LBB7:
  46:D:/fchai/work/i-cube/I-CUBE-HUAWEI/Middlewares/Third_Party/Huawei/iot_link/os/liteos/base/mem/common\los_slabmem.c ****     OS_SLAB_BLOCK_SIZE_SET(pstSlabNode, uwBlkSz);
 303              		.loc 1 46 5 view .LVU98
 304 0056 0280     		strh	r2, [r0]	@ movhi
  47:D:/fchai/work/i-cube/I-CUBE-HUAWEI/Middlewares/Third_Party/Huawei/iot_link/os/liteos/base/mem/common\los_slabmem.c ****     OS_SLAB_BLOCK_ID_SET(pstSlabNode, 0);//now undefine how to use ID
 305              		.loc 1 47 5 is_stmt 1 view .LVU99
  48:D:/fchai/work/i-cube/I-CUBE-HUAWEI/Middlewares/Third_Party/Huawei/iot_link/os/liteos/base/mem/common\los_slabmem.c ****     return (VOID *)(pstSlabNode + 1);
 306              		.loc 1 48 5 view .LVU100
  49:D:/fchai/work/i-cube/I-CUBE-HUAWEI/Middlewares/Third_Party/Huawei/iot_link/os/liteos/base/mem/common\los_slabmem.c **** }
 307              		.loc 1 49 5 view .LVU101
  49:D:/fchai/work/i-cube/I-CUBE-HUAWEI/Middlewares/Third_Party/Huawei/iot_link/os/liteos/base/mem/common\los_slabmem.c **** }
ARM GAS  T:\msys\tmp\ccvH13VP.s 			page 10


 308              		.loc 1 49 12 is_stmt 0 view .LVU102
 309 0058 0434     		adds	r4, r4, #4
 310              	.LVL28:
  49:D:/fchai/work/i-cube/I-CUBE-HUAWEI/Middlewares/Third_Party/Huawei/iot_link/os/liteos/base/mem/common\los_slabmem.c **** }
 311              		.loc 1 49 12 view .LVU103
 312              	.LBE7:
 313              	.LBE9:
 132:D:/fchai/work/i-cube/I-CUBE-HUAWEI/Middlewares/Third_Party/Huawei/iot_link/os/liteos/base/mem/common\los_slabmem.c **** #if (LOSCFG_MEM_TASK_USED_STATISTICS == YES)
 314              		.loc 1 132 17 is_stmt 1 view .LVU104
 132:D:/fchai/work/i-cube/I-CUBE-HUAWEI/Middlewares/Third_Party/Huawei/iot_link/os/liteos/base/mem/common\los_slabmem.c **** #if (LOSCFG_MEM_TASK_USED_STATISTICS == YES)
 315              		.loc 1 132 58 is_stmt 0 view .LVU105
 316 005a BB60     		str	r3, [r7, #8]
 317              	.L14:
 138:D:/fchai/work/i-cube/I-CUBE-HUAWEI/Middlewares/Third_Party/Huawei/iot_link/os/liteos/base/mem/common\los_slabmem.c ****             return pRet;
 318              		.loc 1 138 13 is_stmt 1 view .LVU106
 319 005c 4046     		mov	r0, r8
 320              	.LVL29:
 321              	.L22:
 138:D:/fchai/work/i-cube/I-CUBE-HUAWEI/Middlewares/Third_Party/Huawei/iot_link/os/liteos/base/mem/common\los_slabmem.c ****             return pRet;
 322              		.loc 1 138 13 is_stmt 0 view .LVU107
 323 005e FFF7FEFF 		bl	LOS_IntRestore
 324              	.LVL30:
 139:D:/fchai/work/i-cube/I-CUBE-HUAWEI/Middlewares/Third_Party/Huawei/iot_link/os/liteos/base/mem/common\los_slabmem.c ****         }
 325              		.loc 1 139 13 is_stmt 1 view .LVU108
 326              		.loc 1 144 1 is_stmt 0 view .LVU109
 327 0062 2046     		mov	r0, r4
 328 0064 BDE8F081 		pop	{r4, r5, r6, r7, r8, pc}
 329              	.LVL31:
 330              	.L24:
 116:D:/fchai/work/i-cube/I-CUBE-HUAWEI/Middlewares/Third_Party/Huawei/iot_link/os/liteos/base/mem/common\los_slabmem.c ****                 return NULL;
 331              		.loc 1 116 17 is_stmt 1 view .LVU110
 332 0068 FFF7FEFF 		bl	LOS_IntRestore
 333              	.LVL32:
 117:D:/fchai/work/i-cube/I-CUBE-HUAWEI/Middlewares/Third_Party/Huawei/iot_link/os/liteos/base/mem/common\los_slabmem.c ****             }
 334              		.loc 1 117 17 view .LVU111
 117:D:/fchai/work/i-cube/I-CUBE-HUAWEI/Middlewares/Third_Party/Huawei/iot_link/os/liteos/base/mem/common\los_slabmem.c ****             }
 335              		.loc 1 117 24 is_stmt 0 view .LVU112
 336 006c 0024     		movs	r4, #0
 337              	.LVL33:
 117:D:/fchai/work/i-cube/I-CUBE-HUAWEI/Middlewares/Third_Party/Huawei/iot_link/os/liteos/base/mem/common\los_slabmem.c ****             }
 338              		.loc 1 117 24 view .LVU113
 339 006e D8E7     		b	.L9
 340              		.cfi_endproc
 341              	.LFE135:
 343              		.section	.text.osSlabMemFree,"ax",%progbits
 344              		.align	1
 345              		.p2align 2,,3
 346              		.global	osSlabMemFree
 347              		.syntax unified
 348              		.thumb
 349              		.thumb_func
 350              		.fpu fpv4-sp-d16
 352              	osSlabMemFree:
 353              	.LVL34:
 354              	.LFB136:
 145:D:/fchai/work/i-cube/I-CUBE-HUAWEI/Middlewares/Third_Party/Huawei/iot_link/os/liteos/base/mem/common\los_slabmem.c **** 
 146:D:/fchai/work/i-cube/I-CUBE-HUAWEI/Middlewares/Third_Party/Huawei/iot_link/os/liteos/base/mem/common\los_slabmem.c **** /*****************************************************************************
ARM GAS  T:\msys\tmp\ccvH13VP.s 			page 11


 147:D:/fchai/work/i-cube/I-CUBE-HUAWEI/Middlewares/Third_Party/Huawei/iot_link/os/liteos/base/mem/common\los_slabmem.c ****  Function : osSlabMemFree
 148:D:/fchai/work/i-cube/I-CUBE-HUAWEI/Middlewares/Third_Party/Huawei/iot_link/os/liteos/base/mem/common\los_slabmem.c ****  Description : To free the  memory block
 149:D:/fchai/work/i-cube/I-CUBE-HUAWEI/Middlewares/Third_Party/Huawei/iot_link/os/liteos/base/mem/common\los_slabmem.c ****  Input       : VOID* pPtr: the pointer of heap memory we want to free
 150:D:/fchai/work/i-cube/I-CUBE-HUAWEI/Middlewares/Third_Party/Huawei/iot_link/os/liteos/base/mem/common\los_slabmem.c ****  Output      : None
 151:D:/fchai/work/i-cube/I-CUBE-HUAWEI/Middlewares/Third_Party/Huawei/iot_link/os/liteos/base/mem/common\los_slabmem.c ****  Return      : TRUE:success FALSE:error
 152:D:/fchai/work/i-cube/I-CUBE-HUAWEI/Middlewares/Third_Party/Huawei/iot_link/os/liteos/base/mem/common\los_slabmem.c **** *****************************************************************************/
 153:D:/fchai/work/i-cube/I-CUBE-HUAWEI/Middlewares/Third_Party/Huawei/iot_link/os/liteos/base/mem/common\los_slabmem.c **** BOOL osSlabMemFree(VOID *pPool, VOID* pPtr)
 154:D:/fchai/work/i-cube/I-CUBE-HUAWEI/Middlewares/Third_Party/Huawei/iot_link/os/liteos/base/mem/common\los_slabmem.c **** {
 355              		.loc 1 154 1 is_stmt 1 view -0
 356              		.cfi_startproc
 357              		@ args = 0, pretend = 0, frame = 0
 358              		@ frame_needed = 0, uses_anonymous_args = 0
 155:D:/fchai/work/i-cube/I-CUBE-HUAWEI/Middlewares/Third_Party/Huawei/iot_link/os/liteos/base/mem/common\los_slabmem.c ****     UINTPTR uvIntSave;
 359              		.loc 1 155 5 view .LVU115
 156:D:/fchai/work/i-cube/I-CUBE-HUAWEI/Middlewares/Third_Party/Huawei/iot_link/os/liteos/base/mem/common\los_slabmem.c ****     struct LOS_SLAB_CONTROL_HEADER *pstSlabMem = osSlabCtrlHdrGet(pPool);
 360              		.loc 1 156 5 view .LVU116
 154:D:/fchai/work/i-cube/I-CUBE-HUAWEI/Middlewares/Third_Party/Huawei/iot_link/os/liteos/base/mem/common\los_slabmem.c ****     UINTPTR uvIntSave;
 361              		.loc 1 154 1 is_stmt 0 view .LVU117
 362 0000 70B5     		push	{r4, r5, r6, lr}
 363              	.LCFI2:
 364              		.cfi_def_cfa_offset 16
 365              		.cfi_offset 4, -16
 366              		.cfi_offset 5, -12
 367              		.cfi_offset 6, -8
 368              		.cfi_offset 14, -4
 154:D:/fchai/work/i-cube/I-CUBE-HUAWEI/Middlewares/Third_Party/Huawei/iot_link/os/liteos/base/mem/common\los_slabmem.c ****     UINTPTR uvIntSave;
 369              		.loc 1 154 1 view .LVU118
 370 0002 0D46     		mov	r5, r1
 371              		.loc 1 156 50 view .LVU119
 372 0004 FFF7FEFF 		bl	osSlabCtrlHdrGet
 373              	.LVL35:
 157:D:/fchai/work/i-cube/I-CUBE-HUAWEI/Middlewares/Third_Party/Huawei/iot_link/os/liteos/base/mem/common\los_slabmem.c ****     BOOL bRet = FALSE;
 158:D:/fchai/work/i-cube/I-CUBE-HUAWEI/Middlewares/Third_Party/Huawei/iot_link/os/liteos/base/mem/common\los_slabmem.c ****     OS_SLAB_MEM *pstSlabAlloc;
 159:D:/fchai/work/i-cube/I-CUBE-HUAWEI/Middlewares/Third_Party/Huawei/iot_link/os/liteos/base/mem/common\los_slabmem.c ****     UINT32 uwIdx = 0;
 160:D:/fchai/work/i-cube/I-CUBE-HUAWEI/Middlewares/Third_Party/Huawei/iot_link/os/liteos/base/mem/common\los_slabmem.c ****     OS_SLAB_BLOCK_NODE *pstSlabNode = OS_SLAB_BLOCK_HEAD_GET(pPtr);
 161:D:/fchai/work/i-cube/I-CUBE-HUAWEI/Middlewares/Third_Party/Huawei/iot_link/os/liteos/base/mem/common\los_slabmem.c **** 
 162:D:/fchai/work/i-cube/I-CUBE-HUAWEI/Middlewares/Third_Party/Huawei/iot_link/os/liteos/base/mem/common\los_slabmem.c ****     if (!OS_ALLOC_FROM_SLAB_CHECK(pstSlabNode))
 374              		.loc 1 162 8 view .LVU120
 375 0008 35F8042C 		ldrh	r2, [r5, #-4]
 376 000c 4DF6DE63 		movw	r3, #57054
 377              	.LVL36:
 157:D:/fchai/work/i-cube/I-CUBE-HUAWEI/Middlewares/Third_Party/Huawei/iot_link/os/liteos/base/mem/common\los_slabmem.c ****     BOOL bRet = FALSE;
 378              		.loc 1 157 5 is_stmt 1 view .LVU121
 158:D:/fchai/work/i-cube/I-CUBE-HUAWEI/Middlewares/Third_Party/Huawei/iot_link/os/liteos/base/mem/common\los_slabmem.c ****     UINT32 uwIdx = 0;
 379              		.loc 1 158 5 view .LVU122
 159:D:/fchai/work/i-cube/I-CUBE-HUAWEI/Middlewares/Third_Party/Huawei/iot_link/os/liteos/base/mem/common\los_slabmem.c ****     OS_SLAB_BLOCK_NODE *pstSlabNode = OS_SLAB_BLOCK_HEAD_GET(pPtr);
 380              		.loc 1 159 5 view .LVU123
 160:D:/fchai/work/i-cube/I-CUBE-HUAWEI/Middlewares/Third_Party/Huawei/iot_link/os/liteos/base/mem/common\los_slabmem.c **** 
 381              		.loc 1 160 5 view .LVU124
 382              		.loc 1 162 5 view .LVU125
 383              		.loc 1 162 8 is_stmt 0 view .LVU126
 384 0010 9A42     		cmp	r2, r3
 385 0012 09D1     		bne	.L30
 163:D:/fchai/work/i-cube/I-CUBE-HUAWEI/Middlewares/Third_Party/Huawei/iot_link/os/liteos/base/mem/common\los_slabmem.c ****     {
 164:D:/fchai/work/i-cube/I-CUBE-HUAWEI/Middlewares/Third_Party/Huawei/iot_link/os/liteos/base/mem/common\los_slabmem.c ****         return FALSE;
 165:D:/fchai/work/i-cube/I-CUBE-HUAWEI/Middlewares/Third_Party/Huawei/iot_link/os/liteos/base/mem/common\los_slabmem.c ****     }
 166:D:/fchai/work/i-cube/I-CUBE-HUAWEI/Middlewares/Third_Party/Huawei/iot_link/os/liteos/base/mem/common\los_slabmem.c ****     for (uwIdx = 0; uwIdx < SLAB_MEM_COUNT; uwIdx++)
ARM GAS  T:\msys\tmp\ccvH13VP.s 			page 12


 167:D:/fchai/work/i-cube/I-CUBE-HUAWEI/Middlewares/Third_Party/Huawei/iot_link/os/liteos/base/mem/common\los_slabmem.c ****     {
 168:D:/fchai/work/i-cube/I-CUBE-HUAWEI/Middlewares/Third_Party/Huawei/iot_link/os/liteos/base/mem/common\los_slabmem.c ****         if (OS_SLAB_BLOCK_SIZE_GET(pstSlabNode) <= pstSlabMem->stSlabClass[uwIdx].blkSz)
 386              		.loc 1 168 13 view .LVU127
 387 0014 15F8021C 		ldrb	r1, [r5, #-2]	@ zero_extendqisi2
 166:D:/fchai/work/i-cube/I-CUBE-HUAWEI/Middlewares/Third_Party/Huawei/iot_link/os/liteos/base/mem/common\los_slabmem.c ****     {
 388              		.loc 1 166 16 view .LVU128
 389 0018 0023     		movs	r3, #0
 390              	.LVL37:
 391              	.L29:
 392              		.loc 1 168 9 is_stmt 1 view .LVU129
 166:D:/fchai/work/i-cube/I-CUBE-HUAWEI/Middlewares/Third_Party/Huawei/iot_link/os/liteos/base/mem/common\los_slabmem.c ****     {
 393              		.loc 1 166 45 view .LVU130
 394              		.loc 1 168 82 is_stmt 0 view .LVU131
 395 001a 1C01     		lsls	r4, r3, #4
 166:D:/fchai/work/i-cube/I-CUBE-HUAWEI/Middlewares/Third_Party/Huawei/iot_link/os/liteos/base/mem/common\los_slabmem.c ****     {
 396              		.loc 1 166 50 view .LVU132
 397 001c 0133     		adds	r3, r3, #1
 398              	.LVL38:
 166:D:/fchai/work/i-cube/I-CUBE-HUAWEI/Middlewares/Third_Party/Huawei/iot_link/os/liteos/base/mem/common\los_slabmem.c ****     {
 399              		.loc 1 166 21 is_stmt 1 view .LVU133
 400              		.loc 1 168 12 is_stmt 0 view .LVU134
 401 001e 0259     		ldr	r2, [r0, r4]
 402 0020 9142     		cmp	r1, r2
 403 0022 04D9     		bls	.L34
 166:D:/fchai/work/i-cube/I-CUBE-HUAWEI/Middlewares/Third_Party/Huawei/iot_link/os/liteos/base/mem/common\los_slabmem.c ****     {
 404              		.loc 1 166 5 discriminator 2 view .LVU135
 405 0024 042B     		cmp	r3, #4
 406 0026 F8D1     		bne	.L29
 407              	.LVL39:
 408              	.L30:
 164:D:/fchai/work/i-cube/I-CUBE-HUAWEI/Middlewares/Third_Party/Huawei/iot_link/os/liteos/base/mem/common\los_slabmem.c ****     }
 409              		.loc 1 164 16 view .LVU136
 410 0028 0025     		movs	r5, #0
 411              	.LVL40:
 412              	.L25:
 169:D:/fchai/work/i-cube/I-CUBE-HUAWEI/Middlewares/Third_Party/Huawei/iot_link/os/liteos/base/mem/common\los_slabmem.c ****         {
 170:D:/fchai/work/i-cube/I-CUBE-HUAWEI/Middlewares/Third_Party/Huawei/iot_link/os/liteos/base/mem/common\los_slabmem.c ****             uvIntSave = LOS_IntLock();
 171:D:/fchai/work/i-cube/I-CUBE-HUAWEI/Middlewares/Third_Party/Huawei/iot_link/os/liteos/base/mem/common\los_slabmem.c **** 
 172:D:/fchai/work/i-cube/I-CUBE-HUAWEI/Middlewares/Third_Party/Huawei/iot_link/os/liteos/base/mem/common\los_slabmem.c ****             pstSlabAlloc = &(pstSlabMem->stSlabClass[uwIdx]);
 173:D:/fchai/work/i-cube/I-CUBE-HUAWEI/Middlewares/Third_Party/Huawei/iot_link/os/liteos/base/mem/common\los_slabmem.c ****             if (TRUE == osSlabAllocatorFree(pstSlabAlloc->alloc, pstSlabNode))
 174:D:/fchai/work/i-cube/I-CUBE-HUAWEI/Middlewares/Third_Party/Huawei/iot_link/os/liteos/base/mem/common\los_slabmem.c ****             {
 175:D:/fchai/work/i-cube/I-CUBE-HUAWEI/Middlewares/Third_Party/Huawei/iot_link/os/liteos/base/mem/common\los_slabmem.c ****                 bRet = TRUE;
 176:D:/fchai/work/i-cube/I-CUBE-HUAWEI/Middlewares/Third_Party/Huawei/iot_link/os/liteos/base/mem/common\los_slabmem.c ****                 pstSlabMem->stSlabClass[uwIdx].blkUsedCnt--;
 177:D:/fchai/work/i-cube/I-CUBE-HUAWEI/Middlewares/Third_Party/Huawei/iot_link/os/liteos/base/mem/common\los_slabmem.c **** #if (LOSCFG_MEM_TASK_USED_STATISTICS == YES)
 178:D:/fchai/work/i-cube/I-CUBE-HUAWEI/Middlewares/Third_Party/Huawei/iot_link/os/liteos/base/mem/common\los_slabmem.c ****                 OS_MEM_REDUCE_USED(pstSlabMem->stSlabClass[uwIdx].blkSz);
 179:D:/fchai/work/i-cube/I-CUBE-HUAWEI/Middlewares/Third_Party/Huawei/iot_link/os/liteos/base/mem/common\los_slabmem.c **** #endif
 180:D:/fchai/work/i-cube/I-CUBE-HUAWEI/Middlewares/Third_Party/Huawei/iot_link/os/liteos/base/mem/common\los_slabmem.c ****             }
 181:D:/fchai/work/i-cube/I-CUBE-HUAWEI/Middlewares/Third_Party/Huawei/iot_link/os/liteos/base/mem/common\los_slabmem.c **** 
 182:D:/fchai/work/i-cube/I-CUBE-HUAWEI/Middlewares/Third_Party/Huawei/iot_link/os/liteos/base/mem/common\los_slabmem.c ****             (VOID)LOS_IntRestore(uvIntSave);
 183:D:/fchai/work/i-cube/I-CUBE-HUAWEI/Middlewares/Third_Party/Huawei/iot_link/os/liteos/base/mem/common\los_slabmem.c ****             return bRet;
 184:D:/fchai/work/i-cube/I-CUBE-HUAWEI/Middlewares/Third_Party/Huawei/iot_link/os/liteos/base/mem/common\los_slabmem.c ****         }
 185:D:/fchai/work/i-cube/I-CUBE-HUAWEI/Middlewares/Third_Party/Huawei/iot_link/os/liteos/base/mem/common\los_slabmem.c ****     }
 186:D:/fchai/work/i-cube/I-CUBE-HUAWEI/Middlewares/Third_Party/Huawei/iot_link/os/liteos/base/mem/common\los_slabmem.c ****     return FALSE;
 187:D:/fchai/work/i-cube/I-CUBE-HUAWEI/Middlewares/Third_Party/Huawei/iot_link/os/liteos/base/mem/common\los_slabmem.c **** }
 413              		.loc 1 187 1 view .LVU137
 414 002a 2846     		mov	r0, r5
 415 002c 70BD     		pop	{r4, r5, r6, pc}
ARM GAS  T:\msys\tmp\ccvH13VP.s 			page 13


 416              	.LVL41:
 417              	.L34:
 170:D:/fchai/work/i-cube/I-CUBE-HUAWEI/Middlewares/Third_Party/Huawei/iot_link/os/liteos/base/mem/common\los_slabmem.c **** 
 418              		.loc 1 170 13 is_stmt 1 view .LVU138
 173:D:/fchai/work/i-cube/I-CUBE-HUAWEI/Middlewares/Third_Party/Huawei/iot_link/os/liteos/base/mem/common\los_slabmem.c ****             {
 419              		.loc 1 173 25 is_stmt 0 view .LVU139
 420 002e 0444     		add	r4, r4, r0
 170:D:/fchai/work/i-cube/I-CUBE-HUAWEI/Middlewares/Third_Party/Huawei/iot_link/os/liteos/base/mem/common\los_slabmem.c **** 
 421              		.loc 1 170 25 view .LVU140
 422 0030 FFF7FEFF 		bl	LOS_IntLock
 423              	.LVL42:
 173:D:/fchai/work/i-cube/I-CUBE-HUAWEI/Middlewares/Third_Party/Huawei/iot_link/os/liteos/base/mem/common\los_slabmem.c ****             {
 424              		.loc 1 173 25 view .LVU141
 425 0034 291F     		subs	r1, r5, #4
 170:D:/fchai/work/i-cube/I-CUBE-HUAWEI/Middlewares/Third_Party/Huawei/iot_link/os/liteos/base/mem/common\los_slabmem.c **** 
 426              		.loc 1 170 25 view .LVU142
 427 0036 0646     		mov	r6, r0
 173:D:/fchai/work/i-cube/I-CUBE-HUAWEI/Middlewares/Third_Party/Huawei/iot_link/os/liteos/base/mem/common\los_slabmem.c ****             {
 428              		.loc 1 173 25 view .LVU143
 429 0038 E068     		ldr	r0, [r4, #12]
 430              	.LVL43:
 172:D:/fchai/work/i-cube/I-CUBE-HUAWEI/Middlewares/Third_Party/Huawei/iot_link/os/liteos/base/mem/common\los_slabmem.c ****             if (TRUE == osSlabAllocatorFree(pstSlabAlloc->alloc, pstSlabNode))
 431              		.loc 1 172 13 is_stmt 1 view .LVU144
 173:D:/fchai/work/i-cube/I-CUBE-HUAWEI/Middlewares/Third_Party/Huawei/iot_link/os/liteos/base/mem/common\los_slabmem.c ****             {
 432              		.loc 1 173 13 view .LVU145
 173:D:/fchai/work/i-cube/I-CUBE-HUAWEI/Middlewares/Third_Party/Huawei/iot_link/os/liteos/base/mem/common\los_slabmem.c ****             {
 433              		.loc 1 173 25 is_stmt 0 view .LVU146
 434 003a FFF7FEFF 		bl	osSlabAllocatorFree
 435              	.LVL44:
 173:D:/fchai/work/i-cube/I-CUBE-HUAWEI/Middlewares/Third_Party/Huawei/iot_link/os/liteos/base/mem/common\los_slabmem.c ****             {
 436              		.loc 1 173 16 view .LVU147
 437 003e 0128     		cmp	r0, #1
 175:D:/fchai/work/i-cube/I-CUBE-HUAWEI/Middlewares/Third_Party/Huawei/iot_link/os/liteos/base/mem/common\los_slabmem.c ****                 pstSlabMem->stSlabClass[uwIdx].blkUsedCnt--;
 438              		.loc 1 175 17 is_stmt 1 view .LVU148
 439              	.LVL45:
 176:D:/fchai/work/i-cube/I-CUBE-HUAWEI/Middlewares/Third_Party/Huawei/iot_link/os/liteos/base/mem/common\los_slabmem.c **** #if (LOSCFG_MEM_TASK_USED_STATISTICS == YES)
 440              		.loc 1 176 17 view .LVU149
 176:D:/fchai/work/i-cube/I-CUBE-HUAWEI/Middlewares/Third_Party/Huawei/iot_link/os/liteos/base/mem/common\los_slabmem.c **** #if (LOSCFG_MEM_TASK_USED_STATISTICS == YES)
 441              		.loc 1 176 58 is_stmt 0 view .LVU150
 442 0040 04BF     		itt	eq
 443 0042 A368     		ldreq	r3, [r4, #8]
 444 0044 03F1FF33 		addeq	r3, r3, #-1
 173:D:/fchai/work/i-cube/I-CUBE-HUAWEI/Middlewares/Third_Party/Huawei/iot_link/os/liteos/base/mem/common\los_slabmem.c ****             {
 445              		.loc 1 173 25 view .LVU151
 446 0048 0546     		mov	r5, r0
 447              	.LVL46:
 176:D:/fchai/work/i-cube/I-CUBE-HUAWEI/Middlewares/Third_Party/Huawei/iot_link/os/liteos/base/mem/common\los_slabmem.c **** #if (LOSCFG_MEM_TASK_USED_STATISTICS == YES)
 448              		.loc 1 176 58 view .LVU152
 449 004a 08BF     		it	eq
 450 004c A360     		streq	r3, [r4, #8]
 182:D:/fchai/work/i-cube/I-CUBE-HUAWEI/Middlewares/Third_Party/Huawei/iot_link/os/liteos/base/mem/common\los_slabmem.c ****             return bRet;
 451              		.loc 1 182 13 view .LVU153
 452 004e 3046     		mov	r0, r6
 157:D:/fchai/work/i-cube/I-CUBE-HUAWEI/Middlewares/Third_Party/Huawei/iot_link/os/liteos/base/mem/common\los_slabmem.c ****     OS_SLAB_MEM *pstSlabAlloc;
 453              		.loc 1 157 10 view .LVU154
 454 0050 18BF     		it	ne
 455 0052 0025     		movne	r5, #0
ARM GAS  T:\msys\tmp\ccvH13VP.s 			page 14


 456              	.LVL47:
 182:D:/fchai/work/i-cube/I-CUBE-HUAWEI/Middlewares/Third_Party/Huawei/iot_link/os/liteos/base/mem/common\los_slabmem.c ****             return bRet;
 457              		.loc 1 182 13 is_stmt 1 view .LVU155
 458 0054 FFF7FEFF 		bl	LOS_IntRestore
 459              	.LVL48:
 183:D:/fchai/work/i-cube/I-CUBE-HUAWEI/Middlewares/Third_Party/Huawei/iot_link/os/liteos/base/mem/common\los_slabmem.c ****         }
 460              		.loc 1 183 13 view .LVU156
 183:D:/fchai/work/i-cube/I-CUBE-HUAWEI/Middlewares/Third_Party/Huawei/iot_link/os/liteos/base/mem/common\los_slabmem.c ****         }
 461              		.loc 1 183 20 is_stmt 0 view .LVU157
 462 0058 E7E7     		b	.L25
 463              		.cfi_endproc
 464              	.LFE136:
 466 005a 00BF     		.section	.text.osSlabMemDeinit,"ax",%progbits
 467              		.align	1
 468              		.p2align 2,,3
 469              		.global	osSlabMemDeinit
 470              		.syntax unified
 471              		.thumb
 472              		.thumb_func
 473              		.fpu fpv4-sp-d16
 475              	osSlabMemDeinit:
 476              	.LVL49:
 477              	.LFB137:
 188:D:/fchai/work/i-cube/I-CUBE-HUAWEI/Middlewares/Third_Party/Huawei/iot_link/os/liteos/base/mem/common\los_slabmem.c **** 
 189:D:/fchai/work/i-cube/I-CUBE-HUAWEI/Middlewares/Third_Party/Huawei/iot_link/os/liteos/base/mem/common\los_slabmem.c **** /*****************************************************************************
 190:D:/fchai/work/i-cube/I-CUBE-HUAWEI/Middlewares/Third_Party/Huawei/iot_link/os/liteos/base/mem/common\los_slabmem.c ****  Function : osSlabMemDeinit
 191:D:/fchai/work/i-cube/I-CUBE-HUAWEI/Middlewares/Third_Party/Huawei/iot_link/os/liteos/base/mem/common\los_slabmem.c ****  Description :  deinitialize the slab memory ,set back to the original status
 192:D:/fchai/work/i-cube/I-CUBE-HUAWEI/Middlewares/Third_Party/Huawei/iot_link/os/liteos/base/mem/common\los_slabmem.c ****  Input       : None
 193:D:/fchai/work/i-cube/I-CUBE-HUAWEI/Middlewares/Third_Party/Huawei/iot_link/os/liteos/base/mem/common\los_slabmem.c ****  Output      : None
 194:D:/fchai/work/i-cube/I-CUBE-HUAWEI/Middlewares/Third_Party/Huawei/iot_link/os/liteos/base/mem/common\los_slabmem.c ****  Return      : None
 195:D:/fchai/work/i-cube/I-CUBE-HUAWEI/Middlewares/Third_Party/Huawei/iot_link/os/liteos/base/mem/common\los_slabmem.c **** *****************************************************************************/
 196:D:/fchai/work/i-cube/I-CUBE-HUAWEI/Middlewares/Third_Party/Huawei/iot_link/os/liteos/base/mem/common\los_slabmem.c **** VOID osSlabMemDeinit(VOID *pPool)
 197:D:/fchai/work/i-cube/I-CUBE-HUAWEI/Middlewares/Third_Party/Huawei/iot_link/os/liteos/base/mem/common\los_slabmem.c **** {
 478              		.loc 1 197 1 is_stmt 1 view -0
 479              		.cfi_startproc
 480              		@ args = 0, pretend = 0, frame = 0
 481              		@ frame_needed = 0, uses_anonymous_args = 0
 198:D:/fchai/work/i-cube/I-CUBE-HUAWEI/Middlewares/Third_Party/Huawei/iot_link/os/liteos/base/mem/common\los_slabmem.c ****     UINT32 uwIdx;
 482              		.loc 1 198 5 view .LVU159
 199:D:/fchai/work/i-cube/I-CUBE-HUAWEI/Middlewares/Third_Party/Huawei/iot_link/os/liteos/base/mem/common\los_slabmem.c ****     struct LOS_SLAB_CONTROL_HEADER *pstSlabMem = NULL;
 483              		.loc 1 199 5 view .LVU160
 200:D:/fchai/work/i-cube/I-CUBE-HUAWEI/Middlewares/Third_Party/Huawei/iot_link/os/liteos/base/mem/common\los_slabmem.c ****     OS_SLAB_MEM *pstSlabAlloc;
 484              		.loc 1 200 5 view .LVU161
 201:D:/fchai/work/i-cube/I-CUBE-HUAWEI/Middlewares/Third_Party/Huawei/iot_link/os/liteos/base/mem/common\los_slabmem.c ****     UINT32 uwBlkSz;
 485              		.loc 1 201 5 view .LVU162
 202:D:/fchai/work/i-cube/I-CUBE-HUAWEI/Middlewares/Third_Party/Huawei/iot_link/os/liteos/base/mem/common\los_slabmem.c ****     UINT32 uwBlkCnt;
 486              		.loc 1 202 5 view .LVU163
 203:D:/fchai/work/i-cube/I-CUBE-HUAWEI/Middlewares/Third_Party/Huawei/iot_link/os/liteos/base/mem/common\los_slabmem.c **** 
 204:D:/fchai/work/i-cube/I-CUBE-HUAWEI/Middlewares/Third_Party/Huawei/iot_link/os/liteos/base/mem/common\los_slabmem.c ****     if (NULL == pPool)
 487              		.loc 1 204 5 view .LVU164
 488              		.loc 1 204 8 is_stmt 0 view .LVU165
 489 0000 F8B1     		cbz	r0, .L47
 197:D:/fchai/work/i-cube/I-CUBE-HUAWEI/Middlewares/Third_Party/Huawei/iot_link/os/liteos/base/mem/common\los_slabmem.c ****     UINT32 uwIdx;
 490              		.loc 1 197 1 view .LVU166
 491 0002 2DE9F843 		push	{r3, r4, r5, r6, r7, r8, r9, lr}
 492              	.LCFI3:
 493              		.cfi_def_cfa_offset 32
ARM GAS  T:\msys\tmp\ccvH13VP.s 			page 15


 494              		.cfi_offset 3, -32
 495              		.cfi_offset 4, -28
 496              		.cfi_offset 5, -24
 497              		.cfi_offset 6, -20
 498              		.cfi_offset 7, -16
 499              		.cfi_offset 8, -12
 500              		.cfi_offset 9, -8
 501              		.cfi_offset 14, -4
 502 0006 0646     		mov	r6, r0
 205:D:/fchai/work/i-cube/I-CUBE-HUAWEI/Middlewares/Third_Party/Huawei/iot_link/os/liteos/base/mem/common\los_slabmem.c ****     {
 206:D:/fchai/work/i-cube/I-CUBE-HUAWEI/Middlewares/Third_Party/Huawei/iot_link/os/liteos/base/mem/common\los_slabmem.c ****         return ;
 207:D:/fchai/work/i-cube/I-CUBE-HUAWEI/Middlewares/Third_Party/Huawei/iot_link/os/liteos/base/mem/common\los_slabmem.c ****     }
 208:D:/fchai/work/i-cube/I-CUBE-HUAWEI/Middlewares/Third_Party/Huawei/iot_link/os/liteos/base/mem/common\los_slabmem.c ****     pstSlabMem = osSlabCtrlHdrGet(pPool);
 503              		.loc 1 208 5 is_stmt 1 view .LVU167
 504              		.loc 1 208 18 is_stmt 0 view .LVU168
 505 0008 FFF7FEFF 		bl	osSlabCtrlHdrGet
 506              	.LVL50:
 209:D:/fchai/work/i-cube/I-CUBE-HUAWEI/Middlewares/Third_Party/Huawei/iot_link/os/liteos/base/mem/common\los_slabmem.c **** 
 210:D:/fchai/work/i-cube/I-CUBE-HUAWEI/Middlewares/Third_Party/Huawei/iot_link/os/liteos/base/mem/common\los_slabmem.c ****     for (uwIdx = 0; uwIdx < SLAB_MEM_COUNT; uwIdx++)
 507              		.loc 1 210 16 view .LVU169
 508 000c 0025     		movs	r5, #0
 208:D:/fchai/work/i-cube/I-CUBE-HUAWEI/Middlewares/Third_Party/Huawei/iot_link/os/liteos/base/mem/common\los_slabmem.c **** 
 509              		.loc 1 208 18 view .LVU170
 510 000e 0446     		mov	r4, r0
 511              	.LVL51:
 512              		.loc 1 210 5 is_stmt 1 view .LVU171
 513              		.loc 1 210 21 view .LVU172
 211:D:/fchai/work/i-cube/I-CUBE-HUAWEI/Middlewares/Third_Party/Huawei/iot_link/os/liteos/base/mem/common\los_slabmem.c ****     {
 212:D:/fchai/work/i-cube/I-CUBE-HUAWEI/Middlewares/Third_Party/Huawei/iot_link/os/liteos/base/mem/common\los_slabmem.c ****         uwBlkSz = (0x10 << uwIdx);
 213:D:/fchai/work/i-cube/I-CUBE-HUAWEI/Middlewares/Third_Party/Huawei/iot_link/os/liteos/base/mem/common\los_slabmem.c ****         uwBlkCnt = SLAB_MEM_ALLOCATOR_SIZE / uwBlkSz;
 214:D:/fchai/work/i-cube/I-CUBE-HUAWEI/Middlewares/Third_Party/Huawei/iot_link/os/liteos/base/mem/common\los_slabmem.c ****         pstSlabMem->stSlabClass[uwIdx].blkSz = uwBlkSz;
 215:D:/fchai/work/i-cube/I-CUBE-HUAWEI/Middlewares/Third_Party/Huawei/iot_link/os/liteos/base/mem/common\los_slabmem.c ****         pstSlabMem->stSlabClass[uwIdx].blkCnt = uwBlkCnt;
 216:D:/fchai/work/i-cube/I-CUBE-HUAWEI/Middlewares/Third_Party/Huawei/iot_link/os/liteos/base/mem/common\los_slabmem.c ****         if (NULL != pstSlabMem->stSlabClass[uwIdx].alloc)
 217:D:/fchai/work/i-cube/I-CUBE-HUAWEI/Middlewares/Third_Party/Huawei/iot_link/os/liteos/base/mem/common\los_slabmem.c ****         {
 218:D:/fchai/work/i-cube/I-CUBE-HUAWEI/Middlewares/Third_Party/Huawei/iot_link/os/liteos/base/mem/common\los_slabmem.c ****             pstSlabAlloc = &(pstSlabMem->stSlabClass[uwIdx]);
 219:D:/fchai/work/i-cube/I-CUBE-HUAWEI/Middlewares/Third_Party/Huawei/iot_link/os/liteos/base/mem/common\los_slabmem.c ****             osSlabAllocatorDestroy(pPool, pstSlabAlloc->alloc);
 220:D:/fchai/work/i-cube/I-CUBE-HUAWEI/Middlewares/Third_Party/Huawei/iot_link/os/liteos/base/mem/common\los_slabmem.c ****             pstSlabMem->stSlabClass[uwIdx].alloc = NULL;
 514              		.loc 1 220 50 is_stmt 0 view .LVU173
 515 0010 A846     		mov	r8, r5
 212:D:/fchai/work/i-cube/I-CUBE-HUAWEI/Middlewares/Third_Party/Huawei/iot_link/os/liteos/base/mem/common\los_slabmem.c ****         uwBlkCnt = SLAB_MEM_ALLOCATOR_SIZE / uwBlkSz;
 516              		.loc 1 212 25 view .LVU174
 517 0012 4FF01009 		mov	r9, #16
 213:D:/fchai/work/i-cube/I-CUBE-HUAWEI/Middlewares/Third_Party/Huawei/iot_link/os/liteos/base/mem/common\los_slabmem.c ****         pstSlabMem->stSlabClass[uwIdx].blkSz = uwBlkSz;
 518              		.loc 1 213 18 view .LVU175
 519 0016 4FF40077 		mov	r7, #512
 520              	.LVL52:
 521              	.L38:
 212:D:/fchai/work/i-cube/I-CUBE-HUAWEI/Middlewares/Third_Party/Huawei/iot_link/os/liteos/base/mem/common\los_slabmem.c ****         uwBlkCnt = SLAB_MEM_ALLOCATOR_SIZE / uwBlkSz;
 522              		.loc 1 212 9 is_stmt 1 view .LVU176
 218:D:/fchai/work/i-cube/I-CUBE-HUAWEI/Middlewares/Third_Party/Huawei/iot_link/os/liteos/base/mem/common\los_slabmem.c ****             osSlabAllocatorDestroy(pPool, pstSlabAlloc->alloc);
 523              		.loc 1 218 13 view .LVU177
 219:D:/fchai/work/i-cube/I-CUBE-HUAWEI/Middlewares/Third_Party/Huawei/iot_link/os/liteos/base/mem/common\los_slabmem.c ****             pstSlabMem->stSlabClass[uwIdx].alloc = NULL;
 524              		.loc 1 219 13 view .LVU178
 216:D:/fchai/work/i-cube/I-CUBE-HUAWEI/Middlewares/Third_Party/Huawei/iot_link/os/liteos/base/mem/common\los_slabmem.c ****         {
 525              		.loc 1 216 12 is_stmt 0 view .LVU179
 526 001a E168     		ldr	r1, [r4, #12]
 212:D:/fchai/work/i-cube/I-CUBE-HUAWEI/Middlewares/Third_Party/Huawei/iot_link/os/liteos/base/mem/common\los_slabmem.c ****         uwBlkCnt = SLAB_MEM_ALLOCATOR_SIZE / uwBlkSz;
ARM GAS  T:\msys\tmp\ccvH13VP.s 			page 16


 527              		.loc 1 212 25 view .LVU180
 528 001c 09FA05F3 		lsl	r3, r9, r5
 529              	.LVL53:
 213:D:/fchai/work/i-cube/I-CUBE-HUAWEI/Middlewares/Third_Party/Huawei/iot_link/os/liteos/base/mem/common\los_slabmem.c ****         pstSlabMem->stSlabClass[uwIdx].blkSz = uwBlkSz;
 530              		.loc 1 213 9 is_stmt 1 view .LVU181
 214:D:/fchai/work/i-cube/I-CUBE-HUAWEI/Middlewares/Third_Party/Huawei/iot_link/os/liteos/base/mem/common\los_slabmem.c ****         pstSlabMem->stSlabClass[uwIdx].blkCnt = uwBlkCnt;
 531              		.loc 1 214 9 view .LVU182
 214:D:/fchai/work/i-cube/I-CUBE-HUAWEI/Middlewares/Third_Party/Huawei/iot_link/os/liteos/base/mem/common\los_slabmem.c ****         pstSlabMem->stSlabClass[uwIdx].blkCnt = uwBlkCnt;
 532              		.loc 1 214 46 is_stmt 0 view .LVU183
 533 0020 2360     		str	r3, [r4]
 215:D:/fchai/work/i-cube/I-CUBE-HUAWEI/Middlewares/Third_Party/Huawei/iot_link/os/liteos/base/mem/common\los_slabmem.c ****         if (NULL != pstSlabMem->stSlabClass[uwIdx].alloc)
 534              		.loc 1 215 9 is_stmt 1 view .LVU184
 210:D:/fchai/work/i-cube/I-CUBE-HUAWEI/Middlewares/Third_Party/Huawei/iot_link/os/liteos/base/mem/common\los_slabmem.c ****     {
 535              		.loc 1 210 50 is_stmt 0 view .LVU185
 536 0022 0135     		adds	r5, r5, #1
 537              	.LVL54:
 213:D:/fchai/work/i-cube/I-CUBE-HUAWEI/Middlewares/Third_Party/Huawei/iot_link/os/liteos/base/mem/common\los_slabmem.c ****         pstSlabMem->stSlabClass[uwIdx].blkSz = uwBlkSz;
 538              		.loc 1 213 18 view .LVU186
 539 0024 B7FBF3F3 		udiv	r3, r7, r3
 540              	.LVL55:
 215:D:/fchai/work/i-cube/I-CUBE-HUAWEI/Middlewares/Third_Party/Huawei/iot_link/os/liteos/base/mem/common\los_slabmem.c ****         if (NULL != pstSlabMem->stSlabClass[uwIdx].alloc)
 541              		.loc 1 215 47 view .LVU187
 542 0028 6360     		str	r3, [r4, #4]
 216:D:/fchai/work/i-cube/I-CUBE-HUAWEI/Middlewares/Third_Party/Huawei/iot_link/os/liteos/base/mem/common\los_slabmem.c ****         {
 543              		.loc 1 216 9 is_stmt 1 view .LVU188
 216:D:/fchai/work/i-cube/I-CUBE-HUAWEI/Middlewares/Third_Party/Huawei/iot_link/os/liteos/base/mem/common\los_slabmem.c ****         {
 544              		.loc 1 216 12 is_stmt 0 view .LVU189
 545 002a 21B1     		cbz	r1, .L37
 219:D:/fchai/work/i-cube/I-CUBE-HUAWEI/Middlewares/Third_Party/Huawei/iot_link/os/liteos/base/mem/common\los_slabmem.c ****             pstSlabMem->stSlabClass[uwIdx].alloc = NULL;
 546              		.loc 1 219 13 view .LVU190
 547 002c 3046     		mov	r0, r6
 548 002e FFF7FEFF 		bl	osSlabAllocatorDestroy
 549              	.LVL56:
 550              		.loc 1 220 13 is_stmt 1 view .LVU191
 551              		.loc 1 220 50 is_stmt 0 view .LVU192
 552 0032 C4F80C80 		str	r8, [r4, #12]
 553              	.L37:
 210:D:/fchai/work/i-cube/I-CUBE-HUAWEI/Middlewares/Third_Party/Huawei/iot_link/os/liteos/base/mem/common\los_slabmem.c ****     {
 554              		.loc 1 210 45 is_stmt 1 discriminator 2 view .LVU193
 555              	.LVL57:
 210:D:/fchai/work/i-cube/I-CUBE-HUAWEI/Middlewares/Third_Party/Huawei/iot_link/os/liteos/base/mem/common\los_slabmem.c ****     {
 556              		.loc 1 210 21 discriminator 2 view .LVU194
 210:D:/fchai/work/i-cube/I-CUBE-HUAWEI/Middlewares/Third_Party/Huawei/iot_link/os/liteos/base/mem/common\los_slabmem.c ****     {
 557              		.loc 1 210 5 is_stmt 0 discriminator 2 view .LVU195
 558 0036 042D     		cmp	r5, #4
 559 0038 04F11004 		add	r4, r4, #16
 560 003c EDD1     		bne	.L38
 221:D:/fchai/work/i-cube/I-CUBE-HUAWEI/Middlewares/Third_Party/Huawei/iot_link/os/liteos/base/mem/common\los_slabmem.c ****         }
 222:D:/fchai/work/i-cube/I-CUBE-HUAWEI/Middlewares/Third_Party/Huawei/iot_link/os/liteos/base/mem/common\los_slabmem.c ****     }
 223:D:/fchai/work/i-cube/I-CUBE-HUAWEI/Middlewares/Third_Party/Huawei/iot_link/os/liteos/base/mem/common\los_slabmem.c ****     return ;
 224:D:/fchai/work/i-cube/I-CUBE-HUAWEI/Middlewares/Third_Party/Huawei/iot_link/os/liteos/base/mem/common\los_slabmem.c **** }
 561              		.loc 1 224 1 view .LVU196
 562 003e BDE8F883 		pop	{r3, r4, r5, r6, r7, r8, r9, pc}
 563              	.LVL58:
 564              	.L47:
 565              	.LCFI4:
 566              		.cfi_def_cfa_offset 0
ARM GAS  T:\msys\tmp\ccvH13VP.s 			page 17


 567              		.cfi_restore 3
 568              		.cfi_restore 4
 569              		.cfi_restore 5
 570              		.cfi_restore 6
 571              		.cfi_restore 7
 572              		.cfi_restore 8
 573              		.cfi_restore 9
 574              		.cfi_restore 14
 575              		.loc 1 224 1 view .LVU197
 576 0042 7047     		bx	lr
 577              		.cfi_endproc
 578              	.LFE137:
 580              		.section	.text.osSlabMemCheck,"ax",%progbits
 581              		.align	1
 582              		.p2align 2,,3
 583              		.global	osSlabMemCheck
 584              		.syntax unified
 585              		.thumb
 586              		.thumb_func
 587              		.fpu fpv4-sp-d16
 589              	osSlabMemCheck:
 590              	.LVL59:
 591              	.LFB138:
 225:D:/fchai/work/i-cube/I-CUBE-HUAWEI/Middlewares/Third_Party/Huawei/iot_link/os/liteos/base/mem/common\los_slabmem.c **** 
 226:D:/fchai/work/i-cube/I-CUBE-HUAWEI/Middlewares/Third_Party/Huawei/iot_link/os/liteos/base/mem/common\los_slabmem.c **** UINT32 osSlabMemCheck(VOID *pPool, VOID* pPtr)
 227:D:/fchai/work/i-cube/I-CUBE-HUAWEI/Middlewares/Third_Party/Huawei/iot_link/os/liteos/base/mem/common\los_slabmem.c **** {
 592              		.loc 1 227 1 is_stmt 1 view -0
 593              		.cfi_startproc
 594              		@ args = 0, pretend = 0, frame = 0
 595              		@ frame_needed = 0, uses_anonymous_args = 0
 228:D:/fchai/work/i-cube/I-CUBE-HUAWEI/Middlewares/Third_Party/Huawei/iot_link/os/liteos/base/mem/common\los_slabmem.c ****     UINTPTR uvIntSave;
 596              		.loc 1 228 5 view .LVU199
 229:D:/fchai/work/i-cube/I-CUBE-HUAWEI/Middlewares/Third_Party/Huawei/iot_link/os/liteos/base/mem/common\los_slabmem.c ****     struct LOS_SLAB_CONTROL_HEADER *pstSlabMem = osSlabCtrlHdrGet(pPool);
 597              		.loc 1 229 5 view .LVU200
 227:D:/fchai/work/i-cube/I-CUBE-HUAWEI/Middlewares/Third_Party/Huawei/iot_link/os/liteos/base/mem/common\los_slabmem.c ****     UINTPTR uvIntSave;
 598              		.loc 1 227 1 is_stmt 0 view .LVU201
 599 0000 2DE9F041 		push	{r4, r5, r6, r7, r8, lr}
 600              	.LCFI5:
 601              		.cfi_def_cfa_offset 24
 602              		.cfi_offset 4, -24
 603              		.cfi_offset 5, -20
 604              		.cfi_offset 6, -16
 605              		.cfi_offset 7, -12
 606              		.cfi_offset 8, -8
 607              		.cfi_offset 14, -4
 227:D:/fchai/work/i-cube/I-CUBE-HUAWEI/Middlewares/Third_Party/Huawei/iot_link/os/liteos/base/mem/common\los_slabmem.c ****     UINTPTR uvIntSave;
 608              		.loc 1 227 1 view .LVU202
 609 0004 0D46     		mov	r5, r1
 610              		.loc 1 229 50 view .LVU203
 611 0006 FFF7FEFF 		bl	osSlabCtrlHdrGet
 612              	.LVL60:
 230:D:/fchai/work/i-cube/I-CUBE-HUAWEI/Middlewares/Third_Party/Huawei/iot_link/os/liteos/base/mem/common\los_slabmem.c ****     UINT32 uwRetBlkSz = (UINT32)-1;
 231:D:/fchai/work/i-cube/I-CUBE-HUAWEI/Middlewares/Third_Party/Huawei/iot_link/os/liteos/base/mem/common\los_slabmem.c ****     OS_SLAB_MEM *pstSlabAlloc;
 232:D:/fchai/work/i-cube/I-CUBE-HUAWEI/Middlewares/Third_Party/Huawei/iot_link/os/liteos/base/mem/common\los_slabmem.c ****     UINT32 uwIdx = 0;
 233:D:/fchai/work/i-cube/I-CUBE-HUAWEI/Middlewares/Third_Party/Huawei/iot_link/os/liteos/base/mem/common\los_slabmem.c ****     OS_SLAB_BLOCK_NODE *pstSlabNode = OS_SLAB_BLOCK_HEAD_GET(pPtr);
 234:D:/fchai/work/i-cube/I-CUBE-HUAWEI/Middlewares/Third_Party/Huawei/iot_link/os/liteos/base/mem/common\los_slabmem.c **** 
 235:D:/fchai/work/i-cube/I-CUBE-HUAWEI/Middlewares/Third_Party/Huawei/iot_link/os/liteos/base/mem/common\los_slabmem.c ****     if ((!OS_ALLOC_FROM_SLAB_CHECK(pstSlabNode))
ARM GAS  T:\msys\tmp\ccvH13VP.s 			page 18


 613              		.loc 1 235 8 view .LVU204
 614 000a 35F8042C 		ldrh	r2, [r5, #-4]
 615 000e 4DF6DE63 		movw	r3, #57054
 616              	.LVL61:
 230:D:/fchai/work/i-cube/I-CUBE-HUAWEI/Middlewares/Third_Party/Huawei/iot_link/os/liteos/base/mem/common\los_slabmem.c ****     UINT32 uwRetBlkSz = (UINT32)-1;
 617              		.loc 1 230 5 is_stmt 1 view .LVU205
 231:D:/fchai/work/i-cube/I-CUBE-HUAWEI/Middlewares/Third_Party/Huawei/iot_link/os/liteos/base/mem/common\los_slabmem.c ****     UINT32 uwIdx = 0;
 618              		.loc 1 231 5 view .LVU206
 232:D:/fchai/work/i-cube/I-CUBE-HUAWEI/Middlewares/Third_Party/Huawei/iot_link/os/liteos/base/mem/common\los_slabmem.c ****     OS_SLAB_BLOCK_NODE *pstSlabNode = OS_SLAB_BLOCK_HEAD_GET(pPtr);
 619              		.loc 1 232 5 view .LVU207
 233:D:/fchai/work/i-cube/I-CUBE-HUAWEI/Middlewares/Third_Party/Huawei/iot_link/os/liteos/base/mem/common\los_slabmem.c **** 
 620              		.loc 1 233 5 view .LVU208
 621              		.loc 1 235 5 view .LVU209
 622              		.loc 1 235 8 is_stmt 0 view .LVU210
 623 0012 9A42     		cmp	r2, r3
 624 0014 1DD1     		bne	.L55
 236:D:/fchai/work/i-cube/I-CUBE-HUAWEI/Middlewares/Third_Party/Huawei/iot_link/os/liteos/base/mem/common\los_slabmem.c ****         || (OS_SLAB_BLOCK_SIZE_GET(pstSlabNode) > pstSlabMem->stSlabClass[SLAB_MEM_COUNT - 1].blkSz
 625              		.loc 1 236 13 view .LVU211
 626 0016 15F8022C 		ldrb	r2, [r5, #-2]	@ zero_extendqisi2
 627              		.loc 1 236 9 view .LVU212
 628 001a 036B     		ldr	r3, [r0, #48]
 629 001c 9A42     		cmp	r2, r3
 630 001e 18D8     		bhi	.L55
 631 0020 0446     		mov	r4, r0
 237:D:/fchai/work/i-cube/I-CUBE-HUAWEI/Middlewares/Third_Party/Huawei/iot_link/os/liteos/base/mem/common\los_slabmem.c ****     {
 238:D:/fchai/work/i-cube/I-CUBE-HUAWEI/Middlewares/Third_Party/Huawei/iot_link/os/liteos/base/mem/common\los_slabmem.c ****         return uwRetBlkSz;
 239:D:/fchai/work/i-cube/I-CUBE-HUAWEI/Middlewares/Third_Party/Huawei/iot_link/os/liteos/base/mem/common\los_slabmem.c ****     }
 240:D:/fchai/work/i-cube/I-CUBE-HUAWEI/Middlewares/Third_Party/Huawei/iot_link/os/liteos/base/mem/common\los_slabmem.c **** 
 241:D:/fchai/work/i-cube/I-CUBE-HUAWEI/Middlewares/Third_Party/Huawei/iot_link/os/liteos/base/mem/common\los_slabmem.c ****     uvIntSave = LOS_IntLock();
 632              		.loc 1 241 17 view .LVU213
 633 0022 FFF7FEFF 		bl	LOS_IntLock
 634              	.LVL62:
 233:D:/fchai/work/i-cube/I-CUBE-HUAWEI/Middlewares/Third_Party/Huawei/iot_link/os/liteos/base/mem/common\los_slabmem.c **** 
 635              		.loc 1 233 25 view .LVU214
 636 0026 043D     		subs	r5, r5, #4
 637              	.LVL63:
 638              		.loc 1 241 5 is_stmt 1 view .LVU215
 639              		.loc 1 241 17 is_stmt 0 view .LVU216
 640 0028 8046     		mov	r8, r0
 641              	.LVL64:
 242:D:/fchai/work/i-cube/I-CUBE-HUAWEI/Middlewares/Third_Party/Huawei/iot_link/os/liteos/base/mem/common\los_slabmem.c ****     for (uwIdx = 0; uwIdx < SLAB_MEM_COUNT; uwIdx++)
 642              		.loc 1 242 5 is_stmt 1 view .LVU217
 643              		.loc 1 242 21 view .LVU218
 644 002a 04F14007 		add	r7, r4, #64
 230:D:/fchai/work/i-cube/I-CUBE-HUAWEI/Middlewares/Third_Party/Huawei/iot_link/os/liteos/base/mem/common\los_slabmem.c ****     OS_SLAB_MEM *pstSlabAlloc;
 645              		.loc 1 230 12 is_stmt 0 view .LVU219
 646 002e 4FF0FF36 		mov	r6, #-1
 647              	.LVL65:
 648              	.L53:
 243:D:/fchai/work/i-cube/I-CUBE-HUAWEI/Middlewares/Third_Party/Huawei/iot_link/os/liteos/base/mem/common\los_slabmem.c ****     {
 244:D:/fchai/work/i-cube/I-CUBE-HUAWEI/Middlewares/Third_Party/Huawei/iot_link/os/liteos/base/mem/common\los_slabmem.c ****         pstSlabAlloc = &(pstSlabMem->stSlabClass[uwIdx]);
 649              		.loc 1 244 9 is_stmt 1 view .LVU220
 245:D:/fchai/work/i-cube/I-CUBE-HUAWEI/Middlewares/Third_Party/Huawei/iot_link/os/liteos/base/mem/common\los_slabmem.c ****         if (osSlabAllocatorCheck(pstSlabAlloc->alloc, pstSlabNode) == TRUE)
 650              		.loc 1 245 9 view .LVU221
 651              		.loc 1 245 13 is_stmt 0 view .LVU222
 652 0032 E068     		ldr	r0, [r4, #12]
 653 0034 2946     		mov	r1, r5
ARM GAS  T:\msys\tmp\ccvH13VP.s 			page 19


 654 0036 FFF7FEFF 		bl	osSlabAllocatorCheck
 655              	.LVL66:
 242:D:/fchai/work/i-cube/I-CUBE-HUAWEI/Middlewares/Third_Party/Huawei/iot_link/os/liteos/base/mem/common\los_slabmem.c ****     {
 656              		.loc 1 242 45 is_stmt 1 view .LVU223
 242:D:/fchai/work/i-cube/I-CUBE-HUAWEI/Middlewares/Third_Party/Huawei/iot_link/os/liteos/base/mem/common\los_slabmem.c ****     {
 657              		.loc 1 242 21 view .LVU224
 658              		.loc 1 245 12 is_stmt 0 view .LVU225
 659 003a 0128     		cmp	r0, #1
 246:D:/fchai/work/i-cube/I-CUBE-HUAWEI/Middlewares/Third_Party/Huawei/iot_link/os/liteos/base/mem/common\los_slabmem.c ****         {
 247:D:/fchai/work/i-cube/I-CUBE-HUAWEI/Middlewares/Third_Party/Huawei/iot_link/os/liteos/base/mem/common\los_slabmem.c ****             uwRetBlkSz = pstSlabMem->stSlabClass[uwIdx].blkSz;
 660              		.loc 1 247 13 is_stmt 1 view .LVU226
 661              		.loc 1 247 24 is_stmt 0 view .LVU227
 662 003c 08BF     		it	eq
 663 003e 2668     		ldreq	r6, [r4]
 664              	.LVL67:
 665              		.loc 1 247 24 view .LVU228
 666 0040 1034     		adds	r4, r4, #16
 242:D:/fchai/work/i-cube/I-CUBE-HUAWEI/Middlewares/Third_Party/Huawei/iot_link/os/liteos/base/mem/common\los_slabmem.c ****     {
 667              		.loc 1 242 5 view .LVU229
 668 0042 A742     		cmp	r7, r4
 669 0044 F5D1     		bne	.L53
 248:D:/fchai/work/i-cube/I-CUBE-HUAWEI/Middlewares/Third_Party/Huawei/iot_link/os/liteos/base/mem/common\los_slabmem.c ****         }
 249:D:/fchai/work/i-cube/I-CUBE-HUAWEI/Middlewares/Third_Party/Huawei/iot_link/os/liteos/base/mem/common\los_slabmem.c ****     }
 250:D:/fchai/work/i-cube/I-CUBE-HUAWEI/Middlewares/Third_Party/Huawei/iot_link/os/liteos/base/mem/common\los_slabmem.c ****     (VOID)LOS_IntRestore(uvIntSave);
 670              		.loc 1 250 5 is_stmt 1 view .LVU230
 671 0046 4046     		mov	r0, r8
 672 0048 FFF7FEFF 		bl	LOS_IntRestore
 673              	.LVL68:
 251:D:/fchai/work/i-cube/I-CUBE-HUAWEI/Middlewares/Third_Party/Huawei/iot_link/os/liteos/base/mem/common\los_slabmem.c **** 
 252:D:/fchai/work/i-cube/I-CUBE-HUAWEI/Middlewares/Third_Party/Huawei/iot_link/os/liteos/base/mem/common\los_slabmem.c ****     return uwRetBlkSz;
 674              		.loc 1 252 5 view .LVU231
 253:D:/fchai/work/i-cube/I-CUBE-HUAWEI/Middlewares/Third_Party/Huawei/iot_link/os/liteos/base/mem/common\los_slabmem.c **** }
 675              		.loc 1 253 1 is_stmt 0 view .LVU232
 676 004c 3046     		mov	r0, r6
 677 004e BDE8F081 		pop	{r4, r5, r6, r7, r8, pc}
 678              	.LVL69:
 679              	.L55:
 238:D:/fchai/work/i-cube/I-CUBE-HUAWEI/Middlewares/Third_Party/Huawei/iot_link/os/liteos/base/mem/common\los_slabmem.c ****     }
 680              		.loc 1 238 16 view .LVU233
 681 0052 4FF0FF36 		mov	r6, #-1
 682              		.loc 1 253 1 view .LVU234
 683 0056 3046     		mov	r0, r6
 684              	.LVL70:
 685              		.loc 1 253 1 view .LVU235
 686 0058 BDE8F081 		pop	{r4, r5, r6, r7, r8, pc}
 687              		.loc 1 253 1 view .LVU236
 688              		.cfi_endproc
 689              	.LFE138:
 691              		.section	.text.osSlabStatisticsGet,"ax",%progbits
 692              		.align	1
 693              		.p2align 2,,3
 694              		.global	osSlabStatisticsGet
 695              		.syntax unified
 696              		.thumb
 697              		.thumb_func
 698              		.fpu fpv4-sp-d16
 700              	osSlabStatisticsGet:
ARM GAS  T:\msys\tmp\ccvH13VP.s 			page 20


 701              	.LVL71:
 702              	.LFB139:
 254:D:/fchai/work/i-cube/I-CUBE-HUAWEI/Middlewares/Third_Party/Huawei/iot_link/os/liteos/base/mem/common\los_slabmem.c **** 
 255:D:/fchai/work/i-cube/I-CUBE-HUAWEI/Middlewares/Third_Party/Huawei/iot_link/os/liteos/base/mem/common\los_slabmem.c **** UINT32 osSlabStatisticsGet(VOID *pPool, LOS_SLAB_STATUS *pstStatus)
 256:D:/fchai/work/i-cube/I-CUBE-HUAWEI/Middlewares/Third_Party/Huawei/iot_link/os/liteos/base/mem/common\los_slabmem.c **** {
 703              		.loc 1 256 1 is_stmt 1 view -0
 704              		.cfi_startproc
 705              		@ args = 0, pretend = 0, frame = 16
 706              		@ frame_needed = 0, uses_anonymous_args = 0
 257:D:/fchai/work/i-cube/I-CUBE-HUAWEI/Middlewares/Third_Party/Huawei/iot_link/os/liteos/base/mem/common\los_slabmem.c ****     struct LOS_SLAB_CONTROL_HEADER *pstSlabMem = NULL;
 707              		.loc 1 257 5 view .LVU238
 258:D:/fchai/work/i-cube/I-CUBE-HUAWEI/Middlewares/Third_Party/Huawei/iot_link/os/liteos/base/mem/common\los_slabmem.c ****     OS_SLAB_MEM *pstSlabAlloc;
 708              		.loc 1 258 5 view .LVU239
 259:D:/fchai/work/i-cube/I-CUBE-HUAWEI/Middlewares/Third_Party/Huawei/iot_link/os/liteos/base/mem/common\los_slabmem.c ****     UINT32 uwItemSz = 0;
 709              		.loc 1 259 5 view .LVU240
 256:D:/fchai/work/i-cube/I-CUBE-HUAWEI/Middlewares/Third_Party/Huawei/iot_link/os/liteos/base/mem/common\los_slabmem.c ****     struct LOS_SLAB_CONTROL_HEADER *pstSlabMem = NULL;
 710              		.loc 1 256 1 is_stmt 0 view .LVU241
 711 0000 2DE9F047 		push	{r4, r5, r6, r7, r8, r9, r10, lr}
 712              	.LCFI6:
 713              		.cfi_def_cfa_offset 32
 714              		.cfi_offset 4, -32
 715              		.cfi_offset 5, -28
 716              		.cfi_offset 6, -24
 717              		.cfi_offset 7, -20
 718              		.cfi_offset 8, -16
 719              		.cfi_offset 9, -12
 720              		.cfi_offset 10, -8
 721              		.cfi_offset 14, -4
 722 0004 84B0     		sub	sp, sp, #16
 723              	.LCFI7:
 724              		.cfi_def_cfa_offset 48
 725              		.loc 1 259 12 view .LVU242
 726 0006 0025     		movs	r5, #0
 260:D:/fchai/work/i-cube/I-CUBE-HUAWEI/Middlewares/Third_Party/Huawei/iot_link/os/liteos/base/mem/common\los_slabmem.c ****     UINT32 uwItemCnt = 0;
 727              		.loc 1 260 12 view .LVU243
 728 0008 CDE90155 		strd	r5, r5, [sp, #4]
 261:D:/fchai/work/i-cube/I-CUBE-HUAWEI/Middlewares/Third_Party/Huawei/iot_link/os/liteos/base/mem/common\los_slabmem.c ****     UINT32 uwCurUsage = 0;
 729              		.loc 1 261 5 is_stmt 1 view .LVU244
 730              		.loc 1 261 12 is_stmt 0 view .LVU245
 731 000c 0395     		str	r5, [sp, #12]
 262:D:/fchai/work/i-cube/I-CUBE-HUAWEI/Middlewares/Third_Party/Huawei/iot_link/os/liteos/base/mem/common\los_slabmem.c ****     UINT32 uwTotalUsage = 0;
 732              		.loc 1 262 5 is_stmt 1 view .LVU246
 733              	.LVL72:
 263:D:/fchai/work/i-cube/I-CUBE-HUAWEI/Middlewares/Third_Party/Huawei/iot_link/os/liteos/base/mem/common\los_slabmem.c ****     UINT32 uwTotalMem = 0;
 734              		.loc 1 263 5 view .LVU247
 264:D:/fchai/work/i-cube/I-CUBE-HUAWEI/Middlewares/Third_Party/Huawei/iot_link/os/liteos/base/mem/common\los_slabmem.c ****     UINT32 uwTotalallocCount = 0;
 735              		.loc 1 264 5 view .LVU248
 265:D:/fchai/work/i-cube/I-CUBE-HUAWEI/Middlewares/Third_Party/Huawei/iot_link/os/liteos/base/mem/common\los_slabmem.c ****     UINT32 uwTotalfreeCount = 0;
 736              		.loc 1 265 5 view .LVU249
 266:D:/fchai/work/i-cube/I-CUBE-HUAWEI/Middlewares/Third_Party/Huawei/iot_link/os/liteos/base/mem/common\los_slabmem.c ****     UINT32 uwIdx = 0;
 737              		.loc 1 266 5 view .LVU250
 267:D:/fchai/work/i-cube/I-CUBE-HUAWEI/Middlewares/Third_Party/Huawei/iot_link/os/liteos/base/mem/common\los_slabmem.c **** 
 268:D:/fchai/work/i-cube/I-CUBE-HUAWEI/Middlewares/Third_Party/Huawei/iot_link/os/liteos/base/mem/common\los_slabmem.c ****     if ((NULL == pstStatus) || (NULL == pPool))
 738              		.loc 1 268 5 view .LVU251
 739              		.loc 1 268 8 is_stmt 0 view .LVU252
 740 000e 59B3     		cbz	r1, .L61
 741              		.loc 1 268 29 discriminator 1 view .LVU253
ARM GAS  T:\msys\tmp\ccvH13VP.s 			page 21


 742 0010 50B3     		cbz	r0, .L61
 743 0012 8846     		mov	r8, r1
 269:D:/fchai/work/i-cube/I-CUBE-HUAWEI/Middlewares/Third_Party/Huawei/iot_link/os/liteos/base/mem/common\los_slabmem.c ****     {
 270:D:/fchai/work/i-cube/I-CUBE-HUAWEI/Middlewares/Third_Party/Huawei/iot_link/os/liteos/base/mem/common\los_slabmem.c ****         return LOS_NOK;
 271:D:/fchai/work/i-cube/I-CUBE-HUAWEI/Middlewares/Third_Party/Huawei/iot_link/os/liteos/base/mem/common\los_slabmem.c ****     }
 272:D:/fchai/work/i-cube/I-CUBE-HUAWEI/Middlewares/Third_Party/Huawei/iot_link/os/liteos/base/mem/common\los_slabmem.c ****     pstSlabMem = osSlabCtrlHdrGet(pPool);
 744              		.loc 1 272 5 is_stmt 1 view .LVU254
 745              		.loc 1 272 18 is_stmt 0 view .LVU255
 746 0014 FFF7FEFF 		bl	osSlabCtrlHdrGet
 747              	.LVL73:
 264:D:/fchai/work/i-cube/I-CUBE-HUAWEI/Middlewares/Third_Party/Huawei/iot_link/os/liteos/base/mem/common\los_slabmem.c ****     UINT32 uwTotalfreeCount = 0;
 748              		.loc 1 264 12 view .LVU256
 749 0018 A946     		mov	r9, r5
 750              		.loc 1 272 18 view .LVU257
 751 001a 0446     		mov	r4, r0
 752              	.LVL74:
 273:D:/fchai/work/i-cube/I-CUBE-HUAWEI/Middlewares/Third_Party/Huawei/iot_link/os/liteos/base/mem/common\los_slabmem.c **** 
 274:D:/fchai/work/i-cube/I-CUBE-HUAWEI/Middlewares/Third_Party/Huawei/iot_link/os/liteos/base/mem/common\los_slabmem.c ****     for (uwIdx = 0; uwIdx < SLAB_MEM_COUNT; uwIdx++)
 753              		.loc 1 274 5 is_stmt 1 view .LVU258
 754              		.loc 1 274 21 view .LVU259
 755 001c 00F1400A 		add	r10, r0, #64
 263:D:/fchai/work/i-cube/I-CUBE-HUAWEI/Middlewares/Third_Party/Huawei/iot_link/os/liteos/base/mem/common\los_slabmem.c ****     UINT32 uwTotalallocCount = 0;
 756              		.loc 1 263 12 is_stmt 0 view .LVU260
 757 0020 2F46     		mov	r7, r5
 262:D:/fchai/work/i-cube/I-CUBE-HUAWEI/Middlewares/Third_Party/Huawei/iot_link/os/liteos/base/mem/common\los_slabmem.c ****     UINT32 uwTotalMem = 0;
 758              		.loc 1 262 12 view .LVU261
 759 0022 2E46     		mov	r6, r5
 760              	.LVL75:
 761              	.L62:
 275:D:/fchai/work/i-cube/I-CUBE-HUAWEI/Middlewares/Third_Party/Huawei/iot_link/os/liteos/base/mem/common\los_slabmem.c ****     {
 276:D:/fchai/work/i-cube/I-CUBE-HUAWEI/Middlewares/Third_Party/Huawei/iot_link/os/liteos/base/mem/common\los_slabmem.c ****         pstSlabAlloc = &(pstSlabMem->stSlabClass[uwIdx]);
 762              		.loc 1 276 9 is_stmt 1 discriminator 3 view .LVU262
 277:D:/fchai/work/i-cube/I-CUBE-HUAWEI/Middlewares/Third_Party/Huawei/iot_link/os/liteos/base/mem/common\los_slabmem.c **** 
 278:D:/fchai/work/i-cube/I-CUBE-HUAWEI/Middlewares/Third_Party/Huawei/iot_link/os/liteos/base/mem/common\los_slabmem.c ****         osSlabAllocatorGetSlabInfo(pstSlabAlloc->alloc, &uwItemSz, &uwItemCnt, &uwCurUsage);
 763              		.loc 1 278 9 discriminator 3 view .LVU263
 764 0024 E068     		ldr	r0, [r4, #12]
 765 0026 03AB     		add	r3, sp, #12
 766 0028 02AA     		add	r2, sp, #8
 767 002a 01A9     		add	r1, sp, #4
 768 002c FFF7FEFF 		bl	osSlabAllocatorGetSlabInfo
 769              	.LVL76:
 279:D:/fchai/work/i-cube/I-CUBE-HUAWEI/Middlewares/Third_Party/Huawei/iot_link/os/liteos/base/mem/common\los_slabmem.c ****         uwTotalUsage += (uwCurUsage * uwItemSz);
 770              		.loc 1 279 9 discriminator 3 view .LVU264
 280:D:/fchai/work/i-cube/I-CUBE-HUAWEI/Middlewares/Third_Party/Huawei/iot_link/os/liteos/base/mem/common\los_slabmem.c ****         uwTotalMem += (uwItemCnt * uwItemSz);
 281:D:/fchai/work/i-cube/I-CUBE-HUAWEI/Middlewares/Third_Party/Huawei/iot_link/os/liteos/base/mem/common\los_slabmem.c ****         uwTotalallocCount += pstSlabMem->stSlabClass[uwIdx].blkUsedCnt;
 282:D:/fchai/work/i-cube/I-CUBE-HUAWEI/Middlewares/Third_Party/Huawei/iot_link/os/liteos/base/mem/common\los_slabmem.c ****         uwTotalfreeCount  += pstSlabMem->stSlabClass[uwIdx].blkCnt - pstSlabMem->stSlabClass[uwIdx]
 771              		.loc 1 282 68 is_stmt 0 discriminator 3 view .LVU265
 772 0030 D4E90132 		ldrd	r3, r2, [r4, #4]
 773 0034 9B1A     		subs	r3, r3, r2
 279:D:/fchai/work/i-cube/I-CUBE-HUAWEI/Middlewares/Third_Party/Huawei/iot_link/os/liteos/base/mem/common\los_slabmem.c ****         uwTotalUsage += (uwCurUsage * uwItemSz);
 774              		.loc 1 279 37 discriminator 3 view .LVU266
 775 0036 0198     		ldr	r0, [sp, #4]
 776 0038 0399     		ldr	r1, [sp, #12]
 777 003a 1034     		adds	r4, r4, #16
 778              		.loc 1 282 27 discriminator 3 view .LVU267
 779 003c 1D44     		add	r5, r5, r3
 780              	.LVL77:
ARM GAS  T:\msys\tmp\ccvH13VP.s 			page 22


 280:D:/fchai/work/i-cube/I-CUBE-HUAWEI/Middlewares/Third_Party/Huawei/iot_link/os/liteos/base/mem/common\los_slabmem.c ****         uwTotalMem += (uwItemCnt * uwItemSz);
 781              		.loc 1 280 20 discriminator 3 view .LVU268
 782 003e 029B     		ldr	r3, [sp, #8]
 274:D:/fchai/work/i-cube/I-CUBE-HUAWEI/Middlewares/Third_Party/Huawei/iot_link/os/liteos/base/mem/common\los_slabmem.c ****     {
 783              		.loc 1 274 5 discriminator 3 view .LVU269
 784 0040 5445     		cmp	r4, r10
 281:D:/fchai/work/i-cube/I-CUBE-HUAWEI/Middlewares/Third_Party/Huawei/iot_link/os/liteos/base/mem/common\los_slabmem.c ****         uwTotalfreeCount  += pstSlabMem->stSlabClass[uwIdx].blkCnt - pstSlabMem->stSlabClass[uwIdx]
 785              		.loc 1 281 27 discriminator 3 view .LVU270
 786 0042 9144     		add	r9, r9, r2
 787              	.LVL78:
 279:D:/fchai/work/i-cube/I-CUBE-HUAWEI/Middlewares/Third_Party/Huawei/iot_link/os/liteos/base/mem/common\los_slabmem.c ****         uwTotalMem += (uwItemCnt * uwItemSz);
 788              		.loc 1 279 22 discriminator 3 view .LVU271
 789 0044 01FB0066 		mla	r6, r1, r0, r6
 790              	.LVL79:
 280:D:/fchai/work/i-cube/I-CUBE-HUAWEI/Middlewares/Third_Party/Huawei/iot_link/os/liteos/base/mem/common\los_slabmem.c ****         uwTotalallocCount += pstSlabMem->stSlabClass[uwIdx].blkUsedCnt;
 791              		.loc 1 280 9 is_stmt 1 discriminator 3 view .LVU272
 280:D:/fchai/work/i-cube/I-CUBE-HUAWEI/Middlewares/Third_Party/Huawei/iot_link/os/liteos/base/mem/common\los_slabmem.c ****         uwTotalallocCount += pstSlabMem->stSlabClass[uwIdx].blkUsedCnt;
 792              		.loc 1 280 20 is_stmt 0 discriminator 3 view .LVU273
 793 0048 03FB0077 		mla	r7, r3, r0, r7
 794              	.LVL80:
 281:D:/fchai/work/i-cube/I-CUBE-HUAWEI/Middlewares/Third_Party/Huawei/iot_link/os/liteos/base/mem/common\los_slabmem.c ****         uwTotalfreeCount  += pstSlabMem->stSlabClass[uwIdx].blkCnt - pstSlabMem->stSlabClass[uwIdx]
 795              		.loc 1 281 9 is_stmt 1 discriminator 3 view .LVU274
 796              		.loc 1 282 9 discriminator 3 view .LVU275
 274:D:/fchai/work/i-cube/I-CUBE-HUAWEI/Middlewares/Third_Party/Huawei/iot_link/os/liteos/base/mem/common\los_slabmem.c ****     {
 797              		.loc 1 274 45 discriminator 3 view .LVU276
 274:D:/fchai/work/i-cube/I-CUBE-HUAWEI/Middlewares/Third_Party/Huawei/iot_link/os/liteos/base/mem/common\los_slabmem.c ****     {
 798              		.loc 1 274 21 discriminator 3 view .LVU277
 274:D:/fchai/work/i-cube/I-CUBE-HUAWEI/Middlewares/Third_Party/Huawei/iot_link/os/liteos/base/mem/common\los_slabmem.c ****     {
 799              		.loc 1 274 5 is_stmt 0 discriminator 3 view .LVU278
 800 004c EAD1     		bne	.L62
 283:D:/fchai/work/i-cube/I-CUBE-HUAWEI/Middlewares/Third_Party/Huawei/iot_link/os/liteos/base/mem/common\los_slabmem.c ****     }
 284:D:/fchai/work/i-cube/I-CUBE-HUAWEI/Middlewares/Third_Party/Huawei/iot_link/os/liteos/base/mem/common\los_slabmem.c **** 
 285:D:/fchai/work/i-cube/I-CUBE-HUAWEI/Middlewares/Third_Party/Huawei/iot_link/os/liteos/base/mem/common\los_slabmem.c ****     if (uwTotalMem < uwTotalUsage)
 801              		.loc 1 285 5 is_stmt 1 view .LVU279
 802              		.loc 1 285 8 is_stmt 0 view .LVU280
 803 004e BE42     		cmp	r6, r7
 804 0050 0AD8     		bhi	.L61
 286:D:/fchai/work/i-cube/I-CUBE-HUAWEI/Middlewares/Third_Party/Huawei/iot_link/os/liteos/base/mem/common\los_slabmem.c ****     {
 287:D:/fchai/work/i-cube/I-CUBE-HUAWEI/Middlewares/Third_Party/Huawei/iot_link/os/liteos/base/mem/common\los_slabmem.c ****         return LOS_NOK;
 288:D:/fchai/work/i-cube/I-CUBE-HUAWEI/Middlewares/Third_Party/Huawei/iot_link/os/liteos/base/mem/common\los_slabmem.c ****     }
 289:D:/fchai/work/i-cube/I-CUBE-HUAWEI/Middlewares/Third_Party/Huawei/iot_link/os/liteos/base/mem/common\los_slabmem.c **** 
 290:D:/fchai/work/i-cube/I-CUBE-HUAWEI/Middlewares/Third_Party/Huawei/iot_link/os/liteos/base/mem/common\los_slabmem.c ****     pstStatus->totalSize  = uwTotalMem;
 805              		.loc 1 290 5 is_stmt 1 view .LVU281
 291:D:/fchai/work/i-cube/I-CUBE-HUAWEI/Middlewares/Third_Party/Huawei/iot_link/os/liteos/base/mem/common\los_slabmem.c ****     pstStatus->usedSize   = uwTotalUsage;
 292:D:/fchai/work/i-cube/I-CUBE-HUAWEI/Middlewares/Third_Party/Huawei/iot_link/os/liteos/base/mem/common\los_slabmem.c ****     pstStatus->freeSize   = pstStatus->totalSize - pstStatus->usedSize;
 806              		.loc 1 292 50 is_stmt 0 view .LVU282
 807 0052 BB1B     		subs	r3, r7, r6
 293:D:/fchai/work/i-cube/I-CUBE-HUAWEI/Middlewares/Third_Party/Huawei/iot_link/os/liteos/base/mem/common\los_slabmem.c ****     pstStatus->allocCount = uwTotalallocCount;
 294:D:/fchai/work/i-cube/I-CUBE-HUAWEI/Middlewares/Third_Party/Huawei/iot_link/os/liteos/base/mem/common\los_slabmem.c ****     pstStatus->freeCount  = uwTotalfreeCount;
 295:D:/fchai/work/i-cube/I-CUBE-HUAWEI/Middlewares/Third_Party/Huawei/iot_link/os/liteos/base/mem/common\los_slabmem.c ****     return LOS_OK;
 808              		.loc 1 295 12 view .LVU283
 809 0054 0020     		movs	r0, #0
 291:D:/fchai/work/i-cube/I-CUBE-HUAWEI/Middlewares/Third_Party/Huawei/iot_link/os/liteos/base/mem/common\los_slabmem.c ****     pstStatus->usedSize   = uwTotalUsage;
 810              		.loc 1 291 27 view .LVU284
 811 0056 C8E90163 		strd	r6, r3, [r8, #4]
 294:D:/fchai/work/i-cube/I-CUBE-HUAWEI/Middlewares/Third_Party/Huawei/iot_link/os/liteos/base/mem/common\los_slabmem.c ****     return LOS_OK;
 812              		.loc 1 294 27 view .LVU285
ARM GAS  T:\msys\tmp\ccvH13VP.s 			page 23


 813 005a C8E90395 		strd	r9, r5, [r8, #12]
 290:D:/fchai/work/i-cube/I-CUBE-HUAWEI/Middlewares/Third_Party/Huawei/iot_link/os/liteos/base/mem/common\los_slabmem.c ****     pstStatus->usedSize   = uwTotalUsage;
 814              		.loc 1 290 27 view .LVU286
 815 005e C8F80070 		str	r7, [r8]
 291:D:/fchai/work/i-cube/I-CUBE-HUAWEI/Middlewares/Third_Party/Huawei/iot_link/os/liteos/base/mem/common\los_slabmem.c ****     pstStatus->freeSize   = pstStatus->totalSize - pstStatus->usedSize;
 816              		.loc 1 291 5 is_stmt 1 view .LVU287
 292:D:/fchai/work/i-cube/I-CUBE-HUAWEI/Middlewares/Third_Party/Huawei/iot_link/os/liteos/base/mem/common\los_slabmem.c ****     pstStatus->allocCount = uwTotalallocCount;
 817              		.loc 1 292 5 view .LVU288
 293:D:/fchai/work/i-cube/I-CUBE-HUAWEI/Middlewares/Third_Party/Huawei/iot_link/os/liteos/base/mem/common\los_slabmem.c ****     pstStatus->freeCount  = uwTotalfreeCount;
 818              		.loc 1 293 5 view .LVU289
 819              		.loc 1 295 5 view .LVU290
 296:D:/fchai/work/i-cube/I-CUBE-HUAWEI/Middlewares/Third_Party/Huawei/iot_link/os/liteos/base/mem/common\los_slabmem.c **** }
 820              		.loc 1 296 1 is_stmt 0 view .LVU291
 821 0062 04B0     		add	sp, sp, #16
 822              	.LCFI8:
 823              		.cfi_remember_state
 824              		.cfi_def_cfa_offset 32
 825              		@ sp needed
 826 0064 BDE8F087 		pop	{r4, r5, r6, r7, r8, r9, r10, pc}
 827              	.LVL81:
 828              	.L61:
 829              	.LCFI9:
 830              		.cfi_restore_state
 270:D:/fchai/work/i-cube/I-CUBE-HUAWEI/Middlewares/Third_Party/Huawei/iot_link/os/liteos/base/mem/common\los_slabmem.c ****     }
 831              		.loc 1 270 16 view .LVU292
 832 0068 0120     		movs	r0, #1
 833              		.loc 1 296 1 view .LVU293
 834 006a 04B0     		add	sp, sp, #16
 835              	.LCFI10:
 836              		.cfi_def_cfa_offset 32
 837              		@ sp needed
 838 006c BDE8F087 		pop	{r4, r5, r6, r7, r8, r9, r10, pc}
 839              		.cfi_endproc
 840              	.LFE139:
 842              		.section	.text.osSlabGetMaxFreeBlkSize,"ax",%progbits
 843              		.align	1
 844              		.p2align 2,,3
 845              		.global	osSlabGetMaxFreeBlkSize
 846              		.syntax unified
 847              		.thumb
 848              		.thumb_func
 849              		.fpu fpv4-sp-d16
 851              	osSlabGetMaxFreeBlkSize:
 852              	.LVL82:
 853              	.LFB140:
 297:D:/fchai/work/i-cube/I-CUBE-HUAWEI/Middlewares/Third_Party/Huawei/iot_link/os/liteos/base/mem/common\los_slabmem.c **** 
 298:D:/fchai/work/i-cube/I-CUBE-HUAWEI/Middlewares/Third_Party/Huawei/iot_link/os/liteos/base/mem/common\los_slabmem.c **** UINT32 osSlabGetMaxFreeBlkSize(VOID *pPool)
 299:D:/fchai/work/i-cube/I-CUBE-HUAWEI/Middlewares/Third_Party/Huawei/iot_link/os/liteos/base/mem/common\los_slabmem.c **** {
 854              		.loc 1 299 1 is_stmt 1 view -0
 855              		.cfi_startproc
 856              		@ args = 0, pretend = 0, frame = 16
 857              		@ frame_needed = 0, uses_anonymous_args = 0
 300:D:/fchai/work/i-cube/I-CUBE-HUAWEI/Middlewares/Third_Party/Huawei/iot_link/os/liteos/base/mem/common\los_slabmem.c ****     struct LOS_SLAB_CONTROL_HEADER *pstSlabMem = osSlabCtrlHdrGet(pPool);
 858              		.loc 1 300 5 view .LVU295
 299:D:/fchai/work/i-cube/I-CUBE-HUAWEI/Middlewares/Third_Party/Huawei/iot_link/os/liteos/base/mem/common\los_slabmem.c ****     struct LOS_SLAB_CONTROL_HEADER *pstSlabMem = osSlabCtrlHdrGet(pPool);
 859              		.loc 1 299 1 is_stmt 0 view .LVU296
 860 0000 30B5     		push	{r4, r5, lr}
ARM GAS  T:\msys\tmp\ccvH13VP.s 			page 24


 861              	.LCFI11:
 862              		.cfi_def_cfa_offset 12
 863              		.cfi_offset 4, -12
 864              		.cfi_offset 5, -8
 865              		.cfi_offset 14, -4
 866 0002 85B0     		sub	sp, sp, #20
 867              	.LCFI12:
 868              		.cfi_def_cfa_offset 32
 869              		.loc 1 300 50 view .LVU297
 870 0004 FFF7FEFF 		bl	osSlabCtrlHdrGet
 871              	.LVL83:
 301:D:/fchai/work/i-cube/I-CUBE-HUAWEI/Middlewares/Third_Party/Huawei/iot_link/os/liteos/base/mem/common\los_slabmem.c ****     OS_SLAB_MEM *pstSlabAlloc;
 872              		.loc 1 301 5 is_stmt 1 view .LVU298
 302:D:/fchai/work/i-cube/I-CUBE-HUAWEI/Middlewares/Third_Party/Huawei/iot_link/os/liteos/base/mem/common\los_slabmem.c ****     UINT32 uwItemSz = 0;
 873              		.loc 1 302 5 view .LVU299
 874              		.loc 1 302 12 is_stmt 0 view .LVU300
 875 0008 0023     		movs	r3, #0
 303:D:/fchai/work/i-cube/I-CUBE-HUAWEI/Middlewares/Third_Party/Huawei/iot_link/os/liteos/base/mem/common\los_slabmem.c ****     UINT32 uwItemCnt = 0;
 876              		.loc 1 303 12 view .LVU301
 877 000a CDE90133 		strd	r3, r3, [sp, #4]
 304:D:/fchai/work/i-cube/I-CUBE-HUAWEI/Middlewares/Third_Party/Huawei/iot_link/os/liteos/base/mem/common\los_slabmem.c ****     UINT32 uwCurUsage = 0;
 878              		.loc 1 304 5 is_stmt 1 view .LVU302
 879 000e 0446     		mov	r4, r0
 880 0010 A0F14005 		sub	r5, r0, #64
 881              		.loc 1 304 12 is_stmt 0 view .LVU303
 882 0014 0393     		str	r3, [sp, #12]
 305:D:/fchai/work/i-cube/I-CUBE-HUAWEI/Middlewares/Third_Party/Huawei/iot_link/os/liteos/base/mem/common\los_slabmem.c ****     int uwIdx = 0;
 883              		.loc 1 305 5 is_stmt 1 view .LVU304
 884              	.LVL84:
 306:D:/fchai/work/i-cube/I-CUBE-HUAWEI/Middlewares/Third_Party/Huawei/iot_link/os/liteos/base/mem/common\los_slabmem.c **** 
 307:D:/fchai/work/i-cube/I-CUBE-HUAWEI/Middlewares/Third_Party/Huawei/iot_link/os/liteos/base/mem/common\los_slabmem.c ****     for (uwIdx = SLAB_MEM_COUNT - 1; uwIdx >= 0; uwIdx--)
 885              		.loc 1 307 5 view .LVU305
 886              		.loc 1 307 38 view .LVU306
 887              	.L71:
 308:D:/fchai/work/i-cube/I-CUBE-HUAWEI/Middlewares/Third_Party/Huawei/iot_link/os/liteos/base/mem/common\los_slabmem.c ****     {
 309:D:/fchai/work/i-cube/I-CUBE-HUAWEI/Middlewares/Third_Party/Huawei/iot_link/os/liteos/base/mem/common\los_slabmem.c ****         pstSlabAlloc = &(pstSlabMem->stSlabClass[uwIdx]);
 888              		.loc 1 309 9 view .LVU307
 310:D:/fchai/work/i-cube/I-CUBE-HUAWEI/Middlewares/Third_Party/Huawei/iot_link/os/liteos/base/mem/common\los_slabmem.c ****         if (pstSlabAlloc->alloc)
 889              		.loc 1 310 9 view .LVU308
 311:D:/fchai/work/i-cube/I-CUBE-HUAWEI/Middlewares/Third_Party/Huawei/iot_link/os/liteos/base/mem/common\los_slabmem.c ****         {
 312:D:/fchai/work/i-cube/I-CUBE-HUAWEI/Middlewares/Third_Party/Huawei/iot_link/os/liteos/base/mem/common\los_slabmem.c ****             osSlabAllocatorGetSlabInfo(pstSlabAlloc->alloc, &uwItemSz, &uwItemCnt, &uwCurUsage);
 890              		.loc 1 312 13 view .LVU309
 310:D:/fchai/work/i-cube/I-CUBE-HUAWEI/Middlewares/Third_Party/Huawei/iot_link/os/liteos/base/mem/common\los_slabmem.c ****         if (pstSlabAlloc->alloc)
 891              		.loc 1 310 25 is_stmt 0 view .LVU310
 892 0016 E06B     		ldr	r0, [r4, #60]
 893              		.loc 1 312 13 view .LVU311
 894 0018 03AB     		add	r3, sp, #12
 895 001a 02AA     		add	r2, sp, #8
 896 001c 01A9     		add	r1, sp, #4
 897 001e 103C     		subs	r4, r4, #16
 310:D:/fchai/work/i-cube/I-CUBE-HUAWEI/Middlewares/Third_Party/Huawei/iot_link/os/liteos/base/mem/common\los_slabmem.c ****         if (pstSlabAlloc->alloc)
 898              		.loc 1 310 12 view .LVU312
 899 0020 28B1     		cbz	r0, .L69
 900              		.loc 1 312 13 view .LVU313
 901 0022 FFF7FEFF 		bl	osSlabAllocatorGetSlabInfo
 902              	.LVL85:
 313:D:/fchai/work/i-cube/I-CUBE-HUAWEI/Middlewares/Third_Party/Huawei/iot_link/os/liteos/base/mem/common\los_slabmem.c ****             if (uwCurUsage != uwItemCnt)
ARM GAS  T:\msys\tmp\ccvH13VP.s 			page 25


 903              		.loc 1 313 13 is_stmt 1 view .LVU314
 904              		.loc 1 313 16 is_stmt 0 view .LVU315
 905 0026 DDE90232 		ldrd	r3, r2, [sp, #8]
 906 002a 9A42     		cmp	r2, r3
 907 002c 04D1     		bne	.L77
 908              	.L69:
 307:D:/fchai/work/i-cube/I-CUBE-HUAWEI/Middlewares/Third_Party/Huawei/iot_link/os/liteos/base/mem/common\los_slabmem.c ****     {
 909              		.loc 1 307 50 is_stmt 1 view .LVU316
 307:D:/fchai/work/i-cube/I-CUBE-HUAWEI/Middlewares/Third_Party/Huawei/iot_link/os/liteos/base/mem/common\los_slabmem.c ****     {
 910              		.loc 1 307 38 view .LVU317
 307:D:/fchai/work/i-cube/I-CUBE-HUAWEI/Middlewares/Third_Party/Huawei/iot_link/os/liteos/base/mem/common\los_slabmem.c ****     {
 911              		.loc 1 307 5 is_stmt 0 view .LVU318
 912 002e AC42     		cmp	r4, r5
 913 0030 F1D1     		bne	.L71
 314:D:/fchai/work/i-cube/I-CUBE-HUAWEI/Middlewares/Third_Party/Huawei/iot_link/os/liteos/base/mem/common\los_slabmem.c ****             {
 315:D:/fchai/work/i-cube/I-CUBE-HUAWEI/Middlewares/Third_Party/Huawei/iot_link/os/liteos/base/mem/common\los_slabmem.c ****                 return uwItemSz;
 316:D:/fchai/work/i-cube/I-CUBE-HUAWEI/Middlewares/Third_Party/Huawei/iot_link/os/liteos/base/mem/common\los_slabmem.c ****             }
 317:D:/fchai/work/i-cube/I-CUBE-HUAWEI/Middlewares/Third_Party/Huawei/iot_link/os/liteos/base/mem/common\los_slabmem.c ****         }
 318:D:/fchai/work/i-cube/I-CUBE-HUAWEI/Middlewares/Third_Party/Huawei/iot_link/os/liteos/base/mem/common\los_slabmem.c ****     }
 319:D:/fchai/work/i-cube/I-CUBE-HUAWEI/Middlewares/Third_Party/Huawei/iot_link/os/liteos/base/mem/common\los_slabmem.c **** 
 320:D:/fchai/work/i-cube/I-CUBE-HUAWEI/Middlewares/Third_Party/Huawei/iot_link/os/liteos/base/mem/common\los_slabmem.c ****     return 0;
 914              		.loc 1 320 12 view .LVU319
 915 0032 0020     		movs	r0, #0
 321:D:/fchai/work/i-cube/I-CUBE-HUAWEI/Middlewares/Third_Party/Huawei/iot_link/os/liteos/base/mem/common\los_slabmem.c **** }
 916              		.loc 1 321 1 view .LVU320
 917 0034 05B0     		add	sp, sp, #20
 918              	.LCFI13:
 919              		.cfi_remember_state
 920              		.cfi_def_cfa_offset 12
 921              		@ sp needed
 922 0036 30BD     		pop	{r4, r5, pc}
 923              	.LVL86:
 924              	.L77:
 925              	.LCFI14:
 926              		.cfi_restore_state
 315:D:/fchai/work/i-cube/I-CUBE-HUAWEI/Middlewares/Third_Party/Huawei/iot_link/os/liteos/base/mem/common\los_slabmem.c ****             }
 927              		.loc 1 315 17 is_stmt 1 view .LVU321
 315:D:/fchai/work/i-cube/I-CUBE-HUAWEI/Middlewares/Third_Party/Huawei/iot_link/os/liteos/base/mem/common\los_slabmem.c ****             }
 928              		.loc 1 315 24 is_stmt 0 view .LVU322
 929 0038 0198     		ldr	r0, [sp, #4]
 930              		.loc 1 321 1 view .LVU323
 931 003a 05B0     		add	sp, sp, #20
 932              	.LCFI15:
 933              		.cfi_def_cfa_offset 12
 934              		@ sp needed
 935 003c 30BD     		pop	{r4, r5, pc}
 936              		.loc 1 321 1 view .LVU324
 937              		.cfi_endproc
 938              	.LFE140:
 940 003e 00BF     		.text
 941              	.Letext0:
 942              		.file 2 "t:\\msys\\3rd\\gcc-arm-none-eabi-9-2020-q2-update-win32\\lib\\gcc\\arm-none-eabi\\9.3.1\\
 943              		.file 3 "t:\\msys\\3rd\\gcc-arm-none-eabi-9-2020-q2-update-win32\\arm-none-eabi\\include\\machine\
 944              		.file 4 "t:\\msys\\3rd\\gcc-arm-none-eabi-9-2020-q2-update-win32\\arm-none-eabi\\include\\sys\\_ty
 945              		.file 5 "t:\\msys\\3rd\\gcc-arm-none-eabi-9-2020-q2-update-win32\\arm-none-eabi\\include\\sys\\ree
 946              		.file 6 "t:\\msys\\3rd\\gcc-arm-none-eabi-9-2020-q2-update-win32\\arm-none-eabi\\include\\sys\\loc
 947              		.file 7 "D:/fchai/work/i-cube/I-CUBE-HUAWEI/Middlewares/Third_Party/Huawei/iot_link/os/liteos/incl
ARM GAS  T:\msys\tmp\ccvH13VP.s 			page 26


 948              		.file 8 "t:\\msys\\3rd\\gcc-arm-none-eabi-9-2020-q2-update-win32\\arm-none-eabi\\include\\sys\\_st
 949              		.file 9 "D:/fchai/work/i-cube/I-CUBE-HUAWEI/Middlewares/Third_Party/Huawei/iot_link/os/liteos/arch
 950              		.file 10 "D:/fchai/work/i-cube/I-CUBE-HUAWEI/Drivers/CMSIS/Device/ST/STM32L4xx/Include/system_stm3
 951              		.file 11 "D:/fchai/work/i-cube/I-CUBE-HUAWEI/Drivers/STM32L4xx_HAL_Driver/Inc/stm32l4xx_hal_def.h"
 952              		.file 12 "D:/fchai/work/i-cube/I-CUBE-HUAWEI/Drivers/STM32L4xx_HAL_Driver/Inc/stm32l4xx_hal_flash.
 953              		.file 13 "D:/fchai/work/i-cube/I-CUBE-HUAWEI/Drivers/STM32L4xx_HAL_Driver/Inc/stm32l4xx_hal.h"
 954              		.file 14 "D:/fchai/work/i-cube/I-CUBE-HUAWEI/Middlewares/Third_Party/Huawei/iot_link/os/liteos/inc
 955              		.file 15 "D:/fchai/work/i-cube/I-CUBE-HUAWEI/Middlewares/Third_Party/Huawei/iot_link/os/liteos/inc
 956              		.file 16 "D:/fchai/work/i-cube/I-CUBE-HUAWEI/Middlewares/Third_Party/Huawei/iot_link/os/liteos/bas
 957              		.file 17 "D:/fchai/work/i-cube/I-CUBE-HUAWEI/Middlewares/Third_Party/Huawei/iot_link/os/liteos/arc
ARM GAS  T:\msys\tmp\ccvH13VP.s 			page 27

