ARM GAS  T:\msys\tmp\cc3PruZ9.s 			page 1


   1              		.cpu cortex-m4
   2              		.eabi_attribute 27, 1
   3              		.eabi_attribute 28, 1
   4              		.eabi_attribute 20, 1
   5              		.eabi_attribute 21, 1
   6              		.eabi_attribute 23, 3
   7              		.eabi_attribute 24, 1
   8              		.eabi_attribute 25, 1
   9              		.eabi_attribute 26, 1
  10              		.eabi_attribute 30, 2
  11              		.eabi_attribute 34, 1
  12              		.eabi_attribute 18, 4
  13              		.file	"rbtree.c"
  14              		.text
  15              	.Ltext0:
  16              		.cfi_sections	.debug_frame
  17              		.section	.text.__rb_insadj,"ax",%progbits
  18              		.align	1
  19              		.p2align 2,,3
  20              		.arch armv7e-m
  21              		.syntax unified
  22              		.thumb
  23              		.thumb_func
  24              		.fpu fpv4-sp-d16
  26              	__rb_insadj:
  27              	.LVL0:
  28              	.LFB53:
  29              		.file 1 "D:/fchai/work/i-cube/I-CUBE-HUAWEI/Middlewares/Third_Party/Huawei/iot_link/os/liteos/util
   1:D:/fchai/work/i-cube/I-CUBE-HUAWEI/Middlewares/Third_Party/Huawei/iot_link/os/liteos/utils\rbtree.c **** /*----------------------------------------------------------------------------
   2:D:/fchai/work/i-cube/I-CUBE-HUAWEI/Middlewares/Third_Party/Huawei/iot_link/os/liteos/utils\rbtree.c ****  * Copyright (c) <2018>, <Huawei Technologies Co., Ltd>
   3:D:/fchai/work/i-cube/I-CUBE-HUAWEI/Middlewares/Third_Party/Huawei/iot_link/os/liteos/utils\rbtree.c ****  * All rights reserved.
   4:D:/fchai/work/i-cube/I-CUBE-HUAWEI/Middlewares/Third_Party/Huawei/iot_link/os/liteos/utils\rbtree.c ****  * Redistribution and use in source and binary forms, with or without modification,
   5:D:/fchai/work/i-cube/I-CUBE-HUAWEI/Middlewares/Third_Party/Huawei/iot_link/os/liteos/utils\rbtree.c ****  * are permitted provided that the following conditions are met:
   6:D:/fchai/work/i-cube/I-CUBE-HUAWEI/Middlewares/Third_Party/Huawei/iot_link/os/liteos/utils\rbtree.c ****  * 1. Redistributions of source code must retain the above copyright notice, this list of
   7:D:/fchai/work/i-cube/I-CUBE-HUAWEI/Middlewares/Third_Party/Huawei/iot_link/os/liteos/utils\rbtree.c ****  * conditions and the following disclaimer.
   8:D:/fchai/work/i-cube/I-CUBE-HUAWEI/Middlewares/Third_Party/Huawei/iot_link/os/liteos/utils\rbtree.c ****  * 2. Redistributions in binary form must reproduce the above copyright notice, this list
   9:D:/fchai/work/i-cube/I-CUBE-HUAWEI/Middlewares/Third_Party/Huawei/iot_link/os/liteos/utils\rbtree.c ****  * of conditions and the following disclaimer in the documentation and/or other materials
  10:D:/fchai/work/i-cube/I-CUBE-HUAWEI/Middlewares/Third_Party/Huawei/iot_link/os/liteos/utils\rbtree.c ****  * provided with the distribution.
  11:D:/fchai/work/i-cube/I-CUBE-HUAWEI/Middlewares/Third_Party/Huawei/iot_link/os/liteos/utils\rbtree.c ****  * 3. Neither the name of the copyright holder nor the names of its contributors may be used
  12:D:/fchai/work/i-cube/I-CUBE-HUAWEI/Middlewares/Third_Party/Huawei/iot_link/os/liteos/utils\rbtree.c ****  * to endorse or promote products derived from this software without specific prior written
  13:D:/fchai/work/i-cube/I-CUBE-HUAWEI/Middlewares/Third_Party/Huawei/iot_link/os/liteos/utils\rbtree.c ****  * permission.
  14:D:/fchai/work/i-cube/I-CUBE-HUAWEI/Middlewares/Third_Party/Huawei/iot_link/os/liteos/utils\rbtree.c ****  * THIS SOFTWARE IS PROVIDED BY THE COPYRIGHT HOLDERS AND CONTRIBUTORS
  15:D:/fchai/work/i-cube/I-CUBE-HUAWEI/Middlewares/Third_Party/Huawei/iot_link/os/liteos/utils\rbtree.c ****  * "AS IS" AND ANY EXPRESS OR IMPLIED WARRANTIES, INCLUDING, BUT NOT LIMITED TO,
  16:D:/fchai/work/i-cube/I-CUBE-HUAWEI/Middlewares/Third_Party/Huawei/iot_link/os/liteos/utils\rbtree.c ****  * THE IMPLIED WARRANTIES OF MERCHANTABILITY AND FITNESS FOR A PARTICULAR
  17:D:/fchai/work/i-cube/I-CUBE-HUAWEI/Middlewares/Third_Party/Huawei/iot_link/os/liteos/utils\rbtree.c ****  * PURPOSE ARE DISCLAIMED. IN NO EVENT SHALL THE COPYRIGHT HOLDER OR
  18:D:/fchai/work/i-cube/I-CUBE-HUAWEI/Middlewares/Third_Party/Huawei/iot_link/os/liteos/utils\rbtree.c ****  * CONTRIBUTORS BE LIABLE FOR ANY DIRECT, INDIRECT, INCIDENTAL, SPECIAL,
  19:D:/fchai/work/i-cube/I-CUBE-HUAWEI/Middlewares/Third_Party/Huawei/iot_link/os/liteos/utils\rbtree.c ****  * EXEMPLARY, OR CONSEQUENTIAL DAMAGES (INCLUDING, BUT NOT LIMITED TO,
  20:D:/fchai/work/i-cube/I-CUBE-HUAWEI/Middlewares/Third_Party/Huawei/iot_link/os/liteos/utils\rbtree.c ****  * PROCUREMENT OF SUBSTITUTE GOODS OR SERVICES; LOSS OF USE, DATA, OR PROFITS;
  21:D:/fchai/work/i-cube/I-CUBE-HUAWEI/Middlewares/Third_Party/Huawei/iot_link/os/liteos/utils\rbtree.c ****  * OR BUSINESS INTERRUPTION) HOWEVER CAUSED AND ON ANY THEORY OF LIABILITY,
  22:D:/fchai/work/i-cube/I-CUBE-HUAWEI/Middlewares/Third_Party/Huawei/iot_link/os/liteos/utils\rbtree.c ****  * WHETHER IN CONTRACT, STRICT LIABILITY, OR TORT (INCLUDING NEGLIGENCE OR
  23:D:/fchai/work/i-cube/I-CUBE-HUAWEI/Middlewares/Third_Party/Huawei/iot_link/os/liteos/utils\rbtree.c ****  * OTHERWISE) ARISING IN ANY WAY OUT OF THE USE OF THIS SOFTWARE, EVEN IF
  24:D:/fchai/work/i-cube/I-CUBE-HUAWEI/Middlewares/Third_Party/Huawei/iot_link/os/liteos/utils\rbtree.c ****  * ADVISED OF THE POSSIBILITY OF SUCH DAMAGE.
  25:D:/fchai/work/i-cube/I-CUBE-HUAWEI/Middlewares/Third_Party/Huawei/iot_link/os/liteos/utils\rbtree.c ****  *---------------------------------------------------------------------------*/
  26:D:/fchai/work/i-cube/I-CUBE-HUAWEI/Middlewares/Third_Party/Huawei/iot_link/os/liteos/utils\rbtree.c **** /*----------------------------------------------------------------------------
  27:D:/fchai/work/i-cube/I-CUBE-HUAWEI/Middlewares/Third_Party/Huawei/iot_link/os/liteos/utils\rbtree.c ****  * Notice of Export Control Law
  28:D:/fchai/work/i-cube/I-CUBE-HUAWEI/Middlewares/Third_Party/Huawei/iot_link/os/liteos/utils\rbtree.c ****  * ===============================================
  29:D:/fchai/work/i-cube/I-CUBE-HUAWEI/Middlewares/Third_Party/Huawei/iot_link/os/liteos/utils\rbtree.c ****  * Huawei LiteOS may be subject to applicable export control laws and regulations, which might
ARM GAS  T:\msys\tmp\cc3PruZ9.s 			page 2


  30:D:/fchai/work/i-cube/I-CUBE-HUAWEI/Middlewares/Third_Party/Huawei/iot_link/os/liteos/utils\rbtree.c ****  * include those applicable to Huawei LiteOS of U.S. and the country in which you are located.
  31:D:/fchai/work/i-cube/I-CUBE-HUAWEI/Middlewares/Third_Party/Huawei/iot_link/os/liteos/utils\rbtree.c ****  * Import, export and usage of Huawei LiteOS in any manner by you shall be in compliance with such
  32:D:/fchai/work/i-cube/I-CUBE-HUAWEI/Middlewares/Third_Party/Huawei/iot_link/os/liteos/utils\rbtree.c ****  * applicable export control laws and regulations.
  33:D:/fchai/work/i-cube/I-CUBE-HUAWEI/Middlewares/Third_Party/Huawei/iot_link/os/liteos/utils\rbtree.c ****  *---------------------------------------------------------------------------*/
  34:D:/fchai/work/i-cube/I-CUBE-HUAWEI/Middlewares/Third_Party/Huawei/iot_link/os/liteos/utils\rbtree.c **** 
  35:D:/fchai/work/i-cube/I-CUBE-HUAWEI/Middlewares/Third_Party/Huawei/iot_link/os/liteos/utils\rbtree.c **** #include <stdbool.h>
  36:D:/fchai/work/i-cube/I-CUBE-HUAWEI/Middlewares/Third_Party/Huawei/iot_link/os/liteos/utils\rbtree.c **** 
  37:D:/fchai/work/i-cube/I-CUBE-HUAWEI/Middlewares/Third_Party/Huawei/iot_link/os/liteos/utils\rbtree.c **** #include <rbtree.h>
  38:D:/fchai/work/i-cube/I-CUBE-HUAWEI/Middlewares/Third_Party/Huawei/iot_link/os/liteos/utils\rbtree.c **** 
  39:D:/fchai/work/i-cube/I-CUBE-HUAWEI/Middlewares/Third_Party/Huawei/iot_link/os/liteos/utils\rbtree.c **** /* defines */
  40:D:/fchai/work/i-cube/I-CUBE-HUAWEI/Middlewares/Third_Party/Huawei/iot_link/os/liteos/utils\rbtree.c **** 
  41:D:/fchai/work/i-cube/I-CUBE-HUAWEI/Middlewares/Third_Party/Huawei/iot_link/os/liteos/utils\rbtree.c **** /* inlines */
  42:D:/fchai/work/i-cube/I-CUBE-HUAWEI/Middlewares/Third_Party/Huawei/iot_link/os/liteos/utils\rbtree.c **** 
  43:D:/fchai/work/i-cube/I-CUBE-HUAWEI/Middlewares/Third_Party/Huawei/iot_link/os/liteos/utils\rbtree.c **** /**
  44:D:/fchai/work/i-cube/I-CUBE-HUAWEI/Middlewares/Third_Party/Huawei/iot_link/os/liteos/utils\rbtree.c ****  * __color - get the color of a given node
  45:D:/fchai/work/i-cube/I-CUBE-HUAWEI/Middlewares/Third_Party/Huawei/iot_link/os/liteos/utils\rbtree.c ****  * @n: the given node
  46:D:/fchai/work/i-cube/I-CUBE-HUAWEI/Middlewares/Third_Party/Huawei/iot_link/os/liteos/utils\rbtree.c ****  *
  47:D:/fchai/work/i-cube/I-CUBE-HUAWEI/Middlewares/Third_Party/Huawei/iot_link/os/liteos/utils\rbtree.c ****  * return: the color of <n>
  48:D:/fchai/work/i-cube/I-CUBE-HUAWEI/Middlewares/Third_Party/Huawei/iot_link/os/liteos/utils\rbtree.c ****  */
  49:D:/fchai/work/i-cube/I-CUBE-HUAWEI/Middlewares/Third_Party/Huawei/iot_link/os/liteos/utils\rbtree.c **** 
  50:D:/fchai/work/i-cube/I-CUBE-HUAWEI/Middlewares/Third_Party/Huawei/iot_link/os/liteos/utils\rbtree.c **** static inline int __color (rb_node_t * n)
  51:D:/fchai/work/i-cube/I-CUBE-HUAWEI/Middlewares/Third_Party/Huawei/iot_link/os/liteos/utils\rbtree.c **** {
  52:D:/fchai/work/i-cube/I-CUBE-HUAWEI/Middlewares/Third_Party/Huawei/iot_link/os/liteos/utils\rbtree.c ****     return n->c;
  53:D:/fchai/work/i-cube/I-CUBE-HUAWEI/Middlewares/Third_Party/Huawei/iot_link/os/liteos/utils\rbtree.c **** }
  54:D:/fchai/work/i-cube/I-CUBE-HUAWEI/Middlewares/Third_Party/Huawei/iot_link/os/liteos/utils\rbtree.c **** 
  55:D:/fchai/work/i-cube/I-CUBE-HUAWEI/Middlewares/Third_Party/Huawei/iot_link/os/liteos/utils\rbtree.c **** /**
  56:D:/fchai/work/i-cube/I-CUBE-HUAWEI/Middlewares/Third_Party/Huawei/iot_link/os/liteos/utils\rbtree.c ****  * __raw_is_red - check if a node is red, assume <n> is not NULL
  57:D:/fchai/work/i-cube/I-CUBE-HUAWEI/Middlewares/Third_Party/Huawei/iot_link/os/liteos/utils\rbtree.c ****  * @n: the given node
  58:D:/fchai/work/i-cube/I-CUBE-HUAWEI/Middlewares/Third_Party/Huawei/iot_link/os/liteos/utils\rbtree.c ****  *
  59:D:/fchai/work/i-cube/I-CUBE-HUAWEI/Middlewares/Third_Party/Huawei/iot_link/os/liteos/utils\rbtree.c ****  * return: true if <n> is red, false if not.
  60:D:/fchai/work/i-cube/I-CUBE-HUAWEI/Middlewares/Third_Party/Huawei/iot_link/os/liteos/utils\rbtree.c ****  */
  61:D:/fchai/work/i-cube/I-CUBE-HUAWEI/Middlewares/Third_Party/Huawei/iot_link/os/liteos/utils\rbtree.c **** 
  62:D:/fchai/work/i-cube/I-CUBE-HUAWEI/Middlewares/Third_Party/Huawei/iot_link/os/liteos/utils\rbtree.c **** static inline int __raw_is_red (rb_node_t * n)
  63:D:/fchai/work/i-cube/I-CUBE-HUAWEI/Middlewares/Third_Party/Huawei/iot_link/os/liteos/utils\rbtree.c **** {
  64:D:/fchai/work/i-cube/I-CUBE-HUAWEI/Middlewares/Third_Party/Huawei/iot_link/os/liteos/utils\rbtree.c ****     return __color (n) == RBTREE_RED;
  65:D:/fchai/work/i-cube/I-CUBE-HUAWEI/Middlewares/Third_Party/Huawei/iot_link/os/liteos/utils\rbtree.c **** }
  66:D:/fchai/work/i-cube/I-CUBE-HUAWEI/Middlewares/Third_Party/Huawei/iot_link/os/liteos/utils\rbtree.c **** 
  67:D:/fchai/work/i-cube/I-CUBE-HUAWEI/Middlewares/Third_Party/Huawei/iot_link/os/liteos/utils\rbtree.c **** /**
  68:D:/fchai/work/i-cube/I-CUBE-HUAWEI/Middlewares/Third_Party/Huawei/iot_link/os/liteos/utils\rbtree.c ****  * __is_red - check if a node is red
  69:D:/fchai/work/i-cube/I-CUBE-HUAWEI/Middlewares/Third_Party/Huawei/iot_link/os/liteos/utils\rbtree.c ****  * @n: the given node
  70:D:/fchai/work/i-cube/I-CUBE-HUAWEI/Middlewares/Third_Party/Huawei/iot_link/os/liteos/utils\rbtree.c ****  *
  71:D:/fchai/work/i-cube/I-CUBE-HUAWEI/Middlewares/Third_Party/Huawei/iot_link/os/liteos/utils\rbtree.c ****  * return: true if <n> is red, false if not, or <n> is NULL.
  72:D:/fchai/work/i-cube/I-CUBE-HUAWEI/Middlewares/Third_Party/Huawei/iot_link/os/liteos/utils\rbtree.c ****  */
  73:D:/fchai/work/i-cube/I-CUBE-HUAWEI/Middlewares/Third_Party/Huawei/iot_link/os/liteos/utils\rbtree.c **** 
  74:D:/fchai/work/i-cube/I-CUBE-HUAWEI/Middlewares/Third_Party/Huawei/iot_link/os/liteos/utils\rbtree.c **** static inline int __is_red (rb_node_t * n)
  75:D:/fchai/work/i-cube/I-CUBE-HUAWEI/Middlewares/Third_Party/Huawei/iot_link/os/liteos/utils\rbtree.c **** {
  76:D:/fchai/work/i-cube/I-CUBE-HUAWEI/Middlewares/Third_Party/Huawei/iot_link/os/liteos/utils\rbtree.c ****     return (n != NULL) && __raw_is_red (n);
  77:D:/fchai/work/i-cube/I-CUBE-HUAWEI/Middlewares/Third_Party/Huawei/iot_link/os/liteos/utils\rbtree.c **** }
  78:D:/fchai/work/i-cube/I-CUBE-HUAWEI/Middlewares/Third_Party/Huawei/iot_link/os/liteos/utils\rbtree.c **** 
  79:D:/fchai/work/i-cube/I-CUBE-HUAWEI/Middlewares/Third_Party/Huawei/iot_link/os/liteos/utils\rbtree.c **** /**
  80:D:/fchai/work/i-cube/I-CUBE-HUAWEI/Middlewares/Third_Party/Huawei/iot_link/os/liteos/utils\rbtree.c ****  * __raw_is_black - check if a node is black, assume <n> is not NULL
  81:D:/fchai/work/i-cube/I-CUBE-HUAWEI/Middlewares/Third_Party/Huawei/iot_link/os/liteos/utils\rbtree.c ****  * @n: the given node
  82:D:/fchai/work/i-cube/I-CUBE-HUAWEI/Middlewares/Third_Party/Huawei/iot_link/os/liteos/utils\rbtree.c ****  *
  83:D:/fchai/work/i-cube/I-CUBE-HUAWEI/Middlewares/Third_Party/Huawei/iot_link/os/liteos/utils\rbtree.c ****  * return: true if <n> is red, false if not.
  84:D:/fchai/work/i-cube/I-CUBE-HUAWEI/Middlewares/Third_Party/Huawei/iot_link/os/liteos/utils\rbtree.c ****  */
  85:D:/fchai/work/i-cube/I-CUBE-HUAWEI/Middlewares/Third_Party/Huawei/iot_link/os/liteos/utils\rbtree.c **** 
  86:D:/fchai/work/i-cube/I-CUBE-HUAWEI/Middlewares/Third_Party/Huawei/iot_link/os/liteos/utils\rbtree.c **** static inline int __raw_is_black (rb_node_t * n)
ARM GAS  T:\msys\tmp\cc3PruZ9.s 			page 3


  87:D:/fchai/work/i-cube/I-CUBE-HUAWEI/Middlewares/Third_Party/Huawei/iot_link/os/liteos/utils\rbtree.c **** {
  88:D:/fchai/work/i-cube/I-CUBE-HUAWEI/Middlewares/Third_Party/Huawei/iot_link/os/liteos/utils\rbtree.c ****     return __color (n) == RBTREE_BLACK;
  89:D:/fchai/work/i-cube/I-CUBE-HUAWEI/Middlewares/Third_Party/Huawei/iot_link/os/liteos/utils\rbtree.c **** }
  90:D:/fchai/work/i-cube/I-CUBE-HUAWEI/Middlewares/Third_Party/Huawei/iot_link/os/liteos/utils\rbtree.c **** 
  91:D:/fchai/work/i-cube/I-CUBE-HUAWEI/Middlewares/Third_Party/Huawei/iot_link/os/liteos/utils\rbtree.c **** /**
  92:D:/fchai/work/i-cube/I-CUBE-HUAWEI/Middlewares/Third_Party/Huawei/iot_link/os/liteos/utils\rbtree.c ****  * __is_black - check if a node is black
  93:D:/fchai/work/i-cube/I-CUBE-HUAWEI/Middlewares/Third_Party/Huawei/iot_link/os/liteos/utils\rbtree.c ****  * @n: the given node
  94:D:/fchai/work/i-cube/I-CUBE-HUAWEI/Middlewares/Third_Party/Huawei/iot_link/os/liteos/utils\rbtree.c ****  *
  95:D:/fchai/work/i-cube/I-CUBE-HUAWEI/Middlewares/Third_Party/Huawei/iot_link/os/liteos/utils\rbtree.c ****  * return: true if <n> is black or NULL, false otherwise.
  96:D:/fchai/work/i-cube/I-CUBE-HUAWEI/Middlewares/Third_Party/Huawei/iot_link/os/liteos/utils\rbtree.c ****  */
  97:D:/fchai/work/i-cube/I-CUBE-HUAWEI/Middlewares/Third_Party/Huawei/iot_link/os/liteos/utils\rbtree.c **** 
  98:D:/fchai/work/i-cube/I-CUBE-HUAWEI/Middlewares/Third_Party/Huawei/iot_link/os/liteos/utils\rbtree.c **** static inline int __is_black (rb_node_t * n)
  99:D:/fchai/work/i-cube/I-CUBE-HUAWEI/Middlewares/Third_Party/Huawei/iot_link/os/liteos/utils\rbtree.c **** {
 100:D:/fchai/work/i-cube/I-CUBE-HUAWEI/Middlewares/Third_Party/Huawei/iot_link/os/liteos/utils\rbtree.c ****     return (n == NULL) || __raw_is_black (n);
 101:D:/fchai/work/i-cube/I-CUBE-HUAWEI/Middlewares/Third_Party/Huawei/iot_link/os/liteos/utils\rbtree.c **** }
 102:D:/fchai/work/i-cube/I-CUBE-HUAWEI/Middlewares/Third_Party/Huawei/iot_link/os/liteos/utils\rbtree.c **** 
 103:D:/fchai/work/i-cube/I-CUBE-HUAWEI/Middlewares/Third_Party/Huawei/iot_link/os/liteos/utils\rbtree.c **** /**
 104:D:/fchai/work/i-cube/I-CUBE-HUAWEI/Middlewares/Third_Party/Huawei/iot_link/os/liteos/utils\rbtree.c ****  * __set_color - set a node's color
 105:D:/fchai/work/i-cube/I-CUBE-HUAWEI/Middlewares/Third_Party/Huawei/iot_link/os/liteos/utils\rbtree.c ****  * @n: the given node
 106:D:/fchai/work/i-cube/I-CUBE-HUAWEI/Middlewares/Third_Party/Huawei/iot_link/os/liteos/utils\rbtree.c ****  * @c: the new color
 107:D:/fchai/work/i-cube/I-CUBE-HUAWEI/Middlewares/Third_Party/Huawei/iot_link/os/liteos/utils\rbtree.c ****  *
 108:D:/fchai/work/i-cube/I-CUBE-HUAWEI/Middlewares/Third_Party/Huawei/iot_link/os/liteos/utils\rbtree.c ****  * return: NA
 109:D:/fchai/work/i-cube/I-CUBE-HUAWEI/Middlewares/Third_Party/Huawei/iot_link/os/liteos/utils\rbtree.c ****  */
 110:D:/fchai/work/i-cube/I-CUBE-HUAWEI/Middlewares/Third_Party/Huawei/iot_link/os/liteos/utils\rbtree.c **** 
 111:D:/fchai/work/i-cube/I-CUBE-HUAWEI/Middlewares/Third_Party/Huawei/iot_link/os/liteos/utils\rbtree.c **** static inline void __set_color (rb_node_t * n, int c)
 112:D:/fchai/work/i-cube/I-CUBE-HUAWEI/Middlewares/Third_Party/Huawei/iot_link/os/liteos/utils\rbtree.c **** {
 113:D:/fchai/work/i-cube/I-CUBE-HUAWEI/Middlewares/Third_Party/Huawei/iot_link/os/liteos/utils\rbtree.c ****     n->c = c;
 114:D:/fchai/work/i-cube/I-CUBE-HUAWEI/Middlewares/Third_Party/Huawei/iot_link/os/liteos/utils\rbtree.c **** }
 115:D:/fchai/work/i-cube/I-CUBE-HUAWEI/Middlewares/Third_Party/Huawei/iot_link/os/liteos/utils\rbtree.c **** 
 116:D:/fchai/work/i-cube/I-CUBE-HUAWEI/Middlewares/Third_Party/Huawei/iot_link/os/liteos/utils\rbtree.c **** /**
 117:D:/fchai/work/i-cube/I-CUBE-HUAWEI/Middlewares/Third_Party/Huawei/iot_link/os/liteos/utils\rbtree.c ****  * __set_red - set a node to red
 118:D:/fchai/work/i-cube/I-CUBE-HUAWEI/Middlewares/Third_Party/Huawei/iot_link/os/liteos/utils\rbtree.c ****  * @n: the given node
 119:D:/fchai/work/i-cube/I-CUBE-HUAWEI/Middlewares/Third_Party/Huawei/iot_link/os/liteos/utils\rbtree.c ****  *
 120:D:/fchai/work/i-cube/I-CUBE-HUAWEI/Middlewares/Third_Party/Huawei/iot_link/os/liteos/utils\rbtree.c ****  * return: NA
 121:D:/fchai/work/i-cube/I-CUBE-HUAWEI/Middlewares/Third_Party/Huawei/iot_link/os/liteos/utils\rbtree.c ****  */
 122:D:/fchai/work/i-cube/I-CUBE-HUAWEI/Middlewares/Third_Party/Huawei/iot_link/os/liteos/utils\rbtree.c **** 
 123:D:/fchai/work/i-cube/I-CUBE-HUAWEI/Middlewares/Third_Party/Huawei/iot_link/os/liteos/utils\rbtree.c **** static inline void __set_red (rb_node_t * n)
 124:D:/fchai/work/i-cube/I-CUBE-HUAWEI/Middlewares/Third_Party/Huawei/iot_link/os/liteos/utils\rbtree.c **** {
 125:D:/fchai/work/i-cube/I-CUBE-HUAWEI/Middlewares/Third_Party/Huawei/iot_link/os/liteos/utils\rbtree.c ****     __set_color (n, RBTREE_RED);
 126:D:/fchai/work/i-cube/I-CUBE-HUAWEI/Middlewares/Third_Party/Huawei/iot_link/os/liteos/utils\rbtree.c **** }
 127:D:/fchai/work/i-cube/I-CUBE-HUAWEI/Middlewares/Third_Party/Huawei/iot_link/os/liteos/utils\rbtree.c **** 
 128:D:/fchai/work/i-cube/I-CUBE-HUAWEI/Middlewares/Third_Party/Huawei/iot_link/os/liteos/utils\rbtree.c **** /**
 129:D:/fchai/work/i-cube/I-CUBE-HUAWEI/Middlewares/Third_Party/Huawei/iot_link/os/liteos/utils\rbtree.c ****  * __set_black - set a node to black
 130:D:/fchai/work/i-cube/I-CUBE-HUAWEI/Middlewares/Third_Party/Huawei/iot_link/os/liteos/utils\rbtree.c ****  * @n: the given node
 131:D:/fchai/work/i-cube/I-CUBE-HUAWEI/Middlewares/Third_Party/Huawei/iot_link/os/liteos/utils\rbtree.c ****  *
 132:D:/fchai/work/i-cube/I-CUBE-HUAWEI/Middlewares/Third_Party/Huawei/iot_link/os/liteos/utils\rbtree.c ****  * return: NA
 133:D:/fchai/work/i-cube/I-CUBE-HUAWEI/Middlewares/Third_Party/Huawei/iot_link/os/liteos/utils\rbtree.c ****  */
 134:D:/fchai/work/i-cube/I-CUBE-HUAWEI/Middlewares/Third_Party/Huawei/iot_link/os/liteos/utils\rbtree.c **** 
 135:D:/fchai/work/i-cube/I-CUBE-HUAWEI/Middlewares/Third_Party/Huawei/iot_link/os/liteos/utils\rbtree.c **** static inline void __set_black (rb_node_t * n)
 136:D:/fchai/work/i-cube/I-CUBE-HUAWEI/Middlewares/Third_Party/Huawei/iot_link/os/liteos/utils\rbtree.c **** {
 137:D:/fchai/work/i-cube/I-CUBE-HUAWEI/Middlewares/Third_Party/Huawei/iot_link/os/liteos/utils\rbtree.c ****     __set_color (n, RBTREE_BLACK);
 138:D:/fchai/work/i-cube/I-CUBE-HUAWEI/Middlewares/Third_Party/Huawei/iot_link/os/liteos/utils\rbtree.c **** }
 139:D:/fchai/work/i-cube/I-CUBE-HUAWEI/Middlewares/Third_Party/Huawei/iot_link/os/liteos/utils\rbtree.c **** 
 140:D:/fchai/work/i-cube/I-CUBE-HUAWEI/Middlewares/Third_Party/Huawei/iot_link/os/liteos/utils\rbtree.c **** /**
 141:D:/fchai/work/i-cube/I-CUBE-HUAWEI/Middlewares/Third_Party/Huawei/iot_link/os/liteos/utils\rbtree.c ****  * __parent - get the parent of a node
 142:D:/fchai/work/i-cube/I-CUBE-HUAWEI/Middlewares/Third_Party/Huawei/iot_link/os/liteos/utils\rbtree.c ****  * @n: the given node
 143:D:/fchai/work/i-cube/I-CUBE-HUAWEI/Middlewares/Third_Party/Huawei/iot_link/os/liteos/utils\rbtree.c ****  *
ARM GAS  T:\msys\tmp\cc3PruZ9.s 			page 4


 144:D:/fchai/work/i-cube/I-CUBE-HUAWEI/Middlewares/Third_Party/Huawei/iot_link/os/liteos/utils\rbtree.c ****  * return: NA
 145:D:/fchai/work/i-cube/I-CUBE-HUAWEI/Middlewares/Third_Party/Huawei/iot_link/os/liteos/utils\rbtree.c ****  */
 146:D:/fchai/work/i-cube/I-CUBE-HUAWEI/Middlewares/Third_Party/Huawei/iot_link/os/liteos/utils\rbtree.c **** 
 147:D:/fchai/work/i-cube/I-CUBE-HUAWEI/Middlewares/Third_Party/Huawei/iot_link/os/liteos/utils\rbtree.c **** static inline rb_node_t * __parent (rb_node_t * n)
 148:D:/fchai/work/i-cube/I-CUBE-HUAWEI/Middlewares/Third_Party/Huawei/iot_link/os/liteos/utils\rbtree.c **** {
 149:D:/fchai/work/i-cube/I-CUBE-HUAWEI/Middlewares/Third_Party/Huawei/iot_link/os/liteos/utils\rbtree.c ****     return container_of (n->bin.p, rb_node_t, bin);
 150:D:/fchai/work/i-cube/I-CUBE-HUAWEI/Middlewares/Third_Party/Huawei/iot_link/os/liteos/utils\rbtree.c **** }
 151:D:/fchai/work/i-cube/I-CUBE-HUAWEI/Middlewares/Third_Party/Huawei/iot_link/os/liteos/utils\rbtree.c **** 
 152:D:/fchai/work/i-cube/I-CUBE-HUAWEI/Middlewares/Third_Party/Huawei/iot_link/os/liteos/utils\rbtree.c **** /**
 153:D:/fchai/work/i-cube/I-CUBE-HUAWEI/Middlewares/Third_Party/Huawei/iot_link/os/liteos/utils\rbtree.c ****  * __left - get the left child of a node
 154:D:/fchai/work/i-cube/I-CUBE-HUAWEI/Middlewares/Third_Party/Huawei/iot_link/os/liteos/utils\rbtree.c ****  * @n: the given node
 155:D:/fchai/work/i-cube/I-CUBE-HUAWEI/Middlewares/Third_Party/Huawei/iot_link/os/liteos/utils\rbtree.c ****  *
 156:D:/fchai/work/i-cube/I-CUBE-HUAWEI/Middlewares/Third_Party/Huawei/iot_link/os/liteos/utils\rbtree.c ****  * return: NA
 157:D:/fchai/work/i-cube/I-CUBE-HUAWEI/Middlewares/Third_Party/Huawei/iot_link/os/liteos/utils\rbtree.c ****  */
 158:D:/fchai/work/i-cube/I-CUBE-HUAWEI/Middlewares/Third_Party/Huawei/iot_link/os/liteos/utils\rbtree.c **** 
 159:D:/fchai/work/i-cube/I-CUBE-HUAWEI/Middlewares/Third_Party/Huawei/iot_link/os/liteos/utils\rbtree.c **** static inline rb_node_t * __left (rb_node_t * n)
 160:D:/fchai/work/i-cube/I-CUBE-HUAWEI/Middlewares/Third_Party/Huawei/iot_link/os/liteos/utils\rbtree.c **** {
 161:D:/fchai/work/i-cube/I-CUBE-HUAWEI/Middlewares/Third_Party/Huawei/iot_link/os/liteos/utils\rbtree.c ****     return container_of (n->bin.l, rb_node_t, bin);
 162:D:/fchai/work/i-cube/I-CUBE-HUAWEI/Middlewares/Third_Party/Huawei/iot_link/os/liteos/utils\rbtree.c **** }
 163:D:/fchai/work/i-cube/I-CUBE-HUAWEI/Middlewares/Third_Party/Huawei/iot_link/os/liteos/utils\rbtree.c **** /**
 164:D:/fchai/work/i-cube/I-CUBE-HUAWEI/Middlewares/Third_Party/Huawei/iot_link/os/liteos/utils\rbtree.c ****  * __right - get the right child of a node
 165:D:/fchai/work/i-cube/I-CUBE-HUAWEI/Middlewares/Third_Party/Huawei/iot_link/os/liteos/utils\rbtree.c ****  * @n: the given node
 166:D:/fchai/work/i-cube/I-CUBE-HUAWEI/Middlewares/Third_Party/Huawei/iot_link/os/liteos/utils\rbtree.c ****  *
 167:D:/fchai/work/i-cube/I-CUBE-HUAWEI/Middlewares/Third_Party/Huawei/iot_link/os/liteos/utils\rbtree.c ****  * return: NA
 168:D:/fchai/work/i-cube/I-CUBE-HUAWEI/Middlewares/Third_Party/Huawei/iot_link/os/liteos/utils\rbtree.c ****  */
 169:D:/fchai/work/i-cube/I-CUBE-HUAWEI/Middlewares/Third_Party/Huawei/iot_link/os/liteos/utils\rbtree.c **** 
 170:D:/fchai/work/i-cube/I-CUBE-HUAWEI/Middlewares/Third_Party/Huawei/iot_link/os/liteos/utils\rbtree.c **** static inline rb_node_t * __right (rb_node_t * n)
 171:D:/fchai/work/i-cube/I-CUBE-HUAWEI/Middlewares/Third_Party/Huawei/iot_link/os/liteos/utils\rbtree.c **** {
 172:D:/fchai/work/i-cube/I-CUBE-HUAWEI/Middlewares/Third_Party/Huawei/iot_link/os/liteos/utils\rbtree.c ****     return container_of (n->bin.r, rb_node_t, bin);
 173:D:/fchai/work/i-cube/I-CUBE-HUAWEI/Middlewares/Third_Party/Huawei/iot_link/os/liteos/utils\rbtree.c **** }
 174:D:/fchai/work/i-cube/I-CUBE-HUAWEI/Middlewares/Third_Party/Huawei/iot_link/os/liteos/utils\rbtree.c **** 
 175:D:/fchai/work/i-cube/I-CUBE-HUAWEI/Middlewares/Third_Party/Huawei/iot_link/os/liteos/utils\rbtree.c **** /**
 176:D:/fchai/work/i-cube/I-CUBE-HUAWEI/Middlewares/Third_Party/Huawei/iot_link/os/liteos/utils\rbtree.c ****  * __root - get the root of a tree
 177:D:/fchai/work/i-cube/I-CUBE-HUAWEI/Middlewares/Third_Party/Huawei/iot_link/os/liteos/utils\rbtree.c ****  * @n: the given tree
 178:D:/fchai/work/i-cube/I-CUBE-HUAWEI/Middlewares/Third_Party/Huawei/iot_link/os/liteos/utils\rbtree.c ****  *
 179:D:/fchai/work/i-cube/I-CUBE-HUAWEI/Middlewares/Third_Party/Huawei/iot_link/os/liteos/utils\rbtree.c ****  * return: NA
 180:D:/fchai/work/i-cube/I-CUBE-HUAWEI/Middlewares/Third_Party/Huawei/iot_link/os/liteos/utils\rbtree.c ****  */
 181:D:/fchai/work/i-cube/I-CUBE-HUAWEI/Middlewares/Third_Party/Huawei/iot_link/os/liteos/utils\rbtree.c **** 
 182:D:/fchai/work/i-cube/I-CUBE-HUAWEI/Middlewares/Third_Party/Huawei/iot_link/os/liteos/utils\rbtree.c **** static inline rb_node_t * __root (rb_tree_t * t)
 183:D:/fchai/work/i-cube/I-CUBE-HUAWEI/Middlewares/Third_Party/Huawei/iot_link/os/liteos/utils\rbtree.c **** {
 184:D:/fchai/work/i-cube/I-CUBE-HUAWEI/Middlewares/Third_Party/Huawei/iot_link/os/liteos/utils\rbtree.c ****     return container_of (t->bit.r, rb_node_t, bin);
 185:D:/fchai/work/i-cube/I-CUBE-HUAWEI/Middlewares/Third_Party/Huawei/iot_link/os/liteos/utils\rbtree.c **** }
 186:D:/fchai/work/i-cube/I-CUBE-HUAWEI/Middlewares/Third_Party/Huawei/iot_link/os/liteos/utils\rbtree.c **** 
 187:D:/fchai/work/i-cube/I-CUBE-HUAWEI/Middlewares/Third_Party/Huawei/iot_link/os/liteos/utils\rbtree.c **** /**
 188:D:/fchai/work/i-cube/I-CUBE-HUAWEI/Middlewares/Third_Party/Huawei/iot_link/os/liteos/utils\rbtree.c ****  * __set_parent - set the parent of a node
 189:D:/fchai/work/i-cube/I-CUBE-HUAWEI/Middlewares/Third_Party/Huawei/iot_link/os/liteos/utils\rbtree.c ****  * @n: the given node
 190:D:/fchai/work/i-cube/I-CUBE-HUAWEI/Middlewares/Third_Party/Huawei/iot_link/os/liteos/utils\rbtree.c ****  * @p: the new parent
 191:D:/fchai/work/i-cube/I-CUBE-HUAWEI/Middlewares/Third_Party/Huawei/iot_link/os/liteos/utils\rbtree.c ****  *
 192:D:/fchai/work/i-cube/I-CUBE-HUAWEI/Middlewares/Third_Party/Huawei/iot_link/os/liteos/utils\rbtree.c ****  * return: NA
 193:D:/fchai/work/i-cube/I-CUBE-HUAWEI/Middlewares/Third_Party/Huawei/iot_link/os/liteos/utils\rbtree.c ****  */
 194:D:/fchai/work/i-cube/I-CUBE-HUAWEI/Middlewares/Third_Party/Huawei/iot_link/os/liteos/utils\rbtree.c **** 
 195:D:/fchai/work/i-cube/I-CUBE-HUAWEI/Middlewares/Third_Party/Huawei/iot_link/os/liteos/utils\rbtree.c **** static inline void __set_parent (rb_node_t * n, rb_node_t * p)
 196:D:/fchai/work/i-cube/I-CUBE-HUAWEI/Middlewares/Third_Party/Huawei/iot_link/os/liteos/utils\rbtree.c **** {
 197:D:/fchai/work/i-cube/I-CUBE-HUAWEI/Middlewares/Third_Party/Huawei/iot_link/os/liteos/utils\rbtree.c ****     n->bin.p = &p->bin;
 198:D:/fchai/work/i-cube/I-CUBE-HUAWEI/Middlewares/Third_Party/Huawei/iot_link/os/liteos/utils\rbtree.c **** }
 199:D:/fchai/work/i-cube/I-CUBE-HUAWEI/Middlewares/Third_Party/Huawei/iot_link/os/liteos/utils\rbtree.c **** 
 200:D:/fchai/work/i-cube/I-CUBE-HUAWEI/Middlewares/Third_Party/Huawei/iot_link/os/liteos/utils\rbtree.c **** /**
ARM GAS  T:\msys\tmp\cc3PruZ9.s 			page 5


 201:D:/fchai/work/i-cube/I-CUBE-HUAWEI/Middlewares/Third_Party/Huawei/iot_link/os/liteos/utils\rbtree.c ****  * __set_left - set the left child of a node
 202:D:/fchai/work/i-cube/I-CUBE-HUAWEI/Middlewares/Third_Party/Huawei/iot_link/os/liteos/utils\rbtree.c ****  * @n: the given node
 203:D:/fchai/work/i-cube/I-CUBE-HUAWEI/Middlewares/Third_Party/Huawei/iot_link/os/liteos/utils\rbtree.c ****  * @l: the new left child
 204:D:/fchai/work/i-cube/I-CUBE-HUAWEI/Middlewares/Third_Party/Huawei/iot_link/os/liteos/utils\rbtree.c ****  *
 205:D:/fchai/work/i-cube/I-CUBE-HUAWEI/Middlewares/Third_Party/Huawei/iot_link/os/liteos/utils\rbtree.c ****  * return: NA
 206:D:/fchai/work/i-cube/I-CUBE-HUAWEI/Middlewares/Third_Party/Huawei/iot_link/os/liteos/utils\rbtree.c ****  */
 207:D:/fchai/work/i-cube/I-CUBE-HUAWEI/Middlewares/Third_Party/Huawei/iot_link/os/liteos/utils\rbtree.c **** 
 208:D:/fchai/work/i-cube/I-CUBE-HUAWEI/Middlewares/Third_Party/Huawei/iot_link/os/liteos/utils\rbtree.c **** static inline void __set_left (rb_node_t * n, rb_node_t * l)
 209:D:/fchai/work/i-cube/I-CUBE-HUAWEI/Middlewares/Third_Party/Huawei/iot_link/os/liteos/utils\rbtree.c **** {
 210:D:/fchai/work/i-cube/I-CUBE-HUAWEI/Middlewares/Third_Party/Huawei/iot_link/os/liteos/utils\rbtree.c ****     n->bin.l = &l->bin;
 211:D:/fchai/work/i-cube/I-CUBE-HUAWEI/Middlewares/Third_Party/Huawei/iot_link/os/liteos/utils\rbtree.c **** }
 212:D:/fchai/work/i-cube/I-CUBE-HUAWEI/Middlewares/Third_Party/Huawei/iot_link/os/liteos/utils\rbtree.c **** 
 213:D:/fchai/work/i-cube/I-CUBE-HUAWEI/Middlewares/Third_Party/Huawei/iot_link/os/liteos/utils\rbtree.c **** /**
 214:D:/fchai/work/i-cube/I-CUBE-HUAWEI/Middlewares/Third_Party/Huawei/iot_link/os/liteos/utils\rbtree.c ****  * __set_right - set the right child of a node
 215:D:/fchai/work/i-cube/I-CUBE-HUAWEI/Middlewares/Third_Party/Huawei/iot_link/os/liteos/utils\rbtree.c ****  * @n: the given node
 216:D:/fchai/work/i-cube/I-CUBE-HUAWEI/Middlewares/Third_Party/Huawei/iot_link/os/liteos/utils\rbtree.c ****  * @r: the new right child
 217:D:/fchai/work/i-cube/I-CUBE-HUAWEI/Middlewares/Third_Party/Huawei/iot_link/os/liteos/utils\rbtree.c ****  *
 218:D:/fchai/work/i-cube/I-CUBE-HUAWEI/Middlewares/Third_Party/Huawei/iot_link/os/liteos/utils\rbtree.c ****  * return: NA
 219:D:/fchai/work/i-cube/I-CUBE-HUAWEI/Middlewares/Third_Party/Huawei/iot_link/os/liteos/utils\rbtree.c ****  */
 220:D:/fchai/work/i-cube/I-CUBE-HUAWEI/Middlewares/Third_Party/Huawei/iot_link/os/liteos/utils\rbtree.c **** 
 221:D:/fchai/work/i-cube/I-CUBE-HUAWEI/Middlewares/Third_Party/Huawei/iot_link/os/liteos/utils\rbtree.c **** static inline void __set_right (rb_node_t * n, rb_node_t * r)
 222:D:/fchai/work/i-cube/I-CUBE-HUAWEI/Middlewares/Third_Party/Huawei/iot_link/os/liteos/utils\rbtree.c **** {
 223:D:/fchai/work/i-cube/I-CUBE-HUAWEI/Middlewares/Third_Party/Huawei/iot_link/os/liteos/utils\rbtree.c ****     n->bin.r = &r->bin;
 224:D:/fchai/work/i-cube/I-CUBE-HUAWEI/Middlewares/Third_Party/Huawei/iot_link/os/liteos/utils\rbtree.c **** }
 225:D:/fchai/work/i-cube/I-CUBE-HUAWEI/Middlewares/Third_Party/Huawei/iot_link/os/liteos/utils\rbtree.c **** 
 226:D:/fchai/work/i-cube/I-CUBE-HUAWEI/Middlewares/Third_Party/Huawei/iot_link/os/liteos/utils\rbtree.c **** /**
 227:D:/fchai/work/i-cube/I-CUBE-HUAWEI/Middlewares/Third_Party/Huawei/iot_link/os/liteos/utils\rbtree.c ****  * __set_root - set the root of a tree
 228:D:/fchai/work/i-cube/I-CUBE-HUAWEI/Middlewares/Third_Party/Huawei/iot_link/os/liteos/utils\rbtree.c ****  * @n: the given tree
 229:D:/fchai/work/i-cube/I-CUBE-HUAWEI/Middlewares/Third_Party/Huawei/iot_link/os/liteos/utils\rbtree.c ****  * @r: the new root
 230:D:/fchai/work/i-cube/I-CUBE-HUAWEI/Middlewares/Third_Party/Huawei/iot_link/os/liteos/utils\rbtree.c ****  *
 231:D:/fchai/work/i-cube/I-CUBE-HUAWEI/Middlewares/Third_Party/Huawei/iot_link/os/liteos/utils\rbtree.c ****  * return: NA
 232:D:/fchai/work/i-cube/I-CUBE-HUAWEI/Middlewares/Third_Party/Huawei/iot_link/os/liteos/utils\rbtree.c ****  */
 233:D:/fchai/work/i-cube/I-CUBE-HUAWEI/Middlewares/Third_Party/Huawei/iot_link/os/liteos/utils\rbtree.c **** 
 234:D:/fchai/work/i-cube/I-CUBE-HUAWEI/Middlewares/Third_Party/Huawei/iot_link/os/liteos/utils\rbtree.c **** static inline void __set_root (rb_tree_t * t, rb_node_t * r)
 235:D:/fchai/work/i-cube/I-CUBE-HUAWEI/Middlewares/Third_Party/Huawei/iot_link/os/liteos/utils\rbtree.c **** {
 236:D:/fchai/work/i-cube/I-CUBE-HUAWEI/Middlewares/Third_Party/Huawei/iot_link/os/liteos/utils\rbtree.c ****     t->bit.r = &r->bin;
 237:D:/fchai/work/i-cube/I-CUBE-HUAWEI/Middlewares/Third_Party/Huawei/iot_link/os/liteos/utils\rbtree.c **** }
 238:D:/fchai/work/i-cube/I-CUBE-HUAWEI/Middlewares/Third_Party/Huawei/iot_link/os/liteos/utils\rbtree.c **** 
 239:D:/fchai/work/i-cube/I-CUBE-HUAWEI/Middlewares/Third_Party/Huawei/iot_link/os/liteos/utils\rbtree.c **** /**
 240:D:/fchai/work/i-cube/I-CUBE-HUAWEI/Middlewares/Third_Party/Huawei/iot_link/os/liteos/utils\rbtree.c ****  * __raw_grand - get the grand parent for a node, assume n and p(n) are not NULL
 241:D:/fchai/work/i-cube/I-CUBE-HUAWEI/Middlewares/Third_Party/Huawei/iot_link/os/liteos/utils\rbtree.c ****  * @n: the given node
 242:D:/fchai/work/i-cube/I-CUBE-HUAWEI/Middlewares/Third_Party/Huawei/iot_link/os/liteos/utils\rbtree.c ****  *
 243:D:/fchai/work/i-cube/I-CUBE-HUAWEI/Middlewares/Third_Party/Huawei/iot_link/os/liteos/utils\rbtree.c ****  * return: grand parent of the node <n>
 244:D:/fchai/work/i-cube/I-CUBE-HUAWEI/Middlewares/Third_Party/Huawei/iot_link/os/liteos/utils\rbtree.c ****  */
 245:D:/fchai/work/i-cube/I-CUBE-HUAWEI/Middlewares/Third_Party/Huawei/iot_link/os/liteos/utils\rbtree.c **** 
 246:D:/fchai/work/i-cube/I-CUBE-HUAWEI/Middlewares/Third_Party/Huawei/iot_link/os/liteos/utils\rbtree.c **** static inline rb_node_t * __raw_grand (rb_node_t * n)
 247:D:/fchai/work/i-cube/I-CUBE-HUAWEI/Middlewares/Third_Party/Huawei/iot_link/os/liteos/utils\rbtree.c **** {
 248:D:/fchai/work/i-cube/I-CUBE-HUAWEI/Middlewares/Third_Party/Huawei/iot_link/os/liteos/utils\rbtree.c ****     return container_of (__bit_raw_grand (&n->bin), rb_node_t, bin);
 249:D:/fchai/work/i-cube/I-CUBE-HUAWEI/Middlewares/Third_Party/Huawei/iot_link/os/liteos/utils\rbtree.c **** }
 250:D:/fchai/work/i-cube/I-CUBE-HUAWEI/Middlewares/Third_Party/Huawei/iot_link/os/liteos/utils\rbtree.c **** 
 251:D:/fchai/work/i-cube/I-CUBE-HUAWEI/Middlewares/Third_Party/Huawei/iot_link/os/liteos/utils\rbtree.c **** /**
 252:D:/fchai/work/i-cube/I-CUBE-HUAWEI/Middlewares/Third_Party/Huawei/iot_link/os/liteos/utils\rbtree.c ****  * __raw_uncle - get the uncle for a node, assume n, p(n) and g(n) are not NULL
 253:D:/fchai/work/i-cube/I-CUBE-HUAWEI/Middlewares/Third_Party/Huawei/iot_link/os/liteos/utils\rbtree.c ****  * @n: the given node
 254:D:/fchai/work/i-cube/I-CUBE-HUAWEI/Middlewares/Third_Party/Huawei/iot_link/os/liteos/utils\rbtree.c ****  *
 255:D:/fchai/work/i-cube/I-CUBE-HUAWEI/Middlewares/Third_Party/Huawei/iot_link/os/liteos/utils\rbtree.c ****  * return: uncle of the node <n>
 256:D:/fchai/work/i-cube/I-CUBE-HUAWEI/Middlewares/Third_Party/Huawei/iot_link/os/liteos/utils\rbtree.c ****  */
 257:D:/fchai/work/i-cube/I-CUBE-HUAWEI/Middlewares/Third_Party/Huawei/iot_link/os/liteos/utils\rbtree.c **** 
ARM GAS  T:\msys\tmp\cc3PruZ9.s 			page 6


 258:D:/fchai/work/i-cube/I-CUBE-HUAWEI/Middlewares/Third_Party/Huawei/iot_link/os/liteos/utils\rbtree.c **** static inline rb_node_t * __raw_uncle (rb_node_t * n)
 259:D:/fchai/work/i-cube/I-CUBE-HUAWEI/Middlewares/Third_Party/Huawei/iot_link/os/liteos/utils\rbtree.c **** {
 260:D:/fchai/work/i-cube/I-CUBE-HUAWEI/Middlewares/Third_Party/Huawei/iot_link/os/liteos/utils\rbtree.c ****     return container_of (__bit_raw_uncle (&n->bin), rb_node_t, bin);
 261:D:/fchai/work/i-cube/I-CUBE-HUAWEI/Middlewares/Third_Party/Huawei/iot_link/os/liteos/utils\rbtree.c **** }
 262:D:/fchai/work/i-cube/I-CUBE-HUAWEI/Middlewares/Third_Party/Huawei/iot_link/os/liteos/utils\rbtree.c **** 
 263:D:/fchai/work/i-cube/I-CUBE-HUAWEI/Middlewares/Third_Party/Huawei/iot_link/os/liteos/utils\rbtree.c **** /**
 264:D:/fchai/work/i-cube/I-CUBE-HUAWEI/Middlewares/Third_Party/Huawei/iot_link/os/liteos/utils\rbtree.c ****  * __rotate_right - rotate the sub-tree right
 265:D:/fchai/work/i-cube/I-CUBE-HUAWEI/Middlewares/Third_Party/Huawei/iot_link/os/liteos/utils\rbtree.c ****  * @t: the given tree
 266:D:/fchai/work/i-cube/I-CUBE-HUAWEI/Middlewares/Third_Party/Huawei/iot_link/os/liteos/utils\rbtree.c ****  * @n: the given node (indcated the sub-tree)
 267:D:/fchai/work/i-cube/I-CUBE-HUAWEI/Middlewares/Third_Party/Huawei/iot_link/os/liteos/utils\rbtree.c ****  *
 268:D:/fchai/work/i-cube/I-CUBE-HUAWEI/Middlewares/Third_Party/Huawei/iot_link/os/liteos/utils\rbtree.c ****  * return: NA
 269:D:/fchai/work/i-cube/I-CUBE-HUAWEI/Middlewares/Third_Party/Huawei/iot_link/os/liteos/utils\rbtree.c ****  */
 270:D:/fchai/work/i-cube/I-CUBE-HUAWEI/Middlewares/Third_Party/Huawei/iot_link/os/liteos/utils\rbtree.c **** 
 271:D:/fchai/work/i-cube/I-CUBE-HUAWEI/Middlewares/Third_Party/Huawei/iot_link/os/liteos/utils\rbtree.c **** static inline void __rotate_right (rb_tree_t * t, rb_node_t * n)
 272:D:/fchai/work/i-cube/I-CUBE-HUAWEI/Middlewares/Third_Party/Huawei/iot_link/os/liteos/utils\rbtree.c **** {
 273:D:/fchai/work/i-cube/I-CUBE-HUAWEI/Middlewares/Third_Party/Huawei/iot_link/os/liteos/utils\rbtree.c ****     __bit_rotate_right (&t->bit, &n->bin);
 274:D:/fchai/work/i-cube/I-CUBE-HUAWEI/Middlewares/Third_Party/Huawei/iot_link/os/liteos/utils\rbtree.c **** }
 275:D:/fchai/work/i-cube/I-CUBE-HUAWEI/Middlewares/Third_Party/Huawei/iot_link/os/liteos/utils\rbtree.c **** 
 276:D:/fchai/work/i-cube/I-CUBE-HUAWEI/Middlewares/Third_Party/Huawei/iot_link/os/liteos/utils\rbtree.c **** /**
 277:D:/fchai/work/i-cube/I-CUBE-HUAWEI/Middlewares/Third_Party/Huawei/iot_link/os/liteos/utils\rbtree.c ****  * __rotate_left - rotate the sub-tree left
 278:D:/fchai/work/i-cube/I-CUBE-HUAWEI/Middlewares/Third_Party/Huawei/iot_link/os/liteos/utils\rbtree.c ****  * @t: the given tree
 279:D:/fchai/work/i-cube/I-CUBE-HUAWEI/Middlewares/Third_Party/Huawei/iot_link/os/liteos/utils\rbtree.c ****  * @n: the given node (indcated the sub-tree)
 280:D:/fchai/work/i-cube/I-CUBE-HUAWEI/Middlewares/Third_Party/Huawei/iot_link/os/liteos/utils\rbtree.c ****  *
 281:D:/fchai/work/i-cube/I-CUBE-HUAWEI/Middlewares/Third_Party/Huawei/iot_link/os/liteos/utils\rbtree.c ****  * return: NA
 282:D:/fchai/work/i-cube/I-CUBE-HUAWEI/Middlewares/Third_Party/Huawei/iot_link/os/liteos/utils\rbtree.c ****  */
 283:D:/fchai/work/i-cube/I-CUBE-HUAWEI/Middlewares/Third_Party/Huawei/iot_link/os/liteos/utils\rbtree.c **** 
 284:D:/fchai/work/i-cube/I-CUBE-HUAWEI/Middlewares/Third_Party/Huawei/iot_link/os/liteos/utils\rbtree.c **** static inline void __rotate_left (rb_tree_t * t, rb_node_t * n)
 285:D:/fchai/work/i-cube/I-CUBE-HUAWEI/Middlewares/Third_Party/Huawei/iot_link/os/liteos/utils\rbtree.c **** {
 286:D:/fchai/work/i-cube/I-CUBE-HUAWEI/Middlewares/Third_Party/Huawei/iot_link/os/liteos/utils\rbtree.c ****     __bit_rotate_left (&t->bit, &n->bin);
 287:D:/fchai/work/i-cube/I-CUBE-HUAWEI/Middlewares/Third_Party/Huawei/iot_link/os/liteos/utils\rbtree.c **** }
 288:D:/fchai/work/i-cube/I-CUBE-HUAWEI/Middlewares/Third_Party/Huawei/iot_link/os/liteos/utils\rbtree.c **** 
 289:D:/fchai/work/i-cube/I-CUBE-HUAWEI/Middlewares/Third_Party/Huawei/iot_link/os/liteos/utils\rbtree.c **** /**
 290:D:/fchai/work/i-cube/I-CUBE-HUAWEI/Middlewares/Third_Party/Huawei/iot_link/os/liteos/utils\rbtree.c ****  * __successor - the successor node of a node
 291:D:/fchai/work/i-cube/I-CUBE-HUAWEI/Middlewares/Third_Party/Huawei/iot_link/os/liteos/utils\rbtree.c ****  * @n: the given node
 292:D:/fchai/work/i-cube/I-CUBE-HUAWEI/Middlewares/Third_Party/Huawei/iot_link/os/liteos/utils\rbtree.c ****  *
 293:D:/fchai/work/i-cube/I-CUBE-HUAWEI/Middlewares/Third_Party/Huawei/iot_link/os/liteos/utils\rbtree.c ****  * return: the successor of <n>
 294:D:/fchai/work/i-cube/I-CUBE-HUAWEI/Middlewares/Third_Party/Huawei/iot_link/os/liteos/utils\rbtree.c ****  */
 295:D:/fchai/work/i-cube/I-CUBE-HUAWEI/Middlewares/Third_Party/Huawei/iot_link/os/liteos/utils\rbtree.c **** 
 296:D:/fchai/work/i-cube/I-CUBE-HUAWEI/Middlewares/Third_Party/Huawei/iot_link/os/liteos/utils\rbtree.c **** static inline rb_node_t * __successor (rb_node_t * n)
 297:D:/fchai/work/i-cube/I-CUBE-HUAWEI/Middlewares/Third_Party/Huawei/iot_link/os/liteos/utils\rbtree.c **** {
 298:D:/fchai/work/i-cube/I-CUBE-HUAWEI/Middlewares/Third_Party/Huawei/iot_link/os/liteos/utils\rbtree.c ****     return container_of (__bit_successor (&n->bin), rb_node_t, bin);
 299:D:/fchai/work/i-cube/I-CUBE-HUAWEI/Middlewares/Third_Party/Huawei/iot_link/os/liteos/utils\rbtree.c **** }
 300:D:/fchai/work/i-cube/I-CUBE-HUAWEI/Middlewares/Third_Party/Huawei/iot_link/os/liteos/utils\rbtree.c **** 
 301:D:/fchai/work/i-cube/I-CUBE-HUAWEI/Middlewares/Third_Party/Huawei/iot_link/os/liteos/utils\rbtree.c **** /**
 302:D:/fchai/work/i-cube/I-CUBE-HUAWEI/Middlewares/Third_Party/Huawei/iot_link/os/liteos/utils\rbtree.c ****  * __predecessor - the predecessor node of a node
 303:D:/fchai/work/i-cube/I-CUBE-HUAWEI/Middlewares/Third_Party/Huawei/iot_link/os/liteos/utils\rbtree.c ****  * @n: the given node
 304:D:/fchai/work/i-cube/I-CUBE-HUAWEI/Middlewares/Third_Party/Huawei/iot_link/os/liteos/utils\rbtree.c ****  *
 305:D:/fchai/work/i-cube/I-CUBE-HUAWEI/Middlewares/Third_Party/Huawei/iot_link/os/liteos/utils\rbtree.c ****  * return: the predecessor of <n>
 306:D:/fchai/work/i-cube/I-CUBE-HUAWEI/Middlewares/Third_Party/Huawei/iot_link/os/liteos/utils\rbtree.c ****  */
 307:D:/fchai/work/i-cube/I-CUBE-HUAWEI/Middlewares/Third_Party/Huawei/iot_link/os/liteos/utils\rbtree.c **** 
 308:D:/fchai/work/i-cube/I-CUBE-HUAWEI/Middlewares/Third_Party/Huawei/iot_link/os/liteos/utils\rbtree.c **** static inline rb_node_t * __predecessor (rb_node_t * n)
 309:D:/fchai/work/i-cube/I-CUBE-HUAWEI/Middlewares/Third_Party/Huawei/iot_link/os/liteos/utils\rbtree.c **** {
 310:D:/fchai/work/i-cube/I-CUBE-HUAWEI/Middlewares/Third_Party/Huawei/iot_link/os/liteos/utils\rbtree.c ****     return container_of (__bit_predecessor (&n->bin), rb_node_t, bin);
 311:D:/fchai/work/i-cube/I-CUBE-HUAWEI/Middlewares/Third_Party/Huawei/iot_link/os/liteos/utils\rbtree.c **** }
 312:D:/fchai/work/i-cube/I-CUBE-HUAWEI/Middlewares/Third_Party/Huawei/iot_link/os/liteos/utils\rbtree.c **** 
 313:D:/fchai/work/i-cube/I-CUBE-HUAWEI/Middlewares/Third_Party/Huawei/iot_link/os/liteos/utils\rbtree.c **** /**
 314:D:/fchai/work/i-cube/I-CUBE-HUAWEI/Middlewares/Third_Party/Huawei/iot_link/os/liteos/utils\rbtree.c ****  * rb_find_eq - find a given key in a rb-tree
ARM GAS  T:\msys\tmp\cc3PruZ9.s 			page 7


 315:D:/fchai/work/i-cube/I-CUBE-HUAWEI/Middlewares/Third_Party/Huawei/iot_link/os/liteos/utils\rbtree.c ****  * @t: the given tree
 316:D:/fchai/work/i-cube/I-CUBE-HUAWEI/Middlewares/Third_Party/Huawei/iot_link/os/liteos/utils\rbtree.c ****  * @k: the key value
 317:D:/fchai/work/i-cube/I-CUBE-HUAWEI/Middlewares/Third_Party/Huawei/iot_link/os/liteos/utils\rbtree.c ****  *
 318:D:/fchai/work/i-cube/I-CUBE-HUAWEI/Middlewares/Third_Party/Huawei/iot_link/os/liteos/utils\rbtree.c ****  * return: the node with key = <k>, NULL or key not found.
 319:D:/fchai/work/i-cube/I-CUBE-HUAWEI/Middlewares/Third_Party/Huawei/iot_link/os/liteos/utils\rbtree.c ****  */
 320:D:/fchai/work/i-cube/I-CUBE-HUAWEI/Middlewares/Third_Party/Huawei/iot_link/os/liteos/utils\rbtree.c **** 
 321:D:/fchai/work/i-cube/I-CUBE-HUAWEI/Middlewares/Third_Party/Huawei/iot_link/os/liteos/utils\rbtree.c **** rb_node_t * rb_find_eq (rb_tree_t * t, uintptr_t k)
 322:D:/fchai/work/i-cube/I-CUBE-HUAWEI/Middlewares/Third_Party/Huawei/iot_link/os/liteos/utils\rbtree.c **** {
 323:D:/fchai/work/i-cube/I-CUBE-HUAWEI/Middlewares/Third_Party/Huawei/iot_link/os/liteos/utils\rbtree.c ****     return container_of (__bit_find_eq (&t->bit, k), rb_node_t, bin);
 324:D:/fchai/work/i-cube/I-CUBE-HUAWEI/Middlewares/Third_Party/Huawei/iot_link/os/liteos/utils\rbtree.c **** }
 325:D:/fchai/work/i-cube/I-CUBE-HUAWEI/Middlewares/Third_Party/Huawei/iot_link/os/liteos/utils\rbtree.c **** 
 326:D:/fchai/work/i-cube/I-CUBE-HUAWEI/Middlewares/Third_Party/Huawei/iot_link/os/liteos/utils\rbtree.c **** /**
 327:D:/fchai/work/i-cube/I-CUBE-HUAWEI/Middlewares/Third_Party/Huawei/iot_link/os/liteos/utils\rbtree.c ****  * rb_find_ge - find a node that is just greater or equal to the given value
 328:D:/fchai/work/i-cube/I-CUBE-HUAWEI/Middlewares/Third_Party/Huawei/iot_link/os/liteos/utils\rbtree.c ****  * @t: the given tree
 329:D:/fchai/work/i-cube/I-CUBE-HUAWEI/Middlewares/Third_Party/Huawei/iot_link/os/liteos/utils\rbtree.c ****  * @k: the key value
 330:D:/fchai/work/i-cube/I-CUBE-HUAWEI/Middlewares/Third_Party/Huawei/iot_link/os/liteos/utils\rbtree.c ****  *
 331:D:/fchai/work/i-cube/I-CUBE-HUAWEI/Middlewares/Third_Party/Huawei/iot_link/os/liteos/utils\rbtree.c ****  * return: the nearest node with key >= <k>, NULL or key not found.
 332:D:/fchai/work/i-cube/I-CUBE-HUAWEI/Middlewares/Third_Party/Huawei/iot_link/os/liteos/utils\rbtree.c ****  */
 333:D:/fchai/work/i-cube/I-CUBE-HUAWEI/Middlewares/Third_Party/Huawei/iot_link/os/liteos/utils\rbtree.c **** 
 334:D:/fchai/work/i-cube/I-CUBE-HUAWEI/Middlewares/Third_Party/Huawei/iot_link/os/liteos/utils\rbtree.c **** rb_node_t * rb_find_ge (rb_tree_t * t, uintptr_t k)
 335:D:/fchai/work/i-cube/I-CUBE-HUAWEI/Middlewares/Third_Party/Huawei/iot_link/os/liteos/utils\rbtree.c **** {
 336:D:/fchai/work/i-cube/I-CUBE-HUAWEI/Middlewares/Third_Party/Huawei/iot_link/os/liteos/utils\rbtree.c ****     return container_of (__bit_find_ge (&t->bit, k), rb_node_t, bin);
 337:D:/fchai/work/i-cube/I-CUBE-HUAWEI/Middlewares/Third_Party/Huawei/iot_link/os/liteos/utils\rbtree.c **** }
 338:D:/fchai/work/i-cube/I-CUBE-HUAWEI/Middlewares/Third_Party/Huawei/iot_link/os/liteos/utils\rbtree.c **** 
 339:D:/fchai/work/i-cube/I-CUBE-HUAWEI/Middlewares/Third_Party/Huawei/iot_link/os/liteos/utils\rbtree.c **** /**
 340:D:/fchai/work/i-cube/I-CUBE-HUAWEI/Middlewares/Third_Party/Huawei/iot_link/os/liteos/utils\rbtree.c ****  * rb_find_gt - find a node that is just greater to the given value
 341:D:/fchai/work/i-cube/I-CUBE-HUAWEI/Middlewares/Third_Party/Huawei/iot_link/os/liteos/utils\rbtree.c ****  * @t: the given tree
 342:D:/fchai/work/i-cube/I-CUBE-HUAWEI/Middlewares/Third_Party/Huawei/iot_link/os/liteos/utils\rbtree.c ****  * @k: the key value
 343:D:/fchai/work/i-cube/I-CUBE-HUAWEI/Middlewares/Third_Party/Huawei/iot_link/os/liteos/utils\rbtree.c ****  *
 344:D:/fchai/work/i-cube/I-CUBE-HUAWEI/Middlewares/Third_Party/Huawei/iot_link/os/liteos/utils\rbtree.c ****  * return: the nearest node with key > <k>, NULL or key not found.
 345:D:/fchai/work/i-cube/I-CUBE-HUAWEI/Middlewares/Third_Party/Huawei/iot_link/os/liteos/utils\rbtree.c ****  */
 346:D:/fchai/work/i-cube/I-CUBE-HUAWEI/Middlewares/Third_Party/Huawei/iot_link/os/liteos/utils\rbtree.c **** 
 347:D:/fchai/work/i-cube/I-CUBE-HUAWEI/Middlewares/Third_Party/Huawei/iot_link/os/liteos/utils\rbtree.c **** rb_node_t * rb_find_gt (rb_tree_t * t, uintptr_t k)
 348:D:/fchai/work/i-cube/I-CUBE-HUAWEI/Middlewares/Third_Party/Huawei/iot_link/os/liteos/utils\rbtree.c **** {
 349:D:/fchai/work/i-cube/I-CUBE-HUAWEI/Middlewares/Third_Party/Huawei/iot_link/os/liteos/utils\rbtree.c ****     return container_of (__bit_find_gt (&t->bit, k), rb_node_t, bin);
 350:D:/fchai/work/i-cube/I-CUBE-HUAWEI/Middlewares/Third_Party/Huawei/iot_link/os/liteos/utils\rbtree.c **** }
 351:D:/fchai/work/i-cube/I-CUBE-HUAWEI/Middlewares/Third_Party/Huawei/iot_link/os/liteos/utils\rbtree.c **** 
 352:D:/fchai/work/i-cube/I-CUBE-HUAWEI/Middlewares/Third_Party/Huawei/iot_link/os/liteos/utils\rbtree.c **** /**
 353:D:/fchai/work/i-cube/I-CUBE-HUAWEI/Middlewares/Third_Party/Huawei/iot_link/os/liteos/utils\rbtree.c ****  * rb_find_le - find a node that is just less or equal to the given value
 354:D:/fchai/work/i-cube/I-CUBE-HUAWEI/Middlewares/Third_Party/Huawei/iot_link/os/liteos/utils\rbtree.c ****  * @t: the given tree
 355:D:/fchai/work/i-cube/I-CUBE-HUAWEI/Middlewares/Third_Party/Huawei/iot_link/os/liteos/utils\rbtree.c ****  * @k: the key value
 356:D:/fchai/work/i-cube/I-CUBE-HUAWEI/Middlewares/Third_Party/Huawei/iot_link/os/liteos/utils\rbtree.c ****  *
 357:D:/fchai/work/i-cube/I-CUBE-HUAWEI/Middlewares/Third_Party/Huawei/iot_link/os/liteos/utils\rbtree.c ****  * return: the nearest node with key <= <k>, NULL or key not found.
 358:D:/fchai/work/i-cube/I-CUBE-HUAWEI/Middlewares/Third_Party/Huawei/iot_link/os/liteos/utils\rbtree.c ****  */
 359:D:/fchai/work/i-cube/I-CUBE-HUAWEI/Middlewares/Third_Party/Huawei/iot_link/os/liteos/utils\rbtree.c **** 
 360:D:/fchai/work/i-cube/I-CUBE-HUAWEI/Middlewares/Third_Party/Huawei/iot_link/os/liteos/utils\rbtree.c **** rb_node_t * rb_find_le (rb_tree_t * t, uintptr_t k)
 361:D:/fchai/work/i-cube/I-CUBE-HUAWEI/Middlewares/Third_Party/Huawei/iot_link/os/liteos/utils\rbtree.c **** {
 362:D:/fchai/work/i-cube/I-CUBE-HUAWEI/Middlewares/Third_Party/Huawei/iot_link/os/liteos/utils\rbtree.c ****     return container_of (__bit_find_le (&t->bit, k), rb_node_t, bin);
 363:D:/fchai/work/i-cube/I-CUBE-HUAWEI/Middlewares/Third_Party/Huawei/iot_link/os/liteos/utils\rbtree.c **** }
 364:D:/fchai/work/i-cube/I-CUBE-HUAWEI/Middlewares/Third_Party/Huawei/iot_link/os/liteos/utils\rbtree.c **** 
 365:D:/fchai/work/i-cube/I-CUBE-HUAWEI/Middlewares/Third_Party/Huawei/iot_link/os/liteos/utils\rbtree.c **** /**
 366:D:/fchai/work/i-cube/I-CUBE-HUAWEI/Middlewares/Third_Party/Huawei/iot_link/os/liteos/utils\rbtree.c ****  * rb_find_lt - find a node that is just less to the given value
 367:D:/fchai/work/i-cube/I-CUBE-HUAWEI/Middlewares/Third_Party/Huawei/iot_link/os/liteos/utils\rbtree.c ****  * @t: the given tree
 368:D:/fchai/work/i-cube/I-CUBE-HUAWEI/Middlewares/Third_Party/Huawei/iot_link/os/liteos/utils\rbtree.c ****  * @k: the key value
 369:D:/fchai/work/i-cube/I-CUBE-HUAWEI/Middlewares/Third_Party/Huawei/iot_link/os/liteos/utils\rbtree.c ****  *
 370:D:/fchai/work/i-cube/I-CUBE-HUAWEI/Middlewares/Third_Party/Huawei/iot_link/os/liteos/utils\rbtree.c ****  * return: the nearest node with key < <k>, NULL or key not found.
 371:D:/fchai/work/i-cube/I-CUBE-HUAWEI/Middlewares/Third_Party/Huawei/iot_link/os/liteos/utils\rbtree.c ****  */
ARM GAS  T:\msys\tmp\cc3PruZ9.s 			page 8


 372:D:/fchai/work/i-cube/I-CUBE-HUAWEI/Middlewares/Third_Party/Huawei/iot_link/os/liteos/utils\rbtree.c **** 
 373:D:/fchai/work/i-cube/I-CUBE-HUAWEI/Middlewares/Third_Party/Huawei/iot_link/os/liteos/utils\rbtree.c **** rb_node_t * rb_find_lt (rb_tree_t * t, uintptr_t k)
 374:D:/fchai/work/i-cube/I-CUBE-HUAWEI/Middlewares/Third_Party/Huawei/iot_link/os/liteos/utils\rbtree.c **** {
 375:D:/fchai/work/i-cube/I-CUBE-HUAWEI/Middlewares/Third_Party/Huawei/iot_link/os/liteos/utils\rbtree.c ****     return container_of (__bit_find_lt (&t->bit, k), rb_node_t, bin);
 376:D:/fchai/work/i-cube/I-CUBE-HUAWEI/Middlewares/Third_Party/Huawei/iot_link/os/liteos/utils\rbtree.c **** }
 377:D:/fchai/work/i-cube/I-CUBE-HUAWEI/Middlewares/Third_Party/Huawei/iot_link/os/liteos/utils\rbtree.c **** 
 378:D:/fchai/work/i-cube/I-CUBE-HUAWEI/Middlewares/Third_Party/Huawei/iot_link/os/liteos/utils\rbtree.c **** /**
 379:D:/fchai/work/i-cube/I-CUBE-HUAWEI/Middlewares/Third_Party/Huawei/iot_link/os/liteos/utils\rbtree.c ****  * rb_first - find the first node of the tree
 380:D:/fchai/work/i-cube/I-CUBE-HUAWEI/Middlewares/Third_Party/Huawei/iot_link/os/liteos/utils\rbtree.c ****  * @t: the given tree
 381:D:/fchai/work/i-cube/I-CUBE-HUAWEI/Middlewares/Third_Party/Huawei/iot_link/os/liteos/utils\rbtree.c ****  *
 382:D:/fchai/work/i-cube/I-CUBE-HUAWEI/Middlewares/Third_Party/Huawei/iot_link/os/liteos/utils\rbtree.c ****  * return: the first node, or NULL if the tree is empty
 383:D:/fchai/work/i-cube/I-CUBE-HUAWEI/Middlewares/Third_Party/Huawei/iot_link/os/liteos/utils\rbtree.c ****  */
 384:D:/fchai/work/i-cube/I-CUBE-HUAWEI/Middlewares/Third_Party/Huawei/iot_link/os/liteos/utils\rbtree.c **** 
 385:D:/fchai/work/i-cube/I-CUBE-HUAWEI/Middlewares/Third_Party/Huawei/iot_link/os/liteos/utils\rbtree.c **** rb_node_t * rb_first (rb_tree_t * t)
 386:D:/fchai/work/i-cube/I-CUBE-HUAWEI/Middlewares/Third_Party/Huawei/iot_link/os/liteos/utils\rbtree.c **** {
 387:D:/fchai/work/i-cube/I-CUBE-HUAWEI/Middlewares/Third_Party/Huawei/iot_link/os/liteos/utils\rbtree.c ****     return container_of (__bit_first (&t->bit), rb_node_t, bin);
 388:D:/fchai/work/i-cube/I-CUBE-HUAWEI/Middlewares/Third_Party/Huawei/iot_link/os/liteos/utils\rbtree.c **** }
 389:D:/fchai/work/i-cube/I-CUBE-HUAWEI/Middlewares/Third_Party/Huawei/iot_link/os/liteos/utils\rbtree.c **** 
 390:D:/fchai/work/i-cube/I-CUBE-HUAWEI/Middlewares/Third_Party/Huawei/iot_link/os/liteos/utils\rbtree.c **** /**
 391:D:/fchai/work/i-cube/I-CUBE-HUAWEI/Middlewares/Third_Party/Huawei/iot_link/os/liteos/utils\rbtree.c ****  * rb_last - find the last node of the tree
 392:D:/fchai/work/i-cube/I-CUBE-HUAWEI/Middlewares/Third_Party/Huawei/iot_link/os/liteos/utils\rbtree.c ****  * @t: the given tree
 393:D:/fchai/work/i-cube/I-CUBE-HUAWEI/Middlewares/Third_Party/Huawei/iot_link/os/liteos/utils\rbtree.c ****  *
 394:D:/fchai/work/i-cube/I-CUBE-HUAWEI/Middlewares/Third_Party/Huawei/iot_link/os/liteos/utils\rbtree.c ****  * return: the last node, or NULL if the tree is empty
 395:D:/fchai/work/i-cube/I-CUBE-HUAWEI/Middlewares/Third_Party/Huawei/iot_link/os/liteos/utils\rbtree.c ****  */
 396:D:/fchai/work/i-cube/I-CUBE-HUAWEI/Middlewares/Third_Party/Huawei/iot_link/os/liteos/utils\rbtree.c **** 
 397:D:/fchai/work/i-cube/I-CUBE-HUAWEI/Middlewares/Third_Party/Huawei/iot_link/os/liteos/utils\rbtree.c **** rb_node_t * rb_last (rb_tree_t * t)
 398:D:/fchai/work/i-cube/I-CUBE-HUAWEI/Middlewares/Third_Party/Huawei/iot_link/os/liteos/utils\rbtree.c **** {
 399:D:/fchai/work/i-cube/I-CUBE-HUAWEI/Middlewares/Third_Party/Huawei/iot_link/os/liteos/utils\rbtree.c ****     return container_of (__bit_last (&t->bit), rb_node_t, bin);
 400:D:/fchai/work/i-cube/I-CUBE-HUAWEI/Middlewares/Third_Party/Huawei/iot_link/os/liteos/utils\rbtree.c **** }
 401:D:/fchai/work/i-cube/I-CUBE-HUAWEI/Middlewares/Third_Party/Huawei/iot_link/os/liteos/utils\rbtree.c **** 
 402:D:/fchai/work/i-cube/I-CUBE-HUAWEI/Middlewares/Third_Party/Huawei/iot_link/os/liteos/utils\rbtree.c **** /**
 403:D:/fchai/work/i-cube/I-CUBE-HUAWEI/Middlewares/Third_Party/Huawei/iot_link/os/liteos/utils\rbtree.c ****  * rb_next - find the next node
 404:D:/fchai/work/i-cube/I-CUBE-HUAWEI/Middlewares/Third_Party/Huawei/iot_link/os/liteos/utils\rbtree.c ****  * @t: the given node
 405:D:/fchai/work/i-cube/I-CUBE-HUAWEI/Middlewares/Third_Party/Huawei/iot_link/os/liteos/utils\rbtree.c ****  *
 406:D:/fchai/work/i-cube/I-CUBE-HUAWEI/Middlewares/Third_Party/Huawei/iot_link/os/liteos/utils\rbtree.c ****  * return: the next node, or NULL if the node is already last
 407:D:/fchai/work/i-cube/I-CUBE-HUAWEI/Middlewares/Third_Party/Huawei/iot_link/os/liteos/utils\rbtree.c ****  */
 408:D:/fchai/work/i-cube/I-CUBE-HUAWEI/Middlewares/Third_Party/Huawei/iot_link/os/liteos/utils\rbtree.c **** 
 409:D:/fchai/work/i-cube/I-CUBE-HUAWEI/Middlewares/Third_Party/Huawei/iot_link/os/liteos/utils\rbtree.c **** rb_node_t * rb_next (rb_node_t * n)
 410:D:/fchai/work/i-cube/I-CUBE-HUAWEI/Middlewares/Third_Party/Huawei/iot_link/os/liteos/utils\rbtree.c **** {
 411:D:/fchai/work/i-cube/I-CUBE-HUAWEI/Middlewares/Third_Party/Huawei/iot_link/os/liteos/utils\rbtree.c ****     return __successor (n);
 412:D:/fchai/work/i-cube/I-CUBE-HUAWEI/Middlewares/Third_Party/Huawei/iot_link/os/liteos/utils\rbtree.c **** }
 413:D:/fchai/work/i-cube/I-CUBE-HUAWEI/Middlewares/Third_Party/Huawei/iot_link/os/liteos/utils\rbtree.c **** 
 414:D:/fchai/work/i-cube/I-CUBE-HUAWEI/Middlewares/Third_Party/Huawei/iot_link/os/liteos/utils\rbtree.c **** /**
 415:D:/fchai/work/i-cube/I-CUBE-HUAWEI/Middlewares/Third_Party/Huawei/iot_link/os/liteos/utils\rbtree.c ****  * rb_prev - find the prevous node
 416:D:/fchai/work/i-cube/I-CUBE-HUAWEI/Middlewares/Third_Party/Huawei/iot_link/os/liteos/utils\rbtree.c ****  * @t: the given node
 417:D:/fchai/work/i-cube/I-CUBE-HUAWEI/Middlewares/Third_Party/Huawei/iot_link/os/liteos/utils\rbtree.c ****  *
 418:D:/fchai/work/i-cube/I-CUBE-HUAWEI/Middlewares/Third_Party/Huawei/iot_link/os/liteos/utils\rbtree.c ****  * return: the prevous node, or NULL if the node is already first
 419:D:/fchai/work/i-cube/I-CUBE-HUAWEI/Middlewares/Third_Party/Huawei/iot_link/os/liteos/utils\rbtree.c ****  */
 420:D:/fchai/work/i-cube/I-CUBE-HUAWEI/Middlewares/Third_Party/Huawei/iot_link/os/liteos/utils\rbtree.c **** 
 421:D:/fchai/work/i-cube/I-CUBE-HUAWEI/Middlewares/Third_Party/Huawei/iot_link/os/liteos/utils\rbtree.c **** rb_node_t * rb_prev (rb_node_t * n)
 422:D:/fchai/work/i-cube/I-CUBE-HUAWEI/Middlewares/Third_Party/Huawei/iot_link/os/liteos/utils\rbtree.c **** {
 423:D:/fchai/work/i-cube/I-CUBE-HUAWEI/Middlewares/Third_Party/Huawei/iot_link/os/liteos/utils\rbtree.c ****     return __predecessor (n);
 424:D:/fchai/work/i-cube/I-CUBE-HUAWEI/Middlewares/Third_Party/Huawei/iot_link/os/liteos/utils\rbtree.c **** }
 425:D:/fchai/work/i-cube/I-CUBE-HUAWEI/Middlewares/Third_Party/Huawei/iot_link/os/liteos/utils\rbtree.c **** 
 426:D:/fchai/work/i-cube/I-CUBE-HUAWEI/Middlewares/Third_Party/Huawei/iot_link/os/liteos/utils\rbtree.c **** /**
 427:D:/fchai/work/i-cube/I-CUBE-HUAWEI/Middlewares/Third_Party/Huawei/iot_link/os/liteos/utils\rbtree.c ****  * rb_replace - replace a new node in the same place
 428:D:/fchai/work/i-cube/I-CUBE-HUAWEI/Middlewares/Third_Party/Huawei/iot_link/os/liteos/utils\rbtree.c ****  * @t: the given tree
ARM GAS  T:\msys\tmp\cc3PruZ9.s 			page 9


 429:D:/fchai/work/i-cube/I-CUBE-HUAWEI/Middlewares/Third_Party/Huawei/iot_link/os/liteos/utils\rbtree.c ****  * @o: the old node to be replaced
 430:D:/fchai/work/i-cube/I-CUBE-HUAWEI/Middlewares/Third_Party/Huawei/iot_link/os/liteos/utils\rbtree.c ****  * @n: the new node
 431:D:/fchai/work/i-cube/I-CUBE-HUAWEI/Middlewares/Third_Party/Huawei/iot_link/os/liteos/utils\rbtree.c ****  *
 432:D:/fchai/work/i-cube/I-CUBE-HUAWEI/Middlewares/Third_Party/Huawei/iot_link/os/liteos/utils\rbtree.c ****  * return: the nearest node with key < <k>, NULL or key not found.
 433:D:/fchai/work/i-cube/I-CUBE-HUAWEI/Middlewares/Third_Party/Huawei/iot_link/os/liteos/utils\rbtree.c ****  */
 434:D:/fchai/work/i-cube/I-CUBE-HUAWEI/Middlewares/Third_Party/Huawei/iot_link/os/liteos/utils\rbtree.c **** 
 435:D:/fchai/work/i-cube/I-CUBE-HUAWEI/Middlewares/Third_Party/Huawei/iot_link/os/liteos/utils\rbtree.c **** void rb_replace (rb_tree_t * t, rb_node_t * o, rb_node_t * n)
 436:D:/fchai/work/i-cube/I-CUBE-HUAWEI/Middlewares/Third_Party/Huawei/iot_link/os/liteos/utils\rbtree.c **** {
 437:D:/fchai/work/i-cube/I-CUBE-HUAWEI/Middlewares/Third_Party/Huawei/iot_link/os/liteos/utils\rbtree.c ****     rb_node_t * p, * l, * r;
 438:D:/fchai/work/i-cube/I-CUBE-HUAWEI/Middlewares/Third_Party/Huawei/iot_link/os/liteos/utils\rbtree.c **** 
 439:D:/fchai/work/i-cube/I-CUBE-HUAWEI/Middlewares/Third_Party/Huawei/iot_link/os/liteos/utils\rbtree.c ****     *n = *o;
 440:D:/fchai/work/i-cube/I-CUBE-HUAWEI/Middlewares/Third_Party/Huawei/iot_link/os/liteos/utils\rbtree.c **** 
 441:D:/fchai/work/i-cube/I-CUBE-HUAWEI/Middlewares/Third_Party/Huawei/iot_link/os/liteos/utils\rbtree.c ****     p = __parent (n);
 442:D:/fchai/work/i-cube/I-CUBE-HUAWEI/Middlewares/Third_Party/Huawei/iot_link/os/liteos/utils\rbtree.c ****     l = __left (n);
 443:D:/fchai/work/i-cube/I-CUBE-HUAWEI/Middlewares/Third_Party/Huawei/iot_link/os/liteos/utils\rbtree.c ****     r = __right (n);
 444:D:/fchai/work/i-cube/I-CUBE-HUAWEI/Middlewares/Third_Party/Huawei/iot_link/os/liteos/utils\rbtree.c **** 
 445:D:/fchai/work/i-cube/I-CUBE-HUAWEI/Middlewares/Third_Party/Huawei/iot_link/os/liteos/utils\rbtree.c ****     if (l)
 446:D:/fchai/work/i-cube/I-CUBE-HUAWEI/Middlewares/Third_Party/Huawei/iot_link/os/liteos/utils\rbtree.c ****     {
 447:D:/fchai/work/i-cube/I-CUBE-HUAWEI/Middlewares/Third_Party/Huawei/iot_link/os/liteos/utils\rbtree.c ****         __set_parent (l, n);
 448:D:/fchai/work/i-cube/I-CUBE-HUAWEI/Middlewares/Third_Party/Huawei/iot_link/os/liteos/utils\rbtree.c ****     }
 449:D:/fchai/work/i-cube/I-CUBE-HUAWEI/Middlewares/Third_Party/Huawei/iot_link/os/liteos/utils\rbtree.c **** 
 450:D:/fchai/work/i-cube/I-CUBE-HUAWEI/Middlewares/Third_Party/Huawei/iot_link/os/liteos/utils\rbtree.c ****     if (r)
 451:D:/fchai/work/i-cube/I-CUBE-HUAWEI/Middlewares/Third_Party/Huawei/iot_link/os/liteos/utils\rbtree.c ****     {
 452:D:/fchai/work/i-cube/I-CUBE-HUAWEI/Middlewares/Third_Party/Huawei/iot_link/os/liteos/utils\rbtree.c ****         __set_parent (r, n);
 453:D:/fchai/work/i-cube/I-CUBE-HUAWEI/Middlewares/Third_Party/Huawei/iot_link/os/liteos/utils\rbtree.c ****     }
 454:D:/fchai/work/i-cube/I-CUBE-HUAWEI/Middlewares/Third_Party/Huawei/iot_link/os/liteos/utils\rbtree.c **** 
 455:D:/fchai/work/i-cube/I-CUBE-HUAWEI/Middlewares/Third_Party/Huawei/iot_link/os/liteos/utils\rbtree.c ****     if (!p)
 456:D:/fchai/work/i-cube/I-CUBE-HUAWEI/Middlewares/Third_Party/Huawei/iot_link/os/liteos/utils\rbtree.c ****     {
 457:D:/fchai/work/i-cube/I-CUBE-HUAWEI/Middlewares/Third_Party/Huawei/iot_link/os/liteos/utils\rbtree.c ****         t->bit.r = &n->bin;
 458:D:/fchai/work/i-cube/I-CUBE-HUAWEI/Middlewares/Third_Party/Huawei/iot_link/os/liteos/utils\rbtree.c ****         return;
 459:D:/fchai/work/i-cube/I-CUBE-HUAWEI/Middlewares/Third_Party/Huawei/iot_link/os/liteos/utils\rbtree.c ****     }
 460:D:/fchai/work/i-cube/I-CUBE-HUAWEI/Middlewares/Third_Party/Huawei/iot_link/os/liteos/utils\rbtree.c **** 
 461:D:/fchai/work/i-cube/I-CUBE-HUAWEI/Middlewares/Third_Party/Huawei/iot_link/os/liteos/utils\rbtree.c ****     if (__left (p) == o)
 462:D:/fchai/work/i-cube/I-CUBE-HUAWEI/Middlewares/Third_Party/Huawei/iot_link/os/liteos/utils\rbtree.c ****     {
 463:D:/fchai/work/i-cube/I-CUBE-HUAWEI/Middlewares/Third_Party/Huawei/iot_link/os/liteos/utils\rbtree.c ****         __set_left (p, n);
 464:D:/fchai/work/i-cube/I-CUBE-HUAWEI/Middlewares/Third_Party/Huawei/iot_link/os/liteos/utils\rbtree.c ****     }
 465:D:/fchai/work/i-cube/I-CUBE-HUAWEI/Middlewares/Third_Party/Huawei/iot_link/os/liteos/utils\rbtree.c ****     else
 466:D:/fchai/work/i-cube/I-CUBE-HUAWEI/Middlewares/Third_Party/Huawei/iot_link/os/liteos/utils\rbtree.c ****     {
 467:D:/fchai/work/i-cube/I-CUBE-HUAWEI/Middlewares/Third_Party/Huawei/iot_link/os/liteos/utils\rbtree.c ****         __set_right (p, n);
 468:D:/fchai/work/i-cube/I-CUBE-HUAWEI/Middlewares/Third_Party/Huawei/iot_link/os/liteos/utils\rbtree.c ****     }
 469:D:/fchai/work/i-cube/I-CUBE-HUAWEI/Middlewares/Third_Party/Huawei/iot_link/os/liteos/utils\rbtree.c **** }
 470:D:/fchai/work/i-cube/I-CUBE-HUAWEI/Middlewares/Third_Party/Huawei/iot_link/os/liteos/utils\rbtree.c **** 
 471:D:/fchai/work/i-cube/I-CUBE-HUAWEI/Middlewares/Third_Party/Huawei/iot_link/os/liteos/utils\rbtree.c **** /**
 472:D:/fchai/work/i-cube/I-CUBE-HUAWEI/Middlewares/Third_Party/Huawei/iot_link/os/liteos/utils\rbtree.c ****  * __rb_insadj - re-balance the tree after insertion
 473:D:/fchai/work/i-cube/I-CUBE-HUAWEI/Middlewares/Third_Party/Huawei/iot_link/os/liteos/utils\rbtree.c ****  * @t: the given tree
 474:D:/fchai/work/i-cube/I-CUBE-HUAWEI/Middlewares/Third_Party/Huawei/iot_link/os/liteos/utils\rbtree.c ****  * @n: the new inserted node
 475:D:/fchai/work/i-cube/I-CUBE-HUAWEI/Middlewares/Third_Party/Huawei/iot_link/os/liteos/utils\rbtree.c ****  *
 476:D:/fchai/work/i-cube/I-CUBE-HUAWEI/Middlewares/Third_Party/Huawei/iot_link/os/liteos/utils\rbtree.c ****  * return: NA
 477:D:/fchai/work/i-cube/I-CUBE-HUAWEI/Middlewares/Third_Party/Huawei/iot_link/os/liteos/utils\rbtree.c ****  */
 478:D:/fchai/work/i-cube/I-CUBE-HUAWEI/Middlewares/Third_Party/Huawei/iot_link/os/liteos/utils\rbtree.c **** 
 479:D:/fchai/work/i-cube/I-CUBE-HUAWEI/Middlewares/Third_Party/Huawei/iot_link/os/liteos/utils\rbtree.c **** static void __rb_insadj (rb_tree_t * t, rb_node_t * n)
 480:D:/fchai/work/i-cube/I-CUBE-HUAWEI/Middlewares/Third_Party/Huawei/iot_link/os/liteos/utils\rbtree.c **** {
  30              		.loc 1 480 1 view -0
  31              		.cfi_startproc
  32              		@ args = 0, pretend = 0, frame = 0
  33              		@ frame_needed = 0, uses_anonymous_args = 0
  34              		@ link register save eliminated.
ARM GAS  T:\msys\tmp\cc3PruZ9.s 			page 10


 481:D:/fchai/work/i-cube/I-CUBE-HUAWEI/Middlewares/Third_Party/Huawei/iot_link/os/liteos/utils\rbtree.c ****     rb_node_t * p, * g, * u;
  35              		.loc 1 481 5 view .LVU1
 482:D:/fchai/work/i-cube/I-CUBE-HUAWEI/Middlewares/Third_Party/Huawei/iot_link/os/liteos/utils\rbtree.c **** 
 483:D:/fchai/work/i-cube/I-CUBE-HUAWEI/Middlewares/Third_Party/Huawei/iot_link/os/liteos/utils\rbtree.c ****     while (1)
  36              		.loc 1 483 5 view .LVU2
 484:D:/fchai/work/i-cube/I-CUBE-HUAWEI/Middlewares/Third_Party/Huawei/iot_link/os/liteos/utils\rbtree.c ****     {
 485:D:/fchai/work/i-cube/I-CUBE-HUAWEI/Middlewares/Third_Party/Huawei/iot_link/os/liteos/utils\rbtree.c ****         p = __parent (n);
  37              		.loc 1 485 9 view .LVU3
  38              		.loc 1 485 13 is_stmt 0 view .LVU4
  39 0000 0B68     		ldr	r3, [r1]
  40              	.LVL1:
 149:D:/fchai/work/i-cube/I-CUBE-HUAWEI/Middlewares/Third_Party/Huawei/iot_link/os/liteos/utils\rbtree.c **** }
  41              		.loc 1 149 5 is_stmt 1 view .LVU5
 486:D:/fchai/work/i-cube/I-CUBE-HUAWEI/Middlewares/Third_Party/Huawei/iot_link/os/liteos/utils\rbtree.c **** 
 487:D:/fchai/work/i-cube/I-CUBE-HUAWEI/Middlewares/Third_Party/Huawei/iot_link/os/liteos/utils\rbtree.c ****         if (p == NULL)
  42              		.loc 1 487 9 view .LVU6
  43              		.loc 1 487 12 is_stmt 0 view .LVU7
  44 0002 002B     		cmp	r3, #0
  45 0004 64D0     		beq	.L44
 480:D:/fchai/work/i-cube/I-CUBE-HUAWEI/Middlewares/Third_Party/Huawei/iot_link/os/liteos/utils\rbtree.c ****     rb_node_t * p, * g, * u;
  46              		.loc 1 480 1 view .LVU8
  47 0006 F0B4     		push	{r4, r5, r6, r7}
  48              	.LCFI0:
  49              		.cfi_def_cfa_offset 16
  50              		.cfi_offset 4, -16
  51              		.cfi_offset 5, -12
  52              		.cfi_offset 6, -8
  53              		.cfi_offset 7, -4
  54              	.LBB459:
  55              	.LBB460:
  56              	.LBB461:
 113:D:/fchai/work/i-cube/I-CUBE-HUAWEI/Middlewares/Third_Party/Huawei/iot_link/os/liteos/utils\rbtree.c **** }
  57              		.loc 1 113 10 view .LVU9
  58 0008 4FF0010C 		mov	ip, #1
  59              	.LBE461:
  60              	.LBE460:
  61              	.LBE459:
  62              	.LBB466:
  63              	.LBB467:
  64              	.LBB468:
  65 000c 0026     		movs	r6, #0
  66              	.L2:
  67              	.LVL2:
 113:D:/fchai/work/i-cube/I-CUBE-HUAWEI/Middlewares/Third_Party/Huawei/iot_link/os/liteos/utils\rbtree.c **** }
  68              		.loc 1 113 10 view .LVU10
  69              	.LBE468:
  70              	.LBE467:
  71              	.LBE466:
 488:D:/fchai/work/i-cube/I-CUBE-HUAWEI/Middlewares/Third_Party/Huawei/iot_link/os/liteos/utils\rbtree.c ****         {
 489:D:/fchai/work/i-cube/I-CUBE-HUAWEI/Middlewares/Third_Party/Huawei/iot_link/os/liteos/utils\rbtree.c ****             __set_black (n);
 490:D:/fchai/work/i-cube/I-CUBE-HUAWEI/Middlewares/Third_Party/Huawei/iot_link/os/liteos/utils\rbtree.c ****             return;
 491:D:/fchai/work/i-cube/I-CUBE-HUAWEI/Middlewares/Third_Party/Huawei/iot_link/os/liteos/utils\rbtree.c ****         }
 492:D:/fchai/work/i-cube/I-CUBE-HUAWEI/Middlewares/Third_Party/Huawei/iot_link/os/liteos/utils\rbtree.c **** 
 493:D:/fchai/work/i-cube/I-CUBE-HUAWEI/Middlewares/Third_Party/Huawei/iot_link/os/liteos/utils\rbtree.c ****         if (__raw_is_black (p))
  72              		.loc 1 493 9 is_stmt 1 view .LVU11
  73              	.LBB473:
  74              	.LBI473:
ARM GAS  T:\msys\tmp\cc3PruZ9.s 			page 11


  86:D:/fchai/work/i-cube/I-CUBE-HUAWEI/Middlewares/Third_Party/Huawei/iot_link/os/liteos/utils\rbtree.c **** {
  75              		.loc 1 86 19 view .LVU12
  76              	.LBB474:
  88:D:/fchai/work/i-cube/I-CUBE-HUAWEI/Middlewares/Third_Party/Huawei/iot_link/os/liteos/utils\rbtree.c **** }
  77              		.loc 1 88 5 view .LVU13
  88:D:/fchai/work/i-cube/I-CUBE-HUAWEI/Middlewares/Third_Party/Huawei/iot_link/os/liteos/utils\rbtree.c **** }
  78              		.loc 1 88 5 is_stmt 0 view .LVU14
  79              	.LBE474:
  80              	.LBE473:
  52:D:/fchai/work/i-cube/I-CUBE-HUAWEI/Middlewares/Third_Party/Huawei/iot_link/os/liteos/utils\rbtree.c **** }
  81              		.loc 1 52 5 is_stmt 1 view .LVU15
 494:D:/fchai/work/i-cube/I-CUBE-HUAWEI/Middlewares/Third_Party/Huawei/iot_link/os/liteos/utils\rbtree.c ****         {
 495:D:/fchai/work/i-cube/I-CUBE-HUAWEI/Middlewares/Third_Party/Huawei/iot_link/os/liteos/utils\rbtree.c ****             return;
 496:D:/fchai/work/i-cube/I-CUBE-HUAWEI/Middlewares/Third_Party/Huawei/iot_link/os/liteos/utils\rbtree.c ****         }
 497:D:/fchai/work/i-cube/I-CUBE-HUAWEI/Middlewares/Third_Party/Huawei/iot_link/os/liteos/utils\rbtree.c **** 
 498:D:/fchai/work/i-cube/I-CUBE-HUAWEI/Middlewares/Third_Party/Huawei/iot_link/os/liteos/utils\rbtree.c ****         /*
 499:D:/fchai/work/i-cube/I-CUBE-HUAWEI/Middlewares/Third_Party/Huawei/iot_link/os/liteos/utils\rbtree.c ****          * when we reach here, the parent is red, so:
 500:D:/fchai/work/i-cube/I-CUBE-HUAWEI/Middlewares/Third_Party/Huawei/iot_link/os/liteos/utils\rbtree.c ****          * 1) the parent must not be root
 501:D:/fchai/work/i-cube/I-CUBE-HUAWEI/Middlewares/Third_Party/Huawei/iot_link/os/liteos/utils\rbtree.c ****          * 2) the grand father mast not be NULL
 502:D:/fchai/work/i-cube/I-CUBE-HUAWEI/Middlewares/Third_Party/Huawei/iot_link/os/liteos/utils\rbtree.c ****          * 3) the grand father must be black
 503:D:/fchai/work/i-cube/I-CUBE-HUAWEI/Middlewares/Third_Party/Huawei/iot_link/os/liteos/utils\rbtree.c ****          */
 504:D:/fchai/work/i-cube/I-CUBE-HUAWEI/Middlewares/Third_Party/Huawei/iot_link/os/liteos/utils\rbtree.c **** 
 505:D:/fchai/work/i-cube/I-CUBE-HUAWEI/Middlewares/Third_Party/Huawei/iot_link/os/liteos/utils\rbtree.c ****         g = __raw_grand (n);
  82              		.loc 1 505 9 view .LVU16
  83              	.LBB475:
  84              	.LBI475:
 246:D:/fchai/work/i-cube/I-CUBE-HUAWEI/Middlewares/Third_Party/Huawei/iot_link/os/liteos/utils\rbtree.c **** {
  85              		.loc 1 246 27 view .LVU17
  86              	.LBE475:
 248:D:/fchai/work/i-cube/I-CUBE-HUAWEI/Middlewares/Third_Party/Huawei/iot_link/os/liteos/utils\rbtree.c **** }
  87              		.loc 1 248 5 view .LVU18
  88              	.LBB482:
  89              	.LBB476:
  90              	.LBI476:
  91              		.file 2 "D:/fchai/work/i-cube/I-CUBE-HUAWEI/Middlewares/Third_Party/Huawei/iot_link/os/liteos/base
   1:D:/fchai/work/i-cube/I-CUBE-HUAWEI/Middlewares/Third_Party/Huawei/iot_link/os/liteos/base/include\__binary_tree.h **** /*----------------------------------------------------------------------------
   2:D:/fchai/work/i-cube/I-CUBE-HUAWEI/Middlewares/Third_Party/Huawei/iot_link/os/liteos/base/include\__binary_tree.h ****  * Copyright (c) <2018>, <Huawei Technologies Co., Ltd>
   3:D:/fchai/work/i-cube/I-CUBE-HUAWEI/Middlewares/Third_Party/Huawei/iot_link/os/liteos/base/include\__binary_tree.h ****  * All rights reserved.
   4:D:/fchai/work/i-cube/I-CUBE-HUAWEI/Middlewares/Third_Party/Huawei/iot_link/os/liteos/base/include\__binary_tree.h ****  * Redistribution and use in source and binary forms, with or without modification,
   5:D:/fchai/work/i-cube/I-CUBE-HUAWEI/Middlewares/Third_Party/Huawei/iot_link/os/liteos/base/include\__binary_tree.h ****  * are permitted provided that the following conditions are met:
   6:D:/fchai/work/i-cube/I-CUBE-HUAWEI/Middlewares/Third_Party/Huawei/iot_link/os/liteos/base/include\__binary_tree.h ****  * 1. Redistributions of source code must retain the above copyright notice, this list of
   7:D:/fchai/work/i-cube/I-CUBE-HUAWEI/Middlewares/Third_Party/Huawei/iot_link/os/liteos/base/include\__binary_tree.h ****  * conditions and the following disclaimer.
   8:D:/fchai/work/i-cube/I-CUBE-HUAWEI/Middlewares/Third_Party/Huawei/iot_link/os/liteos/base/include\__binary_tree.h ****  * 2. Redistributions in binary form must reproduce the above copyright notice, this list
   9:D:/fchai/work/i-cube/I-CUBE-HUAWEI/Middlewares/Third_Party/Huawei/iot_link/os/liteos/base/include\__binary_tree.h ****  * of conditions and the following disclaimer in the documentation and/or other materials
  10:D:/fchai/work/i-cube/I-CUBE-HUAWEI/Middlewares/Third_Party/Huawei/iot_link/os/liteos/base/include\__binary_tree.h ****  * provided with the distribution.
  11:D:/fchai/work/i-cube/I-CUBE-HUAWEI/Middlewares/Third_Party/Huawei/iot_link/os/liteos/base/include\__binary_tree.h ****  * 3. Neither the name of the copyright holder nor the names of its contributors may be used
  12:D:/fchai/work/i-cube/I-CUBE-HUAWEI/Middlewares/Third_Party/Huawei/iot_link/os/liteos/base/include\__binary_tree.h ****  * to endorse or promote products derived from this software without specific prior written
  13:D:/fchai/work/i-cube/I-CUBE-HUAWEI/Middlewares/Third_Party/Huawei/iot_link/os/liteos/base/include\__binary_tree.h ****  * permission.
  14:D:/fchai/work/i-cube/I-CUBE-HUAWEI/Middlewares/Third_Party/Huawei/iot_link/os/liteos/base/include\__binary_tree.h ****  * THIS SOFTWARE IS PROVIDED BY THE COPYRIGHT HOLDERS AND CONTRIBUTORS
  15:D:/fchai/work/i-cube/I-CUBE-HUAWEI/Middlewares/Third_Party/Huawei/iot_link/os/liteos/base/include\__binary_tree.h ****  * "AS IS" AND ANY EXPRESS OR IMPLIED WARRANTIES, INCLUDING, BUT NOT LIMITED TO,
  16:D:/fchai/work/i-cube/I-CUBE-HUAWEI/Middlewares/Third_Party/Huawei/iot_link/os/liteos/base/include\__binary_tree.h ****  * THE IMPLIED WARRANTIES OF MERCHANTABILITY AND FITNESS FOR A PARTICULAR
  17:D:/fchai/work/i-cube/I-CUBE-HUAWEI/Middlewares/Third_Party/Huawei/iot_link/os/liteos/base/include\__binary_tree.h ****  * PURPOSE ARE DISCLAIMED. IN NO EVENT SHALL THE COPYRIGHT HOLDER OR
  18:D:/fchai/work/i-cube/I-CUBE-HUAWEI/Middlewares/Third_Party/Huawei/iot_link/os/liteos/base/include\__binary_tree.h ****  * CONTRIBUTORS BE LIABLE FOR ANY DIRECT, INDIRECT, INCIDENTAL, SPECIAL,
  19:D:/fchai/work/i-cube/I-CUBE-HUAWEI/Middlewares/Third_Party/Huawei/iot_link/os/liteos/base/include\__binary_tree.h ****  * EXEMPLARY, OR CONSEQUENTIAL DAMAGES (INCLUDING, BUT NOT LIMITED TO,
  20:D:/fchai/work/i-cube/I-CUBE-HUAWEI/Middlewares/Third_Party/Huawei/iot_link/os/liteos/base/include\__binary_tree.h ****  * PROCUREMENT OF SUBSTITUTE GOODS OR SERVICES; LOSS OF USE, DATA, OR PROFITS;
  21:D:/fchai/work/i-cube/I-CUBE-HUAWEI/Middlewares/Third_Party/Huawei/iot_link/os/liteos/base/include\__binary_tree.h ****  * OR BUSINESS INTERRUPTION) HOWEVER CAUSED AND ON ANY THEORY OF LIABILITY,
  22:D:/fchai/work/i-cube/I-CUBE-HUAWEI/Middlewares/Third_Party/Huawei/iot_link/os/liteos/base/include\__binary_tree.h ****  * WHETHER IN CONTRACT, STRICT LIABILITY, OR TORT (INCLUDING NEGLIGENCE OR
ARM GAS  T:\msys\tmp\cc3PruZ9.s 			page 12


  23:D:/fchai/work/i-cube/I-CUBE-HUAWEI/Middlewares/Third_Party/Huawei/iot_link/os/liteos/base/include\__binary_tree.h ****  * OTHERWISE) ARISING IN ANY WAY OUT OF THE USE OF THIS SOFTWARE, EVEN IF
  24:D:/fchai/work/i-cube/I-CUBE-HUAWEI/Middlewares/Third_Party/Huawei/iot_link/os/liteos/base/include\__binary_tree.h ****  * ADVISED OF THE POSSIBILITY OF SUCH DAMAGE.
  25:D:/fchai/work/i-cube/I-CUBE-HUAWEI/Middlewares/Third_Party/Huawei/iot_link/os/liteos/base/include\__binary_tree.h ****  *---------------------------------------------------------------------------*/
  26:D:/fchai/work/i-cube/I-CUBE-HUAWEI/Middlewares/Third_Party/Huawei/iot_link/os/liteos/base/include\__binary_tree.h **** /*----------------------------------------------------------------------------
  27:D:/fchai/work/i-cube/I-CUBE-HUAWEI/Middlewares/Third_Party/Huawei/iot_link/os/liteos/base/include\__binary_tree.h ****  * Notice of Export Control Law
  28:D:/fchai/work/i-cube/I-CUBE-HUAWEI/Middlewares/Third_Party/Huawei/iot_link/os/liteos/base/include\__binary_tree.h ****  * ===============================================
  29:D:/fchai/work/i-cube/I-CUBE-HUAWEI/Middlewares/Third_Party/Huawei/iot_link/os/liteos/base/include\__binary_tree.h ****  * Huawei LiteOS may be subject to applicable export control laws and regulations, which might
  30:D:/fchai/work/i-cube/I-CUBE-HUAWEI/Middlewares/Third_Party/Huawei/iot_link/os/liteos/base/include\__binary_tree.h ****  * include those applicable to Huawei LiteOS of U.S. and the country in which you are located.
  31:D:/fchai/work/i-cube/I-CUBE-HUAWEI/Middlewares/Third_Party/Huawei/iot_link/os/liteos/base/include\__binary_tree.h ****  * Import, export and usage of Huawei LiteOS in any manner by you shall be in compliance with such
  32:D:/fchai/work/i-cube/I-CUBE-HUAWEI/Middlewares/Third_Party/Huawei/iot_link/os/liteos/base/include\__binary_tree.h ****  * applicable export control laws and regulations.
  33:D:/fchai/work/i-cube/I-CUBE-HUAWEI/Middlewares/Third_Party/Huawei/iot_link/os/liteos/base/include\__binary_tree.h ****  *---------------------------------------------------------------------------*/
  34:D:/fchai/work/i-cube/I-CUBE-HUAWEI/Middlewares/Third_Party/Huawei/iot_link/os/liteos/base/include\__binary_tree.h **** 
  35:D:/fchai/work/i-cube/I-CUBE-HUAWEI/Middlewares/Third_Party/Huawei/iot_link/os/liteos/base/include\__binary_tree.h **** #ifndef __BINARY_TREE_H__
  36:D:/fchai/work/i-cube/I-CUBE-HUAWEI/Middlewares/Third_Party/Huawei/iot_link/os/liteos/base/include\__binary_tree.h **** #define __BINARY_TREE_H__
  37:D:/fchai/work/i-cube/I-CUBE-HUAWEI/Middlewares/Third_Party/Huawei/iot_link/os/liteos/base/include\__binary_tree.h **** 
  38:D:/fchai/work/i-cube/I-CUBE-HUAWEI/Middlewares/Third_Party/Huawei/iot_link/os/liteos/base/include\__binary_tree.h **** #include <stddef.h>
  39:D:/fchai/work/i-cube/I-CUBE-HUAWEI/Middlewares/Third_Party/Huawei/iot_link/os/liteos/base/include\__binary_tree.h **** #include <stdint.h>
  40:D:/fchai/work/i-cube/I-CUBE-HUAWEI/Middlewares/Third_Party/Huawei/iot_link/os/liteos/base/include\__binary_tree.h **** #include <stdbool.h>
  41:D:/fchai/work/i-cube/I-CUBE-HUAWEI/Middlewares/Third_Party/Huawei/iot_link/os/liteos/base/include\__binary_tree.h **** 
  42:D:/fchai/work/i-cube/I-CUBE-HUAWEI/Middlewares/Third_Party/Huawei/iot_link/os/liteos/base/include\__binary_tree.h **** #include "los_common.h"
  43:D:/fchai/work/i-cube/I-CUBE-HUAWEI/Middlewares/Third_Party/Huawei/iot_link/os/liteos/base/include\__binary_tree.h **** 
  44:D:/fchai/work/i-cube/I-CUBE-HUAWEI/Middlewares/Third_Party/Huawei/iot_link/os/liteos/base/include\__binary_tree.h **** typedef struct bi_node
  45:D:/fchai/work/i-cube/I-CUBE-HUAWEI/Middlewares/Third_Party/Huawei/iot_link/os/liteos/base/include\__binary_tree.h **** {
  46:D:/fchai/work/i-cube/I-CUBE-HUAWEI/Middlewares/Third_Party/Huawei/iot_link/os/liteos/base/include\__binary_tree.h ****     struct bi_node     * p;     /* parent       */
  47:D:/fchai/work/i-cube/I-CUBE-HUAWEI/Middlewares/Third_Party/Huawei/iot_link/os/liteos/base/include\__binary_tree.h ****     struct bi_node     * l;     /* left         */
  48:D:/fchai/work/i-cube/I-CUBE-HUAWEI/Middlewares/Third_Party/Huawei/iot_link/os/liteos/base/include\__binary_tree.h ****     struct bi_node     * r;     /* right        */
  49:D:/fchai/work/i-cube/I-CUBE-HUAWEI/Middlewares/Third_Party/Huawei/iot_link/os/liteos/base/include\__binary_tree.h **** } bi_node_t;
  50:D:/fchai/work/i-cube/I-CUBE-HUAWEI/Middlewares/Third_Party/Huawei/iot_link/os/liteos/base/include\__binary_tree.h **** 
  51:D:/fchai/work/i-cube/I-CUBE-HUAWEI/Middlewares/Third_Party/Huawei/iot_link/os/liteos/base/include\__binary_tree.h **** typedef struct bi_tree
  52:D:/fchai/work/i-cube/I-CUBE-HUAWEI/Middlewares/Third_Party/Huawei/iot_link/os/liteos/base/include\__binary_tree.h **** {
  53:D:/fchai/work/i-cube/I-CUBE-HUAWEI/Middlewares/Third_Party/Huawei/iot_link/os/liteos/base/include\__binary_tree.h ****     bi_node_t          * r;     /* root         */
  54:D:/fchai/work/i-cube/I-CUBE-HUAWEI/Middlewares/Third_Party/Huawei/iot_link/os/liteos/base/include\__binary_tree.h **** 
  55:D:/fchai/work/i-cube/I-CUBE-HUAWEI/Middlewares/Third_Party/Huawei/iot_link/os/liteos/base/include\__binary_tree.h ****     /*
  56:D:/fchai/work/i-cube/I-CUBE-HUAWEI/Middlewares/Third_Party/Huawei/iot_link/os/liteos/base/include\__binary_tree.h ****      * compare two nodes or a node with a key to determine which is bigger,
  57:D:/fchai/work/i-cube/I-CUBE-HUAWEI/Middlewares/Third_Party/Huawei/iot_link/os/liteos/base/include\__binary_tree.h ****      *
  58:D:/fchai/work/i-cube/I-CUBE-HUAWEI/Middlewares/Third_Party/Huawei/iot_link/os/liteos/base/include\__binary_tree.h ****      * returning negative values means 'a < b' or 'n->k < k'
  59:D:/fchai/work/i-cube/I-CUBE-HUAWEI/Middlewares/Third_Party/Huawei/iot_link/os/liteos/base/include\__binary_tree.h ****      * returning positive values means 'a > b' or 'n->k > k'
  60:D:/fchai/work/i-cube/I-CUBE-HUAWEI/Middlewares/Third_Party/Huawei/iot_link/os/liteos/base/include\__binary_tree.h ****      * returning zero means 'a == b' or 'n->k == k'
  61:D:/fchai/work/i-cube/I-CUBE-HUAWEI/Middlewares/Third_Party/Huawei/iot_link/os/liteos/base/include\__binary_tree.h ****      */
  62:D:/fchai/work/i-cube/I-CUBE-HUAWEI/Middlewares/Third_Party/Huawei/iot_link/os/liteos/base/include\__binary_tree.h **** 
  63:D:/fchai/work/i-cube/I-CUBE-HUAWEI/Middlewares/Third_Party/Huawei/iot_link/os/liteos/base/include\__binary_tree.h ****     int               (* compare_nn) (bi_node_t * a, bi_node_t * b);
  64:D:/fchai/work/i-cube/I-CUBE-HUAWEI/Middlewares/Third_Party/Huawei/iot_link/os/liteos/base/include\__binary_tree.h ****     int               (* compare_nk) (bi_node_t * n, uintptr_t k);
  65:D:/fchai/work/i-cube/I-CUBE-HUAWEI/Middlewares/Third_Party/Huawei/iot_link/os/liteos/base/include\__binary_tree.h **** } bi_tree_t;
  66:D:/fchai/work/i-cube/I-CUBE-HUAWEI/Middlewares/Third_Party/Huawei/iot_link/os/liteos/base/include\__binary_tree.h **** 
  67:D:/fchai/work/i-cube/I-CUBE-HUAWEI/Middlewares/Third_Party/Huawei/iot_link/os/liteos/base/include\__binary_tree.h **** /* defines */
  68:D:/fchai/work/i-cube/I-CUBE-HUAWEI/Middlewares/Third_Party/Huawei/iot_link/os/liteos/base/include\__binary_tree.h **** 
  69:D:/fchai/work/i-cube/I-CUBE-HUAWEI/Middlewares/Third_Party/Huawei/iot_link/os/liteos/base/include\__binary_tree.h **** /**
  70:D:/fchai/work/i-cube/I-CUBE-HUAWEI/Middlewares/Third_Party/Huawei/iot_link/os/liteos/base/include\__binary_tree.h ****  * __bit_parent - get the parent for a node, assume n is not NULL
  71:D:/fchai/work/i-cube/I-CUBE-HUAWEI/Middlewares/Third_Party/Huawei/iot_link/os/liteos/base/include\__binary_tree.h ****  * @n: the given node
  72:D:/fchai/work/i-cube/I-CUBE-HUAWEI/Middlewares/Third_Party/Huawei/iot_link/os/liteos/base/include\__binary_tree.h ****  *
  73:D:/fchai/work/i-cube/I-CUBE-HUAWEI/Middlewares/Third_Party/Huawei/iot_link/os/liteos/base/include\__binary_tree.h ****  * return: the parent of the node <n>
  74:D:/fchai/work/i-cube/I-CUBE-HUAWEI/Middlewares/Third_Party/Huawei/iot_link/os/liteos/base/include\__binary_tree.h ****  */
  75:D:/fchai/work/i-cube/I-CUBE-HUAWEI/Middlewares/Third_Party/Huawei/iot_link/os/liteos/base/include\__binary_tree.h **** 
  76:D:/fchai/work/i-cube/I-CUBE-HUAWEI/Middlewares/Third_Party/Huawei/iot_link/os/liteos/base/include\__binary_tree.h **** static inline bi_node_t * __bit_parent (bi_node_t * n)
  77:D:/fchai/work/i-cube/I-CUBE-HUAWEI/Middlewares/Third_Party/Huawei/iot_link/os/liteos/base/include\__binary_tree.h **** {
  78:D:/fchai/work/i-cube/I-CUBE-HUAWEI/Middlewares/Third_Party/Huawei/iot_link/os/liteos/base/include\__binary_tree.h ****     return n->p;
  79:D:/fchai/work/i-cube/I-CUBE-HUAWEI/Middlewares/Third_Party/Huawei/iot_link/os/liteos/base/include\__binary_tree.h **** }
ARM GAS  T:\msys\tmp\cc3PruZ9.s 			page 13


  80:D:/fchai/work/i-cube/I-CUBE-HUAWEI/Middlewares/Third_Party/Huawei/iot_link/os/liteos/base/include\__binary_tree.h **** 
  81:D:/fchai/work/i-cube/I-CUBE-HUAWEI/Middlewares/Third_Party/Huawei/iot_link/os/liteos/base/include\__binary_tree.h **** /**
  82:D:/fchai/work/i-cube/I-CUBE-HUAWEI/Middlewares/Third_Party/Huawei/iot_link/os/liteos/base/include\__binary_tree.h ****  * __bit_set_parent - set the parent for a node, assume n is not NULL
  83:D:/fchai/work/i-cube/I-CUBE-HUAWEI/Middlewares/Third_Party/Huawei/iot_link/os/liteos/base/include\__binary_tree.h ****  * @n: the given node
  84:D:/fchai/work/i-cube/I-CUBE-HUAWEI/Middlewares/Third_Party/Huawei/iot_link/os/liteos/base/include\__binary_tree.h ****  *
  85:D:/fchai/work/i-cube/I-CUBE-HUAWEI/Middlewares/Third_Party/Huawei/iot_link/os/liteos/base/include\__binary_tree.h ****  * return: NA
  86:D:/fchai/work/i-cube/I-CUBE-HUAWEI/Middlewares/Third_Party/Huawei/iot_link/os/liteos/base/include\__binary_tree.h ****  */
  87:D:/fchai/work/i-cube/I-CUBE-HUAWEI/Middlewares/Third_Party/Huawei/iot_link/os/liteos/base/include\__binary_tree.h **** 
  88:D:/fchai/work/i-cube/I-CUBE-HUAWEI/Middlewares/Third_Party/Huawei/iot_link/os/liteos/base/include\__binary_tree.h **** static inline void __bit_set_parent (bi_node_t * n, bi_node_t * p)
  89:D:/fchai/work/i-cube/I-CUBE-HUAWEI/Middlewares/Third_Party/Huawei/iot_link/os/liteos/base/include\__binary_tree.h **** {
  90:D:/fchai/work/i-cube/I-CUBE-HUAWEI/Middlewares/Third_Party/Huawei/iot_link/os/liteos/base/include\__binary_tree.h ****     n->p = p;
  91:D:/fchai/work/i-cube/I-CUBE-HUAWEI/Middlewares/Third_Party/Huawei/iot_link/os/liteos/base/include\__binary_tree.h **** }
  92:D:/fchai/work/i-cube/I-CUBE-HUAWEI/Middlewares/Third_Party/Huawei/iot_link/os/liteos/base/include\__binary_tree.h **** 
  93:D:/fchai/work/i-cube/I-CUBE-HUAWEI/Middlewares/Third_Party/Huawei/iot_link/os/liteos/base/include\__binary_tree.h **** /**
  94:D:/fchai/work/i-cube/I-CUBE-HUAWEI/Middlewares/Third_Party/Huawei/iot_link/os/liteos/base/include\__binary_tree.h ****  * __bit_raw_grand - get the grand parent for a node, assume n and p(n) are not NULL
  95:D:/fchai/work/i-cube/I-CUBE-HUAWEI/Middlewares/Third_Party/Huawei/iot_link/os/liteos/base/include\__binary_tree.h ****  * @n: the given node
  96:D:/fchai/work/i-cube/I-CUBE-HUAWEI/Middlewares/Third_Party/Huawei/iot_link/os/liteos/base/include\__binary_tree.h ****  *
  97:D:/fchai/work/i-cube/I-CUBE-HUAWEI/Middlewares/Third_Party/Huawei/iot_link/os/liteos/base/include\__binary_tree.h ****  * return: the grand parent of the node <n>
  98:D:/fchai/work/i-cube/I-CUBE-HUAWEI/Middlewares/Third_Party/Huawei/iot_link/os/liteos/base/include\__binary_tree.h ****  */
  99:D:/fchai/work/i-cube/I-CUBE-HUAWEI/Middlewares/Third_Party/Huawei/iot_link/os/liteos/base/include\__binary_tree.h **** 
 100:D:/fchai/work/i-cube/I-CUBE-HUAWEI/Middlewares/Third_Party/Huawei/iot_link/os/liteos/base/include\__binary_tree.h **** static inline bi_node_t * __bit_raw_grand (bi_node_t * n)
  92              		.loc 2 100 27 view .LVU19
  93              	.LBB477:
 101:D:/fchai/work/i-cube/I-CUBE-HUAWEI/Middlewares/Third_Party/Huawei/iot_link/os/liteos/base/include\__binary_tree.h **** {
 102:D:/fchai/work/i-cube/I-CUBE-HUAWEI/Middlewares/Third_Party/Huawei/iot_link/os/liteos/base/include\__binary_tree.h ****     return __bit_parent (__bit_parent (n));
  94              		.loc 2 102 5 view .LVU20
  95              		.loc 2 102 5 is_stmt 0 view .LVU21
  96              	.LBE477:
  97              	.LBE476:
  98              	.LBE482:
  78:D:/fchai/work/i-cube/I-CUBE-HUAWEI/Middlewares/Third_Party/Huawei/iot_link/os/liteos/base/include\__binary_tree.h **** }
  99              		.loc 2 78 5 is_stmt 1 view .LVU22
 493:D:/fchai/work/i-cube/I-CUBE-HUAWEI/Middlewares/Third_Party/Huawei/iot_link/os/liteos/utils\rbtree.c ****         {
 100              		.loc 1 493 12 is_stmt 0 view .LVU23
 101 000e DA68     		ldr	r2, [r3, #12]
 102 0010 012A     		cmp	r2, #1
 103 0012 21D0     		beq	.L1
 104              	.LBB483:
 105              	.LBB480:
 106              	.LBB478:
 107              		.loc 2 102 12 view .LVU24
 108 0014 1A68     		ldr	r2, [r3]
 109              	.LVL3:
 110              		.loc 2 102 12 view .LVU25
 111              	.LBE478:
 112              	.LBE480:
 113              	.LBE483:
  78:D:/fchai/work/i-cube/I-CUBE-HUAWEI/Middlewares/Third_Party/Huawei/iot_link/os/liteos/base/include\__binary_tree.h **** }
 114              		.loc 2 78 5 is_stmt 1 view .LVU26
 506:D:/fchai/work/i-cube/I-CUBE-HUAWEI/Middlewares/Third_Party/Huawei/iot_link/os/liteos/utils\rbtree.c ****         u = __raw_uncle (n);
 115              		.loc 1 506 9 view .LVU27
 116              	.LBB484:
 117              	.LBI484:
 258:D:/fchai/work/i-cube/I-CUBE-HUAWEI/Middlewares/Third_Party/Huawei/iot_link/os/liteos/utils\rbtree.c **** {
 118              		.loc 1 258 27 view .LVU28
 119              	.LBE484:
 260:D:/fchai/work/i-cube/I-CUBE-HUAWEI/Middlewares/Third_Party/Huawei/iot_link/os/liteos/utils\rbtree.c **** }
ARM GAS  T:\msys\tmp\cc3PruZ9.s 			page 14


 120              		.loc 1 260 5 view .LVU29
 121              	.LBB493:
 122              	.LBB485:
 123              	.LBI485:
 103:D:/fchai/work/i-cube/I-CUBE-HUAWEI/Middlewares/Third_Party/Huawei/iot_link/os/liteos/base/include\__binary_tree.h **** }
 104:D:/fchai/work/i-cube/I-CUBE-HUAWEI/Middlewares/Third_Party/Huawei/iot_link/os/liteos/base/include\__binary_tree.h **** 
 105:D:/fchai/work/i-cube/I-CUBE-HUAWEI/Middlewares/Third_Party/Huawei/iot_link/os/liteos/base/include\__binary_tree.h **** /**
 106:D:/fchai/work/i-cube/I-CUBE-HUAWEI/Middlewares/Third_Party/Huawei/iot_link/os/liteos/base/include\__binary_tree.h ****  * __bit_grand - get the grand parent for a node
 107:D:/fchai/work/i-cube/I-CUBE-HUAWEI/Middlewares/Third_Party/Huawei/iot_link/os/liteos/base/include\__binary_tree.h ****  * @n: the given node
 108:D:/fchai/work/i-cube/I-CUBE-HUAWEI/Middlewares/Third_Party/Huawei/iot_link/os/liteos/base/include\__binary_tree.h ****  *
 109:D:/fchai/work/i-cube/I-CUBE-HUAWEI/Middlewares/Third_Party/Huawei/iot_link/os/liteos/base/include\__binary_tree.h ****  * return: the grand parent of the node <n>, NULL if n or p(n) is NULL
 110:D:/fchai/work/i-cube/I-CUBE-HUAWEI/Middlewares/Third_Party/Huawei/iot_link/os/liteos/base/include\__binary_tree.h ****  */
 111:D:/fchai/work/i-cube/I-CUBE-HUAWEI/Middlewares/Third_Party/Huawei/iot_link/os/liteos/base/include\__binary_tree.h **** 
 112:D:/fchai/work/i-cube/I-CUBE-HUAWEI/Middlewares/Third_Party/Huawei/iot_link/os/liteos/base/include\__binary_tree.h **** static inline bi_node_t * __bit_grand (bi_node_t * n)
 113:D:/fchai/work/i-cube/I-CUBE-HUAWEI/Middlewares/Third_Party/Huawei/iot_link/os/liteos/base/include\__binary_tree.h **** {
 114:D:/fchai/work/i-cube/I-CUBE-HUAWEI/Middlewares/Third_Party/Huawei/iot_link/os/liteos/base/include\__binary_tree.h ****     bi_node_t * p;
 115:D:/fchai/work/i-cube/I-CUBE-HUAWEI/Middlewares/Third_Party/Huawei/iot_link/os/liteos/base/include\__binary_tree.h **** 
 116:D:/fchai/work/i-cube/I-CUBE-HUAWEI/Middlewares/Third_Party/Huawei/iot_link/os/liteos/base/include\__binary_tree.h ****     if ((n == NULL) || ((p = __bit_parent (n)) == NULL))
 117:D:/fchai/work/i-cube/I-CUBE-HUAWEI/Middlewares/Third_Party/Huawei/iot_link/os/liteos/base/include\__binary_tree.h ****     {
 118:D:/fchai/work/i-cube/I-CUBE-HUAWEI/Middlewares/Third_Party/Huawei/iot_link/os/liteos/base/include\__binary_tree.h ****         return NULL;
 119:D:/fchai/work/i-cube/I-CUBE-HUAWEI/Middlewares/Third_Party/Huawei/iot_link/os/liteos/base/include\__binary_tree.h ****     }
 120:D:/fchai/work/i-cube/I-CUBE-HUAWEI/Middlewares/Third_Party/Huawei/iot_link/os/liteos/base/include\__binary_tree.h **** 
 121:D:/fchai/work/i-cube/I-CUBE-HUAWEI/Middlewares/Third_Party/Huawei/iot_link/os/liteos/base/include\__binary_tree.h ****     return __bit_parent (p);
 122:D:/fchai/work/i-cube/I-CUBE-HUAWEI/Middlewares/Third_Party/Huawei/iot_link/os/liteos/base/include\__binary_tree.h **** }
 123:D:/fchai/work/i-cube/I-CUBE-HUAWEI/Middlewares/Third_Party/Huawei/iot_link/os/liteos/base/include\__binary_tree.h **** 
 124:D:/fchai/work/i-cube/I-CUBE-HUAWEI/Middlewares/Third_Party/Huawei/iot_link/os/liteos/base/include\__binary_tree.h **** /**
 125:D:/fchai/work/i-cube/I-CUBE-HUAWEI/Middlewares/Third_Party/Huawei/iot_link/os/liteos/base/include\__binary_tree.h ****  * __bit_raw_uncle - get the uncle for a node, assume n, p(n) and g(n) are not NULL
 126:D:/fchai/work/i-cube/I-CUBE-HUAWEI/Middlewares/Third_Party/Huawei/iot_link/os/liteos/base/include\__binary_tree.h ****  * @n: the given node
 127:D:/fchai/work/i-cube/I-CUBE-HUAWEI/Middlewares/Third_Party/Huawei/iot_link/os/liteos/base/include\__binary_tree.h ****  *
 128:D:/fchai/work/i-cube/I-CUBE-HUAWEI/Middlewares/Third_Party/Huawei/iot_link/os/liteos/base/include\__binary_tree.h ****  * return: the uncle of the node <n>
 129:D:/fchai/work/i-cube/I-CUBE-HUAWEI/Middlewares/Third_Party/Huawei/iot_link/os/liteos/base/include\__binary_tree.h ****  */
 130:D:/fchai/work/i-cube/I-CUBE-HUAWEI/Middlewares/Third_Party/Huawei/iot_link/os/liteos/base/include\__binary_tree.h **** 
 131:D:/fchai/work/i-cube/I-CUBE-HUAWEI/Middlewares/Third_Party/Huawei/iot_link/os/liteos/base/include\__binary_tree.h **** static inline bi_node_t * __bit_raw_uncle (bi_node_t * n)
 124              		.loc 2 131 27 view .LVU30
 125              	.LBB486:
 132:D:/fchai/work/i-cube/I-CUBE-HUAWEI/Middlewares/Third_Party/Huawei/iot_link/os/liteos/base/include\__binary_tree.h **** {
 133:D:/fchai/work/i-cube/I-CUBE-HUAWEI/Middlewares/Third_Party/Huawei/iot_link/os/liteos/base/include\__binary_tree.h ****     bi_node_t * p = __bit_parent (n);
 126              		.loc 2 133 5 view .LVU31
 127              		.loc 2 133 5 is_stmt 0 view .LVU32
 128              	.LBE486:
 129              	.LBE485:
 130              	.LBE493:
  78:D:/fchai/work/i-cube/I-CUBE-HUAWEI/Middlewares/Third_Party/Huawei/iot_link/os/liteos/base/include\__binary_tree.h **** }
 131              		.loc 2 78 5 is_stmt 1 view .LVU33
 132              	.LBB494:
 133              	.LBB490:
 134              	.LBB487:
 134:D:/fchai/work/i-cube/I-CUBE-HUAWEI/Middlewares/Third_Party/Huawei/iot_link/os/liteos/base/include\__binary_tree.h ****     bi_node_t * g = __bit_raw_grand (n);
 135              		.loc 2 134 5 view .LVU34
 136              		.loc 2 134 5 is_stmt 0 view .LVU35
 137              	.LBE487:
 138              	.LBE490:
 139              	.LBE494:
 102:D:/fchai/work/i-cube/I-CUBE-HUAWEI/Middlewares/Third_Party/Huawei/iot_link/os/liteos/base/include\__binary_tree.h **** }
 140              		.loc 2 102 5 is_stmt 1 view .LVU36
  78:D:/fchai/work/i-cube/I-CUBE-HUAWEI/Middlewares/Third_Party/Huawei/iot_link/os/liteos/base/include\__binary_tree.h **** }
 141              		.loc 2 78 5 view .LVU37
ARM GAS  T:\msys\tmp\cc3PruZ9.s 			page 15


  78:D:/fchai/work/i-cube/I-CUBE-HUAWEI/Middlewares/Third_Party/Huawei/iot_link/os/liteos/base/include\__binary_tree.h **** }
 142              		.loc 2 78 5 view .LVU38
 143              	.LBB495:
 144              	.LBB491:
 145              	.LBB488:
 135:D:/fchai/work/i-cube/I-CUBE-HUAWEI/Middlewares/Third_Party/Huawei/iot_link/os/liteos/base/include\__binary_tree.h **** 
 136:D:/fchai/work/i-cube/I-CUBE-HUAWEI/Middlewares/Third_Party/Huawei/iot_link/os/liteos/base/include\__binary_tree.h ****     return p == g->l ? g->r : g->l;
 146              		.loc 2 136 5 view .LVU39
 147              		.loc 2 136 18 is_stmt 0 view .LVU40
 148 0016 5468     		ldr	r4, [r2, #4]
 149              	.LBE488:
 150              	.LBE491:
 151              	.LBE495:
 152              	.LBB496:
 153              	.LBB471:
 154              	.LBB469:
 113:D:/fchai/work/i-cube/I-CUBE-HUAWEI/Middlewares/Third_Party/Huawei/iot_link/os/liteos/utils\rbtree.c **** }
 155              		.loc 1 113 10 view .LVU41
 156 0018 D660     		str	r6, [r2, #12]
 157              	.LBE469:
 158              	.LBE471:
 159              	.LBE496:
 160              	.LBB497:
 161              	.LBB492:
 162              	.LBB489:
 163              		.loc 2 136 29 view .LVU42
 164 001a 9C42     		cmp	r4, r3
 165 001c 0CBF     		ite	eq
 166 001e 9568     		ldreq	r5, [r2, #8]
 167 0020 2546     		movne	r5, r4
 168              	.LVL4:
 169              		.loc 2 136 29 view .LVU43
 170              	.LBE489:
 171              	.LBE492:
 172              	.LBE497:
 507:D:/fchai/work/i-cube/I-CUBE-HUAWEI/Middlewares/Third_Party/Huawei/iot_link/os/liteos/utils\rbtree.c **** 
 508:D:/fchai/work/i-cube/I-CUBE-HUAWEI/Middlewares/Third_Party/Huawei/iot_link/os/liteos/utils\rbtree.c ****         /* case 1, 2 and 3 should set grand parent as RED */
 509:D:/fchai/work/i-cube/I-CUBE-HUAWEI/Middlewares/Third_Party/Huawei/iot_link/os/liteos/utils\rbtree.c **** 
 510:D:/fchai/work/i-cube/I-CUBE-HUAWEI/Middlewares/Third_Party/Huawei/iot_link/os/liteos/utils\rbtree.c ****         __set_red (g);
 173              		.loc 1 510 9 is_stmt 1 view .LVU44
 174              	.LBB498:
 175              	.LBI466:
 123:D:/fchai/work/i-cube/I-CUBE-HUAWEI/Middlewares/Third_Party/Huawei/iot_link/os/liteos/utils\rbtree.c **** {
 176              		.loc 1 123 20 view .LVU45
 177              	.LBE498:
 125:D:/fchai/work/i-cube/I-CUBE-HUAWEI/Middlewares/Third_Party/Huawei/iot_link/os/liteos/utils\rbtree.c **** }
 178              		.loc 1 125 5 view .LVU46
 179              	.LBB499:
 180              	.LBB472:
 181              	.LBI467:
 111:D:/fchai/work/i-cube/I-CUBE-HUAWEI/Middlewares/Third_Party/Huawei/iot_link/os/liteos/utils\rbtree.c **** {
 182              		.loc 1 111 20 view .LVU47
 183              	.LBB470:
 113:D:/fchai/work/i-cube/I-CUBE-HUAWEI/Middlewares/Third_Party/Huawei/iot_link/os/liteos/utils\rbtree.c **** }
 184              		.loc 1 113 5 view .LVU48
 113:D:/fchai/work/i-cube/I-CUBE-HUAWEI/Middlewares/Third_Party/Huawei/iot_link/os/liteos/utils\rbtree.c **** }
 185              		.loc 1 113 5 is_stmt 0 view .LVU49
ARM GAS  T:\msys\tmp\cc3PruZ9.s 			page 16


 186              	.LBE470:
 187              	.LBE472:
 188              	.LBE499:
 189              	.LBB500:
 190              	.LBB501:
 191              	.LBB502:
 192              	.LBI502:
  62:D:/fchai/work/i-cube/I-CUBE-HUAWEI/Middlewares/Third_Party/Huawei/iot_link/os/liteos/utils\rbtree.c **** {
 193              		.loc 1 62 19 is_stmt 1 view .LVU50
 194              	.LBB503:
  64:D:/fchai/work/i-cube/I-CUBE-HUAWEI/Middlewares/Third_Party/Huawei/iot_link/os/liteos/utils\rbtree.c **** }
 195              		.loc 1 64 5 view .LVU51
  64:D:/fchai/work/i-cube/I-CUBE-HUAWEI/Middlewares/Third_Party/Huawei/iot_link/os/liteos/utils\rbtree.c **** }
 196              		.loc 1 64 5 is_stmt 0 view .LVU52
 197              	.LBE503:
 198              	.LBE502:
 199              	.LBE501:
 200              	.LBE500:
  52:D:/fchai/work/i-cube/I-CUBE-HUAWEI/Middlewares/Third_Party/Huawei/iot_link/os/liteos/utils\rbtree.c **** }
 201              		.loc 1 52 5 is_stmt 1 view .LVU53
 511:D:/fchai/work/i-cube/I-CUBE-HUAWEI/Middlewares/Third_Party/Huawei/iot_link/os/liteos/utils\rbtree.c **** 
 512:D:/fchai/work/i-cube/I-CUBE-HUAWEI/Middlewares/Third_Party/Huawei/iot_link/os/liteos/utils\rbtree.c ****         if (!__is_red (u))
 202              		.loc 1 512 9 view .LVU54
 203              	.LBB506:
 204              	.LBI500:
  74:D:/fchai/work/i-cube/I-CUBE-HUAWEI/Middlewares/Third_Party/Huawei/iot_link/os/liteos/utils\rbtree.c **** {
 205              		.loc 1 74 19 view .LVU55
 206              	.LBB504:
  76:D:/fchai/work/i-cube/I-CUBE-HUAWEI/Middlewares/Third_Party/Huawei/iot_link/os/liteos/utils\rbtree.c **** }
 207              		.loc 1 76 5 view .LVU56
  76:D:/fchai/work/i-cube/I-CUBE-HUAWEI/Middlewares/Third_Party/Huawei/iot_link/os/liteos/utils\rbtree.c **** }
 208              		.loc 1 76 24 is_stmt 0 view .LVU57
 209 0022 0DB1     		cbz	r5, .L5
 210              	.LVL5:
  76:D:/fchai/work/i-cube/I-CUBE-HUAWEI/Middlewares/Third_Party/Huawei/iot_link/os/liteos/utils\rbtree.c **** }
 211              		.loc 1 76 24 view .LVU58
 212              	.LBE504:
 213              	.LBE506:
 513:D:/fchai/work/i-cube/I-CUBE-HUAWEI/Middlewares/Third_Party/Huawei/iot_link/os/liteos/utils\rbtree.c ****         {
 514:D:/fchai/work/i-cube/I-CUBE-HUAWEI/Middlewares/Third_Party/Huawei/iot_link/os/liteos/utils\rbtree.c ****             break;
 515:D:/fchai/work/i-cube/I-CUBE-HUAWEI/Middlewares/Third_Party/Huawei/iot_link/os/liteos/utils\rbtree.c ****         }
 516:D:/fchai/work/i-cube/I-CUBE-HUAWEI/Middlewares/Third_Party/Huawei/iot_link/os/liteos/utils\rbtree.c **** 
 517:D:/fchai/work/i-cube/I-CUBE-HUAWEI/Middlewares/Third_Party/Huawei/iot_link/os/liteos/utils\rbtree.c ****         /* case 1: z's uncle y is red */
 518:D:/fchai/work/i-cube/I-CUBE-HUAWEI/Middlewares/Third_Party/Huawei/iot_link/os/liteos/utils\rbtree.c **** 
 519:D:/fchai/work/i-cube/I-CUBE-HUAWEI/Middlewares/Third_Party/Huawei/iot_link/os/liteos/utils\rbtree.c ****         __set_black (p);
 214              		.loc 1 519 9 is_stmt 1 view .LVU59
 215              	.LBB507:
 216              	.LBI459:
 135:D:/fchai/work/i-cube/I-CUBE-HUAWEI/Middlewares/Third_Party/Huawei/iot_link/os/liteos/utils\rbtree.c **** {
 217              		.loc 1 135 20 view .LVU60
 218              	.LBE507:
 137:D:/fchai/work/i-cube/I-CUBE-HUAWEI/Middlewares/Third_Party/Huawei/iot_link/os/liteos/utils\rbtree.c **** }
 219              		.loc 1 137 5 view .LVU61
 220              	.LBB508:
 221              	.LBB464:
 222              	.LBI460:
 111:D:/fchai/work/i-cube/I-CUBE-HUAWEI/Middlewares/Third_Party/Huawei/iot_link/os/liteos/utils\rbtree.c **** {
ARM GAS  T:\msys\tmp\cc3PruZ9.s 			page 17


 223              		.loc 1 111 20 view .LVU62
 224              	.LBB462:
 113:D:/fchai/work/i-cube/I-CUBE-HUAWEI/Middlewares/Third_Party/Huawei/iot_link/os/liteos/utils\rbtree.c **** }
 225              		.loc 1 113 5 view .LVU63
 226              	.LBE462:
 227              	.LBE464:
 228              	.LBE508:
 229              	.LBB509:
 230              	.LBB505:
  76:D:/fchai/work/i-cube/I-CUBE-HUAWEI/Middlewares/Third_Party/Huawei/iot_link/os/liteos/utils\rbtree.c **** }
 231              		.loc 1 76 24 is_stmt 0 view .LVU64
 232 0024 EF68     		ldr	r7, [r5, #12]
 233 0026 CFB1     		cbz	r7, .L52
 234              	.LVL6:
 235              	.L5:
  76:D:/fchai/work/i-cube/I-CUBE-HUAWEI/Middlewares/Third_Party/Huawei/iot_link/os/liteos/utils\rbtree.c **** }
 236              		.loc 1 76 24 view .LVU65
 237              	.LBE505:
 238              	.LBE509:
 520:D:/fchai/work/i-cube/I-CUBE-HUAWEI/Middlewares/Third_Party/Huawei/iot_link/os/liteos/utils\rbtree.c ****         __set_black (u);
 521:D:/fchai/work/i-cube/I-CUBE-HUAWEI/Middlewares/Third_Party/Huawei/iot_link/os/liteos/utils\rbtree.c **** 
 522:D:/fchai/work/i-cube/I-CUBE-HUAWEI/Middlewares/Third_Party/Huawei/iot_link/os/liteos/utils\rbtree.c ****         n = g;
 523:D:/fchai/work/i-cube/I-CUBE-HUAWEI/Middlewares/Third_Party/Huawei/iot_link/os/liteos/utils\rbtree.c ****     }
 524:D:/fchai/work/i-cube/I-CUBE-HUAWEI/Middlewares/Third_Party/Huawei/iot_link/os/liteos/utils\rbtree.c **** 
 525:D:/fchai/work/i-cube/I-CUBE-HUAWEI/Middlewares/Third_Party/Huawei/iot_link/os/liteos/utils\rbtree.c ****     /* case 2 and case 3 */
 526:D:/fchai/work/i-cube/I-CUBE-HUAWEI/Middlewares/Third_Party/Huawei/iot_link/os/liteos/utils\rbtree.c **** 
 527:D:/fchai/work/i-cube/I-CUBE-HUAWEI/Middlewares/Third_Party/Huawei/iot_link/os/liteos/utils\rbtree.c ****     if (p == __left (g))
 239              		.loc 1 527 5 is_stmt 1 view .LVU66
 161:D:/fchai/work/i-cube/I-CUBE-HUAWEI/Middlewares/Third_Party/Huawei/iot_link/os/liteos/utils\rbtree.c **** }
 240              		.loc 1 161 5 view .LVU67
 241              		.loc 1 527 8 is_stmt 0 view .LVU68
 242 0028 9C42     		cmp	r4, r3
 243 002a 22D0     		beq	.L53
 528:D:/fchai/work/i-cube/I-CUBE-HUAWEI/Middlewares/Third_Party/Huawei/iot_link/os/liteos/utils\rbtree.c ****     {
 529:D:/fchai/work/i-cube/I-CUBE-HUAWEI/Middlewares/Third_Party/Huawei/iot_link/os/liteos/utils\rbtree.c ****         if (n == __right (p))
 530:D:/fchai/work/i-cube/I-CUBE-HUAWEI/Middlewares/Third_Party/Huawei/iot_link/os/liteos/utils\rbtree.c ****         {
 531:D:/fchai/work/i-cube/I-CUBE-HUAWEI/Middlewares/Third_Party/Huawei/iot_link/os/liteos/utils\rbtree.c ****             __rotate_left (t, p);
 532:D:/fchai/work/i-cube/I-CUBE-HUAWEI/Middlewares/Third_Party/Huawei/iot_link/os/liteos/utils\rbtree.c ****         }
 533:D:/fchai/work/i-cube/I-CUBE-HUAWEI/Middlewares/Third_Party/Huawei/iot_link/os/liteos/utils\rbtree.c ****         else
 534:D:/fchai/work/i-cube/I-CUBE-HUAWEI/Middlewares/Third_Party/Huawei/iot_link/os/liteos/utils\rbtree.c ****         {
 535:D:/fchai/work/i-cube/I-CUBE-HUAWEI/Middlewares/Third_Party/Huawei/iot_link/os/liteos/utils\rbtree.c ****             n = p;
 536:D:/fchai/work/i-cube/I-CUBE-HUAWEI/Middlewares/Third_Party/Huawei/iot_link/os/liteos/utils\rbtree.c ****         }
 537:D:/fchai/work/i-cube/I-CUBE-HUAWEI/Middlewares/Third_Party/Huawei/iot_link/os/liteos/utils\rbtree.c **** 
 538:D:/fchai/work/i-cube/I-CUBE-HUAWEI/Middlewares/Third_Party/Huawei/iot_link/os/liteos/utils\rbtree.c ****         __rotate_right (t, g);
 539:D:/fchai/work/i-cube/I-CUBE-HUAWEI/Middlewares/Third_Party/Huawei/iot_link/os/liteos/utils\rbtree.c ****     }
 540:D:/fchai/work/i-cube/I-CUBE-HUAWEI/Middlewares/Third_Party/Huawei/iot_link/os/liteos/utils\rbtree.c ****     else
 541:D:/fchai/work/i-cube/I-CUBE-HUAWEI/Middlewares/Third_Party/Huawei/iot_link/os/liteos/utils\rbtree.c ****     {
 542:D:/fchai/work/i-cube/I-CUBE-HUAWEI/Middlewares/Third_Party/Huawei/iot_link/os/liteos/utils\rbtree.c ****         if (n == __left (p))
 244              		.loc 1 542 9 is_stmt 1 view .LVU69
 245              		.loc 1 542 18 is_stmt 0 view .LVU70
 246 002c 5C68     		ldr	r4, [r3, #4]
 247              	.LVL7:
 161:D:/fchai/work/i-cube/I-CUBE-HUAWEI/Middlewares/Third_Party/Huawei/iot_link/os/liteos/utils\rbtree.c **** }
 248              		.loc 1 161 5 is_stmt 1 view .LVU71
 249              		.loc 1 542 12 is_stmt 0 view .LVU72
 250 002e A142     		cmp	r1, r4
 251 0030 3ED0     		beq	.L14
ARM GAS  T:\msys\tmp\cc3PruZ9.s 			page 18


 252              	.LVL8:
 253              	.L47:
 254              	.LBB510:
 255              	.LBB511:
 256              	.LBB512:
 257              	.LBB513:
 258              		.loc 1 542 12 view .LVU73
 259 0032 9468     		ldr	r4, [r2, #8]
 260              	.L15:
 261              	.LVL9:
 262              		.loc 1 542 12 view .LVU74
 263              	.LBE513:
 264              	.LBE512:
 265              	.LBE511:
 266              	.LBE510:
 543:D:/fchai/work/i-cube/I-CUBE-HUAWEI/Middlewares/Third_Party/Huawei/iot_link/os/liteos/utils\rbtree.c ****         {
 544:D:/fchai/work/i-cube/I-CUBE-HUAWEI/Middlewares/Third_Party/Huawei/iot_link/os/liteos/utils\rbtree.c ****             __rotate_right (t, p);
 545:D:/fchai/work/i-cube/I-CUBE-HUAWEI/Middlewares/Third_Party/Huawei/iot_link/os/liteos/utils\rbtree.c ****         }
 546:D:/fchai/work/i-cube/I-CUBE-HUAWEI/Middlewares/Third_Party/Huawei/iot_link/os/liteos/utils\rbtree.c ****         else
 547:D:/fchai/work/i-cube/I-CUBE-HUAWEI/Middlewares/Third_Party/Huawei/iot_link/os/liteos/utils\rbtree.c ****         {
 548:D:/fchai/work/i-cube/I-CUBE-HUAWEI/Middlewares/Third_Party/Huawei/iot_link/os/liteos/utils\rbtree.c ****             n = p;
 549:D:/fchai/work/i-cube/I-CUBE-HUAWEI/Middlewares/Third_Party/Huawei/iot_link/os/liteos/utils\rbtree.c ****         }
 550:D:/fchai/work/i-cube/I-CUBE-HUAWEI/Middlewares/Third_Party/Huawei/iot_link/os/liteos/utils\rbtree.c **** 
 551:D:/fchai/work/i-cube/I-CUBE-HUAWEI/Middlewares/Third_Party/Huawei/iot_link/os/liteos/utils\rbtree.c ****         __rotate_left (t, g);
 267              		.loc 1 551 9 is_stmt 1 view .LVU75
 268              	.LBB530:
 269              	.LBI530:
 284:D:/fchai/work/i-cube/I-CUBE-HUAWEI/Middlewares/Third_Party/Huawei/iot_link/os/liteos/utils\rbtree.c **** {
 270              		.loc 1 284 20 view .LVU76
 271              	.LBB531:
 286:D:/fchai/work/i-cube/I-CUBE-HUAWEI/Middlewares/Third_Party/Huawei/iot_link/os/liteos/utils\rbtree.c **** }
 272              		.loc 1 286 5 view .LVU77
 273              	.LBB532:
 274              	.LBI532:
 137:D:/fchai/work/i-cube/I-CUBE-HUAWEI/Middlewares/Third_Party/Huawei/iot_link/os/liteos/base/include\__binary_tree.h **** }
 138:D:/fchai/work/i-cube/I-CUBE-HUAWEI/Middlewares/Third_Party/Huawei/iot_link/os/liteos/base/include\__binary_tree.h **** 
 139:D:/fchai/work/i-cube/I-CUBE-HUAWEI/Middlewares/Third_Party/Huawei/iot_link/os/liteos/base/include\__binary_tree.h **** /**
 140:D:/fchai/work/i-cube/I-CUBE-HUAWEI/Middlewares/Third_Party/Huawei/iot_link/os/liteos/base/include\__binary_tree.h ****  * __bit_uncle - get the uncle for a node
 141:D:/fchai/work/i-cube/I-CUBE-HUAWEI/Middlewares/Third_Party/Huawei/iot_link/os/liteos/base/include\__binary_tree.h ****  * @n: the given node
 142:D:/fchai/work/i-cube/I-CUBE-HUAWEI/Middlewares/Third_Party/Huawei/iot_link/os/liteos/base/include\__binary_tree.h ****  *
 143:D:/fchai/work/i-cube/I-CUBE-HUAWEI/Middlewares/Third_Party/Huawei/iot_link/os/liteos/base/include\__binary_tree.h ****  * return: the uncle of the node <n>, NULL if n, p(n) or g(n) is NULL
 144:D:/fchai/work/i-cube/I-CUBE-HUAWEI/Middlewares/Third_Party/Huawei/iot_link/os/liteos/base/include\__binary_tree.h ****  */
 145:D:/fchai/work/i-cube/I-CUBE-HUAWEI/Middlewares/Third_Party/Huawei/iot_link/os/liteos/base/include\__binary_tree.h **** 
 146:D:/fchai/work/i-cube/I-CUBE-HUAWEI/Middlewares/Third_Party/Huawei/iot_link/os/liteos/base/include\__binary_tree.h **** static inline bi_node_t * __bit_uncle (bi_node_t * n)
 147:D:/fchai/work/i-cube/I-CUBE-HUAWEI/Middlewares/Third_Party/Huawei/iot_link/os/liteos/base/include\__binary_tree.h **** {
 148:D:/fchai/work/i-cube/I-CUBE-HUAWEI/Middlewares/Third_Party/Huawei/iot_link/os/liteos/base/include\__binary_tree.h ****     bi_node_t * p;
 149:D:/fchai/work/i-cube/I-CUBE-HUAWEI/Middlewares/Third_Party/Huawei/iot_link/os/liteos/base/include\__binary_tree.h ****     bi_node_t * g;
 150:D:/fchai/work/i-cube/I-CUBE-HUAWEI/Middlewares/Third_Party/Huawei/iot_link/os/liteos/base/include\__binary_tree.h **** 
 151:D:/fchai/work/i-cube/I-CUBE-HUAWEI/Middlewares/Third_Party/Huawei/iot_link/os/liteos/base/include\__binary_tree.h ****     if (n == NULL)
 152:D:/fchai/work/i-cube/I-CUBE-HUAWEI/Middlewares/Third_Party/Huawei/iot_link/os/liteos/base/include\__binary_tree.h ****     {
 153:D:/fchai/work/i-cube/I-CUBE-HUAWEI/Middlewares/Third_Party/Huawei/iot_link/os/liteos/base/include\__binary_tree.h ****         return NULL;
 154:D:/fchai/work/i-cube/I-CUBE-HUAWEI/Middlewares/Third_Party/Huawei/iot_link/os/liteos/base/include\__binary_tree.h ****     }
 155:D:/fchai/work/i-cube/I-CUBE-HUAWEI/Middlewares/Third_Party/Huawei/iot_link/os/liteos/base/include\__binary_tree.h **** 
 156:D:/fchai/work/i-cube/I-CUBE-HUAWEI/Middlewares/Third_Party/Huawei/iot_link/os/liteos/base/include\__binary_tree.h ****     if ((p = __bit_parent (n)) == NULL)
 157:D:/fchai/work/i-cube/I-CUBE-HUAWEI/Middlewares/Third_Party/Huawei/iot_link/os/liteos/base/include\__binary_tree.h ****     {
 158:D:/fchai/work/i-cube/I-CUBE-HUAWEI/Middlewares/Third_Party/Huawei/iot_link/os/liteos/base/include\__binary_tree.h ****         return NULL;
 159:D:/fchai/work/i-cube/I-CUBE-HUAWEI/Middlewares/Third_Party/Huawei/iot_link/os/liteos/base/include\__binary_tree.h ****     }
ARM GAS  T:\msys\tmp\cc3PruZ9.s 			page 19


 160:D:/fchai/work/i-cube/I-CUBE-HUAWEI/Middlewares/Third_Party/Huawei/iot_link/os/liteos/base/include\__binary_tree.h **** 
 161:D:/fchai/work/i-cube/I-CUBE-HUAWEI/Middlewares/Third_Party/Huawei/iot_link/os/liteos/base/include\__binary_tree.h ****     if ((g = __bit_parent (p)) == NULL)
 162:D:/fchai/work/i-cube/I-CUBE-HUAWEI/Middlewares/Third_Party/Huawei/iot_link/os/liteos/base/include\__binary_tree.h ****     {
 163:D:/fchai/work/i-cube/I-CUBE-HUAWEI/Middlewares/Third_Party/Huawei/iot_link/os/liteos/base/include\__binary_tree.h ****         return NULL;
 164:D:/fchai/work/i-cube/I-CUBE-HUAWEI/Middlewares/Third_Party/Huawei/iot_link/os/liteos/base/include\__binary_tree.h ****     }
 165:D:/fchai/work/i-cube/I-CUBE-HUAWEI/Middlewares/Third_Party/Huawei/iot_link/os/liteos/base/include\__binary_tree.h **** 
 166:D:/fchai/work/i-cube/I-CUBE-HUAWEI/Middlewares/Third_Party/Huawei/iot_link/os/liteos/base/include\__binary_tree.h ****     return p == g->l ? g->r : g->l;
 167:D:/fchai/work/i-cube/I-CUBE-HUAWEI/Middlewares/Third_Party/Huawei/iot_link/os/liteos/base/include\__binary_tree.h **** }
 168:D:/fchai/work/i-cube/I-CUBE-HUAWEI/Middlewares/Third_Party/Huawei/iot_link/os/liteos/base/include\__binary_tree.h **** 
 169:D:/fchai/work/i-cube/I-CUBE-HUAWEI/Middlewares/Third_Party/Huawei/iot_link/os/liteos/base/include\__binary_tree.h **** /**
 170:D:/fchai/work/i-cube/I-CUBE-HUAWEI/Middlewares/Third_Party/Huawei/iot_link/os/liteos/base/include\__binary_tree.h ****  * __bit_successor - the successor node of a node
 171:D:/fchai/work/i-cube/I-CUBE-HUAWEI/Middlewares/Third_Party/Huawei/iot_link/os/liteos/base/include\__binary_tree.h ****  * @n: the given node
 172:D:/fchai/work/i-cube/I-CUBE-HUAWEI/Middlewares/Third_Party/Huawei/iot_link/os/liteos/base/include\__binary_tree.h ****  *
 173:D:/fchai/work/i-cube/I-CUBE-HUAWEI/Middlewares/Third_Party/Huawei/iot_link/os/liteos/base/include\__binary_tree.h ****  * return: the successor of <n>
 174:D:/fchai/work/i-cube/I-CUBE-HUAWEI/Middlewares/Third_Party/Huawei/iot_link/os/liteos/base/include\__binary_tree.h ****  */
 175:D:/fchai/work/i-cube/I-CUBE-HUAWEI/Middlewares/Third_Party/Huawei/iot_link/os/liteos/base/include\__binary_tree.h **** 
 176:D:/fchai/work/i-cube/I-CUBE-HUAWEI/Middlewares/Third_Party/Huawei/iot_link/os/liteos/base/include\__binary_tree.h **** static inline bi_node_t * __bit_successor (bi_node_t * n)
 177:D:/fchai/work/i-cube/I-CUBE-HUAWEI/Middlewares/Third_Party/Huawei/iot_link/os/liteos/base/include\__binary_tree.h **** {
 178:D:/fchai/work/i-cube/I-CUBE-HUAWEI/Middlewares/Third_Party/Huawei/iot_link/os/liteos/base/include\__binary_tree.h ****     bi_node_t * s = n->r;
 179:D:/fchai/work/i-cube/I-CUBE-HUAWEI/Middlewares/Third_Party/Huawei/iot_link/os/liteos/base/include\__binary_tree.h **** 
 180:D:/fchai/work/i-cube/I-CUBE-HUAWEI/Middlewares/Third_Party/Huawei/iot_link/os/liteos/base/include\__binary_tree.h ****     if (s != NULL)
 181:D:/fchai/work/i-cube/I-CUBE-HUAWEI/Middlewares/Third_Party/Huawei/iot_link/os/liteos/base/include\__binary_tree.h ****     {
 182:D:/fchai/work/i-cube/I-CUBE-HUAWEI/Middlewares/Third_Party/Huawei/iot_link/os/liteos/base/include\__binary_tree.h ****         while (s->l)
 183:D:/fchai/work/i-cube/I-CUBE-HUAWEI/Middlewares/Third_Party/Huawei/iot_link/os/liteos/base/include\__binary_tree.h ****         {
 184:D:/fchai/work/i-cube/I-CUBE-HUAWEI/Middlewares/Third_Party/Huawei/iot_link/os/liteos/base/include\__binary_tree.h ****             s = s->l;
 185:D:/fchai/work/i-cube/I-CUBE-HUAWEI/Middlewares/Third_Party/Huawei/iot_link/os/liteos/base/include\__binary_tree.h ****         }
 186:D:/fchai/work/i-cube/I-CUBE-HUAWEI/Middlewares/Third_Party/Huawei/iot_link/os/liteos/base/include\__binary_tree.h **** 
 187:D:/fchai/work/i-cube/I-CUBE-HUAWEI/Middlewares/Third_Party/Huawei/iot_link/os/liteos/base/include\__binary_tree.h ****         return s;
 188:D:/fchai/work/i-cube/I-CUBE-HUAWEI/Middlewares/Third_Party/Huawei/iot_link/os/liteos/base/include\__binary_tree.h ****     }
 189:D:/fchai/work/i-cube/I-CUBE-HUAWEI/Middlewares/Third_Party/Huawei/iot_link/os/liteos/base/include\__binary_tree.h **** 
 190:D:/fchai/work/i-cube/I-CUBE-HUAWEI/Middlewares/Third_Party/Huawei/iot_link/os/liteos/base/include\__binary_tree.h ****     while (n->p && (n == n->p->r))
 191:D:/fchai/work/i-cube/I-CUBE-HUAWEI/Middlewares/Third_Party/Huawei/iot_link/os/liteos/base/include\__binary_tree.h ****     {
 192:D:/fchai/work/i-cube/I-CUBE-HUAWEI/Middlewares/Third_Party/Huawei/iot_link/os/liteos/base/include\__binary_tree.h ****         n = n->p;
 193:D:/fchai/work/i-cube/I-CUBE-HUAWEI/Middlewares/Third_Party/Huawei/iot_link/os/liteos/base/include\__binary_tree.h ****     }
 194:D:/fchai/work/i-cube/I-CUBE-HUAWEI/Middlewares/Third_Party/Huawei/iot_link/os/liteos/base/include\__binary_tree.h **** 
 195:D:/fchai/work/i-cube/I-CUBE-HUAWEI/Middlewares/Third_Party/Huawei/iot_link/os/liteos/base/include\__binary_tree.h ****     return n->p;
 196:D:/fchai/work/i-cube/I-CUBE-HUAWEI/Middlewares/Third_Party/Huawei/iot_link/os/liteos/base/include\__binary_tree.h **** }
 197:D:/fchai/work/i-cube/I-CUBE-HUAWEI/Middlewares/Third_Party/Huawei/iot_link/os/liteos/base/include\__binary_tree.h **** 
 198:D:/fchai/work/i-cube/I-CUBE-HUAWEI/Middlewares/Third_Party/Huawei/iot_link/os/liteos/base/include\__binary_tree.h **** /**
 199:D:/fchai/work/i-cube/I-CUBE-HUAWEI/Middlewares/Third_Party/Huawei/iot_link/os/liteos/base/include\__binary_tree.h ****  * __bit_predecessor - the predecessor node of a node
 200:D:/fchai/work/i-cube/I-CUBE-HUAWEI/Middlewares/Third_Party/Huawei/iot_link/os/liteos/base/include\__binary_tree.h ****  * @n: the given node
 201:D:/fchai/work/i-cube/I-CUBE-HUAWEI/Middlewares/Third_Party/Huawei/iot_link/os/liteos/base/include\__binary_tree.h ****  *
 202:D:/fchai/work/i-cube/I-CUBE-HUAWEI/Middlewares/Third_Party/Huawei/iot_link/os/liteos/base/include\__binary_tree.h ****  * return: the predecessor of <n>
 203:D:/fchai/work/i-cube/I-CUBE-HUAWEI/Middlewares/Third_Party/Huawei/iot_link/os/liteos/base/include\__binary_tree.h ****  */
 204:D:/fchai/work/i-cube/I-CUBE-HUAWEI/Middlewares/Third_Party/Huawei/iot_link/os/liteos/base/include\__binary_tree.h **** 
 205:D:/fchai/work/i-cube/I-CUBE-HUAWEI/Middlewares/Third_Party/Huawei/iot_link/os/liteos/base/include\__binary_tree.h **** static inline bi_node_t * __bit_predecessor (bi_node_t * n)
 206:D:/fchai/work/i-cube/I-CUBE-HUAWEI/Middlewares/Third_Party/Huawei/iot_link/os/liteos/base/include\__binary_tree.h **** {
 207:D:/fchai/work/i-cube/I-CUBE-HUAWEI/Middlewares/Third_Party/Huawei/iot_link/os/liteos/base/include\__binary_tree.h ****     bi_node_t * p = n->l;
 208:D:/fchai/work/i-cube/I-CUBE-HUAWEI/Middlewares/Third_Party/Huawei/iot_link/os/liteos/base/include\__binary_tree.h **** 
 209:D:/fchai/work/i-cube/I-CUBE-HUAWEI/Middlewares/Third_Party/Huawei/iot_link/os/liteos/base/include\__binary_tree.h ****     if (p != NULL)
 210:D:/fchai/work/i-cube/I-CUBE-HUAWEI/Middlewares/Third_Party/Huawei/iot_link/os/liteos/base/include\__binary_tree.h ****     {
 211:D:/fchai/work/i-cube/I-CUBE-HUAWEI/Middlewares/Third_Party/Huawei/iot_link/os/liteos/base/include\__binary_tree.h ****         while (p->r)
 212:D:/fchai/work/i-cube/I-CUBE-HUAWEI/Middlewares/Third_Party/Huawei/iot_link/os/liteos/base/include\__binary_tree.h ****         {
 213:D:/fchai/work/i-cube/I-CUBE-HUAWEI/Middlewares/Third_Party/Huawei/iot_link/os/liteos/base/include\__binary_tree.h ****             p = p->r;
 214:D:/fchai/work/i-cube/I-CUBE-HUAWEI/Middlewares/Third_Party/Huawei/iot_link/os/liteos/base/include\__binary_tree.h ****         }
 215:D:/fchai/work/i-cube/I-CUBE-HUAWEI/Middlewares/Third_Party/Huawei/iot_link/os/liteos/base/include\__binary_tree.h **** 
 216:D:/fchai/work/i-cube/I-CUBE-HUAWEI/Middlewares/Third_Party/Huawei/iot_link/os/liteos/base/include\__binary_tree.h ****         return p;
ARM GAS  T:\msys\tmp\cc3PruZ9.s 			page 20


 217:D:/fchai/work/i-cube/I-CUBE-HUAWEI/Middlewares/Third_Party/Huawei/iot_link/os/liteos/base/include\__binary_tree.h ****     }
 218:D:/fchai/work/i-cube/I-CUBE-HUAWEI/Middlewares/Third_Party/Huawei/iot_link/os/liteos/base/include\__binary_tree.h **** 
 219:D:/fchai/work/i-cube/I-CUBE-HUAWEI/Middlewares/Third_Party/Huawei/iot_link/os/liteos/base/include\__binary_tree.h ****     while (n->p && (n == n->p->l))
 220:D:/fchai/work/i-cube/I-CUBE-HUAWEI/Middlewares/Third_Party/Huawei/iot_link/os/liteos/base/include\__binary_tree.h ****     {
 221:D:/fchai/work/i-cube/I-CUBE-HUAWEI/Middlewares/Third_Party/Huawei/iot_link/os/liteos/base/include\__binary_tree.h ****         n = n->p;
 222:D:/fchai/work/i-cube/I-CUBE-HUAWEI/Middlewares/Third_Party/Huawei/iot_link/os/liteos/base/include\__binary_tree.h ****     }
 223:D:/fchai/work/i-cube/I-CUBE-HUAWEI/Middlewares/Third_Party/Huawei/iot_link/os/liteos/base/include\__binary_tree.h **** 
 224:D:/fchai/work/i-cube/I-CUBE-HUAWEI/Middlewares/Third_Party/Huawei/iot_link/os/liteos/base/include\__binary_tree.h ****     return n->p;
 225:D:/fchai/work/i-cube/I-CUBE-HUAWEI/Middlewares/Third_Party/Huawei/iot_link/os/liteos/base/include\__binary_tree.h **** }
 226:D:/fchai/work/i-cube/I-CUBE-HUAWEI/Middlewares/Third_Party/Huawei/iot_link/os/liteos/base/include\__binary_tree.h **** 
 227:D:/fchai/work/i-cube/I-CUBE-HUAWEI/Middlewares/Third_Party/Huawei/iot_link/os/liteos/base/include\__binary_tree.h **** /**
 228:D:/fchai/work/i-cube/I-CUBE-HUAWEI/Middlewares/Third_Party/Huawei/iot_link/os/liteos/base/include\__binary_tree.h ****  * __bit_find_eq - find a given key in a tree
 229:D:/fchai/work/i-cube/I-CUBE-HUAWEI/Middlewares/Third_Party/Huawei/iot_link/os/liteos/base/include\__binary_tree.h ****  * @r: the given tree root
 230:D:/fchai/work/i-cube/I-CUBE-HUAWEI/Middlewares/Third_Party/Huawei/iot_link/os/liteos/base/include\__binary_tree.h ****  * @k: the key value
 231:D:/fchai/work/i-cube/I-CUBE-HUAWEI/Middlewares/Third_Party/Huawei/iot_link/os/liteos/base/include\__binary_tree.h ****  *
 232:D:/fchai/work/i-cube/I-CUBE-HUAWEI/Middlewares/Third_Party/Huawei/iot_link/os/liteos/base/include\__binary_tree.h ****  * return: the node with key = <k>, or NULL if key not found.
 233:D:/fchai/work/i-cube/I-CUBE-HUAWEI/Middlewares/Third_Party/Huawei/iot_link/os/liteos/base/include\__binary_tree.h ****  */
 234:D:/fchai/work/i-cube/I-CUBE-HUAWEI/Middlewares/Third_Party/Huawei/iot_link/os/liteos/base/include\__binary_tree.h **** 
 235:D:/fchai/work/i-cube/I-CUBE-HUAWEI/Middlewares/Third_Party/Huawei/iot_link/os/liteos/base/include\__binary_tree.h **** static inline bi_node_t * __bit_find_eq (bi_tree_t * t, uintptr_t k)
 236:D:/fchai/work/i-cube/I-CUBE-HUAWEI/Middlewares/Third_Party/Huawei/iot_link/os/liteos/base/include\__binary_tree.h **** {
 237:D:/fchai/work/i-cube/I-CUBE-HUAWEI/Middlewares/Third_Party/Huawei/iot_link/os/liteos/base/include\__binary_tree.h ****     bi_node_t * w = t->r;
 238:D:/fchai/work/i-cube/I-CUBE-HUAWEI/Middlewares/Third_Party/Huawei/iot_link/os/liteos/base/include\__binary_tree.h **** 
 239:D:/fchai/work/i-cube/I-CUBE-HUAWEI/Middlewares/Third_Party/Huawei/iot_link/os/liteos/base/include\__binary_tree.h ****     while (w != NULL)
 240:D:/fchai/work/i-cube/I-CUBE-HUAWEI/Middlewares/Third_Party/Huawei/iot_link/os/liteos/base/include\__binary_tree.h ****     {
 241:D:/fchai/work/i-cube/I-CUBE-HUAWEI/Middlewares/Third_Party/Huawei/iot_link/os/liteos/base/include\__binary_tree.h ****         int          c = t->compare_nk (w, k);
 242:D:/fchai/work/i-cube/I-CUBE-HUAWEI/Middlewares/Third_Party/Huawei/iot_link/os/liteos/base/include\__binary_tree.h **** 
 243:D:/fchai/work/i-cube/I-CUBE-HUAWEI/Middlewares/Third_Party/Huawei/iot_link/os/liteos/base/include\__binary_tree.h ****         if (c == 0)
 244:D:/fchai/work/i-cube/I-CUBE-HUAWEI/Middlewares/Third_Party/Huawei/iot_link/os/liteos/base/include\__binary_tree.h ****         {
 245:D:/fchai/work/i-cube/I-CUBE-HUAWEI/Middlewares/Third_Party/Huawei/iot_link/os/liteos/base/include\__binary_tree.h ****             break;
 246:D:/fchai/work/i-cube/I-CUBE-HUAWEI/Middlewares/Third_Party/Huawei/iot_link/os/liteos/base/include\__binary_tree.h ****         }
 247:D:/fchai/work/i-cube/I-CUBE-HUAWEI/Middlewares/Third_Party/Huawei/iot_link/os/liteos/base/include\__binary_tree.h **** 
 248:D:/fchai/work/i-cube/I-CUBE-HUAWEI/Middlewares/Third_Party/Huawei/iot_link/os/liteos/base/include\__binary_tree.h ****         w = c < 0 ? w->r : w->l;
 249:D:/fchai/work/i-cube/I-CUBE-HUAWEI/Middlewares/Third_Party/Huawei/iot_link/os/liteos/base/include\__binary_tree.h ****     }
 250:D:/fchai/work/i-cube/I-CUBE-HUAWEI/Middlewares/Third_Party/Huawei/iot_link/os/liteos/base/include\__binary_tree.h **** 
 251:D:/fchai/work/i-cube/I-CUBE-HUAWEI/Middlewares/Third_Party/Huawei/iot_link/os/liteos/base/include\__binary_tree.h ****     return w;
 252:D:/fchai/work/i-cube/I-CUBE-HUAWEI/Middlewares/Third_Party/Huawei/iot_link/os/liteos/base/include\__binary_tree.h **** }
 253:D:/fchai/work/i-cube/I-CUBE-HUAWEI/Middlewares/Third_Party/Huawei/iot_link/os/liteos/base/include\__binary_tree.h **** 
 254:D:/fchai/work/i-cube/I-CUBE-HUAWEI/Middlewares/Third_Party/Huawei/iot_link/os/liteos/base/include\__binary_tree.h **** /**
 255:D:/fchai/work/i-cube/I-CUBE-HUAWEI/Middlewares/Third_Party/Huawei/iot_link/os/liteos/base/include\__binary_tree.h ****  * __bit_find_cond_xt - find a node that is just greater or less than the given value
 256:D:/fchai/work/i-cube/I-CUBE-HUAWEI/Middlewares/Third_Party/Huawei/iot_link/os/liteos/base/include\__binary_tree.h ****  * @t:    the given tree
 257:D:/fchai/work/i-cube/I-CUBE-HUAWEI/Middlewares/Third_Party/Huawei/iot_link/os/liteos/base/include\__binary_tree.h ****  * @k:    the key value
 258:D:/fchai/work/i-cube/I-CUBE-HUAWEI/Middlewares/Third_Party/Huawei/iot_link/os/liteos/base/include\__binary_tree.h ****  * @cond: the condition, '>' or '<'
 259:D:/fchai/work/i-cube/I-CUBE-HUAWEI/Middlewares/Third_Party/Huawei/iot_link/os/liteos/base/include\__binary_tree.h ****  *
 260:D:/fchai/work/i-cube/I-CUBE-HUAWEI/Middlewares/Third_Party/Huawei/iot_link/os/liteos/base/include\__binary_tree.h ****  * return: the nearest node with key greater or less than <k>, or NULL if key not found.
 261:D:/fchai/work/i-cube/I-CUBE-HUAWEI/Middlewares/Third_Party/Huawei/iot_link/os/liteos/base/include\__binary_tree.h ****  */
 262:D:/fchai/work/i-cube/I-CUBE-HUAWEI/Middlewares/Third_Party/Huawei/iot_link/os/liteos/base/include\__binary_tree.h **** 
 263:D:/fchai/work/i-cube/I-CUBE-HUAWEI/Middlewares/Third_Party/Huawei/iot_link/os/liteos/base/include\__binary_tree.h **** #define __bit_find_cond_xt(t, k, cond)                  \
 264:D:/fchai/work/i-cube/I-CUBE-HUAWEI/Middlewares/Third_Party/Huawei/iot_link/os/liteos/base/include\__binary_tree.h **** do {                                                    \
 265:D:/fchai/work/i-cube/I-CUBE-HUAWEI/Middlewares/Third_Party/Huawei/iot_link/os/liteos/base/include\__binary_tree.h ****     bi_node_t * l = NULL; /* last one */                \
 266:D:/fchai/work/i-cube/I-CUBE-HUAWEI/Middlewares/Third_Party/Huawei/iot_link/os/liteos/base/include\__binary_tree.h ****     bi_node_t * w = t->r;                               \
 267:D:/fchai/work/i-cube/I-CUBE-HUAWEI/Middlewares/Third_Party/Huawei/iot_link/os/liteos/base/include\__binary_tree.h ****                                                         \
 268:D:/fchai/work/i-cube/I-CUBE-HUAWEI/Middlewares/Third_Party/Huawei/iot_link/os/liteos/base/include\__binary_tree.h ****     while (w != NULL)                                   \
 269:D:/fchai/work/i-cube/I-CUBE-HUAWEI/Middlewares/Third_Party/Huawei/iot_link/os/liteos/base/include\__binary_tree.h ****     {                                               \
 270:D:/fchai/work/i-cube/I-CUBE-HUAWEI/Middlewares/Third_Party/Huawei/iot_link/os/liteos/base/include\__binary_tree.h ****         int     c = t->compare_nk (w, k);               \
 271:D:/fchai/work/i-cube/I-CUBE-HUAWEI/Middlewares/Third_Party/Huawei/iot_link/os/liteos/base/include\__binary_tree.h ****                                                         \
 272:D:/fchai/work/i-cube/I-CUBE-HUAWEI/Middlewares/Third_Party/Huawei/iot_link/os/liteos/base/include\__binary_tree.h ****         if (c cond 0)                                   \
 273:D:/fchai/work/i-cube/I-CUBE-HUAWEI/Middlewares/Third_Party/Huawei/iot_link/os/liteos/base/include\__binary_tree.h ****         {                                           \
ARM GAS  T:\msys\tmp\cc3PruZ9.s 			page 21


 274:D:/fchai/work/i-cube/I-CUBE-HUAWEI/Middlewares/Third_Party/Huawei/iot_link/os/liteos/base/include\__binary_tree.h ****             l = w;                                      \
 275:D:/fchai/work/i-cube/I-CUBE-HUAWEI/Middlewares/Third_Party/Huawei/iot_link/os/liteos/base/include\__binary_tree.h ****         }                                           \
 276:D:/fchai/work/i-cube/I-CUBE-HUAWEI/Middlewares/Third_Party/Huawei/iot_link/os/liteos/base/include\__binary_tree.h ****                                                         \
 277:D:/fchai/work/i-cube/I-CUBE-HUAWEI/Middlewares/Third_Party/Huawei/iot_link/os/liteos/base/include\__binary_tree.h ****         w = c < 0 ? w->r : w->l;                        \
 278:D:/fchai/work/i-cube/I-CUBE-HUAWEI/Middlewares/Third_Party/Huawei/iot_link/os/liteos/base/include\__binary_tree.h ****     }                                               \
 279:D:/fchai/work/i-cube/I-CUBE-HUAWEI/Middlewares/Third_Party/Huawei/iot_link/os/liteos/base/include\__binary_tree.h ****                                                         \
 280:D:/fchai/work/i-cube/I-CUBE-HUAWEI/Middlewares/Third_Party/Huawei/iot_link/os/liteos/base/include\__binary_tree.h ****     return l;                                           \
 281:D:/fchai/work/i-cube/I-CUBE-HUAWEI/Middlewares/Third_Party/Huawei/iot_link/os/liteos/base/include\__binary_tree.h **** } while (0)
 282:D:/fchai/work/i-cube/I-CUBE-HUAWEI/Middlewares/Third_Party/Huawei/iot_link/os/liteos/base/include\__binary_tree.h **** 
 283:D:/fchai/work/i-cube/I-CUBE-HUAWEI/Middlewares/Third_Party/Huawei/iot_link/os/liteos/base/include\__binary_tree.h **** /**
 284:D:/fchai/work/i-cube/I-CUBE-HUAWEI/Middlewares/Third_Party/Huawei/iot_link/os/liteos/base/include\__binary_tree.h ****  * __bit_find_gt - find a node that is just greater to the given value
 285:D:/fchai/work/i-cube/I-CUBE-HUAWEI/Middlewares/Third_Party/Huawei/iot_link/os/liteos/base/include\__binary_tree.h ****  * @t: the given tree
 286:D:/fchai/work/i-cube/I-CUBE-HUAWEI/Middlewares/Third_Party/Huawei/iot_link/os/liteos/base/include\__binary_tree.h ****  * @k: the key value
 287:D:/fchai/work/i-cube/I-CUBE-HUAWEI/Middlewares/Third_Party/Huawei/iot_link/os/liteos/base/include\__binary_tree.h ****  *
 288:D:/fchai/work/i-cube/I-CUBE-HUAWEI/Middlewares/Third_Party/Huawei/iot_link/os/liteos/base/include\__binary_tree.h ****  * return: the nearest node with key > <k>, NULL or if key not found.
 289:D:/fchai/work/i-cube/I-CUBE-HUAWEI/Middlewares/Third_Party/Huawei/iot_link/os/liteos/base/include\__binary_tree.h ****  */
 290:D:/fchai/work/i-cube/I-CUBE-HUAWEI/Middlewares/Third_Party/Huawei/iot_link/os/liteos/base/include\__binary_tree.h **** 
 291:D:/fchai/work/i-cube/I-CUBE-HUAWEI/Middlewares/Third_Party/Huawei/iot_link/os/liteos/base/include\__binary_tree.h **** static inline bi_node_t * __bit_find_gt (bi_tree_t * t, uintptr_t k)
 292:D:/fchai/work/i-cube/I-CUBE-HUAWEI/Middlewares/Third_Party/Huawei/iot_link/os/liteos/base/include\__binary_tree.h **** {
 293:D:/fchai/work/i-cube/I-CUBE-HUAWEI/Middlewares/Third_Party/Huawei/iot_link/os/liteos/base/include\__binary_tree.h ****     __bit_find_cond_xt (t, k, >);
 294:D:/fchai/work/i-cube/I-CUBE-HUAWEI/Middlewares/Third_Party/Huawei/iot_link/os/liteos/base/include\__binary_tree.h **** }
 295:D:/fchai/work/i-cube/I-CUBE-HUAWEI/Middlewares/Third_Party/Huawei/iot_link/os/liteos/base/include\__binary_tree.h **** 
 296:D:/fchai/work/i-cube/I-CUBE-HUAWEI/Middlewares/Third_Party/Huawei/iot_link/os/liteos/base/include\__binary_tree.h **** /**
 297:D:/fchai/work/i-cube/I-CUBE-HUAWEI/Middlewares/Third_Party/Huawei/iot_link/os/liteos/base/include\__binary_tree.h ****  * __bit_find_lt - find a node that is just less to the given value
 298:D:/fchai/work/i-cube/I-CUBE-HUAWEI/Middlewares/Third_Party/Huawei/iot_link/os/liteos/base/include\__binary_tree.h ****  * @t: the given tree
 299:D:/fchai/work/i-cube/I-CUBE-HUAWEI/Middlewares/Third_Party/Huawei/iot_link/os/liteos/base/include\__binary_tree.h ****  * @k: the key value
 300:D:/fchai/work/i-cube/I-CUBE-HUAWEI/Middlewares/Third_Party/Huawei/iot_link/os/liteos/base/include\__binary_tree.h ****  *
 301:D:/fchai/work/i-cube/I-CUBE-HUAWEI/Middlewares/Third_Party/Huawei/iot_link/os/liteos/base/include\__binary_tree.h ****  * return: the nearest node with key < <k>, NULL or if key not found.
 302:D:/fchai/work/i-cube/I-CUBE-HUAWEI/Middlewares/Third_Party/Huawei/iot_link/os/liteos/base/include\__binary_tree.h ****  */
 303:D:/fchai/work/i-cube/I-CUBE-HUAWEI/Middlewares/Third_Party/Huawei/iot_link/os/liteos/base/include\__binary_tree.h **** 
 304:D:/fchai/work/i-cube/I-CUBE-HUAWEI/Middlewares/Third_Party/Huawei/iot_link/os/liteos/base/include\__binary_tree.h **** static inline bi_node_t * __bit_find_lt (bi_tree_t * t, uintptr_t k)
 305:D:/fchai/work/i-cube/I-CUBE-HUAWEI/Middlewares/Third_Party/Huawei/iot_link/os/liteos/base/include\__binary_tree.h **** {
 306:D:/fchai/work/i-cube/I-CUBE-HUAWEI/Middlewares/Third_Party/Huawei/iot_link/os/liteos/base/include\__binary_tree.h ****     __bit_find_cond_xt (t, k, <);
 307:D:/fchai/work/i-cube/I-CUBE-HUAWEI/Middlewares/Third_Party/Huawei/iot_link/os/liteos/base/include\__binary_tree.h **** }
 308:D:/fchai/work/i-cube/I-CUBE-HUAWEI/Middlewares/Third_Party/Huawei/iot_link/os/liteos/base/include\__binary_tree.h **** 
 309:D:/fchai/work/i-cube/I-CUBE-HUAWEI/Middlewares/Third_Party/Huawei/iot_link/os/liteos/base/include\__binary_tree.h **** /**
 310:D:/fchai/work/i-cube/I-CUBE-HUAWEI/Middlewares/Third_Party/Huawei/iot_link/os/liteos/base/include\__binary_tree.h ****  * __bit_first - find the first node of the tree
 311:D:/fchai/work/i-cube/I-CUBE-HUAWEI/Middlewares/Third_Party/Huawei/iot_link/os/liteos/base/include\__binary_tree.h ****  * @t: the given tree
 312:D:/fchai/work/i-cube/I-CUBE-HUAWEI/Middlewares/Third_Party/Huawei/iot_link/os/liteos/base/include\__binary_tree.h ****  *
 313:D:/fchai/work/i-cube/I-CUBE-HUAWEI/Middlewares/Third_Party/Huawei/iot_link/os/liteos/base/include\__binary_tree.h ****  * return: the first node, or NULL if the tree is empty
 314:D:/fchai/work/i-cube/I-CUBE-HUAWEI/Middlewares/Third_Party/Huawei/iot_link/os/liteos/base/include\__binary_tree.h ****  */
 315:D:/fchai/work/i-cube/I-CUBE-HUAWEI/Middlewares/Third_Party/Huawei/iot_link/os/liteos/base/include\__binary_tree.h **** 
 316:D:/fchai/work/i-cube/I-CUBE-HUAWEI/Middlewares/Third_Party/Huawei/iot_link/os/liteos/base/include\__binary_tree.h **** static inline bi_node_t * __bit_first (bi_tree_t * t)
 317:D:/fchai/work/i-cube/I-CUBE-HUAWEI/Middlewares/Third_Party/Huawei/iot_link/os/liteos/base/include\__binary_tree.h **** {
 318:D:/fchai/work/i-cube/I-CUBE-HUAWEI/Middlewares/Third_Party/Huawei/iot_link/os/liteos/base/include\__binary_tree.h ****     bi_node_t * n = t->r;
 319:D:/fchai/work/i-cube/I-CUBE-HUAWEI/Middlewares/Third_Party/Huawei/iot_link/os/liteos/base/include\__binary_tree.h **** 
 320:D:/fchai/work/i-cube/I-CUBE-HUAWEI/Middlewares/Third_Party/Huawei/iot_link/os/liteos/base/include\__binary_tree.h ****     if (n != NULL)
 321:D:/fchai/work/i-cube/I-CUBE-HUAWEI/Middlewares/Third_Party/Huawei/iot_link/os/liteos/base/include\__binary_tree.h ****     {
 322:D:/fchai/work/i-cube/I-CUBE-HUAWEI/Middlewares/Third_Party/Huawei/iot_link/os/liteos/base/include\__binary_tree.h ****         while (n->l != NULL)
 323:D:/fchai/work/i-cube/I-CUBE-HUAWEI/Middlewares/Third_Party/Huawei/iot_link/os/liteos/base/include\__binary_tree.h ****         {
 324:D:/fchai/work/i-cube/I-CUBE-HUAWEI/Middlewares/Third_Party/Huawei/iot_link/os/liteos/base/include\__binary_tree.h ****             n = n->l;
 325:D:/fchai/work/i-cube/I-CUBE-HUAWEI/Middlewares/Third_Party/Huawei/iot_link/os/liteos/base/include\__binary_tree.h ****         }
 326:D:/fchai/work/i-cube/I-CUBE-HUAWEI/Middlewares/Third_Party/Huawei/iot_link/os/liteos/base/include\__binary_tree.h ****     }
 327:D:/fchai/work/i-cube/I-CUBE-HUAWEI/Middlewares/Third_Party/Huawei/iot_link/os/liteos/base/include\__binary_tree.h **** 
 328:D:/fchai/work/i-cube/I-CUBE-HUAWEI/Middlewares/Third_Party/Huawei/iot_link/os/liteos/base/include\__binary_tree.h ****     return n;
 329:D:/fchai/work/i-cube/I-CUBE-HUAWEI/Middlewares/Third_Party/Huawei/iot_link/os/liteos/base/include\__binary_tree.h **** }
 330:D:/fchai/work/i-cube/I-CUBE-HUAWEI/Middlewares/Third_Party/Huawei/iot_link/os/liteos/base/include\__binary_tree.h **** 
ARM GAS  T:\msys\tmp\cc3PruZ9.s 			page 22


 331:D:/fchai/work/i-cube/I-CUBE-HUAWEI/Middlewares/Third_Party/Huawei/iot_link/os/liteos/base/include\__binary_tree.h **** /**
 332:D:/fchai/work/i-cube/I-CUBE-HUAWEI/Middlewares/Third_Party/Huawei/iot_link/os/liteos/base/include\__binary_tree.h ****  * __bit_last - find the last node of the tree
 333:D:/fchai/work/i-cube/I-CUBE-HUAWEI/Middlewares/Third_Party/Huawei/iot_link/os/liteos/base/include\__binary_tree.h ****  * @t: the given tree
 334:D:/fchai/work/i-cube/I-CUBE-HUAWEI/Middlewares/Third_Party/Huawei/iot_link/os/liteos/base/include\__binary_tree.h ****  *
 335:D:/fchai/work/i-cube/I-CUBE-HUAWEI/Middlewares/Third_Party/Huawei/iot_link/os/liteos/base/include\__binary_tree.h ****  * return: the last node, or NULL if the tree is empty
 336:D:/fchai/work/i-cube/I-CUBE-HUAWEI/Middlewares/Third_Party/Huawei/iot_link/os/liteos/base/include\__binary_tree.h ****  */
 337:D:/fchai/work/i-cube/I-CUBE-HUAWEI/Middlewares/Third_Party/Huawei/iot_link/os/liteos/base/include\__binary_tree.h **** 
 338:D:/fchai/work/i-cube/I-CUBE-HUAWEI/Middlewares/Third_Party/Huawei/iot_link/os/liteos/base/include\__binary_tree.h **** static inline bi_node_t * __bit_last (bi_tree_t * t)
 339:D:/fchai/work/i-cube/I-CUBE-HUAWEI/Middlewares/Third_Party/Huawei/iot_link/os/liteos/base/include\__binary_tree.h **** {
 340:D:/fchai/work/i-cube/I-CUBE-HUAWEI/Middlewares/Third_Party/Huawei/iot_link/os/liteos/base/include\__binary_tree.h ****     bi_node_t * n = t->r;
 341:D:/fchai/work/i-cube/I-CUBE-HUAWEI/Middlewares/Third_Party/Huawei/iot_link/os/liteos/base/include\__binary_tree.h **** 
 342:D:/fchai/work/i-cube/I-CUBE-HUAWEI/Middlewares/Third_Party/Huawei/iot_link/os/liteos/base/include\__binary_tree.h ****     if (n != NULL)
 343:D:/fchai/work/i-cube/I-CUBE-HUAWEI/Middlewares/Third_Party/Huawei/iot_link/os/liteos/base/include\__binary_tree.h ****     {
 344:D:/fchai/work/i-cube/I-CUBE-HUAWEI/Middlewares/Third_Party/Huawei/iot_link/os/liteos/base/include\__binary_tree.h ****         while (n->r != NULL)
 345:D:/fchai/work/i-cube/I-CUBE-HUAWEI/Middlewares/Third_Party/Huawei/iot_link/os/liteos/base/include\__binary_tree.h ****         {
 346:D:/fchai/work/i-cube/I-CUBE-HUAWEI/Middlewares/Third_Party/Huawei/iot_link/os/liteos/base/include\__binary_tree.h ****             n = n->r;
 347:D:/fchai/work/i-cube/I-CUBE-HUAWEI/Middlewares/Third_Party/Huawei/iot_link/os/liteos/base/include\__binary_tree.h ****         }
 348:D:/fchai/work/i-cube/I-CUBE-HUAWEI/Middlewares/Third_Party/Huawei/iot_link/os/liteos/base/include\__binary_tree.h ****     }
 349:D:/fchai/work/i-cube/I-CUBE-HUAWEI/Middlewares/Third_Party/Huawei/iot_link/os/liteos/base/include\__binary_tree.h **** 
 350:D:/fchai/work/i-cube/I-CUBE-HUAWEI/Middlewares/Third_Party/Huawei/iot_link/os/liteos/base/include\__binary_tree.h ****     return n;
 351:D:/fchai/work/i-cube/I-CUBE-HUAWEI/Middlewares/Third_Party/Huawei/iot_link/os/liteos/base/include\__binary_tree.h **** }
 352:D:/fchai/work/i-cube/I-CUBE-HUAWEI/Middlewares/Third_Party/Huawei/iot_link/os/liteos/base/include\__binary_tree.h **** 
 353:D:/fchai/work/i-cube/I-CUBE-HUAWEI/Middlewares/Third_Party/Huawei/iot_link/os/liteos/base/include\__binary_tree.h **** /**
 354:D:/fchai/work/i-cube/I-CUBE-HUAWEI/Middlewares/Third_Party/Huawei/iot_link/os/liteos/base/include\__binary_tree.h ****  * __bit_find_cond_xe - find a node that is just greater equal or less equal than
 355:D:/fchai/work/i-cube/I-CUBE-HUAWEI/Middlewares/Third_Party/Huawei/iot_link/os/liteos/base/include\__binary_tree.h ****  *                      the given value
 356:D:/fchai/work/i-cube/I-CUBE-HUAWEI/Middlewares/Third_Party/Huawei/iot_link/os/liteos/base/include\__binary_tree.h ****  * @t:    the given tree
 357:D:/fchai/work/i-cube/I-CUBE-HUAWEI/Middlewares/Third_Party/Huawei/iot_link/os/liteos/base/include\__binary_tree.h ****  * @k:    the key value
 358:D:/fchai/work/i-cube/I-CUBE-HUAWEI/Middlewares/Third_Party/Huawei/iot_link/os/liteos/base/include\__binary_tree.h ****  * @cond: the condition, '<=' or '>='
 359:D:/fchai/work/i-cube/I-CUBE-HUAWEI/Middlewares/Third_Party/Huawei/iot_link/os/liteos/base/include\__binary_tree.h ****  *
 360:D:/fchai/work/i-cube/I-CUBE-HUAWEI/Middlewares/Third_Party/Huawei/iot_link/os/liteos/base/include\__binary_tree.h ****  * return: the nearest node with key greater equal or less equal than <k>, or NULL
 361:D:/fchai/work/i-cube/I-CUBE-HUAWEI/Middlewares/Third_Party/Huawei/iot_link/os/liteos/base/include\__binary_tree.h ****  *         if key not found.
 362:D:/fchai/work/i-cube/I-CUBE-HUAWEI/Middlewares/Third_Party/Huawei/iot_link/os/liteos/base/include\__binary_tree.h ****  */
 363:D:/fchai/work/i-cube/I-CUBE-HUAWEI/Middlewares/Third_Party/Huawei/iot_link/os/liteos/base/include\__binary_tree.h **** 
 364:D:/fchai/work/i-cube/I-CUBE-HUAWEI/Middlewares/Third_Party/Huawei/iot_link/os/liteos/base/include\__binary_tree.h **** #define __bit_find_cond_xe(t, k, cond)                  \
 365:D:/fchai/work/i-cube/I-CUBE-HUAWEI/Middlewares/Third_Party/Huawei/iot_link/os/liteos/base/include\__binary_tree.h **** do {                                                    \
 366:D:/fchai/work/i-cube/I-CUBE-HUAWEI/Middlewares/Third_Party/Huawei/iot_link/os/liteos/base/include\__binary_tree.h ****     bi_node_t * l = NULL; /* last one */                \
 367:D:/fchai/work/i-cube/I-CUBE-HUAWEI/Middlewares/Third_Party/Huawei/iot_link/os/liteos/base/include\__binary_tree.h ****     bi_node_t * w = t->r;                               \
 368:D:/fchai/work/i-cube/I-CUBE-HUAWEI/Middlewares/Third_Party/Huawei/iot_link/os/liteos/base/include\__binary_tree.h ****                                                         \
 369:D:/fchai/work/i-cube/I-CUBE-HUAWEI/Middlewares/Third_Party/Huawei/iot_link/os/liteos/base/include\__binary_tree.h ****     while (w != NULL)                                   \
 370:D:/fchai/work/i-cube/I-CUBE-HUAWEI/Middlewares/Third_Party/Huawei/iot_link/os/liteos/base/include\__binary_tree.h ****     {                                               \
 371:D:/fchai/work/i-cube/I-CUBE-HUAWEI/Middlewares/Third_Party/Huawei/iot_link/os/liteos/base/include\__binary_tree.h ****         int     c = t->compare_nk (w, k);               \
 372:D:/fchai/work/i-cube/I-CUBE-HUAWEI/Middlewares/Third_Party/Huawei/iot_link/os/liteos/base/include\__binary_tree.h ****                                                         \
 373:D:/fchai/work/i-cube/I-CUBE-HUAWEI/Middlewares/Third_Party/Huawei/iot_link/os/liteos/base/include\__binary_tree.h ****         if (c == 0)                                     \
 374:D:/fchai/work/i-cube/I-CUBE-HUAWEI/Middlewares/Third_Party/Huawei/iot_link/os/liteos/base/include\__binary_tree.h ****         {                                           \
 375:D:/fchai/work/i-cube/I-CUBE-HUAWEI/Middlewares/Third_Party/Huawei/iot_link/os/liteos/base/include\__binary_tree.h ****             return w;                                   \
 376:D:/fchai/work/i-cube/I-CUBE-HUAWEI/Middlewares/Third_Party/Huawei/iot_link/os/liteos/base/include\__binary_tree.h ****         }                                           \
 377:D:/fchai/work/i-cube/I-CUBE-HUAWEI/Middlewares/Third_Party/Huawei/iot_link/os/liteos/base/include\__binary_tree.h ****                                                         \
 378:D:/fchai/work/i-cube/I-CUBE-HUAWEI/Middlewares/Third_Party/Huawei/iot_link/os/liteos/base/include\__binary_tree.h ****         if (c cond 0)                                   \
 379:D:/fchai/work/i-cube/I-CUBE-HUAWEI/Middlewares/Third_Party/Huawei/iot_link/os/liteos/base/include\__binary_tree.h ****         {                                           \
 380:D:/fchai/work/i-cube/I-CUBE-HUAWEI/Middlewares/Third_Party/Huawei/iot_link/os/liteos/base/include\__binary_tree.h ****             l = w;                                      \
 381:D:/fchai/work/i-cube/I-CUBE-HUAWEI/Middlewares/Third_Party/Huawei/iot_link/os/liteos/base/include\__binary_tree.h ****         }                                           \
 382:D:/fchai/work/i-cube/I-CUBE-HUAWEI/Middlewares/Third_Party/Huawei/iot_link/os/liteos/base/include\__binary_tree.h ****                                                         \
 383:D:/fchai/work/i-cube/I-CUBE-HUAWEI/Middlewares/Third_Party/Huawei/iot_link/os/liteos/base/include\__binary_tree.h ****         w = c < 0 ? w->r : w->l;                        \
 384:D:/fchai/work/i-cube/I-CUBE-HUAWEI/Middlewares/Third_Party/Huawei/iot_link/os/liteos/base/include\__binary_tree.h ****     }                                               \
 385:D:/fchai/work/i-cube/I-CUBE-HUAWEI/Middlewares/Third_Party/Huawei/iot_link/os/liteos/base/include\__binary_tree.h ****                                                         \
 386:D:/fchai/work/i-cube/I-CUBE-HUAWEI/Middlewares/Third_Party/Huawei/iot_link/os/liteos/base/include\__binary_tree.h ****     return l;                                           \
 387:D:/fchai/work/i-cube/I-CUBE-HUAWEI/Middlewares/Third_Party/Huawei/iot_link/os/liteos/base/include\__binary_tree.h **** } while (0)
ARM GAS  T:\msys\tmp\cc3PruZ9.s 			page 23


 388:D:/fchai/work/i-cube/I-CUBE-HUAWEI/Middlewares/Third_Party/Huawei/iot_link/os/liteos/base/include\__binary_tree.h **** 
 389:D:/fchai/work/i-cube/I-CUBE-HUAWEI/Middlewares/Third_Party/Huawei/iot_link/os/liteos/base/include\__binary_tree.h **** /**
 390:D:/fchai/work/i-cube/I-CUBE-HUAWEI/Middlewares/Third_Party/Huawei/iot_link/os/liteos/base/include\__binary_tree.h ****  * __bit_find_ge - find a node that is just greater or equal to the given value
 391:D:/fchai/work/i-cube/I-CUBE-HUAWEI/Middlewares/Third_Party/Huawei/iot_link/os/liteos/base/include\__binary_tree.h ****  * @t: the given tree
 392:D:/fchai/work/i-cube/I-CUBE-HUAWEI/Middlewares/Third_Party/Huawei/iot_link/os/liteos/base/include\__binary_tree.h ****  * @k: the key value
 393:D:/fchai/work/i-cube/I-CUBE-HUAWEI/Middlewares/Third_Party/Huawei/iot_link/os/liteos/base/include\__binary_tree.h ****  *
 394:D:/fchai/work/i-cube/I-CUBE-HUAWEI/Middlewares/Third_Party/Huawei/iot_link/os/liteos/base/include\__binary_tree.h ****  * return: the nearest node with key >= <k>, or NULL if key not found.
 395:D:/fchai/work/i-cube/I-CUBE-HUAWEI/Middlewares/Third_Party/Huawei/iot_link/os/liteos/base/include\__binary_tree.h ****  */
 396:D:/fchai/work/i-cube/I-CUBE-HUAWEI/Middlewares/Third_Party/Huawei/iot_link/os/liteos/base/include\__binary_tree.h **** 
 397:D:/fchai/work/i-cube/I-CUBE-HUAWEI/Middlewares/Third_Party/Huawei/iot_link/os/liteos/base/include\__binary_tree.h **** static inline bi_node_t * __bit_find_ge (bi_tree_t * t, uintptr_t k)
 398:D:/fchai/work/i-cube/I-CUBE-HUAWEI/Middlewares/Third_Party/Huawei/iot_link/os/liteos/base/include\__binary_tree.h **** {
 399:D:/fchai/work/i-cube/I-CUBE-HUAWEI/Middlewares/Third_Party/Huawei/iot_link/os/liteos/base/include\__binary_tree.h ****     __bit_find_cond_xe (t, k, >=);
 400:D:/fchai/work/i-cube/I-CUBE-HUAWEI/Middlewares/Third_Party/Huawei/iot_link/os/liteos/base/include\__binary_tree.h **** }
 401:D:/fchai/work/i-cube/I-CUBE-HUAWEI/Middlewares/Third_Party/Huawei/iot_link/os/liteos/base/include\__binary_tree.h **** 
 402:D:/fchai/work/i-cube/I-CUBE-HUAWEI/Middlewares/Third_Party/Huawei/iot_link/os/liteos/base/include\__binary_tree.h **** /**
 403:D:/fchai/work/i-cube/I-CUBE-HUAWEI/Middlewares/Third_Party/Huawei/iot_link/os/liteos/base/include\__binary_tree.h ****  * __bit_find_le - find a node that is just less or equal to the given value
 404:D:/fchai/work/i-cube/I-CUBE-HUAWEI/Middlewares/Third_Party/Huawei/iot_link/os/liteos/base/include\__binary_tree.h ****  * @t: the given tree
 405:D:/fchai/work/i-cube/I-CUBE-HUAWEI/Middlewares/Third_Party/Huawei/iot_link/os/liteos/base/include\__binary_tree.h ****  * @k: the key value
 406:D:/fchai/work/i-cube/I-CUBE-HUAWEI/Middlewares/Third_Party/Huawei/iot_link/os/liteos/base/include\__binary_tree.h ****  *
 407:D:/fchai/work/i-cube/I-CUBE-HUAWEI/Middlewares/Third_Party/Huawei/iot_link/os/liteos/base/include\__binary_tree.h ****  * return: the nearest node with key <= <k>, of NULL if key not found.
 408:D:/fchai/work/i-cube/I-CUBE-HUAWEI/Middlewares/Third_Party/Huawei/iot_link/os/liteos/base/include\__binary_tree.h ****  */
 409:D:/fchai/work/i-cube/I-CUBE-HUAWEI/Middlewares/Third_Party/Huawei/iot_link/os/liteos/base/include\__binary_tree.h **** 
 410:D:/fchai/work/i-cube/I-CUBE-HUAWEI/Middlewares/Third_Party/Huawei/iot_link/os/liteos/base/include\__binary_tree.h **** static inline bi_node_t * __bit_find_le (bi_tree_t * t, uintptr_t k)
 411:D:/fchai/work/i-cube/I-CUBE-HUAWEI/Middlewares/Third_Party/Huawei/iot_link/os/liteos/base/include\__binary_tree.h **** {
 412:D:/fchai/work/i-cube/I-CUBE-HUAWEI/Middlewares/Third_Party/Huawei/iot_link/os/liteos/base/include\__binary_tree.h ****     __bit_find_cond_xe (t, k, <=);
 413:D:/fchai/work/i-cube/I-CUBE-HUAWEI/Middlewares/Third_Party/Huawei/iot_link/os/liteos/base/include\__binary_tree.h **** }
 414:D:/fchai/work/i-cube/I-CUBE-HUAWEI/Middlewares/Third_Party/Huawei/iot_link/os/liteos/base/include\__binary_tree.h **** 
 415:D:/fchai/work/i-cube/I-CUBE-HUAWEI/Middlewares/Third_Party/Huawei/iot_link/os/liteos/base/include\__binary_tree.h **** /**
 416:D:/fchai/work/i-cube/I-CUBE-HUAWEI/Middlewares/Third_Party/Huawei/iot_link/os/liteos/base/include\__binary_tree.h ****  * __bit_node_get - find a existing node or create a new one for it
 417:D:/fchai/work/i-cube/I-CUBE-HUAWEI/Middlewares/Third_Party/Huawei/iot_link/os/liteos/base/include\__binary_tree.h ****  * @r:      the given tree root
 418:D:/fchai/work/i-cube/I-CUBE-HUAWEI/Middlewares/Third_Party/Huawei/iot_link/os/liteos/base/include\__binary_tree.h ****  * @k:      the key value
 419:D:/fchai/work/i-cube/I-CUBE-HUAWEI/Middlewares/Third_Party/Huawei/iot_link/os/liteos/base/include\__binary_tree.h ****  * @new:    pointer to a bool value, set to true if node not found and created a
 420:D:/fchai/work/i-cube/I-CUBE-HUAWEI/Middlewares/Third_Party/Huawei/iot_link/os/liteos/base/include\__binary_tree.h ****  *          new one
 421:D:/fchai/work/i-cube/I-CUBE-HUAWEI/Middlewares/Third_Party/Huawei/iot_link/os/liteos/base/include\__binary_tree.h ****  * @create: the node creating routine, <k> is the seconde argument
 422:D:/fchai/work/i-cube/I-CUBE-HUAWEI/Middlewares/Third_Party/Huawei/iot_link/os/liteos/base/include\__binary_tree.h ****  * @arg:    the first argument of the <create> routine
 423:D:/fchai/work/i-cube/I-CUBE-HUAWEI/Middlewares/Third_Party/Huawei/iot_link/os/liteos/base/include\__binary_tree.h ****  *
 424:D:/fchai/work/i-cube/I-CUBE-HUAWEI/Middlewares/Third_Party/Huawei/iot_link/os/liteos/base/include\__binary_tree.h ****  * return: the node with key = <k>, or NULL if node not found and allocate fail.
 425:D:/fchai/work/i-cube/I-CUBE-HUAWEI/Middlewares/Third_Party/Huawei/iot_link/os/liteos/base/include\__binary_tree.h ****  */
 426:D:/fchai/work/i-cube/I-CUBE-HUAWEI/Middlewares/Third_Party/Huawei/iot_link/os/liteos/base/include\__binary_tree.h **** 
 427:D:/fchai/work/i-cube/I-CUBE-HUAWEI/Middlewares/Third_Party/Huawei/iot_link/os/liteos/base/include\__binary_tree.h **** static inline bi_node_t * __bit_node_get (bi_tree_t * t, uintptr_t k, bool * new,
 428:D:/fchai/work/i-cube/I-CUBE-HUAWEI/Middlewares/Third_Party/Huawei/iot_link/os/liteos/base/include\__binary_tree.h ****                                           bi_node_t * (* create) (uintptr_t, uintptr_t),
 429:D:/fchai/work/i-cube/I-CUBE-HUAWEI/Middlewares/Third_Party/Huawei/iot_link/os/liteos/base/include\__binary_tree.h ****                                           uintptr_t arg)
 430:D:/fchai/work/i-cube/I-CUBE-HUAWEI/Middlewares/Third_Party/Huawei/iot_link/os/liteos/base/include\__binary_tree.h **** {
 431:D:/fchai/work/i-cube/I-CUBE-HUAWEI/Middlewares/Third_Party/Huawei/iot_link/os/liteos/base/include\__binary_tree.h ****     bi_node_t *  w = t->r;      /* walker, iterator */
 432:D:/fchai/work/i-cube/I-CUBE-HUAWEI/Middlewares/Third_Party/Huawei/iot_link/os/liteos/base/include\__binary_tree.h ****     bi_node_t *  l;             /* last one */
 433:D:/fchai/work/i-cube/I-CUBE-HUAWEI/Middlewares/Third_Party/Huawei/iot_link/os/liteos/base/include\__binary_tree.h ****     bi_node_t ** p;
 434:D:/fchai/work/i-cube/I-CUBE-HUAWEI/Middlewares/Third_Party/Huawei/iot_link/os/liteos/base/include\__binary_tree.h ****     int          c;
 435:D:/fchai/work/i-cube/I-CUBE-HUAWEI/Middlewares/Third_Party/Huawei/iot_link/os/liteos/base/include\__binary_tree.h **** 
 436:D:/fchai/work/i-cube/I-CUBE-HUAWEI/Middlewares/Third_Party/Huawei/iot_link/os/liteos/base/include\__binary_tree.h ****     if (w == NULL)
 437:D:/fchai/work/i-cube/I-CUBE-HUAWEI/Middlewares/Third_Party/Huawei/iot_link/os/liteos/base/include\__binary_tree.h ****     {
 438:D:/fchai/work/i-cube/I-CUBE-HUAWEI/Middlewares/Third_Party/Huawei/iot_link/os/liteos/base/include\__binary_tree.h ****         w = create (k, arg);
 439:D:/fchai/work/i-cube/I-CUBE-HUAWEI/Middlewares/Third_Party/Huawei/iot_link/os/liteos/base/include\__binary_tree.h **** 
 440:D:/fchai/work/i-cube/I-CUBE-HUAWEI/Middlewares/Third_Party/Huawei/iot_link/os/liteos/base/include\__binary_tree.h ****         w->p = w->l = w->r = NULL;
 441:D:/fchai/work/i-cube/I-CUBE-HUAWEI/Middlewares/Third_Party/Huawei/iot_link/os/liteos/base/include\__binary_tree.h ****         t->r = w;
 442:D:/fchai/work/i-cube/I-CUBE-HUAWEI/Middlewares/Third_Party/Huawei/iot_link/os/liteos/base/include\__binary_tree.h **** 
 443:D:/fchai/work/i-cube/I-CUBE-HUAWEI/Middlewares/Third_Party/Huawei/iot_link/os/liteos/base/include\__binary_tree.h ****         *new = true;
 444:D:/fchai/work/i-cube/I-CUBE-HUAWEI/Middlewares/Third_Party/Huawei/iot_link/os/liteos/base/include\__binary_tree.h **** 
ARM GAS  T:\msys\tmp\cc3PruZ9.s 			page 24


 445:D:/fchai/work/i-cube/I-CUBE-HUAWEI/Middlewares/Third_Party/Huawei/iot_link/os/liteos/base/include\__binary_tree.h ****         return w;
 446:D:/fchai/work/i-cube/I-CUBE-HUAWEI/Middlewares/Third_Party/Huawei/iot_link/os/liteos/base/include\__binary_tree.h ****     }
 447:D:/fchai/work/i-cube/I-CUBE-HUAWEI/Middlewares/Third_Party/Huawei/iot_link/os/liteos/base/include\__binary_tree.h **** 
 448:D:/fchai/work/i-cube/I-CUBE-HUAWEI/Middlewares/Third_Party/Huawei/iot_link/os/liteos/base/include\__binary_tree.h ****     while (1)
 449:D:/fchai/work/i-cube/I-CUBE-HUAWEI/Middlewares/Third_Party/Huawei/iot_link/os/liteos/base/include\__binary_tree.h ****     {
 450:D:/fchai/work/i-cube/I-CUBE-HUAWEI/Middlewares/Third_Party/Huawei/iot_link/os/liteos/base/include\__binary_tree.h ****         c = t->compare_nk (w, k);
 451:D:/fchai/work/i-cube/I-CUBE-HUAWEI/Middlewares/Third_Party/Huawei/iot_link/os/liteos/base/include\__binary_tree.h **** 
 452:D:/fchai/work/i-cube/I-CUBE-HUAWEI/Middlewares/Third_Party/Huawei/iot_link/os/liteos/base/include\__binary_tree.h ****         if (c == 0)
 453:D:/fchai/work/i-cube/I-CUBE-HUAWEI/Middlewares/Third_Party/Huawei/iot_link/os/liteos/base/include\__binary_tree.h ****         {
 454:D:/fchai/work/i-cube/I-CUBE-HUAWEI/Middlewares/Third_Party/Huawei/iot_link/os/liteos/base/include\__binary_tree.h ****             break;
 455:D:/fchai/work/i-cube/I-CUBE-HUAWEI/Middlewares/Third_Party/Huawei/iot_link/os/liteos/base/include\__binary_tree.h ****         }
 456:D:/fchai/work/i-cube/I-CUBE-HUAWEI/Middlewares/Third_Party/Huawei/iot_link/os/liteos/base/include\__binary_tree.h **** 
 457:D:/fchai/work/i-cube/I-CUBE-HUAWEI/Middlewares/Third_Party/Huawei/iot_link/os/liteos/base/include\__binary_tree.h ****         l = w;
 458:D:/fchai/work/i-cube/I-CUBE-HUAWEI/Middlewares/Third_Party/Huawei/iot_link/os/liteos/base/include\__binary_tree.h **** 
 459:D:/fchai/work/i-cube/I-CUBE-HUAWEI/Middlewares/Third_Party/Huawei/iot_link/os/liteos/base/include\__binary_tree.h ****         p = c < 0 ? &l->r : &l->l;
 460:D:/fchai/work/i-cube/I-CUBE-HUAWEI/Middlewares/Third_Party/Huawei/iot_link/os/liteos/base/include\__binary_tree.h ****         w = *p;
 461:D:/fchai/work/i-cube/I-CUBE-HUAWEI/Middlewares/Third_Party/Huawei/iot_link/os/liteos/base/include\__binary_tree.h **** 
 462:D:/fchai/work/i-cube/I-CUBE-HUAWEI/Middlewares/Third_Party/Huawei/iot_link/os/liteos/base/include\__binary_tree.h ****         if (w == NULL)
 463:D:/fchai/work/i-cube/I-CUBE-HUAWEI/Middlewares/Third_Party/Huawei/iot_link/os/liteos/base/include\__binary_tree.h ****         {
 464:D:/fchai/work/i-cube/I-CUBE-HUAWEI/Middlewares/Third_Party/Huawei/iot_link/os/liteos/base/include\__binary_tree.h ****             w = create (k, arg);
 465:D:/fchai/work/i-cube/I-CUBE-HUAWEI/Middlewares/Third_Party/Huawei/iot_link/os/liteos/base/include\__binary_tree.h **** 
 466:D:/fchai/work/i-cube/I-CUBE-HUAWEI/Middlewares/Third_Party/Huawei/iot_link/os/liteos/base/include\__binary_tree.h ****             if (w != NULL)
 467:D:/fchai/work/i-cube/I-CUBE-HUAWEI/Middlewares/Third_Party/Huawei/iot_link/os/liteos/base/include\__binary_tree.h ****             {
 468:D:/fchai/work/i-cube/I-CUBE-HUAWEI/Middlewares/Third_Party/Huawei/iot_link/os/liteos/base/include\__binary_tree.h ****                 w->p = l;
 469:D:/fchai/work/i-cube/I-CUBE-HUAWEI/Middlewares/Third_Party/Huawei/iot_link/os/liteos/base/include\__binary_tree.h ****                 w->l = w->r = NULL;
 470:D:/fchai/work/i-cube/I-CUBE-HUAWEI/Middlewares/Third_Party/Huawei/iot_link/os/liteos/base/include\__binary_tree.h **** 
 471:D:/fchai/work/i-cube/I-CUBE-HUAWEI/Middlewares/Third_Party/Huawei/iot_link/os/liteos/base/include\__binary_tree.h ****                 *p   = w;
 472:D:/fchai/work/i-cube/I-CUBE-HUAWEI/Middlewares/Third_Party/Huawei/iot_link/os/liteos/base/include\__binary_tree.h **** 
 473:D:/fchai/work/i-cube/I-CUBE-HUAWEI/Middlewares/Third_Party/Huawei/iot_link/os/liteos/base/include\__binary_tree.h ****                 *new = true;
 474:D:/fchai/work/i-cube/I-CUBE-HUAWEI/Middlewares/Third_Party/Huawei/iot_link/os/liteos/base/include\__binary_tree.h ****             }
 475:D:/fchai/work/i-cube/I-CUBE-HUAWEI/Middlewares/Third_Party/Huawei/iot_link/os/liteos/base/include\__binary_tree.h **** 
 476:D:/fchai/work/i-cube/I-CUBE-HUAWEI/Middlewares/Third_Party/Huawei/iot_link/os/liteos/base/include\__binary_tree.h ****             break;
 477:D:/fchai/work/i-cube/I-CUBE-HUAWEI/Middlewares/Third_Party/Huawei/iot_link/os/liteos/base/include\__binary_tree.h ****         }
 478:D:/fchai/work/i-cube/I-CUBE-HUAWEI/Middlewares/Third_Party/Huawei/iot_link/os/liteos/base/include\__binary_tree.h ****     }
 479:D:/fchai/work/i-cube/I-CUBE-HUAWEI/Middlewares/Third_Party/Huawei/iot_link/os/liteos/base/include\__binary_tree.h **** 
 480:D:/fchai/work/i-cube/I-CUBE-HUAWEI/Middlewares/Third_Party/Huawei/iot_link/os/liteos/base/include\__binary_tree.h ****     return w;
 481:D:/fchai/work/i-cube/I-CUBE-HUAWEI/Middlewares/Third_Party/Huawei/iot_link/os/liteos/base/include\__binary_tree.h **** }
 482:D:/fchai/work/i-cube/I-CUBE-HUAWEI/Middlewares/Third_Party/Huawei/iot_link/os/liteos/base/include\__binary_tree.h **** 
 483:D:/fchai/work/i-cube/I-CUBE-HUAWEI/Middlewares/Third_Party/Huawei/iot_link/os/liteos/base/include\__binary_tree.h **** /**
 484:D:/fchai/work/i-cube/I-CUBE-HUAWEI/Middlewares/Third_Party/Huawei/iot_link/os/liteos/base/include\__binary_tree.h ****  * __bit_rotate - rotate a sub-tree from <f> to <t>
 485:D:/fchai/work/i-cube/I-CUBE-HUAWEI/Middlewares/Third_Party/Huawei/iot_link/os/liteos/base/include\__binary_tree.h ****  * @T: the given tree
 486:D:/fchai/work/i-cube/I-CUBE-HUAWEI/Middlewares/Third_Party/Huawei/iot_link/os/liteos/base/include\__binary_tree.h ****  * @n: the sub-tree
 487:D:/fchai/work/i-cube/I-CUBE-HUAWEI/Middlewares/Third_Party/Huawei/iot_link/os/liteos/base/include\__binary_tree.h ****  * @f: the form-side
 488:D:/fchai/work/i-cube/I-CUBE-HUAWEI/Middlewares/Third_Party/Huawei/iot_link/os/liteos/base/include\__binary_tree.h ****  * @t: the to-side
 489:D:/fchai/work/i-cube/I-CUBE-HUAWEI/Middlewares/Third_Party/Huawei/iot_link/os/liteos/base/include\__binary_tree.h ****  *
 490:D:/fchai/work/i-cube/I-CUBE-HUAWEI/Middlewares/Third_Party/Huawei/iot_link/os/liteos/base/include\__binary_tree.h ****  * return: NA
 491:D:/fchai/work/i-cube/I-CUBE-HUAWEI/Middlewares/Third_Party/Huawei/iot_link/os/liteos/base/include\__binary_tree.h ****  *
 492:D:/fchai/work/i-cube/I-CUBE-HUAWEI/Middlewares/Third_Party/Huawei/iot_link/os/liteos/base/include\__binary_tree.h ****  * see also: __bit_rotate_right, __bit_rotate_left
 493:D:/fchai/work/i-cube/I-CUBE-HUAWEI/Middlewares/Third_Party/Huawei/iot_link/os/liteos/base/include\__binary_tree.h ****  */
 494:D:/fchai/work/i-cube/I-CUBE-HUAWEI/Middlewares/Third_Party/Huawei/iot_link/os/liteos/base/include\__binary_tree.h **** 
 495:D:/fchai/work/i-cube/I-CUBE-HUAWEI/Middlewares/Third_Party/Huawei/iot_link/os/liteos/base/include\__binary_tree.h **** #define __bit_rotate(T, n, f, t)                                        \
 496:D:/fchai/work/i-cube/I-CUBE-HUAWEI/Middlewares/Third_Party/Huawei/iot_link/os/liteos/base/include\__binary_tree.h ****     do                                                                  \
 497:D:/fchai/work/i-cube/I-CUBE-HUAWEI/Middlewares/Third_Party/Huawei/iot_link/os/liteos/base/include\__binary_tree.h ****     {                                                               \
 498:D:/fchai/work/i-cube/I-CUBE-HUAWEI/Middlewares/Third_Party/Huawei/iot_link/os/liteos/base/include\__binary_tree.h ****         bi_node_t * a = n->f;                                           \
 499:D:/fchai/work/i-cube/I-CUBE-HUAWEI/Middlewares/Third_Party/Huawei/iot_link/os/liteos/base/include\__binary_tree.h ****         bi_node_t * p = __bit_parent (n);                               \
 500:D:/fchai/work/i-cube/I-CUBE-HUAWEI/Middlewares/Third_Party/Huawei/iot_link/os/liteos/base/include\__binary_tree.h ****                                                                         \
 501:D:/fchai/work/i-cube/I-CUBE-HUAWEI/Middlewares/Third_Party/Huawei/iot_link/os/liteos/base/include\__binary_tree.h ****         if (a->t)   /* a->t is the 'z' in the comments of */            \
ARM GAS  T:\msys\tmp\cc3PruZ9.s 			page 25


 502:D:/fchai/work/i-cube/I-CUBE-HUAWEI/Middlewares/Third_Party/Huawei/iot_link/os/liteos/base/include\__binary_tree.h ****         {       /* __bit_rotate_right and __bit_rotate_left */      \
 503:D:/fchai/work/i-cube/I-CUBE-HUAWEI/Middlewares/Third_Party/Huawei/iot_link/os/liteos/base/include\__binary_tree.h ****             __bit_set_parent (a->t, n);                                 \
 504:D:/fchai/work/i-cube/I-CUBE-HUAWEI/Middlewares/Third_Party/Huawei/iot_link/os/liteos/base/include\__binary_tree.h ****         }                                                           \
 505:D:/fchai/work/i-cube/I-CUBE-HUAWEI/Middlewares/Third_Party/Huawei/iot_link/os/liteos/base/include\__binary_tree.h ****                                                                         \
 506:D:/fchai/work/i-cube/I-CUBE-HUAWEI/Middlewares/Third_Party/Huawei/iot_link/os/liteos/base/include\__binary_tree.h ****         __bit_set_parent (n, a);                                        \
 507:D:/fchai/work/i-cube/I-CUBE-HUAWEI/Middlewares/Third_Party/Huawei/iot_link/os/liteos/base/include\__binary_tree.h ****         n->f = a->t;                                                    \
 508:D:/fchai/work/i-cube/I-CUBE-HUAWEI/Middlewares/Third_Party/Huawei/iot_link/os/liteos/base/include\__binary_tree.h ****         a->t = n;                                                       \
 509:D:/fchai/work/i-cube/I-CUBE-HUAWEI/Middlewares/Third_Party/Huawei/iot_link/os/liteos/base/include\__binary_tree.h ****                                                                         \
 510:D:/fchai/work/i-cube/I-CUBE-HUAWEI/Middlewares/Third_Party/Huawei/iot_link/os/liteos/base/include\__binary_tree.h ****         __bit_set_parent (a, p);                                        \
 511:D:/fchai/work/i-cube/I-CUBE-HUAWEI/Middlewares/Third_Party/Huawei/iot_link/os/liteos/base/include\__binary_tree.h ****                                                                         \
 512:D:/fchai/work/i-cube/I-CUBE-HUAWEI/Middlewares/Third_Party/Huawei/iot_link/os/liteos/base/include\__binary_tree.h ****         if (p == NULL)                                                  \
 513:D:/fchai/work/i-cube/I-CUBE-HUAWEI/Middlewares/Third_Party/Huawei/iot_link/os/liteos/base/include\__binary_tree.h ****         {                                                           \
 514:D:/fchai/work/i-cube/I-CUBE-HUAWEI/Middlewares/Third_Party/Huawei/iot_link/os/liteos/base/include\__binary_tree.h ****             T->r = a;                                                   \
 515:D:/fchai/work/i-cube/I-CUBE-HUAWEI/Middlewares/Third_Party/Huawei/iot_link/os/liteos/base/include\__binary_tree.h ****         }                                                           \
 516:D:/fchai/work/i-cube/I-CUBE-HUAWEI/Middlewares/Third_Party/Huawei/iot_link/os/liteos/base/include\__binary_tree.h ****         else                                                            \
 517:D:/fchai/work/i-cube/I-CUBE-HUAWEI/Middlewares/Third_Party/Huawei/iot_link/os/liteos/base/include\__binary_tree.h ****         {                                                           \
 518:D:/fchai/work/i-cube/I-CUBE-HUAWEI/Middlewares/Third_Party/Huawei/iot_link/os/liteos/base/include\__binary_tree.h ****             if (n == p->l)                                              \
 519:D:/fchai/work/i-cube/I-CUBE-HUAWEI/Middlewares/Third_Party/Huawei/iot_link/os/liteos/base/include\__binary_tree.h ****             {                                                       \
 520:D:/fchai/work/i-cube/I-CUBE-HUAWEI/Middlewares/Third_Party/Huawei/iot_link/os/liteos/base/include\__binary_tree.h ****                 p->l = a;                                               \
 521:D:/fchai/work/i-cube/I-CUBE-HUAWEI/Middlewares/Third_Party/Huawei/iot_link/os/liteos/base/include\__binary_tree.h ****             }                                                       \
 522:D:/fchai/work/i-cube/I-CUBE-HUAWEI/Middlewares/Third_Party/Huawei/iot_link/os/liteos/base/include\__binary_tree.h ****             else                                                        \
 523:D:/fchai/work/i-cube/I-CUBE-HUAWEI/Middlewares/Third_Party/Huawei/iot_link/os/liteos/base/include\__binary_tree.h ****             {                                                       \
 524:D:/fchai/work/i-cube/I-CUBE-HUAWEI/Middlewares/Third_Party/Huawei/iot_link/os/liteos/base/include\__binary_tree.h ****                 p->r = a;                                               \
 525:D:/fchai/work/i-cube/I-CUBE-HUAWEI/Middlewares/Third_Party/Huawei/iot_link/os/liteos/base/include\__binary_tree.h ****             }                                                       \
 526:D:/fchai/work/i-cube/I-CUBE-HUAWEI/Middlewares/Third_Party/Huawei/iot_link/os/liteos/base/include\__binary_tree.h ****         }                                                           \
 527:D:/fchai/work/i-cube/I-CUBE-HUAWEI/Middlewares/Third_Party/Huawei/iot_link/os/liteos/base/include\__binary_tree.h ****     } while (0)
 528:D:/fchai/work/i-cube/I-CUBE-HUAWEI/Middlewares/Third_Party/Huawei/iot_link/os/liteos/base/include\__binary_tree.h **** 
 529:D:/fchai/work/i-cube/I-CUBE-HUAWEI/Middlewares/Third_Party/Huawei/iot_link/os/liteos/base/include\__binary_tree.h **** /**
 530:D:/fchai/work/i-cube/I-CUBE-HUAWEI/Middlewares/Third_Party/Huawei/iot_link/os/liteos/base/include\__binary_tree.h ****  * __bit_rotate_right - rotate a sub-tree right
 531:D:/fchai/work/i-cube/I-CUBE-HUAWEI/Middlewares/Third_Party/Huawei/iot_link/os/liteos/base/include\__binary_tree.h ****  * @T: the given tree
 532:D:/fchai/work/i-cube/I-CUBE-HUAWEI/Middlewares/Third_Party/Huawei/iot_link/os/liteos/base/include\__binary_tree.h ****  * @n: the sub-tree
 533:D:/fchai/work/i-cube/I-CUBE-HUAWEI/Middlewares/Third_Party/Huawei/iot_link/os/liteos/base/include\__binary_tree.h ****  *
 534:D:/fchai/work/i-cube/I-CUBE-HUAWEI/Middlewares/Third_Party/Huawei/iot_link/os/liteos/base/include\__binary_tree.h ****  *      n              a
 535:D:/fchai/work/i-cube/I-CUBE-HUAWEI/Middlewares/Third_Party/Huawei/iot_link/os/liteos/base/include\__binary_tree.h ****  *     / \            / \
 536:D:/fchai/work/i-cube/I-CUBE-HUAWEI/Middlewares/Third_Party/Huawei/iot_link/os/liteos/base/include\__binary_tree.h ****  *    a   x    ->    y   n
 537:D:/fchai/work/i-cube/I-CUBE-HUAWEI/Middlewares/Third_Party/Huawei/iot_link/os/liteos/base/include\__binary_tree.h ****  *   / \                / \
 538:D:/fchai/work/i-cube/I-CUBE-HUAWEI/Middlewares/Third_Party/Huawei/iot_link/os/liteos/base/include\__binary_tree.h ****  *  y   z              z   x
 539:D:/fchai/work/i-cube/I-CUBE-HUAWEI/Middlewares/Third_Party/Huawei/iot_link/os/liteos/base/include\__binary_tree.h ****  *
 540:D:/fchai/work/i-cube/I-CUBE-HUAWEI/Middlewares/Third_Party/Huawei/iot_link/os/liteos/base/include\__binary_tree.h ****  * return: NA
 541:D:/fchai/work/i-cube/I-CUBE-HUAWEI/Middlewares/Third_Party/Huawei/iot_link/os/liteos/base/include\__binary_tree.h ****  */
 542:D:/fchai/work/i-cube/I-CUBE-HUAWEI/Middlewares/Third_Party/Huawei/iot_link/os/liteos/base/include\__binary_tree.h **** 
 543:D:/fchai/work/i-cube/I-CUBE-HUAWEI/Middlewares/Third_Party/Huawei/iot_link/os/liteos/base/include\__binary_tree.h **** static inline void __bit_rotate_right (bi_tree_t * t, bi_node_t * n)
 544:D:/fchai/work/i-cube/I-CUBE-HUAWEI/Middlewares/Third_Party/Huawei/iot_link/os/liteos/base/include\__binary_tree.h **** {
 545:D:/fchai/work/i-cube/I-CUBE-HUAWEI/Middlewares/Third_Party/Huawei/iot_link/os/liteos/base/include\__binary_tree.h ****     __bit_rotate (t, n, l, r);
 546:D:/fchai/work/i-cube/I-CUBE-HUAWEI/Middlewares/Third_Party/Huawei/iot_link/os/liteos/base/include\__binary_tree.h **** }
 547:D:/fchai/work/i-cube/I-CUBE-HUAWEI/Middlewares/Third_Party/Huawei/iot_link/os/liteos/base/include\__binary_tree.h **** 
 548:D:/fchai/work/i-cube/I-CUBE-HUAWEI/Middlewares/Third_Party/Huawei/iot_link/os/liteos/base/include\__binary_tree.h **** /**
 549:D:/fchai/work/i-cube/I-CUBE-HUAWEI/Middlewares/Third_Party/Huawei/iot_link/os/liteos/base/include\__binary_tree.h ****  * __bit_rotate_left - rotate a sub-tree left
 550:D:/fchai/work/i-cube/I-CUBE-HUAWEI/Middlewares/Third_Party/Huawei/iot_link/os/liteos/base/include\__binary_tree.h ****  * @T: the given tree
 551:D:/fchai/work/i-cube/I-CUBE-HUAWEI/Middlewares/Third_Party/Huawei/iot_link/os/liteos/base/include\__binary_tree.h ****  * @n: the sub-tree
 552:D:/fchai/work/i-cube/I-CUBE-HUAWEI/Middlewares/Third_Party/Huawei/iot_link/os/liteos/base/include\__binary_tree.h ****  *
 553:D:/fchai/work/i-cube/I-CUBE-HUAWEI/Middlewares/Third_Party/Huawei/iot_link/os/liteos/base/include\__binary_tree.h ****  *    n                  a
 554:D:/fchai/work/i-cube/I-CUBE-HUAWEI/Middlewares/Third_Party/Huawei/iot_link/os/liteos/base/include\__binary_tree.h ****  *   / \                / \
 555:D:/fchai/work/i-cube/I-CUBE-HUAWEI/Middlewares/Third_Party/Huawei/iot_link/os/liteos/base/include\__binary_tree.h ****  *  x   a      ->      n   y
 556:D:/fchai/work/i-cube/I-CUBE-HUAWEI/Middlewares/Third_Party/Huawei/iot_link/os/liteos/base/include\__binary_tree.h ****  *     / \            / \
 557:D:/fchai/work/i-cube/I-CUBE-HUAWEI/Middlewares/Third_Party/Huawei/iot_link/os/liteos/base/include\__binary_tree.h ****  *    z   y          x   z
 558:D:/fchai/work/i-cube/I-CUBE-HUAWEI/Middlewares/Third_Party/Huawei/iot_link/os/liteos/base/include\__binary_tree.h ****  */
ARM GAS  T:\msys\tmp\cc3PruZ9.s 			page 26


 559:D:/fchai/work/i-cube/I-CUBE-HUAWEI/Middlewares/Third_Party/Huawei/iot_link/os/liteos/base/include\__binary_tree.h **** 
 560:D:/fchai/work/i-cube/I-CUBE-HUAWEI/Middlewares/Third_Party/Huawei/iot_link/os/liteos/base/include\__binary_tree.h **** static inline void __bit_rotate_left (bi_tree_t * t, bi_node_t * n)
 275              		.loc 2 560 20 view .LVU78
 276              		.loc 2 560 20 is_stmt 0 view .LVU79
 277              	.LBE532:
 278              	.LBE531:
 279              	.LBE530:
 561:D:/fchai/work/i-cube/I-CUBE-HUAWEI/Middlewares/Third_Party/Huawei/iot_link/os/liteos/base/include\__binary_tree.h **** {
 562:D:/fchai/work/i-cube/I-CUBE-HUAWEI/Middlewares/Third_Party/Huawei/iot_link/os/liteos/base/include\__binary_tree.h ****     __bit_rotate (t, n, r, l);
 280              		.loc 2 562 5 is_stmt 1 view .LVU80
 281              	.LBB548:
 282              	.LBB545:
 283              	.LBB542:
 284              	.LBB533:
 285              		.loc 2 562 5 view .LVU81
 286              		.loc 2 562 5 view .LVU82
 287 0034 6568     		ldr	r5, [r4, #4]
 288              	.LVL10:
 289              		.loc 2 562 5 is_stmt 0 view .LVU83
 290 0036 1168     		ldr	r1, [r2]
 291              	.LVL11:
 292              		.loc 2 562 5 view .LVU84
 293              	.LBE533:
 294              	.LBE542:
 295              	.LBE545:
 296              	.LBE548:
  78:D:/fchai/work/i-cube/I-CUBE-HUAWEI/Middlewares/Third_Party/Huawei/iot_link/os/liteos/base/include\__binary_tree.h **** }
 297              		.loc 2 78 5 is_stmt 1 view .LVU85
 298              	.LBB549:
 299              	.LBB546:
 300              	.LBB543:
 301              	.LBB540:
 302              		.loc 2 562 5 view .LVU86
 303 0038 05B1     		cbz	r5, .L17
 304              		.loc 2 562 5 view .LVU87
 305              	.LVL12:
 306              	.LBB534:
 307              	.LBI534:
  88:D:/fchai/work/i-cube/I-CUBE-HUAWEI/Middlewares/Third_Party/Huawei/iot_link/os/liteos/base/include\__binary_tree.h **** {
 308              		.loc 2 88 20 view .LVU88
 309              	.LBB535:
  90:D:/fchai/work/i-cube/I-CUBE-HUAWEI/Middlewares/Third_Party/Huawei/iot_link/os/liteos/base/include\__binary_tree.h **** }
 310              		.loc 2 90 5 view .LVU89
  90:D:/fchai/work/i-cube/I-CUBE-HUAWEI/Middlewares/Third_Party/Huawei/iot_link/os/liteos/base/include\__binary_tree.h **** }
 311              		.loc 2 90 10 is_stmt 0 view .LVU90
 312 003a 2A60     		str	r2, [r5]
 313              	.LVL13:
 314              	.L17:
  90:D:/fchai/work/i-cube/I-CUBE-HUAWEI/Middlewares/Third_Party/Huawei/iot_link/os/liteos/base/include\__binary_tree.h **** }
 315              		.loc 2 90 10 view .LVU91
 316              	.LBE535:
 317              	.LBE534:
 318              		.loc 2 562 5 is_stmt 1 view .LVU92
 319              	.LBB536:
 320              	.LBI536:
  88:D:/fchai/work/i-cube/I-CUBE-HUAWEI/Middlewares/Third_Party/Huawei/iot_link/os/liteos/base/include\__binary_tree.h **** {
 321              		.loc 2 88 20 view .LVU93
ARM GAS  T:\msys\tmp\cc3PruZ9.s 			page 27


 322              	.LBB537:
  90:D:/fchai/work/i-cube/I-CUBE-HUAWEI/Middlewares/Third_Party/Huawei/iot_link/os/liteos/base/include\__binary_tree.h **** }
 323              		.loc 2 90 5 view .LVU94
  90:D:/fchai/work/i-cube/I-CUBE-HUAWEI/Middlewares/Third_Party/Huawei/iot_link/os/liteos/base/include\__binary_tree.h **** }
 324              		.loc 2 90 10 is_stmt 0 view .LVU95
 325 003c 1460     		str	r4, [r2]
  90:D:/fchai/work/i-cube/I-CUBE-HUAWEI/Middlewares/Third_Party/Huawei/iot_link/os/liteos/base/include\__binary_tree.h **** }
 326              		.loc 2 90 10 view .LVU96
 327              	.LBE537:
 328              	.LBE536:
 329              		.loc 2 562 5 is_stmt 1 view .LVU97
 330 003e 6568     		ldr	r5, [r4, #4]
 331 0040 9560     		str	r5, [r2, #8]
 332              		.loc 2 562 5 view .LVU98
 333              	.LBB538:
 334              	.LBB539:
  90:D:/fchai/work/i-cube/I-CUBE-HUAWEI/Middlewares/Third_Party/Huawei/iot_link/os/liteos/base/include\__binary_tree.h **** }
 335              		.loc 2 90 10 is_stmt 0 view .LVU99
 336 0042 C4E90012 		strd	r1, r2, [r4]
 337              	.LBE539:
 338              	.LBE538:
 339              		.loc 2 562 5 is_stmt 1 view .LVU100
 340 0046 0029     		cmp	r1, #0
 341 0048 30D0     		beq	.L48
 342              	.LVL14:
 343              	.L18:
 344              		.loc 2 562 5 view .LVU101
 345 004a 4868     		ldr	r0, [r1, #4]
 346              	.LVL15:
 347              		.loc 2 562 5 is_stmt 0 view .LVU102
 348 004c 8242     		cmp	r2, r0
 349              		.loc 2 562 5 is_stmt 1 view .LVU103
 350 004e 0CBF     		ite	eq
 351 0050 4C60     		streq	r4, [r1, #4]
 352              		.loc 2 562 5 view .LVU104
 353 0052 8C60     		strne	r4, [r1, #8]
 354              	.L12:
 355              		.loc 2 562 5 is_stmt 0 view .LVU105
 356              	.LBE540:
 357              	.LBE543:
 358              	.LBE546:
 359              	.LBE549:
 552:D:/fchai/work/i-cube/I-CUBE-HUAWEI/Middlewares/Third_Party/Huawei/iot_link/os/liteos/utils\rbtree.c ****     }
 553:D:/fchai/work/i-cube/I-CUBE-HUAWEI/Middlewares/Third_Party/Huawei/iot_link/os/liteos/utils\rbtree.c **** 
 554:D:/fchai/work/i-cube/I-CUBE-HUAWEI/Middlewares/Third_Party/Huawei/iot_link/os/liteos/utils\rbtree.c ****     __set_black (n);
 360              		.loc 1 554 5 is_stmt 1 view .LVU106
 361              	.LVL16:
 362              	.LBB550:
 363              	.LBI550:
 135:D:/fchai/work/i-cube/I-CUBE-HUAWEI/Middlewares/Third_Party/Huawei/iot_link/os/liteos/utils\rbtree.c **** {
 364              		.loc 1 135 20 view .LVU107
 365              	.LBB551:
 137:D:/fchai/work/i-cube/I-CUBE-HUAWEI/Middlewares/Third_Party/Huawei/iot_link/os/liteos/utils\rbtree.c **** }
 366              		.loc 1 137 5 view .LVU108
 367              	.LBB552:
 368              	.LBI552:
 111:D:/fchai/work/i-cube/I-CUBE-HUAWEI/Middlewares/Third_Party/Huawei/iot_link/os/liteos/utils\rbtree.c **** {
ARM GAS  T:\msys\tmp\cc3PruZ9.s 			page 28


 369              		.loc 1 111 20 view .LVU109
 370              	.LBB553:
 113:D:/fchai/work/i-cube/I-CUBE-HUAWEI/Middlewares/Third_Party/Huawei/iot_link/os/liteos/utils\rbtree.c **** }
 371              		.loc 1 113 5 view .LVU110
 113:D:/fchai/work/i-cube/I-CUBE-HUAWEI/Middlewares/Third_Party/Huawei/iot_link/os/liteos/utils\rbtree.c **** }
 372              		.loc 1 113 10 is_stmt 0 view .LVU111
 373 0054 0122     		movs	r2, #1
 374              	.LVL17:
 113:D:/fchai/work/i-cube/I-CUBE-HUAWEI/Middlewares/Third_Party/Huawei/iot_link/os/liteos/utils\rbtree.c **** }
 375              		.loc 1 113 10 view .LVU112
 376 0056 DA60     		str	r2, [r3, #12]
 377              	.LVL18:
 378              	.L1:
 113:D:/fchai/work/i-cube/I-CUBE-HUAWEI/Middlewares/Third_Party/Huawei/iot_link/os/liteos/utils\rbtree.c **** }
 379              		.loc 1 113 10 view .LVU113
 380              	.LBE553:
 381              	.LBE552:
 382              	.LBE551:
 383              	.LBE550:
 555:D:/fchai/work/i-cube/I-CUBE-HUAWEI/Middlewares/Third_Party/Huawei/iot_link/os/liteos/utils\rbtree.c **** }
 384              		.loc 1 555 1 view .LVU114
 385 0058 F0BC     		pop	{r4, r5, r6, r7}
 386              	.LCFI1:
 387              		.cfi_remember_state
 388              		.cfi_restore 7
 389              		.cfi_restore 6
 390              		.cfi_restore 5
 391              		.cfi_restore 4
 392              		.cfi_def_cfa_offset 0
 393 005a 7047     		bx	lr
 394              	.LVL19:
 395              	.L52:
 396              	.LCFI2:
 397              		.cfi_restore_state
 398              	.LBB554:
 399              	.LBB465:
 400              	.LBB463:
 113:D:/fchai/work/i-cube/I-CUBE-HUAWEI/Middlewares/Third_Party/Huawei/iot_link/os/liteos/utils\rbtree.c **** }
 401              		.loc 1 113 10 view .LVU115
 402 005c C3F80CC0 		str	ip, [r3, #12]
 403              	.LVL20:
 113:D:/fchai/work/i-cube/I-CUBE-HUAWEI/Middlewares/Third_Party/Huawei/iot_link/os/liteos/utils\rbtree.c **** }
 404              		.loc 1 113 10 view .LVU116
 405              	.LBE463:
 406              	.LBE465:
 407              	.LBE554:
 520:D:/fchai/work/i-cube/I-CUBE-HUAWEI/Middlewares/Third_Party/Huawei/iot_link/os/liteos/utils\rbtree.c **** 
 408              		.loc 1 520 9 is_stmt 1 view .LVU117
 409              	.LBB555:
 410              	.LBI555:
 135:D:/fchai/work/i-cube/I-CUBE-HUAWEI/Middlewares/Third_Party/Huawei/iot_link/os/liteos/utils\rbtree.c **** {
 411              		.loc 1 135 20 view .LVU118
 412              	.LBE555:
 137:D:/fchai/work/i-cube/I-CUBE-HUAWEI/Middlewares/Third_Party/Huawei/iot_link/os/liteos/utils\rbtree.c **** }
 413              		.loc 1 137 5 view .LVU119
 414              	.LBB560:
 415              	.LBB556:
ARM GAS  T:\msys\tmp\cc3PruZ9.s 			page 29


 416              	.LBI556:
 111:D:/fchai/work/i-cube/I-CUBE-HUAWEI/Middlewares/Third_Party/Huawei/iot_link/os/liteos/utils\rbtree.c **** {
 417              		.loc 1 111 20 view .LVU120
 418              	.LBB557:
 113:D:/fchai/work/i-cube/I-CUBE-HUAWEI/Middlewares/Third_Party/Huawei/iot_link/os/liteos/utils\rbtree.c **** }
 419              		.loc 1 113 5 view .LVU121
 420              	.LBE557:
 421              	.LBE556:
 422              	.LBE560:
 485:D:/fchai/work/i-cube/I-CUBE-HUAWEI/Middlewares/Third_Party/Huawei/iot_link/os/liteos/utils\rbtree.c **** 
 423              		.loc 1 485 13 is_stmt 0 view .LVU122
 424 0060 1368     		ldr	r3, [r2]
 425              	.LVL21:
 426              	.LBB561:
 427              	.LBB559:
 428              	.LBB558:
 113:D:/fchai/work/i-cube/I-CUBE-HUAWEI/Middlewares/Third_Party/Huawei/iot_link/os/liteos/utils\rbtree.c **** }
 429              		.loc 1 113 10 view .LVU123
 430 0062 C5F80CC0 		str	ip, [r5, #12]
 431              	.LVL22:
 113:D:/fchai/work/i-cube/I-CUBE-HUAWEI/Middlewares/Third_Party/Huawei/iot_link/os/liteos/utils\rbtree.c **** }
 432              		.loc 1 113 10 view .LVU124
 433              	.LBE558:
 434              	.LBE559:
 435              	.LBE561:
 522:D:/fchai/work/i-cube/I-CUBE-HUAWEI/Middlewares/Third_Party/Huawei/iot_link/os/liteos/utils\rbtree.c ****     }
 436              		.loc 1 522 9 is_stmt 1 view .LVU125
 483:D:/fchai/work/i-cube/I-CUBE-HUAWEI/Middlewares/Third_Party/Huawei/iot_link/os/liteos/utils\rbtree.c ****     {
 437              		.loc 1 483 11 view .LVU126
 481:D:/fchai/work/i-cube/I-CUBE-HUAWEI/Middlewares/Third_Party/Huawei/iot_link/os/liteos/utils\rbtree.c **** 
 438              		.loc 1 481 5 view .LVU127
 483:D:/fchai/work/i-cube/I-CUBE-HUAWEI/Middlewares/Third_Party/Huawei/iot_link/os/liteos/utils\rbtree.c ****     {
 439              		.loc 1 483 5 view .LVU128
 485:D:/fchai/work/i-cube/I-CUBE-HUAWEI/Middlewares/Third_Party/Huawei/iot_link/os/liteos/utils\rbtree.c **** 
 440              		.loc 1 485 9 view .LVU129
 149:D:/fchai/work/i-cube/I-CUBE-HUAWEI/Middlewares/Third_Party/Huawei/iot_link/os/liteos/utils\rbtree.c **** }
 441              		.loc 1 149 5 view .LVU130
 487:D:/fchai/work/i-cube/I-CUBE-HUAWEI/Middlewares/Third_Party/Huawei/iot_link/os/liteos/utils\rbtree.c ****         {
 442              		.loc 1 487 9 view .LVU131
 443              	.LBB562:
 444              	.LBB481:
 445              	.LBB479:
 102:D:/fchai/work/i-cube/I-CUBE-HUAWEI/Middlewares/Third_Party/Huawei/iot_link/os/liteos/base/include\__binary_tree.h **** }
 446              		.loc 2 102 12 is_stmt 0 view .LVU132
 447 0066 1146     		mov	r1, r2
 448              	.LBE479:
 449              	.LBE481:
 450              	.LBE562:
 487:D:/fchai/work/i-cube/I-CUBE-HUAWEI/Middlewares/Third_Party/Huawei/iot_link/os/liteos/utils\rbtree.c ****         {
 451              		.loc 1 487 12 view .LVU133
 452 0068 002B     		cmp	r3, #0
 453 006a D0D1     		bne	.L2
 454              	.LVL23:
 489:D:/fchai/work/i-cube/I-CUBE-HUAWEI/Middlewares/Third_Party/Huawei/iot_link/os/liteos/utils\rbtree.c ****             return;
 455              		.loc 1 489 13 is_stmt 1 view .LVU134
 456              	.LBB563:
 457              	.LBI563:
ARM GAS  T:\msys\tmp\cc3PruZ9.s 			page 30


 135:D:/fchai/work/i-cube/I-CUBE-HUAWEI/Middlewares/Third_Party/Huawei/iot_link/os/liteos/utils\rbtree.c **** {
 458              		.loc 1 135 20 view .LVU135
 459              	.LBE563:
 137:D:/fchai/work/i-cube/I-CUBE-HUAWEI/Middlewares/Third_Party/Huawei/iot_link/os/liteos/utils\rbtree.c **** }
 460              		.loc 1 137 5 view .LVU136
 461              	.LBB568:
 462              	.LBB564:
 463              	.LBI564:
 111:D:/fchai/work/i-cube/I-CUBE-HUAWEI/Middlewares/Third_Party/Huawei/iot_link/os/liteos/utils\rbtree.c **** {
 464              		.loc 1 111 20 view .LVU137
 465              	.LBB565:
 113:D:/fchai/work/i-cube/I-CUBE-HUAWEI/Middlewares/Third_Party/Huawei/iot_link/os/liteos/utils\rbtree.c **** }
 466              		.loc 1 113 5 view .LVU138
 113:D:/fchai/work/i-cube/I-CUBE-HUAWEI/Middlewares/Third_Party/Huawei/iot_link/os/liteos/utils\rbtree.c **** }
 467              		.loc 1 113 10 is_stmt 0 view .LVU139
 468 006c 0123     		movs	r3, #1
 469              	.LVL24:
 113:D:/fchai/work/i-cube/I-CUBE-HUAWEI/Middlewares/Third_Party/Huawei/iot_link/os/liteos/utils\rbtree.c **** }
 470              		.loc 1 113 10 view .LVU140
 471 006e CB60     		str	r3, [r1, #12]
 472              	.LVL25:
 113:D:/fchai/work/i-cube/I-CUBE-HUAWEI/Middlewares/Third_Party/Huawei/iot_link/os/liteos/utils\rbtree.c **** }
 473              		.loc 1 113 10 view .LVU141
 474              	.LBE565:
 475              	.LBE564:
 476              	.LBE568:
 490:D:/fchai/work/i-cube/I-CUBE-HUAWEI/Middlewares/Third_Party/Huawei/iot_link/os/liteos/utils\rbtree.c ****         }
 477              		.loc 1 490 13 is_stmt 1 view .LVU142
 478 0070 F2E7     		b	.L1
 479              	.LVL26:
 480              	.L53:
 529:D:/fchai/work/i-cube/I-CUBE-HUAWEI/Middlewares/Third_Party/Huawei/iot_link/os/liteos/utils\rbtree.c ****         {
 481              		.loc 1 529 9 view .LVU143
 529:D:/fchai/work/i-cube/I-CUBE-HUAWEI/Middlewares/Third_Party/Huawei/iot_link/os/liteos/utils\rbtree.c ****         {
 482              		.loc 1 529 18 is_stmt 0 view .LVU144
 483 0072 9D68     		ldr	r5, [r3, #8]
 484              	.LVL27:
 172:D:/fchai/work/i-cube/I-CUBE-HUAWEI/Middlewares/Third_Party/Huawei/iot_link/os/liteos/utils\rbtree.c **** }
 485              		.loc 1 172 5 is_stmt 1 view .LVU145
 529:D:/fchai/work/i-cube/I-CUBE-HUAWEI/Middlewares/Third_Party/Huawei/iot_link/os/liteos/utils\rbtree.c ****         {
 486              		.loc 1 529 12 is_stmt 0 view .LVU146
 487 0074 A942     		cmp	r1, r5
 488 0076 0ED1     		bne	.L8
 531:D:/fchai/work/i-cube/I-CUBE-HUAWEI/Middlewares/Third_Party/Huawei/iot_link/os/liteos/utils\rbtree.c ****         }
 489              		.loc 1 531 13 is_stmt 1 view .LVU147
 490              	.LVL28:
 491              	.LBB569:
 492              	.LBI569:
 284:D:/fchai/work/i-cube/I-CUBE-HUAWEI/Middlewares/Third_Party/Huawei/iot_link/os/liteos/utils\rbtree.c **** {
 493              		.loc 1 284 20 view .LVU148
 494              	.LBB570:
 286:D:/fchai/work/i-cube/I-CUBE-HUAWEI/Middlewares/Third_Party/Huawei/iot_link/os/liteos/utils\rbtree.c **** }
 495              		.loc 1 286 5 view .LVU149
 496              	.LBB571:
 497              	.LBI571:
 560:D:/fchai/work/i-cube/I-CUBE-HUAWEI/Middlewares/Third_Party/Huawei/iot_link/os/liteos/base/include\__binary_tree.h **** {
 498              		.loc 2 560 20 view .LVU150
ARM GAS  T:\msys\tmp\cc3PruZ9.s 			page 31


 560:D:/fchai/work/i-cube/I-CUBE-HUAWEI/Middlewares/Third_Party/Huawei/iot_link/os/liteos/base/include\__binary_tree.h **** {
 499              		.loc 2 560 20 is_stmt 0 view .LVU151
 500              	.LBE571:
 501              	.LBE570:
 502              	.LBE569:
 503              		.loc 2 562 5 is_stmt 1 view .LVU152
 504              	.LBB584:
 505              	.LBB582:
 506              	.LBB580:
 507              	.LBB572:
 508              		.loc 2 562 5 view .LVU153
 509              		.loc 2 562 5 view .LVU154
 510              		.loc 2 562 5 is_stmt 0 view .LVU155
 511              	.LBE572:
 512              	.LBE580:
 513              	.LBE582:
 514              	.LBE584:
  78:D:/fchai/work/i-cube/I-CUBE-HUAWEI/Middlewares/Third_Party/Huawei/iot_link/os/liteos/base/include\__binary_tree.h **** }
 515              		.loc 2 78 5 is_stmt 1 view .LVU156
 516              	.LBB585:
 517              	.LBB583:
 518              	.LBB581:
 519              	.LBB579:
 520              		.loc 2 562 5 view .LVU157
 521 0078 6968     		ldr	r1, [r5, #4]
 522 007a 01B1     		cbz	r1, .L9
 523              		.loc 2 562 5 view .LVU158
 524              	.LVL29:
 525              	.LBB573:
 526              	.LBI573:
  88:D:/fchai/work/i-cube/I-CUBE-HUAWEI/Middlewares/Third_Party/Huawei/iot_link/os/liteos/base/include\__binary_tree.h **** {
 527              		.loc 2 88 20 view .LVU159
 528              	.LBB574:
  90:D:/fchai/work/i-cube/I-CUBE-HUAWEI/Middlewares/Third_Party/Huawei/iot_link/os/liteos/base/include\__binary_tree.h **** }
 529              		.loc 2 90 5 view .LVU160
  90:D:/fchai/work/i-cube/I-CUBE-HUAWEI/Middlewares/Third_Party/Huawei/iot_link/os/liteos/base/include\__binary_tree.h **** }
 530              		.loc 2 90 10 is_stmt 0 view .LVU161
 531 007c 0B60     		str	r3, [r1]
 532              	.LVL30:
 533              	.L9:
  90:D:/fchai/work/i-cube/I-CUBE-HUAWEI/Middlewares/Third_Party/Huawei/iot_link/os/liteos/base/include\__binary_tree.h **** }
 534              		.loc 2 90 10 view .LVU162
 535              	.LBE574:
 536              	.LBE573:
 537              		.loc 2 562 5 is_stmt 1 view .LVU163
 538              	.LBB575:
 539              	.LBI575:
  88:D:/fchai/work/i-cube/I-CUBE-HUAWEI/Middlewares/Third_Party/Huawei/iot_link/os/liteos/base/include\__binary_tree.h **** {
 540              		.loc 2 88 20 view .LVU164
 541              	.LBB576:
  90:D:/fchai/work/i-cube/I-CUBE-HUAWEI/Middlewares/Third_Party/Huawei/iot_link/os/liteos/base/include\__binary_tree.h **** }
 542              		.loc 2 90 5 view .LVU165
  90:D:/fchai/work/i-cube/I-CUBE-HUAWEI/Middlewares/Third_Party/Huawei/iot_link/os/liteos/base/include\__binary_tree.h **** }
 543              		.loc 2 90 10 is_stmt 0 view .LVU166
 544 007e 1D60     		str	r5, [r3]
 545              	.LVL31:
  90:D:/fchai/work/i-cube/I-CUBE-HUAWEI/Middlewares/Third_Party/Huawei/iot_link/os/liteos/base/include\__binary_tree.h **** }
ARM GAS  T:\msys\tmp\cc3PruZ9.s 			page 32


 546              		.loc 2 90 10 view .LVU167
 547              	.LBE576:
 548              	.LBE575:
 549              		.loc 2 562 5 is_stmt 1 view .LVU168
 550 0080 6968     		ldr	r1, [r5, #4]
 551 0082 9960     		str	r1, [r3, #8]
 552              		.loc 2 562 5 view .LVU169
 553              	.LBB577:
 554              	.LBB578:
  90:D:/fchai/work/i-cube/I-CUBE-HUAWEI/Middlewares/Third_Party/Huawei/iot_link/os/liteos/base/include\__binary_tree.h **** }
 555              		.loc 2 90 10 is_stmt 0 view .LVU170
 556 0084 C5E90023 		strd	r2, r3, [r5]
 557              	.LBE578:
 558              	.LBE577:
 559              		.loc 2 562 5 is_stmt 1 view .LVU171
 560              		.loc 2 562 5 view .LVU172
 561 0088 5468     		ldr	r4, [r2, #4]
 562              		.loc 2 562 5 is_stmt 0 view .LVU173
 563 008a A342     		cmp	r3, r4
 564              		.loc 2 562 5 is_stmt 1 view .LVU174
 565 008c 0DBF     		iteet	eq
 566 008e 2B46     		moveq	r3, r5
 567              	.LVL32:
 568              		.loc 2 562 5 is_stmt 0 view .LVU175
 569 0090 9560     		strne	r5, [r2, #8]
 570 0092 2B46     		movne	r3, r5
 571 0094 1C46     		moveq	r4, r3
 572              	.LVL33:
 573              	.L8:
 574              		.loc 2 562 5 view .LVU176
 575              	.LBE579:
 576              	.LBE581:
 577              	.LBE583:
 578              	.LBE585:
 538:D:/fchai/work/i-cube/I-CUBE-HUAWEI/Middlewares/Third_Party/Huawei/iot_link/os/liteos/utils\rbtree.c ****     }
 579              		.loc 1 538 9 is_stmt 1 view .LVU177
 580              	.LBB586:
 581              	.LBI586:
 271:D:/fchai/work/i-cube/I-CUBE-HUAWEI/Middlewares/Third_Party/Huawei/iot_link/os/liteos/utils\rbtree.c **** {
 582              		.loc 1 271 20 view .LVU178
 583              	.LBB587:
 273:D:/fchai/work/i-cube/I-CUBE-HUAWEI/Middlewares/Third_Party/Huawei/iot_link/os/liteos/utils\rbtree.c **** }
 584              		.loc 1 273 5 view .LVU179
 585              	.LBB588:
 586              	.LBI588:
 543:D:/fchai/work/i-cube/I-CUBE-HUAWEI/Middlewares/Third_Party/Huawei/iot_link/os/liteos/base/include\__binary_tree.h **** {
 587              		.loc 2 543 20 view .LVU180
 543:D:/fchai/work/i-cube/I-CUBE-HUAWEI/Middlewares/Third_Party/Huawei/iot_link/os/liteos/base/include\__binary_tree.h **** {
 588              		.loc 2 543 20 is_stmt 0 view .LVU181
 589              	.LBE588:
 590              	.LBE587:
 591              	.LBE586:
 545:D:/fchai/work/i-cube/I-CUBE-HUAWEI/Middlewares/Third_Party/Huawei/iot_link/os/liteos/base/include\__binary_tree.h **** }
 592              		.loc 2 545 5 is_stmt 1 view .LVU182
 593              	.LBB601:
 594              	.LBB599:
 595              	.LBB597:
ARM GAS  T:\msys\tmp\cc3PruZ9.s 			page 33


 596              	.LBB589:
 545:D:/fchai/work/i-cube/I-CUBE-HUAWEI/Middlewares/Third_Party/Huawei/iot_link/os/liteos/base/include\__binary_tree.h **** }
 597              		.loc 2 545 5 view .LVU183
 545:D:/fchai/work/i-cube/I-CUBE-HUAWEI/Middlewares/Third_Party/Huawei/iot_link/os/liteos/base/include\__binary_tree.h **** }
 598              		.loc 2 545 5 view .LVU184
 599 0096 A568     		ldr	r5, [r4, #8]
 600 0098 1168     		ldr	r1, [r2]
 601              	.LVL34:
 545:D:/fchai/work/i-cube/I-CUBE-HUAWEI/Middlewares/Third_Party/Huawei/iot_link/os/liteos/base/include\__binary_tree.h **** }
 602              		.loc 2 545 5 is_stmt 0 view .LVU185
 603              	.LBE589:
 604              	.LBE597:
 605              	.LBE599:
 606              	.LBE601:
  78:D:/fchai/work/i-cube/I-CUBE-HUAWEI/Middlewares/Third_Party/Huawei/iot_link/os/liteos/base/include\__binary_tree.h **** }
 607              		.loc 2 78 5 is_stmt 1 view .LVU186
 608              	.LBB602:
 609              	.LBB600:
 610              	.LBB598:
 611              	.LBB596:
 545:D:/fchai/work/i-cube/I-CUBE-HUAWEI/Middlewares/Third_Party/Huawei/iot_link/os/liteos/base/include\__binary_tree.h **** }
 612              		.loc 2 545 5 view .LVU187
 613 009a 05B1     		cbz	r5, .L10
 545:D:/fchai/work/i-cube/I-CUBE-HUAWEI/Middlewares/Third_Party/Huawei/iot_link/os/liteos/base/include\__binary_tree.h **** }
 614              		.loc 2 545 5 view .LVU188
 615              	.LVL35:
 616              	.LBB590:
 617              	.LBI590:
  88:D:/fchai/work/i-cube/I-CUBE-HUAWEI/Middlewares/Third_Party/Huawei/iot_link/os/liteos/base/include\__binary_tree.h **** {
 618              		.loc 2 88 20 view .LVU189
 619              	.LBB591:
  90:D:/fchai/work/i-cube/I-CUBE-HUAWEI/Middlewares/Third_Party/Huawei/iot_link/os/liteos/base/include\__binary_tree.h **** }
 620              		.loc 2 90 5 view .LVU190
  90:D:/fchai/work/i-cube/I-CUBE-HUAWEI/Middlewares/Third_Party/Huawei/iot_link/os/liteos/base/include\__binary_tree.h **** }
 621              		.loc 2 90 10 is_stmt 0 view .LVU191
 622 009c 2A60     		str	r2, [r5]
 623              	.LVL36:
 624              	.L10:
  90:D:/fchai/work/i-cube/I-CUBE-HUAWEI/Middlewares/Third_Party/Huawei/iot_link/os/liteos/base/include\__binary_tree.h **** }
 625              		.loc 2 90 10 view .LVU192
 626              	.LBE591:
 627              	.LBE590:
 545:D:/fchai/work/i-cube/I-CUBE-HUAWEI/Middlewares/Third_Party/Huawei/iot_link/os/liteos/base/include\__binary_tree.h **** }
 628              		.loc 2 545 5 is_stmt 1 view .LVU193
 629              	.LBB592:
 630              	.LBI592:
  88:D:/fchai/work/i-cube/I-CUBE-HUAWEI/Middlewares/Third_Party/Huawei/iot_link/os/liteos/base/include\__binary_tree.h **** {
 631              		.loc 2 88 20 view .LVU194
 632              	.LBB593:
  90:D:/fchai/work/i-cube/I-CUBE-HUAWEI/Middlewares/Third_Party/Huawei/iot_link/os/liteos/base/include\__binary_tree.h **** }
 633              		.loc 2 90 5 view .LVU195
  90:D:/fchai/work/i-cube/I-CUBE-HUAWEI/Middlewares/Third_Party/Huawei/iot_link/os/liteos/base/include\__binary_tree.h **** }
 634              		.loc 2 90 10 is_stmt 0 view .LVU196
 635 009e 1460     		str	r4, [r2]
  90:D:/fchai/work/i-cube/I-CUBE-HUAWEI/Middlewares/Third_Party/Huawei/iot_link/os/liteos/base/include\__binary_tree.h **** }
 636              		.loc 2 90 10 view .LVU197
 637              	.LBE593:
ARM GAS  T:\msys\tmp\cc3PruZ9.s 			page 34


 638              	.LBE592:
 545:D:/fchai/work/i-cube/I-CUBE-HUAWEI/Middlewares/Third_Party/Huawei/iot_link/os/liteos/base/include\__binary_tree.h **** }
 639              		.loc 2 545 5 is_stmt 1 view .LVU198
 640 00a0 A568     		ldr	r5, [r4, #8]
 641 00a2 5560     		str	r5, [r2, #4]
 545:D:/fchai/work/i-cube/I-CUBE-HUAWEI/Middlewares/Third_Party/Huawei/iot_link/os/liteos/base/include\__binary_tree.h **** }
 642              		.loc 2 545 5 view .LVU199
 643 00a4 A260     		str	r2, [r4, #8]
 545:D:/fchai/work/i-cube/I-CUBE-HUAWEI/Middlewares/Third_Party/Huawei/iot_link/os/liteos/base/include\__binary_tree.h **** }
 644              		.loc 2 545 5 view .LVU200
 645              	.LVL37:
 646              	.LBB594:
 647              	.LBI594:
  88:D:/fchai/work/i-cube/I-CUBE-HUAWEI/Middlewares/Third_Party/Huawei/iot_link/os/liteos/base/include\__binary_tree.h **** {
 648              		.loc 2 88 20 view .LVU201
 649              	.LBB595:
  90:D:/fchai/work/i-cube/I-CUBE-HUAWEI/Middlewares/Third_Party/Huawei/iot_link/os/liteos/base/include\__binary_tree.h **** }
 650              		.loc 2 90 5 view .LVU202
  90:D:/fchai/work/i-cube/I-CUBE-HUAWEI/Middlewares/Third_Party/Huawei/iot_link/os/liteos/base/include\__binary_tree.h **** }
 651              		.loc 2 90 10 is_stmt 0 view .LVU203
 652 00a6 2160     		str	r1, [r4]
 653              	.LVL38:
  90:D:/fchai/work/i-cube/I-CUBE-HUAWEI/Middlewares/Third_Party/Huawei/iot_link/os/liteos/base/include\__binary_tree.h **** }
 654              		.loc 2 90 10 view .LVU204
 655              	.LBE595:
 656              	.LBE594:
 545:D:/fchai/work/i-cube/I-CUBE-HUAWEI/Middlewares/Third_Party/Huawei/iot_link/os/liteos/base/include\__binary_tree.h **** }
 657              		.loc 2 545 5 is_stmt 1 view .LVU205
 658 00a8 0029     		cmp	r1, #0
 659 00aa CED1     		bne	.L18
 660              	.LVL39:
 661              	.L48:
 545:D:/fchai/work/i-cube/I-CUBE-HUAWEI/Middlewares/Third_Party/Huawei/iot_link/os/liteos/base/include\__binary_tree.h **** }
 662              		.loc 2 545 5 is_stmt 0 view .LVU206
 663              	.LBE596:
 664              	.LBE598:
 665              	.LBE600:
 666              	.LBE602:
 667              	.LBB603:
 668              	.LBB547:
 669              	.LBB544:
 670              	.LBB541:
 671              		.loc 2 562 5 is_stmt 1 view .LVU207
 672 00ac 0460     		str	r4, [r0]
 673 00ae D1E7     		b	.L12
 674              	.LVL40:
 675              	.L14:
 676              		.loc 2 562 5 is_stmt 0 view .LVU208
 677              	.LBE541:
 678              	.LBE544:
 679              	.LBE547:
 680              	.LBE603:
 544:D:/fchai/work/i-cube/I-CUBE-HUAWEI/Middlewares/Third_Party/Huawei/iot_link/os/liteos/utils\rbtree.c ****         }
 681              		.loc 1 544 13 is_stmt 1 view .LVU209
 682              	.LBB604:
 683              	.LBI510:
 271:D:/fchai/work/i-cube/I-CUBE-HUAWEI/Middlewares/Third_Party/Huawei/iot_link/os/liteos/utils\rbtree.c **** {
ARM GAS  T:\msys\tmp\cc3PruZ9.s 			page 35


 684              		.loc 1 271 20 view .LVU210
 685              	.LBB527:
 273:D:/fchai/work/i-cube/I-CUBE-HUAWEI/Middlewares/Third_Party/Huawei/iot_link/os/liteos/utils\rbtree.c **** }
 686              		.loc 1 273 5 view .LVU211
 687              	.LBB524:
 688              	.LBI512:
 543:D:/fchai/work/i-cube/I-CUBE-HUAWEI/Middlewares/Third_Party/Huawei/iot_link/os/liteos/base/include\__binary_tree.h **** {
 689              		.loc 2 543 20 view .LVU212
 543:D:/fchai/work/i-cube/I-CUBE-HUAWEI/Middlewares/Third_Party/Huawei/iot_link/os/liteos/base/include\__binary_tree.h **** {
 690              		.loc 2 543 20 is_stmt 0 view .LVU213
 691              	.LBE524:
 692              	.LBE527:
 693              	.LBE604:
 545:D:/fchai/work/i-cube/I-CUBE-HUAWEI/Middlewares/Third_Party/Huawei/iot_link/os/liteos/base/include\__binary_tree.h **** }
 694              		.loc 2 545 5 is_stmt 1 view .LVU214
 695              	.LBB605:
 696              	.LBB528:
 697              	.LBB525:
 698              	.LBB522:
 545:D:/fchai/work/i-cube/I-CUBE-HUAWEI/Middlewares/Third_Party/Huawei/iot_link/os/liteos/base/include\__binary_tree.h **** }
 699              		.loc 2 545 5 view .LVU215
 545:D:/fchai/work/i-cube/I-CUBE-HUAWEI/Middlewares/Third_Party/Huawei/iot_link/os/liteos/base/include\__binary_tree.h **** }
 700              		.loc 2 545 5 view .LVU216
 545:D:/fchai/work/i-cube/I-CUBE-HUAWEI/Middlewares/Third_Party/Huawei/iot_link/os/liteos/base/include\__binary_tree.h **** }
 701              		.loc 2 545 5 is_stmt 0 view .LVU217
 702              	.LBE522:
 703              	.LBE525:
 704              	.LBE528:
 705              	.LBE605:
  78:D:/fchai/work/i-cube/I-CUBE-HUAWEI/Middlewares/Third_Party/Huawei/iot_link/os/liteos/base/include\__binary_tree.h **** }
 706              		.loc 2 78 5 is_stmt 1 view .LVU218
 707              	.LBB606:
 708              	.LBB529:
 709              	.LBB526:
 710              	.LBB523:
 545:D:/fchai/work/i-cube/I-CUBE-HUAWEI/Middlewares/Third_Party/Huawei/iot_link/os/liteos/base/include\__binary_tree.h **** }
 711              		.loc 2 545 5 view .LVU219
 712 00b0 A168     		ldr	r1, [r4, #8]
 713 00b2 01B1     		cbz	r1, .L16
 545:D:/fchai/work/i-cube/I-CUBE-HUAWEI/Middlewares/Third_Party/Huawei/iot_link/os/liteos/base/include\__binary_tree.h **** }
 714              		.loc 2 545 5 view .LVU220
 715              	.LVL41:
 716              	.LBB514:
 717              	.LBI514:
  88:D:/fchai/work/i-cube/I-CUBE-HUAWEI/Middlewares/Third_Party/Huawei/iot_link/os/liteos/base/include\__binary_tree.h **** {
 718              		.loc 2 88 20 view .LVU221
 719              	.LBB515:
  90:D:/fchai/work/i-cube/I-CUBE-HUAWEI/Middlewares/Third_Party/Huawei/iot_link/os/liteos/base/include\__binary_tree.h **** }
 720              		.loc 2 90 5 view .LVU222
  90:D:/fchai/work/i-cube/I-CUBE-HUAWEI/Middlewares/Third_Party/Huawei/iot_link/os/liteos/base/include\__binary_tree.h **** }
 721              		.loc 2 90 10 is_stmt 0 view .LVU223
 722 00b4 0B60     		str	r3, [r1]
 723              	.LVL42:
 724              	.L16:
  90:D:/fchai/work/i-cube/I-CUBE-HUAWEI/Middlewares/Third_Party/Huawei/iot_link/os/liteos/base/include\__binary_tree.h **** }
 725              		.loc 2 90 10 view .LVU224
 726              	.LBE515:
ARM GAS  T:\msys\tmp\cc3PruZ9.s 			page 36


 727              	.LBE514:
 545:D:/fchai/work/i-cube/I-CUBE-HUAWEI/Middlewares/Third_Party/Huawei/iot_link/os/liteos/base/include\__binary_tree.h **** }
 728              		.loc 2 545 5 is_stmt 1 view .LVU225
 729              	.LBB516:
 730              	.LBI516:
  88:D:/fchai/work/i-cube/I-CUBE-HUAWEI/Middlewares/Third_Party/Huawei/iot_link/os/liteos/base/include\__binary_tree.h **** {
 731              		.loc 2 88 20 view .LVU226
 732              	.LBB517:
  90:D:/fchai/work/i-cube/I-CUBE-HUAWEI/Middlewares/Third_Party/Huawei/iot_link/os/liteos/base/include\__binary_tree.h **** }
 733              		.loc 2 90 5 view .LVU227
  90:D:/fchai/work/i-cube/I-CUBE-HUAWEI/Middlewares/Third_Party/Huawei/iot_link/os/liteos/base/include\__binary_tree.h **** }
 734              		.loc 2 90 10 is_stmt 0 view .LVU228
 735 00b6 1C60     		str	r4, [r3]
 736              	.LVL43:
  90:D:/fchai/work/i-cube/I-CUBE-HUAWEI/Middlewares/Third_Party/Huawei/iot_link/os/liteos/base/include\__binary_tree.h **** }
 737              		.loc 2 90 10 view .LVU229
 738              	.LBE517:
 739              	.LBE516:
 545:D:/fchai/work/i-cube/I-CUBE-HUAWEI/Middlewares/Third_Party/Huawei/iot_link/os/liteos/base/include\__binary_tree.h **** }
 740              		.loc 2 545 5 is_stmt 1 view .LVU230
 741 00b8 A168     		ldr	r1, [r4, #8]
 742 00ba 5960     		str	r1, [r3, #4]
 545:D:/fchai/work/i-cube/I-CUBE-HUAWEI/Middlewares/Third_Party/Huawei/iot_link/os/liteos/base/include\__binary_tree.h **** }
 743              		.loc 2 545 5 view .LVU231
 744              	.LBB518:
 745              	.LBB519:
  90:D:/fchai/work/i-cube/I-CUBE-HUAWEI/Middlewares/Third_Party/Huawei/iot_link/os/liteos/base/include\__binary_tree.h **** }
 746              		.loc 2 90 10 is_stmt 0 view .LVU232
 747 00bc 2260     		str	r2, [r4]
 748              	.LBE519:
 749              	.LBE518:
 545:D:/fchai/work/i-cube/I-CUBE-HUAWEI/Middlewares/Third_Party/Huawei/iot_link/os/liteos/base/include\__binary_tree.h **** }
 750              		.loc 2 545 5 view .LVU233
 751 00be 5168     		ldr	r1, [r2, #4]
 752 00c0 A360     		str	r3, [r4, #8]
 545:D:/fchai/work/i-cube/I-CUBE-HUAWEI/Middlewares/Third_Party/Huawei/iot_link/os/liteos/base/include\__binary_tree.h **** }
 753              		.loc 2 545 5 is_stmt 1 view .LVU234
 754              	.LVL44:
 755              	.LBB521:
 756              	.LBI518:
  88:D:/fchai/work/i-cube/I-CUBE-HUAWEI/Middlewares/Third_Party/Huawei/iot_link/os/liteos/base/include\__binary_tree.h **** {
 757              		.loc 2 88 20 view .LVU235
 758              	.LBB520:
  90:D:/fchai/work/i-cube/I-CUBE-HUAWEI/Middlewares/Third_Party/Huawei/iot_link/os/liteos/base/include\__binary_tree.h **** }
 759              		.loc 2 90 5 view .LVU236
  90:D:/fchai/work/i-cube/I-CUBE-HUAWEI/Middlewares/Third_Party/Huawei/iot_link/os/liteos/base/include\__binary_tree.h **** }
 760              		.loc 2 90 5 is_stmt 0 view .LVU237
 761              	.LBE520:
 762              	.LBE521:
 545:D:/fchai/work/i-cube/I-CUBE-HUAWEI/Middlewares/Third_Party/Huawei/iot_link/os/liteos/base/include\__binary_tree.h **** }
 763              		.loc 2 545 5 is_stmt 1 view .LVU238
 545:D:/fchai/work/i-cube/I-CUBE-HUAWEI/Middlewares/Third_Party/Huawei/iot_link/os/liteos/base/include\__binary_tree.h **** }
 764              		.loc 2 545 5 view .LVU239
 765 00c2 8B42     		cmp	r3, r1
 766 00c4 01D0     		beq	.L54
 545:D:/fchai/work/i-cube/I-CUBE-HUAWEI/Middlewares/Third_Party/Huawei/iot_link/os/liteos/base/include\__binary_tree.h **** }
 767              		.loc 2 545 5 is_stmt 0 view .LVU240
ARM GAS  T:\msys\tmp\cc3PruZ9.s 			page 37


 768 00c6 2346     		mov	r3, r4
 769              	.LVL45:
 545:D:/fchai/work/i-cube/I-CUBE-HUAWEI/Middlewares/Third_Party/Huawei/iot_link/os/liteos/base/include\__binary_tree.h **** }
 770              		.loc 2 545 5 view .LVU241
 771 00c8 B4E7     		b	.L15
 772              	.LVL46:
 773              	.L54:
 545:D:/fchai/work/i-cube/I-CUBE-HUAWEI/Middlewares/Third_Party/Huawei/iot_link/os/liteos/base/include\__binary_tree.h **** }
 774              		.loc 2 545 5 is_stmt 1 view .LVU242
 775 00ca 5460     		str	r4, [r2, #4]
 776 00cc 2346     		mov	r3, r4
 777              	.LVL47:
 545:D:/fchai/work/i-cube/I-CUBE-HUAWEI/Middlewares/Third_Party/Huawei/iot_link/os/liteos/base/include\__binary_tree.h **** }
 778              		.loc 2 545 5 is_stmt 0 view .LVU243
 779 00ce B0E7     		b	.L47
 780              	.LVL48:
 781              	.L44:
 782              	.LCFI3:
 783              		.cfi_def_cfa_offset 0
 784              		.cfi_restore 4
 785              		.cfi_restore 5
 786              		.cfi_restore 6
 787              		.cfi_restore 7
 545:D:/fchai/work/i-cube/I-CUBE-HUAWEI/Middlewares/Third_Party/Huawei/iot_link/os/liteos/base/include\__binary_tree.h **** }
 788              		.loc 2 545 5 view .LVU244
 789              	.LBE523:
 790              	.LBE526:
 791              	.LBE529:
 792              	.LBE606:
 489:D:/fchai/work/i-cube/I-CUBE-HUAWEI/Middlewares/Third_Party/Huawei/iot_link/os/liteos/utils\rbtree.c ****             return;
 793              		.loc 1 489 13 is_stmt 1 view .LVU245
 794              	.LBB607:
 135:D:/fchai/work/i-cube/I-CUBE-HUAWEI/Middlewares/Third_Party/Huawei/iot_link/os/liteos/utils\rbtree.c **** {
 795              		.loc 1 135 20 view .LVU246
 796              	.LBE607:
 137:D:/fchai/work/i-cube/I-CUBE-HUAWEI/Middlewares/Third_Party/Huawei/iot_link/os/liteos/utils\rbtree.c **** }
 797              		.loc 1 137 5 view .LVU247
 798              	.LBB608:
 799              	.LBB567:
 111:D:/fchai/work/i-cube/I-CUBE-HUAWEI/Middlewares/Third_Party/Huawei/iot_link/os/liteos/utils\rbtree.c **** {
 800              		.loc 1 111 20 view .LVU248
 801              	.LBB566:
 113:D:/fchai/work/i-cube/I-CUBE-HUAWEI/Middlewares/Third_Party/Huawei/iot_link/os/liteos/utils\rbtree.c **** }
 802              		.loc 1 113 5 view .LVU249
 113:D:/fchai/work/i-cube/I-CUBE-HUAWEI/Middlewares/Third_Party/Huawei/iot_link/os/liteos/utils\rbtree.c **** }
 803              		.loc 1 113 10 is_stmt 0 view .LVU250
 804 00d0 0123     		movs	r3, #1
 805              	.LVL49:
 113:D:/fchai/work/i-cube/I-CUBE-HUAWEI/Middlewares/Third_Party/Huawei/iot_link/os/liteos/utils\rbtree.c **** }
 806              		.loc 1 113 10 view .LVU251
 807 00d2 CB60     		str	r3, [r1, #12]
 808              	.LVL50:
 113:D:/fchai/work/i-cube/I-CUBE-HUAWEI/Middlewares/Third_Party/Huawei/iot_link/os/liteos/utils\rbtree.c **** }
 809              		.loc 1 113 10 view .LVU252
 810              	.LBE566:
 811              	.LBE567:
 812              	.LBE608:
ARM GAS  T:\msys\tmp\cc3PruZ9.s 			page 38


 490:D:/fchai/work/i-cube/I-CUBE-HUAWEI/Middlewares/Third_Party/Huawei/iot_link/os/liteos/utils\rbtree.c ****         }
 813              		.loc 1 490 13 is_stmt 1 view .LVU253
 814 00d4 7047     		bx	lr
 815              		.cfi_endproc
 816              	.LFE53:
 818 00d6 00BF     		.section	.text.rb_find_eq,"ax",%progbits
 819              		.align	1
 820              		.p2align 2,,3
 821              		.global	rb_find_eq
 822              		.syntax unified
 823              		.thumb
 824              		.thumb_func
 825              		.fpu fpv4-sp-d16
 827              	rb_find_eq:
 828              	.LVL51:
 829              	.LFB43:
 322:D:/fchai/work/i-cube/I-CUBE-HUAWEI/Middlewares/Third_Party/Huawei/iot_link/os/liteos/utils\rbtree.c ****     return container_of (__bit_find_eq (&t->bit, k), rb_node_t, bin);
 830              		.loc 1 322 1 view -0
 831              		.cfi_startproc
 832              		@ args = 0, pretend = 0, frame = 0
 833              		@ frame_needed = 0, uses_anonymous_args = 0
 323:D:/fchai/work/i-cube/I-CUBE-HUAWEI/Middlewares/Third_Party/Huawei/iot_link/os/liteos/utils\rbtree.c **** }
 834              		.loc 1 323 5 view .LVU255
 322:D:/fchai/work/i-cube/I-CUBE-HUAWEI/Middlewares/Third_Party/Huawei/iot_link/os/liteos/utils\rbtree.c ****     return container_of (__bit_find_eq (&t->bit, k), rb_node_t, bin);
 835              		.loc 1 322 1 is_stmt 0 view .LVU256
 836 0000 70B5     		push	{r4, r5, r6, lr}
 837              	.LCFI4:
 838              		.cfi_def_cfa_offset 16
 839              		.cfi_offset 4, -16
 840              		.cfi_offset 5, -12
 841              		.cfi_offset 6, -8
 842              		.cfi_offset 14, -4
 323:D:/fchai/work/i-cube/I-CUBE-HUAWEI/Middlewares/Third_Party/Huawei/iot_link/os/liteos/utils\rbtree.c **** }
 843              		.loc 1 323 12 view .LVU257
 844 0002 0468     		ldr	r4, [r0]
 845              	.LVL52:
 846              	.LBB609:
 847              	.LBI609:
 235:D:/fchai/work/i-cube/I-CUBE-HUAWEI/Middlewares/Third_Party/Huawei/iot_link/os/liteos/base/include\__binary_tree.h **** {
 848              		.loc 2 235 27 is_stmt 1 view .LVU258
 849              	.LBB610:
 237:D:/fchai/work/i-cube/I-CUBE-HUAWEI/Middlewares/Third_Party/Huawei/iot_link/os/liteos/base/include\__binary_tree.h **** 
 850              		.loc 2 237 5 view .LVU259
 239:D:/fchai/work/i-cube/I-CUBE-HUAWEI/Middlewares/Third_Party/Huawei/iot_link/os/liteos/base/include\__binary_tree.h ****     {
 851              		.loc 2 239 5 view .LVU260
 239:D:/fchai/work/i-cube/I-CUBE-HUAWEI/Middlewares/Third_Party/Huawei/iot_link/os/liteos/base/include\__binary_tree.h ****     {
 852              		.loc 2 239 11 view .LVU261
 853 0004 7CB1     		cbz	r4, .L56
 854 0006 0546     		mov	r5, r0
 855 0008 0E46     		mov	r6, r1
 856 000a 04E0     		b	.L59
 857              	.LVL53:
 858              	.L69:
 859              	.LBB611:
 248:D:/fchai/work/i-cube/I-CUBE-HUAWEI/Middlewares/Third_Party/Huawei/iot_link/os/liteos/base/include\__binary_tree.h ****     }
 860              		.loc 2 248 11 is_stmt 0 view .LVU262
 861 000c D4E90134 		ldrd	r3, r4, [r4, #4]
ARM GAS  T:\msys\tmp\cc3PruZ9.s 			page 39


 862              	.LVL54:
 248:D:/fchai/work/i-cube/I-CUBE-HUAWEI/Middlewares/Third_Party/Huawei/iot_link/os/liteos/base/include\__binary_tree.h ****     }
 863              		.loc 2 248 11 view .LVU263
 864 0010 A8BF     		it	ge
 865 0012 1C46     		movge	r4, r3
 866              	.LVL55:
 248:D:/fchai/work/i-cube/I-CUBE-HUAWEI/Middlewares/Third_Party/Huawei/iot_link/os/liteos/base/include\__binary_tree.h ****     }
 867              		.loc 2 248 11 view .LVU264
 868              	.LBE611:
 239:D:/fchai/work/i-cube/I-CUBE-HUAWEI/Middlewares/Third_Party/Huawei/iot_link/os/liteos/base/include\__binary_tree.h ****     {
 869              		.loc 2 239 11 is_stmt 1 view .LVU265
 870 0014 3CB1     		cbz	r4, .L56
 871              	.LVL56:
 872              	.L59:
 873              	.LBB612:
 241:D:/fchai/work/i-cube/I-CUBE-HUAWEI/Middlewares/Third_Party/Huawei/iot_link/os/liteos/base/include\__binary_tree.h **** 
 874              		.loc 2 241 9 view .LVU266
 241:D:/fchai/work/i-cube/I-CUBE-HUAWEI/Middlewares/Third_Party/Huawei/iot_link/os/liteos/base/include\__binary_tree.h **** 
 875              		.loc 2 241 26 is_stmt 0 view .LVU267
 876 0016 AB68     		ldr	r3, [r5, #8]
 877 0018 3146     		mov	r1, r6
 878 001a 2046     		mov	r0, r4
 879 001c 9847     		blx	r3
 880              	.LVL57:
 248:D:/fchai/work/i-cube/I-CUBE-HUAWEI/Middlewares/Third_Party/Huawei/iot_link/os/liteos/base/include\__binary_tree.h ****     }
 881              		.loc 2 248 9 is_stmt 1 view .LVU268
 243:D:/fchai/work/i-cube/I-CUBE-HUAWEI/Middlewares/Third_Party/Huawei/iot_link/os/liteos/base/include\__binary_tree.h ****         {
 882              		.loc 2 243 9 view .LVU269
 243:D:/fchai/work/i-cube/I-CUBE-HUAWEI/Middlewares/Third_Party/Huawei/iot_link/os/liteos/base/include\__binary_tree.h ****         {
 883              		.loc 2 243 12 is_stmt 0 view .LVU270
 884 001e 0028     		cmp	r0, #0
 885 0020 F4D1     		bne	.L69
 243:D:/fchai/work/i-cube/I-CUBE-HUAWEI/Middlewares/Third_Party/Huawei/iot_link/os/liteos/base/include\__binary_tree.h ****         {
 886              		.loc 2 243 12 view .LVU271
 887              	.LBE612:
 888              	.LBE610:
 889              	.LBE609:
 324:D:/fchai/work/i-cube/I-CUBE-HUAWEI/Middlewares/Third_Party/Huawei/iot_link/os/liteos/utils\rbtree.c **** 
 890              		.loc 1 324 1 view .LVU272
 891 0022 2046     		mov	r0, r4
 892              	.LVL58:
 324:D:/fchai/work/i-cube/I-CUBE-HUAWEI/Middlewares/Third_Party/Huawei/iot_link/os/liteos/utils\rbtree.c **** 
 893              		.loc 1 324 1 view .LVU273
 894 0024 70BD     		pop	{r4, r5, r6, pc}
 895              	.LVL59:
 896              	.L56:
 897              	.LBB615:
 898              	.LBB614:
 899              	.LBB613:
 248:D:/fchai/work/i-cube/I-CUBE-HUAWEI/Middlewares/Third_Party/Huawei/iot_link/os/liteos/base/include\__binary_tree.h ****     }
 900              		.loc 2 248 11 view .LVU274
 901 0026 0024     		movs	r4, #0
 902              	.LVL60:
 248:D:/fchai/work/i-cube/I-CUBE-HUAWEI/Middlewares/Third_Party/Huawei/iot_link/os/liteos/base/include\__binary_tree.h ****     }
 903              		.loc 2 248 11 view .LVU275
 904              	.LBE613:
 251:D:/fchai/work/i-cube/I-CUBE-HUAWEI/Middlewares/Third_Party/Huawei/iot_link/os/liteos/base/include\__binary_tree.h **** }
ARM GAS  T:\msys\tmp\cc3PruZ9.s 			page 40


 905              		.loc 2 251 5 is_stmt 1 view .LVU276
 251:D:/fchai/work/i-cube/I-CUBE-HUAWEI/Middlewares/Third_Party/Huawei/iot_link/os/liteos/base/include\__binary_tree.h **** }
 906              		.loc 2 251 5 is_stmt 0 view .LVU277
 907              	.LBE614:
 908              	.LBE615:
 324:D:/fchai/work/i-cube/I-CUBE-HUAWEI/Middlewares/Third_Party/Huawei/iot_link/os/liteos/utils\rbtree.c **** 
 909              		.loc 1 324 1 view .LVU278
 910 0028 2046     		mov	r0, r4
 911 002a 70BD     		pop	{r4, r5, r6, pc}
 912              		.cfi_endproc
 913              	.LFE43:
 915              		.section	.text.rb_find_ge,"ax",%progbits
 916              		.align	1
 917              		.p2align 2,,3
 918              		.global	rb_find_ge
 919              		.syntax unified
 920              		.thumb
 921              		.thumb_func
 922              		.fpu fpv4-sp-d16
 924              	rb_find_ge:
 925              	.LVL61:
 926              	.LFB44:
 335:D:/fchai/work/i-cube/I-CUBE-HUAWEI/Middlewares/Third_Party/Huawei/iot_link/os/liteos/utils\rbtree.c ****     return container_of (__bit_find_ge (&t->bit, k), rb_node_t, bin);
 927              		.loc 1 335 1 is_stmt 1 view -0
 928              		.cfi_startproc
 929              		@ args = 0, pretend = 0, frame = 0
 930              		@ frame_needed = 0, uses_anonymous_args = 0
 336:D:/fchai/work/i-cube/I-CUBE-HUAWEI/Middlewares/Third_Party/Huawei/iot_link/os/liteos/utils\rbtree.c **** }
 931              		.loc 1 336 5 view .LVU280
 335:D:/fchai/work/i-cube/I-CUBE-HUAWEI/Middlewares/Third_Party/Huawei/iot_link/os/liteos/utils\rbtree.c ****     return container_of (__bit_find_ge (&t->bit, k), rb_node_t, bin);
 932              		.loc 1 335 1 is_stmt 0 view .LVU281
 933 0000 F8B5     		push	{r3, r4, r5, r6, r7, lr}
 934              	.LCFI5:
 935              		.cfi_def_cfa_offset 24
 936              		.cfi_offset 3, -24
 937              		.cfi_offset 4, -20
 938              		.cfi_offset 5, -16
 939              		.cfi_offset 6, -12
 940              		.cfi_offset 7, -8
 941              		.cfi_offset 14, -4
 336:D:/fchai/work/i-cube/I-CUBE-HUAWEI/Middlewares/Third_Party/Huawei/iot_link/os/liteos/utils\rbtree.c **** }
 942              		.loc 1 336 12 view .LVU282
 943 0002 0468     		ldr	r4, [r0]
 944              	.LVL62:
 945              	.LBB616:
 946              	.LBI616:
 397:D:/fchai/work/i-cube/I-CUBE-HUAWEI/Middlewares/Third_Party/Huawei/iot_link/os/liteos/base/include\__binary_tree.h **** {
 947              		.loc 2 397 27 is_stmt 1 view .LVU283
 397:D:/fchai/work/i-cube/I-CUBE-HUAWEI/Middlewares/Third_Party/Huawei/iot_link/os/liteos/base/include\__binary_tree.h **** {
 948              		.loc 2 397 27 is_stmt 0 view .LVU284
 949              	.LBE616:
 399:D:/fchai/work/i-cube/I-CUBE-HUAWEI/Middlewares/Third_Party/Huawei/iot_link/os/liteos/base/include\__binary_tree.h **** }
 950              		.loc 2 399 5 is_stmt 1 view .LVU285
 951              	.LBB621:
 952              	.LBB617:
 399:D:/fchai/work/i-cube/I-CUBE-HUAWEI/Middlewares/Third_Party/Huawei/iot_link/os/liteos/base/include\__binary_tree.h **** }
 953              		.loc 2 399 5 view .LVU286
ARM GAS  T:\msys\tmp\cc3PruZ9.s 			page 41


 399:D:/fchai/work/i-cube/I-CUBE-HUAWEI/Middlewares/Third_Party/Huawei/iot_link/os/liteos/base/include\__binary_tree.h **** }
 954              		.loc 2 399 5 view .LVU287
 399:D:/fchai/work/i-cube/I-CUBE-HUAWEI/Middlewares/Third_Party/Huawei/iot_link/os/liteos/base/include\__binary_tree.h **** }
 955              		.loc 2 399 5 view .LVU288
 399:D:/fchai/work/i-cube/I-CUBE-HUAWEI/Middlewares/Third_Party/Huawei/iot_link/os/liteos/base/include\__binary_tree.h **** }
 956              		.loc 2 399 5 view .LVU289
 957 0004 84B1     		cbz	r4, .L70
 958 0006 0546     		mov	r5, r0
 959 0008 0E46     		mov	r6, r1
 960 000a 0027     		movs	r7, #0
 961 000c 06E0     		b	.L73
 962              	.LVL63:
 963              	.L84:
 964              	.LBB618:
 399:D:/fchai/work/i-cube/I-CUBE-HUAWEI/Middlewares/Third_Party/Huawei/iot_link/os/liteos/base/include\__binary_tree.h **** }
 965              		.loc 2 399 5 is_stmt 0 view .LVU290
 966 000e D4E90132 		ldrd	r3, r2, [r4, #4]
 967 0012 AABF     		itet	ge
 968 0014 2746     		movge	r7, r4
 969 0016 1446     		movlt	r4, r2
 970              	.LVL64:
 399:D:/fchai/work/i-cube/I-CUBE-HUAWEI/Middlewares/Third_Party/Huawei/iot_link/os/liteos/base/include\__binary_tree.h **** }
 971              		.loc 2 399 5 view .LVU291
 972 0018 1C46     		movge	r4, r3
 973              	.LVL65:
 399:D:/fchai/work/i-cube/I-CUBE-HUAWEI/Middlewares/Third_Party/Huawei/iot_link/os/liteos/base/include\__binary_tree.h **** }
 974              		.loc 2 399 5 view .LVU292
 975              	.LBE618:
 399:D:/fchai/work/i-cube/I-CUBE-HUAWEI/Middlewares/Third_Party/Huawei/iot_link/os/liteos/base/include\__binary_tree.h **** }
 976              		.loc 2 399 5 is_stmt 1 view .LVU293
 977 001a 3CB1     		cbz	r4, .L83
 978              	.LVL66:
 979              	.L73:
 980              	.LBB619:
 399:D:/fchai/work/i-cube/I-CUBE-HUAWEI/Middlewares/Third_Party/Huawei/iot_link/os/liteos/base/include\__binary_tree.h **** }
 981              		.loc 2 399 5 view .LVU294
 982 001c AB68     		ldr	r3, [r5, #8]
 983 001e 3146     		mov	r1, r6
 984 0020 2046     		mov	r0, r4
 985 0022 9847     		blx	r3
 986              	.LVL67:
 399:D:/fchai/work/i-cube/I-CUBE-HUAWEI/Middlewares/Third_Party/Huawei/iot_link/os/liteos/base/include\__binary_tree.h **** }
 987              		.loc 2 399 5 view .LVU295
 399:D:/fchai/work/i-cube/I-CUBE-HUAWEI/Middlewares/Third_Party/Huawei/iot_link/os/liteos/base/include\__binary_tree.h **** }
 988              		.loc 2 399 5 view .LVU296
 989 0024 0028     		cmp	r0, #0
 990 0026 F2D1     		bne	.L84
 991              	.LVL68:
 992              	.L70:
 399:D:/fchai/work/i-cube/I-CUBE-HUAWEI/Middlewares/Third_Party/Huawei/iot_link/os/liteos/base/include\__binary_tree.h **** }
 993              		.loc 2 399 5 is_stmt 0 view .LVU297
 994              	.LBE619:
 995              	.LBE617:
 996              	.LBE621:
 337:D:/fchai/work/i-cube/I-CUBE-HUAWEI/Middlewares/Third_Party/Huawei/iot_link/os/liteos/utils\rbtree.c **** 
 997              		.loc 1 337 1 view .LVU298
 998 0028 2046     		mov	r0, r4
ARM GAS  T:\msys\tmp\cc3PruZ9.s 			page 42


 999 002a F8BD     		pop	{r3, r4, r5, r6, r7, pc}
 1000              	.LVL69:
 1001              	.L83:
 1002              	.LBB622:
 1003              	.LBB620:
 337:D:/fchai/work/i-cube/I-CUBE-HUAWEI/Middlewares/Third_Party/Huawei/iot_link/os/liteos/utils\rbtree.c **** 
 1004              		.loc 1 337 1 view .LVU299
 1005 002c 3C46     		mov	r4, r7
 1006              	.LVL70:
 337:D:/fchai/work/i-cube/I-CUBE-HUAWEI/Middlewares/Third_Party/Huawei/iot_link/os/liteos/utils\rbtree.c **** 
 1007              		.loc 1 337 1 view .LVU300
 1008              	.LBE620:
 1009              	.LBE622:
 399:D:/fchai/work/i-cube/I-CUBE-HUAWEI/Middlewares/Third_Party/Huawei/iot_link/os/liteos/base/include\__binary_tree.h **** }
 1010              		.loc 2 399 5 is_stmt 1 view .LVU301
 337:D:/fchai/work/i-cube/I-CUBE-HUAWEI/Middlewares/Third_Party/Huawei/iot_link/os/liteos/utils\rbtree.c **** 
 1011              		.loc 1 337 1 is_stmt 0 view .LVU302
 1012 002e 2046     		mov	r0, r4
 1013 0030 F8BD     		pop	{r3, r4, r5, r6, r7, pc}
 337:D:/fchai/work/i-cube/I-CUBE-HUAWEI/Middlewares/Third_Party/Huawei/iot_link/os/liteos/utils\rbtree.c **** 
 1014              		.loc 1 337 1 view .LVU303
 1015              		.cfi_endproc
 1016              	.LFE44:
 1018 0032 00BF     		.section	.text.rb_find_gt,"ax",%progbits
 1019              		.align	1
 1020              		.p2align 2,,3
 1021              		.global	rb_find_gt
 1022              		.syntax unified
 1023              		.thumb
 1024              		.thumb_func
 1025              		.fpu fpv4-sp-d16
 1027              	rb_find_gt:
 1028              	.LVL71:
 1029              	.LFB45:
 348:D:/fchai/work/i-cube/I-CUBE-HUAWEI/Middlewares/Third_Party/Huawei/iot_link/os/liteos/utils\rbtree.c ****     return container_of (__bit_find_gt (&t->bit, k), rb_node_t, bin);
 1030              		.loc 1 348 1 is_stmt 1 view -0
 1031              		.cfi_startproc
 1032              		@ args = 0, pretend = 0, frame = 0
 1033              		@ frame_needed = 0, uses_anonymous_args = 0
 349:D:/fchai/work/i-cube/I-CUBE-HUAWEI/Middlewares/Third_Party/Huawei/iot_link/os/liteos/utils\rbtree.c **** }
 1034              		.loc 1 349 5 view .LVU305
 348:D:/fchai/work/i-cube/I-CUBE-HUAWEI/Middlewares/Third_Party/Huawei/iot_link/os/liteos/utils\rbtree.c ****     return container_of (__bit_find_gt (&t->bit, k), rb_node_t, bin);
 1035              		.loc 1 348 1 is_stmt 0 view .LVU306
 1036 0000 F8B5     		push	{r3, r4, r5, r6, r7, lr}
 1037              	.LCFI6:
 1038              		.cfi_def_cfa_offset 24
 1039              		.cfi_offset 3, -24
 1040              		.cfi_offset 4, -20
 1041              		.cfi_offset 5, -16
 1042              		.cfi_offset 6, -12
 1043              		.cfi_offset 7, -8
 1044              		.cfi_offset 14, -4
 349:D:/fchai/work/i-cube/I-CUBE-HUAWEI/Middlewares/Third_Party/Huawei/iot_link/os/liteos/utils\rbtree.c **** }
 1045              		.loc 1 349 12 view .LVU307
 1046 0002 0468     		ldr	r4, [r0]
 1047              	.LVL72:
 1048              	.LBB623:
ARM GAS  T:\msys\tmp\cc3PruZ9.s 			page 43


 1049              	.LBI623:
 291:D:/fchai/work/i-cube/I-CUBE-HUAWEI/Middlewares/Third_Party/Huawei/iot_link/os/liteos/base/include\__binary_tree.h **** {
 1050              		.loc 2 291 27 is_stmt 1 view .LVU308
 291:D:/fchai/work/i-cube/I-CUBE-HUAWEI/Middlewares/Third_Party/Huawei/iot_link/os/liteos/base/include\__binary_tree.h **** {
 1051              		.loc 2 291 27 is_stmt 0 view .LVU309
 1052              	.LBE623:
 293:D:/fchai/work/i-cube/I-CUBE-HUAWEI/Middlewares/Third_Party/Huawei/iot_link/os/liteos/base/include\__binary_tree.h **** }
 1053              		.loc 2 293 5 is_stmt 1 view .LVU310
 1054              	.LBB628:
 1055              	.LBB624:
 293:D:/fchai/work/i-cube/I-CUBE-HUAWEI/Middlewares/Third_Party/Huawei/iot_link/os/liteos/base/include\__binary_tree.h **** }
 1056              		.loc 2 293 5 view .LVU311
 293:D:/fchai/work/i-cube/I-CUBE-HUAWEI/Middlewares/Third_Party/Huawei/iot_link/os/liteos/base/include\__binary_tree.h **** }
 1057              		.loc 2 293 5 view .LVU312
 293:D:/fchai/work/i-cube/I-CUBE-HUAWEI/Middlewares/Third_Party/Huawei/iot_link/os/liteos/base/include\__binary_tree.h **** }
 1058              		.loc 2 293 5 view .LVU313
 293:D:/fchai/work/i-cube/I-CUBE-HUAWEI/Middlewares/Third_Party/Huawei/iot_link/os/liteos/base/include\__binary_tree.h **** }
 1059              		.loc 2 293 5 view .LVU314
 1060 0004 9CB1     		cbz	r4, .L90
 1061 0006 0546     		mov	r5, r0
 1062 0008 0E46     		mov	r6, r1
 1063 000a 0027     		movs	r7, #0
 1064              	.LVL73:
 1065              	.L89:
 1066              	.LBB625:
 293:D:/fchai/work/i-cube/I-CUBE-HUAWEI/Middlewares/Third_Party/Huawei/iot_link/os/liteos/base/include\__binary_tree.h **** }
 1067              		.loc 2 293 5 view .LVU315
 1068 000c AB68     		ldr	r3, [r5, #8]
 1069 000e 3146     		mov	r1, r6
 1070 0010 2046     		mov	r0, r4
 1071 0012 9847     		blx	r3
 1072              	.LVL74:
 293:D:/fchai/work/i-cube/I-CUBE-HUAWEI/Middlewares/Third_Party/Huawei/iot_link/os/liteos/base/include\__binary_tree.h **** }
 1073              		.loc 2 293 5 view .LVU316
 293:D:/fchai/work/i-cube/I-CUBE-HUAWEI/Middlewares/Third_Party/Huawei/iot_link/os/liteos/base/include\__binary_tree.h **** }
 1074              		.loc 2 293 5 view .LVU317
 1075 0014 0028     		cmp	r0, #0
 1076 0016 05DD     		ble	.L94
 293:D:/fchai/work/i-cube/I-CUBE-HUAWEI/Middlewares/Third_Party/Huawei/iot_link/os/liteos/base/include\__binary_tree.h **** }
 1077              		.loc 2 293 5 is_stmt 0 view .LVU318
 1078 0018 2746     		mov	r7, r4
 1079              	.L87:
 293:D:/fchai/work/i-cube/I-CUBE-HUAWEI/Middlewares/Third_Party/Huawei/iot_link/os/liteos/base/include\__binary_tree.h **** }
 1080              		.loc 2 293 5 view .LVU319
 1081 001a 6468     		ldr	r4, [r4, #4]
 1082              	.LVL75:
 293:D:/fchai/work/i-cube/I-CUBE-HUAWEI/Middlewares/Third_Party/Huawei/iot_link/os/liteos/base/include\__binary_tree.h **** }
 1083              		.loc 2 293 5 view .LVU320
 1084              	.LBE625:
 293:D:/fchai/work/i-cube/I-CUBE-HUAWEI/Middlewares/Third_Party/Huawei/iot_link/os/liteos/base/include\__binary_tree.h **** }
 1085              		.loc 2 293 5 is_stmt 1 view .LVU321
 1086 001c 002C     		cmp	r4, #0
 1087 001e F5D1     		bne	.L89
 1088              	.L85:
 293:D:/fchai/work/i-cube/I-CUBE-HUAWEI/Middlewares/Third_Party/Huawei/iot_link/os/liteos/base/include\__binary_tree.h **** }
 1089              		.loc 2 293 5 is_stmt 0 view .LVU322
 1090              	.LBE624:
ARM GAS  T:\msys\tmp\cc3PruZ9.s 			page 44


 1091              	.LBE628:
 350:D:/fchai/work/i-cube/I-CUBE-HUAWEI/Middlewares/Third_Party/Huawei/iot_link/os/liteos/utils\rbtree.c **** 
 1092              		.loc 1 350 1 view .LVU323
 1093 0020 3846     		mov	r0, r7
 1094              	.LVL76:
 350:D:/fchai/work/i-cube/I-CUBE-HUAWEI/Middlewares/Third_Party/Huawei/iot_link/os/liteos/utils\rbtree.c **** 
 1095              		.loc 1 350 1 view .LVU324
 1096 0022 F8BD     		pop	{r3, r4, r5, r6, r7, pc}
 1097              	.LVL77:
 1098              	.L94:
 1099              	.LBB629:
 1100              	.LBB627:
 1101              	.LBB626:
 293:D:/fchai/work/i-cube/I-CUBE-HUAWEI/Middlewares/Third_Party/Huawei/iot_link/os/liteos/base/include\__binary_tree.h **** }
 1102              		.loc 2 293 5 view .LVU325
 1103 0024 F9D0     		beq	.L87
 1104 0026 A468     		ldr	r4, [r4, #8]
 1105              	.LVL78:
 293:D:/fchai/work/i-cube/I-CUBE-HUAWEI/Middlewares/Third_Party/Huawei/iot_link/os/liteos/base/include\__binary_tree.h **** }
 1106              		.loc 2 293 5 view .LVU326
 1107              	.LBE626:
 293:D:/fchai/work/i-cube/I-CUBE-HUAWEI/Middlewares/Third_Party/Huawei/iot_link/os/liteos/base/include\__binary_tree.h **** }
 1108              		.loc 2 293 5 is_stmt 1 view .LVU327
 1109 0028 002C     		cmp	r4, #0
 1110 002a EFD1     		bne	.L89
 1111 002c F8E7     		b	.L85
 1112              	.LVL79:
 1113              	.L90:
 293:D:/fchai/work/i-cube/I-CUBE-HUAWEI/Middlewares/Third_Party/Huawei/iot_link/os/liteos/base/include\__binary_tree.h **** }
 1114              		.loc 2 293 5 is_stmt 0 view .LVU328
 1115 002e 2746     		mov	r7, r4
 293:D:/fchai/work/i-cube/I-CUBE-HUAWEI/Middlewares/Third_Party/Huawei/iot_link/os/liteos/base/include\__binary_tree.h **** }
 1116              		.loc 2 293 5 is_stmt 1 view .LVU329
 1117              	.LBE627:
 1118              	.LBE629:
 293:D:/fchai/work/i-cube/I-CUBE-HUAWEI/Middlewares/Third_Party/Huawei/iot_link/os/liteos/base/include\__binary_tree.h **** }
 1119              		.loc 2 293 5 view .LVU330
 1120              	.LVL80:
 350:D:/fchai/work/i-cube/I-CUBE-HUAWEI/Middlewares/Third_Party/Huawei/iot_link/os/liteos/utils\rbtree.c **** 
 1121              		.loc 1 350 1 is_stmt 0 view .LVU331
 1122 0030 3846     		mov	r0, r7
 1123              	.LVL81:
 350:D:/fchai/work/i-cube/I-CUBE-HUAWEI/Middlewares/Third_Party/Huawei/iot_link/os/liteos/utils\rbtree.c **** 
 1124              		.loc 1 350 1 view .LVU332
 1125 0032 F8BD     		pop	{r3, r4, r5, r6, r7, pc}
 1126              		.cfi_endproc
 1127              	.LFE45:
 1129              		.section	.text.rb_find_le,"ax",%progbits
 1130              		.align	1
 1131              		.p2align 2,,3
 1132              		.global	rb_find_le
 1133              		.syntax unified
 1134              		.thumb
 1135              		.thumb_func
 1136              		.fpu fpv4-sp-d16
 1138              	rb_find_le:
 1139              	.LVL82:
ARM GAS  T:\msys\tmp\cc3PruZ9.s 			page 45


 1140              	.LFB46:
 361:D:/fchai/work/i-cube/I-CUBE-HUAWEI/Middlewares/Third_Party/Huawei/iot_link/os/liteos/utils\rbtree.c ****     return container_of (__bit_find_le (&t->bit, k), rb_node_t, bin);
 1141              		.loc 1 361 1 is_stmt 1 view -0
 1142              		.cfi_startproc
 1143              		@ args = 0, pretend = 0, frame = 0
 1144              		@ frame_needed = 0, uses_anonymous_args = 0
 362:D:/fchai/work/i-cube/I-CUBE-HUAWEI/Middlewares/Third_Party/Huawei/iot_link/os/liteos/utils\rbtree.c **** }
 1145              		.loc 1 362 5 view .LVU334
 361:D:/fchai/work/i-cube/I-CUBE-HUAWEI/Middlewares/Third_Party/Huawei/iot_link/os/liteos/utils\rbtree.c ****     return container_of (__bit_find_le (&t->bit, k), rb_node_t, bin);
 1146              		.loc 1 361 1 is_stmt 0 view .LVU335
 1147 0000 F8B5     		push	{r3, r4, r5, r6, r7, lr}
 1148              	.LCFI7:
 1149              		.cfi_def_cfa_offset 24
 1150              		.cfi_offset 3, -24
 1151              		.cfi_offset 4, -20
 1152              		.cfi_offset 5, -16
 1153              		.cfi_offset 6, -12
 1154              		.cfi_offset 7, -8
 1155              		.cfi_offset 14, -4
 362:D:/fchai/work/i-cube/I-CUBE-HUAWEI/Middlewares/Third_Party/Huawei/iot_link/os/liteos/utils\rbtree.c **** }
 1156              		.loc 1 362 12 view .LVU336
 1157 0002 0468     		ldr	r4, [r0]
 1158              	.LVL83:
 1159              	.LBB630:
 1160              	.LBI630:
 410:D:/fchai/work/i-cube/I-CUBE-HUAWEI/Middlewares/Third_Party/Huawei/iot_link/os/liteos/base/include\__binary_tree.h **** {
 1161              		.loc 2 410 27 is_stmt 1 view .LVU337
 410:D:/fchai/work/i-cube/I-CUBE-HUAWEI/Middlewares/Third_Party/Huawei/iot_link/os/liteos/base/include\__binary_tree.h **** {
 1162              		.loc 2 410 27 is_stmt 0 view .LVU338
 1163              	.LBE630:
 412:D:/fchai/work/i-cube/I-CUBE-HUAWEI/Middlewares/Third_Party/Huawei/iot_link/os/liteos/base/include\__binary_tree.h **** }
 1164              		.loc 2 412 5 is_stmt 1 view .LVU339
 1165              	.LBB635:
 1166              	.LBB631:
 412:D:/fchai/work/i-cube/I-CUBE-HUAWEI/Middlewares/Third_Party/Huawei/iot_link/os/liteos/base/include\__binary_tree.h **** }
 1167              		.loc 2 412 5 view .LVU340
 412:D:/fchai/work/i-cube/I-CUBE-HUAWEI/Middlewares/Third_Party/Huawei/iot_link/os/liteos/base/include\__binary_tree.h **** }
 1168              		.loc 2 412 5 view .LVU341
 412:D:/fchai/work/i-cube/I-CUBE-HUAWEI/Middlewares/Third_Party/Huawei/iot_link/os/liteos/base/include\__binary_tree.h **** }
 1169              		.loc 2 412 5 view .LVU342
 412:D:/fchai/work/i-cube/I-CUBE-HUAWEI/Middlewares/Third_Party/Huawei/iot_link/os/liteos/base/include\__binary_tree.h **** }
 1170              		.loc 2 412 5 view .LVU343
 1171 0004 84B1     		cbz	r4, .L95
 1172 0006 0546     		mov	r5, r0
 1173 0008 0E46     		mov	r6, r1
 1174 000a 0027     		movs	r7, #0
 1175 000c 06E0     		b	.L98
 1176              	.LVL84:
 1177              	.L109:
 1178              	.LBB632:
 412:D:/fchai/work/i-cube/I-CUBE-HUAWEI/Middlewares/Third_Party/Huawei/iot_link/os/liteos/base/include\__binary_tree.h **** }
 1179              		.loc 2 412 5 is_stmt 0 view .LVU344
 1180 000e D4E90132 		ldrd	r3, r2, [r4, #4]
 1181 0012 D6BF     		itet	le
 1182 0014 2746     		movle	r7, r4
 1183 0016 1C46     		movgt	r4, r3
 1184              	.LVL85:
ARM GAS  T:\msys\tmp\cc3PruZ9.s 			page 46


 412:D:/fchai/work/i-cube/I-CUBE-HUAWEI/Middlewares/Third_Party/Huawei/iot_link/os/liteos/base/include\__binary_tree.h **** }
 1185              		.loc 2 412 5 view .LVU345
 1186 0018 1446     		movle	r4, r2
 1187              	.LVL86:
 412:D:/fchai/work/i-cube/I-CUBE-HUAWEI/Middlewares/Third_Party/Huawei/iot_link/os/liteos/base/include\__binary_tree.h **** }
 1188              		.loc 2 412 5 view .LVU346
 1189              	.LBE632:
 412:D:/fchai/work/i-cube/I-CUBE-HUAWEI/Middlewares/Third_Party/Huawei/iot_link/os/liteos/base/include\__binary_tree.h **** }
 1190              		.loc 2 412 5 is_stmt 1 view .LVU347
 1191 001a 3CB1     		cbz	r4, .L108
 1192              	.LVL87:
 1193              	.L98:
 1194              	.LBB633:
 412:D:/fchai/work/i-cube/I-CUBE-HUAWEI/Middlewares/Third_Party/Huawei/iot_link/os/liteos/base/include\__binary_tree.h **** }
 1195              		.loc 2 412 5 view .LVU348
 1196 001c AB68     		ldr	r3, [r5, #8]
 1197 001e 3146     		mov	r1, r6
 1198 0020 2046     		mov	r0, r4
 1199 0022 9847     		blx	r3
 1200              	.LVL88:
 412:D:/fchai/work/i-cube/I-CUBE-HUAWEI/Middlewares/Third_Party/Huawei/iot_link/os/liteos/base/include\__binary_tree.h **** }
 1201              		.loc 2 412 5 view .LVU349
 412:D:/fchai/work/i-cube/I-CUBE-HUAWEI/Middlewares/Third_Party/Huawei/iot_link/os/liteos/base/include\__binary_tree.h **** }
 1202              		.loc 2 412 5 view .LVU350
 1203 0024 0028     		cmp	r0, #0
 1204 0026 F2D1     		bne	.L109
 1205              	.LVL89:
 1206              	.L95:
 412:D:/fchai/work/i-cube/I-CUBE-HUAWEI/Middlewares/Third_Party/Huawei/iot_link/os/liteos/base/include\__binary_tree.h **** }
 1207              		.loc 2 412 5 is_stmt 0 view .LVU351
 1208              	.LBE633:
 1209              	.LBE631:
 1210              	.LBE635:
 363:D:/fchai/work/i-cube/I-CUBE-HUAWEI/Middlewares/Third_Party/Huawei/iot_link/os/liteos/utils\rbtree.c **** 
 1211              		.loc 1 363 1 view .LVU352
 1212 0028 2046     		mov	r0, r4
 1213 002a F8BD     		pop	{r3, r4, r5, r6, r7, pc}
 1214              	.LVL90:
 1215              	.L108:
 1216              	.LBB636:
 1217              	.LBB634:
 363:D:/fchai/work/i-cube/I-CUBE-HUAWEI/Middlewares/Third_Party/Huawei/iot_link/os/liteos/utils\rbtree.c **** 
 1218              		.loc 1 363 1 view .LVU353
 1219 002c 3C46     		mov	r4, r7
 1220              	.LVL91:
 363:D:/fchai/work/i-cube/I-CUBE-HUAWEI/Middlewares/Third_Party/Huawei/iot_link/os/liteos/utils\rbtree.c **** 
 1221              		.loc 1 363 1 view .LVU354
 1222              	.LBE634:
 1223              	.LBE636:
 412:D:/fchai/work/i-cube/I-CUBE-HUAWEI/Middlewares/Third_Party/Huawei/iot_link/os/liteos/base/include\__binary_tree.h **** }
 1224              		.loc 2 412 5 is_stmt 1 view .LVU355
 363:D:/fchai/work/i-cube/I-CUBE-HUAWEI/Middlewares/Third_Party/Huawei/iot_link/os/liteos/utils\rbtree.c **** 
 1225              		.loc 1 363 1 is_stmt 0 view .LVU356
 1226 002e 2046     		mov	r0, r4
 1227 0030 F8BD     		pop	{r3, r4, r5, r6, r7, pc}
 363:D:/fchai/work/i-cube/I-CUBE-HUAWEI/Middlewares/Third_Party/Huawei/iot_link/os/liteos/utils\rbtree.c **** 
 1228              		.loc 1 363 1 view .LVU357
ARM GAS  T:\msys\tmp\cc3PruZ9.s 			page 47


 1229              		.cfi_endproc
 1230              	.LFE46:
 1232 0032 00BF     		.section	.text.rb_find_lt,"ax",%progbits
 1233              		.align	1
 1234              		.p2align 2,,3
 1235              		.global	rb_find_lt
 1236              		.syntax unified
 1237              		.thumb
 1238              		.thumb_func
 1239              		.fpu fpv4-sp-d16
 1241              	rb_find_lt:
 1242              	.LVL92:
 1243              	.LFB47:
 374:D:/fchai/work/i-cube/I-CUBE-HUAWEI/Middlewares/Third_Party/Huawei/iot_link/os/liteos/utils\rbtree.c ****     return container_of (__bit_find_lt (&t->bit, k), rb_node_t, bin);
 1244              		.loc 1 374 1 is_stmt 1 view -0
 1245              		.cfi_startproc
 1246              		@ args = 0, pretend = 0, frame = 0
 1247              		@ frame_needed = 0, uses_anonymous_args = 0
 375:D:/fchai/work/i-cube/I-CUBE-HUAWEI/Middlewares/Third_Party/Huawei/iot_link/os/liteos/utils\rbtree.c **** }
 1248              		.loc 1 375 5 view .LVU359
 374:D:/fchai/work/i-cube/I-CUBE-HUAWEI/Middlewares/Third_Party/Huawei/iot_link/os/liteos/utils\rbtree.c ****     return container_of (__bit_find_lt (&t->bit, k), rb_node_t, bin);
 1249              		.loc 1 374 1 is_stmt 0 view .LVU360
 1250 0000 F8B5     		push	{r3, r4, r5, r6, r7, lr}
 1251              	.LCFI8:
 1252              		.cfi_def_cfa_offset 24
 1253              		.cfi_offset 3, -24
 1254              		.cfi_offset 4, -20
 1255              		.cfi_offset 5, -16
 1256              		.cfi_offset 6, -12
 1257              		.cfi_offset 7, -8
 1258              		.cfi_offset 14, -4
 375:D:/fchai/work/i-cube/I-CUBE-HUAWEI/Middlewares/Third_Party/Huawei/iot_link/os/liteos/utils\rbtree.c **** }
 1259              		.loc 1 375 12 view .LVU361
 1260 0002 0468     		ldr	r4, [r0]
 1261              	.LVL93:
 1262              	.LBB637:
 1263              	.LBI637:
 304:D:/fchai/work/i-cube/I-CUBE-HUAWEI/Middlewares/Third_Party/Huawei/iot_link/os/liteos/base/include\__binary_tree.h **** {
 1264              		.loc 2 304 27 is_stmt 1 view .LVU362
 304:D:/fchai/work/i-cube/I-CUBE-HUAWEI/Middlewares/Third_Party/Huawei/iot_link/os/liteos/base/include\__binary_tree.h **** {
 1265              		.loc 2 304 27 is_stmt 0 view .LVU363
 1266              	.LBE637:
 306:D:/fchai/work/i-cube/I-CUBE-HUAWEI/Middlewares/Third_Party/Huawei/iot_link/os/liteos/base/include\__binary_tree.h **** }
 1267              		.loc 2 306 5 is_stmt 1 view .LVU364
 1268              	.LBB641:
 1269              	.LBB638:
 306:D:/fchai/work/i-cube/I-CUBE-HUAWEI/Middlewares/Third_Party/Huawei/iot_link/os/liteos/base/include\__binary_tree.h **** }
 1270              		.loc 2 306 5 view .LVU365
 306:D:/fchai/work/i-cube/I-CUBE-HUAWEI/Middlewares/Third_Party/Huawei/iot_link/os/liteos/base/include\__binary_tree.h **** }
 1271              		.loc 2 306 5 view .LVU366
 306:D:/fchai/work/i-cube/I-CUBE-HUAWEI/Middlewares/Third_Party/Huawei/iot_link/os/liteos/base/include\__binary_tree.h **** }
 1272              		.loc 2 306 5 view .LVU367
 306:D:/fchai/work/i-cube/I-CUBE-HUAWEI/Middlewares/Third_Party/Huawei/iot_link/os/liteos/base/include\__binary_tree.h **** }
 1273              		.loc 2 306 5 view .LVU368
 1274 0004 8CB1     		cbz	r4, .L114
 1275 0006 0546     		mov	r5, r0
 1276 0008 0E46     		mov	r6, r1
ARM GAS  T:\msys\tmp\cc3PruZ9.s 			page 48


 1277 000a 0027     		movs	r7, #0
 1278              	.LVL94:
 1279              	.L113:
 1280              	.LBB639:
 306:D:/fchai/work/i-cube/I-CUBE-HUAWEI/Middlewares/Third_Party/Huawei/iot_link/os/liteos/base/include\__binary_tree.h **** }
 1281              		.loc 2 306 5 view .LVU369
 1282 000c 2046     		mov	r0, r4
 1283 000e AB68     		ldr	r3, [r5, #8]
 1284 0010 3146     		mov	r1, r6
 1285 0012 9847     		blx	r3
 1286              	.LVL95:
 306:D:/fchai/work/i-cube/I-CUBE-HUAWEI/Middlewares/Third_Party/Huawei/iot_link/os/liteos/base/include\__binary_tree.h **** }
 1287              		.loc 2 306 5 view .LVU370
 1288 0014 D4E90132 		ldrd	r3, r2, [r4, #4]
 1289 0018 0028     		cmp	r0, #0
 1290 001a B6BF     		itet	lt
 1291 001c 2746     		movlt	r7, r4
 1292 001e 1C46     		movge	r4, r3
 1293              	.LVL96:
 306:D:/fchai/work/i-cube/I-CUBE-HUAWEI/Middlewares/Third_Party/Huawei/iot_link/os/liteos/base/include\__binary_tree.h **** }
 1294              		.loc 2 306 5 is_stmt 0 view .LVU371
 1295 0020 1446     		movlt	r4, r2
 1296              	.LVL97:
 306:D:/fchai/work/i-cube/I-CUBE-HUAWEI/Middlewares/Third_Party/Huawei/iot_link/os/liteos/base/include\__binary_tree.h **** }
 1297              		.loc 2 306 5 view .LVU372
 1298              	.LBE639:
 306:D:/fchai/work/i-cube/I-CUBE-HUAWEI/Middlewares/Third_Party/Huawei/iot_link/os/liteos/base/include\__binary_tree.h **** }
 1299              		.loc 2 306 5 is_stmt 1 view .LVU373
 1300 0022 002C     		cmp	r4, #0
 1301 0024 F2D1     		bne	.L113
 1302              	.LBE638:
 1303              	.LBE641:
 376:D:/fchai/work/i-cube/I-CUBE-HUAWEI/Middlewares/Third_Party/Huawei/iot_link/os/liteos/utils\rbtree.c **** 
 1304              		.loc 1 376 1 is_stmt 0 view .LVU374
 1305 0026 3846     		mov	r0, r7
 1306              	.LVL98:
 376:D:/fchai/work/i-cube/I-CUBE-HUAWEI/Middlewares/Third_Party/Huawei/iot_link/os/liteos/utils\rbtree.c **** 
 1307              		.loc 1 376 1 view .LVU375
 1308 0028 F8BD     		pop	{r3, r4, r5, r6, r7, pc}
 1309              	.LVL99:
 1310              	.L114:
 1311              	.LBB642:
 1312              	.LBB640:
 306:D:/fchai/work/i-cube/I-CUBE-HUAWEI/Middlewares/Third_Party/Huawei/iot_link/os/liteos/base/include\__binary_tree.h **** }
 1313              		.loc 2 306 5 view .LVU376
 1314 002a 2746     		mov	r7, r4
 306:D:/fchai/work/i-cube/I-CUBE-HUAWEI/Middlewares/Third_Party/Huawei/iot_link/os/liteos/base/include\__binary_tree.h **** }
 1315              		.loc 2 306 5 is_stmt 1 view .LVU377
 1316              	.LBE640:
 1317              	.LBE642:
 306:D:/fchai/work/i-cube/I-CUBE-HUAWEI/Middlewares/Third_Party/Huawei/iot_link/os/liteos/base/include\__binary_tree.h **** }
 1318              		.loc 2 306 5 view .LVU378
 1319              	.LVL100:
 376:D:/fchai/work/i-cube/I-CUBE-HUAWEI/Middlewares/Third_Party/Huawei/iot_link/os/liteos/utils\rbtree.c **** 
 1320              		.loc 1 376 1 is_stmt 0 view .LVU379
 1321 002c 3846     		mov	r0, r7
 1322              	.LVL101:
ARM GAS  T:\msys\tmp\cc3PruZ9.s 			page 49


 376:D:/fchai/work/i-cube/I-CUBE-HUAWEI/Middlewares/Third_Party/Huawei/iot_link/os/liteos/utils\rbtree.c **** 
 1323              		.loc 1 376 1 view .LVU380
 1324 002e F8BD     		pop	{r3, r4, r5, r6, r7, pc}
 1325              		.cfi_endproc
 1326              	.LFE47:
 1328              		.section	.text.rb_first,"ax",%progbits
 1329              		.align	1
 1330              		.p2align 2,,3
